    Finished `dev` profile [unoptimized + debuginfo] target(s) in 0.01s

lab7_kernel_task2:	file format elf64-littleriscv

Disassembly of section .text:

0000000080000000 <_start>:
80000000: 00021117     	auipc	sp, 0x21
80000004: 00010113     	mv	sp, sp
80000008: 00005097     	auipc	ra, 0x5
8000000c: 42a080e7     	jalr	0x42a(ra) <start_machine>
80000010: a001         	j	0x80000010 <_start+0x10>

0000000080000012 <core::ptr::write_bytes::precondition_check::h766a32318f5c57da>:
80000012: 715d         	addi	sp, sp, -0x50
80000014: e486         	sd	ra, 0x48(sp)
80000016: e436         	sd	a3, 0x8(sp)
80000018: e82a         	sd	a0, 0x10(sp)
8000001a: 86b2         	mv	a3, a2
8000001c: ec36         	sd	a3, 0x18(sp)
8000001e: f02a         	sd	a0, 0x20(sp)
80000020: f42e         	sd	a1, 0x28(sp)
80000022: 02c10ba3     	sb	a2, 0x37(sp)
80000026: 00001097     	auipc	ra, 0x1
8000002a: 96a080e7     	jalr	-0x696(ra) <core::ptr::const_ptr::_$LT$impl$u20$$BP$const$u20$T$GT$::is_aligned_to::h18b52056f1a388cc>
8000002e: e119         	bnez	a0, 0x80000034 <core::ptr::write_bytes::precondition_check::h766a32318f5c57da+0x22>
80000030: a009         	j	0x80000032 <core::ptr::write_bytes::precondition_check::h766a32318f5c57da+0x20>
80000032: a029         	j	0x8000003c <core::ptr::write_bytes::precondition_check::h766a32318f5c57da+0x2a>
80000034: 6562         	ld	a0, 0x18(sp)
80000036: 8905         	andi	a0, a0, 0x1
80000038: e50d         	bnez	a0, 0x80000062 <.Lpcrel_hi0+0x24>
8000003a: a00d         	j	0x8000005c <.Lpcrel_hi0+0x1e>
8000003c: 66a2         	ld	a3, 0x8(sp)

000000008000003e <.Lpcrel_hi0>:
8000003e: 00007517     	auipc	a0, 0x7
80000042: b7850513     	addi	a0, a0, -0x488
80000046: fc2a         	sd	a0, 0x38(sp)
80000048: 0e400593     	li	a1, 0xe4
8000004c: e0ae         	sd	a1, 0x40(sp)
8000004e: 1c900593     	li	a1, 0x1c9
80000052: 4601         	li	a2, 0x0
80000054: 00006097     	auipc	ra, 0x6
80000058: 7a2080e7     	jalr	0x7a2(ra) <core::panicking::panic_nounwind_fmt::h2e018e50a8d3bc73>
8000005c: 6542         	ld	a0, 0x10(sp)
8000005e: e119         	bnez	a0, 0x80000064 <.Lpcrel_hi0+0x26>
80000060: bff1         	j	0x8000003c <core::ptr::write_bytes::precondition_check::h766a32318f5c57da+0x2a>
80000062: a009         	j	0x80000064 <.Lpcrel_hi0+0x26>
80000064: 60a6         	ld	ra, 0x48(sp)
80000066: 6161         	addi	sp, sp, 0x50
80000068: 8082         	ret

000000008000006a <core::ptr::read_volatile::precondition_check::hff20c781ae14a9f2>:
8000006a: 7179         	addi	sp, sp, -0x30
8000006c: f406         	sd	ra, 0x28(sp)
8000006e: e032         	sd	a2, 0x0(sp)
80000070: e42a         	sd	a0, 0x8(sp)
80000072: e82e         	sd	a1, 0x10(sp)
80000074: 00001097     	auipc	ra, 0x1
80000078: 91c080e7     	jalr	-0x6e4(ra) <core::ptr::const_ptr::_$LT$impl$u20$$BP$const$u20$T$GT$::is_aligned_to::h18b52056f1a388cc>
8000007c: e115         	bnez	a0, 0x800000a0 <.Lpcrel_hi1+0x1e>
8000007e: a009         	j	0x80000080 <core::ptr::read_volatile::precondition_check::hff20c781ae14a9f2+0x16>
80000080: 6682         	ld	a3, 0x0(sp)

0000000080000082 <.Lpcrel_hi1>:
80000082: 00007517     	auipc	a0, 0x7
80000086: c1850513     	addi	a0, a0, -0x3e8
8000008a: ec2a         	sd	a0, 0x18(sp)
8000008c: 0d600593     	li	a1, 0xd6
80000090: f02e         	sd	a1, 0x20(sp)
80000092: 1ad00593     	li	a1, 0x1ad
80000096: 4601         	li	a2, 0x0
80000098: 00006097     	auipc	ra, 0x6
8000009c: 75e080e7     	jalr	0x75e(ra) <core::panicking::panic_nounwind_fmt::h2e018e50a8d3bc73>
800000a0: 70a2         	ld	ra, 0x28(sp)
800000a2: 6145         	addi	sp, sp, 0x30
800000a4: 8082         	ret

00000000800000a6 <core::ptr::write_volatile::precondition_check::hdbce39b41f8468dd>:
800000a6: 7139         	addi	sp, sp, -0x40
800000a8: fc06         	sd	ra, 0x38(sp)
800000aa: e432         	sd	a2, 0x8(sp)
800000ac: e82a         	sd	a0, 0x10(sp)
800000ae: ec2e         	sd	a1, 0x18(sp)
800000b0: f02a         	sd	a0, 0x20(sp)
800000b2: 00001097     	auipc	ra, 0x1
800000b6: 8de080e7     	jalr	-0x722(ra) <core::ptr::const_ptr::_$LT$impl$u20$$BP$const$u20$T$GT$::is_aligned_to::h18b52056f1a388cc>
800000ba: e115         	bnez	a0, 0x800000de <.Lpcrel_hi2+0x1e>
800000bc: a009         	j	0x800000be <core::ptr::write_volatile::precondition_check::hdbce39b41f8468dd+0x18>
800000be: 66a2         	ld	a3, 0x8(sp)

00000000800000c0 <.Lpcrel_hi2>:
800000c0: 00007517     	auipc	a0, 0x7
800000c4: cb050513     	addi	a0, a0, -0x350
800000c8: f42a         	sd	a0, 0x28(sp)
800000ca: 0d700593     	li	a1, 0xd7
800000ce: f82e         	sd	a1, 0x30(sp)
800000d0: 1af00593     	li	a1, 0x1af
800000d4: 4601         	li	a2, 0x0
800000d6: 00006097     	auipc	ra, 0x6
800000da: 720080e7     	jalr	0x720(ra) <core::panicking::panic_nounwind_fmt::h2e018e50a8d3bc73>
800000de: 70e2         	ld	ra, 0x38(sp)
800000e0: 6121         	addi	sp, sp, 0x40
800000e2: 8082         	ret

00000000800000e4 <core::ptr::copy_nonoverlapping::precondition_check::hfd3820c5a907079e>:
800000e4: 7175         	addi	sp, sp, -0x90
800000e6: e506         	sd	ra, 0x88(sp)
800000e8: e43e         	sd	a5, 0x8(sp)
800000ea: e83a         	sd	a4, 0x10(sp)
800000ec: ec36         	sd	a3, 0x18(sp)
800000ee: f032         	sd	a2, 0x20(sp)
800000f0: f42e         	sd	a1, 0x28(sp)
800000f2: f82a         	sd	a0, 0x30(sp)
800000f4: e0aa         	sd	a0, 0x40(sp)
800000f6: e4ae         	sd	a1, 0x48(sp)
800000f8: e8b2         	sd	a2, 0x50(sp)
800000fa: ecb6         	sd	a3, 0x58(sp)
800000fc: f0ba         	sd	a4, 0x60(sp)
800000fe: e711         	bnez	a4, 0x8000010a <core::ptr::copy_nonoverlapping::precondition_check::hfd3820c5a907079e+0x26>
80000100: a009         	j	0x80000102 <core::ptr::copy_nonoverlapping::precondition_check::hfd3820c5a907079e+0x1e>
80000102: 4505         	li	a0, 0x1
80000104: 02a10fa3     	sb	a0, 0x3f(sp)
80000108: a039         	j	0x80000116 <core::ptr::copy_nonoverlapping::precondition_check::hfd3820c5a907079e+0x32>
8000010a: 7502         	ld	a0, 0x20(sp)
8000010c: 00153513     	seqz	a0, a0
80000110: 02a10fa3     	sb	a0, 0x3f(sp)
80000114: a009         	j	0x80000116 <core::ptr::copy_nonoverlapping::precondition_check::hfd3820c5a907079e+0x32>
80000116: 65e2         	ld	a1, 0x18(sp)
80000118: 7542         	ld	a0, 0x30(sp)
8000011a: 03f14603     	lbu	a2, 0x3f(sp)
8000011e: e032         	sd	a2, 0x0(sp)
80000120: 06c107a3     	sb	a2, 0x6f(sp)
80000124: 00001097     	auipc	ra, 0x1
80000128: 86c080e7     	jalr	-0x794(ra) <core::ptr::const_ptr::_$LT$impl$u20$$BP$const$u20$T$GT$::is_aligned_to::h18b52056f1a388cc>
8000012c: e119         	bnez	a0, 0x80000132 <core::ptr::copy_nonoverlapping::precondition_check::hfd3820c5a907079e+0x4e>
8000012e: a009         	j	0x80000130 <core::ptr::copy_nonoverlapping::precondition_check::hfd3820c5a907079e+0x4c>
80000130: a029         	j	0x8000013a <core::ptr::copy_nonoverlapping::precondition_check::hfd3820c5a907079e+0x56>
80000132: 6502         	ld	a0, 0x0(sp)
80000134: 8905         	andi	a0, a0, 0x1
80000136: e511         	bnez	a0, 0x80000142 <core::ptr::copy_nonoverlapping::precondition_check::hfd3820c5a907079e+0x5e>
80000138: a011         	j	0x8000013c <core::ptr::copy_nonoverlapping::precondition_check::hfd3820c5a907079e+0x58>
8000013a: a831         	j	0x80000156 <core::ptr::copy_nonoverlapping::precondition_check::hfd3820c5a907079e+0x72>
8000013c: 7542         	ld	a0, 0x30(sp)
8000013e: e119         	bnez	a0, 0x80000144 <core::ptr::copy_nonoverlapping::precondition_check::hfd3820c5a907079e+0x60>
80000140: bfed         	j	0x8000013a <core::ptr::copy_nonoverlapping::precondition_check::hfd3820c5a907079e+0x56>
80000142: a009         	j	0x80000144 <core::ptr::copy_nonoverlapping::precondition_check::hfd3820c5a907079e+0x60>
80000144: 65e2         	ld	a1, 0x18(sp)
80000146: 7522         	ld	a0, 0x28(sp)
80000148: f8aa         	sd	a0, 0x70(sp)
8000014a: 00001097     	auipc	ra, 0x1
8000014e: 846080e7     	jalr	-0x7ba(ra) <core::ptr::const_ptr::_$LT$impl$u20$$BP$const$u20$T$GT$::is_aligned_to::h18b52056f1a388cc>
80000152: e501         	bnez	a0, 0x8000015a <core::ptr::copy_nonoverlapping::precondition_check::hfd3820c5a907079e+0x76>
80000154: a011         	j	0x80000158 <core::ptr::copy_nonoverlapping::precondition_check::hfd3820c5a907079e+0x74>
80000156: a035         	j	0x80000182 <core::ptr::copy_nonoverlapping::precondition_check::hfd3820c5a907079e+0x9e>
80000158: a031         	j	0x80000164 <core::ptr::copy_nonoverlapping::precondition_check::hfd3820c5a907079e+0x80>
8000015a: 03f14503     	lbu	a0, 0x3f(sp)
8000015e: 8905         	andi	a0, a0, 0x1
80000160: e511         	bnez	a0, 0x8000016c <core::ptr::copy_nonoverlapping::precondition_check::hfd3820c5a907079e+0x88>
80000162: a011         	j	0x80000166 <core::ptr::copy_nonoverlapping::precondition_check::hfd3820c5a907079e+0x82>
80000164: bfcd         	j	0x80000156 <core::ptr::copy_nonoverlapping::precondition_check::hfd3820c5a907079e+0x72>
80000166: 7522         	ld	a0, 0x28(sp)
80000168: e119         	bnez	a0, 0x8000016e <core::ptr::copy_nonoverlapping::precondition_check::hfd3820c5a907079e+0x8a>
8000016a: bfed         	j	0x80000164 <core::ptr::copy_nonoverlapping::precondition_check::hfd3820c5a907079e+0x80>
8000016c: a009         	j	0x8000016e <core::ptr::copy_nonoverlapping::precondition_check::hfd3820c5a907079e+0x8a>
8000016e: 66c2         	ld	a3, 0x10(sp)
80000170: 7602         	ld	a2, 0x20(sp)
80000172: 75a2         	ld	a1, 0x28(sp)
80000174: 7542         	ld	a0, 0x30(sp)
80000176: 00005097     	auipc	ra, 0x5
8000017a: 4c8080e7     	jalr	0x4c8(ra) <core::ub_checks::maybe_is_nonoverlapping::runtime::he55015f577cf8611>
8000017e: e115         	bnez	a0, 0x800001a2 <.Lpcrel_hi3+0x1e>
80000180: a009         	j	0x80000182 <core::ptr::copy_nonoverlapping::precondition_check::hfd3820c5a907079e+0x9e>
80000182: 66a2         	ld	a3, 0x8(sp)

0000000080000184 <.Lpcrel_hi3>:
80000184: 00007517     	auipc	a0, 0x7
80000188: cc350513     	addi	a0, a0, -0x33d
8000018c: fcaa         	sd	a0, 0x78(sp)
8000018e: 11b00593     	li	a1, 0x11b
80000192: e12e         	sd	a1, 0x80(sp)
80000194: 23700593     	li	a1, 0x237
80000198: 4601         	li	a2, 0x0
8000019a: 00006097     	auipc	ra, 0x6
8000019e: 65c080e7     	jalr	0x65c(ra) <core::panicking::panic_nounwind_fmt::h2e018e50a8d3bc73>
800001a2: 60aa         	ld	ra, 0x88(sp)
800001a4: 6149         	addi	sp, sp, 0x90
800001a6: 8082         	ret

00000000800001a8 <core::iter::range::_$LT$impl$u20$core..iter..traits..iterator..Iterator$u20$for$u20$core..ops..range..Range$LT$A$GT$$GT$::next::hebf4fa418202f819>:
800001a8: 1141         	addi	sp, sp, -0x10
800001aa: e406         	sd	ra, 0x8(sp)
800001ac: e02a         	sd	a0, 0x0(sp)
800001ae: 00000097     	auipc	ra, 0x0
800001b2: 018080e7     	jalr	0x18(ra) <_$LT$core..ops..range..Range$LT$T$GT$$u20$as$u20$core..iter..range..RangeIteratorImpl$GT$::spec_next::hc933c599998dfc9b>
800001b6: 60a2         	ld	ra, 0x8(sp)
800001b8: 0141         	addi	sp, sp, 0x10
800001ba: 8082         	ret

00000000800001bc <_$LT$I$u20$as$u20$core..iter..traits..collect..IntoIterator$GT$::into_iter::hb8f52e27760293d8>:
800001bc: 1141         	addi	sp, sp, -0x10
800001be: e02a         	sd	a0, 0x0(sp)
800001c0: e42e         	sd	a1, 0x8(sp)
800001c2: 0141         	addi	sp, sp, 0x10
800001c4: 8082         	ret

00000000800001c6 <_$LT$core..ops..range..Range$LT$T$GT$$u20$as$u20$core..iter..range..RangeIteratorImpl$GT$::spec_next::hc933c599998dfc9b>:
800001c6: 715d         	addi	sp, sp, -0x50
800001c8: e486         	sd	ra, 0x48(sp)
800001ca: 85aa         	mv	a1, a0
800001cc: e82e         	sd	a1, 0x10(sp)
800001ce: f42e         	sd	a1, 0x28(sp)
800001d0: 00858513     	addi	a0, a1, 0x8
800001d4: fc2e         	sd	a1, 0x38(sp)
800001d6: e0aa         	sd	a0, 0x40(sp)
800001d8: 6188         	ld	a0, 0x0(a1)
800001da: 658c         	ld	a1, 0x8(a1)
800001dc: 00b56663     	bltu	a0, a1, 0x800001e8 <_$LT$core..ops..range..Range$LT$T$GT$$u20$as$u20$core..iter..range..RangeIteratorImpl$GT$::spec_next::hc933c599998dfc9b+0x22>
800001e0: a009         	j	0x800001e2 <_$LT$core..ops..range..Range$LT$T$GT$$u20$as$u20$core..iter..range..RangeIteratorImpl$GT$::spec_next::hc933c599998dfc9b+0x1c>
800001e2: 4501         	li	a0, 0x0
800001e4: ec2a         	sd	a0, 0x18(sp)
800001e6: a01d         	j	0x8000020c <_$LT$core..ops..range..Range$LT$T$GT$$u20$as$u20$core..iter..range..RangeIteratorImpl$GT$::spec_next::hc933c599998dfc9b+0x46>
800001e8: 6542         	ld	a0, 0x10(sp)
800001ea: 6108         	ld	a0, 0x0(a0)
800001ec: e02a         	sd	a0, 0x0(sp)
800001ee: f82a         	sd	a0, 0x30(sp)
800001f0: 4585         	li	a1, 0x1
800001f2: e42e         	sd	a1, 0x8(sp)
800001f4: 00000097     	auipc	ra, 0x0
800001f8: 142080e7     	jalr	0x142(ra) <_$LT$usize$u20$as$u20$core..iter..range..Step$GT$::forward_unchecked::h5488b22337cc5535>
800001fc: 66c2         	ld	a3, 0x10(sp)
800001fe: 6582         	ld	a1, 0x0(sp)
80000200: 862a         	mv	a2, a0
80000202: 6522         	ld	a0, 0x8(sp)
80000204: e290         	sd	a2, 0x0(a3)
80000206: f02e         	sd	a1, 0x20(sp)
80000208: ec2a         	sd	a0, 0x18(sp)
8000020a: a009         	j	0x8000020c <_$LT$core..ops..range..Range$LT$T$GT$$u20$as$u20$core..iter..range..RangeIteratorImpl$GT$::spec_next::hc933c599998dfc9b+0x46>
8000020c: 6562         	ld	a0, 0x18(sp)
8000020e: 7582         	ld	a1, 0x20(sp)
80000210: 60a6         	ld	ra, 0x48(sp)
80000212: 6161         	addi	sp, sp, 0x50
80000214: 8082         	ret

0000000080000216 <_$LT$$RF$T$u20$as$u20$core..fmt..Display$GT$::fmt::h76fa7fc8c72307a2>:
80000216: 1101         	addi	sp, sp, -0x20
80000218: ec06         	sd	ra, 0x18(sp)
8000021a: 862e         	mv	a2, a1
8000021c: 85aa         	mv	a1, a0
8000021e: e42e         	sd	a1, 0x8(sp)
80000220: e832         	sd	a2, 0x10(sp)
80000222: 6188         	ld	a0, 0x0(a1)
80000224: 658c         	ld	a1, 0x8(a1)
80000226: 00005097     	auipc	ra, 0x5
8000022a: 680080e7     	jalr	0x680(ra) <_$LT$str$u20$as$u20$core..fmt..Display$GT$::fmt::h53474d83e2b0968b>
8000022e: 60e2         	ld	ra, 0x18(sp)
80000230: 6105         	addi	sp, sp, 0x20
80000232: 8082         	ret

0000000080000234 <core::fmt::Arguments::new::h088c9ce3743b7ddb>:
80000234: 1141         	addi	sp, sp, -0x10
80000236: e02a         	sd	a0, 0x0(sp)
80000238: e42e         	sd	a1, 0x8(sp)
8000023a: 0141         	addi	sp, sp, 0x10
8000023c: 8082         	ret

000000008000023e <core::fmt::Arguments::new::h1551d9f8050bf35d>:
8000023e: 1141         	addi	sp, sp, -0x10
80000240: e02a         	sd	a0, 0x0(sp)
80000242: e42e         	sd	a1, 0x8(sp)
80000244: 0141         	addi	sp, sp, 0x10
80000246: 8082         	ret

0000000080000248 <core::fmt::Arguments::new::h163cdcf3ee211606>:
80000248: 1141         	addi	sp, sp, -0x10
8000024a: e02a         	sd	a0, 0x0(sp)
8000024c: e42e         	sd	a1, 0x8(sp)
8000024e: 0141         	addi	sp, sp, 0x10
80000250: 8082         	ret

0000000080000252 <core::fmt::Arguments::new::h1c60bb831a3abe6f>:
80000252: 1141         	addi	sp, sp, -0x10
80000254: e02a         	sd	a0, 0x0(sp)
80000256: e42e         	sd	a1, 0x8(sp)
80000258: 0141         	addi	sp, sp, 0x10
8000025a: 8082         	ret

000000008000025c <core::fmt::Arguments::new::h2774848715ab8d7f>:
8000025c: 1141         	addi	sp, sp, -0x10
8000025e: e02a         	sd	a0, 0x0(sp)
80000260: e42e         	sd	a1, 0x8(sp)
80000262: 0141         	addi	sp, sp, 0x10
80000264: 8082         	ret

0000000080000266 <core::fmt::Arguments::new::h4ef54948aee36e6d>:
80000266: 1141         	addi	sp, sp, -0x10
80000268: e02a         	sd	a0, 0x0(sp)
8000026a: e42e         	sd	a1, 0x8(sp)
8000026c: 0141         	addi	sp, sp, 0x10
8000026e: 8082         	ret

0000000080000270 <core::fmt::Arguments::new::h5a7d0507b091f7e3>:
80000270: 1141         	addi	sp, sp, -0x10
80000272: e02a         	sd	a0, 0x0(sp)
80000274: e42e         	sd	a1, 0x8(sp)
80000276: 0141         	addi	sp, sp, 0x10
80000278: 8082         	ret

000000008000027a <core::fmt::Arguments::new::h7416ae572110a963>:
8000027a: 1141         	addi	sp, sp, -0x10
8000027c: e02a         	sd	a0, 0x0(sp)
8000027e: e42e         	sd	a1, 0x8(sp)
80000280: 0141         	addi	sp, sp, 0x10
80000282: 8082         	ret

0000000080000284 <core::fmt::Arguments::new::h7a3f9b5f589d1766>:
80000284: 1141         	addi	sp, sp, -0x10
80000286: e02a         	sd	a0, 0x0(sp)
80000288: e42e         	sd	a1, 0x8(sp)
8000028a: 0141         	addi	sp, sp, 0x10
8000028c: 8082         	ret

000000008000028e <core::fmt::Arguments::new::h7df6d23cca0ce285>:
8000028e: 1141         	addi	sp, sp, -0x10
80000290: e02a         	sd	a0, 0x0(sp)
80000292: e42e         	sd	a1, 0x8(sp)
80000294: 0141         	addi	sp, sp, 0x10
80000296: 8082         	ret

0000000080000298 <core::fmt::Arguments::new::h83ceeaa0f5f412ac>:
80000298: 1141         	addi	sp, sp, -0x10
8000029a: e02a         	sd	a0, 0x0(sp)
8000029c: e42e         	sd	a1, 0x8(sp)
8000029e: 0141         	addi	sp, sp, 0x10
800002a0: 8082         	ret

00000000800002a2 <core::fmt::Arguments::new::h88ccc37bc2e8d228>:
800002a2: 1141         	addi	sp, sp, -0x10
800002a4: e02a         	sd	a0, 0x0(sp)
800002a6: e42e         	sd	a1, 0x8(sp)
800002a8: 0141         	addi	sp, sp, 0x10
800002aa: 8082         	ret

00000000800002ac <core::fmt::Arguments::new::h96c6d3ae99ec5356>:
800002ac: 1141         	addi	sp, sp, -0x10
800002ae: e02a         	sd	a0, 0x0(sp)
800002b0: e42e         	sd	a1, 0x8(sp)
800002b2: 0141         	addi	sp, sp, 0x10
800002b4: 8082         	ret

00000000800002b6 <core::fmt::Arguments::new::h9a735c0df7d56028>:
800002b6: 1141         	addi	sp, sp, -0x10
800002b8: e02a         	sd	a0, 0x0(sp)
800002ba: e42e         	sd	a1, 0x8(sp)
800002bc: 0141         	addi	sp, sp, 0x10
800002be: 8082         	ret

00000000800002c0 <core::fmt::Arguments::new::h9c30c7d22309e228>:
800002c0: 1141         	addi	sp, sp, -0x10
800002c2: e02a         	sd	a0, 0x0(sp)
800002c4: e42e         	sd	a1, 0x8(sp)
800002c6: 0141         	addi	sp, sp, 0x10
800002c8: 8082         	ret

00000000800002ca <core::fmt::Arguments::new::ha7ddd57ab47cc6f3>:
800002ca: 1141         	addi	sp, sp, -0x10
800002cc: e02a         	sd	a0, 0x0(sp)
800002ce: e42e         	sd	a1, 0x8(sp)
800002d0: 0141         	addi	sp, sp, 0x10
800002d2: 8082         	ret

00000000800002d4 <core::fmt::Arguments::new::hb0d8ac083c416727>:
800002d4: 1141         	addi	sp, sp, -0x10
800002d6: e02a         	sd	a0, 0x0(sp)
800002d8: e42e         	sd	a1, 0x8(sp)
800002da: 0141         	addi	sp, sp, 0x10
800002dc: 8082         	ret

00000000800002de <core::fmt::Arguments::new::he70016628493c19b>:
800002de: 1141         	addi	sp, sp, -0x10
800002e0: e02a         	sd	a0, 0x0(sp)
800002e2: e42e         	sd	a1, 0x8(sp)
800002e4: 0141         	addi	sp, sp, 0x10
800002e6: 8082         	ret

00000000800002e8 <core::fmt::Arguments::new::he89a2fb84a39749e>:
800002e8: 1141         	addi	sp, sp, -0x10
800002ea: e02a         	sd	a0, 0x0(sp)
800002ec: e42e         	sd	a1, 0x8(sp)
800002ee: 0141         	addi	sp, sp, 0x10
800002f0: 8082         	ret

00000000800002f2 <core::fmt::Arguments::new::hfccf9577c08eb5ff>:
800002f2: 1141         	addi	sp, sp, -0x10
800002f4: e02a         	sd	a0, 0x0(sp)
800002f6: e42e         	sd	a1, 0x8(sp)
800002f8: 0141         	addi	sp, sp, 0x10
800002fa: 8082         	ret

00000000800002fc <core::num::_$LT$impl$u20$usize$GT$::unchecked_add::precondition_check::hafa4246352ee0489>:
800002fc: 7179         	addi	sp, sp, -0x30
800002fe: e032         	sd	a2, 0x0(sp)
80000300: e42e         	sd	a1, 0x8(sp)
80000302: 85aa         	mv	a1, a0
80000304: 6522         	ld	a0, 0x8(sp)
80000306: e82e         	sd	a1, 0x10(sp)
80000308: ec2a         	sd	a0, 0x18(sp)
8000030a: 952e         	add	a0, a0, a1
8000030c: 00b56563     	bltu	a0, a1, 0x80000316 <core::num::_$LT$impl$u20$usize$GT$::unchecked_add::precondition_check::hafa4246352ee0489+0x1a>
80000310: a009         	j	0x80000312 <core::num::_$LT$impl$u20$usize$GT$::unchecked_add::precondition_check::hafa4246352ee0489+0x16>
80000312: 6145         	addi	sp, sp, 0x30
80000314: 8082         	ret
80000316: 6682         	ld	a3, 0x0(sp)

0000000080000318 <.Lpcrel_hi0>:
80000318: 00007517     	auipc	a0, 0x7
8000031c: c4a50513     	addi	a0, a0, -0x3b6
80000320: f02a         	sd	a0, 0x20(sp)
80000322: 0ba00593     	li	a1, 0xba
80000326: f42e         	sd	a1, 0x28(sp)
80000328: 17500593     	li	a1, 0x175
8000032c: 4601         	li	a2, 0x0
8000032e: 00006097     	auipc	ra, 0x6
80000332: 4c8080e7     	jalr	0x4c8(ra) <core::panicking::panic_nounwind_fmt::h2e018e50a8d3bc73>

0000000080000336 <_$LT$usize$u20$as$u20$core..iter..range..Step$GT$::forward_unchecked::h5488b22337cc5535>:
80000336: 7179         	addi	sp, sp, -0x30
80000338: f406         	sd	ra, 0x28(sp)
8000033a: e42e         	sd	a1, 0x8(sp)
8000033c: e82a         	sd	a0, 0x10(sp)
8000033e: ec2a         	sd	a0, 0x18(sp)
80000340: f02e         	sd	a1, 0x20(sp)
80000342: a009         	j	0x80000344 <_$LT$usize$u20$as$u20$core..iter..range..Step$GT$::forward_unchecked::h5488b22337cc5535+0xe>
80000344: 65a2         	ld	a1, 0x8(sp)
80000346: 6542         	ld	a0, 0x10(sp)

0000000080000348 <.Lpcrel_hi0>:
80000348: 00007617     	auipc	a2, 0x7
8000034c: 2b860613     	addi	a2, a2, 0x2b8
80000350: 00000097     	auipc	ra, 0x0
80000354: fac080e7     	jalr	-0x54(ra) <core::num::_$LT$impl$u20$usize$GT$::unchecked_add::precondition_check::hafa4246352ee0489>
80000358: a009         	j	0x8000035a <.Lpcrel_hi0+0x12>
8000035a: 6542         	ld	a0, 0x10(sp)
8000035c: 65a2         	ld	a1, 0x8(sp)
8000035e: 952e         	add	a0, a0, a1
80000360: 70a2         	ld	ra, 0x28(sp)
80000362: 6145         	addi	sp, sp, 0x30
80000364: 8082         	ret

0000000080000366 <core::char::methods::encode_utf8_raw::h874537440d371aff>:
80000366: 715d         	addi	sp, sp, -0x50
80000368: e486         	sd	ra, 0x48(sp)
8000036a: e032         	sd	a2, 0x0(sp)
8000036c: e42e         	sd	a1, 0x8(sp)
8000036e: 86aa         	mv	a3, a0
80000370: e836         	sd	a3, 0x10(sp)
80000372: d22a         	sw	a0, 0x24(sp)
80000374: f42e         	sd	a1, 0x28(sp)
80000376: f832         	sd	a2, 0x30(sp)
80000378: 08000593     	li	a1, 0x80
8000037c: 00b56863     	bltu	a0, a1, 0x8000038c <core::char::methods::encode_utf8_raw::h874537440d371aff+0x26>
80000380: a009         	j	0x80000382 <core::char::methods::encode_utf8_raw::h874537440d371aff+0x1c>
80000382: 6542         	ld	a0, 0x10(sp)
80000384: 00b5551b     	srliw	a0, a0, 0xb
80000388: c911         	beqz	a0, 0x8000039c <core::char::methods::encode_utf8_raw::h874537440d371aff+0x36>
8000038a: a021         	j	0x80000392 <core::char::methods::encode_utf8_raw::h874537440d371aff+0x2c>
8000038c: 4505         	li	a0, 0x1
8000038e: ec2a         	sd	a0, 0x18(sp)
80000390: a839         	j	0x800003ae <core::char::methods::encode_utf8_raw::h874537440d371aff+0x48>
80000392: 6542         	ld	a0, 0x10(sp)
80000394: 0105551b     	srliw	a0, a0, 0x10
80000398: c901         	beqz	a0, 0x800003a8 <core::char::methods::encode_utf8_raw::h874537440d371aff+0x42>
8000039a: a021         	j	0x800003a2 <core::char::methods::encode_utf8_raw::h874537440d371aff+0x3c>
8000039c: 4509         	li	a0, 0x2
8000039e: ec2a         	sd	a0, 0x18(sp)
800003a0: a039         	j	0x800003ae <core::char::methods::encode_utf8_raw::h874537440d371aff+0x48>
800003a2: 4511         	li	a0, 0x4
800003a4: ec2a         	sd	a0, 0x18(sp)
800003a6: a021         	j	0x800003ae <core::char::methods::encode_utf8_raw::h874537440d371aff+0x48>
800003a8: 450d         	li	a0, 0x3
800003aa: ec2a         	sd	a0, 0x18(sp)
800003ac: a009         	j	0x800003ae <core::char::methods::encode_utf8_raw::h874537440d371aff+0x48>
800003ae: 6502         	ld	a0, 0x0(sp)
800003b0: fc2a         	sd	a0, 0x38(sp)
800003b2: 65e2         	ld	a1, 0x18(sp)
800003b4: 00b56d63     	bltu	a0, a1, 0x800003ce <core::char::methods::encode_utf8_raw::h874537440d371aff+0x68>
800003b8: a009         	j	0x800003ba <core::char::methods::encode_utf8_raw::h874537440d371aff+0x54>
800003ba: 65a2         	ld	a1, 0x8(sp)
800003bc: 6542         	ld	a0, 0x10(sp)
800003be: 2501         	sext.w	a0, a0
800003c0: 00000097     	auipc	ra, 0x0
800003c4: 0cc080e7     	jalr	0xcc(ra) <core::char::methods::encode_utf8_raw_unchecked::h084d00f13d900810>
800003c8: 6522         	ld	a0, 0x8(sp)
800003ca: e0aa         	sd	a0, 0x40(sp)
800003cc: a829         	j	0x800003e6 <.Lpcrel_hi0+0x10>
800003ce: 6602         	ld	a2, 0x0(sp)
800003d0: 6542         	ld	a0, 0x10(sp)
800003d2: 65e2         	ld	a1, 0x18(sp)
800003d4: 2501         	sext.w	a0, a0

00000000800003d6 <.Lpcrel_hi0>:
800003d6: 00007697     	auipc	a3, 0x7
800003da: 25a68693     	addi	a3, a3, 0x25a
800003de: 00000097     	auipc	ra, 0x0
800003e2: 02c080e7     	jalr	0x2c(ra) <core::char::methods::encode_utf8_raw::do_panic::runtime::h093e262461682423>
800003e6: 6522         	ld	a0, 0x8(sp)
800003e8: 66e2         	ld	a3, 0x18(sp)

00000000800003ea <.Lpcrel_hi1>:
800003ea: 00007597     	auipc	a1, 0x7
800003ee: 22e58713     	addi	a4, a1, 0x22e
800003f2: 4605         	li	a2, 0x1
800003f4: 85b2         	mv	a1, a2
800003f6: 00001097     	auipc	ra, 0x1
800003fa: 83c080e7     	jalr	-0x7c4(ra) <core::slice::raw::from_raw_parts_mut::precondition_check::hac6ed8d49dc1325c>
800003fe: a009         	j	0x80000400 <.Lpcrel_hi1+0x16>
80000400: 6522         	ld	a0, 0x8(sp)
80000402: 65e2         	ld	a1, 0x18(sp)
80000404: 60a6         	ld	ra, 0x48(sp)
80000406: 6161         	addi	sp, sp, 0x50
80000408: 8082         	ret

000000008000040a <core::char::methods::encode_utf8_raw::do_panic::runtime::h093e262461682423>:
8000040a: 7115         	addi	sp, sp, -0xe0
8000040c: e036         	sd	a3, 0x0(sp)
8000040e: 86b2         	mv	a3, a2
80000410: 6602         	ld	a2, 0x0(sp)
80000412: e436         	sd	a3, 0x8(sp)
80000414: 86aa         	mv	a3, a0
80000416: 6522         	ld	a0, 0x8(sp)
80000418: ca36         	sw	a3, 0x14(sp)
8000041a: ec2e         	sd	a1, 0x18(sp)
8000041c: f02a         	sd	a0, 0x20(sp)

000000008000041e <.Lpcrel_hi2>:
8000041e: 00007517     	auipc	a0, 0x7
80000422: 22a50513     	addi	a0, a0, 0x22a
80000426: fd2a         	sd	a0, 0xb8(sp)
80000428: 082c         	addi	a1, sp, 0x18
8000042a: e1ae         	sd	a1, 0xc0(sp)
8000042c: 0858         	addi	a4, sp, 0x14
8000042e: e5ba         	sd	a4, 0xc8(sp)
80000430: 1014         	addi	a3, sp, 0x20
80000432: e9b6         	sd	a3, 0xd0(sp)
80000434: e52e         	sd	a1, 0x88(sp)

0000000080000436 <.Lpcrel_hi3>:
80000436: 00006597     	auipc	a1, 0x6
8000043a: 99a58593     	addi	a1, a1, -0x666
8000043e: e92e         	sd	a1, 0x90(sp)
80000440: 67ca         	ld	a5, 0x90(sp)
80000442: f0be         	sd	a5, 0x60(sp)
80000444: 67aa         	ld	a5, 0x88(sp)
80000446: ecbe         	sd	a5, 0x58(sp)
80000448: ed3a         	sd	a4, 0x98(sp)

000000008000044a <.Lpcrel_hi4>:
8000044a: 00006717     	auipc	a4, 0x6
8000044e: a8670713     	addi	a4, a4, -0x57a
80000452: f13a         	sd	a4, 0xa0(sp)
80000454: 770a         	ld	a4, 0xa0(sp)
80000456: f8ba         	sd	a4, 0x70(sp)
80000458: 676a         	ld	a4, 0x98(sp)
8000045a: f4ba         	sd	a4, 0x68(sp)
8000045c: f536         	sd	a3, 0xa8(sp)
8000045e: f92e         	sd	a1, 0xb0(sp)
80000460: 75ca         	ld	a1, 0xb0(sp)
80000462: e12e         	sd	a1, 0x80(sp)
80000464: 75aa         	ld	a1, 0xa8(sp)
80000466: fcae         	sd	a1, 0x78(sp)
80000468: 7586         	ld	a1, 0x60(sp)
8000046a: f82e         	sd	a1, 0x30(sp)
8000046c: 65e6         	ld	a1, 0x58(sp)
8000046e: f42e         	sd	a1, 0x28(sp)
80000470: 75c6         	ld	a1, 0x70(sp)
80000472: e0ae         	sd	a1, 0x40(sp)
80000474: 75a6         	ld	a1, 0x68(sp)
80000476: fc2e         	sd	a1, 0x38(sp)
80000478: 658a         	ld	a1, 0x80(sp)
8000047a: e8ae         	sd	a1, 0x50(sp)
8000047c: 75e6         	ld	a1, 0x78(sp)
8000047e: e4ae         	sd	a1, 0x48(sp)
80000480: 102c         	addi	a1, sp, 0x28
80000482: edae         	sd	a1, 0xd8(sp)
80000484: 00006097     	auipc	ra, 0x6
80000488: 402080e7     	jalr	0x402(ra) <core::panicking::panic_fmt::h767dc8ac4dd44648>

000000008000048c <core::char::methods::encode_utf8_raw_unchecked::h084d00f13d900810>:
8000048c: 7119         	addi	sp, sp, -0x80
8000048e: f02e         	sd	a1, 0x20(sp)
80000490: 862a         	mv	a2, a0
80000492: f432         	sd	a2, 0x28(sp)
80000494: de2a         	sw	a0, 0x3c(sp)
80000496: e0ae         	sd	a1, 0x40(sp)
80000498: 4585         	li	a1, 0x1
8000049a: e4ae         	sd	a1, 0x48(sp)
8000049c: e8ae         	sd	a1, 0x50(sp)
8000049e: ecae         	sd	a1, 0x58(sp)
800004a0: 4589         	li	a1, 0x2
800004a2: f0ae         	sd	a1, 0x60(sp)
800004a4: f4ae         	sd	a1, 0x68(sp)
800004a6: 458d         	li	a1, 0x3
800004a8: f8ae         	sd	a1, 0x70(sp)
800004aa: 08000593     	li	a1, 0x80
800004ae: 00b56863     	bltu	a0, a1, 0x800004be <core::char::methods::encode_utf8_raw_unchecked::h084d00f13d900810+0x32>
800004b2: a009         	j	0x800004b4 <core::char::methods::encode_utf8_raw_unchecked::h084d00f13d900810+0x28>
800004b4: 7522         	ld	a0, 0x28(sp)
800004b6: 00b5551b     	srliw	a0, a0, 0xb
800004ba: cd11         	beqz	a0, 0x800004d6 <core::char::methods::encode_utf8_raw_unchecked::h084d00f13d900810+0x4a>
800004bc: a801         	j	0x800004cc <core::char::methods::encode_utf8_raw_unchecked::h084d00f13d900810+0x40>
800004be: 7522         	ld	a0, 0x28(sp)
800004c0: 7582         	ld	a1, 0x20(sp)
800004c2: 4605         	li	a2, 0x1
800004c4: f832         	sd	a2, 0x30(sp)
800004c6: 00a58023     	sb	a0, 0x0(a1)
800004ca: a049         	j	0x8000054c <core::char::methods::encode_utf8_raw_unchecked::h084d00f13d900810+0xc0>
800004cc: 7522         	ld	a0, 0x28(sp)
800004ce: 0105551b     	srliw	a0, a0, 0x10
800004d2: c901         	beqz	a0, 0x800004e2 <core::char::methods::encode_utf8_raw_unchecked::h084d00f13d900810+0x56>
800004d4: a021         	j	0x800004dc <core::char::methods::encode_utf8_raw_unchecked::h084d00f13d900810+0x50>
800004d6: 4509         	li	a0, 0x2
800004d8: f82a         	sd	a0, 0x30(sp)
800004da: a039         	j	0x800004e8 <core::char::methods::encode_utf8_raw_unchecked::h084d00f13d900810+0x5c>
800004dc: 4511         	li	a0, 0x4
800004de: f82a         	sd	a0, 0x30(sp)
800004e0: a021         	j	0x800004e8 <core::char::methods::encode_utf8_raw_unchecked::h084d00f13d900810+0x5c>
800004e2: 450d         	li	a0, 0x3
800004e4: f82a         	sd	a0, 0x30(sp)
800004e6: a009         	j	0x800004e8 <core::char::methods::encode_utf8_raw_unchecked::h084d00f13d900810+0x5c>
800004e8: 7522         	ld	a0, 0x28(sp)
800004ea: 03f57593     	andi	a1, a0, 0x3f
800004ee: f805859b     	addiw	a1, a1, -0x80
800004f2: e02e         	sd	a1, 0x0(sp)
800004f4: 06b10e23     	sb	a1, 0x7c(sp)
800004f8: 03451593     	slli	a1, a0, 0x34
800004fc: 91e9         	srli	a1, a1, 0x3a
800004fe: f805859b     	addiw	a1, a1, -0x80
80000502: e42e         	sd	a1, 0x8(sp)
80000504: 06b10ea3     	sb	a1, 0x7d(sp)
80000508: 02e51593     	slli	a1, a0, 0x2e
8000050c: 91e9         	srli	a1, a1, 0x3a
8000050e: f805859b     	addiw	a1, a1, -0x80
80000512: e82e         	sd	a1, 0x10(sp)
80000514: 06b10f23     	sb	a1, 0x7e(sp)
80000518: 8149         	srli	a0, a0, 0x12
8000051a: ff056513     	ori	a0, a0, -0x10
8000051e: ec2a         	sd	a0, 0x18(sp)
80000520: 06a10fa3     	sb	a0, 0x7f(sp)
80000524: 7542         	ld	a0, 0x30(sp)
80000526: 4589         	li	a1, 0x2
80000528: 00b51d63     	bne	a0, a1, 0x80000542 <core::char::methods::encode_utf8_raw_unchecked::h084d00f13d900810+0xb6>
8000052c: a009         	j	0x8000052e <core::char::methods::encode_utf8_raw_unchecked::h084d00f13d900810+0xa2>
8000052e: 6502         	ld	a0, 0x0(sp)
80000530: 7582         	ld	a1, 0x20(sp)
80000532: 6622         	ld	a2, 0x8(sp)
80000534: 0c066613     	ori	a2, a2, 0xc0
80000538: 00c58023     	sb	a2, 0x0(a1)
8000053c: 00a580a3     	sb	a0, 0x1(a1)
80000540: a031         	j	0x8000054c <core::char::methods::encode_utf8_raw_unchecked::h084d00f13d900810+0xc0>
80000542: 7542         	ld	a0, 0x30(sp)
80000544: 458d         	li	a1, 0x3
80000546: 00b50463     	beq	a0, a1, 0x8000054e <core::char::methods::encode_utf8_raw_unchecked::h084d00f13d900810+0xc2>
8000054a: a839         	j	0x80000568 <core::char::methods::encode_utf8_raw_unchecked::h084d00f13d900810+0xdc>
8000054c: a825         	j	0x80000584 <core::char::methods::encode_utf8_raw_unchecked::h084d00f13d900810+0xf8>
8000054e: 6502         	ld	a0, 0x0(sp)
80000550: 7582         	ld	a1, 0x20(sp)
80000552: 6622         	ld	a2, 0x8(sp)
80000554: 66c2         	ld	a3, 0x10(sp)
80000556: 0e06e693     	ori	a3, a3, 0xe0
8000055a: 00d58023     	sb	a3, 0x0(a1)
8000055e: 00c580a3     	sb	a2, 0x1(a1)
80000562: 00a58123     	sb	a0, 0x2(a1)
80000566: b7dd         	j	0x8000054c <core::char::methods::encode_utf8_raw_unchecked::h084d00f13d900810+0xc0>
80000568: 6502         	ld	a0, 0x0(sp)
8000056a: 7582         	ld	a1, 0x20(sp)
8000056c: 6622         	ld	a2, 0x8(sp)
8000056e: 66c2         	ld	a3, 0x10(sp)
80000570: 6762         	ld	a4, 0x18(sp)
80000572: 00e58023     	sb	a4, 0x0(a1)
80000576: 00d580a3     	sb	a3, 0x1(a1)
8000057a: 00c58123     	sb	a2, 0x2(a1)
8000057e: 00a581a3     	sb	a0, 0x3(a1)
80000582: a009         	j	0x80000584 <core::char::methods::encode_utf8_raw_unchecked::h084d00f13d900810+0xf8>
80000584: 6109         	addi	sp, sp, 0x80
80000586: 8082         	ret

0000000080000588 <_$LT$usize$u20$as$u20$core..slice..index..SliceIndex$LT$$u5b$T$u5d$$GT$$GT$::get_unchecked::precondition_check::h8cdd1586f29e5ff0>:
80000588: 7179         	addi	sp, sp, -0x30
8000058a: e432         	sd	a2, 0x8(sp)
8000058c: e82a         	sd	a0, 0x10(sp)
8000058e: ec2e         	sd	a1, 0x18(sp)
80000590: 02b56363     	bltu	a0, a1, 0x800005b6 <.Lpcrel_hi0+0x1e>
80000594: a009         	j	0x80000596 <_$LT$usize$u20$as$u20$core..slice..index..SliceIndex$LT$$u5b$T$u5d$$GT$$GT$::get_unchecked::precondition_check::h8cdd1586f29e5ff0+0xe>
80000596: 66a2         	ld	a3, 0x8(sp)

0000000080000598 <.Lpcrel_hi0>:
80000598: 00007517     	auipc	a0, 0x7
8000059c: 0f750513     	addi	a0, a0, 0xf7
800005a0: f02a         	sd	a0, 0x20(sp)
800005a2: 0d600593     	li	a1, 0xd6
800005a6: f42e         	sd	a1, 0x28(sp)
800005a8: 1ad00593     	li	a1, 0x1ad
800005ac: 4601         	li	a2, 0x0
800005ae: 00006097     	auipc	ra, 0x6
800005b2: 248080e7     	jalr	0x248(ra) <core::panicking::panic_nounwind_fmt::h2e018e50a8d3bc73>
800005b6: 6145         	addi	sp, sp, 0x30
800005b8: 8082         	ret

00000000800005ba <core::array::iter::_$LT$impl$u20$core..iter..traits..collect..IntoIterator$u20$for$u20$$u5b$T$u3b$$u20$N$u5d$$GT$::into_iter::h96a05467c27044da>:
800005ba: 7131         	addi	sp, sp, -0xc0
800005bc: e42e         	sd	a1, 0x8(sp)
800005be: 85aa         	mv	a1, a0
800005c0: 6522         	ld	a0, 0x8(sp)
800005c2: 4d10         	lw	a2, 0x18(a0)
800005c4: d432         	sw	a2, 0x28(sp)
800005c6: 01056683     	lwu	a3, 0x10(a0)
800005ca: 01456603     	lwu	a2, 0x14(a0)
800005ce: 1602         	slli	a2, a2, 0x20
800005d0: 8e55         	or	a2, a2, a3
800005d2: f032         	sd	a2, 0x20(sp)
800005d4: 00856683     	lwu	a3, 0x8(a0)
800005d8: 00c56603     	lwu	a2, 0xc(a0)
800005dc: 1602         	slli	a2, a2, 0x20
800005de: 8e55         	or	a2, a2, a3
800005e0: ec32         	sd	a2, 0x18(sp)
800005e2: 00056603     	lwu	a2, 0x0(a0)
800005e6: 00456503     	lwu	a0, 0x4(a0)
800005ea: 1502         	slli	a0, a0, 0x20
800005ec: 8d51         	or	a0, a0, a2
800005ee: e82a         	sd	a0, 0x10(sp)
800005f0: 4501         	li	a0, 0x0
800005f2: f82a         	sd	a0, 0x30(sp)
800005f4: 451d         	li	a0, 0x7
800005f6: fc2a         	sd	a0, 0x38(sp)
800005f8: 5522         	lw	a0, 0x28(sp)
800005fa: ccaa         	sw	a0, 0x58(sp)
800005fc: 5512         	lw	a0, 0x24(sp)
800005fe: caaa         	sw	a0, 0x54(sp)
80000600: 5502         	lw	a0, 0x20(sp)
80000602: c8aa         	sw	a0, 0x50(sp)
80000604: 4572         	lw	a0, 0x1c(sp)
80000606: c6aa         	sw	a0, 0x4c(sp)
80000608: 4562         	lw	a0, 0x18(sp)
8000060a: c4aa         	sw	a0, 0x48(sp)
8000060c: 4552         	lw	a0, 0x14(sp)
8000060e: c2aa         	sw	a0, 0x44(sp)
80000610: 4542         	lw	a0, 0x10(sp)
80000612: c0aa         	sw	a0, 0x40(sp)
80000614: 6566         	ld	a0, 0x58(sp)
80000616: fd2a         	sd	a0, 0xb8(sp)
80000618: 6546         	ld	a0, 0x50(sp)
8000061a: f92a         	sd	a0, 0xb0(sp)
8000061c: 6526         	ld	a0, 0x48(sp)
8000061e: f52a         	sd	a0, 0xa8(sp)
80000620: 6506         	ld	a0, 0x40(sp)
80000622: f12a         	sd	a0, 0xa0(sp)
80000624: 7562         	ld	a0, 0x38(sp)
80000626: ed2a         	sd	a0, 0x98(sp)
80000628: 7542         	ld	a0, 0x30(sp)
8000062a: e92a         	sd	a0, 0x90(sp)
8000062c: 756a         	ld	a0, 0xb8(sp)
8000062e: e52a         	sd	a0, 0x88(sp)
80000630: 754a         	ld	a0, 0xb0(sp)
80000632: e12a         	sd	a0, 0x80(sp)
80000634: 752a         	ld	a0, 0xa8(sp)
80000636: fcaa         	sd	a0, 0x78(sp)
80000638: 750a         	ld	a0, 0xa0(sp)
8000063a: f8aa         	sd	a0, 0x70(sp)
8000063c: 656a         	ld	a0, 0x98(sp)
8000063e: f4aa         	sd	a0, 0x68(sp)
80000640: 654a         	ld	a0, 0x90(sp)
80000642: f0aa         	sd	a0, 0x60(sp)
80000644: 652a         	ld	a0, 0x88(sp)
80000646: f588         	sd	a0, 0x28(a1)
80000648: 650a         	ld	a0, 0x80(sp)
8000064a: f188         	sd	a0, 0x20(a1)
8000064c: 7566         	ld	a0, 0x78(sp)
8000064e: ed88         	sd	a0, 0x18(a1)
80000650: 7546         	ld	a0, 0x70(sp)
80000652: e988         	sd	a0, 0x10(a1)
80000654: 7526         	ld	a0, 0x68(sp)
80000656: e588         	sd	a0, 0x8(a1)
80000658: 7506         	ld	a0, 0x60(sp)
8000065a: e188         	sd	a0, 0x0(a1)
8000065c: 6129         	addi	sp, sp, 0xc0
8000065e: 8082         	ret

0000000080000660 <_$LT$core..array..iter..IntoIter$LT$T$C$_$GT$$u20$as$u20$core..iter..traits..iterator..Iterator$GT$::next::he44396bcfb795934>:
80000660: 1141         	addi	sp, sp, -0x10
80000662: e406         	sd	ra, 0x8(sp)
80000664: e02a         	sd	a0, 0x0(sp)
80000666: 459d         	li	a1, 0x7
80000668: 00005097     	auipc	ra, 0x5
8000066c: 082080e7     	jalr	0x82(ra) <core::array::iter::iter_inner::PolymorphicIter$LT$$u5b$core..mem..maybe_uninit..MaybeUninit$LT$T$GT$$u5d$$GT$::next::h1de6a8e72825358a>
80000670: 60a2         	ld	ra, 0x8(sp)
80000672: 0141         	addi	sp, sp, 0x10
80000674: 8082         	ret

0000000080000676 <core::ptr::read_volatile::hc021139fc4eafa60>:
80000676: 7179         	addi	sp, sp, -0x30
80000678: f406         	sd	ra, 0x28(sp)
8000067a: e42e         	sd	a1, 0x8(sp)
8000067c: e82a         	sd	a0, 0x10(sp)
8000067e: ec2a         	sd	a0, 0x18(sp)
80000680: a009         	j	0x80000682 <core::ptr::read_volatile::hc021139fc4eafa60+0xc>
80000682: 6622         	ld	a2, 0x8(sp)
80000684: 6542         	ld	a0, 0x10(sp)
80000686: 45a1         	li	a1, 0x8
80000688: 00000097     	auipc	ra, 0x0
8000068c: 9e2080e7     	jalr	-0x61e(ra) <core::ptr::read_volatile::precondition_check::hff20c781ae14a9f2>
80000690: a009         	j	0x80000692 <core::ptr::read_volatile::hc021139fc4eafa60+0x1c>
80000692: 6542         	ld	a0, 0x10(sp)
80000694: 6108         	ld	a0, 0x0(a0)
80000696: f02a         	sd	a0, 0x20(sp)
80000698: 7502         	ld	a0, 0x20(sp)
8000069a: 70a2         	ld	ra, 0x28(sp)
8000069c: 6145         	addi	sp, sp, 0x30
8000069e: 8082         	ret

00000000800006a0 <core::ptr::write_volatile::h22cc46ad2c6c8e21>:
800006a0: 7179         	addi	sp, sp, -0x30
800006a2: f406         	sd	ra, 0x28(sp)
800006a4: e032         	sd	a2, 0x0(sp)
800006a6: e42a         	sd	a0, 0x8(sp)
800006a8: 862e         	mv	a2, a1
800006aa: e832         	sd	a2, 0x10(sp)
800006ac: ec2a         	sd	a0, 0x18(sp)
800006ae: d22e         	sw	a1, 0x24(sp)
800006b0: a009         	j	0x800006b2 <core::ptr::write_volatile::h22cc46ad2c6c8e21+0x12>
800006b2: 6602         	ld	a2, 0x0(sp)
800006b4: 6522         	ld	a0, 0x8(sp)
800006b6: 4591         	li	a1, 0x4
800006b8: 00000097     	auipc	ra, 0x0
800006bc: 9ee080e7     	jalr	-0x612(ra) <core::ptr::write_volatile::precondition_check::hdbce39b41f8468dd>
800006c0: a009         	j	0x800006c2 <core::ptr::write_volatile::h22cc46ad2c6c8e21+0x22>
800006c2: 6542         	ld	a0, 0x10(sp)
800006c4: 65a2         	ld	a1, 0x8(sp)
800006c6: c188         	sw	a0, 0x0(a1)
800006c8: 70a2         	ld	ra, 0x28(sp)
800006ca: 6145         	addi	sp, sp, 0x30
800006cc: 8082         	ret

00000000800006ce <core::ptr::write_volatile::h239ebaa0db9a80bd>:
800006ce: 7179         	addi	sp, sp, -0x30
800006d0: f406         	sd	ra, 0x28(sp)
800006d2: e032         	sd	a2, 0x0(sp)
800006d4: e42e         	sd	a1, 0x8(sp)
800006d6: e82a         	sd	a0, 0x10(sp)
800006d8: ec2a         	sd	a0, 0x18(sp)
800006da: f02e         	sd	a1, 0x20(sp)
800006dc: a009         	j	0x800006de <core::ptr::write_volatile::h239ebaa0db9a80bd+0x10>
800006de: 6602         	ld	a2, 0x0(sp)
800006e0: 6542         	ld	a0, 0x10(sp)
800006e2: 45a1         	li	a1, 0x8
800006e4: 00000097     	auipc	ra, 0x0
800006e8: 9c2080e7     	jalr	-0x63e(ra) <core::ptr::write_volatile::precondition_check::hdbce39b41f8468dd>
800006ec: a009         	j	0x800006ee <core::ptr::write_volatile::h239ebaa0db9a80bd+0x20>
800006ee: 6522         	ld	a0, 0x8(sp)
800006f0: 65c2         	ld	a1, 0x10(sp)
800006f2: e188         	sd	a0, 0x0(a1)
800006f4: 70a2         	ld	ra, 0x28(sp)
800006f6: 6145         	addi	sp, sp, 0x30
800006f8: 8082         	ret

00000000800006fa <core::ptr::write_volatile::h6cf030f0ca0b378e>:
800006fa: 7179         	addi	sp, sp, -0x30
800006fc: f406         	sd	ra, 0x28(sp)
800006fe: e032         	sd	a2, 0x0(sp)
80000700: e42a         	sd	a0, 0x8(sp)
80000702: 862e         	mv	a2, a1
80000704: e832         	sd	a2, 0x10(sp)
80000706: ec2a         	sd	a0, 0x18(sp)
80000708: 02b103a3     	sb	a1, 0x27(sp)
8000070c: a009         	j	0x8000070e <core::ptr::write_volatile::h6cf030f0ca0b378e+0x14>
8000070e: 6602         	ld	a2, 0x0(sp)
80000710: 6522         	ld	a0, 0x8(sp)
80000712: 4585         	li	a1, 0x1
80000714: 00000097     	auipc	ra, 0x0
80000718: 992080e7     	jalr	-0x66e(ra) <core::ptr::write_volatile::precondition_check::hdbce39b41f8468dd>
8000071c: a009         	j	0x8000071e <core::ptr::write_volatile::h6cf030f0ca0b378e+0x24>
8000071e: 6542         	ld	a0, 0x10(sp)
80000720: 65a2         	ld	a1, 0x8(sp)
80000722: 00a58023     	sb	a0, 0x0(a1)
80000726: 70a2         	ld	ra, 0x28(sp)
80000728: 6145         	addi	sp, sp, 0x30
8000072a: 8082         	ret

000000008000072c <lab7_kernel_task2::trap::init_machine_trap_vector::hf119c96928d6ba05>:
8000072c: 00000517     	auipc	a0, 0x0
80000730: 68450513     	addi	a0, a0, 0x684
80000734: 30551073     	csrw	mtvec, a0
80000738: 8082         	ret

000000008000073a <lab7_kernel_task2::trap::init_supervisor_trap_vector::h5c7615c02f364150>:
8000073a: 00000517     	auipc	a0, 0x0
8000073e: 72650513     	addi	a0, a0, 0x726
80000742: 10551073     	csrw	stvec, a0
80000746: 8082         	ret

0000000080000748 <lab7_kernel_task2::trap::TrapFrame::zeroed::hcf81c361d93f9865>:
80000748: 85aa         	mv	a1, a0
8000074a: 4501         	li	a0, 0x0
8000074c: e188         	sd	a0, 0x0(a1)
8000074e: e588         	sd	a0, 0x8(a1)
80000750: e988         	sd	a0, 0x10(a1)
80000752: ed88         	sd	a0, 0x18(a1)
80000754: f188         	sd	a0, 0x20(a1)
80000756: f588         	sd	a0, 0x28(a1)
80000758: f988         	sd	a0, 0x30(a1)
8000075a: fd88         	sd	a0, 0x38(a1)
8000075c: e1a8         	sd	a0, 0x40(a1)
8000075e: e5a8         	sd	a0, 0x48(a1)
80000760: e9a8         	sd	a0, 0x50(a1)
80000762: eda8         	sd	a0, 0x58(a1)
80000764: f1a8         	sd	a0, 0x60(a1)
80000766: f5a8         	sd	a0, 0x68(a1)
80000768: f9a8         	sd	a0, 0x70(a1)
8000076a: fda8         	sd	a0, 0x78(a1)
8000076c: e1c8         	sd	a0, 0x80(a1)
8000076e: e5c8         	sd	a0, 0x88(a1)
80000770: e9c8         	sd	a0, 0x90(a1)
80000772: edc8         	sd	a0, 0x98(a1)
80000774: f1c8         	sd	a0, 0xa0(a1)
80000776: f5c8         	sd	a0, 0xa8(a1)
80000778: f9c8         	sd	a0, 0xb0(a1)
8000077a: fdc8         	sd	a0, 0xb8(a1)
8000077c: e1e8         	sd	a0, 0xc0(a1)
8000077e: e5e8         	sd	a0, 0xc8(a1)
80000780: e9e8         	sd	a0, 0xd0(a1)
80000782: ede8         	sd	a0, 0xd8(a1)
80000784: f1e8         	sd	a0, 0xe0(a1)
80000786: f5e8         	sd	a0, 0xe8(a1)
80000788: f9e8         	sd	a0, 0xf0(a1)
8000078a: fde8         	sd	a0, 0xf8(a1)
8000078c: 8082         	ret

000000008000078e <core::fmt::Write::write_char::hfc4c3867a00cb9ac>:
8000078e: 711d         	addi	sp, sp, -0x60
80000790: ec86         	sd	ra, 0x58(sp)
80000792: e42e         	sd	a1, 0x8(sp)
80000794: 85aa         	mv	a1, a0
80000796: 6522         	ld	a0, 0x8(sp)
80000798: e82e         	sd	a1, 0x10(sp)
8000079a: f42e         	sd	a1, 0x28(sp)
8000079c: da2a         	sw	a0, 0x34(sp)
8000079e: 4581         	li	a1, 0x0
800007a0: d22e         	sw	a1, 0x24(sp)
800007a2: 104c         	addi	a1, sp, 0x24
800007a4: fc2e         	sd	a1, 0x38(sp)
800007a6: 4611         	li	a2, 0x4
800007a8: e0b2         	sd	a2, 0x40(sp)
800007aa: 00000097     	auipc	ra, 0x0
800007ae: bbc080e7     	jalr	-0x444(ra) <core::char::methods::encode_utf8_raw::h874537440d371aff>
800007b2: 862a         	mv	a2, a0
800007b4: 6542         	ld	a0, 0x10(sp)
800007b6: ec32         	sd	a2, 0x18(sp)
800007b8: 862e         	mv	a2, a1
800007ba: 65e2         	ld	a1, 0x18(sp)
800007bc: e4ae         	sd	a1, 0x48(sp)
800007be: e8b2         	sd	a2, 0x50(sp)
800007c0: 00005097     	auipc	ra, 0x5
800007c4: 082080e7     	jalr	0x82(ra) <_$LT$lab7_kernel_task2..console..KernelConsole$u20$as$u20$core..fmt..Write$GT$::write_str::h4ef2dfd8d03719ff>
800007c8: 60e6         	ld	ra, 0x58(sp)
800007ca: 6125         	addi	sp, sp, 0x60
800007cc: 8082         	ret

00000000800007ce <core::fmt::Write::write_fmt::h60a9fb498845a955>:
800007ce: 1101         	addi	sp, sp, -0x20
800007d0: ec06         	sd	ra, 0x18(sp)
800007d2: e02a         	sd	a0, 0x0(sp)
800007d4: e42e         	sd	a1, 0x8(sp)
800007d6: e832         	sd	a2, 0x10(sp)
800007d8: 00000097     	auipc	ra, 0x0
800007dc: 00e080e7     	jalr	0xe(ra) <_$LT$$RF$mut$u20$W$u20$as$u20$core..fmt..Write..write_fmt..SpecWriteFmt$GT$::spec_write_fmt::h039f19a2d41c16a6>
800007e0: 60e2         	ld	ra, 0x18(sp)
800007e2: 6105         	addi	sp, sp, 0x20
800007e4: 8082         	ret

00000000800007e6 <_$LT$$RF$mut$u20$W$u20$as$u20$core..fmt..Write..write_fmt..SpecWriteFmt$GT$::spec_write_fmt::h039f19a2d41c16a6>:
800007e6: 715d         	addi	sp, sp, -0x50
800007e8: e486         	sd	ra, 0x48(sp)
800007ea: e02a         	sd	a0, 0x0(sp)
800007ec: e42e         	sd	a1, 0x8(sp)
800007ee: e832         	sd	a2, 0x10(sp)
800007f0: f82a         	sd	a0, 0x30(sp)
800007f2: 0028         	addi	a0, sp, 0x8
800007f4: 00000097     	auipc	ra, 0x0
800007f8: 050080e7     	jalr	0x50(ra) <core::fmt::Arguments::as_statically_known_str::h2edb71d5dfc4d543>
800007fc: f02a         	sd	a0, 0x20(sp)
800007fe: f42e         	sd	a1, 0x28(sp)
80000800: 7502         	ld	a0, 0x20(sp)
80000802: cd11         	beqz	a0, 0x8000081e <_$LT$$RF$mut$u20$W$u20$as$u20$core..fmt..Write..write_fmt..SpecWriteFmt$GT$::spec_write_fmt::h039f19a2d41c16a6+0x38>
80000804: a009         	j	0x80000806 <_$LT$$RF$mut$u20$W$u20$as$u20$core..fmt..Write..write_fmt..SpecWriteFmt$GT$::spec_write_fmt::h039f19a2d41c16a6+0x20>
80000806: 6502         	ld	a0, 0x0(sp)
80000808: 7582         	ld	a1, 0x20(sp)
8000080a: 7622         	ld	a2, 0x28(sp)
8000080c: fc2e         	sd	a1, 0x38(sp)
8000080e: e0b2         	sd	a2, 0x40(sp)
80000810: 00005097     	auipc	ra, 0x5
80000814: 032080e7     	jalr	0x32(ra) <_$LT$lab7_kernel_task2..console..KernelConsole$u20$as$u20$core..fmt..Write$GT$::write_str::h4ef2dfd8d03719ff>
80000818: 00a10fa3     	sb	a0, 0x1f(sp)
8000081c: a839         	j	0x8000083a <.Lpcrel_hi0+0x16>
8000081e: 6502         	ld	a0, 0x0(sp)
80000820: 6622         	ld	a2, 0x8(sp)
80000822: 66c2         	ld	a3, 0x10(sp)

0000000080000824 <.Lpcrel_hi0>:
80000824: 00007597     	auipc	a1, 0x7
80000828: f4458593     	addi	a1, a1, -0xbc
8000082c: 00005097     	auipc	ra, 0x5
80000830: 700080e7     	jalr	0x700(ra) <core::fmt::write::hfd17e9e8e823b619>
80000834: 00a10fa3     	sb	a0, 0x1f(sp)
80000838: a009         	j	0x8000083a <.Lpcrel_hi0+0x16>
8000083a: 01f14503     	lbu	a0, 0x1f(sp)
8000083e: 60a6         	ld	ra, 0x48(sp)
80000840: 6161         	addi	sp, sp, 0x50
80000842: 8082         	ret

0000000080000844 <core::fmt::Arguments::as_statically_known_str::h2edb71d5dfc4d543>:
80000844: 7119         	addi	sp, sp, -0x80
80000846: fc86         	sd	ra, 0x78(sp)
80000848: ec2a         	sd	a0, 0x18(sp)
8000084a: fc2a         	sd	a0, 0x38(sp)
8000084c: 6508         	ld	a0, 0x8(a0)
8000084e: f02a         	sd	a0, 0x20(sp)
80000850: e0aa         	sd	a0, 0x40(sp)
80000852: 8905         	andi	a0, a0, 0x1
80000854: cd01         	beqz	a0, 0x8000086c <.Lpcrel_hi0>
80000856: a009         	j	0x80000858 <core::fmt::Arguments::as_statically_known_str::h2edb71d5dfc4d543+0x14>
80000858: 7502         	ld	a0, 0x20(sp)
8000085a: 65e2         	ld	a1, 0x18(sp)
8000085c: 618c         	ld	a1, 0x0(a1)
8000085e: e42e         	sd	a1, 0x8(sp)
80000860: e4ae         	sd	a1, 0x48(sp)
80000862: e8ae         	sd	a1, 0x50(sp)
80000864: 8105         	srli	a0, a0, 0x1
80000866: e82a         	sd	a0, 0x10(sp)
80000868: ecaa         	sd	a0, 0x58(sp)
8000086a: a811         	j	0x8000087e <.Lpcrel_hi0+0x12>

000000008000086c <.Lpcrel_hi0>:
8000086c: 00007517     	auipc	a0, 0x7
80000870: f5450513     	addi	a0, a0, -0xac
80000874: 610c         	ld	a1, 0x0(a0)
80000876: 6508         	ld	a0, 0x8(a0)
80000878: f42e         	sd	a1, 0x28(sp)
8000087a: f82a         	sd	a0, 0x30(sp)
8000087c: a02d         	j	0x800008a6 <.Lpcrel_hi1+0x24>
8000087e: 66c2         	ld	a3, 0x10(sp)
80000880: 6522         	ld	a0, 0x8(sp)

0000000080000882 <.Lpcrel_hi1>:
80000882: 00007597     	auipc	a1, 0x7
80000886: f1658713     	addi	a4, a1, -0xea
8000088a: 4605         	li	a2, 0x1
8000088c: 85b2         	mv	a1, a2
8000088e: 00000097     	auipc	ra, 0x0
80000892: 302080e7     	jalr	0x302(ra) <core::slice::raw::from_raw_parts::precondition_check::hddebe5e0a2e27ea2>
80000896: a009         	j	0x80000898 <.Lpcrel_hi1+0x16>
80000898: 6542         	ld	a0, 0x10(sp)
8000089a: 65a2         	ld	a1, 0x8(sp)
8000089c: f0ae         	sd	a1, 0x60(sp)
8000089e: f4aa         	sd	a0, 0x68(sp)
800008a0: f42e         	sd	a1, 0x28(sp)
800008a2: f82a         	sd	a0, 0x30(sp)
800008a4: a009         	j	0x800008a6 <.Lpcrel_hi1+0x24>
800008a6: 4501         	li	a0, 0x0
800008a8: 06a10ba3     	sb	a0, 0x77(sp)
800008ac: 07714503     	lbu	a0, 0x77(sp)
800008b0: 8905         	andi	a0, a0, 0x1
800008b2: e919         	bnez	a0, 0x800008c8 <.Lpcrel_hi2+0x12>
800008b4: a009         	j	0x800008b6 <.Lpcrel_hi2>

00000000800008b6 <.Lpcrel_hi2>:
800008b6: 00007517     	auipc	a0, 0x7
800008ba: f0a50513     	addi	a0, a0, -0xf6
800008be: 610c         	ld	a1, 0x0(a0)
800008c0: 6508         	ld	a0, 0x8(a0)
800008c2: f42e         	sd	a1, 0x28(sp)
800008c4: f82a         	sd	a0, 0x30(sp)
800008c6: a011         	j	0x800008ca <.Lpcrel_hi2+0x14>
800008c8: a009         	j	0x800008ca <.Lpcrel_hi2+0x14>
800008ca: 7522         	ld	a0, 0x28(sp)
800008cc: 75c2         	ld	a1, 0x30(sp)
800008ce: 70e6         	ld	ra, 0x78(sp)
800008d0: 6109         	addi	sp, sp, 0x80
800008d2: 8082         	ret

00000000800008d4 <core::fmt::Arguments::from_str::h6b00ffd69e0d1c1d>:
800008d4: 1141         	addi	sp, sp, -0x10
800008d6: e02a         	sd	a0, 0x0(sp)
800008d8: e42e         	sd	a1, 0x8(sp)
800008da: 0586         	slli	a1, a1, 0x1
800008dc: 0585         	addi	a1, a1, 0x1
800008de: 0141         	addi	sp, sp, 0x10
800008e0: 8082         	ret

00000000800008e2 <core::fmt::Formatter::write_fmt::h9be53fa96b65a4b3>:
800008e2: 715d         	addi	sp, sp, -0x50
800008e4: e486         	sd	ra, 0x48(sp)
800008e6: e02a         	sd	a0, 0x0(sp)
800008e8: e42e         	sd	a1, 0x8(sp)
800008ea: e832         	sd	a2, 0x10(sp)
800008ec: f82a         	sd	a0, 0x30(sp)
800008ee: 0028         	addi	a0, sp, 0x8
800008f0: 00000097     	auipc	ra, 0x0
800008f4: f54080e7     	jalr	-0xac(ra) <core::fmt::Arguments::as_statically_known_str::h2edb71d5dfc4d543>
800008f8: f02a         	sd	a0, 0x20(sp)
800008fa: f42e         	sd	a1, 0x28(sp)
800008fc: 7502         	ld	a0, 0x20(sp)
800008fe: cd11         	beqz	a0, 0x8000091a <core::fmt::Formatter::write_fmt::h9be53fa96b65a4b3+0x38>
80000900: a009         	j	0x80000902 <core::fmt::Formatter::write_fmt::h9be53fa96b65a4b3+0x20>
80000902: 6682         	ld	a3, 0x0(sp)
80000904: 7582         	ld	a1, 0x20(sp)
80000906: 7622         	ld	a2, 0x28(sp)
80000908: fc2e         	sd	a1, 0x38(sp)
8000090a: e0b2         	sd	a2, 0x40(sp)
8000090c: 6288         	ld	a0, 0x0(a3)
8000090e: 6694         	ld	a3, 0x8(a3)
80000910: 6e94         	ld	a3, 0x18(a3)
80000912: 9682         	jalr	a3
80000914: 00a10fa3     	sb	a0, 0x1f(sp)
80000918: a829         	j	0x80000932 <core::fmt::Formatter::write_fmt::h9be53fa96b65a4b3+0x50>
8000091a: 6582         	ld	a1, 0x0(sp)
8000091c: 6188         	ld	a0, 0x0(a1)
8000091e: 658c         	ld	a1, 0x8(a1)
80000920: 6622         	ld	a2, 0x8(sp)
80000922: 66c2         	ld	a3, 0x10(sp)
80000924: 00005097     	auipc	ra, 0x5
80000928: 608080e7     	jalr	0x608(ra) <core::fmt::write::hfd17e9e8e823b619>
8000092c: 00a10fa3     	sb	a0, 0x1f(sp)
80000930: a009         	j	0x80000932 <core::fmt::Formatter::write_fmt::h9be53fa96b65a4b3+0x50>
80000932: 01f14503     	lbu	a0, 0x1f(sp)
80000936: 60a6         	ld	ra, 0x48(sp)
80000938: 6161         	addi	sp, sp, 0x50
8000093a: 8082         	ret

000000008000093c <_$LT$core..str..iter..Bytes$u20$as$u20$core..iter..traits..iterator..Iterator$GT$::next::hc1d82ccbcd46e439>:
8000093c: 7179         	addi	sp, sp, -0x30
8000093e: f406         	sd	ra, 0x28(sp)
80000940: ec2a         	sd	a0, 0x18(sp)
80000942: 00000097     	auipc	ra, 0x0
80000946: 202080e7     	jalr	0x202(ra) <_$LT$core..slice..iter..Iter$LT$T$GT$$u20$as$u20$core..iter..traits..iterator..Iterator$GT$::next::h78da1ffc00fad7ae>
8000094a: e82a         	sd	a0, 0x10(sp)
8000094c: 6542         	ld	a0, 0x10(sp)
8000094e: cd09         	beqz	a0, 0x80000968 <.Lpcrel_hi0>
80000950: a009         	j	0x80000952 <_$LT$core..str..iter..Bytes$u20$as$u20$core..iter..traits..iterator..Iterator$GT$::next::hc1d82ccbcd46e439+0x16>
80000952: 6542         	ld	a0, 0x10(sp)
80000954: 00054503     	lbu	a0, 0x0(a0)
80000958: 02a103a3     	sb	a0, 0x27(sp)
8000095c: 00a107a3     	sb	a0, 0xf(sp)
80000960: 4505         	li	a0, 0x1
80000962: 00a10723     	sb	a0, 0xe(sp)
80000966: a831         	j	0x80000982 <.Lpcrel_hi0+0x1a>

0000000080000968 <.Lpcrel_hi0>:
80000968: 00007517     	auipc	a0, 0x7
8000096c: e7850513     	addi	a0, a0, -0x188
80000970: 00054583     	lbu	a1, 0x0(a0)
80000974: 00154503     	lbu	a0, 0x1(a0)
80000978: 00b10723     	sb	a1, 0xe(sp)
8000097c: 00a107a3     	sb	a0, 0xf(sp)
80000980: a009         	j	0x80000982 <.Lpcrel_hi0+0x1a>
80000982: 00e14503     	lbu	a0, 0xe(sp)
80000986: 00f14583     	lbu	a1, 0xf(sp)
8000098a: 70a2         	ld	ra, 0x28(sp)
8000098c: 6145         	addi	sp, sp, 0x30
8000098e: 8082         	ret

0000000080000990 <core::ptr::const_ptr::_$LT$impl$u20$$BP$const$u20$T$GT$::is_aligned_to::h18b52056f1a388cc>:
80000990: 7139         	addi	sp, sp, -0x40
80000992: e42e         	sd	a1, 0x8(sp)
80000994: e82a         	sd	a0, 0x10(sp)
80000996: ec2a         	sd	a0, 0x18(sp)
80000998: f02e         	sd	a1, 0x20(sp)
8000099a: 0015d513     	srli	a0, a1, 0x1
8000099e: 55555637     	lui	a2, 0x55555
800009a2: 55560613     	addi	a2, a2, 0x555
800009a6: 02061693     	slli	a3, a2, 0x20
800009aa: 9636         	add	a2, a2, a3
800009ac: 8d71         	and	a0, a0, a2
800009ae: 8d89         	sub	a1, a1, a0
800009b0: 33333537     	lui	a0, 0x33333
800009b4: 33350513     	addi	a0, a0, 0x333
800009b8: 02051613     	slli	a2, a0, 0x20
800009bc: 962a         	add	a2, a2, a0
800009be: 00c5f533     	and	a0, a1, a2
800009c2: 8189         	srli	a1, a1, 0x2
800009c4: 8df1         	and	a1, a1, a2
800009c6: 952e         	add	a0, a0, a1
800009c8: 00455593     	srli	a1, a0, 0x4
800009cc: 952e         	add	a0, a0, a1
800009ce: 0f0f15b7     	lui	a1, 0xf0f1
800009d2: f0f58593     	addi	a1, a1, -0xf1
800009d6: 02059613     	slli	a2, a1, 0x20
800009da: 95b2         	add	a1, a1, a2
800009dc: 8d6d         	and	a0, a0, a1
800009de: 010105b7     	lui	a1, 0x1010
800009e2: 10158593     	addi	a1, a1, 0x101
800009e6: 02059613     	slli	a2, a1, 0x20
800009ea: 95b2         	add	a1, a1, a2
800009ec: 02b50533     	mul	a0, a0, a1
800009f0: 9161         	srli	a0, a0, 0x38
800009f2: d62a         	sw	a0, 0x2c(sp)
800009f4: 5532         	lw	a0, 0x2c(sp)
800009f6: 4585         	li	a1, 0x1
800009f8: 00b51b63     	bne	a0, a1, 0x80000a0e <.Lpcrel_hi0>
800009fc: a009         	j	0x800009fe <core::ptr::const_ptr::_$LT$impl$u20$$BP$const$u20$T$GT$::is_aligned_to::h18b52056f1a388cc+0x6e>
800009fe: 6542         	ld	a0, 0x10(sp)
80000a00: 65a2         	ld	a1, 0x8(sp)
80000a02: 15fd         	addi	a1, a1, -0x1
80000a04: 8d6d         	and	a0, a0, a1
80000a06: 00153513     	seqz	a0, a0
80000a0a: 6121         	addi	sp, sp, 0x40
80000a0c: 8082         	ret

0000000080000a0e <.Lpcrel_hi0>:
80000a0e: 00007517     	auipc	a0, 0x7
80000a12: dd450513     	addi	a0, a0, -0x22c
80000a16: f82a         	sd	a0, 0x30(sp)
80000a18: 02a00593     	li	a1, 0x2a
80000a1c: fc2e         	sd	a1, 0x38(sp)

0000000080000a1e <.Lpcrel_hi1>:
80000a1e: 00007597     	auipc	a1, 0x7
80000a22: df258613     	addi	a2, a1, -0x20e
80000a26: 05500593     	li	a1, 0x55
80000a2a: 00006097     	auipc	ra, 0x6
80000a2e: e5c080e7     	jalr	-0x1a4(ra) <core::panicking::panic_fmt::h767dc8ac4dd44648>

0000000080000a32 <core::str::_$LT$impl$u20$str$GT$::bytes::h2d9f646e03e983ab>:
80000a32: 1141         	addi	sp, sp, -0x10
80000a34: e02a         	sd	a0, 0x0(sp)
80000a36: e42e         	sd	a1, 0x8(sp)
80000a38: 95aa         	add	a1, a1, a0
80000a3a: 0141         	addi	sp, sp, 0x10
80000a3c: 8082         	ret

0000000080000a3e <_$LT$$RF$T$u20$as$u20$core..fmt..Display$GT$::fmt::h66e88679f81cba66>:
80000a3e: 1101         	addi	sp, sp, -0x20
80000a40: ec06         	sd	ra, 0x18(sp)
80000a42: e42a         	sd	a0, 0x8(sp)
80000a44: e82e         	sd	a1, 0x10(sp)
80000a46: 6108         	ld	a0, 0x0(a0)
80000a48: 00006097     	auipc	ra, 0x6
80000a4c: e6c080e7     	jalr	-0x194(ra) <_$LT$core..panic..panic_info..PanicInfo$u20$as$u20$core..fmt..Display$GT$::fmt::hcccb3fed5b673506>
80000a50: 60e2         	ld	ra, 0x18(sp)
80000a52: 6105         	addi	sp, sp, 0x20
80000a54: 8082         	ret

0000000080000a56 <core::fmt::rt::Argument::new_display::h0f8d4721c9a89fbb>:
80000a56: 1101         	addi	sp, sp, -0x20
80000a58: e02e         	sd	a1, 0x0(sp)
80000a5a: 85aa         	mv	a1, a0
80000a5c: 6502         	ld	a0, 0x0(sp)
80000a5e: ec2a         	sd	a0, 0x18(sp)
80000a60: e42a         	sd	a0, 0x8(sp)

0000000080000a62 <.Lpcrel_hi0>:
80000a62: 00005517     	auipc	a0, 0x5
80000a66: 36e50513     	addi	a0, a0, 0x36e
80000a6a: e82a         	sd	a0, 0x10(sp)
80000a6c: 6542         	ld	a0, 0x10(sp)
80000a6e: e588         	sd	a0, 0x8(a1)
80000a70: 6522         	ld	a0, 0x8(sp)
80000a72: e188         	sd	a0, 0x0(a1)
80000a74: 6105         	addi	sp, sp, 0x20
80000a76: 8082         	ret

0000000080000a78 <core::fmt::rt::Argument::new_display::h2a08d0a155f83b66>:
80000a78: 1101         	addi	sp, sp, -0x20
80000a7a: e02e         	sd	a1, 0x0(sp)
80000a7c: 85aa         	mv	a1, a0
80000a7e: 6502         	ld	a0, 0x0(sp)
80000a80: ec2a         	sd	a0, 0x18(sp)
80000a82: e42a         	sd	a0, 0x8(sp)

0000000080000a84 <.Lpcrel_hi1>:
80000a84: 00000517     	auipc	a0, 0x0
80000a88: fba50513     	addi	a0, a0, -0x46
80000a8c: e82a         	sd	a0, 0x10(sp)
80000a8e: 6542         	ld	a0, 0x10(sp)
80000a90: e588         	sd	a0, 0x8(a1)
80000a92: 6522         	ld	a0, 0x8(sp)
80000a94: e188         	sd	a0, 0x0(a1)
80000a96: 6105         	addi	sp, sp, 0x20
80000a98: 8082         	ret

0000000080000a9a <core::fmt::rt::Argument::new_display::h4e5e46ce82b2d3cf>:
80000a9a: 1101         	addi	sp, sp, -0x20
80000a9c: e02e         	sd	a1, 0x0(sp)
80000a9e: 85aa         	mv	a1, a0
80000aa0: 6502         	ld	a0, 0x0(sp)
80000aa2: ec2a         	sd	a0, 0x18(sp)
80000aa4: e42a         	sd	a0, 0x8(sp)

0000000080000aa6 <.Lpcrel_hi2>:
80000aa6: 00005517     	auipc	a0, 0x5
80000aaa: e1050513     	addi	a0, a0, -0x1f0
80000aae: e82a         	sd	a0, 0x10(sp)
80000ab0: 6542         	ld	a0, 0x10(sp)
80000ab2: e588         	sd	a0, 0x8(a1)
80000ab4: 6522         	ld	a0, 0x8(sp)
80000ab6: e188         	sd	a0, 0x0(a1)
80000ab8: 6105         	addi	sp, sp, 0x20
80000aba: 8082         	ret

0000000080000abc <core::fmt::rt::Argument::new_display::h51488476d89b03e6>:
80000abc: 1101         	addi	sp, sp, -0x20
80000abe: e02e         	sd	a1, 0x0(sp)
80000ac0: 85aa         	mv	a1, a0
80000ac2: 6502         	ld	a0, 0x0(sp)
80000ac4: ec2a         	sd	a0, 0x18(sp)
80000ac6: e42a         	sd	a0, 0x8(sp)

0000000080000ac8 <.Lpcrel_hi3>:
80000ac8: 00004517     	auipc	a0, 0x4
80000acc: 4f450513     	addi	a0, a0, 0x4f4
80000ad0: e82a         	sd	a0, 0x10(sp)
80000ad2: 6542         	ld	a0, 0x10(sp)
80000ad4: e588         	sd	a0, 0x8(a1)
80000ad6: 6522         	ld	a0, 0x8(sp)
80000ad8: e188         	sd	a0, 0x0(a1)
80000ada: 6105         	addi	sp, sp, 0x20
80000adc: 8082         	ret

0000000080000ade <core::fmt::rt::Argument::new_display::h8e90df567e7acf69>:
80000ade: 1101         	addi	sp, sp, -0x20
80000ae0: e02e         	sd	a1, 0x0(sp)
80000ae2: 85aa         	mv	a1, a0
80000ae4: 6502         	ld	a0, 0x0(sp)
80000ae6: ec2a         	sd	a0, 0x18(sp)
80000ae8: e42a         	sd	a0, 0x8(sp)

0000000080000aea <.Lpcrel_hi4>:
80000aea: fffff517     	auipc	a0, 0xfffff
80000aee: 72c50513     	addi	a0, a0, 0x72c
80000af2: e82a         	sd	a0, 0x10(sp)
80000af4: 6542         	ld	a0, 0x10(sp)
80000af6: e588         	sd	a0, 0x8(a1)
80000af8: 6522         	ld	a0, 0x8(sp)
80000afa: e188         	sd	a0, 0x0(a1)
80000afc: 6105         	addi	sp, sp, 0x20
80000afe: 8082         	ret

0000000080000b00 <core::fmt::rt::Argument::new_lower_hex::h3a7ca6efd7c586c1>:
80000b00: 1101         	addi	sp, sp, -0x20
80000b02: e02e         	sd	a1, 0x0(sp)
80000b04: 85aa         	mv	a1, a0
80000b06: 6502         	ld	a0, 0x0(sp)
80000b08: ec2a         	sd	a0, 0x18(sp)
80000b0a: e42a         	sd	a0, 0x8(sp)

0000000080000b0c <.Lpcrel_hi5>:
80000b0c: 00005517     	auipc	a0, 0x5
80000b10: 31050513     	addi	a0, a0, 0x310
80000b14: e82a         	sd	a0, 0x10(sp)
80000b16: 6542         	ld	a0, 0x10(sp)
80000b18: e588         	sd	a0, 0x8(a1)
80000b1a: 6522         	ld	a0, 0x8(sp)
80000b1c: e188         	sd	a0, 0x0(a1)
80000b1e: 6105         	addi	sp, sp, 0x20
80000b20: 8082         	ret

0000000080000b22 <core::fmt::rt::Argument::new_lower_hex::hc9324aa1f0e7ff53>:
80000b22: 1101         	addi	sp, sp, -0x20
80000b24: e02e         	sd	a1, 0x0(sp)
80000b26: 85aa         	mv	a1, a0
80000b28: 6502         	ld	a0, 0x0(sp)
80000b2a: ec2a         	sd	a0, 0x18(sp)
80000b2c: e42a         	sd	a0, 0x8(sp)

0000000080000b2e <.Lpcrel_hi6>:
80000b2e: 00005517     	auipc	a0, 0x5
80000b32: 34a50513     	addi	a0, a0, 0x34a
80000b36: e82a         	sd	a0, 0x10(sp)
80000b38: 6542         	ld	a0, 0x10(sp)
80000b3a: e588         	sd	a0, 0x8(a1)
80000b3c: 6522         	ld	a0, 0x8(sp)
80000b3e: e188         	sd	a0, 0x0(a1)
80000b40: 6105         	addi	sp, sp, 0x20
80000b42: 8082         	ret

0000000080000b44 <_$LT$core..slice..iter..Iter$LT$T$GT$$u20$as$u20$core..iter..traits..iterator..Iterator$GT$::next::h78da1ffc00fad7ae>:
80000b44: 715d         	addi	sp, sp, -0x50
80000b46: e42a         	sd	a0, 0x8(sp)
80000b48: f42a         	sd	a0, 0x28(sp)
80000b4a: 4585         	li	a1, 0x1
80000b4c: f82e         	sd	a1, 0x30(sp)
80000b4e: fc2e         	sd	a1, 0x38(sp)
80000b50: 610c         	ld	a1, 0x0(a0)
80000b52: e82e         	sd	a1, 0x10(sp)
80000b54: e0ae         	sd	a1, 0x40(sp)
80000b56: 6508         	ld	a0, 0x8(a0)
80000b58: ec2a         	sd	a0, 0x18(sp)
80000b5a: e4aa         	sd	a0, 0x48(sp)
80000b5c: a009         	j	0x80000b5e <_$LT$core..slice..iter..Iter$LT$T$GT$$u20$as$u20$core..iter..traits..iterator..Iterator$GT$::next::h78da1ffc00fad7ae+0x1a>
80000b5e: 6542         	ld	a0, 0x10(sp)
80000b60: 65e2         	ld	a1, 0x18(sp)
80000b62: 00b50863     	beq	a0, a1, 0x80000b72 <_$LT$core..slice..iter..Iter$LT$T$GT$$u20$as$u20$core..iter..traits..iterator..Iterator$GT$::next::h78da1ffc00fad7ae+0x2e>
80000b66: a009         	j	0x80000b68 <_$LT$core..slice..iter..Iter$LT$T$GT$$u20$as$u20$core..iter..traits..iterator..Iterator$GT$::next::h78da1ffc00fad7ae+0x24>
80000b68: 65a2         	ld	a1, 0x8(sp)
80000b6a: 6542         	ld	a0, 0x10(sp)
80000b6c: 0505         	addi	a0, a0, 0x1
80000b6e: e188         	sd	a0, 0x0(a1)
80000b70: a021         	j	0x80000b78 <_$LT$core..slice..iter..Iter$LT$T$GT$$u20$as$u20$core..iter..traits..iterator..Iterator$GT$::next::h78da1ffc00fad7ae+0x34>
80000b72: 4501         	li	a0, 0x0
80000b74: f02a         	sd	a0, 0x20(sp)
80000b76: a039         	j	0x80000b84 <_$LT$core..slice..iter..Iter$LT$T$GT$$u20$as$u20$core..iter..traits..iterator..Iterator$GT$::next::h78da1ffc00fad7ae+0x40>
80000b78: 6542         	ld	a0, 0x10(sp)
80000b7a: f02a         	sd	a0, 0x20(sp)
80000b7c: a009         	j	0x80000b7e <_$LT$core..slice..iter..Iter$LT$T$GT$$u20$as$u20$core..iter..traits..iterator..Iterator$GT$::next::h78da1ffc00fad7ae+0x3a>
80000b7e: 7502         	ld	a0, 0x20(sp)
80000b80: 6161         	addi	sp, sp, 0x50
80000b82: 8082         	ret
80000b84: bfed         	j	0x80000b7e <_$LT$core..slice..iter..Iter$LT$T$GT$$u20$as$u20$core..iter..traits..iterator..Iterator$GT$::next::h78da1ffc00fad7ae+0x3a>

0000000080000b86 <_$LT$I$u20$as$u20$core..iter..traits..collect..IntoIterator$GT$::into_iter::ha2655e35f65d14e2>:
80000b86: 1141         	addi	sp, sp, -0x10
80000b88: e02a         	sd	a0, 0x0(sp)
80000b8a: e42e         	sd	a1, 0x8(sp)
80000b8c: 0141         	addi	sp, sp, 0x10
80000b8e: 8082         	ret

0000000080000b90 <core::slice::raw::from_raw_parts::precondition_check::hddebe5e0a2e27ea2>:
80000b90: 7119         	addi	sp, sp, -0x80
80000b92: fc86         	sd	ra, 0x78(sp)
80000b94: e43a         	sd	a4, 0x8(sp)
80000b96: e836         	sd	a3, 0x10(sp)
80000b98: ec32         	sd	a2, 0x18(sp)
80000b9a: 862e         	mv	a2, a1
80000b9c: 65e2         	ld	a1, 0x18(sp)
80000b9e: f032         	sd	a2, 0x20(sp)
80000ba0: f42a         	sd	a0, 0x28(sp)
80000ba2: fc2a         	sd	a0, 0x38(sp)
80000ba4: e0b2         	sd	a2, 0x40(sp)
80000ba6: e4ae         	sd	a1, 0x48(sp)
80000ba8: e8b6         	sd	a3, 0x50(sp)
80000baa: 4601         	li	a2, 0x0
80000bac: 04c10fa3     	sb	a2, 0x5f(sp)
80000bb0: f0aa         	sd	a0, 0x60(sp)
80000bb2: 00000097     	auipc	ra, 0x0
80000bb6: dde080e7     	jalr	-0x222(ra) <core::ptr::const_ptr::_$LT$impl$u20$$BP$const$u20$T$GT$::is_aligned_to::h18b52056f1a388cc>
80000bba: e119         	bnez	a0, 0x80000bc0 <core::slice::raw::from_raw_parts::precondition_check::hddebe5e0a2e27ea2+0x30>
80000bbc: a009         	j	0x80000bbe <core::slice::raw::from_raw_parts::precondition_check::hddebe5e0a2e27ea2+0x2e>
80000bbe: a021         	j	0x80000bc6 <core::slice::raw::from_raw_parts::precondition_check::hddebe5e0a2e27ea2+0x36>
80000bc0: 7522         	ld	a0, 0x28(sp)
80000bc2: e119         	bnez	a0, 0x80000bc8 <core::slice::raw::from_raw_parts::precondition_check::hddebe5e0a2e27ea2+0x38>
80000bc4: a009         	j	0x80000bc6 <core::slice::raw::from_raw_parts::precondition_check::hddebe5e0a2e27ea2+0x36>
80000bc6: a039         	j	0x80000bd4 <core::slice::raw::from_raw_parts::precondition_check::hddebe5e0a2e27ea2+0x44>
80000bc8: 7502         	ld	a0, 0x20(sp)
80000bca: 00153593     	seqz	a1, a0
80000bce: e02e         	sd	a1, 0x0(sp)
80000bd0: c115         	beqz	a0, 0x80000bf4 <.Lpcrel_hi0+0x1e>
80000bd2: a025         	j	0x80000bfa <.Lpcrel_hi0+0x24>
80000bd4: 66a2         	ld	a3, 0x8(sp)

0000000080000bd6 <.Lpcrel_hi0>:
80000bd6: 00007517     	auipc	a0, 0x7
80000bda: c6a50513     	addi	a0, a0, -0x396
80000bde: f4aa         	sd	a0, 0x68(sp)
80000be0: 11700593     	li	a1, 0x117
80000be4: f8ae         	sd	a1, 0x70(sp)
80000be6: 22f00593     	li	a1, 0x22f
80000bea: 4601         	li	a2, 0x0
80000bec: 00006097     	auipc	ra, 0x6
80000bf0: c0a080e7     	jalr	-0x3f6(ra) <core::panicking::panic_nounwind_fmt::h2e018e50a8d3bc73>
80000bf4: 557d         	li	a0, -0x1
80000bf6: f82a         	sd	a0, 0x30(sp)
80000bf8: a029         	j	0x80000c02 <.Lpcrel_hi0+0x2c>
80000bfa: 6502         	ld	a0, 0x0(sp)
80000bfc: 8905         	andi	a0, a0, 0x1
80000bfe: ed11         	bnez	a0, 0x80000c1a <.Lpcrel_hi1>
80000c00: a031         	j	0x80000c0c <.Lpcrel_hi0+0x36>
80000c02: 65c2         	ld	a1, 0x10(sp)
80000c04: 7542         	ld	a0, 0x30(sp)
80000c06: 02b57363     	bgeu	a0, a1, 0x80000c2c <.Lpcrel_hi1+0x12>
80000c0a: a005         	j	0x80000c2a <.Lpcrel_hi1+0x10>
80000c0c: 7582         	ld	a1, 0x20(sp)
80000c0e: 557d         	li	a0, -0x1
80000c10: 8105         	srli	a0, a0, 0x1
80000c12: 02b55533     	divu	a0, a0, a1
80000c16: f82a         	sd	a0, 0x30(sp)
80000c18: b7ed         	j	0x80000c02 <.Lpcrel_hi0+0x2c>

0000000080000c1a <.Lpcrel_hi1>:
80000c1a: 00007517     	auipc	a0, 0x7
80000c1e: c0e50513     	addi	a0, a0, -0x3f2
80000c22: 00006097     	auipc	ra, 0x6
80000c26: ae4080e7     	jalr	-0x51c(ra) <core::panicking::panic_const::panic_const_div_by_zero::hcfde4c26e8ecfc4b>
80000c2a: b76d         	j	0x80000bd4 <core::slice::raw::from_raw_parts::precondition_check::hddebe5e0a2e27ea2+0x44>
80000c2c: 70e6         	ld	ra, 0x78(sp)
80000c2e: 6109         	addi	sp, sp, 0x80
80000c30: 8082         	ret

0000000080000c32 <core::slice::raw::from_raw_parts_mut::precondition_check::hac6ed8d49dc1325c>:
80000c32: 7119         	addi	sp, sp, -0x80
80000c34: fc86         	sd	ra, 0x78(sp)
80000c36: e43a         	sd	a4, 0x8(sp)
80000c38: e836         	sd	a3, 0x10(sp)
80000c3a: ec32         	sd	a2, 0x18(sp)
80000c3c: 862e         	mv	a2, a1
80000c3e: 65e2         	ld	a1, 0x18(sp)
80000c40: f032         	sd	a2, 0x20(sp)
80000c42: f42a         	sd	a0, 0x28(sp)
80000c44: fc2a         	sd	a0, 0x38(sp)
80000c46: e0b2         	sd	a2, 0x40(sp)
80000c48: e4ae         	sd	a1, 0x48(sp)
80000c4a: e8b6         	sd	a3, 0x50(sp)
80000c4c: 4601         	li	a2, 0x0
80000c4e: 04c10fa3     	sb	a2, 0x5f(sp)
80000c52: f0aa         	sd	a0, 0x60(sp)
80000c54: 00000097     	auipc	ra, 0x0
80000c58: d3c080e7     	jalr	-0x2c4(ra) <core::ptr::const_ptr::_$LT$impl$u20$$BP$const$u20$T$GT$::is_aligned_to::h18b52056f1a388cc>
80000c5c: e119         	bnez	a0, 0x80000c62 <core::slice::raw::from_raw_parts_mut::precondition_check::hac6ed8d49dc1325c+0x30>
80000c5e: a009         	j	0x80000c60 <core::slice::raw::from_raw_parts_mut::precondition_check::hac6ed8d49dc1325c+0x2e>
80000c60: a021         	j	0x80000c68 <core::slice::raw::from_raw_parts_mut::precondition_check::hac6ed8d49dc1325c+0x36>
80000c62: 7522         	ld	a0, 0x28(sp)
80000c64: e119         	bnez	a0, 0x80000c6a <core::slice::raw::from_raw_parts_mut::precondition_check::hac6ed8d49dc1325c+0x38>
80000c66: a009         	j	0x80000c68 <core::slice::raw::from_raw_parts_mut::precondition_check::hac6ed8d49dc1325c+0x36>
80000c68: a039         	j	0x80000c76 <core::slice::raw::from_raw_parts_mut::precondition_check::hac6ed8d49dc1325c+0x44>
80000c6a: 7502         	ld	a0, 0x20(sp)
80000c6c: 00153593     	seqz	a1, a0
80000c70: e02e         	sd	a1, 0x0(sp)
80000c72: c115         	beqz	a0, 0x80000c96 <.Lpcrel_hi2+0x1e>
80000c74: a025         	j	0x80000c9c <.Lpcrel_hi2+0x24>
80000c76: 66a2         	ld	a3, 0x8(sp)

0000000080000c78 <.Lpcrel_hi2>:
80000c78: 00007517     	auipc	a0, 0x7
80000c7c: cdf50513     	addi	a0, a0, -0x321
80000c80: f4aa         	sd	a0, 0x68(sp)
80000c82: 11b00593     	li	a1, 0x11b
80000c86: f8ae         	sd	a1, 0x70(sp)
80000c88: 23700593     	li	a1, 0x237
80000c8c: 4601         	li	a2, 0x0
80000c8e: 00006097     	auipc	ra, 0x6
80000c92: b68080e7     	jalr	-0x498(ra) <core::panicking::panic_nounwind_fmt::h2e018e50a8d3bc73>
80000c96: 557d         	li	a0, -0x1
80000c98: f82a         	sd	a0, 0x30(sp)
80000c9a: a029         	j	0x80000ca4 <.Lpcrel_hi2+0x2c>
80000c9c: 6502         	ld	a0, 0x0(sp)
80000c9e: 8905         	andi	a0, a0, 0x1
80000ca0: ed11         	bnez	a0, 0x80000cbc <.Lpcrel_hi3>
80000ca2: a031         	j	0x80000cae <.Lpcrel_hi2+0x36>
80000ca4: 65c2         	ld	a1, 0x10(sp)
80000ca6: 7542         	ld	a0, 0x30(sp)
80000ca8: 02b57363     	bgeu	a0, a1, 0x80000cce <.Lpcrel_hi3+0x12>
80000cac: a005         	j	0x80000ccc <.Lpcrel_hi3+0x10>
80000cae: 7582         	ld	a1, 0x20(sp)
80000cb0: 557d         	li	a0, -0x1
80000cb2: 8105         	srli	a0, a0, 0x1
80000cb4: 02b55533     	divu	a0, a0, a1
80000cb8: f82a         	sd	a0, 0x30(sp)
80000cba: b7ed         	j	0x80000ca4 <.Lpcrel_hi2+0x2c>

0000000080000cbc <.Lpcrel_hi3>:
80000cbc: 00007517     	auipc	a0, 0x7
80000cc0: b6c50513     	addi	a0, a0, -0x494
80000cc4: 00006097     	auipc	ra, 0x6
80000cc8: a42080e7     	jalr	-0x5be(ra) <core::panicking::panic_const::panic_const_div_by_zero::hcfde4c26e8ecfc4b>
80000ccc: b76d         	j	0x80000c76 <core::slice::raw::from_raw_parts_mut::precondition_check::hac6ed8d49dc1325c+0x44>
80000cce: 70e6         	ld	ra, 0x78(sp)
80000cd0: 6109         	addi	sp, sp, 0x80
80000cd2: 8082         	ret
		...

0000000080000ce0 <enter_supervisor>:
80000ce0: 34151073     	csrw	mepc, a0
80000ce4: 300022f3     	csrr	t0, mstatus
80000ce8: 430d         	li	t1, 0x3
80000cea: 032e         	slli	t1, t1, 0xb
80000cec: fff34313     	not	t1, t1
80000cf0: 0062f2b3     	and	t0, t0, t1
80000cf4: 4305         	li	t1, 0x1
80000cf6: 032e         	slli	t1, t1, 0xb
80000cf8: 0062e2b3     	or	t0, t0, t1
80000cfc: 30029073     	csrw	mstatus, t0
80000d00: 812e         	mv	sp, a1
80000d02: 30200073     	mret

0000000080000d06 <enter_user_task>:
80000d06: 8faa         	mv	t6, a0
80000d08: 14059073     	csrw	sscratch, a1
80000d0c: 0f8fb283     	ld	t0, 0xf8(t6)
80000d10: 14129073     	csrw	sepc, t0
80000d14: 100022f3     	csrr	t0, sstatus
80000d18: 12200313     	li	t1, 0x122
80000d1c: fff34313     	not	t1, t1
80000d20: 0062f2b3     	and	t0, t0, t1
80000d24: 02000313     	li	t1, 0x20
80000d28: 0062e2b3     	or	t0, t0, t1
80000d2c: 10029073     	csrw	sstatus, t0
80000d30: 000fb083     	ld	ra, 0x0(t6)
80000d34: 008fb183     	ld	gp, 0x8(t6)
80000d38: 010fb203     	ld	tp, 0x10(t6)
80000d3c: 018fb283     	ld	t0, 0x18(t6)
80000d40: 020fb303     	ld	t1, 0x20(t6)
80000d44: 028fb383     	ld	t2, 0x28(t6)
80000d48: 030fb403     	ld	s0, 0x30(t6)
80000d4c: 038fb483     	ld	s1, 0x38(t6)
80000d50: 040fb503     	ld	a0, 0x40(t6)
80000d54: 048fb583     	ld	a1, 0x48(t6)
80000d58: 050fb603     	ld	a2, 0x50(t6)
80000d5c: 058fb683     	ld	a3, 0x58(t6)
80000d60: 060fb703     	ld	a4, 0x60(t6)
80000d64: 068fb783     	ld	a5, 0x68(t6)
80000d68: 070fb803     	ld	a6, 0x70(t6)
80000d6c: 078fb883     	ld	a7, 0x78(t6)
80000d70: 080fb903     	ld	s2, 0x80(t6)
80000d74: 088fb983     	ld	s3, 0x88(t6)
80000d78: 090fba03     	ld	s4, 0x90(t6)
80000d7c: 098fba83     	ld	s5, 0x98(t6)
80000d80: 0a0fbb03     	ld	s6, 0xa0(t6)
80000d84: 0a8fbb83     	ld	s7, 0xa8(t6)
80000d88: 0b0fbc03     	ld	s8, 0xb0(t6)
80000d8c: 0b8fbc83     	ld	s9, 0xb8(t6)
80000d90: 0c0fbd03     	ld	s10, 0xc0(t6)
80000d94: 0c8fbd83     	ld	s11, 0xc8(t6)
80000d98: 0d0fbe03     	ld	t3, 0xd0(t6)
80000d9c: 0d8fbe83     	ld	t4, 0xd8(t6)
80000da0: 0e0fbf03     	ld	t5, 0xe0(t6)
80000da4: 0f0fb103     	ld	sp, 0xf0(t6)
80000da8: 0e8fbf83     	ld	t6, 0xe8(t6)
80000dac: 10200073     	sret

0000000080000db0 <machine_trap_entry>:
80000db0: 34011173     	csrrw	sp, mscratch, sp
80000db4: 7111         	addi	sp, sp, -0x100
80000db6: e006         	sd	ra, 0x0(sp)
80000db8: e40e         	sd	gp, 0x8(sp)
80000dba: e812         	sd	tp, 0x10(sp)
80000dbc: ec16         	sd	t0, 0x18(sp)
80000dbe: f01a         	sd	t1, 0x20(sp)
80000dc0: f41e         	sd	t2, 0x28(sp)
80000dc2: f822         	sd	s0, 0x30(sp)
80000dc4: fc26         	sd	s1, 0x38(sp)
80000dc6: e0aa         	sd	a0, 0x40(sp)
80000dc8: e4ae         	sd	a1, 0x48(sp)
80000dca: e8b2         	sd	a2, 0x50(sp)
80000dcc: ecb6         	sd	a3, 0x58(sp)
80000dce: f0ba         	sd	a4, 0x60(sp)
80000dd0: f4be         	sd	a5, 0x68(sp)
80000dd2: f8c2         	sd	a6, 0x70(sp)
80000dd4: fcc6         	sd	a7, 0x78(sp)
80000dd6: e14a         	sd	s2, 0x80(sp)
80000dd8: e54e         	sd	s3, 0x88(sp)
80000dda: e952         	sd	s4, 0x90(sp)
80000ddc: ed56         	sd	s5, 0x98(sp)
80000dde: f15a         	sd	s6, 0xa0(sp)
80000de0: f55e         	sd	s7, 0xa8(sp)
80000de2: f962         	sd	s8, 0xb0(sp)
80000de4: fd66         	sd	s9, 0xb8(sp)
80000de6: e1ea         	sd	s10, 0xc0(sp)
80000de8: e5ee         	sd	s11, 0xc8(sp)
80000dea: e9f2         	sd	t3, 0xd0(sp)
80000dec: edf6         	sd	t4, 0xd8(sp)
80000dee: f1fa         	sd	t5, 0xe0(sp)
80000df0: f5fe         	sd	t6, 0xe8(sp)
80000df2: 340022f3     	csrr	t0, mscratch
80000df6: f996         	sd	t0, 0xf0(sp)
80000df8: 341022f3     	csrr	t0, mepc
80000dfc: fd96         	sd	t0, 0xf8(sp)
80000dfe: 850a         	mv	a0, sp
80000e00: 00004097     	auipc	ra, 0x4
80000e04: 386080e7     	jalr	0x386(ra) <handle_machine_trap>
80000e08: 72ee         	ld	t0, 0xf8(sp)
80000e0a: 34129073     	csrw	mepc, t0
80000e0e: 72ce         	ld	t0, 0xf0(sp)
80000e10: 34029073     	csrw	mscratch, t0
80000e14: 6082         	ld	ra, 0x0(sp)
80000e16: 61a2         	ld	gp, 0x8(sp)
80000e18: 6242         	ld	tp, 0x10(sp)
80000e1a: 62e2         	ld	t0, 0x18(sp)
80000e1c: 7302         	ld	t1, 0x20(sp)
80000e1e: 73a2         	ld	t2, 0x28(sp)
80000e20: 7442         	ld	s0, 0x30(sp)
80000e22: 74e2         	ld	s1, 0x38(sp)
80000e24: 6506         	ld	a0, 0x40(sp)
80000e26: 65a6         	ld	a1, 0x48(sp)
80000e28: 6646         	ld	a2, 0x50(sp)
80000e2a: 66e6         	ld	a3, 0x58(sp)
80000e2c: 7706         	ld	a4, 0x60(sp)
80000e2e: 77a6         	ld	a5, 0x68(sp)
80000e30: 7846         	ld	a6, 0x70(sp)
80000e32: 78e6         	ld	a7, 0x78(sp)
80000e34: 690a         	ld	s2, 0x80(sp)
80000e36: 69aa         	ld	s3, 0x88(sp)
80000e38: 6a4a         	ld	s4, 0x90(sp)
80000e3a: 6aea         	ld	s5, 0x98(sp)
80000e3c: 7b0a         	ld	s6, 0xa0(sp)
80000e3e: 7baa         	ld	s7, 0xa8(sp)
80000e40: 7c4a         	ld	s8, 0xb0(sp)
80000e42: 7cea         	ld	s9, 0xb8(sp)
80000e44: 6d0e         	ld	s10, 0xc0(sp)
80000e46: 6dae         	ld	s11, 0xc8(sp)
80000e48: 6e4e         	ld	t3, 0xd0(sp)
80000e4a: 6eee         	ld	t4, 0xd8(sp)
80000e4c: 7f0e         	ld	t5, 0xe0(sp)
80000e4e: 7fae         	ld	t6, 0xe8(sp)
80000e50: 6111         	addi	sp, sp, 0x100
80000e52: 34011173     	csrrw	sp, mscratch, sp
80000e56: 30200073     	mret
80000e5a: 0001         	nop
80000e5c: 00000013     	nop

0000000080000e60 <supervisor_trap_entry>:
80000e60: 14011173     	csrrw	sp, sscratch, sp
80000e64: 7111         	addi	sp, sp, -0x100
80000e66: e006         	sd	ra, 0x0(sp)
80000e68: e40e         	sd	gp, 0x8(sp)
80000e6a: e812         	sd	tp, 0x10(sp)
80000e6c: ec16         	sd	t0, 0x18(sp)
80000e6e: f01a         	sd	t1, 0x20(sp)
80000e70: f41e         	sd	t2, 0x28(sp)
80000e72: f822         	sd	s0, 0x30(sp)
80000e74: fc26         	sd	s1, 0x38(sp)
80000e76: e0aa         	sd	a0, 0x40(sp)
80000e78: e4ae         	sd	a1, 0x48(sp)
80000e7a: e8b2         	sd	a2, 0x50(sp)
80000e7c: ecb6         	sd	a3, 0x58(sp)
80000e7e: f0ba         	sd	a4, 0x60(sp)
80000e80: f4be         	sd	a5, 0x68(sp)
80000e82: f8c2         	sd	a6, 0x70(sp)
80000e84: fcc6         	sd	a7, 0x78(sp)
80000e86: e14a         	sd	s2, 0x80(sp)
80000e88: e54e         	sd	s3, 0x88(sp)
80000e8a: e952         	sd	s4, 0x90(sp)
80000e8c: ed56         	sd	s5, 0x98(sp)
80000e8e: f15a         	sd	s6, 0xa0(sp)
80000e90: f55e         	sd	s7, 0xa8(sp)
80000e92: f962         	sd	s8, 0xb0(sp)
80000e94: fd66         	sd	s9, 0xb8(sp)
80000e96: e1ea         	sd	s10, 0xc0(sp)
80000e98: e5ee         	sd	s11, 0xc8(sp)
80000e9a: e9f2         	sd	t3, 0xd0(sp)
80000e9c: edf6         	sd	t4, 0xd8(sp)
80000e9e: f1fa         	sd	t5, 0xe0(sp)
80000ea0: f5fe         	sd	t6, 0xe8(sp)
80000ea2: 140022f3     	csrr	t0, sscratch
80000ea6: f996         	sd	t0, 0xf0(sp)
80000ea8: 141022f3     	csrr	t0, sepc
80000eac: fd96         	sd	t0, 0xf8(sp)
80000eae: 850a         	mv	a0, sp
80000eb0: 00004097     	auipc	ra, 0x4
80000eb4: 36a080e7     	jalr	0x36a(ra) <handle_supervisor_trap>
80000eb8: 72ee         	ld	t0, 0xf8(sp)
80000eba: 14129073     	csrw	sepc, t0
80000ebe: 72ce         	ld	t0, 0xf0(sp)
80000ec0: 14029073     	csrw	sscratch, t0
80000ec4: 6082         	ld	ra, 0x0(sp)
80000ec6: 61a2         	ld	gp, 0x8(sp)
80000ec8: 6242         	ld	tp, 0x10(sp)
80000eca: 62e2         	ld	t0, 0x18(sp)
80000ecc: 7302         	ld	t1, 0x20(sp)
80000ece: 73a2         	ld	t2, 0x28(sp)
80000ed0: 7442         	ld	s0, 0x30(sp)
80000ed2: 74e2         	ld	s1, 0x38(sp)
80000ed4: 6506         	ld	a0, 0x40(sp)
80000ed6: 65a6         	ld	a1, 0x48(sp)
80000ed8: 6646         	ld	a2, 0x50(sp)
80000eda: 66e6         	ld	a3, 0x58(sp)
80000edc: 7706         	ld	a4, 0x60(sp)
80000ede: 77a6         	ld	a5, 0x68(sp)
80000ee0: 7846         	ld	a6, 0x70(sp)
80000ee2: 78e6         	ld	a7, 0x78(sp)
80000ee4: 690a         	ld	s2, 0x80(sp)
80000ee6: 69aa         	ld	s3, 0x88(sp)
80000ee8: 6a4a         	ld	s4, 0x90(sp)
80000eea: 6aea         	ld	s5, 0x98(sp)
80000eec: 7b0a         	ld	s6, 0xa0(sp)
80000eee: 7baa         	ld	s7, 0xa8(sp)
80000ef0: 7c4a         	ld	s8, 0xb0(sp)
80000ef2: 7cea         	ld	s9, 0xb8(sp)
80000ef4: 6d0e         	ld	s10, 0xc0(sp)
80000ef6: 6dae         	ld	s11, 0xc8(sp)
80000ef8: 6e4e         	ld	t3, 0xd0(sp)
80000efa: 6eee         	ld	t4, 0xd8(sp)
80000efc: 7f0e         	ld	t5, 0xe0(sp)
80000efe: 7fae         	ld	t6, 0xe8(sp)
80000f00: 6111         	addi	sp, sp, 0x100
80000f02: 14011173     	csrrw	sp, sscratch, sp
80000f06: 10200073     	sret
80000f0a: 0001         	nop
80000f0c: 00000013     	nop

0000000080000f10 <__user_program_start>:
80000f10: 00401437     	lui	s0, 0x401
80000f14: e139         	bnez	a0, 0x80000f5a <user_sender>

0000000080000f16 <user_receiver>:
80000f16: 00000517     	auipc	a0, 0x0
80000f1a: 05850513     	addi	a0, a0, 0x58
80000f1e: 45a9         	li	a1, 0xa
80000f20: 4885         	li	a7, 0x1
80000f22: 00000073     	ecall
80000f26: 4285         	li	t0, 0x1
80000f28: 00543023     	sd	t0, 0x0(s0)
80000f2c: 488d         	li	a7, 0x3
80000f2e: 00000073     	ecall

0000000080000f32 <__receiver_resume_point>:
80000f32: 00043303     	ld	t1, 0x0(s0)
80000f36: 00130393     	addi	t2, t1, 0x1
80000f3a: 00743023     	sd	t2, 0x0(s0)
80000f3e: 00843e03     	ld	t3, 0x8(s0)
80000f42: 4509         	li	a0, 0x2
80000f44: 859a         	mv	a1, t1
80000f46: 861e         	mv	a2, t2
80000f48: 86f2         	mv	a3, t3
80000f4a: 4891         	li	a7, 0x4
80000f4c: 00000073     	ecall
80000f50: 4501         	li	a0, 0x0
80000f52: 4895         	li	a7, 0x5
80000f54: 00000073     	ecall
80000f58: a811         	j	0x80000f6c <user_halt>

0000000080000f5a <user_sender>:
80000f5a: 4501         	li	a0, 0x0
80000f5c: 45a9         	li	a1, 0xa
80000f5e: 4889         	li	a7, 0x2
80000f60: 00000073     	ecall
80000f64: 4501         	li	a0, 0x0
80000f66: 4895         	li	a7, 0x5
80000f68: 00000073     	ecall

0000000080000f6c <user_halt>:
80000f6c: a001         	j	0x80000f6c <user_halt>

0000000080000f6e <__user_signal_handler>:
80000f6e: 00043283     	ld	t0, 0x0(s0)
80000f72: 0285         	addi	t0, t0, 0x1
80000f74: 00543023     	sd	t0, 0x0(s0)
80000f78: e408         	sd	a0, 0x8(s0)
80000f7a: 4505         	li	a0, 0x1
80000f7c: 8596         	mv	a1, t0
80000f7e: 6410         	ld	a2, 0x8(s0)
80000f80: 868a         	mv	a3, sp
80000f82: 8706         	mv	a4, ra
80000f84: 4891         	li	a7, 0x4
80000f86: 00000073     	ecall
80000f8a: 8082         	ret

0000000080000f8c <__sigreturn_trampoline>:
80000f8c: 4899         	li	a7, 0x6
80000f8e: 00000073     	ecall
80000f92: a001         	j	0x80000f92 <__sigreturn_trampoline+0x6>

0000000080000f94 <__user_program_end>:
80000f94: 7139         	addi	sp, sp, -0x40
80000f96: fc06         	sd	ra, 0x38(sp)
80000f98: e42a         	sd	a0, 0x8(sp)
80000f9a: 002c         	addi	a1, sp, 0x8
80000f9c: f82e         	sd	a1, 0x30(sp)
80000f9e: 1008         	addi	a0, sp, 0x20
80000fa0: 00000097     	auipc	ra, 0x0
80000fa4: ad8080e7     	jalr	-0x528(ra) <core::fmt::rt::Argument::new_display::h2a08d0a155f83b66>
80000fa8: 7522         	ld	a0, 0x28(sp)
80000faa: ec2a         	sd	a0, 0x18(sp)
80000fac: 7502         	ld	a0, 0x20(sp)
80000fae: e82a         	sd	a0, 0x10(sp)

0000000080000fb0 <.Lpcrel_hi2>:
80000fb0: 00006517     	auipc	a0, 0x6
80000fb4: 18e50513     	addi	a0, a0, 0x18e
80000fb8: 080c         	addi	a1, sp, 0x10
80000fba: fffff097     	auipc	ra, 0xfffff
80000fbe: 2c0080e7     	jalr	0x2c0(ra) <core::fmt::Arguments::new::h7416ae572110a963>
80000fc2: 00005097     	auipc	ra, 0x5
80000fc6: 862080e7     	jalr	-0x79e(ra) <lab7_kernel_task2::console::print::h0d70eb8228e543e8>
80000fca: 4505         	li	a0, 0x1
80000fcc: 00004097     	auipc	ra, 0x4
80000fd0: f3a080e7     	jalr	-0xc6(ra) <lab7_kernel_task2::qemu_exit::he8749ad0a6a46ff5>

0000000080000fd4 <lab7_kernel_task2::WalkResult::zeroed::h38e19a73e85dad80>:
80000fd4: 85aa         	mv	a1, a0
80000fd6: 4501         	li	a0, 0x0
80000fd8: e188         	sd	a0, 0x0(a1)
80000fda: e588         	sd	a0, 0x8(a1)
80000fdc: e988         	sd	a0, 0x10(a1)
80000fde: ed88         	sd	a0, 0x18(a1)
80000fe0: f188         	sd	a0, 0x20(a1)
80000fe2: f588         	sd	a0, 0x28(a1)
80000fe4: f988         	sd	a0, 0x30(a1)
80000fe6: 8082         	ret

0000000080000fe8 <lab7_kernel_task2::align_down::haffd849fe4d16b5b>:
80000fe8: 1101         	addi	sp, sp, -0x20
80000fea: e02a         	sd	a0, 0x0(sp)
80000fec: e82a         	sd	a0, 0x10(sp)
80000fee: ec2e         	sd	a1, 0x18(sp)
80000ff0: fff58513     	addi	a0, a1, -0x1
80000ff4: e42a         	sd	a0, 0x8(sp)
80000ff6: c989         	beqz	a1, 0x80001008 <.Lpcrel_hi3>
80000ff8: a009         	j	0x80000ffa <lab7_kernel_task2::align_down::haffd849fe4d16b5b+0x12>
80000ffa: 6502         	ld	a0, 0x0(sp)
80000ffc: 65a2         	ld	a1, 0x8(sp)
80000ffe: fff5c593     	not	a1, a1
80001002: 8d6d         	and	a0, a0, a1
80001004: 6105         	addi	sp, sp, 0x20
80001006: 8082         	ret

0000000080001008 <.Lpcrel_hi3>:
80001008: 00007517     	auipc	a0, 0x7
8000100c: ac050513     	addi	a0, a0, -0x540
80001010: 00005097     	auipc	ra, 0x5
80001014: 76e080e7     	jalr	0x76e(ra) <core::panicking::panic_const::panic_const_sub_overflow::hccc965ba9198de7c>

0000000080001018 <lab7_kernel_task2::print_walk::h83c28cbe6c4b3955>:
80001018: da010113     	addi	sp, sp, -0x260
8000101c: 24113c23     	sd	ra, 0x258(sp)
80001020: fc2a         	sd	a0, 0x38(sp)
80001022: e0ae         	sd	a1, 0x40(sp)
80001024: e4b2         	sd	a2, 0x48(sp)
80001026: e8b6         	sd	a3, 0x50(sp)
80001028: 65a6         	ld	a1, 0x48(sp)
8000102a: 6646         	ld	a2, 0x50(sp)
8000102c: 08a8         	addi	a0, sp, 0x58
8000102e: e42a         	sd	a0, 0x8(sp)
80001030: 00002097     	auipc	ra, 0x2
80001034: 0b8080e7     	jalr	0xb8(ra) <lab7_kernel_task2::walk_proc_virtual::h2e17da96e96ee012>
80001038: 1088         	addi	a0, sp, 0x60
8000103a: e82a         	sd	a0, 0x10(sp)
8000103c: 10a8         	addi	a0, sp, 0x68
8000103e: ec2a         	sd	a0, 0x18(sp)
80001040: 1888         	addi	a0, sp, 0x70
80001042: f02a         	sd	a0, 0x20(sp)
80001044: 18a8         	addi	a0, sp, 0x78
80001046: f42a         	sd	a0, 0x28(sp)
80001048: 0108         	addi	a0, sp, 0x80
8000104a: f82a         	sd	a0, 0x30(sp)
8000104c: 652a         	ld	a0, 0x88(sp)
8000104e: 00004097     	auipc	ra, 0x4
80001052: eac080e7     	jalr	-0x154(ra) <lab7_kernel_task2::pte_to_pa::hf68a11d477bbd38c>
80001056: 67a2         	ld	a5, 0x8(sp)
80001058: 6742         	ld	a4, 0x10(sp)
8000105a: 66e2         	ld	a3, 0x18(sp)
8000105c: 7602         	ld	a2, 0x20(sp)
8000105e: 75a2         	ld	a1, 0x28(sp)
80001060: 882a         	mv	a6, a0
80001062: 7542         	ld	a0, 0x30(sp)
80001064: f5c2         	sd	a6, 0xe8(sp)
80001066: 682a         	ld	a6, 0x88(sp)
80001068: f9c2         	sd	a6, 0xf0(sp)
8000106a: 03810813     	addi	a6, sp, 0x38
8000106e: e942         	sd	a6, 0x90(sp)
80001070: 04810813     	addi	a6, sp, 0x48
80001074: ed42         	sd	a6, 0x98(sp)
80001076: 05010813     	addi	a6, sp, 0x50
8000107a: f142         	sd	a6, 0xa0(sp)
8000107c: f53e         	sd	a5, 0xa8(sp)
8000107e: f93a         	sd	a4, 0xb0(sp)
80001080: fd36         	sd	a3, 0xb8(sp)
80001082: e1b2         	sd	a2, 0xc0(sp)
80001084: e5ae         	sd	a1, 0xc8(sp)
80001086: e9aa         	sd	a0, 0xd0(sp)
80001088: 11a8         	addi	a0, sp, 0xe8
8000108a: edaa         	sd	a0, 0xd8(sp)
8000108c: 1988         	addi	a0, sp, 0xf0
8000108e: f1aa         	sd	a0, 0xe0(sp)
80001090: 65ca         	ld	a1, 0x90(sp)
80001092: 1328         	addi	a0, sp, 0x1a8
80001094: 00000097     	auipc	ra, 0x0
80001098: a4a080e7     	jalr	-0x5b6(ra) <core::fmt::rt::Argument::new_display::h8e90df567e7acf69>
8000109c: 65ea         	ld	a1, 0x98(sp)
8000109e: 1b28         	addi	a0, sp, 0x1b8
800010a0: 00000097     	auipc	ra, 0x0
800010a4: 9b6080e7     	jalr	-0x64a(ra) <core::fmt::rt::Argument::new_display::h0f8d4721c9a89fbb>
800010a8: 758a         	ld	a1, 0xa0(sp)
800010aa: 03a8         	addi	a0, sp, 0x1c8
800010ac: 00000097     	auipc	ra, 0x0
800010b0: a76080e7     	jalr	-0x58a(ra) <core::fmt::rt::Argument::new_lower_hex::hc9324aa1f0e7ff53>
800010b4: 75aa         	ld	a1, 0xa8(sp)
800010b6: 0ba8         	addi	a0, sp, 0x1d8
800010b8: 00000097     	auipc	ra, 0x0
800010bc: 99e080e7     	jalr	-0x662(ra) <core::fmt::rt::Argument::new_display::h0f8d4721c9a89fbb>
800010c0: 75ca         	ld	a1, 0xb0(sp)
800010c2: 13a8         	addi	a0, sp, 0x1e8
800010c4: 00000097     	auipc	ra, 0x0
800010c8: 992080e7     	jalr	-0x66e(ra) <core::fmt::rt::Argument::new_display::h0f8d4721c9a89fbb>
800010cc: 75ea         	ld	a1, 0xb8(sp)
800010ce: 1ba8         	addi	a0, sp, 0x1f8
800010d0: 00000097     	auipc	ra, 0x0
800010d4: 986080e7     	jalr	-0x67a(ra) <core::fmt::rt::Argument::new_display::h0f8d4721c9a89fbb>
800010d8: 658e         	ld	a1, 0xc0(sp)
800010da: 0428         	addi	a0, sp, 0x208
800010dc: 00000097     	auipc	ra, 0x0
800010e0: a46080e7     	jalr	-0x5ba(ra) <core::fmt::rt::Argument::new_lower_hex::hc9324aa1f0e7ff53>
800010e4: 65ae         	ld	a1, 0xc8(sp)
800010e6: 0c28         	addi	a0, sp, 0x218
800010e8: 00000097     	auipc	ra, 0x0
800010ec: a3a080e7     	jalr	-0x5c6(ra) <core::fmt::rt::Argument::new_lower_hex::hc9324aa1f0e7ff53>
800010f0: 65ce         	ld	a1, 0xd0(sp)
800010f2: 1428         	addi	a0, sp, 0x228
800010f4: 00000097     	auipc	ra, 0x0
800010f8: a2e080e7     	jalr	-0x5d2(ra) <core::fmt::rt::Argument::new_lower_hex::hc9324aa1f0e7ff53>
800010fc: 65ee         	ld	a1, 0xd8(sp)
800010fe: 1c28         	addi	a0, sp, 0x238
80001100: 00000097     	auipc	ra, 0x0
80001104: a22080e7     	jalr	-0x5de(ra) <core::fmt::rt::Argument::new_lower_hex::hc9324aa1f0e7ff53>
80001108: 758e         	ld	a1, 0xe0(sp)
8000110a: 04a8         	addi	a0, sp, 0x248
8000110c: 00000097     	auipc	ra, 0x0
80001110: 9b0080e7     	jalr	-0x650(ra) <core::fmt::rt::Argument::new_display::h51488476d89b03e6>
80001114: 755a         	ld	a0, 0x1b0(sp)
80001116: e22a         	sd	a0, 0x100(sp)
80001118: 753a         	ld	a0, 0x1a8(sp)
8000111a: fdaa         	sd	a0, 0xf8(sp)
8000111c: 651e         	ld	a0, 0x1c0(sp)
8000111e: ea2a         	sd	a0, 0x110(sp)
80001120: 757a         	ld	a0, 0x1b8(sp)
80001122: e62a         	sd	a0, 0x108(sp)
80001124: 655e         	ld	a0, 0x1d0(sp)
80001126: f22a         	sd	a0, 0x120(sp)
80001128: 653e         	ld	a0, 0x1c8(sp)
8000112a: ee2a         	sd	a0, 0x118(sp)
8000112c: 751e         	ld	a0, 0x1e0(sp)
8000112e: fa2a         	sd	a0, 0x130(sp)
80001130: 657e         	ld	a0, 0x1d8(sp)
80001132: f62a         	sd	a0, 0x128(sp)
80001134: 755e         	ld	a0, 0x1f0(sp)
80001136: e2aa         	sd	a0, 0x140(sp)
80001138: 753e         	ld	a0, 0x1e8(sp)
8000113a: fe2a         	sd	a0, 0x138(sp)
8000113c: 20013503     	ld	a0, 0x200(sp)
80001140: eaaa         	sd	a0, 0x150(sp)
80001142: 757e         	ld	a0, 0x1f8(sp)
80001144: e6aa         	sd	a0, 0x148(sp)
80001146: 21013503     	ld	a0, 0x210(sp)
8000114a: f2aa         	sd	a0, 0x160(sp)
8000114c: 20813503     	ld	a0, 0x208(sp)
80001150: eeaa         	sd	a0, 0x158(sp)
80001152: 22013503     	ld	a0, 0x220(sp)
80001156: faaa         	sd	a0, 0x170(sp)
80001158: 21813503     	ld	a0, 0x218(sp)
8000115c: f6aa         	sd	a0, 0x168(sp)
8000115e: 23013503     	ld	a0, 0x230(sp)
80001162: e32a         	sd	a0, 0x180(sp)
80001164: 22813503     	ld	a0, 0x228(sp)
80001168: feaa         	sd	a0, 0x178(sp)
8000116a: 24013503     	ld	a0, 0x240(sp)
8000116e: eb2a         	sd	a0, 0x190(sp)
80001170: 23813503     	ld	a0, 0x238(sp)
80001174: e72a         	sd	a0, 0x188(sp)
80001176: 25013503     	ld	a0, 0x250(sp)
8000117a: f32a         	sd	a0, 0x1a0(sp)
8000117c: 24813503     	ld	a0, 0x248(sp)
80001180: ef2a         	sd	a0, 0x198(sp)

0000000080001182 <.Lpcrel_hi4>:
80001182: 00007517     	auipc	a0, 0x7
80001186: 95e50513     	addi	a0, a0, -0x6a2
8000118a: 19ac         	addi	a1, sp, 0xf8
8000118c: fffff097     	auipc	ra, 0xfffff
80001190: 102080e7     	jalr	0x102(ra) <core::fmt::Arguments::new::h7df6d23cca0ce285>
80001194: 00004097     	auipc	ra, 0x4
80001198: 690080e7     	jalr	0x690(ra) <lab7_kernel_task2::console::print::h0d70eb8228e543e8>
8000119c: 25813083     	ld	ra, 0x258(sp)
800011a0: 26010113     	addi	sp, sp, 0x260
800011a4: 8082         	ret

00000000800011a6 <lab7_kernel_task2::read_mtval::h380dbef7b711f26d>:
800011a6: 1141         	addi	sp, sp, -0x10
800011a8: 34302573     	csrr	a0, mtval
800011ac: e42a         	sd	a0, 0x8(sp)
800011ae: 6522         	ld	a0, 0x8(sp)
800011b0: 0141         	addi	sp, sp, 0x10
800011b2: 8082         	ret

00000000800011b4 <lab7_kernel_task2::read_stval::h16a5606ba0d1dce2>:
800011b4: 1141         	addi	sp, sp, -0x10
800011b6: 14302573     	csrr	a0, stval
800011ba: e42a         	sd	a0, 0x8(sp)
800011bc: 6522         	ld	a0, 0x8(sp)
800011be: 0141         	addi	sp, sp, 0x10
800011c0: 8082         	ret

00000000800011c2 <lab7_kernel_task2::vpn0_index::h1a7fd2ea4053119f>:
800011c2: 1141         	addi	sp, sp, -0x10
800011c4: e42a         	sd	a0, 0x8(sp)
800011c6: 152e         	slli	a0, a0, 0x2b
800011c8: 915d         	srli	a0, a0, 0x37
800011ca: 0141         	addi	sp, sp, 0x10
800011cc: 8082         	ret

00000000800011ce <lab7_kernel_task2::vpn1_index::h7c720f11da45cc44>:
800011ce: 1141         	addi	sp, sp, -0x10
800011d0: e42a         	sd	a0, 0x8(sp)
800011d2: 150a         	slli	a0, a0, 0x22
800011d4: 915d         	srli	a0, a0, 0x37
800011d6: 0141         	addi	sp, sp, 0x10
800011d8: 8082         	ret

00000000800011da <lab7_kernel_task2::vpn2_index::hd6e66058e76b40e5>:
800011da: 1141         	addi	sp, sp, -0x10
800011dc: e42a         	sd	a0, 0x8(sp)
800011de: 0566         	slli	a0, a0, 0x19
800011e0: 915d         	srli	a0, a0, 0x37
800011e2: 0141         	addi	sp, sp, 0x10
800011e4: 8082         	ret

00000000800011e6 <lab7_kernel_task2::SignalStats::zeroed::ha8056458ce164f61>:
800011e6: 85aa         	mv	a1, a0
800011e8: 4501         	li	a0, 0x0
800011ea: e188         	sd	a0, 0x0(a1)
800011ec: e588         	sd	a0, 0x8(a1)
800011ee: e988         	sd	a0, 0x10(a1)
800011f0: ed88         	sd	a0, 0x18(a1)
800011f2: f188         	sd	a0, 0x20(a1)
800011f4: f588         	sd	a0, 0x28(a1)
800011f6: f988         	sd	a0, 0x30(a1)
800011f8: fd88         	sd	a0, 0x38(a1)
800011fa: e1a8         	sd	a0, 0x40(a1)
800011fc: e5a8         	sd	a0, 0x48(a1)
800011fe: e9a8         	sd	a0, 0x50(a1)
80001200: eda8         	sd	a0, 0x58(a1)
80001202: 8082         	ret

0000000080001204 <lab7_kernel_task2::kernel_fail::ha5b301f22f28ddb4>:
80001204: 7139         	addi	sp, sp, -0x40
80001206: fc06         	sd	ra, 0x38(sp)
80001208: e02a         	sd	a0, 0x0(sp)
8000120a: e42e         	sd	a1, 0x8(sp)
8000120c: 858a         	mv	a1, sp
8000120e: f82e         	sd	a1, 0x30(sp)
80001210: 1008         	addi	a0, sp, 0x20
80001212: 00000097     	auipc	ra, 0x0
80001216: 8cc080e7     	jalr	-0x734(ra) <core::fmt::rt::Argument::new_display::h8e90df567e7acf69>
8000121a: 7522         	ld	a0, 0x28(sp)
8000121c: ec2a         	sd	a0, 0x18(sp)
8000121e: 7502         	ld	a0, 0x20(sp)
80001220: e82a         	sd	a0, 0x10(sp)

0000000080001222 <.Lpcrel_hi5>:
80001222: 00006517     	auipc	a0, 0x6
80001226: e4d50513     	addi	a0, a0, -0x1b3
8000122a: 080c         	addi	a1, sp, 0x10
8000122c: fffff097     	auipc	ra, 0xfffff
80001230: 06c080e7     	jalr	0x6c(ra) <core::fmt::Arguments::new::h83ceeaa0f5f412ac>
80001234: 00004097     	auipc	ra, 0x4
80001238: 5f0080e7     	jalr	0x5f0(ra) <lab7_kernel_task2::console::print::h0d70eb8228e543e8>
8000123c: 4505         	li	a0, 0x1
8000123e: 00004097     	auipc	ra, 0x4
80001242: cc8080e7     	jalr	-0x338(ra) <lab7_kernel_task2::qemu_exit::he8749ad0a6a46ff5>

0000000080001246 <lab7_kernel_task2::page_offset::h3961df09dad86938>:
80001246: 1141         	addi	sp, sp, -0x10
80001248: e42a         	sd	a0, 0x8(sp)
8000124a: 1552         	slli	a0, a0, 0x34
8000124c: 9151         	srli	a0, a0, 0x34
8000124e: 0141         	addi	sp, sp, 0x10
80001250: 8082         	ret

0000000080001252 <lab7_kernel_task2::pte_is_leaf::ha5feffc254e70694>:
80001252: 1141         	addi	sp, sp, -0x10
80001254: e42a         	sd	a0, 0x8(sp)
80001256: 8939         	andi	a0, a0, 0xe
80001258: 00a03533     	snez	a0, a0
8000125c: 0141         	addi	sp, sp, 0x10
8000125e: 8082         	ret

0000000080001260 <lab7_kernel_task2::read_mcause::he3ab0c8b6b6e4ace>:
80001260: 1141         	addi	sp, sp, -0x10
80001262: 34202573     	csrr	a0, mcause
80001266: e42a         	sd	a0, 0x8(sp)
80001268: 6522         	ld	a0, 0x8(sp)
8000126a: 0141         	addi	sp, sp, 0x10
8000126c: 8082         	ret

000000008000126e <lab7_kernel_task2::read_scause::hc1250abe2410e42f>:
8000126e: 1141         	addi	sp, sp, -0x10
80001270: 14202573     	csrr	a0, scause
80001274: e42a         	sd	a0, 0x8(sp)
80001276: 6522         	ld	a0, 0x8(sp)
80001278: 0141         	addi	sp, sp, 0x10
8000127a: 8082         	ret

000000008000127c <lab7_kernel_task2::do_sigaction::h8c40cde638cdc105>:
8000127c: 7135         	addi	sp, sp, -0xa0
8000127e: ed06         	sd	ra, 0x98(sp)
80001280: e42a         	sd	a0, 0x8(sp)
80001282: 65a2         	ld	a1, 0x8(sp)
80001284: 4505         	li	a0, 0x1
80001286: 00b56963     	bltu	a0, a1, 0x80001298 <.Lpcrel_hi6+0xc>
8000128a: a009         	j	0x8000128c <.Lpcrel_hi6>

000000008000128c <.Lpcrel_hi6>:
8000128c: 00009517     	auipc	a0, 0x9
80001290: 21c50513     	addi	a0, a0, 0x21c
80001294: ed01         	bnez	a0, 0x800012ac <.Lpcrel_hi7+0x12>
80001296: a815         	j	0x800012ca <.Lpcrel_hi9>
80001298: 6522         	ld	a0, 0x8(sp)

000000008000129a <.Lpcrel_hi7>:
8000129a: 00007597     	auipc	a1, 0x7
8000129e: 8be58613     	addi	a2, a1, -0x742
800012a2: 4589         	li	a1, 0x2
800012a4: 00005097     	auipc	ra, 0x5
800012a8: 516080e7     	jalr	0x516(ra) <core::panicking::panic_bounds_check::h6aaee0d15e0261eb>
800012ac: 6522         	ld	a0, 0x8(sp)
800012ae: 00851593     	slli	a1, a0, 0x8

00000000800012b2 <.Lpcrel_hi8>:
800012b2: 00009517     	auipc	a0, 0x9
800012b6: 1f650513     	addi	a0, a0, 0x1f6
800012ba: 952e         	add	a0, a0, a1
800012bc: 6128         	ld	a0, 0x40(a0)
800012be: e82a         	sd	a0, 0x10(sp)
800012c0: 6522         	ld	a0, 0x8(sp)
800012c2: 4589         	li	a1, 0x2
800012c4: 00b56b63     	bltu	a0, a1, 0x800012da <.Lpcrel_hi10>
800012c8: a839         	j	0x800012e6 <.Lpcrel_hi10+0xc>

00000000800012ca <.Lpcrel_hi9>:
800012ca: 00007517     	auipc	a0, 0x7
800012ce: 88e50513     	addi	a0, a0, -0x772
800012d2: 00005097     	auipc	ra, 0x5
800012d6: 554080e7     	jalr	0x554(ra) <core::panicking::panic_null_pointer_dereference::hbac6411af4f2e916>

00000000800012da <.Lpcrel_hi10>:
800012da: 00009517     	auipc	a0, 0x9
800012de: 1ce50513     	addi	a0, a0, 0x1ce
800012e2: ed01         	bnez	a0, 0x800012fa <.Lpcrel_hi11+0x12>
800012e4: a815         	j	0x80001318 <.Lpcrel_hi13>
800012e6: 6522         	ld	a0, 0x8(sp)

00000000800012e8 <.Lpcrel_hi11>:
800012e8: 00007597     	auipc	a1, 0x7
800012ec: 88858613     	addi	a2, a1, -0x778
800012f0: 4589         	li	a1, 0x2
800012f2: 00005097     	auipc	ra, 0x5
800012f6: 4c8080e7     	jalr	0x4c8(ra) <core::panicking::panic_bounds_check::h6aaee0d15e0261eb>
800012fa: 6522         	ld	a0, 0x8(sp)
800012fc: 00851593     	slli	a1, a0, 0x8

0000000080001300 <.Lpcrel_hi12>:
80001300: 00009517     	auipc	a0, 0x9
80001304: 1a850513     	addi	a0, a0, 0x1a8
80001308: 952e         	add	a0, a0, a1
8000130a: 6528         	ld	a0, 0x48(a0)
8000130c: ec2a         	sd	a0, 0x18(sp)
8000130e: 65e2         	ld	a1, 0x18(sp)
80001310: 457d         	li	a0, 0x1f
80001312: 02b56063     	bltu	a0, a1, 0x80001332 <.Lpcrel_hi14>
80001316: a809         	j	0x80001328 <.Lpcrel_hi13+0x10>

0000000080001318 <.Lpcrel_hi13>:
80001318: 00007517     	auipc	a0, 0x7
8000131c: 85850513     	addi	a0, a0, -0x7a8
80001320: 00005097     	auipc	ra, 0x5
80001324: 506080e7     	jalr	0x506(ra) <core::panicking::panic_null_pointer_dereference::hbac6411af4f2e916>
80001328: 6522         	ld	a0, 0x8(sp)
8000132a: 4589         	li	a1, 0x2
8000132c: 00b56c63     	bltu	a0, a1, 0x80001344 <.Lpcrel_hi14+0x12>
80001330: a005         	j	0x80001350 <.Lpcrel_hi14+0x1e>

0000000080001332 <.Lpcrel_hi14>:
80001332: 00007517     	auipc	a0, 0x7
80001336: 8d350513     	addi	a0, a0, -0x72d
8000133a: 45f5         	li	a1, 0x1d
8000133c: 00000097     	auipc	ra, 0x0
80001340: ec8080e7     	jalr	-0x138(ra) <lab7_kernel_task2::kernel_fail::ha5b301f22f28ddb4>
80001344: 6562         	ld	a0, 0x18(sp)
80001346: 02000593     	li	a1, 0x20
8000134a: 00b56d63     	bltu	a0, a1, 0x80001364 <.Lpcrel_hi16>
8000134e: a00d         	j	0x80001370 <.Lpcrel_hi16+0xc>
80001350: 6522         	ld	a0, 0x8(sp)

0000000080001352 <.Lpcrel_hi15>:
80001352: 00007597     	auipc	a1, 0x7
80001356: 83658613     	addi	a2, a1, -0x7ca
8000135a: 4589         	li	a1, 0x2
8000135c: 00005097     	auipc	ra, 0x5
80001360: 45e080e7     	jalr	0x45e(ra) <core::panicking::panic_bounds_check::h6aaee0d15e0261eb>

0000000080001364 <.Lpcrel_hi16>:
80001364: 00009517     	auipc	a0, 0x9
80001368: d0450513     	addi	a0, a0, -0x2fc
8000136c: ed09         	bnez	a0, 0x80001386 <.Lpcrel_hi17+0x14>
8000136e: a081         	j	0x800013ae <.Lpcrel_hi19>
80001370: 6562         	ld	a0, 0x18(sp)

0000000080001372 <.Lpcrel_hi17>:
80001372: 00007597     	auipc	a1, 0x7
80001376: 81658613     	addi	a2, a1, -0x7ea
8000137a: 02000593     	li	a1, 0x20
8000137e: 00005097     	auipc	ra, 0x5
80001382: 43c080e7     	jalr	0x43c(ra) <core::panicking::panic_bounds_check::h6aaee0d15e0261eb>
80001386: 6522         	ld	a0, 0x8(sp)
80001388: 00551593     	slli	a1, a0, 0x5
8000138c: 0526         	slli	a0, a0, 0x9
8000138e: 95aa         	add	a1, a1, a0

0000000080001390 <.Lpcrel_hi18>:
80001390: 00009517     	auipc	a0, 0x9
80001394: cd850513     	addi	a0, a0, -0x328
80001398: 952e         	add	a0, a0, a1
8000139a: 65e2         	ld	a1, 0x18(sp)
8000139c: 058e         	slli	a1, a1, 0x3
8000139e: 95aa         	add	a1, a1, a0
800013a0: 6542         	ld	a0, 0x10(sp)
800013a2: ed88         	sd	a0, 0x18(a1)
800013a4: 6522         	ld	a0, 0x8(sp)
800013a6: 4589         	li	a1, 0x2
800013a8: 00b56b63     	bltu	a0, a1, 0x800013be <.Lpcrel_hi20>
800013ac: a839         	j	0x800013ca <.Lpcrel_hi20+0xc>

00000000800013ae <.Lpcrel_hi19>:
800013ae: 00006517     	auipc	a0, 0x6
800013b2: 7da50513     	addi	a0, a0, 0x7da
800013b6: 00005097     	auipc	ra, 0x5
800013ba: 470080e7     	jalr	0x470(ra) <core::panicking::panic_null_pointer_dereference::hbac6411af4f2e916>

00000000800013be <.Lpcrel_hi20>:
800013be: 00009517     	auipc	a0, 0x9
800013c2: 0ea50513     	addi	a0, a0, 0xea
800013c6: ed01         	bnez	a0, 0x800013de <.Lpcrel_hi21+0x12>
800013c8: a81d         	j	0x800013fe <.Lpcrel_hi24>
800013ca: 6522         	ld	a0, 0x8(sp)

00000000800013cc <.Lpcrel_hi21>:
800013cc: 00006597     	auipc	a1, 0x6
800013d0: 7d458613     	addi	a2, a1, 0x7d4
800013d4: 4589         	li	a1, 0x2
800013d6: 00005097     	auipc	ra, 0x5
800013da: 3e4080e7     	jalr	0x3e4(ra) <core::panicking::panic_bounds_check::h6aaee0d15e0261eb>
800013de: 6522         	ld	a0, 0x8(sp)
800013e0: 00851593     	slli	a1, a0, 0x8

00000000800013e4 <.Lpcrel_hi22>:
800013e4: 00009517     	auipc	a0, 0x9
800013e8: 0c450513     	addi	a0, a0, 0xc4
800013ec: 95aa         	add	a1, a1, a0
800013ee: 4501         	li	a0, 0x0
800013f0: e1a8         	sd	a0, 0x40(a1)

00000000800013f2 <.Lpcrel_hi23>:
800013f2: 00009517     	auipc	a0, 0x9
800013f6: c1650513     	addi	a0, a0, -0x3ea
800013fa: e911         	bnez	a0, 0x8000140e <.Lpcrel_hi25>
800013fc: a025         	j	0x80001424 <.Lpcrel_hi26>

00000000800013fe <.Lpcrel_hi24>:
800013fe: 00006517     	auipc	a0, 0x6
80001402: 7a250513     	addi	a0, a0, 0x7a2
80001406: 00005097     	auipc	ra, 0x5
8000140a: 420080e7     	jalr	0x420(ra) <core::panicking::panic_null_pointer_dereference::hbac6411af4f2e916>

000000008000140e <.Lpcrel_hi25>:
8000140e: 00009517     	auipc	a0, 0x9
80001412: bfa50513     	addi	a0, a0, -0x406
80001416: 610c         	ld	a1, 0x0(a0)
80001418: 00158513     	addi	a0, a1, 0x1
8000141c: e02a         	sd	a0, 0x0(sp)
8000141e: 02b56163     	bltu	a0, a1, 0x80001440 <.Lpcrel_hi28>
80001422: a809         	j	0x80001434 <.Lpcrel_hi27>

0000000080001424 <.Lpcrel_hi26>:
80001424: 00006517     	auipc	a0, 0x6
80001428: 79450513     	addi	a0, a0, 0x794
8000142c: 00005097     	auipc	ra, 0x5
80001430: 3fa080e7     	jalr	0x3fa(ra) <core::panicking::panic_null_pointer_dereference::hbac6411af4f2e916>

0000000080001434 <.Lpcrel_hi27>:
80001434: 00009517     	auipc	a0, 0x9
80001438: bd450513     	addi	a0, a0, -0x42c
8000143c: e911         	bnez	a0, 0x80001450 <.Lpcrel_hi28+0x10>
8000143e: a059         	j	0x800014c4 <.Lpcrel_hi31>

0000000080001440 <.Lpcrel_hi28>:
80001440: 00006517     	auipc	a0, 0x6
80001444: 77850513     	addi	a0, a0, 0x778
80001448: 00005097     	auipc	ra, 0x5
8000144c: 2dc080e7     	jalr	0x2dc(ra) <core::panicking::panic_const::panic_const_add_overflow::h67cba067093910f8>
80001450: 6502         	ld	a0, 0x0(sp)

0000000080001452 <.Lpcrel_hi29>:
80001452: 00009597     	auipc	a1, 0x9
80001456: bb658593     	addi	a1, a1, -0x44a
8000145a: e188         	sd	a0, 0x0(a1)
8000145c: 0028         	addi	a0, sp, 0x8
8000145e: f02a         	sd	a0, 0x20(sp)
80001460: 0828         	addi	a0, sp, 0x18
80001462: f42a         	sd	a0, 0x28(sp)
80001464: 0808         	addi	a0, sp, 0x10
80001466: f82a         	sd	a0, 0x30(sp)
80001468: 7582         	ld	a1, 0x20(sp)
8000146a: 10a8         	addi	a0, sp, 0x68
8000146c: fffff097     	auipc	ra, 0xfffff
80001470: 5ea080e7     	jalr	0x5ea(ra) <core::fmt::rt::Argument::new_display::h0f8d4721c9a89fbb>
80001474: 75a2         	ld	a1, 0x28(sp)
80001476: 18a8         	addi	a0, sp, 0x78
80001478: fffff097     	auipc	ra, 0xfffff
8000147c: 5de080e7     	jalr	0x5de(ra) <core::fmt::rt::Argument::new_display::h0f8d4721c9a89fbb>
80001480: 75c2         	ld	a1, 0x30(sp)
80001482: 0128         	addi	a0, sp, 0x88
80001484: fffff097     	auipc	ra, 0xfffff
80001488: 69e080e7     	jalr	0x69e(ra) <core::fmt::rt::Argument::new_lower_hex::hc9324aa1f0e7ff53>
8000148c: 7546         	ld	a0, 0x70(sp)
8000148e: e0aa         	sd	a0, 0x40(sp)
80001490: 7526         	ld	a0, 0x68(sp)
80001492: fc2a         	sd	a0, 0x38(sp)
80001494: 650a         	ld	a0, 0x80(sp)
80001496: e8aa         	sd	a0, 0x50(sp)
80001498: 7566         	ld	a0, 0x78(sp)
8000149a: e4aa         	sd	a0, 0x48(sp)
8000149c: 654a         	ld	a0, 0x90(sp)
8000149e: f0aa         	sd	a0, 0x60(sp)
800014a0: 652a         	ld	a0, 0x88(sp)
800014a2: ecaa         	sd	a0, 0x58(sp)

00000000800014a4 <.Lpcrel_hi30>:
800014a4: 00006517     	auipc	a0, 0x6
800014a8: 72c50513     	addi	a0, a0, 0x72c
800014ac: 182c         	addi	a1, sp, 0x38
800014ae: fffff097     	auipc	ra, 0xfffff
800014b2: e08080e7     	jalr	-0x1f8(ra) <core::fmt::Arguments::new::h9a735c0df7d56028>
800014b6: 00004097     	auipc	ra, 0x4
800014ba: 36e080e7     	jalr	0x36e(ra) <lab7_kernel_task2::console::print::h0d70eb8228e543e8>
800014be: 60ea         	ld	ra, 0x98(sp)
800014c0: 610d         	addi	sp, sp, 0xa0
800014c2: 8082         	ret

00000000800014c4 <.Lpcrel_hi31>:
800014c4: 00006517     	auipc	a0, 0x6
800014c8: 6f450513     	addi	a0, a0, 0x6f4
800014cc: 00005097     	auipc	ra, 0x5
800014d0: 35a080e7     	jalr	0x35a(ra) <core::panicking::panic_null_pointer_dereference::hbac6411af4f2e916>

00000000800014d4 <lab7_kernel_task2::do_sigreturn::hc330ad69ac0e32b4>:
800014d4: bb010113     	addi	sp, sp, -0x450
800014d8: 44113423     	sd	ra, 0x448(sp)
800014dc: e8aa         	sd	a0, 0x50(sp)
800014de: 65c6         	ld	a1, 0x50(sp)
800014e0: 4505         	li	a0, 0x1
800014e2: 00b56963     	bltu	a0, a1, 0x800014f4 <.Lpcrel_hi32+0xc>
800014e6: a009         	j	0x800014e8 <.Lpcrel_hi32>

00000000800014e8 <.Lpcrel_hi32>:
800014e8: 00009517     	auipc	a0, 0x9
800014ec: b8050513     	addi	a0, a0, -0x480
800014f0: ed01         	bnez	a0, 0x80001508 <.Lpcrel_hi33+0x12>
800014f2: a099         	j	0x80001538 <.Lpcrel_hi35>
800014f4: 6546         	ld	a0, 0x50(sp)

00000000800014f6 <.Lpcrel_hi33>:
800014f6: 00006597     	auipc	a1, 0x6
800014fa: 73258613     	addi	a2, a1, 0x732
800014fe: 4589         	li	a1, 0x2
80001500: 00005097     	auipc	ra, 0x5
80001504: 2ba080e7     	jalr	0x2ba(ra) <core::panicking::panic_bounds_check::h6aaee0d15e0261eb>
80001508: 6546         	ld	a0, 0x50(sp)
8000150a: 00551593     	slli	a1, a0, 0x5
8000150e: 0526         	slli	a0, a0, 0x9
80001510: 95aa         	add	a1, a1, a0

0000000080001512 <.Lpcrel_hi34>:
80001512: 00009517     	auipc	a0, 0x9
80001516: b5650513     	addi	a0, a0, -0x4aa
8000151a: 952e         	add	a0, a0, a1
8000151c: 11850593     	addi	a1, a0, 0x118
80001520: 1488         	addi	a0, sp, 0x260
80001522: 10000613     	li	a2, 0x100
80001526: 00005097     	auipc	ra, 0x5
8000152a: 4ca080e7     	jalr	0x4ca(ra) <memcpy>
8000152e: 6546         	ld	a0, 0x50(sp)
80001530: 4589         	li	a1, 0x2
80001532: 00b56b63     	bltu	a0, a1, 0x80001548 <.Lpcrel_hi36>
80001536: a839         	j	0x80001554 <.Lpcrel_hi36+0xc>

0000000080001538 <.Lpcrel_hi35>:
80001538: 00006517     	auipc	a0, 0x6
8000153c: 6f050513     	addi	a0, a0, 0x6f0
80001540: 00005097     	auipc	ra, 0x5
80001544: 2e6080e7     	jalr	0x2e6(ra) <core::panicking::panic_null_pointer_dereference::hbac6411af4f2e916>

0000000080001548 <.Lpcrel_hi36>:
80001548: 00009517     	auipc	a0, 0x9
8000154c: b2050513     	addi	a0, a0, -0x4e0
80001550: ed01         	bnez	a0, 0x80001568 <.Lpcrel_hi37+0x12>
80001552: a0a5         	j	0x800015ba <.Lpcrel_hi39>
80001554: 6546         	ld	a0, 0x50(sp)

0000000080001556 <.Lpcrel_hi37>:
80001556: 00006597     	auipc	a1, 0x6
8000155a: 6ea58613     	addi	a2, a1, 0x6ea
8000155e: 4589         	li	a1, 0x2
80001560: 00005097     	auipc	ra, 0x5
80001564: 25a080e7     	jalr	0x25a(ra) <core::panicking::panic_bounds_check::h6aaee0d15e0261eb>
80001568: 6546         	ld	a0, 0x50(sp)
8000156a: 00551593     	slli	a1, a0, 0x5
8000156e: 0526         	slli	a0, a0, 0x9
80001570: 95aa         	add	a1, a1, a0

0000000080001572 <.Lpcrel_hi38>:
80001572: 00009517     	auipc	a0, 0x9
80001576: af650513     	addi	a0, a0, -0x50a
8000157a: 952e         	add	a0, a0, a1
8000157c: 21c54503     	lbu	a0, 0x21c(a0)
80001580: e4aa         	sd	a0, 0x48(sp)
80001582: 0aa8         	addi	a0, sp, 0x158
80001584: fc2a         	sd	a0, 0x38(sp)
80001586: 148c         	addi	a1, sp, 0x260
80001588: 10000613     	li	a2, 0x100
8000158c: e0b2         	sd	a2, 0x40(sp)
8000158e: 00005097     	auipc	ra, 0x5
80001592: 462080e7     	jalr	0x462(ra) <memcpy>
80001596: 75e2         	ld	a1, 0x38(sp)
80001598: 6606         	ld	a2, 0x40(sp)
8000159a: 6526         	ld	a0, 0x48(sp)
8000159c: 24a10c23     	sb	a0, 0x258(sp)
800015a0: 08a8         	addi	a0, sp, 0x58
800015a2: 00005097     	auipc	ra, 0x5
800015a6: 44e080e7     	jalr	0x44e(ra) <memcpy>
800015aa: 25814583     	lbu	a1, 0x258(sp)
800015ae: 0015f513     	andi	a0, a1, 0x1
800015b2: 42b10fa3     	sb	a1, 0x43f(sp)
800015b6: e505         	bnez	a0, 0x800015de <.Lpcrel_hi40+0x14>
800015b8: a809         	j	0x800015ca <.Lpcrel_hi40>

00000000800015ba <.Lpcrel_hi39>:
800015ba: 00006517     	auipc	a0, 0x6
800015be: 68650513     	addi	a0, a0, 0x686
800015c2: 00005097     	auipc	ra, 0x5
800015c6: 264080e7     	jalr	0x264(ra) <core::panicking::panic_null_pointer_dereference::hbac6411af4f2e916>

00000000800015ca <.Lpcrel_hi40>:
800015ca: 00006517     	auipc	a0, 0x6
800015ce: 68e50513     	addi	a0, a0, 0x68e
800015d2: 02500593     	li	a1, 0x25
800015d6: 00000097     	auipc	ra, 0x0
800015da: c2e080e7     	jalr	-0x3d2(ra) <lab7_kernel_task2::kernel_fail::ha5b301f22f28ddb4>
800015de: 65c6         	ld	a1, 0x50(sp)
800015e0: 4505         	li	a0, 0x1
800015e2: 00b56963     	bltu	a0, a1, 0x800015f4 <.Lpcrel_hi41+0xc>
800015e6: a009         	j	0x800015e8 <.Lpcrel_hi41>

00000000800015e8 <.Lpcrel_hi41>:
800015e8: 00009517     	auipc	a0, 0x9
800015ec: ec050513     	addi	a0, a0, -0x140
800015f0: ed01         	bnez	a0, 0x80001608 <.Lpcrel_hi42+0x12>
800015f2: a0a9         	j	0x8000163c <.Lpcrel_hi44>
800015f4: 6546         	ld	a0, 0x50(sp)

00000000800015f6 <.Lpcrel_hi42>:
800015f6: 00006597     	auipc	a1, 0x6
800015fa: 68a58613     	addi	a2, a1, 0x68a
800015fe: 4589         	li	a1, 0x2
80001600: 00005097     	auipc	ra, 0x5
80001604: 1ba080e7     	jalr	0x1ba(ra) <core::panicking::panic_bounds_check::h6aaee0d15e0261eb>
80001608: 6546         	ld	a0, 0x50(sp)
8000160a: 00851593     	slli	a1, a0, 0x8

000000008000160e <.Lpcrel_hi43>:
8000160e: 00009517     	auipc	a0, 0x9
80001612: e9a50513     	addi	a0, a0, -0x166
80001616: 952e         	add	a0, a0, a1
80001618: 796c         	ld	a1, 0xf0(a0)
8000161a: f42e         	sd	a1, 0x28(sp)
8000161c: 44b13023     	sd	a1, 0x440(sp)
80001620: 6546         	ld	a0, 0x50(sp)
80001622: 00001097     	auipc	ra, 0x1
80001626: d24080e7     	jalr	-0x2dc(ra) <lab7_kernel_task2::read_user_u64::haebbf8f29c2afb1c>
8000162a: 75a2         	ld	a1, 0x28(sp)
8000162c: 36a13023     	sd	a0, 0x360(sp)
80001630: 00858513     	addi	a0, a1, 0x8
80001634: f82a         	sd	a0, 0x30(sp)
80001636: 02b56863     	bltu	a0, a1, 0x80001666 <.Lpcrel_hi45>
8000163a: a809         	j	0x8000164c <.Lpcrel_hi44+0x10>

000000008000163c <.Lpcrel_hi44>:
8000163c: 00006517     	auipc	a0, 0x6
80001640: 64450513     	addi	a0, a0, 0x644
80001644: 00005097     	auipc	ra, 0x5
80001648: 1e2080e7     	jalr	0x1e2(ra) <core::panicking::panic_null_pointer_dereference::hbac6411af4f2e916>
8000164c: 75c2         	ld	a1, 0x30(sp)
8000164e: 6546         	ld	a0, 0x50(sp)
80001650: 00001097     	auipc	ra, 0x1
80001654: cf6080e7     	jalr	-0x30a(ra) <lab7_kernel_task2::read_user_u64::haebbf8f29c2afb1c>
80001658: 36a13423     	sd	a0, 0x368(sp)
8000165c: 6546         	ld	a0, 0x50(sp)
8000165e: 4589         	li	a1, 0x2
80001660: 00b56b63     	bltu	a0, a1, 0x80001676 <.Lpcrel_hi46>
80001664: a839         	j	0x80001682 <.Lpcrel_hi46+0xc>

0000000080001666 <.Lpcrel_hi45>:
80001666: 00006517     	auipc	a0, 0x6
8000166a: 63250513     	addi	a0, a0, 0x632
8000166e: 00005097     	auipc	ra, 0x5
80001672: 0b6080e7     	jalr	0xb6(ra) <core::panicking::panic_const::panic_const_add_overflow::h67cba067093910f8>

0000000080001676 <.Lpcrel_hi46>:
80001676: 00009517     	auipc	a0, 0x9
8000167a: 9f250513     	addi	a0, a0, -0x60e
8000167e: ed01         	bnez	a0, 0x80001696 <.Lpcrel_hi47+0x12>
80001680: a82d         	j	0x800016ba <.Lpcrel_hi49>
80001682: 6546         	ld	a0, 0x50(sp)

0000000080001684 <.Lpcrel_hi47>:
80001684: 00006597     	auipc	a1, 0x6
80001688: 62c58613     	addi	a2, a1, 0x62c
8000168c: 4589         	li	a1, 0x2
8000168e: 00005097     	auipc	ra, 0x5
80001692: 12c080e7     	jalr	0x12c(ra) <core::panicking::panic_bounds_check::h6aaee0d15e0261eb>
80001696: 6546         	ld	a0, 0x50(sp)
80001698: 00551593     	slli	a1, a0, 0x5
8000169c: 0526         	slli	a0, a0, 0x9
8000169e: 95aa         	add	a1, a1, a0

00000000800016a0 <.Lpcrel_hi48>:
800016a0: 00009517     	auipc	a0, 0x9
800016a4: 9c850513     	addi	a0, a0, -0x638
800016a8: 95aa         	add	a1, a1, a0
800016aa: 4501         	li	a0, 0x0
800016ac: 20a58e23     	sb	a0, 0x21c(a1)
800016b0: 6546         	ld	a0, 0x50(sp)
800016b2: 4589         	li	a1, 0x2
800016b4: 00b56b63     	bltu	a0, a1, 0x800016ca <.Lpcrel_hi50>
800016b8: a839         	j	0x800016d6 <.Lpcrel_hi50+0xc>

00000000800016ba <.Lpcrel_hi49>:
800016ba: 00006517     	auipc	a0, 0x6
800016be: 5f650513     	addi	a0, a0, 0x5f6
800016c2: 00005097     	auipc	ra, 0x5
800016c6: 164080e7     	jalr	0x164(ra) <core::panicking::panic_null_pointer_dereference::hbac6411af4f2e916>

00000000800016ca <.Lpcrel_hi50>:
800016ca: 00009517     	auipc	a0, 0x9
800016ce: dde50513     	addi	a0, a0, -0x222
800016d2: ed01         	bnez	a0, 0x800016ea <.Lpcrel_hi51+0x12>
800016d4: a081         	j	0x80001714 <.Lpcrel_hi54>
800016d6: 6546         	ld	a0, 0x50(sp)

00000000800016d8 <.Lpcrel_hi51>:
800016d8: 00006597     	auipc	a1, 0x6
800016dc: 5f058613     	addi	a2, a1, 0x5f0
800016e0: 4589         	li	a1, 0x2
800016e2: 00005097     	auipc	ra, 0x5
800016e6: 0d8080e7     	jalr	0xd8(ra) <core::panicking::panic_bounds_check::h6aaee0d15e0261eb>
800016ea: 6546         	ld	a0, 0x50(sp)
800016ec: 00851593     	slli	a1, a0, 0x8

00000000800016f0 <.Lpcrel_hi52>:
800016f0: 00009517     	auipc	a0, 0x9
800016f4: db850513     	addi	a0, a0, -0x248
800016f8: 952e         	add	a0, a0, a1
800016fa: 08ac         	addi	a1, sp, 0x58
800016fc: 10000613     	li	a2, 0x100
80001700: 00005097     	auipc	ra, 0x5
80001704: 2f0080e7     	jalr	0x2f0(ra) <memcpy>

0000000080001708 <.Lpcrel_hi53>:
80001708: 00009517     	auipc	a0, 0x9
8000170c: 90050513     	addi	a0, a0, -0x700
80001710: e911         	bnez	a0, 0x80001724 <.Lpcrel_hi55>
80001712: a025         	j	0x8000173a <.Lpcrel_hi56>

0000000080001714 <.Lpcrel_hi54>:
80001714: 00006517     	auipc	a0, 0x6
80001718: 5b450513     	addi	a0, a0, 0x5b4
8000171c: 00005097     	auipc	ra, 0x5
80001720: 10a080e7     	jalr	0x10a(ra) <core::panicking::panic_null_pointer_dereference::hbac6411af4f2e916>

0000000080001724 <.Lpcrel_hi55>:
80001724: 00009517     	auipc	a0, 0x9
80001728: 8e450513     	addi	a0, a0, -0x71c
8000172c: 6d0c         	ld	a1, 0x18(a0)
8000172e: 00158513     	addi	a0, a1, 0x1
80001732: f02a         	sd	a0, 0x20(sp)
80001734: 02b56163     	bltu	a0, a1, 0x80001756 <.Lpcrel_hi58>
80001738: a809         	j	0x8000174a <.Lpcrel_hi57>

000000008000173a <.Lpcrel_hi56>:
8000173a: 00006517     	auipc	a0, 0x6
8000173e: 5a650513     	addi	a0, a0, 0x5a6
80001742: 00005097     	auipc	ra, 0x5
80001746: 0e4080e7     	jalr	0xe4(ra) <core::panicking::panic_null_pointer_dereference::hbac6411af4f2e916>

000000008000174a <.Lpcrel_hi57>:
8000174a: 00009517     	auipc	a0, 0x9
8000174e: 8be50513     	addi	a0, a0, -0x742
80001752: e911         	bnez	a0, 0x80001766 <.Lpcrel_hi58+0x10>
80001754: a00d         	j	0x80001776 <.Lpcrel_hi60>

0000000080001756 <.Lpcrel_hi58>:
80001756: 00006517     	auipc	a0, 0x6
8000175a: 58a50513     	addi	a0, a0, 0x58a
8000175e: 00005097     	auipc	ra, 0x5
80001762: fc6080e7     	jalr	-0x3a(ra) <core::panicking::panic_const::panic_const_add_overflow::h67cba067093910f8>
80001766: 7582         	ld	a1, 0x20(sp)

0000000080001768 <.Lpcrel_hi59>:
80001768: 00009517     	auipc	a0, 0x9
8000176c: 8a050513     	addi	a0, a0, -0x760
80001770: ed0c         	sd	a1, 0x18(a0)
80001772: e911         	bnez	a0, 0x80001786 <.Lpcrel_hi60+0x10>
80001774: a015         	j	0x80001798 <.Lpcrel_hi62>

0000000080001776 <.Lpcrel_hi60>:
80001776: 00006517     	auipc	a0, 0x6
8000177a: 56a50513     	addi	a0, a0, 0x56a
8000177e: 00005097     	auipc	ra, 0x5
80001782: 0a8080e7     	jalr	0xa8(ra) <core::panicking::panic_null_pointer_dereference::hbac6411af4f2e916>
80001786: 36013583     	ld	a1, 0x360(sp)

000000008000178a <.Lpcrel_hi61>:
8000178a: 00009517     	auipc	a0, 0x9
8000178e: 87e50513     	addi	a0, a0, -0x782
80001792: e12c         	sd	a1, 0x40(a0)
80001794: e911         	bnez	a0, 0x800017a8 <.Lpcrel_hi62+0x10>
80001796: a025         	j	0x800017be <.Lpcrel_hi64>

0000000080001798 <.Lpcrel_hi62>:
80001798: 00006517     	auipc	a0, 0x6
8000179c: 56050513     	addi	a0, a0, 0x560
800017a0: 00005097     	auipc	ra, 0x5
800017a4: 086080e7     	jalr	0x86(ra) <core::panicking::panic_null_pointer_dereference::hbac6411af4f2e916>
800017a8: 36813583     	ld	a1, 0x368(sp)

00000000800017ac <.Lpcrel_hi63>:
800017ac: 00009517     	auipc	a0, 0x9
800017b0: 85c50513     	addi	a0, a0, -0x7a4
800017b4: e52c         	sd	a1, 0x48(a0)
800017b6: 65d6         	ld	a1, 0x150(sp)
800017b8: ec2e         	sd	a1, 0x18(sp)
800017ba: e911         	bnez	a0, 0x800017ce <.Lpcrel_hi64+0x10>
800017bc: a01d         	j	0x800017e2 <.Lpcrel_hi66>

00000000800017be <.Lpcrel_hi64>:
800017be: 00006517     	auipc	a0, 0x6
800017c2: 55250513     	addi	a0, a0, 0x552
800017c6: 00005097     	auipc	ra, 0x5
800017ca: 060080e7     	jalr	0x60(ra) <core::panicking::panic_null_pointer_dereference::hbac6411af4f2e916>
800017ce: 65e2         	ld	a1, 0x18(sp)

00000000800017d0 <.Lpcrel_hi65>:
800017d0: 00009517     	auipc	a0, 0x9
800017d4: 83850513     	addi	a0, a0, -0x7c8
800017d8: e92c         	sd	a1, 0x50(a0)
800017da: 65b6         	ld	a1, 0x148(sp)
800017dc: e82e         	sd	a1, 0x10(sp)
800017de: e911         	bnez	a0, 0x800017f2 <.Lpcrel_hi66+0x10>
800017e0: a201         	j	0x800018e0 <.Lpcrel_hi69>

00000000800017e2 <.Lpcrel_hi66>:
800017e2: 00006517     	auipc	a0, 0x6
800017e6: 54650513     	addi	a0, a0, 0x546
800017ea: 00005097     	auipc	ra, 0x5
800017ee: 03c080e7     	jalr	0x3c(ra) <core::panicking::panic_null_pointer_dereference::hbac6411af4f2e916>
800017f2: 6542         	ld	a0, 0x10(sp)

00000000800017f4 <.Lpcrel_hi67>:
800017f4: 00009597     	auipc	a1, 0x9
800017f8: 81458593     	addi	a1, a1, -0x7ec
800017fc: eda8         	sd	a0, 0x58(a1)
800017fe: 0a8c         	addi	a1, sp, 0x150
80001800: 02a8         	addi	a0, sp, 0x148
80001802: 0890         	addi	a2, sp, 0x50
80001804: 36c13823     	sd	a2, 0x370(sp)
80001808: 1690         	addi	a2, sp, 0x360
8000180a: 36c13c23     	sd	a2, 0x378(sp)
8000180e: 16b0         	addi	a2, sp, 0x368
80001810: 38c13023     	sd	a2, 0x380(sp)
80001814: 38b13423     	sd	a1, 0x388(sp)
80001818: 38a13823     	sd	a0, 0x390(sp)
8000181c: 37013583     	ld	a1, 0x370(sp)
80001820: 17a8         	addi	a0, sp, 0x3e8
80001822: fffff097     	auipc	ra, 0xfffff
80001826: 234080e7     	jalr	0x234(ra) <core::fmt::rt::Argument::new_display::h0f8d4721c9a89fbb>
8000182a: 37813583     	ld	a1, 0x378(sp)
8000182e: 1fa8         	addi	a0, sp, 0x3f8
80001830: fffff097     	auipc	ra, 0xfffff
80001834: 2f2080e7     	jalr	0x2f2(ra) <core::fmt::rt::Argument::new_lower_hex::hc9324aa1f0e7ff53>
80001838: 38013583     	ld	a1, 0x380(sp)
8000183c: 40810513     	addi	a0, sp, 0x408
80001840: fffff097     	auipc	ra, 0xfffff
80001844: 2e2080e7     	jalr	0x2e2(ra) <core::fmt::rt::Argument::new_lower_hex::hc9324aa1f0e7ff53>
80001848: 38813583     	ld	a1, 0x388(sp)
8000184c: 41810513     	addi	a0, sp, 0x418
80001850: fffff097     	auipc	ra, 0xfffff
80001854: 2d2080e7     	jalr	0x2d2(ra) <core::fmt::rt::Argument::new_lower_hex::hc9324aa1f0e7ff53>
80001858: 39013583     	ld	a1, 0x390(sp)
8000185c: 42810513     	addi	a0, sp, 0x428
80001860: fffff097     	auipc	ra, 0xfffff
80001864: 2c2080e7     	jalr	0x2c2(ra) <core::fmt::rt::Argument::new_lower_hex::hc9324aa1f0e7ff53>
80001868: 3f013503     	ld	a0, 0x3f0(sp)
8000186c: 3aa13023     	sd	a0, 0x3a0(sp)
80001870: 3e813503     	ld	a0, 0x3e8(sp)
80001874: 38a13c23     	sd	a0, 0x398(sp)
80001878: 40013503     	ld	a0, 0x400(sp)
8000187c: 3aa13823     	sd	a0, 0x3b0(sp)
80001880: 3f813503     	ld	a0, 0x3f8(sp)
80001884: 3aa13423     	sd	a0, 0x3a8(sp)
80001888: 41013503     	ld	a0, 0x410(sp)
8000188c: 3ca13023     	sd	a0, 0x3c0(sp)
80001890: 40813503     	ld	a0, 0x408(sp)
80001894: 3aa13c23     	sd	a0, 0x3b8(sp)
80001898: 42013503     	ld	a0, 0x420(sp)
8000189c: 3ca13823     	sd	a0, 0x3d0(sp)
800018a0: 41813503     	ld	a0, 0x418(sp)
800018a4: 3ca13423     	sd	a0, 0x3c8(sp)
800018a8: 43013503     	ld	a0, 0x430(sp)
800018ac: 3ea13023     	sd	a0, 0x3e0(sp)
800018b0: 42813503     	ld	a0, 0x428(sp)
800018b4: 3ca13c23     	sd	a0, 0x3d8(sp)

00000000800018b8 <.Lpcrel_hi68>:
800018b8: 00006517     	auipc	a0, 0x6
800018bc: 4a050513     	addi	a0, a0, 0x4a0
800018c0: 0f2c         	addi	a1, sp, 0x398
800018c2: fffff097     	auipc	ra, 0xfffff
800018c6: 986080e7     	jalr	-0x67a(ra) <core::fmt::Arguments::new::h163cdcf3ee211606>
800018ca: 00004097     	auipc	ra, 0x4
800018ce: f5a080e7     	jalr	-0xa6(ra) <lab7_kernel_task2::console::print::h0d70eb8228e543e8>
800018d2: 65c6         	ld	a1, 0x50(sp)
800018d4: 4505         	li	a0, 0x1
800018d6: 44813083     	ld	ra, 0x448(sp)
800018da: 45010113     	addi	sp, sp, 0x450
800018de: 8082         	ret

00000000800018e0 <.Lpcrel_hi69>:
800018e0: 00006517     	auipc	a0, 0x6
800018e4: 46050513     	addi	a0, a0, 0x460
800018e8: 00005097     	auipc	ra, 0x5
800018ec: f3e080e7     	jalr	-0xc2(ra) <core::panicking::panic_null_pointer_dereference::hbac6411af4f2e916>

00000000800018f0 <lab7_kernel_task2::pte_is_valid::ha2a27e3f4eb5b224>:
800018f0: 1141         	addi	sp, sp, -0x10
800018f2: e42a         	sd	a0, 0x8(sp)
800018f4: 8905         	andi	a0, a0, 0x1
800018f6: 0141         	addi	sp, sp, 0x10
800018f8: 8082         	ret

00000000800018fa <lab7_kernel_task2::ProcessReport::empty::h7baff828cfcc474c>:
800018fa: 85aa         	mv	a1, a0
800018fc: 4501         	li	a0, 0x0
800018fe: e188         	sd	a0, 0x0(a1)
80001900: e588         	sd	a0, 0x8(a1)
80001902: e988         	sd	a0, 0x10(a1)
80001904: ed88         	sd	a0, 0x18(a1)
80001906: f188         	sd	a0, 0x20(a1)
80001908: f588         	sd	a0, 0x28(a1)
8000190a: f988         	sd	a0, 0x30(a1)
8000190c: fd88         	sd	a0, 0x38(a1)
8000190e: 8082         	ret

0000000080001910 <lab7_kernel_task2::build_process::ha1b805dc0fb2f342>:
80001910: d6010113     	addi	sp, sp, -0x2a0
80001914: 28113c23     	sd	ra, 0x298(sp)
80001918: e12a         	sd	a0, 0x80(sp)
8000191a: 28a13823     	sd	a0, 0x290(sp)
8000191e: 00002097     	auipc	ra, 0x2
80001922: dac080e7     	jalr	-0x254(ra) <lab7_kernel_task2::proc_root_table_ptr::h662e444229cf5c73>
80001926: 00001097     	auipc	ra, 0x1
8000192a: c7a080e7     	jalr	-0x386(ra) <lab7_kernel_task2::clear_page_table::h0d9394942758d3cd>
8000192e: 650a         	ld	a0, 0x80(sp)
80001930: 00002097     	auipc	ra, 0x2
80001934: 754080e7     	jalr	0x754(ra) <lab7_kernel_task2::proc_low_l1_table_ptr::h7c337058525c6481>
80001938: 00001097     	auipc	ra, 0x1
8000193c: c68080e7     	jalr	-0x398(ra) <lab7_kernel_task2::clear_page_table::h0d9394942758d3cd>
80001940: 650a         	ld	a0, 0x80(sp)
80001942: 00003097     	auipc	ra, 0x3
80001946: 858080e7     	jalr	-0x7a8(ra) <lab7_kernel_task2::proc_user_l0_table_ptr::h2541549e3a564294>
8000194a: 00001097     	auipc	ra, 0x1
8000194e: c56080e7     	jalr	-0x3aa(ra) <lab7_kernel_task2::clear_page_table::h0d9394942758d3cd>
80001952: 00002097     	auipc	ra, 0x2
80001956: cac080e7     	jalr	-0x354(ra) <lab7_kernel_task2::kernel_l1_table_pa::h8f8fb72205054f48>
8000195a: 00003097     	auipc	ra, 0x3
8000195e: 5f4080e7     	jalr	0x5f4(ra) <lab7_kernel_task2::table_pte::h2c163efccb4ea9a0>
80001962: 658a         	ld	a1, 0x80(sp)
80001964: e52a         	sd	a0, 0x88(sp)
80001966: 4505         	li	a0, 0x1
80001968: 02b56063     	bltu	a0, a1, 0x80001988 <lab7_kernel_task2::build_process::ha1b805dc0fb2f342+0x78>
8000196c: a009         	j	0x8000196e <lab7_kernel_task2::build_process::ha1b805dc0fb2f342+0x5e>
8000196e: 4505         	li	a0, 0x1
80001970: 057e         	slli	a0, a0, 0x1f
80001972: 00000097     	auipc	ra, 0x0
80001976: 868080e7     	jalr	-0x798(ra) <lab7_kernel_task2::vpn2_index::hd6e66058e76b40e5>
8000197a: 85aa         	mv	a1, a0
8000197c: fcae         	sd	a1, 0x78(sp)
8000197e: 20000593     	li	a1, 0x200
80001982: 00b56d63     	bltu	a0, a1, 0x8000199c <.Lpcrel_hi71>
80001986: a015         	j	0x800019aa <.Lpcrel_hi71+0xe>
80001988: 650a         	ld	a0, 0x80(sp)

000000008000198a <.Lpcrel_hi70>:
8000198a: 00006597     	auipc	a1, 0x6
8000198e: 43658613     	addi	a2, a1, 0x436
80001992: 4589         	li	a1, 0x2
80001994: 00005097     	auipc	ra, 0x5
80001998: e26080e7     	jalr	-0x1da(ra) <core::panicking::panic_bounds_check::h6aaee0d15e0261eb>

000000008000199c <.Lpcrel_hi71>:
8000199c: 0000d517     	auipc	a0, 0xd
800019a0: 66450513     	addi	a0, a0, 0x664
800019a4: 1552         	slli	a0, a0, 0x34
800019a6: cd09         	beqz	a0, 0x800019c0 <.Lpcrel_hi73>
800019a8: a015         	j	0x800019cc <.Lpcrel_hi74>
800019aa: 7566         	ld	a0, 0x78(sp)

00000000800019ac <.Lpcrel_hi72>:
800019ac: 00006597     	auipc	a1, 0x6
800019b0: 41458613     	addi	a2, a1, 0x414
800019b4: 20000593     	li	a1, 0x200
800019b8: 00005097     	auipc	ra, 0x5
800019bc: e02080e7     	jalr	-0x1fe(ra) <core::panicking::panic_bounds_check::h6aaee0d15e0261eb>

00000000800019c0 <.Lpcrel_hi73>:
800019c0: 0000d517     	auipc	a0, 0xd
800019c4: 64050513     	addi	a0, a0, 0x640
800019c8: ed19         	bnez	a0, 0x800019e6 <.Lpcrel_hi75+0x12>
800019ca: a891         	j	0x80001a1e <.Lpcrel_hi77>

00000000800019cc <.Lpcrel_hi74>:
800019cc: 0000d517     	auipc	a0, 0xd
800019d0: 63450593     	addi	a1, a0, 0x634

00000000800019d4 <.Lpcrel_hi75>:
800019d4: 00006517     	auipc	a0, 0x6
800019d8: 3ec50613     	addi	a2, a0, 0x3ec
800019dc: 6505         	lui	a0, 0x1
800019de: 00005097     	auipc	ra, 0x5
800019e2: e68080e7     	jalr	-0x198(ra) <core::panicking::panic_misaligned_pointer_dereference::hda85f7fb51d959f0>
800019e6: 650a         	ld	a0, 0x80(sp)
800019e8: 65aa         	ld	a1, 0x88(sp)
800019ea: 76e6         	ld	a3, 0x78(sp)
800019ec: 00c51713     	slli	a4, a0, 0xc

00000000800019f0 <.Lpcrel_hi76>:
800019f0: 0000d617     	auipc	a2, 0xd
800019f4: 61060613     	addi	a2, a2, 0x610
800019f8: 963a         	add	a2, a2, a4
800019fa: 068e         	slli	a3, a3, 0x3
800019fc: 9636         	add	a2, a2, a3
800019fe: e20c         	sd	a1, 0x0(a2)
80001a00: 00002097     	auipc	ra, 0x2
80001a04: d3a080e7     	jalr	-0x2c6(ra) <lab7_kernel_task2::proc_low_l1_table_pa::h05077629a8ea0eba>
80001a08: 00003097     	auipc	ra, 0x3
80001a0c: 546080e7     	jalr	0x546(ra) <lab7_kernel_task2::table_pte::h2c163efccb4ea9a0>
80001a10: 85aa         	mv	a1, a0
80001a12: 650a         	ld	a0, 0x80(sp)
80001a14: f8ae         	sd	a1, 0x70(sp)
80001a16: 4589         	li	a1, 0x2
80001a18: 00b56b63     	bltu	a0, a1, 0x80001a2e <.Lpcrel_hi77+0x10>
80001a1c: a035         	j	0x80001a48 <.Lpcrel_hi77+0x2a>

0000000080001a1e <.Lpcrel_hi77>:
80001a1e: 00006517     	auipc	a0, 0x6
80001a22: 3a250513     	addi	a0, a0, 0x3a2
80001a26: 00005097     	auipc	ra, 0x5
80001a2a: e00080e7     	jalr	-0x200(ra) <core::panicking::panic_null_pointer_dereference::hbac6411af4f2e916>
80001a2e: 00400537     	lui	a0, 0x400
80001a32: fffff097     	auipc	ra, 0xfffff
80001a36: 7a8080e7     	jalr	0x7a8(ra) <lab7_kernel_task2::vpn2_index::hd6e66058e76b40e5>
80001a3a: 85aa         	mv	a1, a0
80001a3c: f4ae         	sd	a1, 0x68(sp)
80001a3e: 20000593     	li	a1, 0x200
80001a42: 00b56d63     	bltu	a0, a1, 0x80001a5c <.Lpcrel_hi79>
80001a46: a015         	j	0x80001a6a <.Lpcrel_hi79+0xe>
80001a48: 650a         	ld	a0, 0x80(sp)

0000000080001a4a <.Lpcrel_hi78>:
80001a4a: 00006597     	auipc	a1, 0x6
80001a4e: 38e58613     	addi	a2, a1, 0x38e
80001a52: 4589         	li	a1, 0x2
80001a54: 00005097     	auipc	ra, 0x5
80001a58: d66080e7     	jalr	-0x29a(ra) <core::panicking::panic_bounds_check::h6aaee0d15e0261eb>

0000000080001a5c <.Lpcrel_hi79>:
80001a5c: 0000d517     	auipc	a0, 0xd
80001a60: 5a450513     	addi	a0, a0, 0x5a4
80001a64: 1552         	slli	a0, a0, 0x34
80001a66: cd09         	beqz	a0, 0x80001a80 <.Lpcrel_hi81>
80001a68: a015         	j	0x80001a8c <.Lpcrel_hi82>
80001a6a: 7526         	ld	a0, 0x68(sp)

0000000080001a6c <.Lpcrel_hi80>:
80001a6c: 00006597     	auipc	a1, 0x6
80001a70: 36c58613     	addi	a2, a1, 0x36c
80001a74: 20000593     	li	a1, 0x200
80001a78: 00005097     	auipc	ra, 0x5
80001a7c: d42080e7     	jalr	-0x2be(ra) <core::panicking::panic_bounds_check::h6aaee0d15e0261eb>

0000000080001a80 <.Lpcrel_hi81>:
80001a80: 0000d517     	auipc	a0, 0xd
80001a84: 58050513     	addi	a0, a0, 0x580
80001a88: ed19         	bnez	a0, 0x80001aa6 <.Lpcrel_hi83+0x12>
80001a8a: a891         	j	0x80001ade <.Lpcrel_hi85>

0000000080001a8c <.Lpcrel_hi82>:
80001a8c: 0000d517     	auipc	a0, 0xd
80001a90: 57450593     	addi	a1, a0, 0x574

0000000080001a94 <.Lpcrel_hi83>:
80001a94: 00006517     	auipc	a0, 0x6
80001a98: 34450613     	addi	a2, a0, 0x344
80001a9c: 6505         	lui	a0, 0x1
80001a9e: 00005097     	auipc	ra, 0x5
80001aa2: da8080e7     	jalr	-0x258(ra) <core::panicking::panic_misaligned_pointer_dereference::hda85f7fb51d959f0>
80001aa6: 658a         	ld	a1, 0x80(sp)
80001aa8: 7546         	ld	a0, 0x70(sp)
80001aaa: 7626         	ld	a2, 0x68(sp)
80001aac: 00c59693     	slli	a3, a1, 0xc

0000000080001ab0 <.Lpcrel_hi84>:
80001ab0: 0000d597     	auipc	a1, 0xd
80001ab4: 55058593     	addi	a1, a1, 0x550
80001ab8: 95b6         	add	a1, a1, a3
80001aba: 060e         	slli	a2, a2, 0x3
80001abc: 95b2         	add	a1, a1, a2
80001abe: e188         	sd	a0, 0x0(a1)
80001ac0: 00001097     	auipc	ra, 0x1
80001ac4: a72080e7     	jalr	-0x58e(ra) <lab7_kernel_task2::dev_l0_table_pa::h6a1620ba400b1a1d>
80001ac8: 00003097     	auipc	ra, 0x3
80001acc: 486080e7     	jalr	0x486(ra) <lab7_kernel_task2::table_pte::h2c163efccb4ea9a0>
80001ad0: 85aa         	mv	a1, a0
80001ad2: 650a         	ld	a0, 0x80(sp)
80001ad4: f0ae         	sd	a1, 0x60(sp)
80001ad6: 4589         	li	a1, 0x2
80001ad8: 00b56b63     	bltu	a0, a1, 0x80001aee <.Lpcrel_hi85+0x10>
80001adc: a035         	j	0x80001b08 <.Lpcrel_hi85+0x2a>

0000000080001ade <.Lpcrel_hi85>:
80001ade: 00006517     	auipc	a0, 0x6
80001ae2: 2fa50513     	addi	a0, a0, 0x2fa
80001ae6: 00005097     	auipc	ra, 0x5
80001aea: d40080e7     	jalr	-0x2c0(ra) <core::panicking::panic_null_pointer_dereference::hbac6411af4f2e916>
80001aee: 00100537     	lui	a0, 0x100
80001af2: fffff097     	auipc	ra, 0xfffff
80001af6: 6dc080e7     	jalr	0x6dc(ra) <lab7_kernel_task2::vpn1_index::h7c720f11da45cc44>
80001afa: 85aa         	mv	a1, a0
80001afc: ecae         	sd	a1, 0x58(sp)
80001afe: 20000593     	li	a1, 0x200
80001b02: 00b56d63     	bltu	a0, a1, 0x80001b1c <.Lpcrel_hi87>
80001b06: a015         	j	0x80001b2a <.Lpcrel_hi87+0xe>
80001b08: 650a         	ld	a0, 0x80(sp)

0000000080001b0a <.Lpcrel_hi86>:
80001b0a: 00006597     	auipc	a1, 0x6
80001b0e: 2e658613     	addi	a2, a1, 0x2e6
80001b12: 4589         	li	a1, 0x2
80001b14: 00005097     	auipc	ra, 0x5
80001b18: ca6080e7     	jalr	-0x35a(ra) <core::panicking::panic_bounds_check::h6aaee0d15e0261eb>

0000000080001b1c <.Lpcrel_hi87>:
80001b1c: 00012517     	auipc	a0, 0x12
80001b20: 4e450513     	addi	a0, a0, 0x4e4
80001b24: 1552         	slli	a0, a0, 0x34
80001b26: cd09         	beqz	a0, 0x80001b40 <.Lpcrel_hi89>
80001b28: a015         	j	0x80001b4c <.Lpcrel_hi90>
80001b2a: 6566         	ld	a0, 0x58(sp)

0000000080001b2c <.Lpcrel_hi88>:
80001b2c: 00006597     	auipc	a1, 0x6
80001b30: 2c458613     	addi	a2, a1, 0x2c4
80001b34: 20000593     	li	a1, 0x200
80001b38: 00005097     	auipc	ra, 0x5
80001b3c: c82080e7     	jalr	-0x37e(ra) <core::panicking::panic_bounds_check::h6aaee0d15e0261eb>

0000000080001b40 <.Lpcrel_hi89>:
80001b40: 00012517     	auipc	a0, 0x12
80001b44: 4c050513     	addi	a0, a0, 0x4c0
80001b48: ed19         	bnez	a0, 0x80001b66 <.Lpcrel_hi91+0x12>
80001b4a: a891         	j	0x80001b9e <.Lpcrel_hi93>

0000000080001b4c <.Lpcrel_hi90>:
80001b4c: 00012517     	auipc	a0, 0x12
80001b50: 4b450593     	addi	a1, a0, 0x4b4

0000000080001b54 <.Lpcrel_hi91>:
80001b54: 00006517     	auipc	a0, 0x6
80001b58: 29c50613     	addi	a2, a0, 0x29c
80001b5c: 6505         	lui	a0, 0x1
80001b5e: 00005097     	auipc	ra, 0x5
80001b62: ce8080e7     	jalr	-0x318(ra) <core::panicking::panic_misaligned_pointer_dereference::hda85f7fb51d959f0>
80001b66: 658a         	ld	a1, 0x80(sp)
80001b68: 7506         	ld	a0, 0x60(sp)
80001b6a: 6666         	ld	a2, 0x58(sp)
80001b6c: 00c59693     	slli	a3, a1, 0xc

0000000080001b70 <.Lpcrel_hi92>:
80001b70: 00012597     	auipc	a1, 0x12
80001b74: 49058593     	addi	a1, a1, 0x490
80001b78: 95b6         	add	a1, a1, a3
80001b7a: 060e         	slli	a2, a2, 0x3
80001b7c: 95b2         	add	a1, a1, a2
80001b7e: e188         	sd	a0, 0x0(a1)
80001b80: 10000537     	lui	a0, 0x10000
80001b84: 0c600593     	li	a1, 0xc6
80001b88: 00003097     	auipc	ra, 0x3
80001b8c: 286080e7     	jalr	0x286(ra) <lab7_kernel_task2::leaf_pte::hdaf777f2912aa95a>
80001b90: 85aa         	mv	a1, a0
80001b92: 650a         	ld	a0, 0x80(sp)
80001b94: e8ae         	sd	a1, 0x50(sp)
80001b96: 4589         	li	a1, 0x2
80001b98: 00b56b63     	bltu	a0, a1, 0x80001bae <.Lpcrel_hi93+0x10>
80001b9c: a035         	j	0x80001bc8 <.Lpcrel_hi93+0x2a>

0000000080001b9e <.Lpcrel_hi93>:
80001b9e: 00006517     	auipc	a0, 0x6
80001ba2: 25250513     	addi	a0, a0, 0x252
80001ba6: 00005097     	auipc	ra, 0x5
80001baa: c80080e7     	jalr	-0x380(ra) <core::panicking::panic_null_pointer_dereference::hbac6411af4f2e916>
80001bae: 10000537     	lui	a0, 0x10000
80001bb2: fffff097     	auipc	ra, 0xfffff
80001bb6: 61c080e7     	jalr	0x61c(ra) <lab7_kernel_task2::vpn1_index::h7c720f11da45cc44>
80001bba: 85aa         	mv	a1, a0
80001bbc: e4ae         	sd	a1, 0x48(sp)
80001bbe: 20000593     	li	a1, 0x200
80001bc2: 00b56d63     	bltu	a0, a1, 0x80001bdc <.Lpcrel_hi95>
80001bc6: a015         	j	0x80001bea <.Lpcrel_hi95+0xe>
80001bc8: 650a         	ld	a0, 0x80(sp)

0000000080001bca <.Lpcrel_hi94>:
80001bca: 00006597     	auipc	a1, 0x6
80001bce: 23e58613     	addi	a2, a1, 0x23e
80001bd2: 4589         	li	a1, 0x2
80001bd4: 00005097     	auipc	ra, 0x5
80001bd8: be6080e7     	jalr	-0x41a(ra) <core::panicking::panic_bounds_check::h6aaee0d15e0261eb>

0000000080001bdc <.Lpcrel_hi95>:
80001bdc: 00012517     	auipc	a0, 0x12
80001be0: 42450513     	addi	a0, a0, 0x424
80001be4: 1552         	slli	a0, a0, 0x34
80001be6: cd09         	beqz	a0, 0x80001c00 <.Lpcrel_hi97>
80001be8: a015         	j	0x80001c0c <.Lpcrel_hi98>
80001bea: 6526         	ld	a0, 0x48(sp)

0000000080001bec <.Lpcrel_hi96>:
80001bec: 00006597     	auipc	a1, 0x6
80001bf0: 21c58613     	addi	a2, a1, 0x21c
80001bf4: 20000593     	li	a1, 0x200
80001bf8: 00005097     	auipc	ra, 0x5
80001bfc: bc2080e7     	jalr	-0x43e(ra) <core::panicking::panic_bounds_check::h6aaee0d15e0261eb>

0000000080001c00 <.Lpcrel_hi97>:
80001c00: 00012517     	auipc	a0, 0x12
80001c04: 40050513     	addi	a0, a0, 0x400
80001c08: ed19         	bnez	a0, 0x80001c26 <.Lpcrel_hi99+0x12>
80001c0a: a891         	j	0x80001c5e <.Lpcrel_hi101>

0000000080001c0c <.Lpcrel_hi98>:
80001c0c: 00012517     	auipc	a0, 0x12
80001c10: 3f450593     	addi	a1, a0, 0x3f4

0000000080001c14 <.Lpcrel_hi99>:
80001c14: 00006517     	auipc	a0, 0x6
80001c18: 1f450613     	addi	a2, a0, 0x1f4
80001c1c: 6505         	lui	a0, 0x1
80001c1e: 00005097     	auipc	ra, 0x5
80001c22: c28080e7     	jalr	-0x3d8(ra) <core::panicking::panic_misaligned_pointer_dereference::hda85f7fb51d959f0>
80001c26: 650a         	ld	a0, 0x80(sp)
80001c28: 65c6         	ld	a1, 0x50(sp)
80001c2a: 66a6         	ld	a3, 0x48(sp)
80001c2c: 00c51713     	slli	a4, a0, 0xc

0000000080001c30 <.Lpcrel_hi100>:
80001c30: 00012617     	auipc	a2, 0x12
80001c34: 3d060613     	addi	a2, a2, 0x3d0
80001c38: 963a         	add	a2, a2, a4
80001c3a: 068e         	slli	a3, a3, 0x3
80001c3c: 9636         	add	a2, a2, a3
80001c3e: e20c         	sd	a1, 0x0(a2)
80001c40: 00002097     	auipc	ra, 0x2
80001c44: 47c080e7     	jalr	0x47c(ra) <lab7_kernel_task2::proc_user_l0_table_pa::h6b416e3c399822ac>
80001c48: 00003097     	auipc	ra, 0x3
80001c4c: 306080e7     	jalr	0x306(ra) <lab7_kernel_task2::table_pte::h2c163efccb4ea9a0>
80001c50: 85aa         	mv	a1, a0
80001c52: 650a         	ld	a0, 0x80(sp)
80001c54: e0ae         	sd	a1, 0x40(sp)
80001c56: 4589         	li	a1, 0x2
80001c58: 00b56b63     	bltu	a0, a1, 0x80001c6e <.Lpcrel_hi101+0x10>
80001c5c: a035         	j	0x80001c88 <.Lpcrel_hi101+0x2a>

0000000080001c5e <.Lpcrel_hi101>:
80001c5e: 00006517     	auipc	a0, 0x6
80001c62: 1aa50513     	addi	a0, a0, 0x1aa
80001c66: 00005097     	auipc	ra, 0x5
80001c6a: bc0080e7     	jalr	-0x440(ra) <core::panicking::panic_null_pointer_dereference::hbac6411af4f2e916>
80001c6e: 00400537     	lui	a0, 0x400
80001c72: fffff097     	auipc	ra, 0xfffff
80001c76: 55c080e7     	jalr	0x55c(ra) <lab7_kernel_task2::vpn1_index::h7c720f11da45cc44>
80001c7a: 85aa         	mv	a1, a0
80001c7c: fc2e         	sd	a1, 0x38(sp)
80001c7e: 20000593     	li	a1, 0x200
80001c82: 00b56d63     	bltu	a0, a1, 0x80001c9c <.Lpcrel_hi103>
80001c86: a015         	j	0x80001caa <.Lpcrel_hi103+0xe>
80001c88: 650a         	ld	a0, 0x80(sp)

0000000080001c8a <.Lpcrel_hi102>:
80001c8a: 00006597     	auipc	a1, 0x6
80001c8e: 19658613     	addi	a2, a1, 0x196
80001c92: 4589         	li	a1, 0x2
80001c94: 00005097     	auipc	ra, 0x5
80001c98: b26080e7     	jalr	-0x4da(ra) <core::panicking::panic_bounds_check::h6aaee0d15e0261eb>

0000000080001c9c <.Lpcrel_hi103>:
80001c9c: 00012517     	auipc	a0, 0x12
80001ca0: 36450513     	addi	a0, a0, 0x364
80001ca4: 1552         	slli	a0, a0, 0x34
80001ca6: cd09         	beqz	a0, 0x80001cc0 <.Lpcrel_hi105>
80001ca8: a015         	j	0x80001ccc <.Lpcrel_hi106>
80001caa: 7562         	ld	a0, 0x38(sp)

0000000080001cac <.Lpcrel_hi104>:
80001cac: 00006597     	auipc	a1, 0x6
80001cb0: 17458613     	addi	a2, a1, 0x174
80001cb4: 20000593     	li	a1, 0x200
80001cb8: 00005097     	auipc	ra, 0x5
80001cbc: b02080e7     	jalr	-0x4fe(ra) <core::panicking::panic_bounds_check::h6aaee0d15e0261eb>

0000000080001cc0 <.Lpcrel_hi105>:
80001cc0: 00012517     	auipc	a0, 0x12
80001cc4: 34050513     	addi	a0, a0, 0x340
80001cc8: ed19         	bnez	a0, 0x80001ce6 <.Lpcrel_hi107+0x12>
80001cca: a8a1         	j	0x80001d22 <.Lpcrel_hi109>

0000000080001ccc <.Lpcrel_hi106>:
80001ccc: 00012517     	auipc	a0, 0x12
80001cd0: 33450593     	addi	a1, a0, 0x334

0000000080001cd4 <.Lpcrel_hi107>:
80001cd4: 00006517     	auipc	a0, 0x6
80001cd8: 14c50613     	addi	a2, a0, 0x14c
80001cdc: 6505         	lui	a0, 0x1
80001cde: 00005097     	auipc	ra, 0x5
80001ce2: b68080e7     	jalr	-0x498(ra) <core::panicking::panic_misaligned_pointer_dereference::hda85f7fb51d959f0>
80001ce6: 658a         	ld	a1, 0x80(sp)
80001ce8: 6506         	ld	a0, 0x40(sp)
80001cea: 7662         	ld	a2, 0x38(sp)
80001cec: 00c59693     	slli	a3, a1, 0xc

0000000080001cf0 <.Lpcrel_hi108>:
80001cf0: 00012597     	auipc	a1, 0x12
80001cf4: 31058593     	addi	a1, a1, 0x310
80001cf8: 95b6         	add	a1, a1, a3
80001cfa: 060e         	slli	a2, a2, 0x3
80001cfc: 95b2         	add	a1, a1, a2
80001cfe: e188         	sd	a0, 0x0(a1)
80001d00: 00001097     	auipc	ra, 0x1
80001d04: 3a6080e7     	jalr	0x3a6(ra) <lab7_kernel_task2::user_code_page_pa::hdfb1426b59078274>
80001d08: 05a00593     	li	a1, 0x5a
80001d0c: 00003097     	auipc	ra, 0x3
80001d10: 102080e7     	jalr	0x102(ra) <lab7_kernel_task2::leaf_pte::hdaf777f2912aa95a>
80001d14: 85aa         	mv	a1, a0
80001d16: 650a         	ld	a0, 0x80(sp)
80001d18: f82e         	sd	a1, 0x30(sp)
80001d1a: 4589         	li	a1, 0x2
80001d1c: 00b56b63     	bltu	a0, a1, 0x80001d32 <.Lpcrel_hi109+0x10>
80001d20: a035         	j	0x80001d4c <.Lpcrel_hi109+0x2a>

0000000080001d22 <.Lpcrel_hi109>:
80001d22: 00006517     	auipc	a0, 0x6
80001d26: 0fe50513     	addi	a0, a0, 0xfe
80001d2a: 00005097     	auipc	ra, 0x5
80001d2e: afc080e7     	jalr	-0x504(ra) <core::panicking::panic_null_pointer_dereference::hbac6411af4f2e916>
80001d32: 00400537     	lui	a0, 0x400
80001d36: fffff097     	auipc	ra, 0xfffff
80001d3a: 48c080e7     	jalr	0x48c(ra) <lab7_kernel_task2::vpn0_index::h1a7fd2ea4053119f>
80001d3e: 85aa         	mv	a1, a0
80001d40: f42e         	sd	a1, 0x28(sp)
80001d42: 20000593     	li	a1, 0x200
80001d46: 00b56d63     	bltu	a0, a1, 0x80001d60 <.Lpcrel_hi111>
80001d4a: a015         	j	0x80001d6e <.Lpcrel_hi111+0xe>
80001d4c: 650a         	ld	a0, 0x80(sp)

0000000080001d4e <.Lpcrel_hi110>:
80001d4e: 00006597     	auipc	a1, 0x6
80001d52: 0ea58613     	addi	a2, a1, 0xea
80001d56: 4589         	li	a1, 0x2
80001d58: 00005097     	auipc	ra, 0x5
80001d5c: a62080e7     	jalr	-0x59e(ra) <core::panicking::panic_bounds_check::h6aaee0d15e0261eb>

0000000080001d60 <.Lpcrel_hi111>:
80001d60: 00014517     	auipc	a0, 0x14
80001d64: 2a050513     	addi	a0, a0, 0x2a0
80001d68: 1552         	slli	a0, a0, 0x34
80001d6a: cd09         	beqz	a0, 0x80001d84 <.Lpcrel_hi113>
80001d6c: a015         	j	0x80001d90 <.Lpcrel_hi114>
80001d6e: 7522         	ld	a0, 0x28(sp)

0000000080001d70 <.Lpcrel_hi112>:
80001d70: 00006597     	auipc	a1, 0x6
80001d74: 0c858613     	addi	a2, a1, 0xc8
80001d78: 20000593     	li	a1, 0x200
80001d7c: 00005097     	auipc	ra, 0x5
80001d80: a3e080e7     	jalr	-0x5c2(ra) <core::panicking::panic_bounds_check::h6aaee0d15e0261eb>

0000000080001d84 <.Lpcrel_hi113>:
80001d84: 00014517     	auipc	a0, 0x14
80001d88: 27c50513     	addi	a0, a0, 0x27c
80001d8c: ed19         	bnez	a0, 0x80001daa <.Lpcrel_hi115+0x12>
80001d8e: a8a1         	j	0x80001de6 <.Lpcrel_hi117>

0000000080001d90 <.Lpcrel_hi114>:
80001d90: 00014517     	auipc	a0, 0x14
80001d94: 27050593     	addi	a1, a0, 0x270

0000000080001d98 <.Lpcrel_hi115>:
80001d98: 00006517     	auipc	a0, 0x6
80001d9c: 0a050613     	addi	a2, a0, 0xa0
80001da0: 6505         	lui	a0, 0x1
80001da2: 00005097     	auipc	ra, 0x5
80001da6: aa4080e7     	jalr	-0x55c(ra) <core::panicking::panic_misaligned_pointer_dereference::hda85f7fb51d959f0>
80001daa: 650a         	ld	a0, 0x80(sp)
80001dac: 75c2         	ld	a1, 0x30(sp)
80001dae: 76a2         	ld	a3, 0x28(sp)
80001db0: 00c51713     	slli	a4, a0, 0xc

0000000080001db4 <.Lpcrel_hi116>:
80001db4: 00014617     	auipc	a2, 0x14
80001db8: 24c60613     	addi	a2, a2, 0x24c
80001dbc: 963a         	add	a2, a2, a4
80001dbe: 068e         	slli	a3, a3, 0x3
80001dc0: 9636         	add	a2, a2, a3
80001dc2: e20c         	sd	a1, 0x0(a2)
80001dc4: 00001097     	auipc	ra, 0x1
80001dc8: 2ec080e7     	jalr	0x2ec(ra) <lab7_kernel_task2::user_data_page_pa::h113482482d635972>
80001dcc: 0d600593     	li	a1, 0xd6
80001dd0: 00003097     	auipc	ra, 0x3
80001dd4: 03e080e7     	jalr	0x3e(ra) <lab7_kernel_task2::leaf_pte::hdaf777f2912aa95a>
80001dd8: 85aa         	mv	a1, a0
80001dda: 650a         	ld	a0, 0x80(sp)
80001ddc: f02e         	sd	a1, 0x20(sp)
80001dde: 4589         	li	a1, 0x2
80001de0: 00b56b63     	bltu	a0, a1, 0x80001df6 <.Lpcrel_hi117+0x10>
80001de4: a035         	j	0x80001e10 <.Lpcrel_hi117+0x2a>

0000000080001de6 <.Lpcrel_hi117>:
80001de6: 00006517     	auipc	a0, 0x6
80001dea: 05250513     	addi	a0, a0, 0x52
80001dee: 00005097     	auipc	ra, 0x5
80001df2: a38080e7     	jalr	-0x5c8(ra) <core::panicking::panic_null_pointer_dereference::hbac6411af4f2e916>
80001df6: 00401537     	lui	a0, 0x401
80001dfa: fffff097     	auipc	ra, 0xfffff
80001dfe: 3c8080e7     	jalr	0x3c8(ra) <lab7_kernel_task2::vpn0_index::h1a7fd2ea4053119f>
80001e02: 85aa         	mv	a1, a0
80001e04: ec2e         	sd	a1, 0x18(sp)
80001e06: 20000593     	li	a1, 0x200
80001e0a: 00b56d63     	bltu	a0, a1, 0x80001e24 <.Lpcrel_hi119>
80001e0e: a015         	j	0x80001e32 <.Lpcrel_hi119+0xe>
80001e10: 650a         	ld	a0, 0x80(sp)

0000000080001e12 <.Lpcrel_hi118>:
80001e12: 00006597     	auipc	a1, 0x6
80001e16: 03e58613     	addi	a2, a1, 0x3e
80001e1a: 4589         	li	a1, 0x2
80001e1c: 00005097     	auipc	ra, 0x5
80001e20: 99e080e7     	jalr	-0x662(ra) <core::panicking::panic_bounds_check::h6aaee0d15e0261eb>

0000000080001e24 <.Lpcrel_hi119>:
80001e24: 00014517     	auipc	a0, 0x14
80001e28: 1dc50513     	addi	a0, a0, 0x1dc
80001e2c: 1552         	slli	a0, a0, 0x34
80001e2e: cd09         	beqz	a0, 0x80001e48 <.Lpcrel_hi121>
80001e30: a015         	j	0x80001e54 <.Lpcrel_hi122>
80001e32: 6562         	ld	a0, 0x18(sp)

0000000080001e34 <.Lpcrel_hi120>:
80001e34: 00006597     	auipc	a1, 0x6
80001e38: 01c58613     	addi	a2, a1, 0x1c
80001e3c: 20000593     	li	a1, 0x200
80001e40: 00005097     	auipc	ra, 0x5
80001e44: 97a080e7     	jalr	-0x686(ra) <core::panicking::panic_bounds_check::h6aaee0d15e0261eb>

0000000080001e48 <.Lpcrel_hi121>:
80001e48: 00014517     	auipc	a0, 0x14
80001e4c: 1b850513     	addi	a0, a0, 0x1b8
80001e50: ed19         	bnez	a0, 0x80001e6e <.Lpcrel_hi123+0x12>
80001e52: a8a1         	j	0x80001eaa <.Lpcrel_hi125>

0000000080001e54 <.Lpcrel_hi122>:
80001e54: 00014517     	auipc	a0, 0x14
80001e58: 1ac50593     	addi	a1, a0, 0x1ac

0000000080001e5c <.Lpcrel_hi123>:
80001e5c: 00006517     	auipc	a0, 0x6
80001e60: ff450613     	addi	a2, a0, -0xc
80001e64: 6505         	lui	a0, 0x1
80001e66: 00005097     	auipc	ra, 0x5
80001e6a: 9e0080e7     	jalr	-0x620(ra) <core::panicking::panic_misaligned_pointer_dereference::hda85f7fb51d959f0>
80001e6e: 650a         	ld	a0, 0x80(sp)
80001e70: 7582         	ld	a1, 0x20(sp)
80001e72: 66e2         	ld	a3, 0x18(sp)
80001e74: 00c51713     	slli	a4, a0, 0xc

0000000080001e78 <.Lpcrel_hi124>:
80001e78: 00014617     	auipc	a2, 0x14
80001e7c: 18860613     	addi	a2, a2, 0x188
80001e80: 963a         	add	a2, a2, a4
80001e82: 068e         	slli	a3, a3, 0x3
80001e84: 9636         	add	a2, a2, a3
80001e86: e20c         	sd	a1, 0x0(a2)
80001e88: 00001097     	auipc	ra, 0x1
80001e8c: 7f0080e7     	jalr	0x7f0(ra) <lab7_kernel_task2::user_stack_page_pa::h413d2113671bcddd>
80001e90: 0d600593     	li	a1, 0xd6
80001e94: 00003097     	auipc	ra, 0x3
80001e98: f7a080e7     	jalr	-0x86(ra) <lab7_kernel_task2::leaf_pte::hdaf777f2912aa95a>
80001e9c: 85aa         	mv	a1, a0
80001e9e: 650a         	ld	a0, 0x80(sp)
80001ea0: e82e         	sd	a1, 0x10(sp)
80001ea2: 4589         	li	a1, 0x2
80001ea4: 00b56b63     	bltu	a0, a1, 0x80001eba <.Lpcrel_hi125+0x10>
80001ea8: a035         	j	0x80001ed4 <.Lpcrel_hi125+0x2a>

0000000080001eaa <.Lpcrel_hi125>:
80001eaa: 00006517     	auipc	a0, 0x6
80001eae: fa650513     	addi	a0, a0, -0x5a
80001eb2: 00005097     	auipc	ra, 0x5
80001eb6: 974080e7     	jalr	-0x68c(ra) <core::panicking::panic_null_pointer_dereference::hbac6411af4f2e916>
80001eba: 00403537     	lui	a0, 0x403
80001ebe: fffff097     	auipc	ra, 0xfffff
80001ec2: 304080e7     	jalr	0x304(ra) <lab7_kernel_task2::vpn0_index::h1a7fd2ea4053119f>
80001ec6: 85aa         	mv	a1, a0
80001ec8: e42e         	sd	a1, 0x8(sp)
80001eca: 20000593     	li	a1, 0x200
80001ece: 00b56d63     	bltu	a0, a1, 0x80001ee8 <.Lpcrel_hi127>
80001ed2: a015         	j	0x80001ef6 <.Lpcrel_hi127+0xe>
80001ed4: 650a         	ld	a0, 0x80(sp)

0000000080001ed6 <.Lpcrel_hi126>:
80001ed6: 00006597     	auipc	a1, 0x6
80001eda: f9258613     	addi	a2, a1, -0x6e
80001ede: 4589         	li	a1, 0x2
80001ee0: 00005097     	auipc	ra, 0x5
80001ee4: 8da080e7     	jalr	-0x726(ra) <core::panicking::panic_bounds_check::h6aaee0d15e0261eb>

0000000080001ee8 <.Lpcrel_hi127>:
80001ee8: 00014517     	auipc	a0, 0x14
80001eec: 11850513     	addi	a0, a0, 0x118
80001ef0: 1552         	slli	a0, a0, 0x34
80001ef2: cd09         	beqz	a0, 0x80001f0c <.Lpcrel_hi129>
80001ef4: a015         	j	0x80001f18 <.Lpcrel_hi130>
80001ef6: 6522         	ld	a0, 0x8(sp)

0000000080001ef8 <.Lpcrel_hi128>:
80001ef8: 00006597     	auipc	a1, 0x6
80001efc: f7058613     	addi	a2, a1, -0x90
80001f00: 20000593     	li	a1, 0x200
80001f04: 00005097     	auipc	ra, 0x5
80001f08: 8b6080e7     	jalr	-0x74a(ra) <core::panicking::panic_bounds_check::h6aaee0d15e0261eb>

0000000080001f0c <.Lpcrel_hi129>:
80001f0c: 00014517     	auipc	a0, 0x14
80001f10: 0f450513     	addi	a0, a0, 0xf4
80001f14: ed19         	bnez	a0, 0x80001f32 <.Lpcrel_hi131+0x12>
80001f16: a83d         	j	0x80001f54 <.Lpcrel_hi133>

0000000080001f18 <.Lpcrel_hi130>:
80001f18: 00014517     	auipc	a0, 0x14
80001f1c: 0e850593     	addi	a1, a0, 0xe8

0000000080001f20 <.Lpcrel_hi131>:
80001f20: 00006517     	auipc	a0, 0x6
80001f24: f4850613     	addi	a2, a0, -0xb8
80001f28: 6505         	lui	a0, 0x1
80001f2a: 00005097     	auipc	ra, 0x5
80001f2e: 91c080e7     	jalr	-0x6e4(ra) <core::panicking::panic_misaligned_pointer_dereference::hda85f7fb51d959f0>
80001f32: 650a         	ld	a0, 0x80(sp)
80001f34: 65c2         	ld	a1, 0x10(sp)
80001f36: 66a2         	ld	a3, 0x8(sp)
80001f38: 00c51713     	slli	a4, a0, 0xc

0000000080001f3c <.Lpcrel_hi132>:
80001f3c: 00014617     	auipc	a2, 0x14
80001f40: 0c460613     	addi	a2, a2, 0xc4
80001f44: 963a         	add	a2, a2, a4
80001f46: 068e         	slli	a3, a3, 0x3
80001f48: 9636         	add	a2, a2, a3
80001f4a: e20c         	sd	a1, 0x0(a2)
80001f4c: 4589         	li	a1, 0x2
80001f4e: 00b56b63     	bltu	a0, a1, 0x80001f64 <.Lpcrel_hi134>
80001f52: a839         	j	0x80001f70 <.Lpcrel_hi134+0xc>

0000000080001f54 <.Lpcrel_hi133>:
80001f54: 00006517     	auipc	a0, 0x6
80001f58: f1450513     	addi	a0, a0, -0xec
80001f5c: 00005097     	auipc	ra, 0x5
80001f60: 8ca080e7     	jalr	-0x736(ra) <core::panicking::panic_null_pointer_dereference::hbac6411af4f2e916>

0000000080001f64 <.Lpcrel_hi134>:
80001f64: 00008517     	auipc	a0, 0x8
80001f68: 10450513     	addi	a0, a0, 0x104
80001f6c: ed01         	bnez	a0, 0x80001f84 <.Lpcrel_hi135+0x12>
80001f6e: a0b9         	j	0x80001fbc <.Lpcrel_hi137>
80001f70: 650a         	ld	a0, 0x80(sp)

0000000080001f72 <.Lpcrel_hi135>:
80001f72: 00006597     	auipc	a1, 0x6
80001f76: f0e58613     	addi	a2, a1, -0xf2
80001f7a: 4589         	li	a1, 0x2
80001f7c: 00005097     	auipc	ra, 0x5
80001f80: 83e080e7     	jalr	-0x7c2(ra) <core::panicking::panic_bounds_check::h6aaee0d15e0261eb>
80001f84: 650a         	ld	a0, 0x80(sp)
80001f86: 00551613     	slli	a2, a0, 0x5
80001f8a: 00951593     	slli	a1, a0, 0x9
80001f8e: 962e         	add	a2, a2, a1

0000000080001f90 <.Lpcrel_hi136>:
80001f90: 00008597     	auipc	a1, 0x8
80001f94: 0d858593     	addi	a1, a1, 0xd8
80001f98: 962e         	add	a2, a2, a1
80001f9a: 4585         	li	a1, 0x1
80001f9c: e20c         	sd	a1, 0x0(a2)
80001f9e: 00001097     	auipc	ra, 0x1
80001fa2: 66a080e7     	jalr	0x66a(ra) <lab7_kernel_task2::proc_root_table_pa::h2d0cc90a20c69ccc>
80001fa6: 00000097     	auipc	ra, 0x0
80001faa: 428080e7     	jalr	0x428(ra) <lab7_kernel_task2::satp_for_root::h32f4f9b66ec60dcb>
80001fae: 85aa         	mv	a1, a0
80001fb0: 650a         	ld	a0, 0x80(sp)
80001fb2: e02e         	sd	a1, 0x0(sp)
80001fb4: 4589         	li	a1, 0x2
80001fb6: 00b56b63     	bltu	a0, a1, 0x80001fcc <.Lpcrel_hi138>
80001fba: a839         	j	0x80001fd8 <.Lpcrel_hi138+0xc>

0000000080001fbc <.Lpcrel_hi137>:
80001fbc: 00006517     	auipc	a0, 0x6
80001fc0: ec450513     	addi	a0, a0, -0x13c
80001fc4: 00005097     	auipc	ra, 0x5
80001fc8: 862080e7     	jalr	-0x79e(ra) <core::panicking::panic_null_pointer_dereference::hbac6411af4f2e916>

0000000080001fcc <.Lpcrel_hi138>:
80001fcc: 00008517     	auipc	a0, 0x8
80001fd0: 09c50513     	addi	a0, a0, 0x9c
80001fd4: ed01         	bnez	a0, 0x80001fec <.Lpcrel_hi139+0x12>
80001fd6: a825         	j	0x8000200e <.Lpcrel_hi141>
80001fd8: 650a         	ld	a0, 0x80(sp)

0000000080001fda <.Lpcrel_hi139>:
80001fda: 00006597     	auipc	a1, 0x6
80001fde: ebe58613     	addi	a2, a1, -0x142
80001fe2: 4589         	li	a1, 0x2
80001fe4: 00004097     	auipc	ra, 0x4
80001fe8: 7d6080e7     	jalr	0x7d6(ra) <core::panicking::panic_bounds_check::h6aaee0d15e0261eb>
80001fec: 650a         	ld	a0, 0x80(sp)
80001fee: 6582         	ld	a1, 0x0(sp)
80001ff0: 00551693     	slli	a3, a0, 0x5
80001ff4: 00951613     	slli	a2, a0, 0x9
80001ff8: 96b2         	add	a3, a3, a2

0000000080001ffa <.Lpcrel_hi140>:
80001ffa: 00008617     	auipc	a2, 0x8
80001ffe: 06e60613     	addi	a2, a2, 0x6e
80002002: 9636         	add	a2, a2, a3
80002004: e60c         	sd	a1, 0x8(a2)
80002006: 4589         	li	a1, 0x2
80002008: 00b56b63     	bltu	a0, a1, 0x8000201e <.Lpcrel_hi142>
8000200c: a839         	j	0x8000202a <.Lpcrel_hi142+0xc>

000000008000200e <.Lpcrel_hi141>:
8000200e: 00006517     	auipc	a0, 0x6
80002012: e8a50513     	addi	a0, a0, -0x176
80002016: 00005097     	auipc	ra, 0x5
8000201a: 810080e7     	jalr	-0x7f0(ra) <core::panicking::panic_null_pointer_dereference::hbac6411af4f2e916>

000000008000201e <.Lpcrel_hi142>:
8000201e: 00008517     	auipc	a0, 0x8
80002022: 04a50513     	addi	a0, a0, 0x4a
80002026: ed01         	bnez	a0, 0x8000203e <.Lpcrel_hi143+0x12>
80002028: a825         	j	0x80002060 <.Lpcrel_hi145>
8000202a: 650a         	ld	a0, 0x80(sp)

000000008000202c <.Lpcrel_hi143>:
8000202c: 00006597     	auipc	a1, 0x6
80002030: e8458613     	addi	a2, a1, -0x17c
80002034: 4589         	li	a1, 0x2
80002036: 00004097     	auipc	ra, 0x4
8000203a: 784080e7     	jalr	0x784(ra) <core::panicking::panic_bounds_check::h6aaee0d15e0261eb>
8000203e: 650a         	ld	a0, 0x80(sp)
80002040: 00551613     	slli	a2, a0, 0x5
80002044: 00951593     	slli	a1, a0, 0x9
80002048: 962e         	add	a2, a2, a1

000000008000204a <.Lpcrel_hi144>:
8000204a: 00008597     	auipc	a1, 0x8
8000204e: 01e58593     	addi	a1, a1, 0x1e
80002052: 962e         	add	a2, a2, a1
80002054: 4581         	li	a1, 0x0
80002056: ea0c         	sd	a1, 0x10(a2)
80002058: 4589         	li	a1, 0x2
8000205a: 00b56b63     	bltu	a0, a1, 0x80002070 <.Lpcrel_hi146>
8000205e: a839         	j	0x8000207c <.Lpcrel_hi146+0xc>

0000000080002060 <.Lpcrel_hi145>:
80002060: 00006517     	auipc	a0, 0x6
80002064: e5050513     	addi	a0, a0, -0x1b0
80002068: 00004097     	auipc	ra, 0x4
8000206c: 7be080e7     	jalr	0x7be(ra) <core::panicking::panic_null_pointer_dereference::hbac6411af4f2e916>

0000000080002070 <.Lpcrel_hi146>:
80002070: 00008517     	auipc	a0, 0x8
80002074: ff850513     	addi	a0, a0, -0x8
80002078: ed01         	bnez	a0, 0x80002090 <.Lpcrel_hi147+0x12>
8000207a: a82d         	j	0x800020b4 <.Lpcrel_hi149>
8000207c: 650a         	ld	a0, 0x80(sp)

000000008000207e <.Lpcrel_hi147>:
8000207e: 00006597     	auipc	a1, 0x6
80002082: e4a58613     	addi	a2, a1, -0x1b6
80002086: 4589         	li	a1, 0x2
80002088: 00004097     	auipc	ra, 0x4
8000208c: 732080e7     	jalr	0x732(ra) <core::panicking::panic_bounds_check::h6aaee0d15e0261eb>
80002090: 650a         	ld	a0, 0x80(sp)
80002092: 00551613     	slli	a2, a0, 0x5
80002096: 00951593     	slli	a1, a0, 0x9
8000209a: 962e         	add	a2, a2, a1

000000008000209c <.Lpcrel_hi148>:
8000209c: 00008597     	auipc	a1, 0x8
800020a0: fcc58593     	addi	a1, a1, -0x34
800020a4: 962e         	add	a2, a2, a1
800020a6: 4581         	li	a1, 0x0
800020a8: 20b62c23     	sw	a1, 0x218(a2)
800020ac: 4589         	li	a1, 0x2
800020ae: 00b56b63     	bltu	a0, a1, 0x800020c4 <.Lpcrel_hi150>
800020b2: a839         	j	0x800020d0 <.Lpcrel_hi150+0xc>

00000000800020b4 <.Lpcrel_hi149>:
800020b4: 00006517     	auipc	a0, 0x6
800020b8: e1450513     	addi	a0, a0, -0x1ec
800020bc: 00004097     	auipc	ra, 0x4
800020c0: 76a080e7     	jalr	0x76a(ra) <core::panicking::panic_null_pointer_dereference::hbac6411af4f2e916>

00000000800020c4 <.Lpcrel_hi150>:
800020c4: 00008517     	auipc	a0, 0x8
800020c8: fa450513     	addi	a0, a0, -0x5c
800020cc: ed01         	bnez	a0, 0x800020e4 <.Lpcrel_hi151+0x12>
800020ce: a82d         	j	0x80002108 <.Lpcrel_hi153>
800020d0: 650a         	ld	a0, 0x80(sp)

00000000800020d2 <.Lpcrel_hi151>:
800020d2: 00006597     	auipc	a1, 0x6
800020d6: e0e58613     	addi	a2, a1, -0x1f2
800020da: 4589         	li	a1, 0x2
800020dc: 00004097     	auipc	ra, 0x4
800020e0: 6de080e7     	jalr	0x6de(ra) <core::panicking::panic_bounds_check::h6aaee0d15e0261eb>
800020e4: 650a         	ld	a0, 0x80(sp)
800020e6: 00551613     	slli	a2, a0, 0x5
800020ea: 00951593     	slli	a1, a0, 0x9
800020ee: 962e         	add	a2, a2, a1

00000000800020f0 <.Lpcrel_hi152>:
800020f0: 00008597     	auipc	a1, 0x8
800020f4: f7858593     	addi	a1, a1, -0x88
800020f8: 962e         	add	a2, a2, a1
800020fa: 4581         	li	a1, 0x0
800020fc: 20b60e23     	sb	a1, 0x21c(a2)
80002100: 4589         	li	a1, 0x2
80002102: 00b56b63     	bltu	a0, a1, 0x80002118 <.Lpcrel_hi154>
80002106: a839         	j	0x80002124 <.Lpcrel_hi154+0xc>

0000000080002108 <.Lpcrel_hi153>:
80002108: 00006517     	auipc	a0, 0x6
8000210c: dd850513     	addi	a0, a0, -0x228
80002110: 00004097     	auipc	ra, 0x4
80002114: 716080e7     	jalr	0x716(ra) <core::panicking::panic_null_pointer_dereference::hbac6411af4f2e916>

0000000080002118 <.Lpcrel_hi154>:
80002118: 00008517     	auipc	a0, 0x8
8000211c: f5050513     	addi	a0, a0, -0xb0
80002120: ed01         	bnez	a0, 0x80002138 <.Lpcrel_hi155+0x12>
80002122: a0b9         	j	0x80002170 <.Lpcrel_hi157>
80002124: 650a         	ld	a0, 0x80(sp)

0000000080002126 <.Lpcrel_hi155>:
80002126: 00006597     	auipc	a1, 0x6
8000212a: dd258613     	addi	a2, a1, -0x22e
8000212e: 4589         	li	a1, 0x2
80002130: 00004097     	auipc	ra, 0x4
80002134: 68a080e7     	jalr	0x68a(ra) <core::panicking::panic_bounds_check::h6aaee0d15e0261eb>
80002138: 650a         	ld	a0, 0x80(sp)
8000213a: 00551593     	slli	a1, a0, 0x5
8000213e: 0526         	slli	a0, a0, 0x9
80002140: 95aa         	add	a1, a1, a0

0000000080002142 <.Lpcrel_hi156>:
80002142: 00008517     	auipc	a0, 0x8
80002146: f2650513     	addi	a0, a0, -0xda
8000214a: 952e         	add	a0, a0, a1
8000214c: 0561         	addi	a0, a0, 0x18
8000214e: 4581         	li	a1, 0x0
80002150: 10000613     	li	a2, 0x100
80002154: 00005097     	auipc	ra, 0x5
80002158: 826080e7     	jalr	-0x7da(ra) <memset>
8000215c: 0908         	addi	a0, sp, 0x90
8000215e: ffffe097     	auipc	ra, 0xffffe
80002162: 5ea080e7     	jalr	0x5ea(ra) <lab7_kernel_task2::trap::TrapFrame::zeroed::hcf81c361d93f9865>
80002166: 650a         	ld	a0, 0x80(sp)
80002168: 4589         	li	a1, 0x2
8000216a: 00b56b63     	bltu	a0, a1, 0x80002180 <.Lpcrel_hi158>
8000216e: a839         	j	0x8000218c <.Lpcrel_hi158+0xc>

0000000080002170 <.Lpcrel_hi157>:
80002170: 00006517     	auipc	a0, 0x6
80002174: d8850513     	addi	a0, a0, -0x278
80002178: 00004097     	auipc	ra, 0x4
8000217c: 6ae080e7     	jalr	0x6ae(ra) <core::panicking::panic_null_pointer_dereference::hbac6411af4f2e916>

0000000080002180 <.Lpcrel_hi158>:
80002180: 00008517     	auipc	a0, 0x8
80002184: ee850513     	addi	a0, a0, -0x118
80002188: ed01         	bnez	a0, 0x800021a0 <.Lpcrel_hi159+0x12>
8000218a: a881         	j	0x800021da <.Lpcrel_hi161>
8000218c: 650a         	ld	a0, 0x80(sp)

000000008000218e <.Lpcrel_hi159>:
8000218e: 00006597     	auipc	a1, 0x6
80002192: d8258613     	addi	a2, a1, -0x27e
80002196: 4589         	li	a1, 0x2
80002198: 00004097     	auipc	ra, 0x4
8000219c: 622080e7     	jalr	0x622(ra) <core::panicking::panic_bounds_check::h6aaee0d15e0261eb>
800021a0: 650a         	ld	a0, 0x80(sp)
800021a2: 00551593     	slli	a1, a0, 0x5
800021a6: 0526         	slli	a0, a0, 0x9
800021a8: 95aa         	add	a1, a1, a0

00000000800021aa <.Lpcrel_hi160>:
800021aa: 00008517     	auipc	a0, 0x8
800021ae: ebe50513     	addi	a0, a0, -0x142
800021b2: 952e         	add	a0, a0, a1
800021b4: 11850513     	addi	a0, a0, 0x118
800021b8: 090c         	addi	a1, sp, 0x90
800021ba: 10000613     	li	a2, 0x100
800021be: 00005097     	auipc	ra, 0x5
800021c2: 832080e7     	jalr	-0x7ce(ra) <memcpy>
800021c6: 0b08         	addi	a0, sp, 0x190
800021c8: ffffe097     	auipc	ra, 0xffffe
800021cc: 580080e7     	jalr	0x580(ra) <lab7_kernel_task2::trap::TrapFrame::zeroed::hcf81c361d93f9865>
800021d0: 650a         	ld	a0, 0x80(sp)
800021d2: 4589         	li	a1, 0x2
800021d4: 00b56b63     	bltu	a0, a1, 0x800021ea <.Lpcrel_hi162>
800021d8: a839         	j	0x800021f6 <.Lpcrel_hi162+0xc>

00000000800021da <.Lpcrel_hi161>:
800021da: 00006517     	auipc	a0, 0x6
800021de: d3650513     	addi	a0, a0, -0x2ca
800021e2: 00004097     	auipc	ra, 0x4
800021e6: 644080e7     	jalr	0x644(ra) <core::panicking::panic_null_pointer_dereference::hbac6411af4f2e916>

00000000800021ea <.Lpcrel_hi162>:
800021ea: 00008517     	auipc	a0, 0x8
800021ee: 2be50513     	addi	a0, a0, 0x2be
800021f2: ed01         	bnez	a0, 0x8000220a <.Lpcrel_hi163+0x12>
800021f4: a83d         	j	0x80002232 <.Lpcrel_hi165>
800021f6: 650a         	ld	a0, 0x80(sp)

00000000800021f8 <.Lpcrel_hi163>:
800021f8: 00006597     	auipc	a1, 0x6
800021fc: d3058613     	addi	a2, a1, -0x2d0
80002200: 4589         	li	a1, 0x2
80002202: 00004097     	auipc	ra, 0x4
80002206: 5b8080e7     	jalr	0x5b8(ra) <core::panicking::panic_bounds_check::h6aaee0d15e0261eb>
8000220a: 650a         	ld	a0, 0x80(sp)
8000220c: 00851593     	slli	a1, a0, 0x8

0000000080002210 <.Lpcrel_hi164>:
80002210: 00008517     	auipc	a0, 0x8
80002214: 29850513     	addi	a0, a0, 0x298
80002218: 952e         	add	a0, a0, a1
8000221a: 0b0c         	addi	a1, sp, 0x190
8000221c: 10000613     	li	a2, 0x100
80002220: 00004097     	auipc	ra, 0x4
80002224: 7d0080e7     	jalr	0x7d0(ra) <memcpy>
80002228: 650a         	ld	a0, 0x80(sp)
8000222a: 4589         	li	a1, 0x2
8000222c: 00b56b63     	bltu	a0, a1, 0x80002242 <.Lpcrel_hi166>
80002230: a839         	j	0x8000224e <.Lpcrel_hi166+0xc>

0000000080002232 <.Lpcrel_hi165>:
80002232: 00006517     	auipc	a0, 0x6
80002236: cf650513     	addi	a0, a0, -0x30a
8000223a: 00004097     	auipc	ra, 0x4
8000223e: 5ec080e7     	jalr	0x5ec(ra) <core::panicking::panic_null_pointer_dereference::hbac6411af4f2e916>

0000000080002242 <.Lpcrel_hi166>:
80002242: 00008517     	auipc	a0, 0x8
80002246: 26650513     	addi	a0, a0, 0x266
8000224a: ed01         	bnez	a0, 0x80002262 <.Lpcrel_hi167+0x12>
8000224c: a815         	j	0x80002280 <.Lpcrel_hi169>
8000224e: 650a         	ld	a0, 0x80(sp)

0000000080002250 <.Lpcrel_hi167>:
80002250: 00006597     	auipc	a1, 0x6
80002254: cf058613     	addi	a2, a1, -0x310
80002258: 4589         	li	a1, 0x2
8000225a: 00004097     	auipc	ra, 0x4
8000225e: 560080e7     	jalr	0x560(ra) <core::panicking::panic_bounds_check::h6aaee0d15e0261eb>
80002262: 650a         	ld	a0, 0x80(sp)
80002264: 00851613     	slli	a2, a0, 0x8

0000000080002268 <.Lpcrel_hi168>:
80002268: 00008597     	auipc	a1, 0x8
8000226c: 24058593     	addi	a1, a1, 0x240
80002270: 962e         	add	a2, a2, a1
80002272: 004005b7     	lui	a1, 0x400
80002276: fe6c         	sd	a1, 0xf8(a2)
80002278: 4589         	li	a1, 0x2
8000227a: 00b56b63     	bltu	a0, a1, 0x80002290 <.Lpcrel_hi170>
8000227e: a839         	j	0x8000229c <.Lpcrel_hi170+0xc>

0000000080002280 <.Lpcrel_hi169>:
80002280: 00006517     	auipc	a0, 0x6
80002284: cc050513     	addi	a0, a0, -0x340
80002288: 00004097     	auipc	ra, 0x4
8000228c: 59e080e7     	jalr	0x59e(ra) <core::panicking::panic_null_pointer_dereference::hbac6411af4f2e916>

0000000080002290 <.Lpcrel_hi170>:
80002290: 00008517     	auipc	a0, 0x8
80002294: 21850513     	addi	a0, a0, 0x218
80002298: ed01         	bnez	a0, 0x800022b0 <.Lpcrel_hi171+0x12>
8000229a: a815         	j	0x800022ce <.Lpcrel_hi173>
8000229c: 650a         	ld	a0, 0x80(sp)

000000008000229e <.Lpcrel_hi171>:
8000229e: 00006597     	auipc	a1, 0x6
800022a2: cba58613     	addi	a2, a1, -0x346
800022a6: 4589         	li	a1, 0x2
800022a8: 00004097     	auipc	ra, 0x4
800022ac: 512080e7     	jalr	0x512(ra) <core::panicking::panic_bounds_check::h6aaee0d15e0261eb>
800022b0: 650a         	ld	a0, 0x80(sp)
800022b2: 00851613     	slli	a2, a0, 0x8

00000000800022b6 <.Lpcrel_hi172>:
800022b6: 00008597     	auipc	a1, 0x8
800022ba: 1f258593     	addi	a1, a1, 0x1f2
800022be: 962e         	add	a2, a2, a1
800022c0: 004045b7     	lui	a1, 0x404
800022c4: fa6c         	sd	a1, 0xf0(a2)
800022c6: 4589         	li	a1, 0x2
800022c8: 00b56b63     	bltu	a0, a1, 0x800022de <.Lpcrel_hi174>
800022cc: a839         	j	0x800022ea <.Lpcrel_hi174+0xc>

00000000800022ce <.Lpcrel_hi173>:
800022ce: 00006517     	auipc	a0, 0x6
800022d2: c8a50513     	addi	a0, a0, -0x376
800022d6: 00004097     	auipc	ra, 0x4
800022da: 550080e7     	jalr	0x550(ra) <core::panicking::panic_null_pointer_dereference::hbac6411af4f2e916>

00000000800022de <.Lpcrel_hi174>:
800022de: 00008517     	auipc	a0, 0x8
800022e2: 1ca50513     	addi	a0, a0, 0x1ca
800022e6: ed01         	bnez	a0, 0x800022fe <.Lpcrel_hi175+0x12>
800022e8: a80d         	j	0x8000231a <.Lpcrel_hi177>
800022ea: 650a         	ld	a0, 0x80(sp)

00000000800022ec <.Lpcrel_hi175>:
800022ec: 00006597     	auipc	a1, 0x6
800022f0: c8458613     	addi	a2, a1, -0x37c
800022f4: 4589         	li	a1, 0x2
800022f6: 00004097     	auipc	ra, 0x4
800022fa: 4c4080e7     	jalr	0x4c4(ra) <core::panicking::panic_bounds_check::h6aaee0d15e0261eb>
800022fe: 650a         	ld	a0, 0x80(sp)
80002300: 00851613     	slli	a2, a0, 0x8

0000000080002304 <.Lpcrel_hi176>:
80002304: 00008597     	auipc	a1, 0x8
80002308: 1a458593     	addi	a1, a1, 0x1a4
8000230c: 95b2         	add	a1, a1, a2
8000230e: e1a8         	sd	a0, 0x40(a1)
80002310: 29813083     	ld	ra, 0x298(sp)
80002314: 2a010113     	addi	sp, sp, 0x2a0
80002318: 8082         	ret

000000008000231a <.Lpcrel_hi177>:
8000231a: 00006517     	auipc	a0, 0x6
8000231e: c5650513     	addi	a0, a0, -0x3aa
80002322: 00004097     	auipc	ra, 0x4
80002326: 504080e7     	jalr	0x504(ra) <core::panicking::panic_null_pointer_dereference::hbac6411af4f2e916>

000000008000232a <lab7_kernel_task2::configure_pmp::hf68f1159d3070414>:
8000232a: 557d         	li	a0, -0x1
8000232c: 8109         	srli	a0, a0, 0x2
8000232e: 3b051073     	csrw	pmpaddr0, a0
80002332: 457d         	li	a0, 0x1f
80002334: 3a051073     	csrw	pmpcfg0, a0
80002338: 8082         	ret

000000008000233a <lab7_kernel_task2::pte_has_write::hce4b3bf7cbd98387>:
8000233a: 1141         	addi	sp, sp, -0x10
8000233c: e42a         	sd	a0, 0x8(sp)
8000233e: 1576         	slli	a0, a0, 0x3d
80002340: 917d         	srli	a0, a0, 0x3f
80002342: 0141         	addi	sp, sp, 0x10
80002344: 8082         	ret

0000000080002346 <lab7_kernel_task2::read_user_u64::haebbf8f29c2afb1c>:
80002346: 7159         	addi	sp, sp, -0x70
80002348: f486         	sd	ra, 0x68(sp)
8000234a: 862e         	mv	a2, a1
8000234c: e832         	sd	a2, 0x10(sp)
8000234e: 85aa         	mv	a1, a0
80002350: e8ae         	sd	a1, 0x50(sp)
80002352: ecb2         	sd	a2, 0x58(sp)
80002354: 0828         	addi	a0, sp, 0x18
80002356: 00001097     	auipc	ra, 0x1
8000235a: d92080e7     	jalr	-0x26e(ra) <lab7_kernel_task2::walk_proc_virtual::h2e17da96e96ee012>
8000235e: 6526         	ld	a0, 0x48(sp)
80002360: fffff097     	auipc	ra, 0xfffff
80002364: 590080e7     	jalr	0x590(ra) <lab7_kernel_task2::pte_is_valid::ha2a27e3f4eb5b224>
80002368: ed01         	bnez	a0, 0x80002380 <.Lpcrel_hi178+0x14>
8000236a: a009         	j	0x8000236c <.Lpcrel_hi178>

000000008000236c <.Lpcrel_hi178>:
8000236c: 00006517     	auipc	a0, 0x6
80002370: c1c50513     	addi	a0, a0, -0x3e4
80002374: 02900593     	li	a1, 0x29
80002378: fffff097     	auipc	ra, 0xfffff
8000237c: e8c080e7     	jalr	-0x174(ra) <lab7_kernel_task2::kernel_fail::ha5b301f22f28ddb4>
80002380: 6526         	ld	a0, 0x48(sp)
80002382: 00003097     	auipc	ra, 0x3
80002386: b78080e7     	jalr	-0x488(ra) <lab7_kernel_task2::pte_to_pa::hf68a11d477bbd38c>
8000238a: 85aa         	mv	a1, a0
8000238c: 6542         	ld	a0, 0x10(sp)
8000238e: e02e         	sd	a1, 0x0(sp)
80002390: fffff097     	auipc	ra, 0xfffff
80002394: eb6080e7     	jalr	-0x14a(ra) <lab7_kernel_task2::page_offset::h3961df09dad86938>
80002398: 6582         	ld	a1, 0x0(sp)
8000239a: 952e         	add	a0, a0, a1
8000239c: e42a         	sd	a0, 0x8(sp)
8000239e: 02b56063     	bltu	a0, a1, 0x800023be <.Lpcrel_hi180>
800023a2: a009         	j	0x800023a4 <.Lpcrel_hi178+0x38>
800023a4: 6522         	ld	a0, 0x8(sp)
800023a6: f0aa         	sd	a0, 0x60(sp)

00000000800023a8 <.Lpcrel_hi179>:
800023a8: 00006597     	auipc	a1, 0x6
800023ac: c2858593     	addi	a1, a1, -0x3d8
800023b0: ffffe097     	auipc	ra, 0xffffe
800023b4: 2c6080e7     	jalr	0x2c6(ra) <core::ptr::read_volatile::hc021139fc4eafa60>
800023b8: 70a6         	ld	ra, 0x68(sp)
800023ba: 6165         	addi	sp, sp, 0x70
800023bc: 8082         	ret

00000000800023be <.Lpcrel_hi180>:
800023be: 00006517     	auipc	a0, 0x6
800023c2: bfa50513     	addi	a0, a0, -0x406
800023c6: 00004097     	auipc	ra, 0x4
800023ca: 35e080e7     	jalr	0x35e(ra) <core::panicking::panic_const::panic_const_add_overflow::h67cba067093910f8>

00000000800023ce <lab7_kernel_task2::satp_for_root::h32f4f9b66ec60dcb>:
800023ce: 1141         	addi	sp, sp, -0x10
800023d0: e42a         	sd	a0, 0x8(sp)
800023d2: 8131         	srli	a0, a0, 0xc
800023d4: 55fd         	li	a1, -0x1
800023d6: 15fe         	slli	a1, a1, 0x3f
800023d8: 8d4d         	or	a0, a0, a1
800023da: 0141         	addi	sp, sp, 0x10
800023dc: 8082         	ret

00000000800023de <lab7_kernel_task2::ProcessControl::empty::h71b01f21ff4ad304>:
800023de: dd010113     	addi	sp, sp, -0x230
800023e2: 22113423     	sd	ra, 0x228(sp)
800023e6: f02a         	sd	a0, 0x20(sp)
800023e8: 1028         	addi	a0, sp, 0x28
800023ea: e42a         	sd	a0, 0x8(sp)
800023ec: 4581         	li	a1, 0x0
800023ee: e02e         	sd	a1, 0x0(sp)
800023f0: 10000613     	li	a2, 0x100
800023f4: ec32         	sd	a2, 0x18(sp)
800023f6: 00004097     	auipc	ra, 0x4
800023fa: 584080e7     	jalr	0x584(ra) <memset>
800023fe: 1228         	addi	a0, sp, 0x128
80002400: e82a         	sd	a0, 0x10(sp)
80002402: ffffe097     	auipc	ra, 0xffffe
80002406: 346080e7     	jalr	0x346(ra) <lab7_kernel_task2::trap::TrapFrame::zeroed::hcf81c361d93f9865>
8000240a: 6682         	ld	a3, 0x0(sp)
8000240c: 65a2         	ld	a1, 0x8(sp)
8000240e: 7502         	ld	a0, 0x20(sp)
80002410: 6662         	ld	a2, 0x18(sp)
80002412: e114         	sd	a3, 0x0(a0)
80002414: e514         	sd	a3, 0x8(a0)
80002416: e914         	sd	a3, 0x10(a0)
80002418: 20d52c23     	sw	a3, 0x218(a0)
8000241c: 20d50e23     	sb	a3, 0x21c(a0)
80002420: 0561         	addi	a0, a0, 0x18
80002422: 00004097     	auipc	ra, 0x4
80002426: 5ce080e7     	jalr	0x5ce(ra) <memcpy>
8000242a: 65c2         	ld	a1, 0x10(sp)
8000242c: 6662         	ld	a2, 0x18(sp)
8000242e: 7502         	ld	a0, 0x20(sp)
80002430: 11850513     	addi	a0, a0, 0x118
80002434: 00004097     	auipc	ra, 0x4
80002438: 5bc080e7     	jalr	0x5bc(ra) <memcpy>
8000243c: 22813083     	ld	ra, 0x228(sp)
80002440: 23010113     	addi	sp, sp, 0x230
80002444: 8082         	ret

0000000080002446 <lab7_kernel_task2::user_symbol_va::h64ac36acc965ab7d>:
80002446: 1101         	addi	sp, sp, -0x20
80002448: ec2a         	sd	a0, 0x18(sp)

000000008000244a <.Lpcrel_hi181>:
8000244a: fffff597     	auipc	a1, 0xfffff
8000244e: ac658593     	addi	a1, a1, -0x53a
80002452: 40b50633     	sub	a2, a0, a1
80002456: e832         	sd	a2, 0x10(sp)
80002458: 00b56b63     	bltu	a0, a1, 0x8000246e <.Lpcrel_hi182>
8000245c: a009         	j	0x8000245e <.Lpcrel_hi181+0x14>
8000245e: 6542         	ld	a0, 0x10(sp)
80002460: 004005b7     	lui	a1, 0x400
80002464: 952e         	add	a0, a0, a1
80002466: e42a         	sd	a0, 0x8(sp)
80002468: 8159         	srli	a0, a0, 0x16
8000246a: cd09         	beqz	a0, 0x80002484 <.Lpcrel_hi183>
8000246c: a809         	j	0x8000247e <.Lpcrel_hi182+0x10>

000000008000246e <.Lpcrel_hi182>:
8000246e: 00006517     	auipc	a0, 0x6
80002472: b7a50513     	addi	a0, a0, -0x486
80002476: 00004097     	auipc	ra, 0x4
8000247a: 308080e7     	jalr	0x308(ra) <core::panicking::panic_const::panic_const_sub_overflow::hccc965ba9198de7c>
8000247e: 6522         	ld	a0, 0x8(sp)
80002480: 6105         	addi	sp, sp, 0x20
80002482: 8082         	ret

0000000080002484 <.Lpcrel_hi183>:
80002484: 00006517     	auipc	a0, 0x6
80002488: b7c50513     	addi	a0, a0, -0x484
8000248c: 00004097     	auipc	ra, 0x4
80002490: 298080e7     	jalr	0x298(ra) <core::panicking::panic_const::panic_const_add_overflow::h67cba067093910f8>

0000000080002494 <lab7_kernel_task2::write_user_u64::h8320914fdccd3f04>:
80002494: 7119         	addi	sp, sp, -0x80
80002496: fc86         	sd	ra, 0x78(sp)
80002498: ec32         	sd	a2, 0x18(sp)
8000249a: 862e         	mv	a2, a1
8000249c: e832         	sd	a2, 0x10(sp)
8000249e: 85aa         	mv	a1, a0
800024a0: 6562         	ld	a0, 0x18(sp)
800024a2: ecae         	sd	a1, 0x58(sp)
800024a4: f0b2         	sd	a2, 0x60(sp)
800024a6: f4aa         	sd	a0, 0x68(sp)
800024a8: 1008         	addi	a0, sp, 0x20
800024aa: 00001097     	auipc	ra, 0x1
800024ae: c3e080e7     	jalr	-0x3c2(ra) <lab7_kernel_task2::walk_proc_virtual::h2e17da96e96ee012>
800024b2: 6546         	ld	a0, 0x50(sp)
800024b4: fffff097     	auipc	ra, 0xfffff
800024b8: 43c080e7     	jalr	0x43c(ra) <lab7_kernel_task2::pte_is_valid::ha2a27e3f4eb5b224>
800024bc: ed01         	bnez	a0, 0x800024d4 <.Lpcrel_hi184+0x14>
800024be: a009         	j	0x800024c0 <.Lpcrel_hi184>

00000000800024c0 <.Lpcrel_hi184>:
800024c0: 00006517     	auipc	a0, 0x6
800024c4: b5850513     	addi	a0, a0, -0x4a8
800024c8: 02c00593     	li	a1, 0x2c
800024cc: fffff097     	auipc	ra, 0xfffff
800024d0: d38080e7     	jalr	-0x2c8(ra) <lab7_kernel_task2::kernel_fail::ha5b301f22f28ddb4>
800024d4: 6546         	ld	a0, 0x50(sp)
800024d6: 00000097     	auipc	ra, 0x0
800024da: e64080e7     	jalr	-0x19c(ra) <lab7_kernel_task2::pte_has_write::hce4b3bf7cbd98387>
800024de: d16d         	beqz	a0, 0x800024c0 <.Lpcrel_hi184>
800024e0: a009         	j	0x800024e2 <.Lpcrel_hi184+0x22>
800024e2: 6546         	ld	a0, 0x50(sp)
800024e4: 00003097     	auipc	ra, 0x3
800024e8: a16080e7     	jalr	-0x5ea(ra) <lab7_kernel_task2::pte_to_pa::hf68a11d477bbd38c>
800024ec: 85aa         	mv	a1, a0
800024ee: 6542         	ld	a0, 0x10(sp)
800024f0: e02e         	sd	a1, 0x0(sp)
800024f2: fffff097     	auipc	ra, 0xfffff
800024f6: d54080e7     	jalr	-0x2ac(ra) <lab7_kernel_task2::page_offset::h3961df09dad86938>
800024fa: 6582         	ld	a1, 0x0(sp)
800024fc: 952e         	add	a0, a0, a1
800024fe: e42a         	sd	a0, 0x8(sp)
80002500: 02b56163     	bltu	a0, a1, 0x80002522 <.Lpcrel_hi186>
80002504: a009         	j	0x80002506 <.Lpcrel_hi184+0x46>
80002506: 65e2         	ld	a1, 0x18(sp)
80002508: 6522         	ld	a0, 0x8(sp)
8000250a: f8aa         	sd	a0, 0x70(sp)

000000008000250c <.Lpcrel_hi185>:
8000250c: 00006617     	auipc	a2, 0x6
80002510: b5460613     	addi	a2, a2, -0x4ac
80002514: ffffe097     	auipc	ra, 0xffffe
80002518: 1ba080e7     	jalr	0x1ba(ra) <core::ptr::write_volatile::h239ebaa0db9a80bd>
8000251c: 70e6         	ld	ra, 0x78(sp)
8000251e: 6109         	addi	sp, sp, 0x80
80002520: 8082         	ret

0000000080002522 <.Lpcrel_hi186>:
80002522: 00006517     	auipc	a0, 0x6
80002526: b2650513     	addi	a0, a0, -0x4da
8000252a: 00004097     	auipc	ra, 0x4
8000252e: 1fa080e7     	jalr	0x1fa(ra) <core::panicking::panic_const::panic_const_add_overflow::h67cba067093910f8>

0000000080002532 <lab7_kernel_task2::dev_l0_table_pa::h6a1620ba400b1a1d>:
80002532: 00011517     	auipc	a0, 0x11
80002536: ace50513     	addi	a0, a0, -0x532
8000253a: 8082         	ret

000000008000253c <lab7_kernel_task2::activate_process::h2d7daf4db990d1a8>:
8000253c: 1101         	addi	sp, sp, -0x20
8000253e: 85aa         	mv	a1, a0
80002540: e42e         	sd	a1, 0x8(sp)
80002542: e82e         	sd	a1, 0x10(sp)
80002544: 4505         	li	a0, 0x1
80002546: 00b56963     	bltu	a0, a1, 0x80002558 <.Lpcrel_hi188+0xc>
8000254a: a009         	j	0x8000254c <.Lpcrel_hi188>

000000008000254c <.Lpcrel_hi188>:
8000254c: 00008517     	auipc	a0, 0x8
80002550: b1c50513     	addi	a0, a0, -0x4e4
80002554: ed01         	bnez	a0, 0x8000256c <.Lpcrel_hi189+0x12>
80002556: a82d         	j	0x80002590 <.Lpcrel_hi191>
80002558: 6522         	ld	a0, 0x8(sp)

000000008000255a <.Lpcrel_hi189>:
8000255a: 00006597     	auipc	a1, 0x6
8000255e: b1e58613     	addi	a2, a1, -0x4e2
80002562: 4589         	li	a1, 0x2
80002564: 00004097     	auipc	ra, 0x4
80002568: 256080e7     	jalr	0x256(ra) <core::panicking::panic_bounds_check::h6aaee0d15e0261eb>
8000256c: 6522         	ld	a0, 0x8(sp)
8000256e: 00551593     	slli	a1, a0, 0x5
80002572: 0526         	slli	a0, a0, 0x9
80002574: 95aa         	add	a1, a1, a0

0000000080002576 <.Lpcrel_hi190>:
80002576: 00008517     	auipc	a0, 0x8
8000257a: af250513     	addi	a0, a0, -0x50e
8000257e: 952e         	add	a0, a0, a1
80002580: 6508         	ld	a0, 0x8(a0)
80002582: ec2a         	sd	a0, 0x18(sp)
80002584: 18051073     	csrw	satp, a0
80002588: 12000073     	sfence.vma
8000258c: 6105         	addi	sp, sp, 0x20
8000258e: 8082         	ret

0000000080002590 <.Lpcrel_hi191>:
80002590: 00006517     	auipc	a0, 0x6
80002594: ae850513     	addi	a0, a0, -0x518
80002598: 00004097     	auipc	ra, 0x4
8000259c: 28e080e7     	jalr	0x28e(ra) <core::panicking::panic_null_pointer_dereference::hbac6411af4f2e916>

00000000800025a0 <lab7_kernel_task2::clear_page_table::h0d9394942758d3cd>:
800025a0: 711d         	addi	sp, sp, -0x60
800025a2: ec86         	sd	ra, 0x58(sp)
800025a4: f02a         	sd	a0, 0x20(sp)
800025a6: e4aa         	sd	a0, 0x48(sp)
800025a8: 4501         	li	a0, 0x0
800025aa: 20000593     	li	a1, 0x200
800025ae: ffffe097     	auipc	ra, 0xffffe
800025b2: c0e080e7     	jalr	-0x3f2(ra) <_$LT$I$u20$as$u20$core..iter..traits..collect..IntoIterator$GT$::into_iter::hb8f52e27760293d8>
800025b6: f42a         	sd	a0, 0x28(sp)
800025b8: f82e         	sd	a1, 0x30(sp)
800025ba: a009         	j	0x800025bc <lab7_kernel_task2::clear_page_table::h0d9394942758d3cd+0x1c>
800025bc: 1028         	addi	a0, sp, 0x28
800025be: ffffe097     	auipc	ra, 0xffffe
800025c2: bea080e7     	jalr	-0x416(ra) <core::iter::range::_$LT$impl$u20$core..iter..traits..iterator..Iterator$u20$for$u20$core..ops..range..Range$LT$A$GT$$GT$::next::hebf4fa418202f819>
800025c6: fc2a         	sd	a0, 0x38(sp)
800025c8: e0ae         	sd	a1, 0x40(sp)
800025ca: 7562         	ld	a0, 0x38(sp)
800025cc: 8905         	andi	a0, a0, 0x1
800025ce: cd01         	beqz	a0, 0x800025e6 <lab7_kernel_task2::clear_page_table::h0d9394942758d3cd+0x46>
800025d0: a009         	j	0x800025d2 <lab7_kernel_task2::clear_page_table::h0d9394942758d3cd+0x32>
800025d2: 6506         	ld	a0, 0x40(sp)
800025d4: e82a         	sd	a0, 0x10(sp)
800025d6: e8aa         	sd	a0, 0x50(sp)
800025d8: 20000593     	li	a1, 0x200
800025dc: 862a         	mv	a2, a0
800025de: ec32         	sd	a2, 0x18(sp)
800025e0: 00b56663     	bltu	a0, a1, 0x800025ec <lab7_kernel_task2::clear_page_table::h0d9394942758d3cd+0x4c>
800025e4: a811         	j	0x800025f8 <lab7_kernel_task2::clear_page_table::h0d9394942758d3cd+0x58>
800025e6: 60e6         	ld	ra, 0x58(sp)
800025e8: 6125         	addi	sp, sp, 0x60
800025ea: 8082         	ret
800025ec: 7502         	ld	a0, 0x20(sp)
800025ee: 85aa         	mv	a1, a0
800025f0: 1552         	slli	a0, a0, 0x34
800025f2: e42e         	sd	a1, 0x8(sp)
800025f4: cd09         	beqz	a0, 0x8000260e <.Lpcrel_hi192+0x14>
800025f6: a839         	j	0x80002614 <.Lpcrel_hi192+0x1a>
800025f8: 6562         	ld	a0, 0x18(sp)

00000000800025fa <.Lpcrel_hi192>:
800025fa: 00006597     	auipc	a1, 0x6
800025fe: a9658613     	addi	a2, a1, -0x56a
80002602: 20000593     	li	a1, 0x200
80002606: 00004097     	auipc	ra, 0x4
8000260a: 1b4080e7     	jalr	0x1b4(ra) <core::panicking::panic_bounds_check::h6aaee0d15e0261eb>
8000260e: 7502         	ld	a0, 0x20(sp)
80002610: ed01         	bnez	a0, 0x80002628 <.Lpcrel_hi193+0x12>
80002612: a015         	j	0x80002636 <.Lpcrel_hi194>
80002614: 65a2         	ld	a1, 0x8(sp)

0000000080002616 <.Lpcrel_hi193>:
80002616: 00006517     	auipc	a0, 0x6
8000261a: a7a50613     	addi	a2, a0, -0x586
8000261e: 6505         	lui	a0, 0x1
80002620: 00004097     	auipc	ra, 0x4
80002624: 226080e7     	jalr	0x226(ra) <core::panicking::panic_misaligned_pointer_dereference::hda85f7fb51d959f0>
80002628: 7502         	ld	a0, 0x20(sp)
8000262a: 65c2         	ld	a1, 0x10(sp)
8000262c: 058e         	slli	a1, a1, 0x3
8000262e: 95aa         	add	a1, a1, a0
80002630: 4501         	li	a0, 0x0
80002632: e188         	sd	a0, 0x0(a1)
80002634: b761         	j	0x800025bc <lab7_kernel_task2::clear_page_table::h0d9394942758d3cd+0x1c>

0000000080002636 <.Lpcrel_hi194>:
80002636: 00006517     	auipc	a0, 0x6
8000263a: a5a50513     	addi	a0, a0, -0x5a6
8000263e: 00004097     	auipc	ra, 0x4
80002642: 1e8080e7     	jalr	0x1e8(ra) <core::panicking::panic_null_pointer_dereference::hbac6411af4f2e916>

0000000080002646 <lab7_kernel_task2::kernel_stack_top::h2c36350df6fe0006>:
80002646: 0001f517     	auipc	a0, 0x1f
8000264a: 9ba50513     	addi	a0, a0, -0x646
8000264e: 8082         	ret

0000000080002650 <lab7_kernel_task2::user_program_len::h9d234b24322306fb>:
80002650: fffff517     	auipc	a0, 0xfffff
80002654: 8c050593     	addi	a1, a0, -0x740

0000000080002658 <.Lpcrel_hi197>:
80002658: fffff517     	auipc	a0, 0xfffff
8000265c: 93c50513     	addi	a0, a0, -0x6c4
80002660: 00b56d63     	bltu	a0, a1, 0x8000267a <.Lpcrel_hi200>
80002664: a009         	j	0x80002666 <.Lpcrel_hi198>

0000000080002666 <.Lpcrel_hi198>:
80002666: fffff517     	auipc	a0, 0xfffff
8000266a: 8aa50593     	addi	a1, a0, -0x756

000000008000266e <.Lpcrel_hi199>:
8000266e: fffff517     	auipc	a0, 0xfffff
80002672: 92650513     	addi	a0, a0, -0x6da
80002676: 8d0d         	sub	a0, a0, a1
80002678: 8082         	ret

000000008000267a <.Lpcrel_hi200>:
8000267a: 00006517     	auipc	a0, 0x6
8000267e: a2e50513     	addi	a0, a0, -0x5d2
80002682: 00004097     	auipc	ra, 0x4
80002686: 0fc080e7     	jalr	0xfc(ra) <core::panicking::panic_const::panic_const_sub_overflow::hccc965ba9198de7c>

000000008000268a <lab7_kernel_task2::copy_user_program::hf100ba52aa655911>:
8000268a: 711d         	addi	sp, sp, -0x60
8000268c: ec86         	sd	ra, 0x58(sp)
8000268e: 00000097     	auipc	ra, 0x0
80002692: fc2080e7     	jalr	-0x3e(ra) <lab7_kernel_task2::user_program_len::h9d234b24322306fb>
80002696: 85aa         	mv	a1, a0

0000000080002698 <.Lpcrel_hi201>:
80002698: fffff517     	auipc	a0, 0xfffff
8000269c: 87850513     	addi	a0, a0, -0x788

00000000800026a0 <.Lpcrel_hi202>:
800026a0: 00006617     	auipc	a2, 0x6
800026a4: a2060613     	addi	a2, a2, -0x5e0
800026a8: 00003097     	auipc	ra, 0x3
800026ac: 014080e7     	jalr	0x14(ra) <core::slice::raw::from_raw_parts::h50b0ab4a1f26872a>
800026b0: e42a         	sd	a0, 0x8(sp)
800026b2: 872e         	mv	a4, a1
800026b4: e83a         	sd	a4, 0x10(sp)
800026b6: ec2a         	sd	a0, 0x18(sp)
800026b8: f03a         	sd	a4, 0x20(sp)
800026ba: e4aa         	sd	a0, 0x48(sp)
800026bc: e8ba         	sd	a4, 0x50(sp)

00000000800026be <.Lpcrel_hi203>:
800026be: 00009597     	auipc	a1, 0x9
800026c2: 94258593     	addi	a1, a1, -0x6be
800026c6: e02e         	sd	a1, 0x0(sp)
800026c8: e0ae         	sd	a1, 0x40(sp)
800026ca: f42a         	sd	a0, 0x28(sp)
800026cc: f82e         	sd	a1, 0x30(sp)
800026ce: fc3a         	sd	a4, 0x38(sp)

00000000800026d0 <.Lpcrel_hi204>:
800026d0: 00006617     	auipc	a2, 0x6
800026d4: 54060793     	addi	a5, a2, 0x540
800026d8: 4685         	li	a3, 0x1
800026da: 8636         	mv	a2, a3
800026dc: ffffe097     	auipc	ra, 0xffffe
800026e0: a08080e7     	jalr	-0x5f8(ra) <core::ptr::copy_nonoverlapping::precondition_check::hfd3820c5a907079e>
800026e4: 6502         	ld	a0, 0x0(sp)
800026e6: 65a2         	ld	a1, 0x8(sp)
800026e8: 6642         	ld	a2, 0x10(sp)
800026ea: 00004097     	auipc	ra, 0x4
800026ee: 306080e7     	jalr	0x306(ra) <memcpy>
800026f2: 60e6         	ld	ra, 0x58(sp)
800026f4: 6125         	addi	sp, sp, 0x60
800026f6: 8082         	ret

00000000800026f8 <lab7_kernel_task2::finish_experiment::hac60dddfda6a143b>:
800026f8: b3010113     	addi	sp, sp, -0x4d0
800026fc: 4c113423     	sd	ra, 0x4c8(sp)

0000000080002700 <.Lpcrel_hi205>:
80002700: 0000a517     	auipc	a0, 0xa
80002704: 90050513     	addi	a0, a0, -0x700
80002708: cd0d         	beqz	a0, 0x80002742 <.Lpcrel_hi208>
8000270a: a009         	j	0x8000270c <.Lpcrel_hi206>

000000008000270c <.Lpcrel_hi206>:
8000270c: 0000a517     	auipc	a0, 0xa
80002710: 8f450513     	addi	a0, a0, -0x70c
80002714: f0aa         	sd	a0, 0x60(sp)
80002716: 7d0c         	ld	a1, 0x38(a0)
80002718: f12e         	sd	a1, 0xa0(sp)
8000271a: 790c         	ld	a1, 0x30(a0)
8000271c: ed2e         	sd	a1, 0x98(sp)
8000271e: 750c         	ld	a1, 0x28(a0)
80002720: e92e         	sd	a1, 0x90(sp)
80002722: 710c         	ld	a1, 0x20(a0)
80002724: e52e         	sd	a1, 0x88(sp)
80002726: 6d0c         	ld	a1, 0x18(a0)
80002728: e12e         	sd	a1, 0x80(sp)
8000272a: 690c         	ld	a1, 0x10(a0)
8000272c: fcae         	sd	a1, 0x78(sp)
8000272e: 650c         	ld	a1, 0x8(a0)
80002730: f8ae         	sd	a1, 0x70(sp)
80002732: 6108         	ld	a0, 0x0(a0)
80002734: f4aa         	sd	a0, 0x68(sp)

0000000080002736 <.Lpcrel_hi207>:
80002736: 00008517     	auipc	a0, 0x8
8000273a: 8d250513     	addi	a0, a0, -0x72e
8000273e: e911         	bnez	a0, 0x80002752 <.Lpcrel_hi209>
80002740: a621         	j	0x80002a48 <.Lpcrel_hi213>

0000000080002742 <.Lpcrel_hi208>:
80002742: 00006517     	auipc	a0, 0x6
80002746: 99650513     	addi	a0, a0, -0x66a
8000274a: 00004097     	auipc	ra, 0x4
8000274e: 0dc080e7     	jalr	0xdc(ra) <core::panicking::panic_null_pointer_dereference::hbac6411af4f2e916>

0000000080002752 <.Lpcrel_hi209>:
80002752: 00008517     	auipc	a0, 0x8
80002756: 8b650593     	addi	a1, a0, -0x74a
8000275a: 1128         	addi	a0, sp, 0xa8
8000275c: ecaa         	sd	a0, 0x58(sp)
8000275e: 06000613     	li	a2, 0x60
80002762: 00004097     	auipc	ra, 0x4
80002766: 28e080e7     	jalr	0x28e(ra) <memcpy>
8000276a: 4501         	li	a0, 0x0
8000276c: e8aa         	sd	a0, 0x50(sp)
8000276e: 004015b7     	lui	a1, 0x401
80002772: e4ae         	sd	a1, 0x48(sp)
80002774: 00000097     	auipc	ra, 0x0
80002778: bd2080e7     	jalr	-0x42e(ra) <lab7_kernel_task2::read_user_u64::haebbf8f29c2afb1c>
8000277c: 65a6         	ld	a1, 0x48(sp)
8000277e: 862a         	mv	a2, a0
80002780: 6546         	ld	a0, 0x50(sp)
80002782: e632         	sd	a2, 0x108(sp)
80002784: 05a1         	addi	a1, a1, 0x8
80002786: 00000097     	auipc	ra, 0x0
8000278a: bc0080e7     	jalr	-0x440(ra) <lab7_kernel_task2::read_user_u64::haebbf8f29c2afb1c>
8000278e: 66e6         	ld	a3, 0x58(sp)
80002790: ea2a         	sd	a0, 0x110(sp)
80002792: 1910         	addi	a2, sp, 0xb0
80002794: 192c         	addi	a1, sp, 0xb8
80002796: 0188         	addi	a0, sp, 0xc0
80002798: ee36         	sd	a3, 0x118(sp)
8000279a: f232         	sd	a2, 0x120(sp)
8000279c: f62e         	sd	a1, 0x128(sp)
8000279e: fa2a         	sd	a0, 0x130(sp)
800027a0: 65f2         	ld	a1, 0x118(sp)
800027a2: 1aa8         	addi	a0, sp, 0x178
800027a4: ffffe097     	auipc	ra, 0xffffe
800027a8: 2b2080e7     	jalr	0x2b2(ra) <core::fmt::rt::Argument::new_display::h0f8d4721c9a89fbb>
800027ac: 7592         	ld	a1, 0x120(sp)
800027ae: 0328         	addi	a0, sp, 0x188
800027b0: ffffe097     	auipc	ra, 0xffffe
800027b4: 2a6080e7     	jalr	0x2a6(ra) <core::fmt::rt::Argument::new_display::h0f8d4721c9a89fbb>
800027b8: 75b2         	ld	a1, 0x128(sp)
800027ba: 0b28         	addi	a0, sp, 0x198
800027bc: ffffe097     	auipc	ra, 0xffffe
800027c0: 29a080e7     	jalr	0x29a(ra) <core::fmt::rt::Argument::new_display::h0f8d4721c9a89fbb>
800027c4: 75d2         	ld	a1, 0x130(sp)
800027c6: 1328         	addi	a0, sp, 0x1a8
800027c8: ffffe097     	auipc	ra, 0xffffe
800027cc: 28e080e7     	jalr	0x28e(ra) <core::fmt::rt::Argument::new_display::h0f8d4721c9a89fbb>
800027d0: 651a         	ld	a0, 0x180(sp)
800027d2: e2aa         	sd	a0, 0x140(sp)
800027d4: 7576         	ld	a0, 0x178(sp)
800027d6: fe2a         	sd	a0, 0x138(sp)
800027d8: 655a         	ld	a0, 0x190(sp)
800027da: eaaa         	sd	a0, 0x150(sp)
800027dc: 653a         	ld	a0, 0x188(sp)
800027de: e6aa         	sd	a0, 0x148(sp)
800027e0: 751a         	ld	a0, 0x1a0(sp)
800027e2: f2aa         	sd	a0, 0x160(sp)
800027e4: 657a         	ld	a0, 0x198(sp)
800027e6: eeaa         	sd	a0, 0x158(sp)
800027e8: 755a         	ld	a0, 0x1b0(sp)
800027ea: faaa         	sd	a0, 0x170(sp)
800027ec: 753a         	ld	a0, 0x1a8(sp)
800027ee: f6aa         	sd	a0, 0x168(sp)

00000000800027f0 <.Lpcrel_hi210>:
800027f0: 00005517     	auipc	a0, 0x5
800027f4: b2c50513     	addi	a0, a0, -0x4d4
800027f8: 1a2c         	addi	a1, sp, 0x138
800027fa: ffffe097     	auipc	ra, 0xffffe
800027fe: a62080e7     	jalr	-0x59e(ra) <core::fmt::Arguments::new::h2774848715ab8d7f>
80002802: 00003097     	auipc	ra, 0x3
80002806: 022080e7     	jalr	0x22(ra) <lab7_kernel_task2::console::print::h0d70eb8228e543e8>
8000280a: 0c810893     	addi	a7, sp, 0xc8
8000280e: 0d010813     	addi	a6, sp, 0xd0
80002812: 09bc         	addi	a5, sp, 0xd8
80002814: 1198         	addi	a4, sp, 0xe0
80002816: 11b4         	addi	a3, sp, 0xe8
80002818: 1990         	addi	a2, sp, 0xf0
8000281a: 19ac         	addi	a1, sp, 0xf8
8000281c: 0208         	addi	a0, sp, 0x100
8000281e: ff46         	sd	a7, 0x1b8(sp)
80002820: e3c2         	sd	a6, 0x1c0(sp)
80002822: e7be         	sd	a5, 0x1c8(sp)
80002824: ebba         	sd	a4, 0x1d0(sp)
80002826: efb6         	sd	a3, 0x1d8(sp)
80002828: f3b2         	sd	a2, 0x1e0(sp)
8000282a: f7ae         	sd	a1, 0x1e8(sp)
8000282c: fbaa         	sd	a0, 0x1f0(sp)
8000282e: 75fa         	ld	a1, 0x1b8(sp)
80002830: 1ca8         	addi	a0, sp, 0x278
80002832: ffffe097     	auipc	ra, 0xffffe
80002836: 2f0080e7     	jalr	0x2f0(ra) <core::fmt::rt::Argument::new_lower_hex::hc9324aa1f0e7ff53>
8000283a: 659e         	ld	a1, 0x1c0(sp)
8000283c: 0528         	addi	a0, sp, 0x288
8000283e: ffffe097     	auipc	ra, 0xffffe
80002842: 2e4080e7     	jalr	0x2e4(ra) <core::fmt::rt::Argument::new_lower_hex::hc9324aa1f0e7ff53>
80002846: 65be         	ld	a1, 0x1c8(sp)
80002848: 0d28         	addi	a0, sp, 0x298
8000284a: ffffe097     	auipc	ra, 0xffffe
8000284e: 2d8080e7     	jalr	0x2d8(ra) <core::fmt::rt::Argument::new_lower_hex::hc9324aa1f0e7ff53>
80002852: 65de         	ld	a1, 0x1d0(sp)
80002854: 1528         	addi	a0, sp, 0x2a8
80002856: ffffe097     	auipc	ra, 0xffffe
8000285a: 2cc080e7     	jalr	0x2cc(ra) <core::fmt::rt::Argument::new_lower_hex::hc9324aa1f0e7ff53>
8000285e: 65fe         	ld	a1, 0x1d8(sp)
80002860: 1d28         	addi	a0, sp, 0x2b8
80002862: ffffe097     	auipc	ra, 0xffffe
80002866: 2c0080e7     	jalr	0x2c0(ra) <core::fmt::rt::Argument::new_lower_hex::hc9324aa1f0e7ff53>
8000286a: 759e         	ld	a1, 0x1e0(sp)
8000286c: 05a8         	addi	a0, sp, 0x2c8
8000286e: ffffe097     	auipc	ra, 0xffffe
80002872: 2b4080e7     	jalr	0x2b4(ra) <core::fmt::rt::Argument::new_lower_hex::hc9324aa1f0e7ff53>
80002876: 75be         	ld	a1, 0x1e8(sp)
80002878: 0da8         	addi	a0, sp, 0x2d8
8000287a: ffffe097     	auipc	ra, 0xffffe
8000287e: 2a8080e7     	jalr	0x2a8(ra) <core::fmt::rt::Argument::new_lower_hex::hc9324aa1f0e7ff53>
80002882: 75de         	ld	a1, 0x1f0(sp)
80002884: 15a8         	addi	a0, sp, 0x2e8
80002886: ffffe097     	auipc	ra, 0xffffe
8000288a: 29c080e7     	jalr	0x29c(ra) <core::fmt::rt::Argument::new_lower_hex::hc9324aa1f0e7ff53>
8000288e: 28013503     	ld	a0, 0x280(sp)
80002892: 20a13023     	sd	a0, 0x200(sp)
80002896: 27813503     	ld	a0, 0x278(sp)
8000289a: ffaa         	sd	a0, 0x1f8(sp)
8000289c: 29013503     	ld	a0, 0x290(sp)
800028a0: 20a13823     	sd	a0, 0x210(sp)
800028a4: 28813503     	ld	a0, 0x288(sp)
800028a8: 20a13423     	sd	a0, 0x208(sp)
800028ac: 2a013503     	ld	a0, 0x2a0(sp)
800028b0: 22a13023     	sd	a0, 0x220(sp)
800028b4: 29813503     	ld	a0, 0x298(sp)
800028b8: 20a13c23     	sd	a0, 0x218(sp)
800028bc: 2b013503     	ld	a0, 0x2b0(sp)
800028c0: 22a13823     	sd	a0, 0x230(sp)
800028c4: 2a813503     	ld	a0, 0x2a8(sp)
800028c8: 22a13423     	sd	a0, 0x228(sp)
800028cc: 2c013503     	ld	a0, 0x2c0(sp)
800028d0: 24a13023     	sd	a0, 0x240(sp)
800028d4: 2b813503     	ld	a0, 0x2b8(sp)
800028d8: 22a13c23     	sd	a0, 0x238(sp)
800028dc: 2d013503     	ld	a0, 0x2d0(sp)
800028e0: 24a13823     	sd	a0, 0x250(sp)
800028e4: 2c813503     	ld	a0, 0x2c8(sp)
800028e8: 24a13423     	sd	a0, 0x248(sp)
800028ec: 2e013503     	ld	a0, 0x2e0(sp)
800028f0: 26a13023     	sd	a0, 0x260(sp)
800028f4: 2d813503     	ld	a0, 0x2d8(sp)
800028f8: 24a13c23     	sd	a0, 0x258(sp)
800028fc: 2f013503     	ld	a0, 0x2f0(sp)
80002900: 26a13823     	sd	a0, 0x270(sp)
80002904: 2e813503     	ld	a0, 0x2e8(sp)
80002908: 26a13423     	sd	a0, 0x268(sp)

000000008000290c <.Lpcrel_hi211>:
8000290c: 00005517     	auipc	a0, 0x5
80002910: 7fc50513     	addi	a0, a0, 0x7fc
80002914: 1bac         	addi	a1, sp, 0x1f8
80002916: ffffe097     	auipc	ra, 0xffffe
8000291a: 9be080e7     	jalr	-0x642(ra) <core::fmt::Arguments::new::hb0d8ac083c416727>
8000291e: 00003097     	auipc	ra, 0x3
80002922: f06080e7     	jalr	-0xfa(ra) <lab7_kernel_task2::console::print::h0d70eb8228e543e8>
80002926: 18b4         	addi	a3, sp, 0x78
80002928: 0110         	addi	a2, sp, 0x80
8000292a: 012c         	addi	a1, sp, 0x88
8000292c: 0908         	addi	a0, sp, 0x90
8000292e: 10b8         	addi	a4, sp, 0x68
80002930: 2ee13c23     	sd	a4, 0x2f8(sp)
80002934: 30d13023     	sd	a3, 0x300(sp)
80002938: 30c13423     	sd	a2, 0x308(sp)
8000293c: 30b13823     	sd	a1, 0x310(sp)
80002940: 30a13c23     	sd	a0, 0x318(sp)
80002944: 0228         	addi	a0, sp, 0x108
80002946: 32a13023     	sd	a0, 0x320(sp)
8000294a: 0a08         	addi	a0, sp, 0x110
8000294c: 32a13423     	sd	a0, 0x328(sp)
80002950: 2f813583     	ld	a1, 0x2f8(sp)
80002954: 1708         	addi	a0, sp, 0x3a0
80002956: ffffe097     	auipc	ra, 0xffffe
8000295a: 100080e7     	jalr	0x100(ra) <core::fmt::rt::Argument::new_display::h0f8d4721c9a89fbb>
8000295e: 30013583     	ld	a1, 0x300(sp)
80002962: 1f08         	addi	a0, sp, 0x3b0
80002964: ffffe097     	auipc	ra, 0xffffe
80002968: 0f2080e7     	jalr	0xf2(ra) <core::fmt::rt::Argument::new_display::h0f8d4721c9a89fbb>
8000296c: 30813583     	ld	a1, 0x308(sp)
80002970: 0788         	addi	a0, sp, 0x3c0
80002972: ffffe097     	auipc	ra, 0xffffe
80002976: 0e4080e7     	jalr	0xe4(ra) <core::fmt::rt::Argument::new_display::h0f8d4721c9a89fbb>
8000297a: 31013583     	ld	a1, 0x310(sp)
8000297e: 0f88         	addi	a0, sp, 0x3d0
80002980: ffffe097     	auipc	ra, 0xffffe
80002984: 0d6080e7     	jalr	0xd6(ra) <core::fmt::rt::Argument::new_display::h0f8d4721c9a89fbb>
80002988: 31813583     	ld	a1, 0x318(sp)
8000298c: 1788         	addi	a0, sp, 0x3e0
8000298e: ffffe097     	auipc	ra, 0xffffe
80002992: 0c8080e7     	jalr	0xc8(ra) <core::fmt::rt::Argument::new_display::h0f8d4721c9a89fbb>
80002996: 32013583     	ld	a1, 0x320(sp)
8000299a: 1f88         	addi	a0, sp, 0x3f0
8000299c: ffffe097     	auipc	ra, 0xffffe
800029a0: 0ba080e7     	jalr	0xba(ra) <core::fmt::rt::Argument::new_display::h0f8d4721c9a89fbb>
800029a4: 32813583     	ld	a1, 0x328(sp)
800029a8: 40010513     	addi	a0, sp, 0x400
800029ac: ffffe097     	auipc	ra, 0xffffe
800029b0: 0aa080e7     	jalr	0xaa(ra) <core::fmt::rt::Argument::new_display::h0f8d4721c9a89fbb>
800029b4: 3a813503     	ld	a0, 0x3a8(sp)
800029b8: 32a13c23     	sd	a0, 0x338(sp)
800029bc: 3a013503     	ld	a0, 0x3a0(sp)
800029c0: 32a13823     	sd	a0, 0x330(sp)
800029c4: 3b813503     	ld	a0, 0x3b8(sp)
800029c8: 34a13423     	sd	a0, 0x348(sp)
800029cc: 3b013503     	ld	a0, 0x3b0(sp)
800029d0: 34a13023     	sd	a0, 0x340(sp)
800029d4: 3c813503     	ld	a0, 0x3c8(sp)
800029d8: 34a13c23     	sd	a0, 0x358(sp)
800029dc: 3c013503     	ld	a0, 0x3c0(sp)
800029e0: 34a13823     	sd	a0, 0x350(sp)
800029e4: 3d813503     	ld	a0, 0x3d8(sp)
800029e8: 36a13423     	sd	a0, 0x368(sp)
800029ec: 3d013503     	ld	a0, 0x3d0(sp)
800029f0: 36a13023     	sd	a0, 0x360(sp)
800029f4: 3e813503     	ld	a0, 0x3e8(sp)
800029f8: 36a13c23     	sd	a0, 0x378(sp)
800029fc: 3e013503     	ld	a0, 0x3e0(sp)
80002a00: 36a13823     	sd	a0, 0x370(sp)
80002a04: 3f813503     	ld	a0, 0x3f8(sp)
80002a08: 38a13423     	sd	a0, 0x388(sp)
80002a0c: 3f013503     	ld	a0, 0x3f0(sp)
80002a10: 38a13023     	sd	a0, 0x380(sp)
80002a14: 40813503     	ld	a0, 0x408(sp)
80002a18: 38a13c23     	sd	a0, 0x398(sp)
80002a1c: 40013503     	ld	a0, 0x400(sp)
80002a20: 38a13823     	sd	a0, 0x390(sp)

0000000080002a24 <.Lpcrel_hi212>:
80002a24: 00005517     	auipc	a0, 0x5
80002a28: 96450513     	addi	a0, a0, -0x69c
80002a2c: 1e0c         	addi	a1, sp, 0x330
80002a2e: ffffe097     	auipc	ra, 0xffffe
80002a32: 838080e7     	jalr	-0x7c8(ra) <core::fmt::Arguments::new::h4ef54948aee36e6d>
80002a36: 00003097     	auipc	ra, 0x3
80002a3a: dee080e7     	jalr	-0x212(ra) <lab7_kernel_task2::console::print::h0d70eb8228e543e8>
80002a3e: 752a         	ld	a0, 0xa8(sp)
80002a40: 4585         	li	a1, 0x1
80002a42: 00b50f63     	beq	a0, a1, 0x80002a60 <.Lpcrel_hi213+0x18>
80002a46: a809         	j	0x80002a58 <.Lpcrel_hi213+0x10>

0000000080002a48 <.Lpcrel_hi213>:
80002a48: 00005517     	auipc	a0, 0x5
80002a4c: 6a850513     	addi	a0, a0, 0x6a8
80002a50: 00004097     	auipc	ra, 0x4
80002a54: dd6080e7     	jalr	-0x22a(ra) <core::panicking::panic_null_pointer_dereference::hbac6411af4f2e916>
80002a58: 4501         	li	a0, 0x0
80002a5a: 40a10aa3     	sb	a0, 0x415(sp)
80002a5e: a00d         	j	0x80002a80 <.Lpcrel_hi214+0xc>
80002a60: 754a         	ld	a0, 0xb0(sp)
80002a62: 4585         	li	a1, 0x1
80002a64: feb51ae3     	bne	a0, a1, 0x80002a58 <.Lpcrel_hi213+0x10>
80002a68: a009         	j	0x80002a6a <.Lpcrel_hi213+0x22>
80002a6a: 756a         	ld	a0, 0xb8(sp)
80002a6c: 4585         	li	a1, 0x1
80002a6e: feb515e3     	bne	a0, a1, 0x80002a58 <.Lpcrel_hi213+0x10>
80002a72: a009         	j	0x80002a74 <.Lpcrel_hi214>

0000000080002a74 <.Lpcrel_hi214>:
80002a74: 00007517     	auipc	a0, 0x7
80002a78: 5f450513     	addi	a0, a0, 0x5f4
80002a7c: ed09         	bnez	a0, 0x80002a96 <.Lpcrel_hi215>
80002a7e: a03d         	j	0x80002aac <.Lpcrel_hi216>
80002a80: 652e         	ld	a0, 0xc8(sp)
80002a82: e0aa         	sd	a0, 0x40(sp)
80002a84: 00001097     	auipc	ra, 0x1
80002a88: 8b2080e7     	jalr	-0x74e(ra) <lab7_kernel_task2::expected_resume_va::h6685059ee49bb5ea>
80002a8c: 85aa         	mv	a1, a0
80002a8e: 6506         	ld	a0, 0x40(sp)
80002a90: 02b50a63     	beq	a0, a1, 0x80002ac4 <.Lpcrel_hi216+0x18>
80002a94: a025         	j	0x80002abc <.Lpcrel_hi216+0x10>

0000000080002a96 <.Lpcrel_hi215>:
80002a96: 00007517     	auipc	a0, 0x7
80002a9a: 5d250513     	addi	a0, a0, 0x5d2
80002a9e: 21852503     	lw	a0, 0x218(a0)
80002aa2: 00153513     	seqz	a0, a0
80002aa6: 40a10aa3     	sb	a0, 0x415(sp)
80002aaa: bfd9         	j	0x80002a80 <.Lpcrel_hi214+0xc>

0000000080002aac <.Lpcrel_hi216>:
80002aac: 00005517     	auipc	a0, 0x5
80002ab0: 70c50513     	addi	a0, a0, 0x70c
80002ab4: 00004097     	auipc	ra, 0x4
80002ab8: d72080e7     	jalr	-0x28e(ra) <core::panicking::panic_null_pointer_dereference::hbac6411af4f2e916>
80002abc: 4501         	li	a0, 0x0
80002abe: 40a10b23     	sb	a0, 0x416(sp)
80002ac2: a049         	j	0x80002b44 <.Lpcrel_hi216+0x98>
80002ac4: 656e         	ld	a0, 0xd8(sp)
80002ac6: fc2a         	sd	a0, 0x38(sp)
80002ac8: 00001097     	auipc	ra, 0x1
80002acc: be8080e7     	jalr	-0x418(ra) <lab7_kernel_task2::expected_handler_va::h1bbf37d180f21fb9>
80002ad0: 85aa         	mv	a1, a0
80002ad2: 7562         	ld	a0, 0x38(sp)
80002ad4: feb514e3     	bne	a0, a1, 0x80002abc <.Lpcrel_hi216+0x10>
80002ad8: a009         	j	0x80002ada <.Lpcrel_hi216+0x2e>
80002ada: 750e         	ld	a0, 0xe0(sp)
80002adc: f82a         	sd	a0, 0x30(sp)
80002ade: 00001097     	auipc	ra, 0x1
80002ae2: 616080e7     	jalr	0x616(ra) <lab7_kernel_task2::expected_trampoline_va::h25c62e6f1aedfcb5>
80002ae6: 85aa         	mv	a1, a0
80002ae8: 7542         	ld	a0, 0x30(sp)
80002aea: fcb519e3     	bne	a0, a1, 0x80002abc <.Lpcrel_hi216+0x10>
80002aee: a009         	j	0x80002af0 <.Lpcrel_hi216+0x44>
80002af0: 752e         	ld	a0, 0xe8(sp)
80002af2: f42a         	sd	a0, 0x28(sp)
80002af4: 00001097     	auipc	ra, 0x1
80002af8: 600080e7     	jalr	0x600(ra) <lab7_kernel_task2::expected_trampoline_va::h25c62e6f1aedfcb5>
80002afc: 85aa         	mv	a1, a0
80002afe: 7522         	ld	a0, 0x28(sp)
80002b00: fab51ee3     	bne	a0, a1, 0x80002abc <.Lpcrel_hi216+0x10>
80002b04: a009         	j	0x80002b06 <.Lpcrel_hi216+0x5a>
80002b06: 754e         	ld	a0, 0xf0(sp)
80002b08: f02a         	sd	a0, 0x20(sp)
80002b0a: 00001097     	auipc	ra, 0x1
80002b0e: 82c080e7     	jalr	-0x7d4(ra) <lab7_kernel_task2::expected_resume_va::h6685059ee49bb5ea>
80002b12: 85aa         	mv	a1, a0
80002b14: 7502         	ld	a0, 0x20(sp)
80002b16: fab513e3     	bne	a0, a1, 0x80002abc <.Lpcrel_hi216+0x10>
80002b1a: a009         	j	0x80002b1c <.Lpcrel_hi216+0x70>
80002b1c: 756e         	ld	a0, 0xf8(sp)
80002b1e: ec2a         	sd	a0, 0x18(sp)
80002b20: 00001097     	auipc	ra, 0x1
80002b24: 816080e7     	jalr	-0x7ea(ra) <lab7_kernel_task2::expected_resume_va::h6685059ee49bb5ea>
80002b28: 85aa         	mv	a1, a0
80002b2a: 6562         	ld	a0, 0x18(sp)
80002b2c: f8b518e3     	bne	a0, a1, 0x80002abc <.Lpcrel_hi216+0x10>
80002b30: a009         	j	0x80002b32 <.Lpcrel_hi216+0x86>
80002b32: 6512         	ld	a0, 0x100(sp)
80002b34: 004045b7     	lui	a1, 0x404
80002b38: 8d2d         	xor	a0, a0, a1
80002b3a: 00153513     	seqz	a0, a0
80002b3e: 40a10b23     	sb	a0, 0x416(sp)
80002b42: a009         	j	0x80002b44 <.Lpcrel_hi216+0x98>
80002b44: 650e         	ld	a0, 0xc0(sp)
80002b46: 4585         	li	a1, 0x1
80002b48: 00b50763     	beq	a0, a1, 0x80002b56 <.Lpcrel_hi217>
80002b4c: a009         	j	0x80002b4e <.Lpcrel_hi216+0xa2>
80002b4e: 4501         	li	a0, 0x0
80002b50: 40a10ba3     	sb	a0, 0x417(sp)
80002b54: a8c5         	j	0x80002c44 <.Lpcrel_hi225+0x7a>

0000000080002b56 <.Lpcrel_hi217>:
80002b56: 00007517     	auipc	a0, 0x7
80002b5a: 51250513     	addi	a0, a0, 0x512
80002b5e: c919         	beqz	a0, 0x80002b74 <.Lpcrel_hi219>
80002b60: a009         	j	0x80002b62 <.Lpcrel_hi218>

0000000080002b62 <.Lpcrel_hi218>:
80002b62: 00007517     	auipc	a0, 0x7
80002b66: 50650513     	addi	a0, a0, 0x506
80002b6a: 21c54503     	lbu	a0, 0x21c(a0)
80002b6e: 8905         	andi	a0, a0, 0x1
80002b70: c911         	beqz	a0, 0x80002b84 <.Lpcrel_hi220>
80002b72: bff1         	j	0x80002b4e <.Lpcrel_hi216+0xa2>

0000000080002b74 <.Lpcrel_hi219>:
80002b74: 00005517     	auipc	a0, 0x5
80002b78: 65c50513     	addi	a0, a0, 0x65c
80002b7c: 00004097     	auipc	ra, 0x4
80002b80: caa080e7     	jalr	-0x356(ra) <core::panicking::panic_null_pointer_dereference::hbac6411af4f2e916>

0000000080002b84 <.Lpcrel_hi220>:
80002b84: 00007517     	auipc	a0, 0x7
80002b88: 4e450513     	addi	a0, a0, 0x4e4
80002b8c: c909         	beqz	a0, 0x80002b9e <.Lpcrel_hi222>
80002b8e: a009         	j	0x80002b90 <.Lpcrel_hi221>

0000000080002b90 <.Lpcrel_hi221>:
80002b90: 00007517     	auipc	a0, 0x7
80002b94: 4d850513     	addi	a0, a0, 0x4d8
80002b98: 6908         	ld	a0, 0x10(a0)
80002b9a: c911         	beqz	a0, 0x80002bae <.Lpcrel_hi223>
80002b9c: bf4d         	j	0x80002b4e <.Lpcrel_hi216+0xa2>

0000000080002b9e <.Lpcrel_hi222>:
80002b9e: 00005517     	auipc	a0, 0x5
80002ba2: 64a50513     	addi	a0, a0, 0x64a
80002ba6: 00004097     	auipc	ra, 0x4
80002baa: c80080e7     	jalr	-0x380(ra) <core::panicking::panic_null_pointer_dereference::hbac6411af4f2e916>

0000000080002bae <.Lpcrel_hi223>:
80002bae: 00007517     	auipc	a0, 0x7
80002bb2: 4ba50513     	addi	a0, a0, 0x4ba
80002bb6: c911         	beqz	a0, 0x80002bca <.Lpcrel_hi225>
80002bb8: a009         	j	0x80002bba <.Lpcrel_hi224>

0000000080002bba <.Lpcrel_hi224>:
80002bba: 00007517     	auipc	a0, 0x7
80002bbe: 4ae50513     	addi	a0, a0, 0x4ae
80002bc2: 23053503     	ld	a0, 0x230(a0)
80002bc6: c911         	beqz	a0, 0x80002bda <.Lpcrel_hi225+0x10>
80002bc8: b759         	j	0x80002b4e <.Lpcrel_hi216+0xa2>

0000000080002bca <.Lpcrel_hi225>:
80002bca: 00005517     	auipc	a0, 0x5
80002bce: 63650513     	addi	a0, a0, 0x636
80002bd2: 00004097     	auipc	ra, 0x4
80002bd6: c54080e7     	jalr	-0x3ac(ra) <core::panicking::panic_null_pointer_dereference::hbac6411af4f2e916>
80002bda: 7526         	ld	a0, 0x68(sp)
80002bdc: 4585         	li	a1, 0x1
80002bde: f6b518e3     	bne	a0, a1, 0x80002b4e <.Lpcrel_hi216+0xa2>
80002be2: a009         	j	0x80002be4 <.Lpcrel_hi225+0x1a>
80002be4: 7546         	ld	a0, 0x70(sp)
80002be6: 4585         	li	a1, 0x1
80002be8: f6b513e3     	bne	a0, a1, 0x80002b4e <.Lpcrel_hi216+0xa2>
80002bec: a009         	j	0x80002bee <.Lpcrel_hi225+0x24>
80002bee: 7566         	ld	a0, 0x78(sp)
80002bf0: 4589         	li	a1, 0x2
80002bf2: f4b51ee3     	bne	a0, a1, 0x80002b4e <.Lpcrel_hi216+0xa2>
80002bf6: a009         	j	0x80002bf8 <.Lpcrel_hi225+0x2e>
80002bf8: 650a         	ld	a0, 0x80(sp)
80002bfa: 4589         	li	a1, 0x2
80002bfc: f4b519e3     	bne	a0, a1, 0x80002b4e <.Lpcrel_hi216+0xa2>
80002c00: a009         	j	0x80002c02 <.Lpcrel_hi225+0x38>
80002c02: 652a         	ld	a0, 0x88(sp)
80002c04: 458d         	li	a1, 0x3
80002c06: f4b514e3     	bne	a0, a1, 0x80002b4e <.Lpcrel_hi216+0xa2>
80002c0a: a009         	j	0x80002c0c <.Lpcrel_hi225+0x42>
80002c0c: 654a         	ld	a0, 0x90(sp)
80002c0e: 45a9         	li	a1, 0xa
80002c10: f2b51fe3     	bne	a0, a1, 0x80002b4e <.Lpcrel_hi216+0xa2>
80002c14: a009         	j	0x80002c16 <.Lpcrel_hi225+0x4c>
80002c16: 750a         	ld	a0, 0xa0(sp)
80002c18: e82a         	sd	a0, 0x10(sp)
80002c1a: 00001097     	auipc	ra, 0x1
80002c1e: 4da080e7     	jalr	0x4da(ra) <lab7_kernel_task2::expected_trampoline_va::h25c62e6f1aedfcb5>
80002c22: 85aa         	mv	a1, a0
80002c24: 6542         	ld	a0, 0x10(sp)
80002c26: f2b514e3     	bne	a0, a1, 0x80002b4e <.Lpcrel_hi216+0xa2>
80002c2a: a009         	j	0x80002c2c <.Lpcrel_hi225+0x62>
80002c2c: 6532         	ld	a0, 0x108(sp)
80002c2e: 458d         	li	a1, 0x3
80002c30: f0b51fe3     	bne	a0, a1, 0x80002b4e <.Lpcrel_hi216+0xa2>
80002c34: a009         	j	0x80002c36 <.Lpcrel_hi225+0x6c>
80002c36: 6552         	ld	a0, 0x110(sp)
80002c38: 1559         	addi	a0, a0, -0xa
80002c3a: 00153513     	seqz	a0, a0
80002c3e: 40a10ba3     	sb	a0, 0x417(sp)
80002c42: a009         	j	0x80002c44 <.Lpcrel_hi225+0x7a>
80002c44: 41514503     	lbu	a0, 0x415(sp)
80002c48: 00002097     	auipc	ra, 0x2
80002c4c: 280080e7     	jalr	0x280(ra) <lab7_kernel_task2::pass_fail::h05a9436b376f2713>
80002c50: 40a13c23     	sd	a0, 0x418(sp)
80002c54: 42b13023     	sd	a1, 0x420(sp)
80002c58: 41810593     	addi	a1, sp, 0x418
80002c5c: 4ab13823     	sd	a1, 0x4b0(sp)
80002c60: 43810513     	addi	a0, sp, 0x438
80002c64: ffffe097     	auipc	ra, 0xffffe
80002c68: e7a080e7     	jalr	-0x186(ra) <core::fmt::rt::Argument::new_display::h8e90df567e7acf69>
80002c6c: 44013503     	ld	a0, 0x440(sp)
80002c70: 42a13823     	sd	a0, 0x430(sp)
80002c74: 43813503     	ld	a0, 0x438(sp)
80002c78: 42a13423     	sd	a0, 0x428(sp)

0000000080002c7c <.Lpcrel_hi226>:
80002c7c: 00004517     	auipc	a0, 0x4
80002c80: 3a050513     	addi	a0, a0, 0x3a0
80002c84: 42810593     	addi	a1, sp, 0x428
80002c88: ffffd097     	auipc	ra, 0xffffd
80002c8c: 5b6080e7     	jalr	0x5b6(ra) <core::fmt::Arguments::new::h1551d9f8050bf35d>
80002c90: 00003097     	auipc	ra, 0x3
80002c94: b94080e7     	jalr	-0x46c(ra) <lab7_kernel_task2::console::print::h0d70eb8228e543e8>
80002c98: 41614503     	lbu	a0, 0x416(sp)
80002c9c: 00002097     	auipc	ra, 0x2
80002ca0: 22c080e7     	jalr	0x22c(ra) <lab7_kernel_task2::pass_fail::h05a9436b376f2713>
80002ca4: 44a13423     	sd	a0, 0x448(sp)
80002ca8: 44b13823     	sd	a1, 0x450(sp)
80002cac: 44810593     	addi	a1, sp, 0x448
80002cb0: 4ab13c23     	sd	a1, 0x4b8(sp)
80002cb4: 46810513     	addi	a0, sp, 0x468
80002cb8: ffffe097     	auipc	ra, 0xffffe
80002cbc: e26080e7     	jalr	-0x1da(ra) <core::fmt::rt::Argument::new_display::h8e90df567e7acf69>
80002cc0: 47013503     	ld	a0, 0x470(sp)
80002cc4: 46a13023     	sd	a0, 0x460(sp)
80002cc8: 46813503     	ld	a0, 0x468(sp)
80002ccc: 44a13c23     	sd	a0, 0x458(sp)

0000000080002cd0 <.Lpcrel_hi227>:
80002cd0: 00004517     	auipc	a0, 0x4
80002cd4: 4d750513     	addi	a0, a0, 0x4d7
80002cd8: 45810593     	addi	a1, sp, 0x458
80002cdc: ffffd097     	auipc	ra, 0xffffd
80002ce0: 60c080e7     	jalr	0x60c(ra) <core::fmt::Arguments::new::he89a2fb84a39749e>
80002ce4: 00003097     	auipc	ra, 0x3
80002ce8: b40080e7     	jalr	-0x4c0(ra) <lab7_kernel_task2::console::print::h0d70eb8228e543e8>
80002cec: 41714503     	lbu	a0, 0x417(sp)
80002cf0: 00002097     	auipc	ra, 0x2
80002cf4: 1d8080e7     	jalr	0x1d8(ra) <lab7_kernel_task2::pass_fail::h05a9436b376f2713>
80002cf8: 46a13c23     	sd	a0, 0x478(sp)
80002cfc: 48b13023     	sd	a1, 0x480(sp)
80002d00: 47810593     	addi	a1, sp, 0x478
80002d04: 4cb13023     	sd	a1, 0x4c0(sp)
80002d08: 49810513     	addi	a0, sp, 0x498
80002d0c: ffffe097     	auipc	ra, 0xffffe
80002d10: dd2080e7     	jalr	-0x22e(ra) <core::fmt::rt::Argument::new_display::h8e90df567e7acf69>
80002d14: 4a013503     	ld	a0, 0x4a0(sp)
80002d18: 48a13823     	sd	a0, 0x490(sp)
80002d1c: 49813503     	ld	a0, 0x498(sp)
80002d20: 48a13423     	sd	a0, 0x488(sp)

0000000080002d24 <.Lpcrel_hi228>:
80002d24: 00004517     	auipc	a0, 0x4
80002d28: 36e50513     	addi	a0, a0, 0x36e
80002d2c: 48810593     	addi	a1, sp, 0x488
80002d30: ffffd097     	auipc	ra, 0xffffd
80002d34: 59a080e7     	jalr	0x59a(ra) <core::fmt::Arguments::new::ha7ddd57ab47cc6f3>
80002d38: 00003097     	auipc	ra, 0x3
80002d3c: aec080e7     	jalr	-0x514(ra) <lab7_kernel_task2::console::print::h0d70eb8228e543e8>
80002d40: 41514503     	lbu	a0, 0x415(sp)
80002d44: 8905         	andi	a0, a0, 0x1
80002d46: e511         	bnez	a0, 0x80002d52 <.Lpcrel_hi228+0x2e>
80002d48: a009         	j	0x80002d4a <.Lpcrel_hi228+0x26>
80002d4a: 4505         	li	a0, 0x1
80002d4c: 4aa12623     	sw	a0, 0x4ac(sp)
80002d50: a839         	j	0x80002d6e <.Lpcrel_hi228+0x4a>
80002d52: 41614503     	lbu	a0, 0x416(sp)
80002d56: 8905         	andi	a0, a0, 0x1
80002d58: d96d         	beqz	a0, 0x80002d4a <.Lpcrel_hi228+0x26>
80002d5a: a009         	j	0x80002d5c <.Lpcrel_hi228+0x38>
80002d5c: 41714503     	lbu	a0, 0x417(sp)
80002d60: 8905         	andi	a0, a0, 0x1
80002d62: d565         	beqz	a0, 0x80002d4a <.Lpcrel_hi228+0x26>
80002d64: a009         	j	0x80002d66 <.Lpcrel_hi228+0x42>
80002d66: 4501         	li	a0, 0x0
80002d68: 4aa12623     	sw	a0, 0x4ac(sp)
80002d6c: a009         	j	0x80002d6e <.Lpcrel_hi228+0x4a>
80002d6e: 4ac12503     	lw	a0, 0x4ac(sp)
80002d72: 00002097     	auipc	ra, 0x2
80002d76: 194080e7     	jalr	0x194(ra) <lab7_kernel_task2::qemu_exit::he8749ad0a6a46ff5>

0000000080002d7a <lab7_kernel_task2::handle_user_ecall::h87f9d00196abbac7>:
80002d7a: 7131         	addi	sp, sp, -0xc0
80002d7c: fd06         	sd	ra, 0xb8(sp)
80002d7e: ec2a         	sd	a0, 0x18(sp)
80002d80: 65e2         	ld	a1, 0x18(sp)
80002d82: 4505         	li	a0, 0x1
80002d84: 00b56963     	bltu	a0, a1, 0x80002d96 <.Lpcrel_hi229+0xc>
80002d88: a009         	j	0x80002d8a <.Lpcrel_hi229>

0000000080002d8a <.Lpcrel_hi229>:
80002d8a: 00007517     	auipc	a0, 0x7
80002d8e: 71e50513     	addi	a0, a0, 0x71e
80002d92: ed01         	bnez	a0, 0x80002daa <.Lpcrel_hi230+0x12>
80002d94: a815         	j	0x80002dc8 <.Lpcrel_hi232>
80002d96: 6562         	ld	a0, 0x18(sp)

0000000080002d98 <.Lpcrel_hi230>:
80002d98: 00005597     	auipc	a1, 0x5
80002d9c: 48058613     	addi	a2, a1, 0x480
80002da0: 4589         	li	a1, 0x2
80002da2: 00004097     	auipc	ra, 0x4
80002da6: a18080e7     	jalr	-0x5e8(ra) <core::panicking::panic_bounds_check::h6aaee0d15e0261eb>
80002daa: 6562         	ld	a0, 0x18(sp)
80002dac: 00851593     	slli	a1, a0, 0x8

0000000080002db0 <.Lpcrel_hi231>:
80002db0: 00007517     	auipc	a0, 0x7
80002db4: 6f850513     	addi	a0, a0, 0x6f8
80002db8: 952e         	add	a0, a0, a1
80002dba: 7d28         	ld	a0, 0x78(a0)
80002dbc: f82a         	sd	a0, 0x30(sp)
80002dbe: 6562         	ld	a0, 0x18(sp)
80002dc0: 4589         	li	a1, 0x2
80002dc2: 00b56b63     	bltu	a0, a1, 0x80002dd8 <.Lpcrel_hi233>
80002dc6: a839         	j	0x80002de4 <.Lpcrel_hi233+0xc>

0000000080002dc8 <.Lpcrel_hi232>:
80002dc8: 00005517     	auipc	a0, 0x5
80002dcc: 45050513     	addi	a0, a0, 0x450
80002dd0: 00004097     	auipc	ra, 0x4
80002dd4: a56080e7     	jalr	-0x5aa(ra) <core::panicking::panic_null_pointer_dereference::hbac6411af4f2e916>

0000000080002dd8 <.Lpcrel_hi233>:
80002dd8: 00007517     	auipc	a0, 0x7
80002ddc: 6d050513     	addi	a0, a0, 0x6d0
80002de0: ed01         	bnez	a0, 0x80002df8 <.Lpcrel_hi234+0x12>
80002de2: a815         	j	0x80002e16 <.Lpcrel_hi236>
80002de4: 6562         	ld	a0, 0x18(sp)

0000000080002de6 <.Lpcrel_hi234>:
80002de6: 00005597     	auipc	a1, 0x5
80002dea: 44a58613     	addi	a2, a1, 0x44a
80002dee: 4589         	li	a1, 0x2
80002df0: 00004097     	auipc	ra, 0x4
80002df4: 9ca080e7     	jalr	-0x636(ra) <core::panicking::panic_bounds_check::h6aaee0d15e0261eb>
80002df8: 6562         	ld	a0, 0x18(sp)
80002dfa: 00851593     	slli	a1, a0, 0x8

0000000080002dfe <.Lpcrel_hi235>:
80002dfe: 00007517     	auipc	a0, 0x7
80002e02: 6aa50513     	addi	a0, a0, 0x6aa
80002e06: 952e         	add	a0, a0, a1
80002e08: 7d6c         	ld	a1, 0xf8(a0)
80002e0a: 00458513     	addi	a0, a1, 0x4
80002e0e: e82a         	sd	a0, 0x10(sp)
80002e10: 02b56163     	bltu	a0, a1, 0x80002e32 <.Lpcrel_hi238>
80002e14: a809         	j	0x80002e26 <.Lpcrel_hi237>

0000000080002e16 <.Lpcrel_hi236>:
80002e16: 00005517     	auipc	a0, 0x5
80002e1a: 41a50513     	addi	a0, a0, 0x41a
80002e1e: 00004097     	auipc	ra, 0x4
80002e22: a08080e7     	jalr	-0x5f8(ra) <core::panicking::panic_null_pointer_dereference::hbac6411af4f2e916>

0000000080002e26 <.Lpcrel_hi237>:
80002e26: 00007517     	auipc	a0, 0x7
80002e2a: 68250513     	addi	a0, a0, 0x682
80002e2e: e911         	bnez	a0, 0x80002e42 <.Lpcrel_hi238+0x10>
80002e30: a0a1         	j	0x80002e78 <.Lpcrel_hi241>

0000000080002e32 <.Lpcrel_hi238>:
80002e32: 00005517     	auipc	a0, 0x5
80002e36: 3fe50513     	addi	a0, a0, 0x3fe
80002e3a: 00004097     	auipc	ra, 0x4
80002e3e: 8ea080e7     	jalr	-0x716(ra) <core::panicking::panic_const::panic_const_add_overflow::h67cba067093910f8>
80002e42: 6542         	ld	a0, 0x10(sp)
80002e44: 65e2         	ld	a1, 0x18(sp)
80002e46: 00859613     	slli	a2, a1, 0x8

0000000080002e4a <.Lpcrel_hi239>:
80002e4a: 00007597     	auipc	a1, 0x7
80002e4e: 65e58593     	addi	a1, a1, 0x65e
80002e52: 95b2         	add	a1, a1, a2
80002e54: fde8         	sd	a0, 0xf8(a1)
80002e56: 7542         	ld	a0, 0x30(sp)
80002e58: fff50593     	addi	a1, a0, -0x1
80002e5c: e42e         	sd	a1, 0x8(sp)
80002e5e: 4515         	li	a0, 0x5
80002e60: 02b56463     	bltu	a0, a1, 0x80002e88 <.Lpcrel_hi241+0x10>
80002e64: 6522         	ld	a0, 0x8(sp)
80002e66: 00351593     	slli	a1, a0, 0x3

0000000080002e6a <.Lpcrel_hi240>:
80002e6a: 00005517     	auipc	a0, 0x5
80002e6e: c0e50513     	addi	a0, a0, -0x3f2
80002e72: 952e         	add	a0, a0, a1
80002e74: 6108         	ld	a0, 0x0(a0)
80002e76: 8502         	jr	a0

0000000080002e78 <.Lpcrel_hi241>:
80002e78: 00005517     	auipc	a0, 0x5
80002e7c: 3b850513     	addi	a0, a0, 0x3b8
80002e80: 00004097     	auipc	ra, 0x4
80002e84: 9a6080e7     	jalr	-0x65a(ra) <core::panicking::panic_null_pointer_dereference::hbac6411af4f2e916>
80002e88: 6562         	ld	a0, 0x18(sp)
80002e8a: 4589         	li	a1, 0x2
80002e8c: 16b56563     	bltu	a0, a1, 0x80002ff6 <.Lpcrel_hi254>
80002e90: aa8d         	j	0x80003002 <.Lpcrel_hi254+0xc>
80002e92: 6562         	ld	a0, 0x18(sp)
80002e94: ffffe097     	auipc	ra, 0xffffe
80002e98: 3e8080e7     	jalr	0x3e8(ra) <lab7_kernel_task2::do_sigaction::h8c40cde638cdc105>
80002e9c: 6562         	ld	a0, 0x18(sp)
80002e9e: f42a         	sd	a0, 0x28(sp)
80002ea0: 4505         	li	a0, 0x1
80002ea2: f02a         	sd	a0, 0x20(sp)
80002ea4: a899         	j	0x80002efa <.Lpcrel_hi241+0x82>
80002ea6: 6562         	ld	a0, 0x18(sp)
80002ea8: 00002097     	auipc	ra, 0x2
80002eac: c74080e7     	jalr	-0x38c(ra) <lab7_kernel_task2::do_kill::hc645e2eb424b9204>
80002eb0: 6562         	ld	a0, 0x18(sp)
80002eb2: f42a         	sd	a0, 0x28(sp)
80002eb4: 4505         	li	a0, 0x1
80002eb6: f02a         	sd	a0, 0x20(sp)
80002eb8: a089         	j	0x80002efa <.Lpcrel_hi241+0x82>
80002eba: 6562         	ld	a0, 0x18(sp)
80002ebc: 00001097     	auipc	ra, 0x1
80002ec0: 25c080e7     	jalr	0x25c(ra) <lab7_kernel_task2::other_runnable_or_self::hc87d8aba0385e1f9>
80002ec4: f42a         	sd	a0, 0x28(sp)
80002ec6: 4505         	li	a0, 0x1
80002ec8: f02a         	sd	a0, 0x20(sp)
80002eca: a805         	j	0x80002efa <.Lpcrel_hi241+0x82>
80002ecc: 6562         	ld	a0, 0x18(sp)
80002ece: 00001097     	auipc	ra, 0x1
80002ed2: 8a4080e7     	jalr	-0x75c(ra) <lab7_kernel_task2::store_process_report::hc59841a44cbc16d9>
80002ed6: 6562         	ld	a0, 0x18(sp)
80002ed8: f42a         	sd	a0, 0x28(sp)
80002eda: 4505         	li	a0, 0x1
80002edc: f02a         	sd	a0, 0x20(sp)
80002ede: a831         	j	0x80002efa <.Lpcrel_hi241+0x82>
80002ee0: 6562         	ld	a0, 0x18(sp)
80002ee2: 4589         	li	a1, 0x2
80002ee4: 02b56063     	bltu	a0, a1, 0x80002f04 <.Lpcrel_hi242>
80002ee8: a025         	j	0x80002f10 <.Lpcrel_hi242+0xc>
80002eea: 6562         	ld	a0, 0x18(sp)
80002eec: ffffe097     	auipc	ra, 0xffffe
80002ef0: 5e8080e7     	jalr	0x5e8(ra) <lab7_kernel_task2::do_sigreturn::hc330ad69ac0e32b4>
80002ef4: f02a         	sd	a0, 0x20(sp)
80002ef6: f42e         	sd	a1, 0x28(sp)
80002ef8: a009         	j	0x80002efa <.Lpcrel_hi241+0x82>
80002efa: 7502         	ld	a0, 0x20(sp)
80002efc: 75a2         	ld	a1, 0x28(sp)
80002efe: 70ea         	ld	ra, 0xb8(sp)
80002f00: 6129         	addi	sp, sp, 0xc0
80002f02: 8082         	ret

0000000080002f04 <.Lpcrel_hi242>:
80002f04: 00007517     	auipc	a0, 0x7
80002f08: 16450513     	addi	a0, a0, 0x164
80002f0c: ed01         	bnez	a0, 0x80002f24 <.Lpcrel_hi243+0x12>
80002f0e: a81d         	j	0x80002f44 <.Lpcrel_hi245>
80002f10: 6562         	ld	a0, 0x18(sp)

0000000080002f12 <.Lpcrel_hi243>:
80002f12: 00005597     	auipc	a1, 0x5
80002f16: 33658613     	addi	a2, a1, 0x336
80002f1a: 4589         	li	a1, 0x2
80002f1c: 00004097     	auipc	ra, 0x4
80002f20: 89e080e7     	jalr	-0x762(ra) <core::panicking::panic_bounds_check::h6aaee0d15e0261eb>
80002f24: 6562         	ld	a0, 0x18(sp)
80002f26: 00551593     	slli	a1, a0, 0x5
80002f2a: 0526         	slli	a0, a0, 0x9
80002f2c: 95aa         	add	a1, a1, a0

0000000080002f2e <.Lpcrel_hi244>:
80002f2e: 00007517     	auipc	a0, 0x7
80002f32: 13a50513     	addi	a0, a0, 0x13a
80002f36: 952e         	add	a0, a0, a1
80002f38: 4589         	li	a1, 0x2
80002f3a: e10c         	sd	a1, 0x0(a0)
80002f3c: 6562         	ld	a0, 0x18(sp)
80002f3e: 00b56b63     	bltu	a0, a1, 0x80002f54 <.Lpcrel_hi246>
80002f42: a839         	j	0x80002f60 <.Lpcrel_hi246+0xc>

0000000080002f44 <.Lpcrel_hi245>:
80002f44: 00005517     	auipc	a0, 0x5
80002f48: 30450513     	addi	a0, a0, 0x304
80002f4c: 00004097     	auipc	ra, 0x4
80002f50: 8da080e7     	jalr	-0x726(ra) <core::panicking::panic_null_pointer_dereference::hbac6411af4f2e916>

0000000080002f54 <.Lpcrel_hi246>:
80002f54: 00007517     	auipc	a0, 0x7
80002f58: 55450513     	addi	a0, a0, 0x554
80002f5c: ed01         	bnez	a0, 0x80002f74 <.Lpcrel_hi247+0x12>
80002f5e: a80d         	j	0x80002f90 <.Lpcrel_hi249>
80002f60: 6562         	ld	a0, 0x18(sp)

0000000080002f62 <.Lpcrel_hi247>:
80002f62: 00005597     	auipc	a1, 0x5
80002f66: 2fe58613     	addi	a2, a1, 0x2fe
80002f6a: 4589         	li	a1, 0x2
80002f6c: 00004097     	auipc	ra, 0x4
80002f70: 84e080e7     	jalr	-0x7b2(ra) <core::panicking::panic_bounds_check::h6aaee0d15e0261eb>
80002f74: 6562         	ld	a0, 0x18(sp)
80002f76: 00851613     	slli	a2, a0, 0x8

0000000080002f7a <.Lpcrel_hi248>:
80002f7a: 00007597     	auipc	a1, 0x7
80002f7e: 52e58593     	addi	a1, a1, 0x52e
80002f82: 95b2         	add	a1, a1, a2
80002f84: 61ac         	ld	a1, 0x40(a1)
80002f86: e02e         	sd	a1, 0x0(sp)
80002f88: 4589         	li	a1, 0x2
80002f8a: 00b56b63     	bltu	a0, a1, 0x80002fa0 <.Lpcrel_hi250>
80002f8e: a839         	j	0x80002fac <.Lpcrel_hi250+0xc>

0000000080002f90 <.Lpcrel_hi249>:
80002f90: 00005517     	auipc	a0, 0x5
80002f94: 2d050513     	addi	a0, a0, 0x2d0
80002f98: 00004097     	auipc	ra, 0x4
80002f9c: 88e080e7     	jalr	-0x772(ra) <core::panicking::panic_null_pointer_dereference::hbac6411af4f2e916>

0000000080002fa0 <.Lpcrel_hi250>:
80002fa0: 00007517     	auipc	a0, 0x7
80002fa4: 0c850513     	addi	a0, a0, 0xc8
80002fa8: ed01         	bnez	a0, 0x80002fc0 <.Lpcrel_hi251+0x12>
80002faa: a835         	j	0x80002fe6 <.Lpcrel_hi253>
80002fac: 6562         	ld	a0, 0x18(sp)

0000000080002fae <.Lpcrel_hi251>:
80002fae: 00005597     	auipc	a1, 0x5
80002fb2: 2ca58613     	addi	a2, a1, 0x2ca
80002fb6: 4589         	li	a1, 0x2
80002fb8: 00004097     	auipc	ra, 0x4
80002fbc: 802080e7     	jalr	-0x7fe(ra) <core::panicking::panic_bounds_check::h6aaee0d15e0261eb>
80002fc0: 6502         	ld	a0, 0x0(sp)
80002fc2: 65e2         	ld	a1, 0x18(sp)
80002fc4: 00559613     	slli	a2, a1, 0x5
80002fc8: 05a6         	slli	a1, a1, 0x9
80002fca: 962e         	add	a2, a2, a1

0000000080002fcc <.Lpcrel_hi252>:
80002fcc: 00007597     	auipc	a1, 0x7
80002fd0: 09c58593     	addi	a1, a1, 0x9c
80002fd4: 95b2         	add	a1, a1, a2
80002fd6: e988         	sd	a0, 0x10(a1)
80002fd8: 00001097     	auipc	ra, 0x1
80002fdc: 1fa080e7     	jalr	0x1fa(ra) <lab7_kernel_task2::next_runnable_after_exit::hb21051532d266db4>
80002fe0: f02a         	sd	a0, 0x20(sp)
80002fe2: f42e         	sd	a1, 0x28(sp)
80002fe4: bf19         	j	0x80002efa <.Lpcrel_hi241+0x82>

0000000080002fe6 <.Lpcrel_hi253>:
80002fe6: 00005517     	auipc	a0, 0x5
80002fea: 29250513     	addi	a0, a0, 0x292
80002fee: 00004097     	auipc	ra, 0x4
80002ff2: 838080e7     	jalr	-0x7c8(ra) <core::panicking::panic_null_pointer_dereference::hbac6411af4f2e916>

0000000080002ff6 <.Lpcrel_hi254>:
80002ff6: 00007517     	auipc	a0, 0x7
80002ffa: 4b250513     	addi	a0, a0, 0x4b2
80002ffe: ed01         	bnez	a0, 0x80003016 <.Lpcrel_hi255+0x12>
80003000: a859         	j	0x80003096 <.Lpcrel_hi258>
80003002: 6562         	ld	a0, 0x18(sp)

0000000080003004 <.Lpcrel_hi255>:
80003004: 00005597     	auipc	a1, 0x5
80003008: 28c58613     	addi	a2, a1, 0x28c
8000300c: 4589         	li	a1, 0x2
8000300e: 00003097     	auipc	ra, 0x3
80003012: 7ac080e7     	jalr	0x7ac(ra) <core::panicking::panic_bounds_check::h6aaee0d15e0261eb>
80003016: 6562         	ld	a0, 0x18(sp)
80003018: 00851593     	slli	a1, a0, 0x8

000000008000301c <.Lpcrel_hi256>:
8000301c: 00007517     	auipc	a0, 0x7
80003020: 48c50513     	addi	a0, a0, 0x48c
80003024: 952e         	add	a0, a0, a1
80003026: 6128         	ld	a0, 0x40(a0)
80003028: e8aa         	sd	a0, 0x50(sp)
8000302a: 0828         	addi	a0, sp, 0x18
8000302c: fc2a         	sd	a0, 0x38(sp)
8000302e: 1808         	addi	a0, sp, 0x30
80003030: e0aa         	sd	a0, 0x40(sp)
80003032: 0888         	addi	a0, sp, 0x50
80003034: e4aa         	sd	a0, 0x48(sp)
80003036: 75e2         	ld	a1, 0x38(sp)
80003038: 0128         	addi	a0, sp, 0x88
8000303a: ffffe097     	auipc	ra, 0xffffe
8000303e: a1c080e7     	jalr	-0x5e4(ra) <core::fmt::rt::Argument::new_display::h0f8d4721c9a89fbb>
80003042: 6586         	ld	a1, 0x40(sp)
80003044: 0928         	addi	a0, sp, 0x98
80003046: ffffe097     	auipc	ra, 0xffffe
8000304a: a10080e7     	jalr	-0x5f0(ra) <core::fmt::rt::Argument::new_display::h0f8d4721c9a89fbb>
8000304e: 65a6         	ld	a1, 0x48(sp)
80003050: 1128         	addi	a0, sp, 0xa8
80003052: ffffe097     	auipc	ra, 0xffffe
80003056: ad0080e7     	jalr	-0x530(ra) <core::fmt::rt::Argument::new_lower_hex::hc9324aa1f0e7ff53>
8000305a: 654a         	ld	a0, 0x90(sp)
8000305c: f0aa         	sd	a0, 0x60(sp)
8000305e: 652a         	ld	a0, 0x88(sp)
80003060: ecaa         	sd	a0, 0x58(sp)
80003062: 750a         	ld	a0, 0xa0(sp)
80003064: f8aa         	sd	a0, 0x70(sp)
80003066: 656a         	ld	a0, 0x98(sp)
80003068: f4aa         	sd	a0, 0x68(sp)
8000306a: 754a         	ld	a0, 0xb0(sp)
8000306c: e12a         	sd	a0, 0x80(sp)
8000306e: 752a         	ld	a0, 0xa8(sp)
80003070: fcaa         	sd	a0, 0x78(sp)

0000000080003072 <.Lpcrel_hi257>:
80003072: 00005517     	auipc	a0, 0x5
80003076: 23650513     	addi	a0, a0, 0x236
8000307a: 08ac         	addi	a1, sp, 0x58
8000307c: ffffd097     	auipc	ra, 0xffffd
80003080: 1d6080e7     	jalr	0x1d6(ra) <core::fmt::Arguments::new::h1c60bb831a3abe6f>
80003084: 00002097     	auipc	ra, 0x2
80003088: 7a0080e7     	jalr	0x7a0(ra) <lab7_kernel_task2::console::print::h0d70eb8228e543e8>
8000308c: 4505         	li	a0, 0x1
8000308e: 00002097     	auipc	ra, 0x2
80003092: e78080e7     	jalr	-0x188(ra) <lab7_kernel_task2::qemu_exit::he8749ad0a6a46ff5>

0000000080003096 <.Lpcrel_hi258>:
80003096: 00005517     	auipc	a0, 0x5
8000309a: 1fa50513     	addi	a0, a0, 0x1fa
8000309e: 00003097     	auipc	ra, 0x3
800030a2: 788080e7     	jalr	0x788(ra) <core::panicking::panic_null_pointer_dereference::hbac6411af4f2e916>

00000000800030a6 <lab7_kernel_task2::user_code_page_pa::hdfb1426b59078274>:
800030a6: 00008517     	auipc	a0, 0x8
800030aa: f5a50513     	addi	a0, a0, -0xa6
800030ae: 8082         	ret

00000000800030b0 <lab7_kernel_task2::user_data_page_pa::h113482482d635972>:
800030b0: 1141         	addi	sp, sp, -0x10
800030b2: 85aa         	mv	a1, a0
800030b4: e02e         	sd	a1, 0x0(sp)
800030b6: e42e         	sd	a1, 0x8(sp)
800030b8: 4505         	li	a0, 0x1
800030ba: 00b56d63     	bltu	a0, a1, 0x800030d4 <.Lpcrel_hi260+0xe>
800030be: a009         	j	0x800030c0 <lab7_kernel_task2::user_data_page_pa::h113482482d635972+0x10>
800030c0: 6502         	ld	a0, 0x0(sp)
800030c2: 00c51593     	slli	a1, a0, 0xc

00000000800030c6 <.Lpcrel_hi260>:
800030c6: 0000a517     	auipc	a0, 0xa
800030ca: f3a50513     	addi	a0, a0, -0xc6
800030ce: 952e         	add	a0, a0, a1
800030d0: 0141         	addi	sp, sp, 0x10
800030d2: 8082         	ret
800030d4: 6502         	ld	a0, 0x0(sp)

00000000800030d6 <.Lpcrel_hi261>:
800030d6: 00005597     	auipc	a1, 0x5
800030da: 20a58613     	addi	a2, a1, 0x20a
800030de: 4589         	li	a1, 0x2
800030e0: 00003097     	auipc	ra, 0x3
800030e4: 6da080e7     	jalr	0x6da(ra) <core::panicking::panic_bounds_check::h6aaee0d15e0261eb>

00000000800030e8 <lab7_kernel_task2::walk_proc_virtual::h2e17da96e96ee012>:
800030e8: 7155         	addi	sp, sp, -0xd0
800030ea: e586         	sd	ra, 0xc8(sp)
800030ec: ecb2         	sd	a2, 0x58(sp)
800030ee: e4ae         	sd	a1, 0x48(sp)
800030f0: e0aa         	sd	a0, 0x40(sp)
800030f2: f12e         	sd	a1, 0xa0(sp)
800030f4: f532         	sd	a2, 0xa8(sp)
800030f6: 10a8         	addi	a0, sp, 0x68
800030f8: ffffe097     	auipc	ra, 0xffffe
800030fc: edc080e7     	jalr	-0x124(ra) <lab7_kernel_task2::WalkResult::zeroed::h38e19a73e85dad80>
80003100: 6526         	ld	a0, 0x48(sp)
80003102: 00000097     	auipc	ra, 0x0
80003106: 5c8080e7     	jalr	0x5c8(ra) <lab7_kernel_task2::proc_root_table_ptr::h662e444229cf5c73>
8000310a: 85aa         	mv	a1, a0
8000310c: 6566         	ld	a0, 0x58(sp)
8000310e: 862e         	mv	a2, a1
80003110: e8b2         	sd	a2, 0x50(sp)
80003112: f92e         	sd	a1, 0xb0(sp)
80003114: ffffe097     	auipc	ra, 0xffffe
80003118: 0c6080e7     	jalr	0xc6(ra) <lab7_kernel_task2::vpn2_index::hd6e66058e76b40e5>
8000311c: 85aa         	mv	a1, a0
8000311e: 6566         	ld	a0, 0x58(sp)
80003120: f4ae         	sd	a1, 0x68(sp)
80003122: ffffe097     	auipc	ra, 0xffffe
80003126: 0ac080e7     	jalr	0xac(ra) <lab7_kernel_task2::vpn1_index::h7c720f11da45cc44>
8000312a: 85aa         	mv	a1, a0
8000312c: 6566         	ld	a0, 0x58(sp)
8000312e: f8ae         	sd	a1, 0x70(sp)
80003130: ffffe097     	auipc	ra, 0xffffe
80003134: 092080e7     	jalr	0x92(ra) <lab7_kernel_task2::vpn0_index::h1a7fd2ea4053119f>
80003138: fcaa         	sd	a0, 0x78(sp)
8000313a: 75a6         	ld	a1, 0x68(sp)
8000313c: f0ae         	sd	a1, 0x60(sp)
8000313e: 1ff00513     	li	a0, 0x1ff
80003142: 00b56963     	bltu	a0, a1, 0x80003154 <lab7_kernel_task2::walk_proc_virtual::h2e17da96e96ee012+0x6c>
80003146: a009         	j	0x80003148 <lab7_kernel_task2::walk_proc_virtual::h2e17da96e96ee012+0x60>
80003148: 6546         	ld	a0, 0x50(sp)
8000314a: 85aa         	mv	a1, a0
8000314c: fc2e         	sd	a1, 0x38(sp)
8000314e: 1552         	slli	a0, a0, 0x34
80003150: cd09         	beqz	a0, 0x8000316a <.Lpcrel_hi262+0x14>
80003152: a839         	j	0x80003170 <.Lpcrel_hi262+0x1a>
80003154: 7506         	ld	a0, 0x60(sp)

0000000080003156 <.Lpcrel_hi262>:
80003156: 00005597     	auipc	a1, 0x5
8000315a: 1a258613     	addi	a2, a1, 0x1a2
8000315e: 20000593     	li	a1, 0x200
80003162: 00003097     	auipc	ra, 0x3
80003166: 658080e7     	jalr	0x658(ra) <core::panicking::panic_bounds_check::h6aaee0d15e0261eb>
8000316a: 6546         	ld	a0, 0x50(sp)
8000316c: ed01         	bnez	a0, 0x80003184 <.Lpcrel_hi263+0x12>
8000316e: a805         	j	0x8000319e <.Lpcrel_hi264>
80003170: 75e2         	ld	a1, 0x38(sp)

0000000080003172 <.Lpcrel_hi263>:
80003172: 00005517     	auipc	a0, 0x5
80003176: 18650613     	addi	a2, a0, 0x186
8000317a: 6505         	lui	a0, 0x1
8000317c: 00003097     	auipc	ra, 0x3
80003180: 6ca080e7     	jalr	0x6ca(ra) <core::panicking::panic_misaligned_pointer_dereference::hda85f7fb51d959f0>
80003184: 6546         	ld	a0, 0x50(sp)
80003186: 7586         	ld	a1, 0x60(sp)
80003188: 058e         	slli	a1, a1, 0x3
8000318a: 952e         	add	a0, a0, a1
8000318c: 6108         	ld	a0, 0x0(a0)
8000318e: e12a         	sd	a0, 0x80(sp)
80003190: 650a         	ld	a0, 0x80(sp)
80003192: ffffe097     	auipc	ra, 0xffffe
80003196: 75e080e7     	jalr	0x75e(ra) <lab7_kernel_task2::pte_is_valid::ha2a27e3f4eb5b224>
8000319a: ed05         	bnez	a0, 0x800031d2 <.Lpcrel_hi264+0x34>
8000319c: a809         	j	0x800031ae <.Lpcrel_hi264+0x10>

000000008000319e <.Lpcrel_hi264>:
8000319e: 00005517     	auipc	a0, 0x5
800031a2: 15a50513     	addi	a0, a0, 0x15a
800031a6: 00003097     	auipc	ra, 0x3
800031aa: 680080e7     	jalr	0x680(ra) <core::panicking::panic_null_pointer_dereference::hbac6411af4f2e916>
800031ae: 6586         	ld	a1, 0x40(sp)
800031b0: 650a         	ld	a0, 0x80(sp)
800031b2: ed2a         	sd	a0, 0x98(sp)
800031b4: 656a         	ld	a0, 0x98(sp)
800031b6: f988         	sd	a0, 0x30(a1)
800031b8: 654a         	ld	a0, 0x90(sp)
800031ba: f588         	sd	a0, 0x28(a1)
800031bc: 652a         	ld	a0, 0x88(sp)
800031be: f188         	sd	a0, 0x20(a1)
800031c0: 650a         	ld	a0, 0x80(sp)
800031c2: ed88         	sd	a0, 0x18(a1)
800031c4: 7566         	ld	a0, 0x78(sp)
800031c6: e988         	sd	a0, 0x10(a1)
800031c8: 7546         	ld	a0, 0x70(sp)
800031ca: e588         	sd	a0, 0x8(a1)
800031cc: 7526         	ld	a0, 0x68(sp)
800031ce: e188         	sd	a0, 0x0(a1)
800031d0: a285         	j	0x80003330 <.Lpcrel_hi270+0x14>
800031d2: 650a         	ld	a0, 0x80(sp)
800031d4: ffffe097     	auipc	ra, 0xffffe
800031d8: 07e080e7     	jalr	0x7e(ra) <lab7_kernel_task2::pte_is_leaf::ha5feffc254e70694>
800031dc: f969         	bnez	a0, 0x800031ae <.Lpcrel_hi264+0x10>
800031de: a009         	j	0x800031e0 <.Lpcrel_hi264+0x42>
800031e0: 650a         	ld	a0, 0x80(sp)
800031e2: 00002097     	auipc	ra, 0x2
800031e6: d18080e7     	jalr	-0x2e8(ra) <lab7_kernel_task2::pte_to_pa::hf68a11d477bbd38c>
800031ea: 85aa         	mv	a1, a0
800031ec: f42e         	sd	a1, 0x28(sp)
800031ee: 85aa         	mv	a1, a0
800031f0: f82e         	sd	a1, 0x30(sp)
800031f2: 1552         	slli	a0, a0, 0x34
800031f4: e509         	bnez	a0, 0x800031fe <.Lpcrel_hi264+0x60>
800031f6: a009         	j	0x800031f8 <.Lpcrel_hi264+0x5a>
800031f8: 7522         	ld	a0, 0x28(sp)
800031fa: ed01         	bnez	a0, 0x80003212 <.Lpcrel_hi265+0x12>
800031fc: a025         	j	0x80003224 <.Lpcrel_hi266>
800031fe: 75c2         	ld	a1, 0x30(sp)

0000000080003200 <.Lpcrel_hi265>:
80003200: 00005517     	auipc	a0, 0x5
80003204: 11050613     	addi	a2, a0, 0x110
80003208: 6505         	lui	a0, 0x1
8000320a: 00003097     	auipc	ra, 0x3
8000320e: 63c080e7     	jalr	0x63c(ra) <core::panicking::panic_misaligned_pointer_dereference::hda85f7fb51d959f0>
80003212: 7522         	ld	a0, 0x28(sp)
80003214: fd2a         	sd	a0, 0xb8(sp)
80003216: 7546         	ld	a0, 0x70(sp)
80003218: f02a         	sd	a0, 0x20(sp)
8000321a: 20000593     	li	a1, 0x200
8000321e: 00b56b63     	bltu	a0, a1, 0x80003234 <.Lpcrel_hi266+0x10>
80003222: a035         	j	0x8000324e <.Lpcrel_hi266+0x2a>

0000000080003224 <.Lpcrel_hi266>:
80003224: 00005517     	auipc	a0, 0x5
80003228: 0ec50513     	addi	a0, a0, 0xec
8000322c: 00003097     	auipc	ra, 0x3
80003230: 5fa080e7     	jalr	0x5fa(ra) <core::panicking::panic_null_pointer_dereference::hbac6411af4f2e916>
80003234: 7522         	ld	a0, 0x28(sp)
80003236: 7582         	ld	a1, 0x20(sp)
80003238: 058e         	slli	a1, a1, 0x3
8000323a: 952e         	add	a0, a0, a1
8000323c: 6108         	ld	a0, 0x0(a0)
8000323e: e52a         	sd	a0, 0x88(sp)
80003240: 652a         	ld	a0, 0x88(sp)
80003242: ffffe097     	auipc	ra, 0xffffe
80003246: 6ae080e7     	jalr	0x6ae(ra) <lab7_kernel_task2::pte_is_valid::ha2a27e3f4eb5b224>
8000324a: ed1d         	bnez	a0, 0x80003288 <.Lpcrel_hi267+0x38>
8000324c: a821         	j	0x80003264 <.Lpcrel_hi267+0x14>
8000324e: 7502         	ld	a0, 0x20(sp)

0000000080003250 <.Lpcrel_hi267>:
80003250: 00005597     	auipc	a1, 0x5
80003254: 0d858613     	addi	a2, a1, 0xd8
80003258: 20000593     	li	a1, 0x200
8000325c: 00003097     	auipc	ra, 0x3
80003260: 55e080e7     	jalr	0x55e(ra) <core::panicking::panic_bounds_check::h6aaee0d15e0261eb>
80003264: 6586         	ld	a1, 0x40(sp)
80003266: 652a         	ld	a0, 0x88(sp)
80003268: ed2a         	sd	a0, 0x98(sp)
8000326a: 656a         	ld	a0, 0x98(sp)
8000326c: f988         	sd	a0, 0x30(a1)
8000326e: 654a         	ld	a0, 0x90(sp)
80003270: f588         	sd	a0, 0x28(a1)
80003272: 652a         	ld	a0, 0x88(sp)
80003274: f188         	sd	a0, 0x20(a1)
80003276: 650a         	ld	a0, 0x80(sp)
80003278: ed88         	sd	a0, 0x18(a1)
8000327a: 7566         	ld	a0, 0x78(sp)
8000327c: e988         	sd	a0, 0x10(a1)
8000327e: 7546         	ld	a0, 0x70(sp)
80003280: e588         	sd	a0, 0x8(a1)
80003282: 7526         	ld	a0, 0x68(sp)
80003284: e188         	sd	a0, 0x0(a1)
80003286: a06d         	j	0x80003330 <.Lpcrel_hi270+0x14>
80003288: 652a         	ld	a0, 0x88(sp)
8000328a: ffffe097     	auipc	ra, 0xffffe
8000328e: fc8080e7     	jalr	-0x38(ra) <lab7_kernel_task2::pte_is_leaf::ha5feffc254e70694>
80003292: f969         	bnez	a0, 0x80003264 <.Lpcrel_hi267+0x14>
80003294: a009         	j	0x80003296 <.Lpcrel_hi267+0x46>
80003296: 652a         	ld	a0, 0x88(sp)
80003298: 00002097     	auipc	ra, 0x2
8000329c: c62080e7     	jalr	-0x39e(ra) <lab7_kernel_task2::pte_to_pa::hf68a11d477bbd38c>
800032a0: 85aa         	mv	a1, a0
800032a2: e82e         	sd	a1, 0x10(sp)
800032a4: 85aa         	mv	a1, a0
800032a6: ec2e         	sd	a1, 0x18(sp)
800032a8: 1552         	slli	a0, a0, 0x34
800032aa: e509         	bnez	a0, 0x800032b4 <.Lpcrel_hi267+0x64>
800032ac: a009         	j	0x800032ae <.Lpcrel_hi267+0x5e>
800032ae: 6542         	ld	a0, 0x10(sp)
800032b0: ed01         	bnez	a0, 0x800032c8 <.Lpcrel_hi268+0x12>
800032b2: a025         	j	0x800032da <.Lpcrel_hi269>
800032b4: 65e2         	ld	a1, 0x18(sp)

00000000800032b6 <.Lpcrel_hi268>:
800032b6: 00005517     	auipc	a0, 0x5
800032ba: 08a50613     	addi	a2, a0, 0x8a
800032be: 6505         	lui	a0, 0x1
800032c0: 00003097     	auipc	ra, 0x3
800032c4: 586080e7     	jalr	0x586(ra) <core::panicking::panic_misaligned_pointer_dereference::hda85f7fb51d959f0>
800032c8: 6542         	ld	a0, 0x10(sp)
800032ca: e1aa         	sd	a0, 0xc0(sp)
800032cc: 7566         	ld	a0, 0x78(sp)
800032ce: e42a         	sd	a0, 0x8(sp)
800032d0: 20000593     	li	a1, 0x200
800032d4: 00b56b63     	bltu	a0, a1, 0x800032ea <.Lpcrel_hi269+0x10>
800032d8: a089         	j	0x8000331a <.Lpcrel_hi269+0x40>

00000000800032da <.Lpcrel_hi269>:
800032da: 00005517     	auipc	a0, 0x5
800032de: 06650513     	addi	a0, a0, 0x66
800032e2: 00003097     	auipc	ra, 0x3
800032e6: 544080e7     	jalr	0x544(ra) <core::panicking::panic_null_pointer_dereference::hbac6411af4f2e916>
800032ea: 6586         	ld	a1, 0x40(sp)
800032ec: 6542         	ld	a0, 0x10(sp)
800032ee: 6622         	ld	a2, 0x8(sp)
800032f0: 060e         	slli	a2, a2, 0x3
800032f2: 9532         	add	a0, a0, a2
800032f4: 6108         	ld	a0, 0x0(a0)
800032f6: e92a         	sd	a0, 0x90(sp)
800032f8: 654a         	ld	a0, 0x90(sp)
800032fa: ed2a         	sd	a0, 0x98(sp)
800032fc: 656a         	ld	a0, 0x98(sp)
800032fe: f988         	sd	a0, 0x30(a1)
80003300: 654a         	ld	a0, 0x90(sp)
80003302: f588         	sd	a0, 0x28(a1)
80003304: 652a         	ld	a0, 0x88(sp)
80003306: f188         	sd	a0, 0x20(a1)
80003308: 650a         	ld	a0, 0x80(sp)
8000330a: ed88         	sd	a0, 0x18(a1)
8000330c: 7566         	ld	a0, 0x78(sp)
8000330e: e988         	sd	a0, 0x10(a1)
80003310: 7546         	ld	a0, 0x70(sp)
80003312: e588         	sd	a0, 0x8(a1)
80003314: 7526         	ld	a0, 0x68(sp)
80003316: e188         	sd	a0, 0x0(a1)
80003318: a821         	j	0x80003330 <.Lpcrel_hi270+0x14>
8000331a: 6522         	ld	a0, 0x8(sp)

000000008000331c <.Lpcrel_hi270>:
8000331c: 00005597     	auipc	a1, 0x5
80003320: 03c58613     	addi	a2, a1, 0x3c
80003324: 20000593     	li	a1, 0x200
80003328: 00003097     	auipc	ra, 0x3
8000332c: 492080e7     	jalr	0x492(ra) <core::panicking::panic_bounds_check::h6aaee0d15e0261eb>
80003330: 60ae         	ld	ra, 0xc8(sp)
80003332: 6169         	addi	sp, sp, 0xd0
80003334: 8082         	ret

0000000080003336 <lab7_kernel_task2::expected_resume_va::h6685059ee49bb5ea>:
80003336: 1141         	addi	sp, sp, -0x10
80003338: e406         	sd	ra, 0x8(sp)

000000008000333a <.Lpcrel_hi271>:
8000333a: ffffe517     	auipc	a0, 0xffffe
8000333e: bf850513     	addi	a0, a0, -0x408
80003342: fffff097     	auipc	ra, 0xfffff
80003346: 104080e7     	jalr	0x104(ra) <lab7_kernel_task2::user_symbol_va::h64ac36acc965ab7d>
8000334a: 60a2         	ld	ra, 0x8(sp)
8000334c: 0141         	addi	sp, sp, 0x10
8000334e: 8082         	ret

0000000080003350 <lab7_kernel_task2::initialize_runtime::h076a2cbcb5a02cbc>:
80003350: be010113     	addi	sp, sp, -0x420
80003354: 40113c23     	sd	ra, 0x418(sp)

0000000080003358 <.Lpcrel_hi272>:
80003358: 00010517     	auipc	a0, 0x10
8000335c: ca850513     	addi	a0, a0, -0x358
80003360: fffff097     	auipc	ra, 0xfffff
80003364: 240080e7     	jalr	0x240(ra) <lab7_kernel_task2::clear_page_table::h0d9394942758d3cd>

0000000080003368 <.Lpcrel_hi273>:
80003368: 00015517     	auipc	a0, 0x15
8000336c: c9850513     	addi	a0, a0, -0x368
80003370: fffff097     	auipc	ra, 0xfffff
80003374: 230080e7     	jalr	0x230(ra) <lab7_kernel_task2::clear_page_table::h0d9394942758d3cd>

0000000080003378 <.Lpcrel_hi274>:
80003378: 00008517     	auipc	a0, 0x8
8000337c: c8850513     	addi	a0, a0, -0x378
80003380: 00002097     	auipc	ra, 0x2
80003384: bdc080e7     	jalr	-0x424(ra) <lab7_kernel_task2::zero_page::h0e3aaea3fd2822c1>
80003388: 4501         	li	a0, 0x0
8000338a: 4589         	li	a1, 0x2
8000338c: ffffd097     	auipc	ra, 0xffffd
80003390: e30080e7     	jalr	-0x1d0(ra) <_$LT$I$u20$as$u20$core..iter..traits..collect..IntoIterator$GT$::into_iter::hb8f52e27760293d8>
80003394: f82a         	sd	a0, 0x30(sp)
80003396: fc2e         	sd	a1, 0x38(sp)
80003398: a009         	j	0x8000339a <.Lpcrel_hi274+0x22>
8000339a: 1808         	addi	a0, sp, 0x30
8000339c: ffffd097     	auipc	ra, 0xffffd
800033a0: e0c080e7     	jalr	-0x1f4(ra) <core::iter::range::_$LT$impl$u20$core..iter..traits..iterator..Iterator$u20$for$u20$core..ops..range..Range$LT$A$GT$$GT$::next::hebf4fa418202f819>
800033a4: e0aa         	sd	a0, 0x40(sp)
800033a6: e4ae         	sd	a1, 0x48(sp)
800033a8: 6506         	ld	a0, 0x40(sp)
800033aa: 8905         	andi	a0, a0, 0x1
800033ac: cd35         	beqz	a0, 0x80003428 <.Lpcrel_hi275>
800033ae: a009         	j	0x800033b0 <.Lpcrel_hi274+0x38>
800033b0: 6526         	ld	a0, 0x48(sp)
800033b2: f02a         	sd	a0, 0x20(sp)
800033b4: 40a13823     	sd	a0, 0x410(sp)
800033b8: 00000097     	auipc	ra, 0x0
800033bc: 312080e7     	jalr	0x312(ra) <lab7_kernel_task2::proc_root_table_ptr::h662e444229cf5c73>
800033c0: fffff097     	auipc	ra, 0xfffff
800033c4: 1e0080e7     	jalr	0x1e0(ra) <lab7_kernel_task2::clear_page_table::h0d9394942758d3cd>
800033c8: 7502         	ld	a0, 0x20(sp)
800033ca: 00001097     	auipc	ra, 0x1
800033ce: cba080e7     	jalr	-0x346(ra) <lab7_kernel_task2::proc_low_l1_table_ptr::h7c337058525c6481>
800033d2: fffff097     	auipc	ra, 0xfffff
800033d6: 1ce080e7     	jalr	0x1ce(ra) <lab7_kernel_task2::clear_page_table::h0d9394942758d3cd>
800033da: 7502         	ld	a0, 0x20(sp)
800033dc: 00001097     	auipc	ra, 0x1
800033e0: dbe080e7     	jalr	-0x242(ra) <lab7_kernel_task2::proc_user_l0_table_ptr::h2541549e3a564294>
800033e4: fffff097     	auipc	ra, 0xfffff
800033e8: 1bc080e7     	jalr	0x1bc(ra) <lab7_kernel_task2::clear_page_table::h0d9394942758d3cd>
800033ec: 7502         	ld	a0, 0x20(sp)
800033ee: 00000097     	auipc	ra, 0x0
800033f2: 252080e7     	jalr	0x252(ra) <lab7_kernel_task2::user_data_page_ptr::h732051a82c4991f2>
800033f6: 00002097     	auipc	ra, 0x2
800033fa: b66080e7     	jalr	-0x49a(ra) <lab7_kernel_task2::zero_page::h0e3aaea3fd2822c1>
800033fe: 7502         	ld	a0, 0x20(sp)
80003400: 00000097     	auipc	ra, 0x0
80003404: 302080e7     	jalr	0x302(ra) <lab7_kernel_task2::user_stack_page_ptr::h1c8bc1de368828c6>
80003408: 00002097     	auipc	ra, 0x2
8000340c: b54080e7     	jalr	-0x4ac(ra) <lab7_kernel_task2::zero_page::h0e3aaea3fd2822c1>
80003410: 0888         	addi	a0, sp, 0x50
80003412: ffffd097     	auipc	ra, 0xffffd
80003416: 336080e7     	jalr	0x336(ra) <lab7_kernel_task2::trap::TrapFrame::zeroed::hcf81c361d93f9865>
8000341a: 7502         	ld	a0, 0x20(sp)
8000341c: 4589         	li	a1, 0x2
8000341e: 862a         	mv	a2, a0
80003420: f432         	sd	a2, 0x28(sp)
80003422: 08b56c63     	bltu	a0, a1, 0x800034ba <.Lpcrel_hi281>
80003426: a045         	j	0x800034c6 <.Lpcrel_hi281+0xc>

0000000080003428 <.Lpcrel_hi275>:
80003428: 00007517     	auipc	a0, 0x7
8000342c: bd850513     	addi	a0, a0, -0x428
80003430: c11d         	beqz	a0, 0x80003456 <.Lpcrel_hi278>
80003432: a009         	j	0x80003434 <.Lpcrel_hi276>

0000000080003434 <.Lpcrel_hi276>:
80003434: 00007517     	auipc	a0, 0x7
80003438: bcc50593     	addi	a1, a0, -0x434
8000343c: 4501         	li	a0, 0x0
8000343e: e188         	sd	a0, 0x0(a1)
80003440: 1f08         	addi	a0, sp, 0x3b0
80003442: ffffe097     	auipc	ra, 0xffffe
80003446: da4080e7     	jalr	-0x25c(ra) <lab7_kernel_task2::SignalStats::zeroed::ha8056458ce164f61>

000000008000344a <.Lpcrel_hi277>:
8000344a: 00007517     	auipc	a0, 0x7
8000344e: bbe50513     	addi	a0, a0, -0x442
80003452: e911         	bnez	a0, 0x80003466 <.Lpcrel_hi279>
80003454: a899         	j	0x800034aa <.Lpcrel_hi280>

0000000080003456 <.Lpcrel_hi278>:
80003456: 00005517     	auipc	a0, 0x5
8000345a: f1a50513     	addi	a0, a0, -0xe6
8000345e: 00003097     	auipc	ra, 0x3
80003462: 3c8080e7     	jalr	0x3c8(ra) <core::panicking::panic_null_pointer_dereference::hbac6411af4f2e916>

0000000080003466 <.Lpcrel_hi279>:
80003466: 00007517     	auipc	a0, 0x7
8000346a: ba250513     	addi	a0, a0, -0x45e
8000346e: 1f0c         	addi	a1, sp, 0x3b0
80003470: 06000613     	li	a2, 0x60
80003474: 00003097     	auipc	ra, 0x3
80003478: 57c080e7     	jalr	0x57c(ra) <memcpy>
8000347c: fffff097     	auipc	ra, 0xfffff
80003480: 20e080e7     	jalr	0x20e(ra) <lab7_kernel_task2::copy_user_program::hf100ba52aa655911>
80003484: 00001097     	auipc	ra, 0x1
80003488: e02080e7     	jalr	-0x1fe(ra) <lab7_kernel_task2::build_global_kernel_tables::h6bd9be884a3e3355>
8000348c: 4501         	li	a0, 0x0
8000348e: ffffe097     	auipc	ra, 0xffffe
80003492: 482080e7     	jalr	0x482(ra) <lab7_kernel_task2::build_process::ha1b805dc0fb2f342>
80003496: 4505         	li	a0, 0x1
80003498: ffffe097     	auipc	ra, 0xffffe
8000349c: 478080e7     	jalr	0x478(ra) <lab7_kernel_task2::build_process::ha1b805dc0fb2f342>
800034a0: 41813083     	ld	ra, 0x418(sp)
800034a4: 42010113     	addi	sp, sp, 0x420
800034a8: 8082         	ret

00000000800034aa <.Lpcrel_hi280>:
800034aa: 00005517     	auipc	a0, 0x5
800034ae: ede50513     	addi	a0, a0, -0x122
800034b2: 00003097     	auipc	ra, 0x3
800034b6: 374080e7     	jalr	0x374(ra) <core::panicking::panic_null_pointer_dereference::hbac6411af4f2e916>

00000000800034ba <.Lpcrel_hi281>:
800034ba: 00007517     	auipc	a0, 0x7
800034be: fee50513     	addi	a0, a0, -0x12
800034c2: ed01         	bnez	a0, 0x800034da <.Lpcrel_hi282+0x12>
800034c4: a0b1         	j	0x80003510 <.Lpcrel_hi284>
800034c6: 7522         	ld	a0, 0x28(sp)

00000000800034c8 <.Lpcrel_hi282>:
800034c8: 00005597     	auipc	a1, 0x5
800034cc: ed858613     	addi	a2, a1, -0x128
800034d0: 4589         	li	a1, 0x2
800034d2: 00003097     	auipc	ra, 0x3
800034d6: 2e8080e7     	jalr	0x2e8(ra) <core::panicking::panic_bounds_check::h6aaee0d15e0261eb>
800034da: 7502         	ld	a0, 0x20(sp)
800034dc: 00851593     	slli	a1, a0, 0x8

00000000800034e0 <.Lpcrel_hi283>:
800034e0: 00007517     	auipc	a0, 0x7
800034e4: fc850513     	addi	a0, a0, -0x38
800034e8: 952e         	add	a0, a0, a1
800034ea: 088c         	addi	a1, sp, 0x50
800034ec: 10000613     	li	a2, 0x100
800034f0: 00003097     	auipc	ra, 0x3
800034f4: 500080e7     	jalr	0x500(ra) <memcpy>
800034f8: 0a88         	addi	a0, sp, 0x150
800034fa: fffff097     	auipc	ra, 0xfffff
800034fe: ee4080e7     	jalr	-0x11c(ra) <lab7_kernel_task2::ProcessControl::empty::h71b01f21ff4ad304>
80003502: 7502         	ld	a0, 0x20(sp)
80003504: 4589         	li	a1, 0x2
80003506: 862a         	mv	a2, a0
80003508: ec32         	sd	a2, 0x18(sp)
8000350a: 00b56b63     	bltu	a0, a1, 0x80003520 <.Lpcrel_hi285>
8000350e: a839         	j	0x8000352c <.Lpcrel_hi285+0xc>

0000000080003510 <.Lpcrel_hi284>:
80003510: 00005517     	auipc	a0, 0x5
80003514: e9050513     	addi	a0, a0, -0x170
80003518: 00003097     	auipc	ra, 0x3
8000351c: 30e080e7     	jalr	0x30e(ra) <core::panicking::panic_null_pointer_dereference::hbac6411af4f2e916>

0000000080003520 <.Lpcrel_hi285>:
80003520: 00007517     	auipc	a0, 0x7
80003524: b4850513     	addi	a0, a0, -0x4b8
80003528: ed01         	bnez	a0, 0x80003540 <.Lpcrel_hi286+0x12>
8000352a: a881         	j	0x8000357a <.Lpcrel_hi288>
8000352c: 6562         	ld	a0, 0x18(sp)

000000008000352e <.Lpcrel_hi286>:
8000352e: 00005597     	auipc	a1, 0x5
80003532: e8a58613     	addi	a2, a1, -0x176
80003536: 4589         	li	a1, 0x2
80003538: 00003097     	auipc	ra, 0x3
8000353c: 282080e7     	jalr	0x282(ra) <core::panicking::panic_bounds_check::h6aaee0d15e0261eb>
80003540: 7502         	ld	a0, 0x20(sp)
80003542: 00551593     	slli	a1, a0, 0x5
80003546: 0526         	slli	a0, a0, 0x9
80003548: 95aa         	add	a1, a1, a0

000000008000354a <.Lpcrel_hi287>:
8000354a: 00007517     	auipc	a0, 0x7
8000354e: b1e50513     	addi	a0, a0, -0x4e2
80003552: 952e         	add	a0, a0, a1
80003554: 0a8c         	addi	a1, sp, 0x150
80003556: 22000613     	li	a2, 0x220
8000355a: 00003097     	auipc	ra, 0x3
8000355e: 496080e7     	jalr	0x496(ra) <memcpy>
80003562: 1e88         	addi	a0, sp, 0x370
80003564: ffffe097     	auipc	ra, 0xffffe
80003568: 396080e7     	jalr	0x396(ra) <lab7_kernel_task2::ProcessReport::empty::h7baff828cfcc474c>
8000356c: 7502         	ld	a0, 0x20(sp)
8000356e: 4589         	li	a1, 0x2
80003570: 862a         	mv	a2, a0
80003572: e832         	sd	a2, 0x10(sp)
80003574: 00b56b63     	bltu	a0, a1, 0x8000358a <.Lpcrel_hi289>
80003578: a839         	j	0x80003596 <.Lpcrel_hi289+0xc>

000000008000357a <.Lpcrel_hi288>:
8000357a: 00005517     	auipc	a0, 0x5
8000357e: e3e50513     	addi	a0, a0, -0x1c2
80003582: 00003097     	auipc	ra, 0x3
80003586: 2a4080e7     	jalr	0x2a4(ra) <core::panicking::panic_null_pointer_dereference::hbac6411af4f2e916>

000000008000358a <.Lpcrel_hi289>:
8000358a: 00009517     	auipc	a0, 0x9
8000358e: a7650513     	addi	a0, a0, -0x58a
80003592: ed01         	bnez	a0, 0x800035aa <.Lpcrel_hi290+0x12>
80003594: a8a9         	j	0x800035ee <.Lpcrel_hi292>
80003596: 6542         	ld	a0, 0x10(sp)

0000000080003598 <.Lpcrel_hi290>:
80003598: 00005597     	auipc	a1, 0x5
8000359c: e3858613     	addi	a2, a1, -0x1c8
800035a0: 4589         	li	a1, 0x2
800035a2: 00003097     	auipc	ra, 0x3
800035a6: 218080e7     	jalr	0x218(ra) <core::panicking::panic_bounds_check::h6aaee0d15e0261eb>
800035aa: 7502         	ld	a0, 0x20(sp)
800035ac: 00651593     	slli	a1, a0, 0x6

00000000800035b0 <.Lpcrel_hi291>:
800035b0: 00009517     	auipc	a0, 0x9
800035b4: a5050513     	addi	a0, a0, -0x5b0
800035b8: 95aa         	add	a1, a1, a0
800035ba: e42e         	sd	a1, 0x8(sp)
800035bc: 3a813503     	ld	a0, 0x3a8(sp)
800035c0: fd88         	sd	a0, 0x38(a1)
800035c2: 3a013503     	ld	a0, 0x3a0(sp)
800035c6: f988         	sd	a0, 0x30(a1)
800035c8: 39813503     	ld	a0, 0x398(sp)
800035cc: f588         	sd	a0, 0x28(a1)
800035ce: 39013503     	ld	a0, 0x390(sp)
800035d2: f188         	sd	a0, 0x20(a1)
800035d4: 38813503     	ld	a0, 0x388(sp)
800035d8: ed88         	sd	a0, 0x18(a1)
800035da: 38013503     	ld	a0, 0x380(sp)
800035de: e988         	sd	a0, 0x10(a1)
800035e0: 37813503     	ld	a0, 0x378(sp)
800035e4: e588         	sd	a0, 0x8(a1)
800035e6: 37013503     	ld	a0, 0x370(sp)
800035ea: e188         	sd	a0, 0x0(a1)
800035ec: b37d         	j	0x8000339a <.Lpcrel_hi274+0x22>

00000000800035ee <.Lpcrel_hi292>:
800035ee: 00005517     	auipc	a0, 0x5
800035f2: de250513     	addi	a0, a0, -0x21e
800035f6: 00003097     	auipc	ra, 0x3
800035fa: 230080e7     	jalr	0x230(ra) <core::panicking::panic_null_pointer_dereference::hbac6411af4f2e916>

00000000800035fe <lab7_kernel_task2::kernel_l1_table_pa::h8f8fb72205054f48>:
800035fe: 00015517     	auipc	a0, 0x15
80003602: a0250513     	addi	a0, a0, -0x5fe
80003606: 8082         	ret

0000000080003608 <lab7_kernel_task2::proc_root_table_pa::h2d0cc90a20c69ccc>:
80003608: 1141         	addi	sp, sp, -0x10
8000360a: 85aa         	mv	a1, a0
8000360c: e02e         	sd	a1, 0x0(sp)
8000360e: e42e         	sd	a1, 0x8(sp)
80003610: 4505         	li	a0, 0x1
80003612: 00b56d63     	bltu	a0, a1, 0x8000362c <.Lpcrel_hi294+0xe>
80003616: a009         	j	0x80003618 <lab7_kernel_task2::proc_root_table_pa::h2d0cc90a20c69ccc+0x10>
80003618: 6502         	ld	a0, 0x0(sp)
8000361a: 00c51593     	slli	a1, a0, 0xc

000000008000361e <.Lpcrel_hi294>:
8000361e: 0000c517     	auipc	a0, 0xc
80003622: 9e250513     	addi	a0, a0, -0x61e
80003626: 952e         	add	a0, a0, a1
80003628: 0141         	addi	sp, sp, 0x10
8000362a: 8082         	ret
8000362c: 6502         	ld	a0, 0x0(sp)

000000008000362e <.Lpcrel_hi295>:
8000362e: 00005597     	auipc	a1, 0x5
80003632: dba58613     	addi	a2, a1, -0x246
80003636: 4589         	li	a1, 0x2
80003638: 00003097     	auipc	ra, 0x3
8000363c: 182080e7     	jalr	0x182(ra) <core::panicking::panic_bounds_check::h6aaee0d15e0261eb>

0000000080003640 <lab7_kernel_task2::user_data_page_ptr::h732051a82c4991f2>:
80003640: 1141         	addi	sp, sp, -0x10
80003642: 85aa         	mv	a1, a0
80003644: e02e         	sd	a1, 0x0(sp)
80003646: e42e         	sd	a1, 0x8(sp)
80003648: 4505         	li	a0, 0x1
8000364a: 00b56d63     	bltu	a0, a1, 0x80003664 <.Lpcrel_hi296+0xe>
8000364e: a009         	j	0x80003650 <lab7_kernel_task2::user_data_page_ptr::h732051a82c4991f2+0x10>
80003650: 6502         	ld	a0, 0x0(sp)
80003652: 00c51593     	slli	a1, a0, 0xc

0000000080003656 <.Lpcrel_hi296>:
80003656: 0000a517     	auipc	a0, 0xa
8000365a: 9aa50513     	addi	a0, a0, -0x656
8000365e: 952e         	add	a0, a0, a1
80003660: 0141         	addi	sp, sp, 0x10
80003662: 8082         	ret
80003664: 6502         	ld	a0, 0x0(sp)

0000000080003666 <.Lpcrel_hi297>:
80003666: 00005597     	auipc	a1, 0x5
8000366a: d9a58613     	addi	a2, a1, -0x266
8000366e: 4589         	li	a1, 0x2
80003670: 00003097     	auipc	ra, 0x3
80003674: 14a080e7     	jalr	0x14a(ra) <core::panicking::panic_bounds_check::h6aaee0d15e0261eb>

0000000080003678 <lab7_kernel_task2::user_stack_page_pa::h413d2113671bcddd>:
80003678: 1141         	addi	sp, sp, -0x10
8000367a: 85aa         	mv	a1, a0
8000367c: e02e         	sd	a1, 0x0(sp)
8000367e: e42e         	sd	a1, 0x8(sp)
80003680: 4505         	li	a0, 0x1
80003682: 00b56d63     	bltu	a0, a1, 0x8000369c <.Lpcrel_hi298+0xe>
80003686: a009         	j	0x80003688 <lab7_kernel_task2::user_stack_page_pa::h413d2113671bcddd+0x10>
80003688: 6502         	ld	a0, 0x0(sp)
8000368a: 00c51593     	slli	a1, a0, 0xc

000000008000368e <.Lpcrel_hi298>:
8000368e: 0000e517     	auipc	a0, 0xe
80003692: 97250513     	addi	a0, a0, -0x68e
80003696: 952e         	add	a0, a0, a1
80003698: 0141         	addi	sp, sp, 0x10
8000369a: 8082         	ret
8000369c: 6502         	ld	a0, 0x0(sp)

000000008000369e <.Lpcrel_hi299>:
8000369e: 00005597     	auipc	a1, 0x5
800036a2: d7a58613     	addi	a2, a1, -0x286
800036a6: 4589         	li	a1, 0x2
800036a8: 00003097     	auipc	ra, 0x3
800036ac: 112080e7     	jalr	0x112(ra) <core::panicking::panic_bounds_check::h6aaee0d15e0261eb>

00000000800036b0 <lab7_kernel_task2::expected_handler_va::h1bbf37d180f21fb9>:
800036b0: 1141         	addi	sp, sp, -0x10
800036b2: e406         	sd	ra, 0x8(sp)

00000000800036b4 <.Lpcrel_hi300>:
800036b4: ffffe517     	auipc	a0, 0xffffe
800036b8: 8ba50513     	addi	a0, a0, -0x746
800036bc: fffff097     	auipc	ra, 0xfffff
800036c0: d8a080e7     	jalr	-0x276(ra) <lab7_kernel_task2::user_symbol_va::h64ac36acc965ab7d>
800036c4: 60a2         	ld	ra, 0x8(sp)
800036c6: 0141         	addi	sp, sp, 0x10
800036c8: 8082         	ret

00000000800036ca <lab7_kernel_task2::proc_root_table_ptr::h662e444229cf5c73>:
800036ca: 1141         	addi	sp, sp, -0x10
800036cc: 85aa         	mv	a1, a0
800036ce: e02e         	sd	a1, 0x0(sp)
800036d0: e42e         	sd	a1, 0x8(sp)
800036d2: 4505         	li	a0, 0x1
800036d4: 00b56d63     	bltu	a0, a1, 0x800036ee <.Lpcrel_hi301+0xe>
800036d8: a009         	j	0x800036da <lab7_kernel_task2::proc_root_table_ptr::h662e444229cf5c73+0x10>
800036da: 6502         	ld	a0, 0x0(sp)
800036dc: 00c51593     	slli	a1, a0, 0xc

00000000800036e0 <.Lpcrel_hi301>:
800036e0: 0000c517     	auipc	a0, 0xc
800036e4: 92050513     	addi	a0, a0, -0x6e0
800036e8: 952e         	add	a0, a0, a1
800036ea: 0141         	addi	sp, sp, 0x10
800036ec: 8082         	ret
800036ee: 6502         	ld	a0, 0x0(sp)

00000000800036f0 <.Lpcrel_hi302>:
800036f0: 00005597     	auipc	a1, 0x5
800036f4: d4058613     	addi	a2, a1, -0x2c0
800036f8: 4589         	li	a1, 0x2
800036fa: 00003097     	auipc	ra, 0x3
800036fe: 0c0080e7     	jalr	0xc0(ra) <core::panicking::panic_bounds_check::h6aaee0d15e0261eb>

0000000080003702 <lab7_kernel_task2::user_stack_page_ptr::h1c8bc1de368828c6>:
80003702: 1141         	addi	sp, sp, -0x10
80003704: 85aa         	mv	a1, a0
80003706: e02e         	sd	a1, 0x0(sp)
80003708: e42e         	sd	a1, 0x8(sp)
8000370a: 4505         	li	a0, 0x1
8000370c: 00b56d63     	bltu	a0, a1, 0x80003726 <.Lpcrel_hi303+0xe>
80003710: a009         	j	0x80003712 <lab7_kernel_task2::user_stack_page_ptr::h1c8bc1de368828c6+0x10>
80003712: 6502         	ld	a0, 0x0(sp)
80003714: 00c51593     	slli	a1, a0, 0xc

0000000080003718 <.Lpcrel_hi303>:
80003718: 0000e517     	auipc	a0, 0xe
8000371c: 8e850513     	addi	a0, a0, -0x718
80003720: 952e         	add	a0, a0, a1
80003722: 0141         	addi	sp, sp, 0x10
80003724: 8082         	ret
80003726: 6502         	ld	a0, 0x0(sp)

0000000080003728 <.Lpcrel_hi304>:
80003728: 00005597     	auipc	a1, 0x5
8000372c: d2058613     	addi	a2, a1, -0x2e0
80003730: 4589         	li	a1, 0x2
80003732: 00003097     	auipc	ra, 0x3
80003736: 088080e7     	jalr	0x88(ra) <core::panicking::panic_bounds_check::h6aaee0d15e0261eb>

000000008000373a <lab7_kernel_task2::proc_low_l1_table_pa::h05077629a8ea0eba>:
8000373a: 1141         	addi	sp, sp, -0x10
8000373c: 85aa         	mv	a1, a0
8000373e: e02e         	sd	a1, 0x0(sp)
80003740: e42e         	sd	a1, 0x8(sp)
80003742: 4505         	li	a0, 0x1
80003744: 00b56d63     	bltu	a0, a1, 0x8000375e <.Lpcrel_hi305+0xe>
80003748: a009         	j	0x8000374a <lab7_kernel_task2::proc_low_l1_table_pa::h05077629a8ea0eba+0x10>
8000374a: 6502         	ld	a0, 0x0(sp)
8000374c: 00c51593     	slli	a1, a0, 0xc

0000000080003750 <.Lpcrel_hi305>:
80003750: 00011517     	auipc	a0, 0x11
80003754: 8b050513     	addi	a0, a0, -0x750
80003758: 952e         	add	a0, a0, a1
8000375a: 0141         	addi	sp, sp, 0x10
8000375c: 8082         	ret
8000375e: 6502         	ld	a0, 0x0(sp)

0000000080003760 <.Lpcrel_hi306>:
80003760: 00005597     	auipc	a1, 0x5
80003764: d0058613     	addi	a2, a1, -0x300
80003768: 4589         	li	a1, 0x2
8000376a: 00003097     	auipc	ra, 0x3
8000376e: 050080e7     	jalr	0x50(ra) <core::panicking::panic_bounds_check::h6aaee0d15e0261eb>

0000000080003772 <lab7_kernel_task2::store_process_report::hc59841a44cbc16d9>:
80003772: 7101         	addi	sp, sp, -0x200
80003774: ff86         	sd	ra, 0x1f8(sp)
80003776: e12a         	sd	a0, 0x80(sp)
80003778: 658a         	ld	a1, 0x80(sp)
8000377a: 4505         	li	a0, 0x1
8000377c: 00b56963     	bltu	a0, a1, 0x8000378e <.Lpcrel_hi307+0xc>
80003780: a009         	j	0x80003782 <.Lpcrel_hi307>

0000000080003782 <.Lpcrel_hi307>:
80003782: 00007517     	auipc	a0, 0x7
80003786: d2650513     	addi	a0, a0, -0x2da
8000378a: ed01         	bnez	a0, 0x800037a2 <.Lpcrel_hi308+0x12>
8000378c: a83d         	j	0x800037ca <.Lpcrel_hi310>
8000378e: 650a         	ld	a0, 0x80(sp)

0000000080003790 <.Lpcrel_hi308>:
80003790: 00005597     	auipc	a1, 0x5
80003794: ce858613     	addi	a2, a1, -0x318
80003798: 4589         	li	a1, 0x2
8000379a: 00003097     	auipc	ra, 0x3
8000379e: 020080e7     	jalr	0x20(ra) <core::panicking::panic_bounds_check::h6aaee0d15e0261eb>
800037a2: 650a         	ld	a0, 0x80(sp)
800037a4: 00851593     	slli	a1, a0, 0x8

00000000800037a8 <.Lpcrel_hi309>:
800037a8: 00007517     	auipc	a0, 0x7
800037ac: d0050513     	addi	a0, a0, -0x300
800037b0: 952e         	add	a0, a0, a1
800037b2: 6128         	ld	a0, 0x40(a0)
800037b4: fcaa         	sd	a0, 0x78(sp)
800037b6: fbaa         	sd	a0, 0x1f0(sp)
800037b8: 4585         	li	a1, 0x1
800037ba: 02b50963     	beq	a0, a1, 0x800037ec <.Lpcrel_hi311+0x12>
800037be: a009         	j	0x800037c0 <.Lpcrel_hi309+0x18>
800037c0: 7566         	ld	a0, 0x78(sp)
800037c2: 4589         	li	a1, 0x2
800037c4: 02b50963     	beq	a0, a1, 0x800037f6 <.Lpcrel_hi311+0x1c>
800037c8: a809         	j	0x800037da <.Lpcrel_hi311>

00000000800037ca <.Lpcrel_hi310>:
800037ca: 00005517     	auipc	a0, 0x5
800037ce: cae50513     	addi	a0, a0, -0x352
800037d2: 00003097     	auipc	ra, 0x3
800037d6: 054080e7     	jalr	0x54(ra) <core::panicking::panic_null_pointer_dereference::hbac6411af4f2e916>

00000000800037da <.Lpcrel_hi311>:
800037da: 00005517     	auipc	a0, 0x5
800037de: f5650513     	addi	a0, a0, -0xaa
800037e2: 45d1         	li	a1, 0x14
800037e4: ffffe097     	auipc	ra, 0xffffe
800037e8: a20080e7     	jalr	-0x5e0(ra) <lab7_kernel_task2::kernel_fail::ha5b301f22f28ddb4>
800037ec: 650a         	ld	a0, 0x80(sp)
800037ee: 4589         	li	a1, 0x2
800037f0: 00b56863     	bltu	a0, a1, 0x80003800 <.Lpcrel_hi312>
800037f4: a821         	j	0x8000380c <.Lpcrel_hi312+0xc>
800037f6: 650a         	ld	a0, 0x80(sp)
800037f8: 4589         	li	a1, 0x2
800037fa: 4cb56663     	bltu	a0, a1, 0x80003cc6 <.Lpcrel_hi369>
800037fe: a9d1         	j	0x80003cd2 <.Lpcrel_hi369+0xc>

0000000080003800 <.Lpcrel_hi312>:
80003800: 00009517     	auipc	a0, 0x9
80003804: 80050513     	addi	a0, a0, -0x800
80003808: ed01         	bnez	a0, 0x80003820 <.Lpcrel_hi313+0x12>
8000380a: a815         	j	0x8000383e <.Lpcrel_hi315>
8000380c: 650a         	ld	a0, 0x80(sp)

000000008000380e <.Lpcrel_hi313>:
8000380e: 00005597     	auipc	a1, 0x5
80003812: c8258613     	addi	a2, a1, -0x37e
80003816: 4589         	li	a1, 0x2
80003818: 00003097     	auipc	ra, 0x3
8000381c: fa2080e7     	jalr	-0x5e(ra) <core::panicking::panic_bounds_check::h6aaee0d15e0261eb>
80003820: 650a         	ld	a0, 0x80(sp)
80003822: 00651593     	slli	a1, a0, 0x6

0000000080003826 <.Lpcrel_hi314>:
80003826: 00008517     	auipc	a0, 0x8
8000382a: 7da50513     	addi	a0, a0, 0x7da
8000382e: 952e         	add	a0, a0, a1
80003830: 610c         	ld	a1, 0x0(a0)
80003832: 00158513     	addi	a0, a1, 0x1
80003836: f8aa         	sd	a0, 0x70(sp)
80003838: 02b56163     	bltu	a0, a1, 0x8000385a <.Lpcrel_hi317>
8000383c: a809         	j	0x8000384e <.Lpcrel_hi316>

000000008000383e <.Lpcrel_hi315>:
8000383e: 00005517     	auipc	a0, 0x5
80003842: c5250513     	addi	a0, a0, -0x3ae
80003846: 00003097     	auipc	ra, 0x3
8000384a: fe0080e7     	jalr	-0x20(ra) <core::panicking::panic_null_pointer_dereference::hbac6411af4f2e916>

000000008000384e <.Lpcrel_hi316>:
8000384e: 00008517     	auipc	a0, 0x8
80003852: 7b250513     	addi	a0, a0, 0x7b2
80003856: e911         	bnez	a0, 0x8000386a <.Lpcrel_hi317+0x10>
80003858: a805         	j	0x80003888 <.Lpcrel_hi319>

000000008000385a <.Lpcrel_hi317>:
8000385a: 00005517     	auipc	a0, 0x5
8000385e: c3650513     	addi	a0, a0, -0x3ca
80003862: 00003097     	auipc	ra, 0x3
80003866: ec2080e7     	jalr	-0x13e(ra) <core::panicking::panic_const::panic_const_add_overflow::h67cba067093910f8>
8000386a: 7546         	ld	a0, 0x70(sp)
8000386c: 658a         	ld	a1, 0x80(sp)
8000386e: 00659613     	slli	a2, a1, 0x6

0000000080003872 <.Lpcrel_hi318>:
80003872: 00008597     	auipc	a1, 0x8
80003876: 78e58593     	addi	a1, a1, 0x78e
8000387a: 95b2         	add	a1, a1, a2
8000387c: e188         	sd	a0, 0x0(a1)
8000387e: 650a         	ld	a0, 0x80(sp)
80003880: 4589         	li	a1, 0x2
80003882: 00b56b63     	bltu	a0, a1, 0x80003898 <.Lpcrel_hi320>
80003886: a839         	j	0x800038a4 <.Lpcrel_hi320+0xc>

0000000080003888 <.Lpcrel_hi319>:
80003888: 00005517     	auipc	a0, 0x5
8000388c: c0850513     	addi	a0, a0, -0x3f8
80003890: 00003097     	auipc	ra, 0x3
80003894: f96080e7     	jalr	-0x6a(ra) <core::panicking::panic_null_pointer_dereference::hbac6411af4f2e916>

0000000080003898 <.Lpcrel_hi320>:
80003898: 00007517     	auipc	a0, 0x7
8000389c: c1050513     	addi	a0, a0, -0x3f0
800038a0: ed01         	bnez	a0, 0x800038b8 <.Lpcrel_hi321+0x12>
800038a2: a80d         	j	0x800038d4 <.Lpcrel_hi323>
800038a4: 650a         	ld	a0, 0x80(sp)

00000000800038a6 <.Lpcrel_hi321>:
800038a6: 00005597     	auipc	a1, 0x5
800038aa: c0258613     	addi	a2, a1, -0x3fe
800038ae: 4589         	li	a1, 0x2
800038b0: 00003097     	auipc	ra, 0x3
800038b4: f0a080e7     	jalr	-0xf6(ra) <core::panicking::panic_bounds_check::h6aaee0d15e0261eb>
800038b8: 650a         	ld	a0, 0x80(sp)
800038ba: 00851613     	slli	a2, a0, 0x8

00000000800038be <.Lpcrel_hi322>:
800038be: 00007597     	auipc	a1, 0x7
800038c2: bea58593     	addi	a1, a1, -0x416
800038c6: 95b2         	add	a1, a1, a2
800038c8: 65ac         	ld	a1, 0x48(a1)
800038ca: f4ae         	sd	a1, 0x68(sp)
800038cc: 4589         	li	a1, 0x2
800038ce: 00b56b63     	bltu	a0, a1, 0x800038e4 <.Lpcrel_hi324>
800038d2: a839         	j	0x800038f0 <.Lpcrel_hi324+0xc>

00000000800038d4 <.Lpcrel_hi323>:
800038d4: 00005517     	auipc	a0, 0x5
800038d8: bd450513     	addi	a0, a0, -0x42c
800038dc: 00003097     	auipc	ra, 0x3
800038e0: f4a080e7     	jalr	-0xb6(ra) <core::panicking::panic_null_pointer_dereference::hbac6411af4f2e916>

00000000800038e4 <.Lpcrel_hi324>:
800038e4: 00008517     	auipc	a0, 0x8
800038e8: 71c50513     	addi	a0, a0, 0x71c
800038ec: ed01         	bnez	a0, 0x80003904 <.Lpcrel_hi325+0x12>
800038ee: a815         	j	0x80003922 <.Lpcrel_hi327>
800038f0: 650a         	ld	a0, 0x80(sp)

00000000800038f2 <.Lpcrel_hi325>:
800038f2: 00005597     	auipc	a1, 0x5
800038f6: bce58613     	addi	a2, a1, -0x432
800038fa: 4589         	li	a1, 0x2
800038fc: 00003097     	auipc	ra, 0x3
80003900: ebe080e7     	jalr	-0x142(ra) <core::panicking::panic_bounds_check::h6aaee0d15e0261eb>
80003904: 7526         	ld	a0, 0x68(sp)
80003906: 658a         	ld	a1, 0x80(sp)
80003908: 00659613     	slli	a2, a1, 0x6

000000008000390c <.Lpcrel_hi326>:
8000390c: 00008597     	auipc	a1, 0x8
80003910: 6f458593     	addi	a1, a1, 0x6f4
80003914: 95b2         	add	a1, a1, a2
80003916: e988         	sd	a0, 0x10(a1)
80003918: 650a         	ld	a0, 0x80(sp)
8000391a: 4589         	li	a1, 0x2
8000391c: 00b56b63     	bltu	a0, a1, 0x80003932 <.Lpcrel_hi328>
80003920: a839         	j	0x8000393e <.Lpcrel_hi328+0xc>

0000000080003922 <.Lpcrel_hi327>:
80003922: 00005517     	auipc	a0, 0x5
80003926: b9e50513     	addi	a0, a0, -0x462
8000392a: 00003097     	auipc	ra, 0x3
8000392e: efc080e7     	jalr	-0x104(ra) <core::panicking::panic_null_pointer_dereference::hbac6411af4f2e916>

0000000080003932 <.Lpcrel_hi328>:
80003932: 00007517     	auipc	a0, 0x7
80003936: b7650513     	addi	a0, a0, -0x48a
8000393a: ed01         	bnez	a0, 0x80003952 <.Lpcrel_hi329+0x12>
8000393c: a80d         	j	0x8000396e <.Lpcrel_hi331>
8000393e: 650a         	ld	a0, 0x80(sp)

0000000080003940 <.Lpcrel_hi329>:
80003940: 00005597     	auipc	a1, 0x5
80003944: b9858613     	addi	a2, a1, -0x468
80003948: 4589         	li	a1, 0x2
8000394a: 00003097     	auipc	ra, 0x3
8000394e: e70080e7     	jalr	-0x190(ra) <core::panicking::panic_bounds_check::h6aaee0d15e0261eb>
80003952: 650a         	ld	a0, 0x80(sp)
80003954: 00851613     	slli	a2, a0, 0x8

0000000080003958 <.Lpcrel_hi330>:
80003958: 00007597     	auipc	a1, 0x7
8000395c: b5058593     	addi	a1, a1, -0x4b0
80003960: 95b2         	add	a1, a1, a2
80003962: 69ac         	ld	a1, 0x50(a1)
80003964: f0ae         	sd	a1, 0x60(sp)
80003966: 4589         	li	a1, 0x2
80003968: 00b56b63     	bltu	a0, a1, 0x8000397e <.Lpcrel_hi332>
8000396c: a839         	j	0x8000398a <.Lpcrel_hi332+0xc>

000000008000396e <.Lpcrel_hi331>:
8000396e: 00005517     	auipc	a0, 0x5
80003972: b6a50513     	addi	a0, a0, -0x496
80003976: 00003097     	auipc	ra, 0x3
8000397a: eb0080e7     	jalr	-0x150(ra) <core::panicking::panic_null_pointer_dereference::hbac6411af4f2e916>

000000008000397e <.Lpcrel_hi332>:
8000397e: 00008517     	auipc	a0, 0x8
80003982: 68250513     	addi	a0, a0, 0x682
80003986: ed01         	bnez	a0, 0x8000399e <.Lpcrel_hi333+0x12>
80003988: a815         	j	0x800039bc <.Lpcrel_hi335>
8000398a: 650a         	ld	a0, 0x80(sp)

000000008000398c <.Lpcrel_hi333>:
8000398c: 00005597     	auipc	a1, 0x5
80003990: b6458613     	addi	a2, a1, -0x49c
80003994: 4589         	li	a1, 0x2
80003996: 00003097     	auipc	ra, 0x3
8000399a: e24080e7     	jalr	-0x1dc(ra) <core::panicking::panic_bounds_check::h6aaee0d15e0261eb>
8000399e: 7506         	ld	a0, 0x60(sp)
800039a0: 658a         	ld	a1, 0x80(sp)
800039a2: 00659613     	slli	a2, a1, 0x6

00000000800039a6 <.Lpcrel_hi334>:
800039a6: 00008597     	auipc	a1, 0x8
800039aa: 65a58593     	addi	a1, a1, 0x65a
800039ae: 95b2         	add	a1, a1, a2
800039b0: f588         	sd	a0, 0x28(a1)
800039b2: 650a         	ld	a0, 0x80(sp)
800039b4: 4589         	li	a1, 0x2
800039b6: 00b56b63     	bltu	a0, a1, 0x800039cc <.Lpcrel_hi336>
800039ba: a839         	j	0x800039d8 <.Lpcrel_hi336+0xc>

00000000800039bc <.Lpcrel_hi335>:
800039bc: 00005517     	auipc	a0, 0x5
800039c0: b3450513     	addi	a0, a0, -0x4cc
800039c4: 00003097     	auipc	ra, 0x3
800039c8: e62080e7     	jalr	-0x19e(ra) <core::panicking::panic_null_pointer_dereference::hbac6411af4f2e916>

00000000800039cc <.Lpcrel_hi336>:
800039cc: 00007517     	auipc	a0, 0x7
800039d0: adc50513     	addi	a0, a0, -0x524
800039d4: ed01         	bnez	a0, 0x800039ec <.Lpcrel_hi337+0x12>
800039d6: a80d         	j	0x80003a08 <.Lpcrel_hi339>
800039d8: 650a         	ld	a0, 0x80(sp)

00000000800039da <.Lpcrel_hi337>:
800039da: 00005597     	auipc	a1, 0x5
800039de: b2e58613     	addi	a2, a1, -0x4d2
800039e2: 4589         	li	a1, 0x2
800039e4: 00003097     	auipc	ra, 0x3
800039e8: dd6080e7     	jalr	-0x22a(ra) <core::panicking::panic_bounds_check::h6aaee0d15e0261eb>
800039ec: 650a         	ld	a0, 0x80(sp)
800039ee: 00851613     	slli	a2, a0, 0x8

00000000800039f2 <.Lpcrel_hi338>:
800039f2: 00007597     	auipc	a1, 0x7
800039f6: ab658593     	addi	a1, a1, -0x54a
800039fa: 95b2         	add	a1, a1, a2
800039fc: 6dac         	ld	a1, 0x58(a1)
800039fe: ecae         	sd	a1, 0x58(sp)
80003a00: 4589         	li	a1, 0x2
80003a02: 00b56b63     	bltu	a0, a1, 0x80003a18 <.Lpcrel_hi340>
80003a06: a839         	j	0x80003a24 <.Lpcrel_hi340+0xc>

0000000080003a08 <.Lpcrel_hi339>:
80003a08: 00005517     	auipc	a0, 0x5
80003a0c: b0050513     	addi	a0, a0, -0x500
80003a10: 00003097     	auipc	ra, 0x3
80003a14: e16080e7     	jalr	-0x1ea(ra) <core::panicking::panic_null_pointer_dereference::hbac6411af4f2e916>

0000000080003a18 <.Lpcrel_hi340>:
80003a18: 00008517     	auipc	a0, 0x8
80003a1c: 5e850513     	addi	a0, a0, 0x5e8
80003a20: ed01         	bnez	a0, 0x80003a38 <.Lpcrel_hi341+0x12>
80003a22: a815         	j	0x80003a56 <.Lpcrel_hi343>
80003a24: 650a         	ld	a0, 0x80(sp)

0000000080003a26 <.Lpcrel_hi341>:
80003a26: 00005597     	auipc	a1, 0x5
80003a2a: afa58613     	addi	a2, a1, -0x506
80003a2e: 4589         	li	a1, 0x2
80003a30: 00003097     	auipc	ra, 0x3
80003a34: d8a080e7     	jalr	-0x276(ra) <core::panicking::panic_bounds_check::h6aaee0d15e0261eb>
80003a38: 6566         	ld	a0, 0x58(sp)
80003a3a: 658a         	ld	a1, 0x80(sp)
80003a3c: 00659613     	slli	a2, a1, 0x6

0000000080003a40 <.Lpcrel_hi342>:
80003a40: 00008597     	auipc	a1, 0x8
80003a44: 5c058593     	addi	a1, a1, 0x5c0
80003a48: 95b2         	add	a1, a1, a2
80003a4a: f988         	sd	a0, 0x30(a1)
80003a4c: 650a         	ld	a0, 0x80(sp)
80003a4e: 4589         	li	a1, 0x2
80003a50: 00b56b63     	bltu	a0, a1, 0x80003a66 <.Lpcrel_hi344>
80003a54: a839         	j	0x80003a72 <.Lpcrel_hi344+0xc>

0000000080003a56 <.Lpcrel_hi343>:
80003a56: 00005517     	auipc	a0, 0x5
80003a5a: aca50513     	addi	a0, a0, -0x536
80003a5e: 00003097     	auipc	ra, 0x3
80003a62: dc8080e7     	jalr	-0x238(ra) <core::panicking::panic_null_pointer_dereference::hbac6411af4f2e916>

0000000080003a66 <.Lpcrel_hi344>:
80003a66: 00007517     	auipc	a0, 0x7
80003a6a: a4250513     	addi	a0, a0, -0x5be
80003a6e: ed01         	bnez	a0, 0x80003a86 <.Lpcrel_hi345+0x12>
80003a70: a80d         	j	0x80003aa2 <.Lpcrel_hi347>
80003a72: 650a         	ld	a0, 0x80(sp)

0000000080003a74 <.Lpcrel_hi345>:
80003a74: 00005597     	auipc	a1, 0x5
80003a78: ac458613     	addi	a2, a1, -0x53c
80003a7c: 4589         	li	a1, 0x2
80003a7e: 00003097     	auipc	ra, 0x3
80003a82: d3c080e7     	jalr	-0x2c4(ra) <core::panicking::panic_bounds_check::h6aaee0d15e0261eb>
80003a86: 650a         	ld	a0, 0x80(sp)
80003a88: 00851613     	slli	a2, a0, 0x8

0000000080003a8c <.Lpcrel_hi346>:
80003a8c: 00007597     	auipc	a1, 0x7
80003a90: a1c58593     	addi	a1, a1, -0x5e4
80003a94: 95b2         	add	a1, a1, a2
80003a96: 71ac         	ld	a1, 0x60(a1)
80003a98: e8ae         	sd	a1, 0x50(sp)
80003a9a: 4589         	li	a1, 0x2
80003a9c: 00b56b63     	bltu	a0, a1, 0x80003ab2 <.Lpcrel_hi348>
80003aa0: a839         	j	0x80003abe <.Lpcrel_hi348+0xc>

0000000080003aa2 <.Lpcrel_hi347>:
80003aa2: 00005517     	auipc	a0, 0x5
80003aa6: a9650513     	addi	a0, a0, -0x56a
80003aaa: 00003097     	auipc	ra, 0x3
80003aae: d7c080e7     	jalr	-0x284(ra) <core::panicking::panic_null_pointer_dereference::hbac6411af4f2e916>

0000000080003ab2 <.Lpcrel_hi348>:
80003ab2: 00008517     	auipc	a0, 0x8
80003ab6: 54e50513     	addi	a0, a0, 0x54e
80003aba: ed01         	bnez	a0, 0x80003ad2 <.Lpcrel_hi349+0x12>
80003abc: a815         	j	0x80003af0 <.Lpcrel_hi351>
80003abe: 650a         	ld	a0, 0x80(sp)

0000000080003ac0 <.Lpcrel_hi349>:
80003ac0: 00005597     	auipc	a1, 0x5
80003ac4: a9058613     	addi	a2, a1, -0x570
80003ac8: 4589         	li	a1, 0x2
80003aca: 00003097     	auipc	ra, 0x3
80003ace: cf0080e7     	jalr	-0x310(ra) <core::panicking::panic_bounds_check::h6aaee0d15e0261eb>
80003ad2: 6546         	ld	a0, 0x50(sp)
80003ad4: 658a         	ld	a1, 0x80(sp)
80003ad6: 00659613     	slli	a2, a1, 0x6

0000000080003ada <.Lpcrel_hi350>:
80003ada: 00008597     	auipc	a1, 0x8
80003ade: 52658593     	addi	a1, a1, 0x526
80003ae2: 95b2         	add	a1, a1, a2
80003ae4: fd88         	sd	a0, 0x38(a1)
80003ae6: 650a         	ld	a0, 0x80(sp)
80003ae8: 4589         	li	a1, 0x2
80003aea: 00b56b63     	bltu	a0, a1, 0x80003b00 <.Lpcrel_hi352>
80003aee: a839         	j	0x80003b0c <.Lpcrel_hi352+0xc>

0000000080003af0 <.Lpcrel_hi351>:
80003af0: 00005517     	auipc	a0, 0x5
80003af4: a6050513     	addi	a0, a0, -0x5a0
80003af8: 00003097     	auipc	ra, 0x3
80003afc: d2e080e7     	jalr	-0x2d2(ra) <core::panicking::panic_null_pointer_dereference::hbac6411af4f2e916>

0000000080003b00 <.Lpcrel_hi352>:
80003b00: 00008517     	auipc	a0, 0x8
80003b04: 50050513     	addi	a0, a0, 0x500
80003b08: ed01         	bnez	a0, 0x80003b20 <.Lpcrel_hi353+0x12>
80003b0a: a80d         	j	0x80003b3c <.Lpcrel_hi355>
80003b0c: 650a         	ld	a0, 0x80(sp)

0000000080003b0e <.Lpcrel_hi353>:
80003b0e: 00005597     	auipc	a1, 0x5
80003b12: a5a58613     	addi	a2, a1, -0x5a6
80003b16: 4589         	li	a1, 0x2
80003b18: 00003097     	auipc	ra, 0x3
80003b1c: ca2080e7     	jalr	-0x35e(ra) <core::panicking::panic_bounds_check::h6aaee0d15e0261eb>
80003b20: 650a         	ld	a0, 0x80(sp)
80003b22: 00651613     	slli	a2, a0, 0x6

0000000080003b26 <.Lpcrel_hi354>:
80003b26: 00008597     	auipc	a1, 0x8
80003b2a: 4da58593     	addi	a1, a1, 0x4da
80003b2e: 95b2         	add	a1, a1, a2
80003b30: 05c1         	addi	a1, a1, 0x10
80003b32: e4ae         	sd	a1, 0x48(sp)
80003b34: 4589         	li	a1, 0x2
80003b36: 00b56b63     	bltu	a0, a1, 0x80003b4c <.Lpcrel_hi356>
80003b3a: a839         	j	0x80003b58 <.Lpcrel_hi356+0xc>

0000000080003b3c <.Lpcrel_hi355>:
80003b3c: 00005517     	auipc	a0, 0x5
80003b40: a4450513     	addi	a0, a0, -0x5bc
80003b44: 00003097     	auipc	ra, 0x3
80003b48: ce2080e7     	jalr	-0x31e(ra) <core::panicking::panic_null_pointer_dereference::hbac6411af4f2e916>

0000000080003b4c <.Lpcrel_hi356>:
80003b4c: 00008517     	auipc	a0, 0x8
80003b50: 4b450513     	addi	a0, a0, 0x4b4
80003b54: ed01         	bnez	a0, 0x80003b6c <.Lpcrel_hi357+0x12>
80003b56: a815         	j	0x80003b8a <.Lpcrel_hi359>
80003b58: 650a         	ld	a0, 0x80(sp)

0000000080003b5a <.Lpcrel_hi357>:
80003b5a: 00005597     	auipc	a1, 0x5
80003b5e: a3e58613     	addi	a2, a1, -0x5c2
80003b62: 4589         	li	a1, 0x2
80003b64: 00003097     	auipc	ra, 0x3
80003b68: c56080e7     	jalr	-0x3aa(ra) <core::panicking::panic_bounds_check::h6aaee0d15e0261eb>
80003b6c: 650a         	ld	a0, 0x80(sp)
80003b6e: 00651613     	slli	a2, a0, 0x6

0000000080003b72 <.Lpcrel_hi358>:
80003b72: 00008597     	auipc	a1, 0x8
80003b76: 48e58593     	addi	a1, a1, 0x48e
80003b7a: 95b2         	add	a1, a1, a2
80003b7c: 02858593     	addi	a1, a1, 0x28
80003b80: e0ae         	sd	a1, 0x40(sp)
80003b82: 4589         	li	a1, 0x2
80003b84: 00b56b63     	bltu	a0, a1, 0x80003b9a <.Lpcrel_hi360>
80003b88: a839         	j	0x80003ba6 <.Lpcrel_hi360+0xc>

0000000080003b8a <.Lpcrel_hi359>:
80003b8a: 00005517     	auipc	a0, 0x5
80003b8e: 9f650513     	addi	a0, a0, -0x60a
80003b92: 00003097     	auipc	ra, 0x3
80003b96: c94080e7     	jalr	-0x36c(ra) <core::panicking::panic_null_pointer_dereference::hbac6411af4f2e916>

0000000080003b9a <.Lpcrel_hi360>:
80003b9a: 00008517     	auipc	a0, 0x8
80003b9e: 46650513     	addi	a0, a0, 0x466
80003ba2: ed01         	bnez	a0, 0x80003bba <.Lpcrel_hi361+0x12>
80003ba4: a815         	j	0x80003bd8 <.Lpcrel_hi363>
80003ba6: 650a         	ld	a0, 0x80(sp)

0000000080003ba8 <.Lpcrel_hi361>:
80003ba8: 00005597     	auipc	a1, 0x5
80003bac: a0858613     	addi	a2, a1, -0x5f8
80003bb0: 4589         	li	a1, 0x2
80003bb2: 00003097     	auipc	ra, 0x3
80003bb6: c08080e7     	jalr	-0x3f8(ra) <core::panicking::panic_bounds_check::h6aaee0d15e0261eb>
80003bba: 650a         	ld	a0, 0x80(sp)
80003bbc: 00651613     	slli	a2, a0, 0x6

0000000080003bc0 <.Lpcrel_hi362>:
80003bc0: 00008597     	auipc	a1, 0x8
80003bc4: 44058593     	addi	a1, a1, 0x440
80003bc8: 95b2         	add	a1, a1, a2
80003bca: 03058593     	addi	a1, a1, 0x30
80003bce: fc2e         	sd	a1, 0x38(sp)
80003bd0: 4589         	li	a1, 0x2
80003bd2: 00b56b63     	bltu	a0, a1, 0x80003be8 <.Lpcrel_hi364>
80003bd6: a839         	j	0x80003bf4 <.Lpcrel_hi364+0xc>

0000000080003bd8 <.Lpcrel_hi363>:
80003bd8: 00005517     	auipc	a0, 0x5
80003bdc: 9a850513     	addi	a0, a0, -0x658
80003be0: 00003097     	auipc	ra, 0x3
80003be4: c46080e7     	jalr	-0x3ba(ra) <core::panicking::panic_null_pointer_dereference::hbac6411af4f2e916>

0000000080003be8 <.Lpcrel_hi364>:
80003be8: 00008517     	auipc	a0, 0x8
80003bec: 41850513     	addi	a0, a0, 0x418
80003bf0: ed01         	bnez	a0, 0x80003c08 <.Lpcrel_hi365+0x12>
80003bf2: a875         	j	0x80003cae <.Lpcrel_hi368>
80003bf4: 650a         	ld	a0, 0x80(sp)

0000000080003bf6 <.Lpcrel_hi365>:
80003bf6: 00005597     	auipc	a1, 0x5
80003bfa: 9d258613     	addi	a2, a1, -0x62e
80003bfe: 4589         	li	a1, 0x2
80003c00: 00003097     	auipc	ra, 0x3
80003c04: bba080e7     	jalr	-0x446(ra) <core::panicking::panic_bounds_check::h6aaee0d15e0261eb>
80003c08: 75e2         	ld	a1, 0x38(sp)
80003c0a: 6606         	ld	a2, 0x40(sp)
80003c0c: 66a6         	ld	a3, 0x48(sp)
80003c0e: 650a         	ld	a0, 0x80(sp)
80003c10: 00651713     	slli	a4, a0, 0x6

0000000080003c14 <.Lpcrel_hi366>:
80003c14: 00008517     	auipc	a0, 0x8
80003c18: 3ec50513     	addi	a0, a0, 0x3ec
80003c1c: 953a         	add	a0, a0, a4
80003c1e: 03850513     	addi	a0, a0, 0x38
80003c22: 0118         	addi	a4, sp, 0x80
80003c24: e53a         	sd	a4, 0x88(sp)
80003c26: e936         	sd	a3, 0x90(sp)
80003c28: ed32         	sd	a2, 0x98(sp)
80003c2a: f12e         	sd	a1, 0xa0(sp)
80003c2c: f52a         	sd	a0, 0xa8(sp)
80003c2e: 65aa         	ld	a1, 0x88(sp)
80003c30: 0208         	addi	a0, sp, 0x100
80003c32: ffffd097     	auipc	ra, 0xffffd
80003c36: e24080e7     	jalr	-0x1dc(ra) <core::fmt::rt::Argument::new_display::h0f8d4721c9a89fbb>
80003c3a: 65ca         	ld	a1, 0x90(sp)
80003c3c: 0a08         	addi	a0, sp, 0x110
80003c3e: ffffd097     	auipc	ra, 0xffffd
80003c42: e18080e7     	jalr	-0x1e8(ra) <core::fmt::rt::Argument::new_display::h0f8d4721c9a89fbb>
80003c46: 65ea         	ld	a1, 0x98(sp)
80003c48: 1208         	addi	a0, sp, 0x120
80003c4a: ffffd097     	auipc	ra, 0xffffd
80003c4e: e0c080e7     	jalr	-0x1f4(ra) <core::fmt::rt::Argument::new_display::h0f8d4721c9a89fbb>
80003c52: 758a         	ld	a1, 0xa0(sp)
80003c54: 1a08         	addi	a0, sp, 0x130
80003c56: ffffd097     	auipc	ra, 0xffffd
80003c5a: ecc080e7     	jalr	-0x134(ra) <core::fmt::rt::Argument::new_lower_hex::hc9324aa1f0e7ff53>
80003c5e: 75aa         	ld	a1, 0xa8(sp)
80003c60: 0288         	addi	a0, sp, 0x140
80003c62: ffffd097     	auipc	ra, 0xffffd
80003c66: ec0080e7     	jalr	-0x140(ra) <core::fmt::rt::Argument::new_lower_hex::hc9324aa1f0e7ff53>
80003c6a: 6532         	ld	a0, 0x108(sp)
80003c6c: fd2a         	sd	a0, 0xb8(sp)
80003c6e: 6512         	ld	a0, 0x100(sp)
80003c70: f92a         	sd	a0, 0xb0(sp)
80003c72: 6572         	ld	a0, 0x118(sp)
80003c74: e5aa         	sd	a0, 0xc8(sp)
80003c76: 6552         	ld	a0, 0x110(sp)
80003c78: e1aa         	sd	a0, 0xc0(sp)
80003c7a: 7532         	ld	a0, 0x128(sp)
80003c7c: edaa         	sd	a0, 0xd8(sp)
80003c7e: 7512         	ld	a0, 0x120(sp)
80003c80: e9aa         	sd	a0, 0xd0(sp)
80003c82: 7572         	ld	a0, 0x138(sp)
80003c84: f5aa         	sd	a0, 0xe8(sp)
80003c86: 7552         	ld	a0, 0x130(sp)
80003c88: f1aa         	sd	a0, 0xe0(sp)
80003c8a: 6536         	ld	a0, 0x148(sp)
80003c8c: fdaa         	sd	a0, 0xf8(sp)
80003c8e: 6516         	ld	a0, 0x140(sp)
80003c90: f9aa         	sd	a0, 0xf0(sp)

0000000080003c92 <.Lpcrel_hi367>:
80003c92: 00005517     	auipc	a0, 0x5
80003c96: 94e50513     	addi	a0, a0, -0x6b2
80003c9a: 190c         	addi	a1, sp, 0xb0
80003c9c: ffffc097     	auipc	ra, 0xffffc
80003ca0: 624080e7     	jalr	0x624(ra) <core::fmt::Arguments::new::h9c30c7d22309e228>
80003ca4: 00002097     	auipc	ra, 0x2
80003ca8: b80080e7     	jalr	-0x480(ra) <lab7_kernel_task2::console::print::h0d70eb8228e543e8>
80003cac: a809         	j	0x80003cbe <.Lpcrel_hi368+0x10>

0000000080003cae <.Lpcrel_hi368>:
80003cae: 00005517     	auipc	a0, 0x5
80003cb2: 8d250513     	addi	a0, a0, -0x72e
80003cb6: 00003097     	auipc	ra, 0x3
80003cba: b70080e7     	jalr	-0x490(ra) <core::panicking::panic_null_pointer_dereference::hbac6411af4f2e916>
80003cbe: 70fe         	ld	ra, 0x1f8(sp)
80003cc0: 20010113     	addi	sp, sp, 0x200
80003cc4: 8082         	ret

0000000080003cc6 <.Lpcrel_hi369>:
80003cc6: 00008517     	auipc	a0, 0x8
80003cca: 33a50513     	addi	a0, a0, 0x33a
80003cce: ed01         	bnez	a0, 0x80003ce6 <.Lpcrel_hi370+0x12>
80003cd0: a815         	j	0x80003d04 <.Lpcrel_hi372>
80003cd2: 650a         	ld	a0, 0x80(sp)

0000000080003cd4 <.Lpcrel_hi370>:
80003cd4: 00005597     	auipc	a1, 0x5
80003cd8: 95458613     	addi	a2, a1, -0x6ac
80003cdc: 4589         	li	a1, 0x2
80003cde: 00003097     	auipc	ra, 0x3
80003ce2: adc080e7     	jalr	-0x524(ra) <core::panicking::panic_bounds_check::h6aaee0d15e0261eb>
80003ce6: 650a         	ld	a0, 0x80(sp)
80003ce8: 00651593     	slli	a1, a0, 0x6

0000000080003cec <.Lpcrel_hi371>:
80003cec: 00008517     	auipc	a0, 0x8
80003cf0: 31450513     	addi	a0, a0, 0x314
80003cf4: 952e         	add	a0, a0, a1
80003cf6: 650c         	ld	a1, 0x8(a0)
80003cf8: 00158513     	addi	a0, a1, 0x1
80003cfc: f82a         	sd	a0, 0x30(sp)
80003cfe: 02b56163     	bltu	a0, a1, 0x80003d20 <.Lpcrel_hi374>
80003d02: a809         	j	0x80003d14 <.Lpcrel_hi373>

0000000080003d04 <.Lpcrel_hi372>:
80003d04: 00005517     	auipc	a0, 0x5
80003d08: 92450513     	addi	a0, a0, -0x6dc
80003d0c: 00003097     	auipc	ra, 0x3
80003d10: b1a080e7     	jalr	-0x4e6(ra) <core::panicking::panic_null_pointer_dereference::hbac6411af4f2e916>

0000000080003d14 <.Lpcrel_hi373>:
80003d14: 00008517     	auipc	a0, 0x8
80003d18: 2ec50513     	addi	a0, a0, 0x2ec
80003d1c: e911         	bnez	a0, 0x80003d30 <.Lpcrel_hi374+0x10>
80003d1e: a805         	j	0x80003d4e <.Lpcrel_hi376>

0000000080003d20 <.Lpcrel_hi374>:
80003d20: 00005517     	auipc	a0, 0x5
80003d24: 90850513     	addi	a0, a0, -0x6f8
80003d28: 00003097     	auipc	ra, 0x3
80003d2c: 9fc080e7     	jalr	-0x604(ra) <core::panicking::panic_const::panic_const_add_overflow::h67cba067093910f8>
80003d30: 7542         	ld	a0, 0x30(sp)
80003d32: 658a         	ld	a1, 0x80(sp)
80003d34: 00659613     	slli	a2, a1, 0x6

0000000080003d38 <.Lpcrel_hi375>:
80003d38: 00008597     	auipc	a1, 0x8
80003d3c: 2c858593     	addi	a1, a1, 0x2c8
80003d40: 95b2         	add	a1, a1, a2
80003d42: e588         	sd	a0, 0x8(a1)
80003d44: 650a         	ld	a0, 0x80(sp)
80003d46: 4589         	li	a1, 0x2
80003d48: 00b56b63     	bltu	a0, a1, 0x80003d5e <.Lpcrel_hi377>
80003d4c: a839         	j	0x80003d6a <.Lpcrel_hi377+0xc>

0000000080003d4e <.Lpcrel_hi376>:
80003d4e: 00005517     	auipc	a0, 0x5
80003d52: 8da50513     	addi	a0, a0, -0x726
80003d56: 00003097     	auipc	ra, 0x3
80003d5a: ad0080e7     	jalr	-0x530(ra) <core::panicking::panic_null_pointer_dereference::hbac6411af4f2e916>

0000000080003d5e <.Lpcrel_hi377>:
80003d5e: 00006517     	auipc	a0, 0x6
80003d62: 74a50513     	addi	a0, a0, 0x74a
80003d66: ed01         	bnez	a0, 0x80003d7e <.Lpcrel_hi378+0x12>
80003d68: a80d         	j	0x80003d9a <.Lpcrel_hi380>
80003d6a: 650a         	ld	a0, 0x80(sp)

0000000080003d6c <.Lpcrel_hi378>:
80003d6c: 00005597     	auipc	a1, 0x5
80003d70: 8d458613     	addi	a2, a1, -0x72c
80003d74: 4589         	li	a1, 0x2
80003d76: 00003097     	auipc	ra, 0x3
80003d7a: a44080e7     	jalr	-0x5bc(ra) <core::panicking::panic_bounds_check::h6aaee0d15e0261eb>
80003d7e: 650a         	ld	a0, 0x80(sp)
80003d80: 00851613     	slli	a2, a0, 0x8

0000000080003d84 <.Lpcrel_hi379>:
80003d84: 00006597     	auipc	a1, 0x6
80003d88: 72458593     	addi	a1, a1, 0x724
80003d8c: 95b2         	add	a1, a1, a2
80003d8e: 65ac         	ld	a1, 0x48(a1)
80003d90: f42e         	sd	a1, 0x28(sp)
80003d92: 4589         	li	a1, 0x2
80003d94: 00b56b63     	bltu	a0, a1, 0x80003daa <.Lpcrel_hi381>
80003d98: a839         	j	0x80003db6 <.Lpcrel_hi381+0xc>

0000000080003d9a <.Lpcrel_hi380>:
80003d9a: 00005517     	auipc	a0, 0x5
80003d9e: 8a650513     	addi	a0, a0, -0x75a
80003da2: 00003097     	auipc	ra, 0x3
80003da6: a84080e7     	jalr	-0x57c(ra) <core::panicking::panic_null_pointer_dereference::hbac6411af4f2e916>

0000000080003daa <.Lpcrel_hi381>:
80003daa: 00008517     	auipc	a0, 0x8
80003dae: 25650513     	addi	a0, a0, 0x256
80003db2: ed01         	bnez	a0, 0x80003dca <.Lpcrel_hi382+0x12>
80003db4: a815         	j	0x80003de8 <.Lpcrel_hi384>
80003db6: 650a         	ld	a0, 0x80(sp)

0000000080003db8 <.Lpcrel_hi382>:
80003db8: 00005597     	auipc	a1, 0x5
80003dbc: 8a058613     	addi	a2, a1, -0x760
80003dc0: 4589         	li	a1, 0x2
80003dc2: 00003097     	auipc	ra, 0x3
80003dc6: 9f8080e7     	jalr	-0x608(ra) <core::panicking::panic_bounds_check::h6aaee0d15e0261eb>
80003dca: 7522         	ld	a0, 0x28(sp)
80003dcc: 658a         	ld	a1, 0x80(sp)
80003dce: 00659613     	slli	a2, a1, 0x6

0000000080003dd2 <.Lpcrel_hi383>:
80003dd2: 00008597     	auipc	a1, 0x8
80003dd6: 22e58593     	addi	a1, a1, 0x22e
80003dda: 95b2         	add	a1, a1, a2
80003ddc: ed88         	sd	a0, 0x18(a1)
80003dde: 650a         	ld	a0, 0x80(sp)
80003de0: 4589         	li	a1, 0x2
80003de2: 00b56b63     	bltu	a0, a1, 0x80003df8 <.Lpcrel_hi385>
80003de6: a839         	j	0x80003e04 <.Lpcrel_hi385+0xc>

0000000080003de8 <.Lpcrel_hi384>:
80003de8: 00005517     	auipc	a0, 0x5
80003dec: 87050513     	addi	a0, a0, -0x790
80003df0: 00003097     	auipc	ra, 0x3
80003df4: a36080e7     	jalr	-0x5ca(ra) <core::panicking::panic_null_pointer_dereference::hbac6411af4f2e916>

0000000080003df8 <.Lpcrel_hi385>:
80003df8: 00006517     	auipc	a0, 0x6
80003dfc: 6b050513     	addi	a0, a0, 0x6b0
80003e00: ed01         	bnez	a0, 0x80003e18 <.Lpcrel_hi386+0x12>
80003e02: a80d         	j	0x80003e34 <.Lpcrel_hi388>
80003e04: 650a         	ld	a0, 0x80(sp)

0000000080003e06 <.Lpcrel_hi386>:
80003e06: 00005597     	auipc	a1, 0x5
80003e0a: 86a58613     	addi	a2, a1, -0x796
80003e0e: 4589         	li	a1, 0x2
80003e10: 00003097     	auipc	ra, 0x3
80003e14: 9aa080e7     	jalr	-0x656(ra) <core::panicking::panic_bounds_check::h6aaee0d15e0261eb>
80003e18: 650a         	ld	a0, 0x80(sp)
80003e1a: 00851613     	slli	a2, a0, 0x8

0000000080003e1e <.Lpcrel_hi387>:
80003e1e: 00006597     	auipc	a1, 0x6
80003e22: 68a58593     	addi	a1, a1, 0x68a
80003e26: 95b2         	add	a1, a1, a2
80003e28: 69ac         	ld	a1, 0x50(a1)
80003e2a: f02e         	sd	a1, 0x20(sp)
80003e2c: 4589         	li	a1, 0x2
80003e2e: 00b56b63     	bltu	a0, a1, 0x80003e44 <.Lpcrel_hi389>
80003e32: a839         	j	0x80003e50 <.Lpcrel_hi389+0xc>

0000000080003e34 <.Lpcrel_hi388>:
80003e34: 00005517     	auipc	a0, 0x5
80003e38: 83c50513     	addi	a0, a0, -0x7c4
80003e3c: 00003097     	auipc	ra, 0x3
80003e40: 9ea080e7     	jalr	-0x616(ra) <core::panicking::panic_null_pointer_dereference::hbac6411af4f2e916>

0000000080003e44 <.Lpcrel_hi389>:
80003e44: 00008517     	auipc	a0, 0x8
80003e48: 1bc50513     	addi	a0, a0, 0x1bc
80003e4c: ed01         	bnez	a0, 0x80003e64 <.Lpcrel_hi390+0x12>
80003e4e: a815         	j	0x80003e82 <.Lpcrel_hi392>
80003e50: 650a         	ld	a0, 0x80(sp)

0000000080003e52 <.Lpcrel_hi390>:
80003e52: 00005597     	auipc	a1, 0x5
80003e56: 83658613     	addi	a2, a1, -0x7ca
80003e5a: 4589         	li	a1, 0x2
80003e5c: 00003097     	auipc	ra, 0x3
80003e60: 95e080e7     	jalr	-0x6a2(ra) <core::panicking::panic_bounds_check::h6aaee0d15e0261eb>
80003e64: 7502         	ld	a0, 0x20(sp)
80003e66: 658a         	ld	a1, 0x80(sp)
80003e68: 00659613     	slli	a2, a1, 0x6

0000000080003e6c <.Lpcrel_hi391>:
80003e6c: 00008597     	auipc	a1, 0x8
80003e70: 19458593     	addi	a1, a1, 0x194
80003e74: 95b2         	add	a1, a1, a2
80003e76: f188         	sd	a0, 0x20(a1)
80003e78: 650a         	ld	a0, 0x80(sp)
80003e7a: 4589         	li	a1, 0x2
80003e7c: 00b56b63     	bltu	a0, a1, 0x80003e92 <.Lpcrel_hi393>
80003e80: a839         	j	0x80003e9e <.Lpcrel_hi393+0xc>

0000000080003e82 <.Lpcrel_hi392>:
80003e82: 00005517     	auipc	a0, 0x5
80003e86: 80650513     	addi	a0, a0, -0x7fa
80003e8a: 00003097     	auipc	ra, 0x3
80003e8e: 99c080e7     	jalr	-0x664(ra) <core::panicking::panic_null_pointer_dereference::hbac6411af4f2e916>

0000000080003e92 <.Lpcrel_hi393>:
80003e92: 00006517     	auipc	a0, 0x6
80003e96: 61650513     	addi	a0, a0, 0x616
80003e9a: ed01         	bnez	a0, 0x80003eb2 <.Lpcrel_hi394+0x12>
80003e9c: a80d         	j	0x80003ece <.Lpcrel_hi396>
80003e9e: 650a         	ld	a0, 0x80(sp)

0000000080003ea0 <.Lpcrel_hi394>:
80003ea0: 00005597     	auipc	a1, 0x5
80003ea4: 80058613     	addi	a2, a1, -0x800
80003ea8: 4589         	li	a1, 0x2
80003eaa: 00003097     	auipc	ra, 0x3
80003eae: 910080e7     	jalr	-0x6f0(ra) <core::panicking::panic_bounds_check::h6aaee0d15e0261eb>
80003eb2: 650a         	ld	a0, 0x80(sp)
80003eb4: 00851613     	slli	a2, a0, 0x8

0000000080003eb8 <.Lpcrel_hi395>:
80003eb8: 00006597     	auipc	a1, 0x6
80003ebc: 5f058593     	addi	a1, a1, 0x5f0
80003ec0: 95b2         	add	a1, a1, a2
80003ec2: 6dac         	ld	a1, 0x58(a1)
80003ec4: ec2e         	sd	a1, 0x18(sp)
80003ec6: 4589         	li	a1, 0x2
80003ec8: 00b56b63     	bltu	a0, a1, 0x80003ede <.Lpcrel_hi397>
80003ecc: a839         	j	0x80003eea <.Lpcrel_hi397+0xc>

0000000080003ece <.Lpcrel_hi396>:
80003ece: 00004517     	auipc	a0, 0x4
80003ed2: 7d250513     	addi	a0, a0, 0x7d2
80003ed6: 00003097     	auipc	ra, 0x3
80003eda: 950080e7     	jalr	-0x6b0(ra) <core::panicking::panic_null_pointer_dereference::hbac6411af4f2e916>

0000000080003ede <.Lpcrel_hi397>:
80003ede: 00008517     	auipc	a0, 0x8
80003ee2: 12250513     	addi	a0, a0, 0x122
80003ee6: ed01         	bnez	a0, 0x80003efe <.Lpcrel_hi398+0x12>
80003ee8: a815         	j	0x80003f1c <.Lpcrel_hi400>
80003eea: 650a         	ld	a0, 0x80(sp)

0000000080003eec <.Lpcrel_hi398>:
80003eec: 00004597     	auipc	a1, 0x4
80003ef0: 7cc58613     	addi	a2, a1, 0x7cc
80003ef4: 4589         	li	a1, 0x2
80003ef6: 00003097     	auipc	ra, 0x3
80003efa: 8c4080e7     	jalr	-0x73c(ra) <core::panicking::panic_bounds_check::h6aaee0d15e0261eb>
80003efe: 6562         	ld	a0, 0x18(sp)
80003f00: 658a         	ld	a1, 0x80(sp)
80003f02: 00659613     	slli	a2, a1, 0x6

0000000080003f06 <.Lpcrel_hi399>:
80003f06: 00008597     	auipc	a1, 0x8
80003f0a: 0fa58593     	addi	a1, a1, 0xfa
80003f0e: 95b2         	add	a1, a1, a2
80003f10: f588         	sd	a0, 0x28(a1)
80003f12: 650a         	ld	a0, 0x80(sp)
80003f14: 4589         	li	a1, 0x2
80003f16: 00b56b63     	bltu	a0, a1, 0x80003f2c <.Lpcrel_hi401>
80003f1a: a839         	j	0x80003f38 <.Lpcrel_hi401+0xc>

0000000080003f1c <.Lpcrel_hi400>:
80003f1c: 00004517     	auipc	a0, 0x4
80003f20: 79c50513     	addi	a0, a0, 0x79c
80003f24: 00003097     	auipc	ra, 0x3
80003f28: 902080e7     	jalr	-0x6fe(ra) <core::panicking::panic_null_pointer_dereference::hbac6411af4f2e916>

0000000080003f2c <.Lpcrel_hi401>:
80003f2c: 00008517     	auipc	a0, 0x8
80003f30: 0d450513     	addi	a0, a0, 0xd4
80003f34: ed01         	bnez	a0, 0x80003f4c <.Lpcrel_hi402+0x12>
80003f36: a80d         	j	0x80003f68 <.Lpcrel_hi404>
80003f38: 650a         	ld	a0, 0x80(sp)

0000000080003f3a <.Lpcrel_hi402>:
80003f3a: 00004597     	auipc	a1, 0x4
80003f3e: 79658613     	addi	a2, a1, 0x796
80003f42: 4589         	li	a1, 0x2
80003f44: 00003097     	auipc	ra, 0x3
80003f48: 876080e7     	jalr	-0x78a(ra) <core::panicking::panic_bounds_check::h6aaee0d15e0261eb>
80003f4c: 650a         	ld	a0, 0x80(sp)
80003f4e: 00651613     	slli	a2, a0, 0x6

0000000080003f52 <.Lpcrel_hi403>:
80003f52: 00008597     	auipc	a1, 0x8
80003f56: 0ae58593     	addi	a1, a1, 0xae
80003f5a: 95b2         	add	a1, a1, a2
80003f5c: 05e1         	addi	a1, a1, 0x18
80003f5e: e82e         	sd	a1, 0x10(sp)
80003f60: 4589         	li	a1, 0x2
80003f62: 00b56b63     	bltu	a0, a1, 0x80003f78 <.Lpcrel_hi405>
80003f66: a839         	j	0x80003f84 <.Lpcrel_hi405+0xc>

0000000080003f68 <.Lpcrel_hi404>:
80003f68: 00004517     	auipc	a0, 0x4
80003f6c: 78050513     	addi	a0, a0, 0x780
80003f70: 00003097     	auipc	ra, 0x3
80003f74: 8b6080e7     	jalr	-0x74a(ra) <core::panicking::panic_null_pointer_dereference::hbac6411af4f2e916>

0000000080003f78 <.Lpcrel_hi405>:
80003f78: 00008517     	auipc	a0, 0x8
80003f7c: 08850513     	addi	a0, a0, 0x88
80003f80: ed01         	bnez	a0, 0x80003f98 <.Lpcrel_hi406+0x12>
80003f82: a815         	j	0x80003fb6 <.Lpcrel_hi408>
80003f84: 650a         	ld	a0, 0x80(sp)

0000000080003f86 <.Lpcrel_hi406>:
80003f86: 00004597     	auipc	a1, 0x4
80003f8a: 77a58613     	addi	a2, a1, 0x77a
80003f8e: 4589         	li	a1, 0x2
80003f90: 00003097     	auipc	ra, 0x3
80003f94: 82a080e7     	jalr	-0x7d6(ra) <core::panicking::panic_bounds_check::h6aaee0d15e0261eb>
80003f98: 650a         	ld	a0, 0x80(sp)
80003f9a: 00651613     	slli	a2, a0, 0x6

0000000080003f9e <.Lpcrel_hi407>:
80003f9e: 00008597     	auipc	a1, 0x8
80003fa2: 06258593     	addi	a1, a1, 0x62
80003fa6: 95b2         	add	a1, a1, a2
80003fa8: 02058593     	addi	a1, a1, 0x20
80003fac: e42e         	sd	a1, 0x8(sp)
80003fae: 4589         	li	a1, 0x2
80003fb0: 00b56b63     	bltu	a0, a1, 0x80003fc6 <.Lpcrel_hi409>
80003fb4: a839         	j	0x80003fd2 <.Lpcrel_hi409+0xc>

0000000080003fb6 <.Lpcrel_hi408>:
80003fb6: 00004517     	auipc	a0, 0x4
80003fba: 73250513     	addi	a0, a0, 0x732
80003fbe: 00003097     	auipc	ra, 0x3
80003fc2: 868080e7     	jalr	-0x798(ra) <core::panicking::panic_null_pointer_dereference::hbac6411af4f2e916>

0000000080003fc6 <.Lpcrel_hi409>:
80003fc6: 00008517     	auipc	a0, 0x8
80003fca: 03a50513     	addi	a0, a0, 0x3a
80003fce: ed01         	bnez	a0, 0x80003fe6 <.Lpcrel_hi410+0x12>
80003fd0: a055         	j	0x80004074 <.Lpcrel_hi413>
80003fd2: 650a         	ld	a0, 0x80(sp)

0000000080003fd4 <.Lpcrel_hi410>:
80003fd4: 00004597     	auipc	a1, 0x4
80003fd8: 74458613     	addi	a2, a1, 0x744
80003fdc: 4589         	li	a1, 0x2
80003fde: 00002097     	auipc	ra, 0x2
80003fe2: 7dc080e7     	jalr	0x7dc(ra) <core::panicking::panic_bounds_check::h6aaee0d15e0261eb>
80003fe6: 65a2         	ld	a1, 0x8(sp)
80003fe8: 6642         	ld	a2, 0x10(sp)
80003fea: 650a         	ld	a0, 0x80(sp)
80003fec: 00651693     	slli	a3, a0, 0x6

0000000080003ff0 <.Lpcrel_hi411>:
80003ff0: 00008517     	auipc	a0, 0x8
80003ff4: 01050513     	addi	a0, a0, 0x10
80003ff8: 9536         	add	a0, a0, a3
80003ffa: 02850513     	addi	a0, a0, 0x28
80003ffe: 0114         	addi	a3, sp, 0x80
80004000: eab6         	sd	a3, 0x150(sp)
80004002: eeb2         	sd	a2, 0x158(sp)
80004004: f2ae         	sd	a1, 0x160(sp)
80004006: f6aa         	sd	a0, 0x168(sp)
80004008: 65d6         	ld	a1, 0x150(sp)
8000400a: 1b08         	addi	a0, sp, 0x1b0
8000400c: ffffd097     	auipc	ra, 0xffffd
80004010: a4a080e7     	jalr	-0x5b6(ra) <core::fmt::rt::Argument::new_display::h0f8d4721c9a89fbb>
80004014: 65f6         	ld	a1, 0x158(sp)
80004016: 0388         	addi	a0, sp, 0x1c0
80004018: ffffd097     	auipc	ra, 0xffffd
8000401c: a3e080e7     	jalr	-0x5c2(ra) <core::fmt::rt::Argument::new_display::h0f8d4721c9a89fbb>
80004020: 7596         	ld	a1, 0x160(sp)
80004022: 0b88         	addi	a0, sp, 0x1d0
80004024: ffffd097     	auipc	ra, 0xffffd
80004028: a32080e7     	jalr	-0x5ce(ra) <core::fmt::rt::Argument::new_display::h0f8d4721c9a89fbb>
8000402c: 75b6         	ld	a1, 0x168(sp)
8000402e: 1388         	addi	a0, sp, 0x1e0
80004030: ffffd097     	auipc	ra, 0xffffd
80004034: a26080e7     	jalr	-0x5da(ra) <core::fmt::rt::Argument::new_display::h0f8d4721c9a89fbb>
80004038: 757a         	ld	a0, 0x1b8(sp)
8000403a: feaa         	sd	a0, 0x178(sp)
8000403c: 755a         	ld	a0, 0x1b0(sp)
8000403e: faaa         	sd	a0, 0x170(sp)
80004040: 653e         	ld	a0, 0x1c8(sp)
80004042: e72a         	sd	a0, 0x188(sp)
80004044: 651e         	ld	a0, 0x1c0(sp)
80004046: e32a         	sd	a0, 0x180(sp)
80004048: 657e         	ld	a0, 0x1d8(sp)
8000404a: ef2a         	sd	a0, 0x198(sp)
8000404c: 655e         	ld	a0, 0x1d0(sp)
8000404e: eb2a         	sd	a0, 0x190(sp)
80004050: 753e         	ld	a0, 0x1e8(sp)
80004052: f72a         	sd	a0, 0x1a8(sp)
80004054: 751e         	ld	a0, 0x1e0(sp)
80004056: f32a         	sd	a0, 0x1a0(sp)

0000000080004058 <.Lpcrel_hi412>:
80004058: 00003517     	auipc	a0, 0x3
8000405c: 27f50513     	addi	a0, a0, 0x27f
80004060: 1a8c         	addi	a1, sp, 0x170
80004062: ffffc097     	auipc	ra, 0xffffc
80004066: 222080e7     	jalr	0x222(ra) <core::fmt::Arguments::new::h7a3f9b5f589d1766>
8000406a: 00001097     	auipc	ra, 0x1
8000406e: 7ba080e7     	jalr	0x7ba(ra) <lab7_kernel_task2::console::print::h0d70eb8228e543e8>
80004072: b1b1         	j	0x80003cbe <.Lpcrel_hi368+0x10>

0000000080004074 <.Lpcrel_hi413>:
80004074: 00004517     	auipc	a0, 0x4
80004078: 67450513     	addi	a0, a0, 0x674
8000407c: 00002097     	auipc	ra, 0x2
80004080: 7aa080e7     	jalr	0x7aa(ra) <core::panicking::panic_null_pointer_dereference::hbac6411af4f2e916>

0000000080004084 <lab7_kernel_task2::proc_low_l1_table_ptr::h7c337058525c6481>:
80004084: 1141         	addi	sp, sp, -0x10
80004086: 85aa         	mv	a1, a0
80004088: e02e         	sd	a1, 0x0(sp)
8000408a: e42e         	sd	a1, 0x8(sp)
8000408c: 4505         	li	a0, 0x1
8000408e: 00b56d63     	bltu	a0, a1, 0x800040a8 <.Lpcrel_hi414+0xe>
80004092: a009         	j	0x80004094 <lab7_kernel_task2::proc_low_l1_table_ptr::h7c337058525c6481+0x10>
80004094: 6502         	ld	a0, 0x0(sp)
80004096: 00c51593     	slli	a1, a0, 0xc

000000008000409a <.Lpcrel_hi414>:
8000409a: 00010517     	auipc	a0, 0x10
8000409e: f6650513     	addi	a0, a0, -0x9a
800040a2: 952e         	add	a0, a0, a1
800040a4: 0141         	addi	sp, sp, 0x10
800040a6: 8082         	ret
800040a8: 6502         	ld	a0, 0x0(sp)

00000000800040aa <.Lpcrel_hi415>:
800040aa: 00004597     	auipc	a1, 0x4
800040ae: 69e58613     	addi	a2, a1, 0x69e
800040b2: 4589         	li	a1, 0x2
800040b4: 00002097     	auipc	ra, 0x2
800040b8: 706080e7     	jalr	0x706(ra) <core::panicking::panic_bounds_check::h6aaee0d15e0261eb>

00000000800040bc <lab7_kernel_task2::proc_user_l0_table_pa::h6b416e3c399822ac>:
800040bc: 1141         	addi	sp, sp, -0x10
800040be: 85aa         	mv	a1, a0
800040c0: e02e         	sd	a1, 0x0(sp)
800040c2: e42e         	sd	a1, 0x8(sp)
800040c4: 4505         	li	a0, 0x1
800040c6: 00b56d63     	bltu	a0, a1, 0x800040e0 <.Lpcrel_hi416+0xe>
800040ca: a009         	j	0x800040cc <lab7_kernel_task2::proc_user_l0_table_pa::h6b416e3c399822ac+0x10>
800040cc: 6502         	ld	a0, 0x0(sp)
800040ce: 00c51593     	slli	a1, a0, 0xc

00000000800040d2 <.Lpcrel_hi416>:
800040d2: 00012517     	auipc	a0, 0x12
800040d6: f2e50513     	addi	a0, a0, -0xd2
800040da: 952e         	add	a0, a0, a1
800040dc: 0141         	addi	sp, sp, 0x10
800040de: 8082         	ret
800040e0: 6502         	ld	a0, 0x0(sp)

00000000800040e2 <.Lpcrel_hi417>:
800040e2: 00004597     	auipc	a1, 0x4
800040e6: 67e58613     	addi	a2, a1, 0x67e
800040ea: 4589         	li	a1, 0x2
800040ec: 00002097     	auipc	ra, 0x2
800040f0: 6ce080e7     	jalr	0x6ce(ra) <core::panicking::panic_bounds_check::h6aaee0d15e0261eb>

00000000800040f4 <lab7_kernel_task2::expected_trampoline_va::h25c62e6f1aedfcb5>:
800040f4: 1141         	addi	sp, sp, -0x10
800040f6: e406         	sd	ra, 0x8(sp)

00000000800040f8 <.Lpcrel_hi418>:
800040f8: ffffd517     	auipc	a0, 0xffffd
800040fc: e9450513     	addi	a0, a0, -0x16c
80004100: ffffe097     	auipc	ra, 0xffffe
80004104: 346080e7     	jalr	0x346(ra) <lab7_kernel_task2::user_symbol_va::h64ac36acc965ab7d>
80004108: 60a2         	ld	ra, 0x8(sp)
8000410a: 0141         	addi	sp, sp, 0x10
8000410c: 8082         	ret

000000008000410e <lab7_kernel_task2::machine_trap_stack_top::h99629f30404c64a6>:
8000410e: 00029517     	auipc	a0, 0x29
80004112: ef250513     	addi	a0, a0, -0x10e
80004116: 8082         	ret

0000000080004118 <lab7_kernel_task2::other_runnable_or_self::hc87d8aba0385e1f9>:
80004118: 7179         	addi	sp, sp, -0x30
8000411a: f406         	sd	ra, 0x28(sp)
8000411c: e02a         	sd	a0, 0x0(sp)
8000411e: ec2a         	sd	a0, 0x18(sp)
80004120: 00001097     	auipc	ra, 0x1
80004124: d8e080e7     	jalr	-0x272(ra) <lab7_kernel_task2::other_pid::h76b19580158ea613>
80004128: 85aa         	mv	a1, a0
8000412a: 852e         	mv	a0, a1
8000412c: e42a         	sd	a0, 0x8(sp)
8000412e: f02e         	sd	a1, 0x20(sp)
80004130: 4505         	li	a0, 0x1
80004132: 00b56963     	bltu	a0, a1, 0x80004144 <.Lpcrel_hi420+0xc>
80004136: a009         	j	0x80004138 <.Lpcrel_hi420>

0000000080004138 <.Lpcrel_hi420>:
80004138: 00006517     	auipc	a0, 0x6
8000413c: f3050513     	addi	a0, a0, -0xd0
80004140: ed01         	bnez	a0, 0x80004158 <.Lpcrel_hi421+0x12>
80004142: a815         	j	0x80004176 <.Lpcrel_hi423>
80004144: 6522         	ld	a0, 0x8(sp)

0000000080004146 <.Lpcrel_hi421>:
80004146: 00004597     	auipc	a1, 0x4
8000414a: 63258613     	addi	a2, a1, 0x632
8000414e: 4589         	li	a1, 0x2
80004150: 00002097     	auipc	ra, 0x2
80004154: 66a080e7     	jalr	0x66a(ra) <core::panicking::panic_bounds_check::h6aaee0d15e0261eb>
80004158: 6522         	ld	a0, 0x8(sp)
8000415a: 00551593     	slli	a1, a0, 0x5
8000415e: 0526         	slli	a0, a0, 0x9
80004160: 95aa         	add	a1, a1, a0

0000000080004162 <.Lpcrel_hi422>:
80004162: 00006517     	auipc	a0, 0x6
80004166: f0650513     	addi	a0, a0, -0xfa
8000416a: 952e         	add	a0, a0, a1
8000416c: 6108         	ld	a0, 0x0(a0)
8000416e: 4585         	li	a1, 0x1
80004170: 00b50e63     	beq	a0, a1, 0x8000418c <.Lpcrel_hi423+0x16>
80004174: a809         	j	0x80004186 <.Lpcrel_hi423+0x10>

0000000080004176 <.Lpcrel_hi423>:
80004176: 00004517     	auipc	a0, 0x4
8000417a: 60250513     	addi	a0, a0, 0x602
8000417e: 00002097     	auipc	ra, 0x2
80004182: 6a8080e7     	jalr	0x6a8(ra) <core::panicking::panic_null_pointer_dereference::hbac6411af4f2e916>
80004186: 6502         	ld	a0, 0x0(sp)
80004188: e82a         	sd	a0, 0x10(sp)
8000418a: a021         	j	0x80004192 <.Lpcrel_hi423+0x1c>
8000418c: 6522         	ld	a0, 0x8(sp)
8000418e: e82a         	sd	a0, 0x10(sp)
80004190: a009         	j	0x80004192 <.Lpcrel_hi423+0x1c>
80004192: 6542         	ld	a0, 0x10(sp)
80004194: 70a2         	ld	ra, 0x28(sp)
80004196: 6145         	addi	sp, sp, 0x30
80004198: 8082         	ret

000000008000419a <lab7_kernel_task2::proc_user_l0_table_ptr::h2541549e3a564294>:
8000419a: 1141         	addi	sp, sp, -0x10
8000419c: 85aa         	mv	a1, a0
8000419e: e02e         	sd	a1, 0x0(sp)
800041a0: e42e         	sd	a1, 0x8(sp)
800041a2: 4505         	li	a0, 0x1
800041a4: 00b56d63     	bltu	a0, a1, 0x800041be <.Lpcrel_hi424+0xe>
800041a8: a009         	j	0x800041aa <lab7_kernel_task2::proc_user_l0_table_ptr::h2541549e3a564294+0x10>
800041aa: 6502         	ld	a0, 0x0(sp)
800041ac: 00c51593     	slli	a1, a0, 0xc

00000000800041b0 <.Lpcrel_hi424>:
800041b0: 00012517     	auipc	a0, 0x12
800041b4: e5050513     	addi	a0, a0, -0x1b0
800041b8: 952e         	add	a0, a0, a1
800041ba: 0141         	addi	sp, sp, 0x10
800041bc: 8082         	ret
800041be: 6502         	ld	a0, 0x0(sp)

00000000800041c0 <.Lpcrel_hi425>:
800041c0: 00004597     	auipc	a1, 0x4
800041c4: 5d058613     	addi	a2, a1, 0x5d0
800041c8: 4589         	li	a1, 0x2
800041ca: 00002097     	auipc	ra, 0x2
800041ce: 5f0080e7     	jalr	0x5f0(ra) <core::panicking::panic_bounds_check::h6aaee0d15e0261eb>

00000000800041d2 <lab7_kernel_task2::next_runnable_after_exit::hb21051532d266db4>:
800041d2: 711d         	addi	sp, sp, -0x60
800041d4: ec86         	sd	ra, 0x58(sp)
800041d6: 4501         	li	a0, 0x0
800041d8: 4589         	li	a1, 0x2
800041da: ffffc097     	auipc	ra, 0xffffc
800041de: fe2080e7     	jalr	-0x1e(ra) <_$LT$I$u20$as$u20$core..iter..traits..collect..IntoIterator$GT$::into_iter::hb8f52e27760293d8>
800041e2: f82a         	sd	a0, 0x30(sp)
800041e4: fc2e         	sd	a1, 0x38(sp)
800041e6: a009         	j	0x800041e8 <lab7_kernel_task2::next_runnable_after_exit::hb21051532d266db4+0x16>
800041e8: 1808         	addi	a0, sp, 0x30
800041ea: ffffc097     	auipc	ra, 0xffffc
800041ee: fbe080e7     	jalr	-0x42(ra) <core::iter::range::_$LT$impl$u20$core..iter..traits..iterator..Iterator$u20$for$u20$core..ops..range..Range$LT$A$GT$$GT$::next::hebf4fa418202f819>
800041f2: e0aa         	sd	a0, 0x40(sp)
800041f4: e4ae         	sd	a1, 0x48(sp)
800041f6: 6506         	ld	a0, 0x40(sp)
800041f8: 8905         	andi	a0, a0, 0x1
800041fa: c919         	beqz	a0, 0x80004210 <lab7_kernel_task2::next_runnable_after_exit::hb21051532d266db4+0x3e>
800041fc: a009         	j	0x800041fe <lab7_kernel_task2::next_runnable_after_exit::hb21051532d266db4+0x2c>
800041fe: 6526         	ld	a0, 0x48(sp)
80004200: e82a         	sd	a0, 0x10(sp)
80004202: e8aa         	sd	a0, 0x50(sp)
80004204: 4589         	li	a1, 0x2
80004206: 862a         	mv	a2, a0
80004208: ec32         	sd	a2, 0x18(sp)
8000420a: 00b56b63     	bltu	a0, a1, 0x80004220 <.Lpcrel_hi426>
8000420e: a839         	j	0x8000422c <.Lpcrel_hi426+0xc>
80004210: 4501         	li	a0, 0x0
80004212: f02a         	sd	a0, 0x20(sp)
80004214: a009         	j	0x80004216 <lab7_kernel_task2::next_runnable_after_exit::hb21051532d266db4+0x44>
80004216: 7502         	ld	a0, 0x20(sp)
80004218: 75a2         	ld	a1, 0x28(sp)
8000421a: 60e6         	ld	ra, 0x58(sp)
8000421c: 6125         	addi	sp, sp, 0x60
8000421e: 8082         	ret

0000000080004220 <.Lpcrel_hi426>:
80004220: 00006517     	auipc	a0, 0x6
80004224: e4850513     	addi	a0, a0, -0x1b8
80004228: ed01         	bnez	a0, 0x80004240 <.Lpcrel_hi427+0x12>
8000422a: a825         	j	0x80004262 <.Lpcrel_hi429>
8000422c: 6562         	ld	a0, 0x18(sp)

000000008000422e <.Lpcrel_hi427>:
8000422e: 00004597     	auipc	a1, 0x4
80004232: 57a58613     	addi	a2, a1, 0x57a
80004236: 4589         	li	a1, 0x2
80004238: 00002097     	auipc	ra, 0x2
8000423c: 582080e7     	jalr	0x582(ra) <core::panicking::panic_bounds_check::h6aaee0d15e0261eb>
80004240: 6642         	ld	a2, 0x10(sp)
80004242: 00561593     	slli	a1, a2, 0x5
80004246: 00961513     	slli	a0, a2, 0x9
8000424a: 95aa         	add	a1, a1, a0

000000008000424c <.Lpcrel_hi428>:
8000424c: 00006517     	auipc	a0, 0x6
80004250: e1c50513     	addi	a0, a0, -0x1e4
80004254: 952e         	add	a0, a0, a1
80004256: 6108         	ld	a0, 0x0(a0)
80004258: 4585         	li	a1, 0x1
8000425a: e432         	sd	a2, 0x8(sp)
8000425c: 00b50b63     	beq	a0, a1, 0x80004272 <.Lpcrel_hi429+0x10>
80004260: b761         	j	0x800041e8 <lab7_kernel_task2::next_runnable_after_exit::hb21051532d266db4+0x16>

0000000080004262 <.Lpcrel_hi429>:
80004262: 00004517     	auipc	a0, 0x4
80004266: 54650513     	addi	a0, a0, 0x546
8000426a: 00002097     	auipc	ra, 0x2
8000426e: 5bc080e7     	jalr	0x5bc(ra) <core::panicking::panic_null_pointer_dereference::hbac6411af4f2e916>
80004272: 6522         	ld	a0, 0x8(sp)
80004274: f42a         	sd	a0, 0x28(sp)
80004276: 4505         	li	a0, 0x1
80004278: f02a         	sd	a0, 0x20(sp)
8000427a: bf71         	j	0x80004216 <lab7_kernel_task2::next_runnable_after_exit::hb21051532d266db4+0x44>

000000008000427c <lab7_kernel_task2::supervisor_trap_stack_top::hbf8b7b47d79a101b>:
8000427c: 00025517     	auipc	a0, 0x25
80004280: d8450513     	addi	a0, a0, -0x27c
80004284: 8082         	ret

0000000080004286 <lab7_kernel_task2::build_global_kernel_tables::h6bd9be884a3e3355>:
80004286: 7119         	addi	sp, sp, -0x80
80004288: fc86         	sd	ra, 0x78(sp)
8000428a: 00100537     	lui	a0, 0x100
8000428e: f82a         	sd	a0, 0x30(sp)
80004290: 0c600593     	li	a1, 0xc6
80004294: 00001097     	auipc	ra, 0x1
80004298: b7a080e7     	jalr	-0x486(ra) <lab7_kernel_task2::leaf_pte::hdaf777f2912aa95a>
8000429c: 85aa         	mv	a1, a0
8000429e: 7542         	ld	a0, 0x30(sp)
800042a0: fc2e         	sd	a1, 0x38(sp)
800042a2: ffffd097     	auipc	ra, 0xffffd
800042a6: f20080e7     	jalr	-0xe0(ra) <lab7_kernel_task2::vpn0_index::h1a7fd2ea4053119f>
800042aa: 85aa         	mv	a1, a0
800042ac: 852e         	mv	a0, a1
800042ae: e0aa         	sd	a0, 0x40(sp)
800042b0: 1ff00513     	li	a0, 0x1ff
800042b4: 00b56a63     	bltu	a0, a1, 0x800042c8 <.Lpcrel_hi431+0xe>
800042b8: a009         	j	0x800042ba <.Lpcrel_hi431>

00000000800042ba <.Lpcrel_hi431>:
800042ba: 0000f517     	auipc	a0, 0xf
800042be: d4650513     	addi	a0, a0, -0x2ba
800042c2: 1552         	slli	a0, a0, 0x34
800042c4: cd09         	beqz	a0, 0x800042de <.Lpcrel_hi433>
800042c6: a015         	j	0x800042ea <.Lpcrel_hi434>
800042c8: 6506         	ld	a0, 0x40(sp)

00000000800042ca <.Lpcrel_hi432>:
800042ca: 00004597     	auipc	a1, 0x4
800042ce: 4f658613     	addi	a2, a1, 0x4f6
800042d2: 20000593     	li	a1, 0x200
800042d6: 00002097     	auipc	ra, 0x2
800042da: 4e4080e7     	jalr	0x4e4(ra) <core::panicking::panic_bounds_check::h6aaee0d15e0261eb>

00000000800042de <.Lpcrel_hi433>:
800042de: 0000f517     	auipc	a0, 0xf
800042e2: d2250513     	addi	a0, a0, -0x2de
800042e6: ed19         	bnez	a0, 0x80004304 <.Lpcrel_hi435+0x12>
800042e8: a089         	j	0x8000432a <.Lpcrel_hi437>

00000000800042ea <.Lpcrel_hi434>:
800042ea: 0000f517     	auipc	a0, 0xf
800042ee: d1650593     	addi	a1, a0, -0x2ea

00000000800042f2 <.Lpcrel_hi435>:
800042f2: 00004517     	auipc	a0, 0x4
800042f6: 4ce50613     	addi	a2, a0, 0x4ce
800042fa: 6505         	lui	a0, 0x1
800042fc: 00002097     	auipc	ra, 0x2
80004300: 54a080e7     	jalr	0x54a(ra) <core::panicking::panic_misaligned_pointer_dereference::hda85f7fb51d959f0>
80004304: 7562         	ld	a0, 0x38(sp)
80004306: 6586         	ld	a1, 0x40(sp)
80004308: 00359613     	slli	a2, a1, 0x3

000000008000430c <.Lpcrel_hi436>:
8000430c: 0000f597     	auipc	a1, 0xf
80004310: cf458593     	addi	a1, a1, -0x30c
80004314: 95b2         	add	a1, a1, a2
80004316: e188         	sd	a0, 0x0(a1)
80004318: 4501         	li	a0, 0x0
8000431a: 45a1         	li	a1, 0x8
8000431c: ffffc097     	auipc	ra, 0xffffc
80004320: ea0080e7     	jalr	-0x160(ra) <_$LT$I$u20$as$u20$core..iter..traits..collect..IntoIterator$GT$::into_iter::hb8f52e27760293d8>
80004324: e4aa         	sd	a0, 0x48(sp)
80004326: e8ae         	sd	a1, 0x50(sp)
80004328: a809         	j	0x8000433a <.Lpcrel_hi437+0x10>

000000008000432a <.Lpcrel_hi437>:
8000432a: 00004517     	auipc	a0, 0x4
8000432e: 49650513     	addi	a0, a0, 0x496
80004332: 00002097     	auipc	ra, 0x2
80004336: 4f4080e7     	jalr	0x4f4(ra) <core::panicking::panic_null_pointer_dereference::hbac6411af4f2e916>
8000433a: 00a8         	addi	a0, sp, 0x48
8000433c: ffffc097     	auipc	ra, 0xffffc
80004340: e6c080e7     	jalr	-0x194(ra) <core::iter::range::_$LT$impl$u20$core..iter..traits..iterator..Iterator$u20$for$u20$core..ops..range..Range$LT$A$GT$$GT$::next::hebf4fa418202f819>
80004344: ecaa         	sd	a0, 0x58(sp)
80004346: f0ae         	sd	a1, 0x60(sp)
80004348: 6566         	ld	a0, 0x58(sp)
8000434a: 8905         	andi	a0, a0, 0x1
8000434c: cd01         	beqz	a0, 0x80004364 <.Lpcrel_hi437+0x3a>
8000434e: a009         	j	0x80004350 <.Lpcrel_hi437+0x26>
80004350: 7586         	ld	a1, 0x60(sp)
80004352: f02e         	sd	a1, 0x20(sp)
80004354: f4ae         	sd	a1, 0x68(sp)
80004356: 01559513     	slli	a0, a1, 0x15
8000435a: f42a         	sd	a0, 0x28(sp)
8000435c: 8155         	srli	a0, a0, 0x15
8000435e: 00b51e63     	bne	a0, a1, 0x8000437a <.Lpcrel_hi438>
80004362: a021         	j	0x8000436a <.Lpcrel_hi437+0x40>
80004364: 70e6         	ld	ra, 0x78(sp)
80004366: 6109         	addi	sp, sp, 0x80
80004368: 8082         	ret
8000436a: 7522         	ld	a0, 0x28(sp)
8000436c: 800005b7     	lui	a1, 0x80000
80004370: 8d0d         	sub	a0, a0, a1
80004372: ec2a         	sd	a0, 0x18(sp)
80004374: 817d         	srli	a0, a0, 0x1f
80004376: cd05         	beqz	a0, 0x800043ae <.Lpcrel_hi439>
80004378: a809         	j	0x8000438a <.Lpcrel_hi438+0x10>

000000008000437a <.Lpcrel_hi438>:
8000437a: 00004517     	auipc	a0, 0x4
8000437e: 45e50513     	addi	a0, a0, 0x45e
80004382: 00002097     	auipc	ra, 0x2
80004386: 3c0080e7     	jalr	0x3c0(ra) <core::panicking::panic_const::panic_const_mul_overflow::h67897feae7531d51>
8000438a: 6562         	ld	a0, 0x18(sp)
8000438c: f8aa         	sd	a0, 0x70(sp)
8000438e: 0ce00593     	li	a1, 0xce
80004392: 00001097     	auipc	ra, 0x1
80004396: a7c080e7     	jalr	-0x584(ra) <lab7_kernel_task2::leaf_pte::hdaf777f2912aa95a>
8000439a: 85aa         	mv	a1, a0
8000439c: 7502         	ld	a0, 0x20(sp)
8000439e: e42e         	sd	a1, 0x8(sp)
800043a0: 20000593     	li	a1, 0x200
800043a4: 862a         	mv	a2, a0
800043a6: e832         	sd	a2, 0x10(sp)
800043a8: 00b56b63     	bltu	a0, a1, 0x800043be <.Lpcrel_hi440>
800043ac: a005         	j	0x800043cc <.Lpcrel_hi440+0xe>

00000000800043ae <.Lpcrel_hi439>:
800043ae: 00004517     	auipc	a0, 0x4
800043b2: 44250513     	addi	a0, a0, 0x442
800043b6: 00002097     	auipc	ra, 0x2
800043ba: 36e080e7     	jalr	0x36e(ra) <core::panicking::panic_const::panic_const_add_overflow::h67cba067093910f8>

00000000800043be <.Lpcrel_hi440>:
800043be: 00014517     	auipc	a0, 0x14
800043c2: c4250513     	addi	a0, a0, -0x3be
800043c6: 1552         	slli	a0, a0, 0x34
800043c8: cd09         	beqz	a0, 0x800043e2 <.Lpcrel_hi442>
800043ca: a015         	j	0x800043ee <.Lpcrel_hi443>
800043cc: 6542         	ld	a0, 0x10(sp)

00000000800043ce <.Lpcrel_hi441>:
800043ce: 00004597     	auipc	a1, 0x4
800043d2: 43a58613     	addi	a2, a1, 0x43a
800043d6: 20000593     	li	a1, 0x200
800043da: 00002097     	auipc	ra, 0x2
800043de: 3e0080e7     	jalr	0x3e0(ra) <core::panicking::panic_bounds_check::h6aaee0d15e0261eb>

00000000800043e2 <.Lpcrel_hi442>:
800043e2: 00014517     	auipc	a0, 0x14
800043e6: c1e50513     	addi	a0, a0, -0x3e2
800043ea: ed19         	bnez	a0, 0x80004408 <.Lpcrel_hi444+0x12>
800043ec: a80d         	j	0x8000441e <.Lpcrel_hi446>

00000000800043ee <.Lpcrel_hi443>:
800043ee: 00014517     	auipc	a0, 0x14
800043f2: c1250593     	addi	a1, a0, -0x3ee

00000000800043f6 <.Lpcrel_hi444>:
800043f6: 00004517     	auipc	a0, 0x4
800043fa: 41250613     	addi	a2, a0, 0x412
800043fe: 6505         	lui	a0, 0x1
80004400: 00002097     	auipc	ra, 0x2
80004404: 446080e7     	jalr	0x446(ra) <core::panicking::panic_misaligned_pointer_dereference::hda85f7fb51d959f0>
80004408: 6522         	ld	a0, 0x8(sp)
8000440a: 7582         	ld	a1, 0x20(sp)
8000440c: 00359613     	slli	a2, a1, 0x3

0000000080004410 <.Lpcrel_hi445>:
80004410: 00014597     	auipc	a1, 0x14
80004414: bf058593     	addi	a1, a1, -0x410
80004418: 95b2         	add	a1, a1, a2
8000441a: e188         	sd	a0, 0x0(a1)
8000441c: bf39         	j	0x8000433a <.Lpcrel_hi437+0x10>

000000008000441e <.Lpcrel_hi446>:
8000441e: 00004517     	auipc	a0, 0x4
80004422: 3ea50513     	addi	a0, a0, 0x3ea
80004426: 00002097     	auipc	ra, 0x2
8000442a: 400080e7     	jalr	0x400(ra) <core::panicking::panic_null_pointer_dereference::hbac6411af4f2e916>

000000008000442e <lab7_kernel_task2::dispatch_pending_signal_if_needed::hd2e86f3325dbb281>:
8000442e: d5010113     	addi	sp, sp, -0x2b0
80004432: 2a113423     	sd	ra, 0x2a8(sp)
80004436: ecaa         	sd	a0, 0x58(sp)
80004438: 65e6         	ld	a1, 0x58(sp)
8000443a: 4505         	li	a0, 0x1
8000443c: 00b56963     	bltu	a0, a1, 0x8000444e <.Lpcrel_hi447+0xc>
80004440: a009         	j	0x80004442 <.Lpcrel_hi447>

0000000080004442 <.Lpcrel_hi447>:
80004442: 00006517     	auipc	a0, 0x6
80004446: c2650513     	addi	a0, a0, -0x3da
8000444a: ed01         	bnez	a0, 0x80004462 <.Lpcrel_hi448+0x12>
8000444c: a83d         	j	0x8000448a <.Lpcrel_hi450>
8000444e: 6566         	ld	a0, 0x58(sp)

0000000080004450 <.Lpcrel_hi448>:
80004450: 00004597     	auipc	a1, 0x4
80004454: 3d058613     	addi	a2, a1, 0x3d0
80004458: 4589         	li	a1, 0x2
8000445a: 00002097     	auipc	ra, 0x2
8000445e: 360080e7     	jalr	0x360(ra) <core::panicking::panic_bounds_check::h6aaee0d15e0261eb>
80004462: 6566         	ld	a0, 0x58(sp)
80004464: 00551593     	slli	a1, a0, 0x5
80004468: 0526         	slli	a0, a0, 0x9
8000446a: 95aa         	add	a1, a1, a0

000000008000446c <.Lpcrel_hi449>:
8000446c: 00006517     	auipc	a0, 0x6
80004470: bfc50513     	addi	a0, a0, -0x404
80004474: 952e         	add	a0, a0, a1
80004476: 21852503     	lw	a0, 0x218(a0)
8000447a: e8aa         	sd	a0, 0x50(sp)
8000447c: 28a12c23     	sw	a0, 0x298(sp)
80004480: 6566         	ld	a0, 0x58(sp)
80004482: 4589         	li	a1, 0x2
80004484: 00b56b63     	bltu	a0, a1, 0x8000449a <.Lpcrel_hi451>
80004488: a839         	j	0x800044a6 <.Lpcrel_hi451+0xc>

000000008000448a <.Lpcrel_hi450>:
8000448a: 00004517     	auipc	a0, 0x4
8000448e: 39650513     	addi	a0, a0, 0x396
80004492: 00002097     	auipc	ra, 0x2
80004496: 394080e7     	jalr	0x394(ra) <core::panicking::panic_null_pointer_dereference::hbac6411af4f2e916>

000000008000449a <.Lpcrel_hi451>:
8000449a: 00006517     	auipc	a0, 0x6
8000449e: bce50513     	addi	a0, a0, -0x432
800044a2: ed01         	bnez	a0, 0x800044ba <.Lpcrel_hi452+0x12>
800044a4: a835         	j	0x800044e0 <.Lpcrel_hi454>
800044a6: 6566         	ld	a0, 0x58(sp)

00000000800044a8 <.Lpcrel_hi452>:
800044a8: 00004597     	auipc	a1, 0x4
800044ac: 39058613     	addi	a2, a1, 0x390
800044b0: 4589         	li	a1, 0x2
800044b2: 00002097     	auipc	ra, 0x2
800044b6: 308080e7     	jalr	0x308(ra) <core::panicking::panic_bounds_check::h6aaee0d15e0261eb>
800044ba: 6546         	ld	a0, 0x50(sp)
800044bc: 65e6         	ld	a1, 0x58(sp)
800044be: 00559613     	slli	a2, a1, 0x5
800044c2: 05a6         	slli	a1, a1, 0x9
800044c4: 962e         	add	a2, a2, a1

00000000800044c6 <.Lpcrel_hi453>:
800044c6: 00006597     	auipc	a1, 0x6
800044ca: ba258593     	addi	a1, a1, -0x45e
800044ce: 95b2         	add	a1, a1, a2
800044d0: 21c5c583     	lbu	a1, 0x21c(a1)
800044d4: e4ae         	sd	a1, 0x48(sp)
800044d6: 28b10fa3     	sb	a1, 0x29f(sp)
800044da: 2501         	sext.w	a0, a0
800044dc: cd11         	beqz	a0, 0x800044f8 <.Lpcrel_hi454+0x18>
800044de: a809         	j	0x800044f0 <.Lpcrel_hi454+0x10>

00000000800044e0 <.Lpcrel_hi454>:
800044e0: 00004517     	auipc	a0, 0x4
800044e4: 35850513     	addi	a0, a0, 0x358
800044e8: 00002097     	auipc	ra, 0x2
800044ec: 33e080e7     	jalr	0x33e(ra) <core::panicking::panic_null_pointer_dereference::hbac6411af4f2e916>
800044f0: 6526         	ld	a0, 0x48(sp)
800044f2: 8905         	andi	a0, a0, 0x1
800044f4: c519         	beqz	a0, 0x80004502 <.Lpcrel_hi454+0x22>
800044f6: a009         	j	0x800044f8 <.Lpcrel_hi454+0x18>
800044f8: 2a813083     	ld	ra, 0x2a8(sp)
800044fc: 2b010113     	addi	sp, sp, 0x2b0
80004500: 8082         	ret
80004502: 65c6         	ld	a1, 0x50(sp)
80004504: 2ab12023     	sw	a1, 0x2a0(sp)
80004508: 0005851b     	sext.w	a0, a1
8000450c: 4601         	li	a2, 0x0
8000450e: 9e0d         	subw	a2, a2, a1
80004510: 8df1         	and	a1, a1, a2
80004512: 077cb637     	lui	a2, 0x77cb
80004516: 53160613     	addi	a2, a2, 0x531
8000451a: 02c585bb     	mulw	a1, a1, a2
8000451e: 01b5d61b     	srliw	a2, a1, 0x1b

0000000080004522 <.Lpcrel_hi455>:
80004522: 00003597     	auipc	a1, 0x3
80004526: 58658593     	addi	a1, a1, 0x586
8000452a: 95b2         	add	a1, a1, a2
8000452c: 0005c583     	lbu	a1, 0x0(a1)
80004530: 02000613     	li	a2, 0x20
80004534: fc32         	sd	a2, 0x38(sp)
80004536: e0ae         	sd	a1, 0x40(sp)
80004538: e119         	bnez	a0, 0x8000453e <.Lpcrel_hi455+0x1c>
8000453a: 7562         	ld	a0, 0x38(sp)
8000453c: e0aa         	sd	a0, 0x40(sp)
8000453e: 6506         	ld	a0, 0x40(sp)
80004540: 2aa12223     	sw	a0, 0x2a4(sp)
80004544: 2a416503     	lwu	a0, 0x2a4(sp)
80004548: f0aa         	sd	a0, 0x60(sp)
8000454a: 65e6         	ld	a1, 0x58(sp)
8000454c: 4505         	li	a0, 0x1
8000454e: 00b56963     	bltu	a0, a1, 0x80004560 <.Lpcrel_hi455+0x3e>
80004552: a009         	j	0x80004554 <.Lpcrel_hi455+0x32>
80004554: 7506         	ld	a0, 0x60(sp)
80004556: 02000593     	li	a1, 0x20
8000455a: 00b56d63     	bltu	a0, a1, 0x80004574 <.Lpcrel_hi457>
8000455e: a00d         	j	0x80004580 <.Lpcrel_hi457+0xc>
80004560: 6566         	ld	a0, 0x58(sp)

0000000080004562 <.Lpcrel_hi456>:
80004562: 00004597     	auipc	a1, 0x4
80004566: 2ee58613     	addi	a2, a1, 0x2ee
8000456a: 4589         	li	a1, 0x2
8000456c: 00002097     	auipc	ra, 0x2
80004570: 24e080e7     	jalr	0x24e(ra) <core::panicking::panic_bounds_check::h6aaee0d15e0261eb>

0000000080004574 <.Lpcrel_hi457>:
80004574: 00006517     	auipc	a0, 0x6
80004578: af450513     	addi	a0, a0, -0x50c
8000457c: ed09         	bnez	a0, 0x80004596 <.Lpcrel_hi458+0x14>
8000457e: a835         	j	0x800045ba <.Lpcrel_hi460>
80004580: 7506         	ld	a0, 0x60(sp)

0000000080004582 <.Lpcrel_hi458>:
80004582: 00004597     	auipc	a1, 0x4
80004586: 2ce58613     	addi	a2, a1, 0x2ce
8000458a: 02000593     	li	a1, 0x20
8000458e: 00002097     	auipc	ra, 0x2
80004592: 22c080e7     	jalr	0x22c(ra) <core::panicking::panic_bounds_check::h6aaee0d15e0261eb>
80004596: 6566         	ld	a0, 0x58(sp)
80004598: 00551593     	slli	a1, a0, 0x5
8000459c: 0526         	slli	a0, a0, 0x9
8000459e: 95aa         	add	a1, a1, a0

00000000800045a0 <.Lpcrel_hi459>:
800045a0: 00006517     	auipc	a0, 0x6
800045a4: ac850513     	addi	a0, a0, -0x538
800045a8: 952e         	add	a0, a0, a1
800045aa: 7586         	ld	a1, 0x60(sp)
800045ac: 058e         	slli	a1, a1, 0x3
800045ae: 952e         	add	a0, a0, a1
800045b0: 6d08         	ld	a0, 0x18(a0)
800045b2: f4aa         	sd	a0, 0x68(sp)
800045b4: 7526         	ld	a0, 0x68(sp)
800045b6: cd19         	beqz	a0, 0x800045d4 <.Lpcrel_hi461>
800045b8: a809         	j	0x800045ca <.Lpcrel_hi460+0x10>

00000000800045ba <.Lpcrel_hi460>:
800045ba: 00004517     	auipc	a0, 0x4
800045be: 29650513     	addi	a0, a0, 0x296
800045c2: 00002097     	auipc	ra, 0x2
800045c6: 264080e7     	jalr	0x264(ra) <core::panicking::panic_null_pointer_dereference::hbac6411af4f2e916>
800045ca: 6566         	ld	a0, 0x58(sp)
800045cc: 4589         	li	a1, 0x2
800045ce: 00b56d63     	bltu	a0, a1, 0x800045e8 <.Lpcrel_hi462>
800045d2: a00d         	j	0x800045f4 <.Lpcrel_hi462+0xc>

00000000800045d4 <.Lpcrel_hi461>:
800045d4: 00004517     	auipc	a0, 0x4
800045d8: 49450513     	addi	a0, a0, 0x494
800045dc: 02800593     	li	a1, 0x28
800045e0: ffffd097     	auipc	ra, 0xffffd
800045e4: c24080e7     	jalr	-0x3dc(ra) <lab7_kernel_task2::kernel_fail::ha5b301f22f28ddb4>

00000000800045e8 <.Lpcrel_hi462>:
800045e8: 00006517     	auipc	a0, 0x6
800045ec: ec050513     	addi	a0, a0, -0x140
800045f0: ed01         	bnez	a0, 0x80004608 <.Lpcrel_hi463+0x12>
800045f2: a091         	j	0x80004636 <.Lpcrel_hi465>
800045f4: 6566         	ld	a0, 0x58(sp)

00000000800045f6 <.Lpcrel_hi463>:
800045f6: 00004597     	auipc	a1, 0x4
800045fa: 27258613     	addi	a2, a1, 0x272
800045fe: 4589         	li	a1, 0x2
80004600: 00002097     	auipc	ra, 0x2
80004604: 1ba080e7     	jalr	0x1ba(ra) <core::panicking::panic_bounds_check::h6aaee0d15e0261eb>
80004608: 6566         	ld	a0, 0x58(sp)
8000460a: 00851593     	slli	a1, a0, 0x8

000000008000460e <.Lpcrel_hi464>:
8000460e: 00006517     	auipc	a0, 0x6
80004612: e9a50513     	addi	a0, a0, -0x166
80004616: 95aa         	add	a1, a1, a0
80004618: 1888         	addi	a0, sp, 0x70
8000461a: 10000613     	li	a2, 0x100
8000461e: 00002097     	auipc	ra, 0x2
80004622: 3d2080e7     	jalr	0x3d2(ra) <memcpy>
80004626: 7516         	ld	a0, 0x160(sp)
80004628: ff050593     	addi	a1, a0, -0x10
8000462c: f82e         	sd	a1, 0x30(sp)
8000462e: 45c1         	li	a1, 0x10
80004630: 04b56563     	bltu	a0, a1, 0x8000467a <.Lpcrel_hi466>
80004634: a809         	j	0x80004646 <.Lpcrel_hi465+0x10>

0000000080004636 <.Lpcrel_hi465>:
80004636: 00004517     	auipc	a0, 0x4
8000463a: 23250513     	addi	a0, a0, 0x232
8000463e: 00002097     	auipc	ra, 0x2
80004642: 1e8080e7     	jalr	0x1e8(ra) <core::panicking::panic_null_pointer_dereference::hbac6411af4f2e916>
80004646: 7542         	ld	a0, 0x30(sp)
80004648: 45c1         	li	a1, 0x10
8000464a: ffffd097     	auipc	ra, 0xffffd
8000464e: 99e080e7     	jalr	-0x662(ra) <lab7_kernel_task2::align_down::haffd849fe4d16b5b>
80004652: faaa         	sd	a0, 0x170(sp)
80004654: 00000097     	auipc	ra, 0x0
80004658: aa0080e7     	jalr	-0x560(ra) <lab7_kernel_task2::expected_trampoline_va::h25c62e6f1aedfcb5>
8000465c: feaa         	sd	a0, 0x178(sp)
8000465e: 7676         	ld	a2, 0x178(sp)
80004660: 6566         	ld	a0, 0x58(sp)
80004662: 75d6         	ld	a1, 0x170(sp)
80004664: ffffe097     	auipc	ra, 0xffffe
80004668: e30080e7     	jalr	-0x1d0(ra) <lab7_kernel_task2::write_user_u64::h8320914fdccd3f04>
8000466c: 75d6         	ld	a1, 0x170(sp)
8000466e: 00858513     	addi	a0, a1, 0x8
80004672: f42a         	sd	a0, 0x28(sp)
80004674: 02b56863     	bltu	a0, a1, 0x800046a4 <.Lpcrel_hi467>
80004678: a809         	j	0x8000468a <.Lpcrel_hi466+0x10>

000000008000467a <.Lpcrel_hi466>:
8000467a: 00004517     	auipc	a0, 0x4
8000467e: 20650513     	addi	a0, a0, 0x206
80004682: 00002097     	auipc	ra, 0x2
80004686: 0fc080e7     	jalr	0xfc(ra) <core::panicking::panic_const::panic_const_sub_overflow::hccc965ba9198de7c>
8000468a: 75a2         	ld	a1, 0x28(sp)
8000468c: 7636         	ld	a2, 0x168(sp)
8000468e: 6566         	ld	a0, 0x58(sp)
80004690: ffffe097     	auipc	ra, 0xffffe
80004694: e04080e7     	jalr	-0x1fc(ra) <lab7_kernel_task2::write_user_u64::h8320914fdccd3f04>
80004698: 7506         	ld	a0, 0x60(sp)
8000469a: 02000593     	li	a1, 0x20
8000469e: 00b56b63     	bltu	a0, a1, 0x800046b4 <.Lpcrel_hi467+0x10>
800046a2: a02d         	j	0x800046cc <.Lpcrel_hi468>

00000000800046a4 <.Lpcrel_hi467>:
800046a4: 00004517     	auipc	a0, 0x4
800046a8: 1f450513     	addi	a0, a0, 0x1f4
800046ac: 00002097     	auipc	ra, 0x2
800046b0: 078080e7     	jalr	0x78(ra) <core::panicking::panic_const::panic_const_add_overflow::h67cba067093910f8>
800046b4: 7586         	ld	a1, 0x60(sp)
800046b6: 4505         	li	a0, 0x1
800046b8: 00b5153b     	sllw	a0, a0, a1
800046bc: fff54513     	not	a0, a0
800046c0: f02a         	sd	a0, 0x20(sp)
800046c2: 6566         	ld	a0, 0x58(sp)
800046c4: 4589         	li	a1, 0x2
800046c6: 00b56b63     	bltu	a0, a1, 0x800046dc <.Lpcrel_hi469>
800046ca: a839         	j	0x800046e8 <.Lpcrel_hi469+0xc>

00000000800046cc <.Lpcrel_hi468>:
800046cc: 00004517     	auipc	a0, 0x4
800046d0: 1e450513     	addi	a0, a0, 0x1e4
800046d4: 00002097     	auipc	ra, 0x2
800046d8: 08c080e7     	jalr	0x8c(ra) <core::panicking::panic_const::panic_const_shl_overflow::h801c58e583f44244>

00000000800046dc <.Lpcrel_hi469>:
800046dc: 00006517     	auipc	a0, 0x6
800046e0: 98c50513     	addi	a0, a0, -0x674
800046e4: ed01         	bnez	a0, 0x800046fc <.Lpcrel_hi471>
800046e6: a00d         	j	0x80004708 <.Lpcrel_hi472>
800046e8: 6566         	ld	a0, 0x58(sp)

00000000800046ea <.Lpcrel_hi470>:
800046ea: 00004597     	auipc	a1, 0x4
800046ee: 1de58613     	addi	a2, a1, 0x1de
800046f2: 4589         	li	a1, 0x2
800046f4: 00002097     	auipc	ra, 0x2
800046f8: 0c6080e7     	jalr	0xc6(ra) <core::panicking::panic_bounds_check::h6aaee0d15e0261eb>

00000000800046fc <.Lpcrel_hi471>:
800046fc: 00006517     	auipc	a0, 0x6
80004700: 96c50513     	addi	a0, a0, -0x694
80004704: e911         	bnez	a0, 0x80004718 <.Lpcrel_hi472+0x10>
80004706: a835         	j	0x80004742 <.Lpcrel_hi474>

0000000080004708 <.Lpcrel_hi472>:
80004708: 00004517     	auipc	a0, 0x4
8000470c: 1c050513     	addi	a0, a0, 0x1c0
80004710: 00002097     	auipc	ra, 0x2
80004714: 116080e7     	jalr	0x116(ra) <core::panicking::panic_null_pointer_dereference::hbac6411af4f2e916>
80004718: 7602         	ld	a2, 0x20(sp)
8000471a: 6566         	ld	a0, 0x58(sp)
8000471c: 00551593     	slli	a1, a0, 0x5
80004720: 0526         	slli	a0, a0, 0x9
80004722: 95aa         	add	a1, a1, a0

0000000080004724 <.Lpcrel_hi473>:
80004724: 00006517     	auipc	a0, 0x6
80004728: 94450513     	addi	a0, a0, -0x6bc
8000472c: 95aa         	add	a1, a1, a0
8000472e: 2185a503     	lw	a0, 0x218(a1)
80004732: 8d71         	and	a0, a0, a2
80004734: 20a5ac23     	sw	a0, 0x218(a1)
80004738: 6566         	ld	a0, 0x58(sp)
8000473a: 4589         	li	a1, 0x2
8000473c: 00b56b63     	bltu	a0, a1, 0x80004752 <.Lpcrel_hi475>
80004740: a839         	j	0x8000475e <.Lpcrel_hi475+0xc>

0000000080004742 <.Lpcrel_hi474>:
80004742: 00004517     	auipc	a0, 0x4
80004746: 18650513     	addi	a0, a0, 0x186
8000474a: 00002097     	auipc	ra, 0x2
8000474e: 0dc080e7     	jalr	0xdc(ra) <core::panicking::panic_null_pointer_dereference::hbac6411af4f2e916>

0000000080004752 <.Lpcrel_hi475>:
80004752: 00006517     	auipc	a0, 0x6
80004756: 91650513     	addi	a0, a0, -0x6ea
8000475a: ed01         	bnez	a0, 0x80004772 <.Lpcrel_hi476+0x12>
8000475c: a82d         	j	0x80004796 <.Lpcrel_hi478>
8000475e: 6566         	ld	a0, 0x58(sp)

0000000080004760 <.Lpcrel_hi476>:
80004760: 00004597     	auipc	a1, 0x4
80004764: 18058613     	addi	a2, a1, 0x180
80004768: 4589         	li	a1, 0x2
8000476a: 00002097     	auipc	ra, 0x2
8000476e: 050080e7     	jalr	0x50(ra) <core::panicking::panic_bounds_check::h6aaee0d15e0261eb>
80004772: 6566         	ld	a0, 0x58(sp)
80004774: 00551593     	slli	a1, a0, 0x5
80004778: 0526         	slli	a0, a0, 0x9
8000477a: 95aa         	add	a1, a1, a0

000000008000477c <.Lpcrel_hi477>:
8000477c: 00006517     	auipc	a0, 0x6
80004780: 8ec50513     	addi	a0, a0, -0x714
80004784: 95aa         	add	a1, a1, a0
80004786: 4505         	li	a0, 0x1
80004788: 20a58e23     	sb	a0, 0x21c(a1)
8000478c: 6566         	ld	a0, 0x58(sp)
8000478e: 4589         	li	a1, 0x2
80004790: 00b56b63     	bltu	a0, a1, 0x800047a6 <.Lpcrel_hi479>
80004794: a839         	j	0x800047b2 <.Lpcrel_hi479+0xc>

0000000080004796 <.Lpcrel_hi478>:
80004796: 00004517     	auipc	a0, 0x4
8000479a: 14a50513     	addi	a0, a0, 0x14a
8000479e: 00002097     	auipc	ra, 0x2
800047a2: 088080e7     	jalr	0x88(ra) <core::panicking::panic_null_pointer_dereference::hbac6411af4f2e916>

00000000800047a6 <.Lpcrel_hi479>:
800047a6: 00006517     	auipc	a0, 0x6
800047aa: 8c250513     	addi	a0, a0, -0x73e
800047ae: ed01         	bnez	a0, 0x800047c6 <.Lpcrel_hi480+0x12>
800047b0: a099         	j	0x800047f6 <.Lpcrel_hi482>
800047b2: 6566         	ld	a0, 0x58(sp)

00000000800047b4 <.Lpcrel_hi480>:
800047b4: 00004597     	auipc	a1, 0x4
800047b8: 14458613     	addi	a2, a1, 0x144
800047bc: 4589         	li	a1, 0x2
800047be: 00002097     	auipc	ra, 0x2
800047c2: ffc080e7     	jalr	-0x4(ra) <core::panicking::panic_bounds_check::h6aaee0d15e0261eb>
800047c6: 6566         	ld	a0, 0x58(sp)
800047c8: 00551593     	slli	a1, a0, 0x5
800047cc: 0526         	slli	a0, a0, 0x9
800047ce: 95aa         	add	a1, a1, a0

00000000800047d0 <.Lpcrel_hi481>:
800047d0: 00006517     	auipc	a0, 0x6
800047d4: 89850513     	addi	a0, a0, -0x768
800047d8: 952e         	add	a0, a0, a1
800047da: 11850513     	addi	a0, a0, 0x118
800047de: 188c         	addi	a1, sp, 0x70
800047e0: 10000613     	li	a2, 0x100
800047e4: 00002097     	auipc	ra, 0x2
800047e8: 20c080e7     	jalr	0x20c(ra) <memcpy>
800047ec: 6566         	ld	a0, 0x58(sp)
800047ee: 4589         	li	a1, 0x2
800047f0: 00b56b63     	bltu	a0, a1, 0x80004806 <.Lpcrel_hi483>
800047f4: a839         	j	0x80004812 <.Lpcrel_hi483+0xc>

00000000800047f6 <.Lpcrel_hi482>:
800047f6: 00004517     	auipc	a0, 0x4
800047fa: 10250513     	addi	a0, a0, 0x102
800047fe: 00002097     	auipc	ra, 0x2
80004802: 028080e7     	jalr	0x28(ra) <core::panicking::panic_null_pointer_dereference::hbac6411af4f2e916>

0000000080004806 <.Lpcrel_hi483>:
80004806: 00006517     	auipc	a0, 0x6
8000480a: ca250513     	addi	a0, a0, -0x35e
8000480e: ed01         	bnez	a0, 0x80004826 <.Lpcrel_hi484+0x12>
80004810: a815         	j	0x80004844 <.Lpcrel_hi486>
80004812: 6566         	ld	a0, 0x58(sp)

0000000080004814 <.Lpcrel_hi484>:
80004814: 00004597     	auipc	a1, 0x4
80004818: 0fc58613     	addi	a2, a1, 0xfc
8000481c: 4589         	li	a1, 0x2
8000481e: 00002097     	auipc	ra, 0x2
80004822: f9c080e7     	jalr	-0x64(ra) <core::panicking::panic_bounds_check::h6aaee0d15e0261eb>
80004826: 6566         	ld	a0, 0x58(sp)
80004828: 00851593     	slli	a1, a0, 0x8

000000008000482c <.Lpcrel_hi485>:
8000482c: 00006517     	auipc	a0, 0x6
80004830: c7c50513     	addi	a0, a0, -0x384
80004834: 95aa         	add	a1, a1, a0
80004836: 7556         	ld	a0, 0x170(sp)
80004838: f9e8         	sd	a0, 0xf0(a1)
8000483a: 6566         	ld	a0, 0x58(sp)
8000483c: 4589         	li	a1, 0x2
8000483e: 00b56b63     	bltu	a0, a1, 0x80004854 <.Lpcrel_hi487>
80004842: a839         	j	0x80004860 <.Lpcrel_hi487+0xc>

0000000080004844 <.Lpcrel_hi486>:
80004844: 00004517     	auipc	a0, 0x4
80004848: 0cc50513     	addi	a0, a0, 0xcc
8000484c: 00002097     	auipc	ra, 0x2
80004850: fda080e7     	jalr	-0x26(ra) <core::panicking::panic_null_pointer_dereference::hbac6411af4f2e916>

0000000080004854 <.Lpcrel_hi487>:
80004854: 00006517     	auipc	a0, 0x6
80004858: c5450513     	addi	a0, a0, -0x3ac
8000485c: ed01         	bnez	a0, 0x80004874 <.Lpcrel_hi488+0x12>
8000485e: a815         	j	0x80004892 <.Lpcrel_hi490>
80004860: 6566         	ld	a0, 0x58(sp)

0000000080004862 <.Lpcrel_hi488>:
80004862: 00004597     	auipc	a1, 0x4
80004866: 0c658613     	addi	a2, a1, 0xc6
8000486a: 4589         	li	a1, 0x2
8000486c: 00002097     	auipc	ra, 0x2
80004870: f4e080e7     	jalr	-0xb2(ra) <core::panicking::panic_bounds_check::h6aaee0d15e0261eb>
80004874: 6566         	ld	a0, 0x58(sp)
80004876: 00851593     	slli	a1, a0, 0x8

000000008000487a <.Lpcrel_hi489>:
8000487a: 00006517     	auipc	a0, 0x6
8000487e: c2e50513     	addi	a0, a0, -0x3d2
80004882: 95aa         	add	a1, a1, a0
80004884: 7576         	ld	a0, 0x178(sp)
80004886: e188         	sd	a0, 0x0(a1)
80004888: 6566         	ld	a0, 0x58(sp)
8000488a: 4589         	li	a1, 0x2
8000488c: 00b56b63     	bltu	a0, a1, 0x800048a2 <.Lpcrel_hi491>
80004890: a839         	j	0x800048ae <.Lpcrel_hi491+0xc>

0000000080004892 <.Lpcrel_hi490>:
80004892: 00004517     	auipc	a0, 0x4
80004896: 09650513     	addi	a0, a0, 0x96
8000489a: 00002097     	auipc	ra, 0x2
8000489e: f8c080e7     	jalr	-0x74(ra) <core::panicking::panic_null_pointer_dereference::hbac6411af4f2e916>

00000000800048a2 <.Lpcrel_hi491>:
800048a2: 00006517     	auipc	a0, 0x6
800048a6: c0650513     	addi	a0, a0, -0x3fa
800048aa: ed01         	bnez	a0, 0x800048c2 <.Lpcrel_hi492+0x12>
800048ac: a815         	j	0x800048e0 <.Lpcrel_hi494>
800048ae: 6566         	ld	a0, 0x58(sp)

00000000800048b0 <.Lpcrel_hi492>:
800048b0: 00004597     	auipc	a1, 0x4
800048b4: 09058613     	addi	a2, a1, 0x90
800048b8: 4589         	li	a1, 0x2
800048ba: 00002097     	auipc	ra, 0x2
800048be: f00080e7     	jalr	-0x100(ra) <core::panicking::panic_bounds_check::h6aaee0d15e0261eb>
800048c2: 6566         	ld	a0, 0x58(sp)
800048c4: 00851593     	slli	a1, a0, 0x8

00000000800048c8 <.Lpcrel_hi493>:
800048c8: 00006517     	auipc	a0, 0x6
800048cc: be050513     	addi	a0, a0, -0x420
800048d0: 95aa         	add	a1, a1, a0
800048d2: 7506         	ld	a0, 0x60(sp)
800048d4: e1a8         	sd	a0, 0x40(a1)
800048d6: 6566         	ld	a0, 0x58(sp)
800048d8: 4589         	li	a1, 0x2
800048da: 00b56b63     	bltu	a0, a1, 0x800048f0 <.Lpcrel_hi495>
800048de: a839         	j	0x800048fc <.Lpcrel_hi495+0xc>

00000000800048e0 <.Lpcrel_hi494>:
800048e0: 00004517     	auipc	a0, 0x4
800048e4: 06050513     	addi	a0, a0, 0x60
800048e8: 00002097     	auipc	ra, 0x2
800048ec: f3e080e7     	jalr	-0xc2(ra) <core::panicking::panic_null_pointer_dereference::hbac6411af4f2e916>

00000000800048f0 <.Lpcrel_hi495>:
800048f0: 00006517     	auipc	a0, 0x6
800048f4: bb850513     	addi	a0, a0, -0x448
800048f8: ed01         	bnez	a0, 0x80004910 <.Lpcrel_hi496+0x12>
800048fa: a81d         	j	0x80004930 <.Lpcrel_hi499>
800048fc: 6566         	ld	a0, 0x58(sp)

00000000800048fe <.Lpcrel_hi496>:
800048fe: 00004597     	auipc	a1, 0x4
80004902: 05a58613     	addi	a2, a1, 0x5a
80004906: 4589         	li	a1, 0x2
80004908: 00002097     	auipc	ra, 0x2
8000490c: eb2080e7     	jalr	-0x14e(ra) <core::panicking::panic_bounds_check::h6aaee0d15e0261eb>
80004910: 6566         	ld	a0, 0x58(sp)
80004912: 00851593     	slli	a1, a0, 0x8

0000000080004916 <.Lpcrel_hi497>:
80004916: 00006517     	auipc	a0, 0x6
8000491a: b9250513     	addi	a0, a0, -0x46e
8000491e: 95aa         	add	a1, a1, a0
80004920: 7526         	ld	a0, 0x68(sp)
80004922: fde8         	sd	a0, 0xf8(a1)

0000000080004924 <.Lpcrel_hi498>:
80004924: 00005517     	auipc	a0, 0x5
80004928: 6e450513     	addi	a0, a0, 0x6e4
8000492c: e911         	bnez	a0, 0x80004940 <.Lpcrel_hi500>
8000492e: a025         	j	0x80004956 <.Lpcrel_hi501>

0000000080004930 <.Lpcrel_hi499>:
80004930: 00004517     	auipc	a0, 0x4
80004934: 02850513     	addi	a0, a0, 0x28
80004938: 00002097     	auipc	ra, 0x2
8000493c: eee080e7     	jalr	-0x112(ra) <core::panicking::panic_null_pointer_dereference::hbac6411af4f2e916>

0000000080004940 <.Lpcrel_hi500>:
80004940: 00005517     	auipc	a0, 0x5
80004944: 6c850513     	addi	a0, a0, 0x6c8
80004948: 690c         	ld	a1, 0x10(a0)
8000494a: 00158513     	addi	a0, a1, 0x1
8000494e: ec2a         	sd	a0, 0x18(sp)
80004950: 02b56163     	bltu	a0, a1, 0x80004972 <.Lpcrel_hi503>
80004954: a809         	j	0x80004966 <.Lpcrel_hi502>

0000000080004956 <.Lpcrel_hi501>:
80004956: 00004517     	auipc	a0, 0x4
8000495a: 01a50513     	addi	a0, a0, 0x1a
8000495e: 00002097     	auipc	ra, 0x2
80004962: ec8080e7     	jalr	-0x138(ra) <core::panicking::panic_null_pointer_dereference::hbac6411af4f2e916>

0000000080004966 <.Lpcrel_hi502>:
80004966: 00005517     	auipc	a0, 0x5
8000496a: 6a250513     	addi	a0, a0, 0x6a2
8000496e: e911         	bnez	a0, 0x80004982 <.Lpcrel_hi503+0x10>
80004970: a01d         	j	0x80004996 <.Lpcrel_hi505>

0000000080004972 <.Lpcrel_hi503>:
80004972: 00004517     	auipc	a0, 0x4
80004976: ffe50513     	addi	a0, a0, -0x2
8000497a: 00002097     	auipc	ra, 0x2
8000497e: daa080e7     	jalr	-0x256(ra) <core::panicking::panic_const::panic_const_add_overflow::h67cba067093910f8>
80004982: 65e2         	ld	a1, 0x18(sp)

0000000080004984 <.Lpcrel_hi504>:
80004984: 00005517     	auipc	a0, 0x5
80004988: 68450513     	addi	a0, a0, 0x684
8000498c: e90c         	sd	a1, 0x10(a0)
8000498e: 75b6         	ld	a1, 0x168(sp)
80004990: e82e         	sd	a1, 0x10(sp)
80004992: e911         	bnez	a0, 0x800049a6 <.Lpcrel_hi505+0x10>
80004994: a01d         	j	0x800049ba <.Lpcrel_hi507>

0000000080004996 <.Lpcrel_hi505>:
80004996: 00004517     	auipc	a0, 0x4
8000499a: fda50513     	addi	a0, a0, -0x26
8000499e: 00002097     	auipc	ra, 0x2
800049a2: e88080e7     	jalr	-0x178(ra) <core::panicking::panic_null_pointer_dereference::hbac6411af4f2e916>
800049a6: 65c2         	ld	a1, 0x10(sp)

00000000800049a8 <.Lpcrel_hi506>:
800049a8: 00005517     	auipc	a0, 0x5
800049ac: 66050513     	addi	a0, a0, 0x660
800049b0: f10c         	sd	a1, 0x20(a0)
800049b2: 7596         	ld	a1, 0x160(sp)
800049b4: e42e         	sd	a1, 0x8(sp)
800049b6: e911         	bnez	a0, 0x800049ca <.Lpcrel_hi507+0x10>
800049b8: a00d         	j	0x800049da <.Lpcrel_hi509>

00000000800049ba <.Lpcrel_hi507>:
800049ba: 00004517     	auipc	a0, 0x4
800049be: fce50513     	addi	a0, a0, -0x32
800049c2: 00002097     	auipc	ra, 0x2
800049c6: e64080e7     	jalr	-0x19c(ra) <core::panicking::panic_null_pointer_dereference::hbac6411af4f2e916>
800049ca: 65a2         	ld	a1, 0x8(sp)

00000000800049cc <.Lpcrel_hi508>:
800049cc: 00005517     	auipc	a0, 0x5
800049d0: 63c50513     	addi	a0, a0, 0x63c
800049d4: f50c         	sd	a1, 0x28(a0)
800049d6: e911         	bnez	a0, 0x800049ea <.Lpcrel_hi509+0x10>
800049d8: a00d         	j	0x800049fa <.Lpcrel_hi511>

00000000800049da <.Lpcrel_hi509>:
800049da: 00004517     	auipc	a0, 0x4
800049de: fc650513     	addi	a0, a0, -0x3a
800049e2: 00002097     	auipc	ra, 0x2
800049e6: e44080e7     	jalr	-0x1bc(ra) <core::panicking::panic_null_pointer_dereference::hbac6411af4f2e916>
800049ea: 75a6         	ld	a1, 0x68(sp)

00000000800049ec <.Lpcrel_hi510>:
800049ec: 00005517     	auipc	a0, 0x5
800049f0: 61c50513     	addi	a0, a0, 0x61c
800049f4: f90c         	sd	a1, 0x30(a0)
800049f6: e911         	bnez	a0, 0x80004a0a <.Lpcrel_hi511+0x10>
800049f8: a221         	j	0x80004b00 <.Lpcrel_hi514>

00000000800049fa <.Lpcrel_hi511>:
800049fa: 00004517     	auipc	a0, 0x4
800049fe: fbe50513     	addi	a0, a0, -0x42
80004a02: 00002097     	auipc	ra, 0x2
80004a06: e24080e7     	jalr	-0x1dc(ra) <core::panicking::panic_null_pointer_dereference::hbac6411af4f2e916>
80004a0a: 7576         	ld	a0, 0x178(sp)

0000000080004a0c <.Lpcrel_hi512>:
80004a0c: 00005597     	auipc	a1, 0x5
80004a10: 5fc58593     	addi	a1, a1, 0x5fc
80004a14: fd88         	sd	a0, 0x38(a1)
80004a16: 12ac         	addi	a1, sp, 0x168
80004a18: 1288         	addi	a0, sp, 0x160
80004a1a: 08b0         	addi	a2, sp, 0x58
80004a1c: e332         	sd	a2, 0x180(sp)
80004a1e: 1090         	addi	a2, sp, 0x60
80004a20: e732         	sd	a2, 0x188(sp)
80004a22: eb2e         	sd	a1, 0x190(sp)
80004a24: ef2a         	sd	a0, 0x198(sp)
80004a26: 10a8         	addi	a0, sp, 0x68
80004a28: f32a         	sd	a0, 0x1a0(sp)
80004a2a: 1a88         	addi	a0, sp, 0x170
80004a2c: f72a         	sd	a0, 0x1a8(sp)
80004a2e: 1aa8         	addi	a0, sp, 0x178
80004a30: fb2a         	sd	a0, 0x1b0(sp)
80004a32: 659a         	ld	a1, 0x180(sp)
80004a34: 1428         	addi	a0, sp, 0x228
80004a36: ffffc097     	auipc	ra, 0xffffc
80004a3a: 020080e7     	jalr	0x20(ra) <core::fmt::rt::Argument::new_display::h0f8d4721c9a89fbb>
80004a3e: 65ba         	ld	a1, 0x188(sp)
80004a40: 1c28         	addi	a0, sp, 0x238
80004a42: ffffc097     	auipc	ra, 0xffffc
80004a46: 014080e7     	jalr	0x14(ra) <core::fmt::rt::Argument::new_display::h0f8d4721c9a89fbb>
80004a4a: 65da         	ld	a1, 0x190(sp)
80004a4c: 04a8         	addi	a0, sp, 0x248
80004a4e: ffffc097     	auipc	ra, 0xffffc
80004a52: 0d4080e7     	jalr	0xd4(ra) <core::fmt::rt::Argument::new_lower_hex::hc9324aa1f0e7ff53>
80004a56: 65fa         	ld	a1, 0x198(sp)
80004a58: 0ca8         	addi	a0, sp, 0x258
80004a5a: ffffc097     	auipc	ra, 0xffffc
80004a5e: 0c8080e7     	jalr	0xc8(ra) <core::fmt::rt::Argument::new_lower_hex::hc9324aa1f0e7ff53>
80004a62: 759a         	ld	a1, 0x1a0(sp)
80004a64: 14a8         	addi	a0, sp, 0x268
80004a66: ffffc097     	auipc	ra, 0xffffc
80004a6a: 0bc080e7     	jalr	0xbc(ra) <core::fmt::rt::Argument::new_lower_hex::hc9324aa1f0e7ff53>
80004a6e: 75ba         	ld	a1, 0x1a8(sp)
80004a70: 1ca8         	addi	a0, sp, 0x278
80004a72: ffffc097     	auipc	ra, 0xffffc
80004a76: 0b0080e7     	jalr	0xb0(ra) <core::fmt::rt::Argument::new_lower_hex::hc9324aa1f0e7ff53>
80004a7a: 75da         	ld	a1, 0x1b0(sp)
80004a7c: 0528         	addi	a0, sp, 0x288
80004a7e: ffffc097     	auipc	ra, 0xffffc
80004a82: 0a4080e7     	jalr	0xa4(ra) <core::fmt::rt::Argument::new_lower_hex::hc9324aa1f0e7ff53>
80004a86: 23013503     	ld	a0, 0x230(sp)
80004a8a: e3aa         	sd	a0, 0x1c0(sp)
80004a8c: 22813503     	ld	a0, 0x228(sp)
80004a90: ff2a         	sd	a0, 0x1b8(sp)
80004a92: 24013503     	ld	a0, 0x240(sp)
80004a96: ebaa         	sd	a0, 0x1d0(sp)
80004a98: 23813503     	ld	a0, 0x238(sp)
80004a9c: e7aa         	sd	a0, 0x1c8(sp)
80004a9e: 25013503     	ld	a0, 0x250(sp)
80004aa2: f3aa         	sd	a0, 0x1e0(sp)
80004aa4: 24813503     	ld	a0, 0x248(sp)
80004aa8: efaa         	sd	a0, 0x1d8(sp)
80004aaa: 26013503     	ld	a0, 0x260(sp)
80004aae: fbaa         	sd	a0, 0x1f0(sp)
80004ab0: 25813503     	ld	a0, 0x258(sp)
80004ab4: f7aa         	sd	a0, 0x1e8(sp)
80004ab6: 27013503     	ld	a0, 0x270(sp)
80004aba: 20a13023     	sd	a0, 0x200(sp)
80004abe: 26813503     	ld	a0, 0x268(sp)
80004ac2: ffaa         	sd	a0, 0x1f8(sp)
80004ac4: 28013503     	ld	a0, 0x280(sp)
80004ac8: 20a13823     	sd	a0, 0x210(sp)
80004acc: 27813503     	ld	a0, 0x278(sp)
80004ad0: 20a13423     	sd	a0, 0x208(sp)
80004ad4: 29013503     	ld	a0, 0x290(sp)
80004ad8: 22a13023     	sd	a0, 0x220(sp)
80004adc: 28813503     	ld	a0, 0x288(sp)
80004ae0: 20a13c23     	sd	a0, 0x218(sp)

0000000080004ae4 <.Lpcrel_hi513>:
80004ae4: 00004517     	auipc	a0, 0x4
80004ae8: f0450513     	addi	a0, a0, -0xfc
80004aec: 1b2c         	addi	a1, sp, 0x1b8
80004aee: ffffc097     	auipc	ra, 0xffffc
80004af2: 804080e7     	jalr	-0x7fc(ra) <core::fmt::Arguments::new::hfccf9577c08eb5ff>
80004af6: 00001097     	auipc	ra, 0x1
80004afa: d2e080e7     	jalr	-0x2d2(ra) <lab7_kernel_task2::console::print::h0d70eb8228e543e8>
80004afe: baed         	j	0x800044f8 <.Lpcrel_hi454+0x18>

0000000080004b00 <.Lpcrel_hi514>:
80004b00: 00004517     	auipc	a0, 0x4
80004b04: ed050513     	addi	a0, a0, -0x130
80004b08: 00002097     	auipc	ra, 0x2
80004b0c: d1e080e7     	jalr	-0x2e2(ra) <core::panicking::panic_null_pointer_dereference::hbac6411af4f2e916>

0000000080004b10 <lab7_kernel_task2::delegate_user_exceptions_to_supervisor::h5d8476cf6761b202>:
80004b10: 6529         	lui	a0, 0xa
80004b12: 10050513     	addi	a0, a0, 0x100
80004b16: 30251073     	csrw	medeleg, a0
80004b1a: 8082         	ret

0000000080004b1c <lab7_kernel_task2::do_kill::hc645e2eb424b9204>:
80004b1c: 7115         	addi	sp, sp, -0xe0
80004b1e: ed86         	sd	ra, 0xd8(sp)
80004b20: ec2a         	sd	a0, 0x18(sp)
80004b22: 65e2         	ld	a1, 0x18(sp)
80004b24: 4505         	li	a0, 0x1
80004b26: 00b56963     	bltu	a0, a1, 0x80004b38 <.Lpcrel_hi515+0xc>
80004b2a: a009         	j	0x80004b2c <.Lpcrel_hi515>

0000000080004b2c <.Lpcrel_hi515>:
80004b2c: 00006517     	auipc	a0, 0x6
80004b30: 97c50513     	addi	a0, a0, -0x684
80004b34: ed01         	bnez	a0, 0x80004b4c <.Lpcrel_hi516+0x12>
80004b36: a815         	j	0x80004b6a <.Lpcrel_hi518>
80004b38: 6562         	ld	a0, 0x18(sp)

0000000080004b3a <.Lpcrel_hi516>:
80004b3a: 00004597     	auipc	a1, 0x4
80004b3e: f5658613     	addi	a2, a1, -0xaa
80004b42: 4589         	li	a1, 0x2
80004b44: 00002097     	auipc	ra, 0x2
80004b48: c76080e7     	jalr	-0x38a(ra) <core::panicking::panic_bounds_check::h6aaee0d15e0261eb>
80004b4c: 6562         	ld	a0, 0x18(sp)
80004b4e: 00851593     	slli	a1, a0, 0x8

0000000080004b52 <.Lpcrel_hi517>:
80004b52: 00006517     	auipc	a0, 0x6
80004b56: 95650513     	addi	a0, a0, -0x6aa
80004b5a: 952e         	add	a0, a0, a1
80004b5c: 6128         	ld	a0, 0x40(a0)
80004b5e: f02a         	sd	a0, 0x20(sp)
80004b60: 6562         	ld	a0, 0x18(sp)
80004b62: 4589         	li	a1, 0x2
80004b64: 00b56b63     	bltu	a0, a1, 0x80004b7a <.Lpcrel_hi519>
80004b68: a839         	j	0x80004b86 <.Lpcrel_hi519+0xc>

0000000080004b6a <.Lpcrel_hi518>:
80004b6a: 00004517     	auipc	a0, 0x4
80004b6e: f2650513     	addi	a0, a0, -0xda
80004b72: 00002097     	auipc	ra, 0x2
80004b76: cb4080e7     	jalr	-0x34c(ra) <core::panicking::panic_null_pointer_dereference::hbac6411af4f2e916>

0000000080004b7a <.Lpcrel_hi519>:
80004b7a: 00006517     	auipc	a0, 0x6
80004b7e: 92e50513     	addi	a0, a0, -0x6d2
80004b82: ed01         	bnez	a0, 0x80004b9a <.Lpcrel_hi520+0x12>
80004b84: a815         	j	0x80004bb8 <.Lpcrel_hi522>
80004b86: 6562         	ld	a0, 0x18(sp)

0000000080004b88 <.Lpcrel_hi520>:
80004b88: 00004597     	auipc	a1, 0x4
80004b8c: f2058613     	addi	a2, a1, -0xe0
80004b90: 4589         	li	a1, 0x2
80004b92: 00002097     	auipc	ra, 0x2
80004b96: c28080e7     	jalr	-0x3d8(ra) <core::panicking::panic_bounds_check::h6aaee0d15e0261eb>
80004b9a: 6562         	ld	a0, 0x18(sp)
80004b9c: 00851593     	slli	a1, a0, 0x8

0000000080004ba0 <.Lpcrel_hi521>:
80004ba0: 00006517     	auipc	a0, 0x6
80004ba4: 90850513     	addi	a0, a0, -0x6f8
80004ba8: 952e         	add	a0, a0, a1
80004baa: 6528         	ld	a0, 0x48(a0)
80004bac: f42a         	sd	a0, 0x28(sp)
80004bae: 7582         	ld	a1, 0x20(sp)
80004bb0: 4505         	li	a0, 0x1
80004bb2: 02b56163     	bltu	a0, a1, 0x80004bd4 <.Lpcrel_hi523>
80004bb6: a809         	j	0x80004bc8 <.Lpcrel_hi522+0x10>

0000000080004bb8 <.Lpcrel_hi522>:
80004bb8: 00004517     	auipc	a0, 0x4
80004bbc: ef050513     	addi	a0, a0, -0x110
80004bc0: 00002097     	auipc	ra, 0x2
80004bc4: c66080e7     	jalr	-0x39a(ra) <core::panicking::panic_null_pointer_dereference::hbac6411af4f2e916>
80004bc8: 7522         	ld	a0, 0x28(sp)
80004bca: 02000593     	li	a1, 0x20
80004bce: 00b56d63     	bltu	a0, a1, 0x80004be8 <.Lpcrel_hi523+0x14>
80004bd2: a009         	j	0x80004bd4 <.Lpcrel_hi523>

0000000080004bd4 <.Lpcrel_hi523>:
80004bd4: 00004517     	auipc	a0, 0x4
80004bd8: fae50513     	addi	a0, a0, -0x52
80004bdc: 02200593     	li	a1, 0x22
80004be0: ffffc097     	auipc	ra, 0xffffc
80004be4: 624080e7     	jalr	0x624(ra) <lab7_kernel_task2::kernel_fail::ha5b301f22f28ddb4>
80004be8: 75a2         	ld	a1, 0x28(sp)
80004bea: 457d         	li	a0, 0x1f
80004bec: 00b56d63     	bltu	a0, a1, 0x80004c06 <.Lpcrel_hi524>
80004bf0: a009         	j	0x80004bf2 <.Lpcrel_hi523+0x1e>
80004bf2: 75a2         	ld	a1, 0x28(sp)
80004bf4: 4505         	li	a0, 0x1
80004bf6: 00b5153b     	sllw	a0, a0, a1
80004bfa: e82a         	sd	a0, 0x10(sp)
80004bfc: 7502         	ld	a0, 0x20(sp)
80004bfe: 4589         	li	a1, 0x2
80004c00: 00b56b63     	bltu	a0, a1, 0x80004c16 <.Lpcrel_hi525>
80004c04: a839         	j	0x80004c22 <.Lpcrel_hi525+0xc>

0000000080004c06 <.Lpcrel_hi524>:
80004c06: 00004517     	auipc	a0, 0x4
80004c0a: eba50513     	addi	a0, a0, -0x146
80004c0e: 00002097     	auipc	ra, 0x2
80004c12: b52080e7     	jalr	-0x4ae(ra) <core::panicking::panic_const::panic_const_shl_overflow::h801c58e583f44244>

0000000080004c16 <.Lpcrel_hi525>:
80004c16: 00005517     	auipc	a0, 0x5
80004c1a: 45250513     	addi	a0, a0, 0x452
80004c1e: ed01         	bnez	a0, 0x80004c36 <.Lpcrel_hi527>
80004c20: a00d         	j	0x80004c42 <.Lpcrel_hi528>
80004c22: 7502         	ld	a0, 0x20(sp)

0000000080004c24 <.Lpcrel_hi526>:
80004c24: 00004597     	auipc	a1, 0x4
80004c28: eb458613     	addi	a2, a1, -0x14c
80004c2c: 4589         	li	a1, 0x2
80004c2e: 00002097     	auipc	ra, 0x2
80004c32: b8c080e7     	jalr	-0x474(ra) <core::panicking::panic_bounds_check::h6aaee0d15e0261eb>

0000000080004c36 <.Lpcrel_hi527>:
80004c36: 00005517     	auipc	a0, 0x5
80004c3a: 43250513     	addi	a0, a0, 0x432
80004c3e: e911         	bnez	a0, 0x80004c52 <.Lpcrel_hi528+0x10>
80004c40: a835         	j	0x80004c7c <.Lpcrel_hi530>

0000000080004c42 <.Lpcrel_hi528>:
80004c42: 00004517     	auipc	a0, 0x4
80004c46: e9650513     	addi	a0, a0, -0x16a
80004c4a: 00002097     	auipc	ra, 0x2
80004c4e: bdc080e7     	jalr	-0x424(ra) <core::panicking::panic_null_pointer_dereference::hbac6411af4f2e916>
80004c52: 6642         	ld	a2, 0x10(sp)
80004c54: 7502         	ld	a0, 0x20(sp)
80004c56: 00551593     	slli	a1, a0, 0x5
80004c5a: 0526         	slli	a0, a0, 0x9
80004c5c: 95aa         	add	a1, a1, a0

0000000080004c5e <.Lpcrel_hi529>:
80004c5e: 00005517     	auipc	a0, 0x5
80004c62: 40a50513     	addi	a0, a0, 0x40a
80004c66: 95aa         	add	a1, a1, a0
80004c68: 2185a503     	lw	a0, 0x218(a1)
80004c6c: 8d51         	or	a0, a0, a2
80004c6e: 20a5ac23     	sw	a0, 0x218(a1)
80004c72: 6562         	ld	a0, 0x18(sp)
80004c74: 4589         	li	a1, 0x2
80004c76: 00b56b63     	bltu	a0, a1, 0x80004c8c <.Lpcrel_hi531>
80004c7a: a839         	j	0x80004c98 <.Lpcrel_hi531+0xc>

0000000080004c7c <.Lpcrel_hi530>:
80004c7c: 00004517     	auipc	a0, 0x4
80004c80: e5c50513     	addi	a0, a0, -0x1a4
80004c84: 00002097     	auipc	ra, 0x2
80004c88: ba2080e7     	jalr	-0x45e(ra) <core::panicking::panic_null_pointer_dereference::hbac6411af4f2e916>

0000000080004c8c <.Lpcrel_hi531>:
80004c8c: 00006517     	auipc	a0, 0x6
80004c90: 81c50513     	addi	a0, a0, -0x7e4
80004c94: ed01         	bnez	a0, 0x80004cac <.Lpcrel_hi532+0x12>
80004c96: a81d         	j	0x80004ccc <.Lpcrel_hi535>
80004c98: 6562         	ld	a0, 0x18(sp)

0000000080004c9a <.Lpcrel_hi532>:
80004c9a: 00004597     	auipc	a1, 0x4
80004c9e: e5658613     	addi	a2, a1, -0x1aa
80004ca2: 4589         	li	a1, 0x2
80004ca4: 00002097     	auipc	ra, 0x2
80004ca8: b16080e7     	jalr	-0x4ea(ra) <core::panicking::panic_bounds_check::h6aaee0d15e0261eb>
80004cac: 6562         	ld	a0, 0x18(sp)
80004cae: 00851593     	slli	a1, a0, 0x8

0000000080004cb2 <.Lpcrel_hi533>:
80004cb2: 00005517     	auipc	a0, 0x5
80004cb6: 7f650513     	addi	a0, a0, 0x7f6
80004cba: 95aa         	add	a1, a1, a0
80004cbc: 4501         	li	a0, 0x0
80004cbe: e1a8         	sd	a0, 0x40(a1)

0000000080004cc0 <.Lpcrel_hi534>:
80004cc0: 00005517     	auipc	a0, 0x5
80004cc4: 34850513     	addi	a0, a0, 0x348
80004cc8: e911         	bnez	a0, 0x80004cdc <.Lpcrel_hi536>
80004cca: a025         	j	0x80004cf2 <.Lpcrel_hi537>

0000000080004ccc <.Lpcrel_hi535>:
80004ccc: 00004517     	auipc	a0, 0x4
80004cd0: e2450513     	addi	a0, a0, -0x1dc
80004cd4: 00002097     	auipc	ra, 0x2
80004cd8: b52080e7     	jalr	-0x4ae(ra) <core::panicking::panic_null_pointer_dereference::hbac6411af4f2e916>

0000000080004cdc <.Lpcrel_hi536>:
80004cdc: 00005517     	auipc	a0, 0x5
80004ce0: 32c50513     	addi	a0, a0, 0x32c
80004ce4: 650c         	ld	a1, 0x8(a0)
80004ce6: 00158513     	addi	a0, a1, 0x1
80004cea: e42a         	sd	a0, 0x8(sp)
80004cec: 02b56163     	bltu	a0, a1, 0x80004d0e <.Lpcrel_hi539>
80004cf0: a809         	j	0x80004d02 <.Lpcrel_hi538>

0000000080004cf2 <.Lpcrel_hi537>:
80004cf2: 00004517     	auipc	a0, 0x4
80004cf6: e1650513     	addi	a0, a0, -0x1ea
80004cfa: 00002097     	auipc	ra, 0x2
80004cfe: b2c080e7     	jalr	-0x4d4(ra) <core::panicking::panic_null_pointer_dereference::hbac6411af4f2e916>

0000000080004d02 <.Lpcrel_hi538>:
80004d02: 00005517     	auipc	a0, 0x5
80004d06: 30650513     	addi	a0, a0, 0x306
80004d0a: e911         	bnez	a0, 0x80004d1e <.Lpcrel_hi539+0x10>
80004d0c: a025         	j	0x80004d34 <.Lpcrel_hi541>

0000000080004d0e <.Lpcrel_hi539>:
80004d0e: 00004517     	auipc	a0, 0x4
80004d12: dfa50513     	addi	a0, a0, -0x206
80004d16: 00002097     	auipc	ra, 0x2
80004d1a: a0e080e7     	jalr	-0x5f2(ra) <core::panicking::panic_const::panic_const_add_overflow::h67cba067093910f8>
80004d1e: 6522         	ld	a0, 0x8(sp)

0000000080004d20 <.Lpcrel_hi540>:
80004d20: 00005597     	auipc	a1, 0x5
80004d24: 2e858593     	addi	a1, a1, 0x2e8
80004d28: e588         	sd	a0, 0x8(a1)
80004d2a: 7502         	ld	a0, 0x20(sp)
80004d2c: 4589         	li	a1, 0x2
80004d2e: 00b56b63     	bltu	a0, a1, 0x80004d44 <.Lpcrel_hi542>
80004d32: a839         	j	0x80004d50 <.Lpcrel_hi542+0xc>

0000000080004d34 <.Lpcrel_hi541>:
80004d34: 00004517     	auipc	a0, 0x4
80004d38: dd450513     	addi	a0, a0, -0x22c
80004d3c: 00002097     	auipc	ra, 0x2
80004d40: aea080e7     	jalr	-0x516(ra) <core::panicking::panic_null_pointer_dereference::hbac6411af4f2e916>

0000000080004d44 <.Lpcrel_hi542>:
80004d44: 00005517     	auipc	a0, 0x5
80004d48: 32450513     	addi	a0, a0, 0x324
80004d4c: ed01         	bnez	a0, 0x80004d64 <.Lpcrel_hi543+0x12>
80004d4e: a845         	j	0x80004dfe <.Lpcrel_hi546>
80004d50: 7502         	ld	a0, 0x20(sp)

0000000080004d52 <.Lpcrel_hi543>:
80004d52: 00004597     	auipc	a1, 0x4
80004d56: dce58613     	addi	a2, a1, -0x232
80004d5a: 4589         	li	a1, 0x2
80004d5c: 00002097     	auipc	ra, 0x2
80004d60: a5e080e7     	jalr	-0x5a2(ra) <core::panicking::panic_bounds_check::h6aaee0d15e0261eb>
80004d64: 7502         	ld	a0, 0x20(sp)
80004d66: 00551593     	slli	a1, a0, 0x5
80004d6a: 0526         	slli	a0, a0, 0x9
80004d6c: 95aa         	add	a1, a1, a0

0000000080004d6e <.Lpcrel_hi544>:
80004d6e: 00005517     	auipc	a0, 0x5
80004d72: 2fa50513     	addi	a0, a0, 0x2fa
80004d76: 952e         	add	a0, a0, a1
80004d78: 21852503     	lw	a0, 0x218(a0)
80004d7c: caaa         	sw	a0, 0x54(sp)
80004d7e: 0828         	addi	a0, sp, 0x18
80004d80: f82a         	sd	a0, 0x30(sp)
80004d82: 1008         	addi	a0, sp, 0x20
80004d84: fc2a         	sd	a0, 0x38(sp)
80004d86: 1028         	addi	a0, sp, 0x28
80004d88: e0aa         	sd	a0, 0x40(sp)
80004d8a: 08c8         	addi	a0, sp, 0x54
80004d8c: e4aa         	sd	a0, 0x48(sp)
80004d8e: 75c2         	ld	a1, 0x30(sp)
80004d90: 0928         	addi	a0, sp, 0x98
80004d92: ffffc097     	auipc	ra, 0xffffc
80004d96: cc4080e7     	jalr	-0x33c(ra) <core::fmt::rt::Argument::new_display::h0f8d4721c9a89fbb>
80004d9a: 75e2         	ld	a1, 0x38(sp)
80004d9c: 1128         	addi	a0, sp, 0xa8
80004d9e: ffffc097     	auipc	ra, 0xffffc
80004da2: cb8080e7     	jalr	-0x348(ra) <core::fmt::rt::Argument::new_display::h0f8d4721c9a89fbb>
80004da6: 6586         	ld	a1, 0x40(sp)
80004da8: 1928         	addi	a0, sp, 0xb8
80004daa: ffffc097     	auipc	ra, 0xffffc
80004dae: cac080e7     	jalr	-0x354(ra) <core::fmt::rt::Argument::new_display::h0f8d4721c9a89fbb>
80004db2: 65a6         	ld	a1, 0x48(sp)
80004db4: 01a8         	addi	a0, sp, 0xc8
80004db6: ffffc097     	auipc	ra, 0xffffc
80004dba: d4a080e7     	jalr	-0x2b6(ra) <core::fmt::rt::Argument::new_lower_hex::h3a7ca6efd7c586c1>
80004dbe: 750a         	ld	a0, 0xa0(sp)
80004dc0: f0aa         	sd	a0, 0x60(sp)
80004dc2: 656a         	ld	a0, 0x98(sp)
80004dc4: ecaa         	sd	a0, 0x58(sp)
80004dc6: 754a         	ld	a0, 0xb0(sp)
80004dc8: f8aa         	sd	a0, 0x70(sp)
80004dca: 752a         	ld	a0, 0xa8(sp)
80004dcc: f4aa         	sd	a0, 0x68(sp)
80004dce: 650e         	ld	a0, 0xc0(sp)
80004dd0: e12a         	sd	a0, 0x80(sp)
80004dd2: 756a         	ld	a0, 0xb8(sp)
80004dd4: fcaa         	sd	a0, 0x78(sp)
80004dd6: 654e         	ld	a0, 0xd0(sp)
80004dd8: e92a         	sd	a0, 0x90(sp)
80004dda: 652e         	ld	a0, 0xc8(sp)
80004ddc: e52a         	sd	a0, 0x88(sp)

0000000080004dde <.Lpcrel_hi545>:
80004dde: 00004517     	auipc	a0, 0x4
80004de2: d5a50513     	addi	a0, a0, -0x2a6
80004de6: 08ac         	addi	a1, sp, 0x58
80004de8: ffffb097     	auipc	ra, 0xffffb
80004dec: 4c4080e7     	jalr	0x4c4(ra) <core::fmt::Arguments::new::h96c6d3ae99ec5356>
80004df0: 00001097     	auipc	ra, 0x1
80004df4: a34080e7     	jalr	-0x5cc(ra) <lab7_kernel_task2::console::print::h0d70eb8228e543e8>
80004df8: 60ee         	ld	ra, 0xd8(sp)
80004dfa: 612d         	addi	sp, sp, 0xe0
80004dfc: 8082         	ret

0000000080004dfe <.Lpcrel_hi546>:
80004dfe: 00004517     	auipc	a0, 0x4
80004e02: d2250513     	addi	a0, a0, -0x2de
80004e06: 00002097     	auipc	ra, 0x2
80004e0a: a20080e7     	jalr	-0x5e0(ra) <core::panicking::panic_null_pointer_dereference::hbac6411af4f2e916>

0000000080004e0e <lab7_kernel_task2::leaf_pte::hdaf777f2912aa95a>:
80004e0e: 1141         	addi	sp, sp, -0x10
80004e10: e02a         	sd	a0, 0x0(sp)
80004e12: e42e         	sd	a1, 0x8(sp)
80004e14: 8131         	srli	a0, a0, 0xc
80004e16: 052a         	slli	a0, a0, 0xa
80004e18: 8d4d         	or	a0, a0, a1
80004e1a: 00156513     	ori	a0, a0, 0x1
80004e1e: 0141         	addi	sp, sp, 0x10
80004e20: 8082         	ret

0000000080004e22 <lab7_kernel_task2::clear_bss::h20423db52c6e7d2e>:
80004e22: 715d         	addi	sp, sp, -0x50
80004e24: e486         	sd	ra, 0x48(sp)

0000000080004e26 <.Lpcrel_hi547>:
80004e26: 00005517     	auipc	a0, 0x5
80004e2a: 1da50593     	addi	a1, a0, 0x1da
80004e2e: ec2e         	sd	a1, 0x18(sp)

0000000080004e30 <.Lpcrel_hi548>:
80004e30: 00014517     	auipc	a0, 0x14
80004e34: 1d050513     	addi	a0, a0, 0x1d0
80004e38: f02a         	sd	a0, 0x20(sp)
80004e3a: 04b56d63     	bltu	a0, a1, 0x80004e94 <.Lpcrel_hi552>
80004e3e: a009         	j	0x80004e40 <.Lpcrel_hi549>

0000000080004e40 <.Lpcrel_hi549>:
80004e40: 00005517     	auipc	a0, 0x5
80004e44: 1c050513     	addi	a0, a0, 0x1c0
80004e48: e02a         	sd	a0, 0x0(sp)
80004e4a: f82a         	sd	a0, 0x30(sp)
80004e4c: 4581         	li	a1, 0x0
80004e4e: e42e         	sd	a1, 0x8(sp)
80004e50: 02b10fa3     	sb	a1, 0x3f(sp)

0000000080004e54 <.Lpcrel_hi550>:
80004e54: 00014597     	auipc	a1, 0x14
80004e58: 1ac58593     	addi	a1, a1, 0x1ac
80004e5c: 8d89         	sub	a1, a1, a0
80004e5e: e82e         	sd	a1, 0x10(sp)
80004e60: e0ae         	sd	a1, 0x40(sp)
80004e62: 0015b593     	seqz	a1, a1
80004e66: 02b107a3     	sb	a1, 0x2f(sp)
80004e6a: 02f14603     	lbu	a2, 0x2f(sp)

0000000080004e6e <.Lpcrel_hi551>:
80004e6e: 00004597     	auipc	a1, 0x4
80004e72: d8a58693     	addi	a3, a1, -0x276
80004e76: 4585         	li	a1, 0x1
80004e78: ffffb097     	auipc	ra, 0xffffb
80004e7c: 19a080e7     	jalr	0x19a(ra) <core::ptr::write_bytes::precondition_check::h766a32318f5c57da>
80004e80: 6502         	ld	a0, 0x0(sp)
80004e82: 65a2         	ld	a1, 0x8(sp)
80004e84: 6642         	ld	a2, 0x10(sp)
80004e86: 00002097     	auipc	ra, 0x2
80004e8a: af4080e7     	jalr	-0x50c(ra) <memset>
80004e8e: 60a6         	ld	ra, 0x48(sp)
80004e90: 6161         	addi	sp, sp, 0x50
80004e92: 8082         	ret

0000000080004e94 <.Lpcrel_hi552>:
80004e94: 00004517     	auipc	a0, 0x4
80004e98: d1450513     	addi	a0, a0, -0x2ec
80004e9c: 00002097     	auipc	ra, 0x2
80004ea0: 8e2080e7     	jalr	-0x71e(ra) <core::panicking::panic_const::panic_const_sub_overflow::hccc965ba9198de7c>

0000000080004ea4 <lab7_kernel_task2::clear_sum::hdf5d56c30a04c371>:
80004ea4: 00040537     	lui	a0, 0x40
80004ea8: 10053073     	csrc	sstatus, a0
80004eac: 8082         	ret

0000000080004eae <lab7_kernel_task2::other_pid::h76b19580158ea613>:
80004eae: 1141         	addi	sp, sp, -0x10
80004eb0: e42a         	sd	a0, 0x8(sp)
80004eb2: c509         	beqz	a0, 0x80004ebc <lab7_kernel_task2::other_pid::h76b19580158ea613+0xe>
80004eb4: a009         	j	0x80004eb6 <lab7_kernel_task2::other_pid::h76b19580158ea613+0x8>
80004eb6: 4501         	li	a0, 0x0
80004eb8: e02a         	sd	a0, 0x0(sp)
80004eba: a021         	j	0x80004ec2 <lab7_kernel_task2::other_pid::h76b19580158ea613+0x14>
80004ebc: 4505         	li	a0, 0x1
80004ebe: e02a         	sd	a0, 0x0(sp)
80004ec0: a009         	j	0x80004ec2 <lab7_kernel_task2::other_pid::h76b19580158ea613+0x14>
80004ec2: 6502         	ld	a0, 0x0(sp)
80004ec4: 0141         	addi	sp, sp, 0x10
80004ec6: 8082         	ret

0000000080004ec8 <lab7_kernel_task2::pass_fail::h05a9436b376f2713>:
80004ec8: 1101         	addi	sp, sp, -0x20
80004eca: 00a10fa3     	sb	a0, 0x1f(sp)
80004ece: e911         	bnez	a0, 0x80004ee2 <.Lpcrel_hi554>
80004ed0: a009         	j	0x80004ed2 <.Lpcrel_hi553>

0000000080004ed2 <.Lpcrel_hi553>:
80004ed2: 00004517     	auipc	a0, 0x4
80004ed6: cee50513     	addi	a0, a0, -0x312
80004eda: e42a         	sd	a0, 0x8(sp)
80004edc: 4511         	li	a0, 0x4
80004ede: e82a         	sd	a0, 0x10(sp)
80004ee0: a809         	j	0x80004ef2 <.Lpcrel_hi554+0x10>

0000000080004ee2 <.Lpcrel_hi554>:
80004ee2: 00004517     	auipc	a0, 0x4
80004ee6: ce250513     	addi	a0, a0, -0x31e
80004eea: e42a         	sd	a0, 0x8(sp)
80004eec: 4511         	li	a0, 0x4
80004eee: e82a         	sd	a0, 0x10(sp)
80004ef0: a009         	j	0x80004ef2 <.Lpcrel_hi554+0x10>
80004ef2: 6522         	ld	a0, 0x8(sp)
80004ef4: 65c2         	ld	a1, 0x10(sp)
80004ef6: 6105         	addi	sp, sp, 0x20
80004ef8: 8082         	ret

0000000080004efa <lab7_kernel_task2::pte_to_pa::hf68a11d477bbd38c>:
80004efa: 1141         	addi	sp, sp, -0x10
80004efc: e42a         	sd	a0, 0x8(sp)
80004efe: 8129         	srli	a0, a0, 0xa
80004f00: 0532         	slli	a0, a0, 0xc
80004f02: 0141         	addi	sp, sp, 0x10
80004f04: 8082         	ret

0000000080004f06 <lab7_kernel_task2::qemu_exit::he8749ad0a6a46ff5>:
80004f06: 1101         	addi	sp, sp, -0x20
80004f08: ec06         	sd	ra, 0x18(sp)
80004f0a: 85aa         	mv	a1, a0
80004f0c: e42e         	sd	a1, 0x8(sp)
80004f0e: ca2a         	sw	a0, 0x14(sp)
80004f10: c919         	beqz	a0, 0x80004f26 <lab7_kernel_task2::qemu_exit::he8749ad0a6a46ff5+0x20>
80004f12: a009         	j	0x80004f14 <lab7_kernel_task2::qemu_exit::he8749ad0a6a46ff5+0xe>
80004f14: 6522         	ld	a0, 0x8(sp)
80004f16: 0105151b     	slliw	a0, a0, 0x10
80004f1a: 658d         	lui	a1, 0x3
80004f1c: 33358593     	addi	a1, a1, 0x333
80004f20: 8d4d         	or	a0, a0, a1
80004f22: c82a         	sw	a0, 0x10(sp)
80004f24: a031         	j	0x80004f30 <lab7_kernel_task2::qemu_exit::he8749ad0a6a46ff5+0x2a>
80004f26: 6515         	lui	a0, 0x5
80004f28: 55550513     	addi	a0, a0, 0x555
80004f2c: c82a         	sw	a0, 0x10(sp)
80004f2e: a009         	j	0x80004f30 <lab7_kernel_task2::qemu_exit::he8749ad0a6a46ff5+0x2a>
80004f30: 45c2         	lw	a1, 0x10(sp)

0000000080004f32 <.Lpcrel_hi555>:
80004f32: 00004517     	auipc	a0, 0x4
80004f36: c9650613     	addi	a2, a0, -0x36a
80004f3a: 00100537     	lui	a0, 0x100
80004f3e: ffffb097     	auipc	ra, 0xffffb
80004f42: 762080e7     	jalr	0x762(ra) <core::ptr::write_volatile::h22cc46ad2c6c8e21>
80004f46: a009         	j	0x80004f48 <.Lpcrel_hi555+0x16>
80004f48: 10500073     	wfi
80004f4c: bff5         	j	0x80004f48 <.Lpcrel_hi555+0x16>

0000000080004f4e <lab7_kernel_task2::table_pte::h2c163efccb4ea9a0>:
80004f4e: 1141         	addi	sp, sp, -0x10
80004f50: e42a         	sd	a0, 0x8(sp)
80004f52: 8131         	srli	a0, a0, 0xc
80004f54: 052a         	slli	a0, a0, 0xa
80004f56: 0505         	addi	a0, a0, 0x1
80004f58: 0141         	addi	sp, sp, 0x10
80004f5a: 8082         	ret

0000000080004f5c <lab7_kernel_task2::zero_page::h0e3aaea3fd2822c1>:
80004f5c: 711d         	addi	sp, sp, -0x60
80004f5e: ec86         	sd	ra, 0x58(sp)
80004f60: ec2a         	sd	a0, 0x18(sp)
80004f62: f02a         	sd	a0, 0x20(sp)
80004f64: c521         	beqz	a0, 0x80004fac <.Lpcrel_hi557>
80004f66: a009         	j	0x80004f68 <lab7_kernel_task2::zero_page::h0e3aaea3fd2822c1+0xc>
80004f68: 6562         	ld	a0, 0x18(sp)
80004f6a: e4aa         	sd	a0, 0x48(sp)
80004f6c: 6605         	lui	a2, 0x1
80004f6e: e832         	sd	a2, 0x10(sp)
80004f70: e8b2         	sd	a2, 0x50(sp)
80004f72: f82a         	sd	a0, 0x30(sp)
80004f74: 4581         	li	a1, 0x0
80004f76: e42e         	sd	a1, 0x8(sp)
80004f78: 02b10fa3     	sb	a1, 0x3f(sp)
80004f7c: e0b2         	sd	a2, 0x40(sp)
80004f7e: 02b107a3     	sb	a1, 0x2f(sp)
80004f82: 02f14603     	lbu	a2, 0x2f(sp)

0000000080004f86 <.Lpcrel_hi556>:
80004f86: 00004597     	auipc	a1, 0x4
80004f8a: c7258693     	addi	a3, a1, -0x38e
80004f8e: 4585         	li	a1, 0x1
80004f90: ffffb097     	auipc	ra, 0xffffb
80004f94: 082080e7     	jalr	0x82(ra) <core::ptr::write_bytes::precondition_check::h766a32318f5c57da>
80004f98: 6562         	ld	a0, 0x18(sp)
80004f9a: 65a2         	ld	a1, 0x8(sp)
80004f9c: 6642         	ld	a2, 0x10(sp)
80004f9e: 00002097     	auipc	ra, 0x2
80004fa2: 9dc080e7     	jalr	-0x624(ra) <memset>
80004fa6: 60e6         	ld	ra, 0x58(sp)
80004fa8: 6125         	addi	sp, sp, 0x60
80004faa: 8082         	ret

0000000080004fac <.Lpcrel_hi557>:
80004fac: 00004517     	auipc	a0, 0x4
80004fb0: c3450513     	addi	a0, a0, -0x3cc
80004fb4: 00002097     	auipc	ra, 0x2
80004fb8: 872080e7     	jalr	-0x78e(ra) <core::panicking::panic_null_pointer_dereference::hbac6411af4f2e916>

0000000080004fbc <_$LT$lab7_kernel_task2..PteFlags$u20$as$u20$core..fmt..Display$GT$::fmt::h522320fd542cdaeb>:
80004fbc: 7169         	addi	sp, sp, -0x130
80004fbe: f606         	sd	ra, 0x128(sp)
80004fc0: e42e         	sd	a1, 0x8(sp)
80004fc2: f1aa         	sd	a0, 0xe0(sp)
80004fc4: f5ae         	sd	a1, 0xe8(sp)
80004fc6: 6108         	ld	a0, 0x0(a0)
80004fc8: e82a         	sd	a0, 0x10(sp)
80004fca: fdaa         	sd	a0, 0xf8(sp)
80004fcc: 8905         	andi	a0, a0, 0x1
80004fce: e511         	bnez	a0, 0x80004fda <_$LT$lab7_kernel_task2..PteFlags$u20$as$u20$core..fmt..Display$GT$::fmt::h522320fd542cdaeb+0x1e>
80004fd0: a009         	j	0x80004fd2 <_$LT$lab7_kernel_task2..PteFlags$u20$as$u20$core..fmt..Display$GT$::fmt::h522320fd542cdaeb+0x16>
80004fd2: 02d00513     	li	a0, 0x2d
80004fd6: de2a         	sw	a0, 0x3c(sp)
80004fd8: a029         	j	0x80004fe2 <_$LT$lab7_kernel_task2..PteFlags$u20$as$u20$core..fmt..Display$GT$::fmt::h522320fd542cdaeb+0x26>
80004fda: 05600513     	li	a0, 0x56
80004fde: de2a         	sw	a0, 0x3c(sp)
80004fe0: a009         	j	0x80004fe2 <_$LT$lab7_kernel_task2..PteFlags$u20$as$u20$core..fmt..Display$GT$::fmt::h522320fd542cdaeb+0x26>
80004fe2: 6542         	ld	a0, 0x10(sp)
80004fe4: 8909         	andi	a0, a0, 0x2
80004fe6: e511         	bnez	a0, 0x80004ff2 <_$LT$lab7_kernel_task2..PteFlags$u20$as$u20$core..fmt..Display$GT$::fmt::h522320fd542cdaeb+0x36>
80004fe8: a009         	j	0x80004fea <_$LT$lab7_kernel_task2..PteFlags$u20$as$u20$core..fmt..Display$GT$::fmt::h522320fd542cdaeb+0x2e>
80004fea: 02d00513     	li	a0, 0x2d
80004fee: c0aa         	sw	a0, 0x40(sp)
80004ff0: a029         	j	0x80004ffa <_$LT$lab7_kernel_task2..PteFlags$u20$as$u20$core..fmt..Display$GT$::fmt::h522320fd542cdaeb+0x3e>
80004ff2: 05200513     	li	a0, 0x52
80004ff6: c0aa         	sw	a0, 0x40(sp)
80004ff8: a009         	j	0x80004ffa <_$LT$lab7_kernel_task2..PteFlags$u20$as$u20$core..fmt..Display$GT$::fmt::h522320fd542cdaeb+0x3e>
80004ffa: 6542         	ld	a0, 0x10(sp)
80004ffc: 8911         	andi	a0, a0, 0x4
80004ffe: e511         	bnez	a0, 0x8000500a <_$LT$lab7_kernel_task2..PteFlags$u20$as$u20$core..fmt..Display$GT$::fmt::h522320fd542cdaeb+0x4e>
80005000: a009         	j	0x80005002 <_$LT$lab7_kernel_task2..PteFlags$u20$as$u20$core..fmt..Display$GT$::fmt::h522320fd542cdaeb+0x46>
80005002: 02d00513     	li	a0, 0x2d
80005006: c2aa         	sw	a0, 0x44(sp)
80005008: a029         	j	0x80005012 <_$LT$lab7_kernel_task2..PteFlags$u20$as$u20$core..fmt..Display$GT$::fmt::h522320fd542cdaeb+0x56>
8000500a: 05700513     	li	a0, 0x57
8000500e: c2aa         	sw	a0, 0x44(sp)
80005010: a009         	j	0x80005012 <_$LT$lab7_kernel_task2..PteFlags$u20$as$u20$core..fmt..Display$GT$::fmt::h522320fd542cdaeb+0x56>
80005012: 6542         	ld	a0, 0x10(sp)
80005014: 8921         	andi	a0, a0, 0x8
80005016: e511         	bnez	a0, 0x80005022 <_$LT$lab7_kernel_task2..PteFlags$u20$as$u20$core..fmt..Display$GT$::fmt::h522320fd542cdaeb+0x66>
80005018: a009         	j	0x8000501a <_$LT$lab7_kernel_task2..PteFlags$u20$as$u20$core..fmt..Display$GT$::fmt::h522320fd542cdaeb+0x5e>
8000501a: 02d00513     	li	a0, 0x2d
8000501e: c4aa         	sw	a0, 0x48(sp)
80005020: a029         	j	0x8000502a <_$LT$lab7_kernel_task2..PteFlags$u20$as$u20$core..fmt..Display$GT$::fmt::h522320fd542cdaeb+0x6e>
80005022: 05800513     	li	a0, 0x58
80005026: c4aa         	sw	a0, 0x48(sp)
80005028: a009         	j	0x8000502a <_$LT$lab7_kernel_task2..PteFlags$u20$as$u20$core..fmt..Display$GT$::fmt::h522320fd542cdaeb+0x6e>
8000502a: 6542         	ld	a0, 0x10(sp)
8000502c: 8941         	andi	a0, a0, 0x10
8000502e: e511         	bnez	a0, 0x8000503a <_$LT$lab7_kernel_task2..PteFlags$u20$as$u20$core..fmt..Display$GT$::fmt::h522320fd542cdaeb+0x7e>
80005030: a009         	j	0x80005032 <_$LT$lab7_kernel_task2..PteFlags$u20$as$u20$core..fmt..Display$GT$::fmt::h522320fd542cdaeb+0x76>
80005032: 02d00513     	li	a0, 0x2d
80005036: c6aa         	sw	a0, 0x4c(sp)
80005038: a029         	j	0x80005042 <_$LT$lab7_kernel_task2..PteFlags$u20$as$u20$core..fmt..Display$GT$::fmt::h522320fd542cdaeb+0x86>
8000503a: 05500513     	li	a0, 0x55
8000503e: c6aa         	sw	a0, 0x4c(sp)
80005040: a009         	j	0x80005042 <_$LT$lab7_kernel_task2..PteFlags$u20$as$u20$core..fmt..Display$GT$::fmt::h522320fd542cdaeb+0x86>
80005042: 6542         	ld	a0, 0x10(sp)
80005044: 04057513     	andi	a0, a0, 0x40
80005048: e511         	bnez	a0, 0x80005054 <_$LT$lab7_kernel_task2..PteFlags$u20$as$u20$core..fmt..Display$GT$::fmt::h522320fd542cdaeb+0x98>
8000504a: a009         	j	0x8000504c <_$LT$lab7_kernel_task2..PteFlags$u20$as$u20$core..fmt..Display$GT$::fmt::h522320fd542cdaeb+0x90>
8000504c: 02d00513     	li	a0, 0x2d
80005050: c8aa         	sw	a0, 0x50(sp)
80005052: a029         	j	0x8000505c <_$LT$lab7_kernel_task2..PteFlags$u20$as$u20$core..fmt..Display$GT$::fmt::h522320fd542cdaeb+0xa0>
80005054: 04100513     	li	a0, 0x41
80005058: c8aa         	sw	a0, 0x50(sp)
8000505a: a009         	j	0x8000505c <_$LT$lab7_kernel_task2..PteFlags$u20$as$u20$core..fmt..Display$GT$::fmt::h522320fd542cdaeb+0xa0>
8000505c: 6542         	ld	a0, 0x10(sp)
8000505e: 08057513     	andi	a0, a0, 0x80
80005062: e511         	bnez	a0, 0x8000506e <_$LT$lab7_kernel_task2..PteFlags$u20$as$u20$core..fmt..Display$GT$::fmt::h522320fd542cdaeb+0xb2>
80005064: a009         	j	0x80005066 <_$LT$lab7_kernel_task2..PteFlags$u20$as$u20$core..fmt..Display$GT$::fmt::h522320fd542cdaeb+0xaa>
80005066: 02d00513     	li	a0, 0x2d
8000506a: caaa         	sw	a0, 0x54(sp)
8000506c: a029         	j	0x80005076 <_$LT$lab7_kernel_task2..PteFlags$u20$as$u20$core..fmt..Display$GT$::fmt::h522320fd542cdaeb+0xba>
8000506e: 04400513     	li	a0, 0x44
80005072: caaa         	sw	a0, 0x54(sp)
80005074: a009         	j	0x80005076 <_$LT$lab7_kernel_task2..PteFlags$u20$as$u20$core..fmt..Display$GT$::fmt::h522320fd542cdaeb+0xba>
80005076: 5572         	lw	a0, 0x3c(sp)
80005078: d02a         	sw	a0, 0x20(sp)
8000507a: 4506         	lw	a0, 0x40(sp)
8000507c: d22a         	sw	a0, 0x24(sp)
8000507e: 4516         	lw	a0, 0x44(sp)
80005080: d42a         	sw	a0, 0x28(sp)
80005082: 4526         	lw	a0, 0x48(sp)
80005084: d62a         	sw	a0, 0x2c(sp)
80005086: 4536         	lw	a0, 0x4c(sp)
80005088: d82a         	sw	a0, 0x30(sp)
8000508a: 4546         	lw	a0, 0x50(sp)
8000508c: da2a         	sw	a0, 0x34(sp)
8000508e: 4556         	lw	a0, 0x54(sp)
80005090: dc2a         	sw	a0, 0x38(sp)
80005092: 5562         	lw	a0, 0x38(sp)
80005094: 10a12c23     	sw	a0, 0x118(sp)
80005098: 03416503     	lwu	a0, 0x34(sp)
8000509c: 1502         	slli	a0, a0, 0x20
8000509e: 03016583     	lwu	a1, 0x30(sp)
800050a2: 8d4d         	or	a0, a0, a1
800050a4: ea2a         	sd	a0, 0x110(sp)
800050a6: 02c16503     	lwu	a0, 0x2c(sp)
800050aa: 1502         	slli	a0, a0, 0x20
800050ac: 02816583     	lwu	a1, 0x28(sp)
800050b0: 8d4d         	or	a0, a0, a1
800050b2: e62a         	sd	a0, 0x108(sp)
800050b4: 02416503     	lwu	a0, 0x24(sp)
800050b8: 1502         	slli	a0, a0, 0x20
800050ba: 02016583     	lwu	a1, 0x20(sp)
800050be: 8d4d         	or	a0, a0, a1
800050c0: e22a         	sd	a0, 0x100(sp)
800050c2: 08a8         	addi	a0, sp, 0x58
800050c4: 020c         	addi	a1, sp, 0x100
800050c6: ffffb097     	auipc	ra, 0xffffb
800050ca: 4f4080e7     	jalr	0x4f4(ra) <core::array::iter::_$LT$impl$u20$core..iter..traits..collect..IntoIterator$u20$for$u20$$u5b$T$u3b$$u20$N$u5d$$GT$::into_iter::h96a05467c27044da>
800050ce: 650a         	ld	a0, 0x80(sp)
800050d0: f92a         	sd	a0, 0xb0(sp)
800050d2: 7566         	ld	a0, 0x78(sp)
800050d4: f52a         	sd	a0, 0xa8(sp)
800050d6: 7546         	ld	a0, 0x70(sp)
800050d8: f12a         	sd	a0, 0xa0(sp)
800050da: 7526         	ld	a0, 0x68(sp)
800050dc: ed2a         	sd	a0, 0x98(sp)
800050de: 7506         	ld	a0, 0x60(sp)
800050e0: e92a         	sd	a0, 0x90(sp)
800050e2: 6566         	ld	a0, 0x58(sp)
800050e4: e52a         	sd	a0, 0x88(sp)
800050e6: a009         	j	0x800050e8 <_$LT$lab7_kernel_task2..PteFlags$u20$as$u20$core..fmt..Display$GT$::fmt::h522320fd542cdaeb+0x12c>
800050e8: 0128         	addi	a0, sp, 0x88
800050ea: ffffb097     	auipc	ra, 0xffffb
800050ee: 576080e7     	jalr	0x576(ra) <_$LT$core..array..iter..IntoIter$LT$T$C$_$GT$$u20$as$u20$core..iter..traits..iterator..Iterator$GT$::next::he44396bcfb795934>
800050f2: dd2a         	sw	a0, 0xb8(sp)
800050f4: 556a         	lw	a0, 0xb8(sp)
800050f6: 001105b7     	lui	a1, 0x110
800050fa: 04b50863     	beq	a0, a1, 0x8000514a <.Lpcrel_hi558+0x30>
800050fe: a009         	j	0x80005100 <_$LT$lab7_kernel_task2..PteFlags$u20$as$u20$core..fmt..Display$GT$::fmt::h522320fd542cdaeb+0x144>
80005100: 556a         	lw	a0, 0xb8(sp)
80005102: df2a         	sw	a0, 0xbc(sp)
80005104: 196c         	addi	a1, sp, 0xbc
80005106: f22e         	sd	a1, 0x120(sp)
80005108: 0988         	addi	a0, sp, 0xd0
8000510a: ffffc097     	auipc	ra, 0xffffc
8000510e: 990080e7     	jalr	-0x670(ra) <core::fmt::rt::Argument::new_display::h4e5e46ce82b2d3cf>
80005112: 656e         	ld	a0, 0xd8(sp)
80005114: e5aa         	sd	a0, 0xc8(sp)
80005116: 654e         	ld	a0, 0xd0(sp)
80005118: e1aa         	sd	a0, 0xc0(sp)

000000008000511a <.Lpcrel_hi558>:
8000511a: 00002517     	auipc	a0, 0x2
8000511e: 13850513     	addi	a0, a0, 0x138
80005122: 018c         	addi	a1, sp, 0xc0
80005124: ffffb097     	auipc	ra, 0xffffb
80005128: 110080e7     	jalr	0x110(ra) <core::fmt::Arguments::new::h088c9ce3743b7ddb>
8000512c: 862a         	mv	a2, a0
8000512e: 6522         	ld	a0, 0x8(sp)
80005130: e032         	sd	a2, 0x0(sp)
80005132: 862e         	mv	a2, a1
80005134: 6582         	ld	a1, 0x0(sp)
80005136: ffffb097     	auipc	ra, 0xffffb
8000513a: 7ac080e7     	jalr	0x7ac(ra) <core::fmt::Formatter::write_fmt::h9be53fa96b65a4b3>
8000513e: 00000097     	auipc	ra, 0x0
80005142: 4d8080e7     	jalr	0x4d8(ra) <_$LT$core..result..Result$LT$T$C$E$GT$$u20$as$u20$core..ops..try_trait..Try$GT$::branch::hf60ced49acd12e2d>
80005146: e105         	bnez	a0, 0x80005166 <.Lpcrel_hi559>
80005148: b745         	j	0x800050e8 <_$LT$lab7_kernel_task2..PteFlags$u20$as$u20$core..fmt..Display$GT$::fmt::h522320fd542cdaeb+0x12c>
8000514a: 0128         	addi	a0, sp, 0x88
8000514c: 00000097     	auipc	ra, 0x0
80005150: 66e080e7     	jalr	0x66e(ra) <core::ptr::drop_in_place$LT$core..array..iter..IntoIter$LT$char$C$7_usize$GT$$GT$::hbe1c3b1b4e20f0cc>
80005154: 4501         	li	a0, 0x0
80005156: 00a10fa3     	sb	a0, 0x1f(sp)
8000515a: a009         	j	0x8000515c <.Lpcrel_hi558+0x42>
8000515c: 01f14503     	lbu	a0, 0x1f(sp)
80005160: 70b2         	ld	ra, 0x128(sp)
80005162: 6155         	addi	sp, sp, 0x130
80005164: 8082         	ret

0000000080005166 <.Lpcrel_hi559>:
80005166: 00004517     	auipc	a0, 0x4
8000516a: ac250513     	addi	a0, a0, -0x53e
8000516e: 00000097     	auipc	ra, 0x0
80005172: 4a0080e7     	jalr	0x4a0(ra) <_$LT$core..result..Result$LT$T$C$F$GT$$u20$as$u20$core..ops..try_trait..FromResidual$LT$core..result..Result$LT$core..convert..Infallible$C$E$GT$$GT$$GT$::from_residual::h621ac1a3f7208d6b>
80005176: 00a10fa3     	sb	a0, 0x1f(sp)
8000517a: 0128         	addi	a0, sp, 0x88
8000517c: 00000097     	auipc	ra, 0x0
80005180: 63e080e7     	jalr	0x63e(ra) <core::ptr::drop_in_place$LT$core..array..iter..IntoIter$LT$char$C$7_usize$GT$$GT$::hbe1c3b1b4e20f0cc>
80005184: bfe1         	j	0x8000515c <.Lpcrel_hi558+0x42>

0000000080005186 <handle_machine_trap>:
80005186: 7171         	addi	sp, sp, -0xb0
80005188: f506         	sd	ra, 0xa8(sp)
8000518a: e42a         	sd	a0, 0x8(sp)
8000518c: f12a         	sd	a0, 0xa0(sp)
8000518e: ffffc097     	auipc	ra, 0xffffc
80005192: 0d2080e7     	jalr	0xd2(ra) <lab7_kernel_task2::read_mcause::he3ab0c8b6b6e4ace>
80005196: 85aa         	mv	a1, a0
80005198: 6522         	ld	a0, 0x8(sp)
8000519a: f82e         	sd	a1, 0x30(sp)
8000519c: 0f850513     	addi	a0, a0, 0xf8
800051a0: e82a         	sd	a0, 0x10(sp)
800051a2: ffffc097     	auipc	ra, 0xffffc
800051a6: 004080e7     	jalr	0x4(ra) <lab7_kernel_task2::read_mtval::h380dbef7b711f26d>
800051aa: 85aa         	mv	a1, a0
800051ac: 6542         	ld	a0, 0x10(sp)
800051ae: fc2e         	sd	a1, 0x38(sp)
800051b0: 180c         	addi	a1, sp, 0x30
800051b2: ec2e         	sd	a1, 0x18(sp)
800051b4: f02a         	sd	a0, 0x20(sp)
800051b6: 1828         	addi	a0, sp, 0x38
800051b8: f42a         	sd	a0, 0x28(sp)
800051ba: 65e2         	ld	a1, 0x18(sp)
800051bc: 1888         	addi	a0, sp, 0x70
800051be: ffffc097     	auipc	ra, 0xffffc
800051c2: 964080e7     	jalr	-0x69c(ra) <core::fmt::rt::Argument::new_lower_hex::hc9324aa1f0e7ff53>
800051c6: 7582         	ld	a1, 0x20(sp)
800051c8: 0108         	addi	a0, sp, 0x80
800051ca: ffffc097     	auipc	ra, 0xffffc
800051ce: 958080e7     	jalr	-0x6a8(ra) <core::fmt::rt::Argument::new_lower_hex::hc9324aa1f0e7ff53>
800051d2: 75a2         	ld	a1, 0x28(sp)
800051d4: 0908         	addi	a0, sp, 0x90
800051d6: ffffc097     	auipc	ra, 0xffffc
800051da: 94c080e7     	jalr	-0x6b4(ra) <core::fmt::rt::Argument::new_lower_hex::hc9324aa1f0e7ff53>
800051de: 7566         	ld	a0, 0x78(sp)
800051e0: e4aa         	sd	a0, 0x48(sp)
800051e2: 7546         	ld	a0, 0x70(sp)
800051e4: e0aa         	sd	a0, 0x40(sp)
800051e6: 652a         	ld	a0, 0x88(sp)
800051e8: ecaa         	sd	a0, 0x58(sp)
800051ea: 650a         	ld	a0, 0x80(sp)
800051ec: e8aa         	sd	a0, 0x50(sp)
800051ee: 656a         	ld	a0, 0x98(sp)
800051f0: f4aa         	sd	a0, 0x68(sp)
800051f2: 654a         	ld	a0, 0x90(sp)
800051f4: f0aa         	sd	a0, 0x60(sp)

00000000800051f6 <.Lpcrel_hi560>:
800051f6: 00004517     	auipc	a0, 0x4
800051fa: a4a50513     	addi	a0, a0, -0x5b6
800051fe: 008c         	addi	a1, sp, 0x40
80005200: ffffb097     	auipc	ra, 0xffffb
80005204: 070080e7     	jalr	0x70(ra) <core::fmt::Arguments::new::h5a7d0507b091f7e3>
80005208: 00000097     	auipc	ra, 0x0
8000520c: 61c080e7     	jalr	0x61c(ra) <lab7_kernel_task2::console::print::h0d70eb8228e543e8>
80005210: 4505         	li	a0, 0x1
80005212: 00000097     	auipc	ra, 0x0
80005216: cf4080e7     	jalr	-0x30c(ra) <lab7_kernel_task2::qemu_exit::he8749ad0a6a46ff5>

000000008000521a <handle_supervisor_trap>:
8000521a: d0010113     	addi	sp, sp, -0x300
8000521e: 2e113c23     	sd	ra, 0x2f8(sp)
80005222: ec2a         	sd	a0, 0x18(sp)
80005224: 2ea13423     	sd	a0, 0x2e8(sp)

0000000080005228 <.Lpcrel_hi561>:
80005228: 00005517     	auipc	a0, 0x5
8000522c: dd850513     	addi	a0, a0, -0x228
80005230: cd1d         	beqz	a0, 0x8000526e <.Lpcrel_hi563>
80005232: a009         	j	0x80005234 <.Lpcrel_hi562>

0000000080005234 <.Lpcrel_hi562>:
80005234: 00005517     	auipc	a0, 0x5
80005238: dcc50513     	addi	a0, a0, -0x234
8000523c: 6108         	ld	a0, 0x0(a0)
8000523e: f02a         	sd	a0, 0x20(sp)
80005240: ffffc097     	auipc	ra, 0xffffc
80005244: 02e080e7     	jalr	0x2e(ra) <lab7_kernel_task2::read_scause::hc1250abe2410e42f>
80005248: f42a         	sd	a0, 0x28(sp)
8000524a: ffffc097     	auipc	ra, 0xffffc
8000524e: f6a080e7     	jalr	-0x96(ra) <lab7_kernel_task2::read_stval::h16a5606ba0d1dce2>
80005252: 65e2         	ld	a1, 0x18(sp)
80005254: f82a         	sd	a0, 0x30(sp)
80005256: 1828         	addi	a0, sp, 0x38
80005258: 10000613     	li	a2, 0x100
8000525c: 00001097     	auipc	ra, 0x1
80005260: 794080e7     	jalr	0x794(ra) <memcpy>
80005264: 7502         	ld	a0, 0x20(sp)
80005266: 4589         	li	a1, 0x2
80005268: 00b56b63     	bltu	a0, a1, 0x8000527e <.Lpcrel_hi564>
8000526c: a839         	j	0x8000528a <.Lpcrel_hi564+0xc>

000000008000526e <.Lpcrel_hi563>:
8000526e: 00004517     	auipc	a0, 0x4
80005272: a2250513     	addi	a0, a0, -0x5de
80005276: 00001097     	auipc	ra, 0x1
8000527a: 5b0080e7     	jalr	0x5b0(ra) <core::panicking::panic_null_pointer_dereference::hbac6411af4f2e916>

000000008000527e <.Lpcrel_hi564>:
8000527e: 00005517     	auipc	a0, 0x5
80005282: 22a50513     	addi	a0, a0, 0x22a
80005286: ed01         	bnez	a0, 0x8000529e <.Lpcrel_hi565+0x12>
80005288: a83d         	j	0x800052c6 <.Lpcrel_hi567>
8000528a: 7502         	ld	a0, 0x20(sp)

000000008000528c <.Lpcrel_hi565>:
8000528c: 00004597     	auipc	a1, 0x4
80005290: a1c58613     	addi	a2, a1, -0x5e4
80005294: 4589         	li	a1, 0x2
80005296: 00001097     	auipc	ra, 0x1
8000529a: 524080e7     	jalr	0x524(ra) <core::panicking::panic_bounds_check::h6aaee0d15e0261eb>
8000529e: 7502         	ld	a0, 0x20(sp)
800052a0: 00851593     	slli	a1, a0, 0x8

00000000800052a4 <.Lpcrel_hi566>:
800052a4: 00005517     	auipc	a0, 0x5
800052a8: 20450513     	addi	a0, a0, 0x204
800052ac: 952e         	add	a0, a0, a1
800052ae: 182c         	addi	a1, sp, 0x38
800052b0: 10000613     	li	a2, 0x100
800052b4: 00001097     	auipc	ra, 0x1
800052b8: 73c080e7     	jalr	0x73c(ra) <memcpy>
800052bc: 7522         	ld	a0, 0x28(sp)
800052be: 45a1         	li	a1, 0x8
800052c0: 00b50b63     	beq	a0, a1, 0x800052d6 <.Lpcrel_hi567+0x10>
800052c4: a025         	j	0x800052ec <.Lpcrel_hi567+0x26>

00000000800052c6 <.Lpcrel_hi567>:
800052c6: 00004517     	auipc	a0, 0x4
800052ca: 9e250513     	addi	a0, a0, -0x61e
800052ce: 00001097     	auipc	ra, 0x1
800052d2: 558080e7     	jalr	0x558(ra) <core::panicking::panic_null_pointer_dereference::hbac6411af4f2e916>
800052d6: 7502         	ld	a0, 0x20(sp)
800052d8: ffffe097     	auipc	ra, 0xffffe
800052dc: aa2080e7     	jalr	-0x55e(ra) <lab7_kernel_task2::handle_user_ecall::h87f9d00196abbac7>
800052e0: fe2a         	sd	a0, 0x138(sp)
800052e2: e2ae         	sd	a1, 0x140(sp)
800052e4: 7572         	ld	a0, 0x138(sp)
800052e6: 8905         	andi	a0, a0, 0x1
800052e8: e551         	bnez	a0, 0x80005374 <.Lpcrel_hi568+0x24>
800052ea: a879         	j	0x80005388 <.Lpcrel_hi569+0xc>
800052ec: 6562         	ld	a0, 0x18(sp)
800052ee: 0f850513     	addi	a0, a0, 0xf8
800052f2: 100c         	addi	a1, sp, 0x20
800052f4: e6ae         	sd	a1, 0x148(sp)
800052f6: 102c         	addi	a1, sp, 0x28
800052f8: eaae         	sd	a1, 0x150(sp)
800052fa: eeaa         	sd	a0, 0x158(sp)
800052fc: 1808         	addi	a0, sp, 0x30
800052fe: f2aa         	sd	a0, 0x160(sp)
80005300: 65b6         	ld	a1, 0x148(sp)
80005302: 1328         	addi	a0, sp, 0x1a8
80005304: ffffb097     	auipc	ra, 0xffffb
80005308: 752080e7     	jalr	0x752(ra) <core::fmt::rt::Argument::new_display::h0f8d4721c9a89fbb>
8000530c: 65d6         	ld	a1, 0x150(sp)
8000530e: 1b28         	addi	a0, sp, 0x1b8
80005310: ffffc097     	auipc	ra, 0xffffc
80005314: 812080e7     	jalr	-0x7ee(ra) <core::fmt::rt::Argument::new_lower_hex::hc9324aa1f0e7ff53>
80005318: 65f6         	ld	a1, 0x158(sp)
8000531a: 03a8         	addi	a0, sp, 0x1c8
8000531c: ffffc097     	auipc	ra, 0xffffc
80005320: 806080e7     	jalr	-0x7fa(ra) <core::fmt::rt::Argument::new_lower_hex::hc9324aa1f0e7ff53>
80005324: 7596         	ld	a1, 0x160(sp)
80005326: 0ba8         	addi	a0, sp, 0x1d8
80005328: ffffb097     	auipc	ra, 0xffffb
8000532c: 7fa080e7     	jalr	0x7fa(ra) <core::fmt::rt::Argument::new_lower_hex::hc9324aa1f0e7ff53>
80005330: 755a         	ld	a0, 0x1b0(sp)
80005332: faaa         	sd	a0, 0x170(sp)
80005334: 753a         	ld	a0, 0x1a8(sp)
80005336: f6aa         	sd	a0, 0x168(sp)
80005338: 651e         	ld	a0, 0x1c0(sp)
8000533a: e32a         	sd	a0, 0x180(sp)
8000533c: 757a         	ld	a0, 0x1b8(sp)
8000533e: feaa         	sd	a0, 0x178(sp)
80005340: 655e         	ld	a0, 0x1d0(sp)
80005342: eb2a         	sd	a0, 0x190(sp)
80005344: 653e         	ld	a0, 0x1c8(sp)
80005346: e72a         	sd	a0, 0x188(sp)
80005348: 751e         	ld	a0, 0x1e0(sp)
8000534a: f32a         	sd	a0, 0x1a0(sp)
8000534c: 657e         	ld	a0, 0x1d8(sp)
8000534e: ef2a         	sd	a0, 0x198(sp)

0000000080005350 <.Lpcrel_hi568>:
80005350: 00004517     	auipc	a0, 0x4
80005354: 9a050513     	addi	a0, a0, -0x660
80005358: 12ac         	addi	a1, sp, 0x168
8000535a: ffffb097     	auipc	ra, 0xffffb
8000535e: f48080e7     	jalr	-0xb8(ra) <core::fmt::Arguments::new::h88ccc37bc2e8d228>
80005362: 00000097     	auipc	ra, 0x0
80005366: 4c2080e7     	jalr	0x4c2(ra) <lab7_kernel_task2::console::print::h0d70eb8228e543e8>
8000536a: 4505         	li	a0, 0x1
8000536c: 00000097     	auipc	ra, 0x0
80005370: b9a080e7     	jalr	-0x466(ra) <lab7_kernel_task2::qemu_exit::he8749ad0a6a46ff5>
80005374: 6516         	ld	a0, 0x140(sp)
80005376: e82a         	sd	a0, 0x10(sp)
80005378: 2ea13823     	sd	a0, 0x2f0(sp)

000000008000537c <.Lpcrel_hi569>:
8000537c: 00005517     	auipc	a0, 0x5
80005380: c8450513     	addi	a0, a0, -0x37c
80005384: e511         	bnez	a0, 0x80005390 <.Lpcrel_hi569+0x14>
80005386: a80d         	j	0x800053b8 <.Lpcrel_hi571>
80005388: ffffd097     	auipc	ra, 0xffffd
8000538c: 370080e7     	jalr	0x370(ra) <lab7_kernel_task2::finish_experiment::hac60dddfda6a143b>
80005390: 6542         	ld	a0, 0x10(sp)

0000000080005392 <.Lpcrel_hi570>:
80005392: 00005597     	auipc	a1, 0x5
80005396: c6e58593     	addi	a1, a1, -0x392
8000539a: e188         	sd	a0, 0x0(a1)
8000539c: fffff097     	auipc	ra, 0xfffff
800053a0: 092080e7     	jalr	0x92(ra) <lab7_kernel_task2::dispatch_pending_signal_if_needed::hd2e86f3325dbb281>
800053a4: 6542         	ld	a0, 0x10(sp)
800053a6: ffffd097     	auipc	ra, 0xffffd
800053aa: 196080e7     	jalr	0x196(ra) <lab7_kernel_task2::activate_process::h2d7daf4db990d1a8>
800053ae: 6542         	ld	a0, 0x10(sp)
800053b0: 4589         	li	a1, 0x2
800053b2: 00b56b63     	bltu	a0, a1, 0x800053c8 <.Lpcrel_hi572>
800053b6: a839         	j	0x800053d4 <.Lpcrel_hi572+0xc>

00000000800053b8 <.Lpcrel_hi571>:
800053b8: 00004517     	auipc	a0, 0x4
800053bc: 90850513     	addi	a0, a0, -0x6f8
800053c0: 00001097     	auipc	ra, 0x1
800053c4: 466080e7     	jalr	0x466(ra) <core::panicking::panic_null_pointer_dereference::hbac6411af4f2e916>

00000000800053c8 <.Lpcrel_hi572>:
800053c8: 00005517     	auipc	a0, 0x5
800053cc: 0e050513     	addi	a0, a0, 0xe0
800053d0: ed01         	bnez	a0, 0x800053e8 <.Lpcrel_hi573+0x12>
800053d2: a881         	j	0x80005422 <.Lpcrel_hi575>
800053d4: 6542         	ld	a0, 0x10(sp)

00000000800053d6 <.Lpcrel_hi573>:
800053d6: 00004597     	auipc	a1, 0x4
800053da: 90258613     	addi	a2, a1, -0x6fe
800053de: 4589         	li	a1, 0x2
800053e0: 00001097     	auipc	ra, 0x1
800053e4: 3da080e7     	jalr	0x3da(ra) <core::panicking::panic_bounds_check::h6aaee0d15e0261eb>
800053e8: 6542         	ld	a0, 0x10(sp)
800053ea: 00851593     	slli	a1, a0, 0x8

00000000800053ee <.Lpcrel_hi574>:
800053ee: 00005517     	auipc	a0, 0x5
800053f2: 0ba50513     	addi	a0, a0, 0xba
800053f6: 95aa         	add	a1, a1, a0
800053f8: 13a8         	addi	a0, sp, 0x1e8
800053fa: e02a         	sd	a0, 0x0(sp)
800053fc: 10000613     	li	a2, 0x100
80005400: e432         	sd	a2, 0x8(sp)
80005402: 00001097     	auipc	ra, 0x1
80005406: 5ee080e7     	jalr	0x5ee(ra) <memcpy>
8000540a: 6582         	ld	a1, 0x0(sp)
8000540c: 6622         	ld	a2, 0x8(sp)
8000540e: 6562         	ld	a0, 0x18(sp)
80005410: 00001097     	auipc	ra, 0x1
80005414: 5e0080e7     	jalr	0x5e0(ra) <memcpy>
80005418: 2f813083     	ld	ra, 0x2f8(sp)
8000541c: 30010113     	addi	sp, sp, 0x300
80005420: 8082         	ret

0000000080005422 <.Lpcrel_hi575>:
80005422: 00004517     	auipc	a0, 0x4
80005426: 8b650513     	addi	a0, a0, -0x74a
8000542a: 00001097     	auipc	ra, 0x1
8000542e: 3fc080e7     	jalr	0x3fc(ra) <core::panicking::panic_null_pointer_dereference::hbac6411af4f2e916>

0000000080005432 <start_machine>:
80005432: 1141         	addi	sp, sp, -0x10
80005434: e406         	sd	ra, 0x8(sp)
80005436: 00000097     	auipc	ra, 0x0
8000543a: 9ec080e7     	jalr	-0x614(ra) <lab7_kernel_task2::clear_bss::h20423db52c6e7d2e>
8000543e: ffffd097     	auipc	ra, 0xffffd
80005442: eec080e7     	jalr	-0x114(ra) <lab7_kernel_task2::configure_pmp::hf68f1159d3070414>
80005446: ffffb097     	auipc	ra, 0xffffb
8000544a: 2e6080e7     	jalr	0x2e6(ra) <lab7_kernel_task2::trap::init_machine_trap_vector::hf119c96928d6ba05>
8000544e: fffff097     	auipc	ra, 0xfffff
80005452: 6c2080e7     	jalr	0x6c2(ra) <lab7_kernel_task2::delegate_user_exceptions_to_supervisor::h5d8476cf6761b202>
80005456: fffff097     	auipc	ra, 0xfffff
8000545a: cb8080e7     	jalr	-0x348(ra) <lab7_kernel_task2::machine_trap_stack_top::h99629f30404c64a6>
8000545e: 34051073     	csrw	mscratch, a0
80005462: ffffd097     	auipc	ra, 0xffffd
80005466: 1e4080e7     	jalr	0x1e4(ra) <lab7_kernel_task2::kernel_stack_top::h2c36350df6fe0006>
8000546a: 85aa         	mv	a1, a0

000000008000546c <.Lpcrel_hi576>:
8000546c: 00000517     	auipc	a0, 0x0
80005470: 01050513     	addi	a0, a0, 0x10
80005474: ffffc097     	auipc	ra, 0xffffc
80005478: 86c080e7     	jalr	-0x794(ra) <enter_supervisor>

000000008000547c <start_supervisor>:
8000547c: 7171         	addi	sp, sp, -0xb0
8000547e: f506         	sd	ra, 0xa8(sp)
80005480: ffffb097     	auipc	ra, 0xffffb
80005484: 2ba080e7     	jalr	0x2ba(ra) <lab7_kernel_task2::trap::init_supervisor_trap_vector::h5c7615c02f364150>
80005488: 00000097     	auipc	ra, 0x0
8000548c: a1c080e7     	jalr	-0x5e4(ra) <lab7_kernel_task2::clear_sum::hdf5d56c30a04c371>
80005490: ffffe097     	auipc	ra, 0xffffe
80005494: ec0080e7     	jalr	-0x140(ra) <lab7_kernel_task2::initialize_runtime::h076a2cbcb5a02cbc>

0000000080005498 <.Lpcrel_hi577>:
80005498: 00004517     	auipc	a0, 0x4
8000549c: 8ad50513     	addi	a0, a0, -0x753
800054a0: 02c00593     	li	a1, 0x2c
800054a4: ffffb097     	auipc	ra, 0xffffb
800054a8: 430080e7     	jalr	0x430(ra) <core::fmt::Arguments::from_str::h6b00ffd69e0d1c1d>
800054ac: 00000097     	auipc	ra, 0x0
800054b0: 378080e7     	jalr	0x378(ra) <lab7_kernel_task2::console::print::h0d70eb8228e543e8>

00000000800054b4 <.Lpcrel_hi578>:
800054b4: 00004517     	auipc	a0, 0x4
800054b8: 8bd50513     	addi	a0, a0, -0x743
800054bc: 03900593     	li	a1, 0x39
800054c0: ffffb097     	auipc	ra, 0xffffb
800054c4: 414080e7     	jalr	0x414(ra) <core::fmt::Arguments::from_str::h6b00ffd69e0d1c1d>
800054c8: 00000097     	auipc	ra, 0x0
800054cc: 35c080e7     	jalr	0x35c(ra) <lab7_kernel_task2::console::print::h0d70eb8228e543e8>

00000000800054d0 <.Lpcrel_hi579>:
800054d0: 00004517     	auipc	a0, 0x4
800054d4: 8da50513     	addi	a0, a0, -0x726
800054d8: 09100593     	li	a1, 0x91
800054dc: ffffb097     	auipc	ra, 0xffffb
800054e0: 3f8080e7     	jalr	0x3f8(ra) <core::fmt::Arguments::from_str::h6b00ffd69e0d1c1d>
800054e4: 00000097     	auipc	ra, 0x0
800054e8: 340080e7     	jalr	0x340(ra) <lab7_kernel_task2::console::print::h0d70eb8228e543e8>
800054ec: ffffe097     	auipc	ra, 0xffffe
800054f0: 1c4080e7     	jalr	0x1c4(ra) <lab7_kernel_task2::expected_handler_va::h1bbf37d180f21fb9>
800054f4: f82a         	sd	a0, 0x30(sp)
800054f6: ffffe097     	auipc	ra, 0xffffe
800054fa: e40080e7     	jalr	-0x1c0(ra) <lab7_kernel_task2::expected_resume_va::h6685059ee49bb5ea>
800054fe: fc2a         	sd	a0, 0x38(sp)
80005500: fffff097     	auipc	ra, 0xfffff
80005504: bf4080e7     	jalr	-0x40c(ra) <lab7_kernel_task2::expected_trampoline_va::h25c62e6f1aedfcb5>
80005508: e0aa         	sd	a0, 0x40(sp)
8000550a: 1808         	addi	a0, sp, 0x30
8000550c: ec2a         	sd	a0, 0x18(sp)
8000550e: 1828         	addi	a0, sp, 0x38
80005510: f02a         	sd	a0, 0x20(sp)
80005512: 0088         	addi	a0, sp, 0x40
80005514: f42a         	sd	a0, 0x28(sp)
80005516: 65e2         	ld	a1, 0x18(sp)
80005518: 18a8         	addi	a0, sp, 0x78
8000551a: ffffb097     	auipc	ra, 0xffffb
8000551e: 608080e7     	jalr	0x608(ra) <core::fmt::rt::Argument::new_lower_hex::hc9324aa1f0e7ff53>
80005522: 7582         	ld	a1, 0x20(sp)
80005524: 0128         	addi	a0, sp, 0x88
80005526: ffffb097     	auipc	ra, 0xffffb
8000552a: 5fc080e7     	jalr	0x5fc(ra) <core::fmt::rt::Argument::new_lower_hex::hc9324aa1f0e7ff53>
8000552e: 75a2         	ld	a1, 0x28(sp)
80005530: 0928         	addi	a0, sp, 0x98
80005532: ffffb097     	auipc	ra, 0xffffb
80005536: 5f0080e7     	jalr	0x5f0(ra) <core::fmt::rt::Argument::new_lower_hex::hc9324aa1f0e7ff53>
8000553a: 650a         	ld	a0, 0x80(sp)
8000553c: e8aa         	sd	a0, 0x50(sp)
8000553e: 7566         	ld	a0, 0x78(sp)
80005540: e4aa         	sd	a0, 0x48(sp)
80005542: 654a         	ld	a0, 0x90(sp)
80005544: f0aa         	sd	a0, 0x60(sp)
80005546: 652a         	ld	a0, 0x88(sp)
80005548: ecaa         	sd	a0, 0x58(sp)
8000554a: 750a         	ld	a0, 0xa0(sp)
8000554c: f8aa         	sd	a0, 0x70(sp)
8000554e: 656a         	ld	a0, 0x98(sp)
80005550: f4aa         	sd	a0, 0x68(sp)

0000000080005552 <.Lpcrel_hi580>:
80005552: 00004517     	auipc	a0, 0x4
80005556: 8e950513     	addi	a0, a0, -0x717
8000555a: 00ac         	addi	a1, sp, 0x48
8000555c: ffffb097     	auipc	ra, 0xffffb
80005560: d82080e7     	jalr	-0x27e(ra) <core::fmt::Arguments::new::he70016628493c19b>
80005564: 00000097     	auipc	ra, 0x0
80005568: 2c0080e7     	jalr	0x2c0(ra) <lab7_kernel_task2::console::print::h0d70eb8228e543e8>

000000008000556c <.Lpcrel_hi581>:
8000556c: 00004517     	auipc	a0, 0x4
80005570: 92050513     	addi	a0, a0, -0x6e0
80005574: 45b5         	li	a1, 0xd
80005576: e42e         	sd	a1, 0x8(sp)
80005578: 4601         	li	a2, 0x0
8000557a: e832         	sd	a2, 0x10(sp)
8000557c: 004006b7     	lui	a3, 0x400
80005580: ffffc097     	auipc	ra, 0xffffc
80005584: a98080e7     	jalr	-0x568(ra) <lab7_kernel_task2::print_walk::h83c28cbe6c4b3955>
80005588: 65a2         	ld	a1, 0x8(sp)
8000558a: 6642         	ld	a2, 0x10(sp)

000000008000558c <.Lpcrel_hi582>:
8000558c: 00004517     	auipc	a0, 0x4
80005590: 90d50513     	addi	a0, a0, -0x6f3
80005594: 004016b7     	lui	a3, 0x401
80005598: ffffc097     	auipc	ra, 0xffffc
8000559c: a80080e7     	jalr	-0x580(ra) <lab7_kernel_task2::print_walk::h83c28cbe6c4b3955>
800055a0: 6642         	ld	a2, 0x10(sp)

00000000800055a2 <.Lpcrel_hi583>:
800055a2: 00004517     	auipc	a0, 0x4
800055a6: 90450513     	addi	a0, a0, -0x6fc
800055aa: 45b9         	li	a1, 0xe
800055ac: 004036b7     	lui	a3, 0x403
800055b0: ffffc097     	auipc	ra, 0xffffc
800055b4: a68080e7     	jalr	-0x598(ra) <lab7_kernel_task2::print_walk::h83c28cbe6c4b3955>
800055b8: fffff097     	auipc	ra, 0xfffff
800055bc: cc4080e7     	jalr	-0x33c(ra) <lab7_kernel_task2::supervisor_trap_stack_top::hbf8b7b47d79a101b>
800055c0: 14051073     	csrw	sscratch, a0

00000000800055c4 <.Lpcrel_hi584>:
800055c4: 00005517     	auipc	a0, 0x5
800055c8: a3c50513     	addi	a0, a0, -0x5c4
800055cc: c90d         	beqz	a0, 0x800055fe <.Lpcrel_hi587>
800055ce: a009         	j	0x800055d0 <.Lpcrel_hi585>

00000000800055d0 <.Lpcrel_hi585>:
800055d0: 00005517     	auipc	a0, 0x5
800055d4: a3050593     	addi	a1, a0, -0x5d0
800055d8: 4501         	li	a0, 0x0
800055da: e188         	sd	a0, 0x0(a1)
800055dc: ffffd097     	auipc	ra, 0xffffd
800055e0: f60080e7     	jalr	-0xa0(ra) <lab7_kernel_task2::activate_process::h2d7daf4db990d1a8>
800055e4: fffff097     	auipc	ra, 0xfffff
800055e8: c98080e7     	jalr	-0x368(ra) <lab7_kernel_task2::supervisor_trap_stack_top::hbf8b7b47d79a101b>
800055ec: 85aa         	mv	a1, a0

00000000800055ee <.Lpcrel_hi586>:
800055ee: 00005517     	auipc	a0, 0x5
800055f2: eba50513     	addi	a0, a0, -0x146
800055f6: ffffb097     	auipc	ra, 0xffffb
800055fa: 710080e7     	jalr	0x710(ra) <enter_user_task>

00000000800055fe <.Lpcrel_hi587>:
800055fe: 00004517     	auipc	a0, 0x4
80005602: 8ba50513     	addi	a0, a0, -0x746
80005606: 00001097     	auipc	ra, 0x1
8000560a: 220080e7     	jalr	0x220(ra) <core::panicking::panic_null_pointer_dereference::hbac6411af4f2e916>

000000008000560e <_$LT$core..result..Result$LT$T$C$F$GT$$u20$as$u20$core..ops..try_trait..FromResidual$LT$core..result..Result$LT$core..convert..Infallible$C$E$GT$$GT$$GT$::from_residual::h621ac1a3f7208d6b>:
8000560e: 1141         	addi	sp, sp, -0x10
80005610: 4505         	li	a0, 0x1
80005612: 0141         	addi	sp, sp, 0x10
80005614: 8082         	ret

0000000080005616 <_$LT$core..result..Result$LT$T$C$E$GT$$u20$as$u20$core..ops..try_trait..Try$GT$::branch::hf60ced49acd12e2d>:
80005616: 1141         	addi	sp, sp, -0x10
80005618: 00a10623     	sb	a0, 0xc(sp)
8000561c: 00c14503     	lbu	a0, 0xc(sp)
80005620: 8905         	andi	a0, a0, 0x1
80005622: c511         	beqz	a0, 0x8000562e <_$LT$core..result..Result$LT$T$C$E$GT$$u20$as$u20$core..ops..try_trait..Try$GT$::branch::hf60ced49acd12e2d+0x18>
80005624: a009         	j	0x80005626 <_$LT$core..result..Result$LT$T$C$E$GT$$u20$as$u20$core..ops..try_trait..Try$GT$::branch::hf60ced49acd12e2d+0x10>
80005626: 4505         	li	a0, 0x1
80005628: 00a106a3     	sb	a0, 0xd(sp)
8000562c: a029         	j	0x80005636 <_$LT$core..result..Result$LT$T$C$E$GT$$u20$as$u20$core..ops..try_trait..Try$GT$::branch::hf60ced49acd12e2d+0x20>
8000562e: 4501         	li	a0, 0x0
80005630: 00a106a3     	sb	a0, 0xd(sp)
80005634: a009         	j	0x80005636 <_$LT$core..result..Result$LT$T$C$E$GT$$u20$as$u20$core..ops..try_trait..Try$GT$::branch::hf60ced49acd12e2d+0x20>
80005636: 00d14503     	lbu	a0, 0xd(sp)
8000563a: 0141         	addi	sp, sp, 0x10
8000563c: 8082         	ret

000000008000563e <core::ub_checks::maybe_is_nonoverlapping::runtime::he55015f577cf8611>:
8000563e: 7119         	addi	sp, sp, -0x80
80005640: fc2a         	sd	a0, 0x38(sp)
80005642: e0ae         	sd	a1, 0x40(sp)
80005644: e4b2         	sd	a2, 0x48(sp)
80005646: e8b6         	sd	a3, 0x50(sp)
80005648: 872a         	mv	a4, a0
8000564a: e43a         	sd	a4, 0x8(sp)
8000564c: ecaa         	sd	a0, 0x58(sp)
8000564e: 852e         	mv	a0, a1
80005650: e82a         	sd	a0, 0x10(sp)
80005652: f0ae         	sd	a1, 0x60(sp)
80005654: 02d605b3     	mul	a1, a2, a3
80005658: ec2e         	sd	a1, 0x18(sp)
8000565a: 02d63533     	mulhu	a0, a2, a3
8000565e: 00a03633     	snez	a2, a0
80005662: 06c107a3     	sb	a2, 0x6f(sp)
80005666: f8ae         	sd	a1, 0x70(sp)
80005668: ed11         	bnez	a0, 0x80005684 <.Lpcrel_hi0>
8000566a: a009         	j	0x8000566c <core::ub_checks::maybe_is_nonoverlapping::runtime::he55015f577cf8611+0x2e>
8000566c: 6522         	ld	a0, 0x8(sp)
8000566e: 65c2         	ld	a1, 0x10(sp)
80005670: 6662         	ld	a2, 0x18(sp)
80005672: f432         	sd	a2, 0x28(sp)
80005674: 4605         	li	a2, 0x1
80005676: f032         	sd	a2, 0x20(sp)
80005678: 7622         	ld	a2, 0x28(sp)
8000567a: e032         	sd	a2, 0x0(sp)
8000567c: fcb2         	sd	a2, 0x78(sp)
8000567e: 02b56263     	bltu	a0, a1, 0x800056a2 <.Lpcrel_hi0+0x1e>
80005682: a819         	j	0x80005698 <.Lpcrel_hi0+0x14>

0000000080005684 <.Lpcrel_hi0>:
80005684: 00004517     	auipc	a0, 0x4
80005688: 84c50513     	addi	a0, a0, -0x7b4
8000568c: 03d00593     	li	a1, 0x3d
80005690: 00001097     	auipc	ra, 0x1
80005694: 10c080e7     	jalr	0x10c(ra) <core::panicking::panic_nounwind::hf19a354d0b2d9097>
80005698: 6522         	ld	a0, 0x8(sp)
8000569a: 65c2         	ld	a1, 0x10(sp)
8000569c: 8d0d         	sub	a0, a0, a1
8000569e: f82a         	sd	a0, 0x30(sp)
800056a0: a031         	j	0x800056ac <.Lpcrel_hi0+0x28>
800056a2: 6542         	ld	a0, 0x10(sp)
800056a4: 65a2         	ld	a1, 0x8(sp)
800056a6: 8d0d         	sub	a0, a0, a1
800056a8: f82a         	sd	a0, 0x30(sp)
800056aa: a009         	j	0x800056ac <.Lpcrel_hi0+0x28>
800056ac: 6582         	ld	a1, 0x0(sp)
800056ae: 7542         	ld	a0, 0x30(sp)
800056b0: 00b53533     	sltu	a0, a0, a1
800056b4: 00154513     	xori	a0, a0, 0x1
800056b8: 6109         	addi	sp, sp, 0x80
800056ba: 8082         	ret

00000000800056bc <core::slice::raw::from_raw_parts::h50b0ab4a1f26872a>:
800056bc: 7179         	addi	sp, sp, -0x30
800056be: f406         	sd	ra, 0x28(sp)
800056c0: e032         	sd	a2, 0x0(sp)
800056c2: e42e         	sd	a1, 0x8(sp)
800056c4: e82a         	sd	a0, 0x10(sp)
800056c6: ec2a         	sd	a0, 0x18(sp)
800056c8: f02e         	sd	a1, 0x20(sp)
800056ca: a009         	j	0x800056cc <core::slice::raw::from_raw_parts::h50b0ab4a1f26872a+0x10>
800056cc: 6702         	ld	a4, 0x0(sp)
800056ce: 66a2         	ld	a3, 0x8(sp)
800056d0: 6542         	ld	a0, 0x10(sp)
800056d2: 4605         	li	a2, 0x1
800056d4: 85b2         	mv	a1, a2
800056d6: ffffb097     	auipc	ra, 0xffffb
800056da: 4ba080e7     	jalr	0x4ba(ra) <core::slice::raw::from_raw_parts::precondition_check::hddebe5e0a2e27ea2>
800056de: a009         	j	0x800056e0 <core::slice::raw::from_raw_parts::h50b0ab4a1f26872a+0x24>
800056e0: 65a2         	ld	a1, 0x8(sp)
800056e2: 6542         	ld	a0, 0x10(sp)
800056e4: 70a2         	ld	ra, 0x28(sp)
800056e6: 6145         	addi	sp, sp, 0x30
800056e8: 8082         	ret

00000000800056ea <core::array::iter::iter_inner::PolymorphicIter$LT$$u5b$core..mem..maybe_uninit..MaybeUninit$LT$T$GT$$u5d$$GT$::next::h1de6a8e72825358a>:
800056ea: 7131         	addi	sp, sp, -0xc0
800056ec: fd06         	sd	ra, 0xb8(sp)
800056ee: ec2e         	sd	a1, 0x18(sp)
800056f0: 85aa         	mv	a1, a0
800056f2: 6562         	ld	a0, 0x18(sp)
800056f4: f02e         	sd	a1, 0x20(sp)
800056f6: f0ae         	sd	a1, 0x60(sp)
800056f8: f4aa         	sd	a0, 0x68(sp)
800056fa: 4505         	li	a0, 0x1
800056fc: f8aa         	sd	a0, 0x70(sp)
800056fe: 6588         	ld	a0, 0x8(a1)
80005700: 618c         	ld	a1, 0x0(a1)
80005702: 8d0d         	sub	a0, a0, a1
80005704: e51d         	bnez	a0, 0x80005732 <.Lpcrel_hi0+0x26>
80005706: a009         	j	0x80005708 <core::array::iter::iter_inner::PolymorphicIter$LT$$u5b$core..mem..maybe_uninit..MaybeUninit$LT$T$GT$$u5d$$GT$::next::h1de6a8e72825358a+0x1e>
80005708: 6562         	ld	a0, 0x18(sp)
8000570a: 7582         	ld	a1, 0x20(sp)

000000008000570c <.Lpcrel_hi0>:
8000570c: 00002617     	auipc	a2, 0x2
80005710: 0b460613     	addi	a2, a2, 0xb4
80005714: 6214         	ld	a3, 0x0(a2)
80005716: 6610         	ld	a2, 0x8(a2)
80005718: f836         	sd	a3, 0x30(sp)
8000571a: fc32         	sd	a2, 0x38(sp)
8000571c: 05c1         	addi	a1, a1, 0x10
8000571e: e0ae         	sd	a1, 0x40(sp)
80005720: e4aa         	sd	a0, 0x48(sp)
80005722: 6586         	ld	a1, 0x40(sp)
80005724: 6526         	ld	a0, 0x48(sp)
80005726: e8ae         	sd	a1, 0x50(sp)
80005728: ecaa         	sd	a0, 0x58(sp)
8000572a: 00110537     	lui	a0, 0x110
8000572e: d62a         	sw	a0, 0x2c(sp)
80005730: a031         	j	0x8000573c <.Lpcrel_hi0+0x30>
80005732: 7502         	ld	a0, 0x20(sp)
80005734: 6108         	ld	a0, 0x0(a0)
80005736: e82a         	sd	a0, 0x10(sp)
80005738: fcaa         	sd	a0, 0x78(sp)
8000573a: a029         	j	0x80005744 <.Lpcrel_hi0+0x38>
8000573c: 5532         	lw	a0, 0x2c(sp)
8000573e: 70ea         	ld	ra, 0xb8(sp)
80005740: 6129         	addi	sp, sp, 0xc0
80005742: 8082         	ret
80005744: 6542         	ld	a0, 0x10(sp)

0000000080005746 <.Lpcrel_hi1>:
80005746: 00003597     	auipc	a1, 0x3
8000574a: 7ca58613     	addi	a2, a1, 0x7ca
8000574e: 4585         	li	a1, 0x1
80005750: ffffb097     	auipc	ra, 0xffffb
80005754: bac080e7     	jalr	-0x454(ra) <core::num::_$LT$impl$u20$usize$GT$::unchecked_add::precondition_check::hafa4246352ee0489>
80005758: a009         	j	0x8000575a <.Lpcrel_hi1+0x14>
8000575a: 6562         	ld	a0, 0x18(sp)
8000575c: 7582         	ld	a1, 0x20(sp)
8000575e: 6642         	ld	a2, 0x10(sp)
80005760: 00160693     	addi	a3, a2, 0x1
80005764: e194         	sd	a3, 0x0(a1)
80005766: fc32         	sd	a2, 0x38(sp)
80005768: 4605         	li	a2, 0x1
8000576a: f832         	sd	a2, 0x30(sp)
8000576c: 05c1         	addi	a1, a1, 0x10
8000576e: e0ae         	sd	a1, 0x40(sp)
80005770: e4aa         	sd	a0, 0x48(sp)
80005772: 6586         	ld	a1, 0x40(sp)
80005774: 6526         	ld	a0, 0x48(sp)
80005776: e8ae         	sd	a1, 0x50(sp)
80005778: ecaa         	sd	a0, 0x58(sp)
8000577a: 7562         	ld	a0, 0x38(sp)
8000577c: e42a         	sd	a0, 0x8(sp)
8000577e: e12a         	sd	a0, 0x80(sp)
80005780: 6586         	ld	a1, 0x40(sp)
80005782: 6526         	ld	a0, 0x48(sp)
80005784: e52e         	sd	a1, 0x88(sp)
80005786: e92a         	sd	a0, 0x90(sp)
80005788: 6586         	ld	a1, 0x40(sp)
8000578a: 6526         	ld	a0, 0x48(sp)
8000578c: ed2e         	sd	a1, 0x98(sp)
8000578e: f12a         	sd	a0, 0xa0(sp)
80005790: a009         	j	0x80005792 <.Lpcrel_hi1+0x4c>
80005792: 6522         	ld	a0, 0x8(sp)
80005794: 65a6         	ld	a1, 0x48(sp)

0000000080005796 <.Lpcrel_hi2>:
80005796: 00003617     	auipc	a2, 0x3
8000579a: 79260613     	addi	a2, a2, 0x792
8000579e: ffffb097     	auipc	ra, 0xffffb
800057a2: dea080e7     	jalr	-0x216(ra) <_$LT$usize$u20$as$u20$core..slice..index..SliceIndex$LT$$u5b$T$u5d$$GT$$GT$::get_unchecked::precondition_check::h8cdd1586f29e5ff0>
800057a6: a009         	j	0x800057a8 <.Lpcrel_hi2+0x12>
800057a8: 65a2         	ld	a1, 0x8(sp)
800057aa: 6506         	ld	a0, 0x40(sp)
800057ac: 058a         	slli	a1, a1, 0x2
800057ae: 952e         	add	a0, a0, a1
800057b0: f52a         	sd	a0, 0xa8(sp)
800057b2: f92a         	sd	a0, 0xb0(sp)
800057b4: 4108         	lw	a0, 0x0(a0)
800057b6: d62a         	sw	a0, 0x2c(sp)
800057b8: b751         	j	0x8000573c <.Lpcrel_hi0+0x30>

00000000800057ba <core::ptr::drop_in_place$LT$core..array..iter..IntoIter$LT$char$C$7_usize$GT$$GT$::hbe1c3b1b4e20f0cc>:
800057ba: 1141         	addi	sp, sp, -0x10
800057bc: e406         	sd	ra, 0x8(sp)
800057be: e02a         	sd	a0, 0x0(sp)
800057c0: 00000097     	auipc	ra, 0x0
800057c4: 00e080e7     	jalr	0xe(ra) <_$LT$core..array..iter..IntoIter$LT$T$C$_$GT$$u20$as$u20$core..ops..drop..Drop$GT$::drop::h4deca2e02bd521aa>
800057c8: 60a2         	ld	ra, 0x8(sp)
800057ca: 0141         	addi	sp, sp, 0x10
800057cc: 8082         	ret

00000000800057ce <_$LT$core..array..iter..IntoIter$LT$T$C$_$GT$$u20$as$u20$core..ops..drop..Drop$GT$::drop::h4deca2e02bd521aa>:
800057ce: 1141         	addi	sp, sp, -0x10
800057d0: e42a         	sd	a0, 0x8(sp)
800057d2: a009         	j	0x800057d4 <_$LT$core..array..iter..IntoIter$LT$T$C$_$GT$$u20$as$u20$core..ops..drop..Drop$GT$::drop::h4deca2e02bd521aa+0x6>
800057d4: 0141         	addi	sp, sp, 0x10
800057d6: 8082         	ret

00000000800057d8 <lab7_kernel_task2::console::write_byte::h77007fd09e78efb6>:
800057d8: 1101         	addi	sp, sp, -0x20
800057da: ec06         	sd	ra, 0x18(sp)
800057dc: 85aa         	mv	a1, a0
800057de: e42e         	sd	a1, 0x8(sp)
800057e0: 00a10ba3     	sb	a0, 0x17(sp)
800057e4: 45a9         	li	a1, 0xa
800057e6: 02b50363     	beq	a0, a1, 0x8000580c <.Lpcrel_hi1>
800057ea: a009         	j	0x800057ec <lab7_kernel_task2::console::write_byte::h77007fd09e78efb6+0x14>
800057ec: 6522         	ld	a0, 0x8(sp)
800057ee: 0ff57593     	zext.b	a1, a0

00000000800057f2 <.Lpcrel_hi0>:
800057f2: 00003517     	auipc	a0, 0x3
800057f6: 76650613     	addi	a2, a0, 0x766
800057fa: 10000537     	lui	a0, 0x10000
800057fe: ffffb097     	auipc	ra, 0xffffb
80005802: efc080e7     	jalr	-0x104(ra) <core::ptr::write_volatile::h6cf030f0ca0b378e>
80005806: 60e2         	ld	ra, 0x18(sp)
80005808: 6105         	addi	sp, sp, 0x20
8000580a: 8082         	ret

000000008000580c <.Lpcrel_hi1>:
8000580c: 00003517     	auipc	a0, 0x3
80005810: 73450613     	addi	a2, a0, 0x734
80005814: 10000537     	lui	a0, 0x10000
80005818: 45b5         	li	a1, 0xd
8000581a: ffffb097     	auipc	ra, 0xffffb
8000581e: ee0080e7     	jalr	-0x120(ra) <core::ptr::write_volatile::h6cf030f0ca0b378e>
80005822: b7e9         	j	0x800057ec <lab7_kernel_task2::console::write_byte::h77007fd09e78efb6+0x14>

0000000080005824 <lab7_kernel_task2::console::print::h0d70eb8228e543e8>:
80005824: 7179         	addi	sp, sp, -0x30
80005826: f406         	sd	ra, 0x28(sp)
80005828: 862e         	mv	a2, a1
8000582a: 85aa         	mv	a1, a0
8000582c: e82e         	sd	a1, 0x10(sp)
8000582e: ec32         	sd	a2, 0x18(sp)
80005830: 00f10513     	addi	a0, sp, 0xf
80005834: ffffb097     	auipc	ra, 0xffffb
80005838: f9a080e7     	jalr	-0x66(ra) <core::fmt::Write::write_fmt::h60a9fb498845a955>
8000583c: 70a2         	ld	ra, 0x28(sp)
8000583e: 6145         	addi	sp, sp, 0x30
80005840: 8082         	ret

0000000080005842 <_$LT$lab7_kernel_task2..console..KernelConsole$u20$as$u20$core..fmt..Write$GT$::write_str::h4ef2dfd8d03719ff>:
80005842: 715d         	addi	sp, sp, -0x50
80005844: e486         	sd	ra, 0x48(sp)
80005846: e032         	sd	a2, 0x0(sp)
80005848: 862e         	mv	a2, a1
8000584a: 6582         	ld	a1, 0x0(sp)
8000584c: e432         	sd	a2, 0x8(sp)
8000584e: 862a         	mv	a2, a0
80005850: 6522         	ld	a0, 0x8(sp)
80005852: f432         	sd	a2, 0x28(sp)
80005854: f82a         	sd	a0, 0x30(sp)
80005856: fc2e         	sd	a1, 0x38(sp)
80005858: ffffb097     	auipc	ra, 0xffffb
8000585c: 1da080e7     	jalr	0x1da(ra) <core::str::_$LT$impl$u20$str$GT$::bytes::h2d9f646e03e983ab>
80005860: ffffb097     	auipc	ra, 0xffffb
80005864: 326080e7     	jalr	0x326(ra) <_$LT$I$u20$as$u20$core..iter..traits..collect..IntoIterator$GT$::into_iter::ha2655e35f65d14e2>
80005868: e82a         	sd	a0, 0x10(sp)
8000586a: ec2e         	sd	a1, 0x18(sp)
8000586c: a009         	j	0x8000586e <_$LT$lab7_kernel_task2..console..KernelConsole$u20$as$u20$core..fmt..Write$GT$::write_str::h4ef2dfd8d03719ff+0x2c>
8000586e: 0808         	addi	a0, sp, 0x10
80005870: ffffb097     	auipc	ra, 0xffffb
80005874: 0cc080e7     	jalr	0xcc(ra) <_$LT$core..str..iter..Bytes$u20$as$u20$core..iter..traits..iterator..Iterator$GT$::next::hc1d82ccbcd46e439>
80005878: 8905         	andi	a0, a0, 0x1
8000587a: 02a10323     	sb	a0, 0x26(sp)
8000587e: 02b103a3     	sb	a1, 0x27(sp)
80005882: 02614503     	lbu	a0, 0x26(sp)
80005886: 8905         	andi	a0, a0, 0x1
80005888: c919         	beqz	a0, 0x8000589e <_$LT$lab7_kernel_task2..console..KernelConsole$u20$as$u20$core..fmt..Write$GT$::write_str::h4ef2dfd8d03719ff+0x5c>
8000588a: a009         	j	0x8000588c <_$LT$lab7_kernel_task2..console..KernelConsole$u20$as$u20$core..fmt..Write$GT$::write_str::h4ef2dfd8d03719ff+0x4a>
8000588c: 02714503     	lbu	a0, 0x27(sp)
80005890: 04a103a3     	sb	a0, 0x47(sp)
80005894: 00000097     	auipc	ra, 0x0
80005898: f44080e7     	jalr	-0xbc(ra) <lab7_kernel_task2::console::write_byte::h77007fd09e78efb6>
8000589c: bfc9         	j	0x8000586e <_$LT$lab7_kernel_task2..console..KernelConsole$u20$as$u20$core..fmt..Write$GT$::write_str::h4ef2dfd8d03719ff+0x2c>
8000589e: 4501         	li	a0, 0x0
800058a0: 60a6         	ld	ra, 0x48(sp)
800058a2: 6161         	addi	sp, sp, 0x50
800058a4: 8082         	ret

00000000800058a6 <_$LT$str$u20$as$u20$core..fmt..Display$GT$::fmt::h53474d83e2b0968b>:
800058a6: 86ae         	mv	a3, a1
800058a8: 85aa         	mv	a1, a0
800058aa: 8532         	mv	a0, a2
800058ac: 8636         	mv	a2, a3
800058ae: 00001317     	auipc	t1, 0x1
800058b2: b0030067     	jr	-0x500(t1) <core::fmt::Formatter::pad::h239e525174ab4a17>

00000000800058b6 <_$LT$char$u20$as$u20$core..fmt..Display$GT$::fmt::h793d1df9ddfe9696>:
800058b6: 86ae         	mv	a3, a1
800058b8: 0135c603     	lbu	a2, 0x13(a1)
800058bc: 410c         	lw	a1, 0x0(a0)
800058be: 8a61         	andi	a2, a2, 0x18
800058c0: ce19         	beqz	a2, 0x800058de <_$LT$char$u20$as$u20$core..fmt..Display$GT$::fmt::h793d1df9ddfe9696+0x28>
800058c2: 1101         	addi	sp, sp, -0x20
800058c4: ec06         	sd	ra, 0x18(sp)
800058c6: e822         	sd	s0, 0x10(sp)
800058c8: 1000         	addi	s0, sp, 0x20
800058ca: 08000513     	li	a0, 0x80
800058ce: fe042623     	sw	zero, -0x14(s0)
800058d2: 00a5fa63     	bgeu	a1, a0, 0x800058e6 <_$LT$char$u20$as$u20$core..fmt..Display$GT$::fmt::h793d1df9ddfe9696+0x30>
800058d6: feb40623     	sb	a1, -0x14(s0)
800058da: 4605         	li	a2, 0x1
800058dc: a88d         	j	0x8000594e <_$LT$char$u20$as$u20$core..fmt..Display$GT$::fmt::h793d1df9ddfe9696+0x98>
800058de: 6690         	ld	a2, 0x8(a3)
800058e0: 6288         	ld	a0, 0x0(a3)
800058e2: 721c         	ld	a5, 0x20(a2)
800058e4: 8782         	jr	a5
800058e6: 00b5d71b     	srliw	a4, a1, 0xb
800058ea: 03f5f513     	andi	a0, a1, 0x3f
800058ee: f8050513     	addi	a0, a0, -0x80
800058f2: 0065d61b     	srliw	a2, a1, 0x6
800058f6: eb09         	bnez	a4, 0x80005908 <_$LT$char$u20$as$u20$core..fmt..Display$GT$::fmt::h793d1df9ddfe9696+0x52>
800058f8: 0c066593     	ori	a1, a2, 0xc0
800058fc: feb40623     	sb	a1, -0x14(s0)
80005900: fea406a3     	sb	a0, -0x13(s0)
80005904: 4609         	li	a2, 0x2
80005906: a0a1         	j	0x8000594e <_$LT$char$u20$as$u20$core..fmt..Display$GT$::fmt::h793d1df9ddfe9696+0x98>
80005908: 03f67613     	andi	a2, a2, 0x3f
8000590c: 0105d79b     	srliw	a5, a1, 0x10
80005910: f8060613     	addi	a2, a2, -0x80
80005914: 00c5d71b     	srliw	a4, a1, 0xc
80005918: eb99         	bnez	a5, 0x8000592e <_$LT$char$u20$as$u20$core..fmt..Display$GT$::fmt::h793d1df9ddfe9696+0x78>
8000591a: 0e076593     	ori	a1, a4, 0xe0
8000591e: feb40623     	sb	a1, -0x14(s0)
80005922: fec406a3     	sb	a2, -0x13(s0)
80005926: fea40723     	sb	a0, -0x12(s0)
8000592a: 460d         	li	a2, 0x3
8000592c: a00d         	j	0x8000594e <_$LT$char$u20$as$u20$core..fmt..Display$GT$::fmt::h793d1df9ddfe9696+0x98>
8000592e: 03f77713     	andi	a4, a4, 0x3f
80005932: 81c9         	srli	a1, a1, 0x12
80005934: f8070713     	addi	a4, a4, -0x80
80005938: ff05e593     	ori	a1, a1, -0x10
8000593c: feb40623     	sb	a1, -0x14(s0)
80005940: fee406a3     	sb	a4, -0x13(s0)
80005944: fec40723     	sb	a2, -0x12(s0)
80005948: fea407a3     	sb	a0, -0x11(s0)
8000594c: 4611         	li	a2, 0x4
8000594e: fec40593     	addi	a1, s0, -0x14
80005952: 8536         	mv	a0, a3
80005954: 00001097     	auipc	ra, 0x1
80005958: a5a080e7     	jalr	-0x5a6(ra) <core::fmt::Formatter::pad::h239e525174ab4a17>
8000595c: 60e2         	ld	ra, 0x18(sp)
8000595e: 6442         	ld	s0, 0x10(sp)
80005960: 6105         	addi	sp, sp, 0x20
80005962: 8082         	ret

0000000080005964 <_$LT$$RF$T$u20$as$u20$core..fmt..Display$GT$::fmt::h60cf88dbe6a53042>:
80005964: 6114         	ld	a3, 0x0(a0)
80005966: 6510         	ld	a2, 0x8(a0)
80005968: 852e         	mv	a0, a1
8000596a: 85b6         	mv	a1, a3
8000596c: 00001317     	auipc	t1, 0x1
80005970: a4230067     	jr	-0x5be(t1) <core::fmt::Formatter::pad::h239e525174ab4a17>

0000000080005974 <core::fmt::num::imp::_$LT$impl$u20$u32$GT$::_fmt_inner::h2c8ef1aec4279901>:
80005974: 7139         	addi	sp, sp, -0x40
80005976: fc06         	sd	ra, 0x38(sp)
80005978: f822         	sd	s0, 0x30(sp)
8000597a: f426         	sd	s1, 0x28(sp)
8000597c: f04a         	sd	s2, 0x20(sp)
8000597e: ec4e         	sd	s3, 0x18(sp)
80005980: e852         	sd	s4, 0x10(sp)
80005982: e456         	sd	s5, 0x8(sp)
80005984: 0080         	addi	s0, sp, 0x40
80005986: 3e800693     	li	a3, 0x3e8
8000598a: 882a         	mv	a6, a0
8000598c: 8732         	mv	a4, a2
8000598e: 0cd56163     	bltu	a0, a3, 0x80005a50 <.Lpcrel_hi74+0xac>
80005992: 4f01         	li	t5, 0x0
80005994: ffe58f93     	addi	t6, a1, -0x2
80005998: d1b71837     	lui	a6, 0xd1b71
8000599c: 6709         	lui	a4, 0x2
8000599e: 6785         	lui	a5, 0x1
800059a0: 06400893     	li	a7, 0x64

00000000800059a4 <.Lpcrel_hi74>:
800059a4: 00003497     	auipc	s1, 0x3
800059a8: 009896b7     	lui	a3, 0x989
800059ac: 75980e13     	addi	t3, a6, 0x759
800059b0: 71070293     	addi	t0, a4, 0x710
800059b4: 47b78313     	addi	t1, a5, 0x47b
800059b8: 5d448393     	addi	t2, s1, 0x5d4
800059bc: 1e02         	slli	t3, t3, 0x20
800059be: 67f68e93     	addi	t4, a3, 0x67f
800059c2: 882a         	mv	a6, a0
800059c4: 01e60a33     	add	s4, a2, t5
800059c8: ffca0693     	addi	a3, s4, -0x4
800059cc: 14c6fe63     	bgeu	a3, a2, 0x80005b28 <.Lpcrel_hi80>
800059d0: 8942         	mv	s2, a6
800059d2: 02081693     	slli	a3, a6, 0x20
800059d6: 03c6b6b3     	mulhu	a3, a3, t3
800059da: 02d6d813     	srli	a6, a3, 0x2d
800059de: 025806b3     	mul	a3, a6, t0
800059e2: 40d909bb     	subw	s3, s2, a3
800059e6: 03099693     	slli	a3, s3, 0x30
800059ea: 92c9         	srli	a3, a3, 0x32
800059ec: 026687b3     	mul	a5, a3, t1
800059f0: 83c5         	srli	a5, a5, 0x11
800059f2: 00179713     	slli	a4, a5, 0x1
800059f6: 971e         	add	a4, a4, t2
800059f8: 00074a83     	lbu	s5, 0x0(a4)
800059fc: 00cf84b3     	add	s1, t6, a2
80005a00: ffda0693     	addi	a3, s4, -0x3
80005a04: ff548f23     	sb	s5, -0x2(s1)
80005a08: 10c6f563     	bgeu	a3, a2, 0x80005b12 <.Lpcrel_hi81>
80005a0c: 00174703     	lbu	a4, 0x1(a4)
80005a10: ffea0693     	addi	a3, s4, -0x2
80005a14: fee48fa3     	sb	a4, -0x1(s1)
80005a18: 0ec6f263     	bgeu	a3, a2, 0x80005afc <.Lpcrel_hi82>
80005a1c: 031786b3     	mul	a3, a5, a7
80005a20: 40d986b3     	sub	a3, s3, a3
80005a24: 16c6         	slli	a3, a3, 0x31
80005a26: 92c1         	srli	a3, a3, 0x30
80005a28: 00d38733     	add	a4, t2, a3
80005a2c: 00074783     	lbu	a5, 0x0(a4)
80005a30: fffa0693     	addi	a3, s4, -0x1
80005a34: 00f48023     	sb	a5, 0x0(s1)
80005a38: 0ac6f763     	bgeu	a3, a2, 0x80005ae6 <.Lpcrel_hi83>
80005a3c: 00174683     	lbu	a3, 0x1(a4)
80005a40: 1f71         	addi	t5, t5, -0x4
80005a42: 00d480a3     	sb	a3, 0x1(s1)
80005a46: 1ff1         	addi	t6, t6, -0x4
80005a48: f72eeee3     	bltu	t4, s2, 0x800059c4 <.Lpcrel_hi74+0x20>
80005a4c: 01e60733     	add	a4, a2, t5
80005a50: 46a5         	li	a3, 0x9
80005a52: 0506fd63     	bgeu	a3, a6, 0x80005aac <.Lpcrel_hi75+0x3a>
80005a56: ffe70693     	addi	a3, a4, -0x2
80005a5a: 0ec6f263     	bgeu	a3, a2, 0x80005b3e <.Lpcrel_hi76>
80005a5e: 03081793     	slli	a5, a6, 0x30
80005a62: 6485         	lui	s1, 0x1
80005a64: 06400893     	li	a7, 0x64
80005a68: 93c9         	srli	a5, a5, 0x32
80005a6a: 47b48493     	addi	s1, s1, 0x47b
80005a6e: 029787b3     	mul	a5, a5, s1

0000000080005a72 <.Lpcrel_hi75>:
80005a72: 00003297     	auipc	t0, 0x3
80005a76: 83c5         	srli	a5, a5, 0x11
80005a78: 031784b3     	mul	s1, a5, a7
80005a7c: 409804bb     	subw	s1, a6, s1
80005a80: 14c6         	slli	s1, s1, 0x31
80005a82: 0304d813     	srli	a6, s1, 0x30
80005a86: 50628493     	addi	s1, t0, 0x506
80005a8a: 94c2         	add	s1, s1, a6
80005a8c: 0004c803     	lbu	a6, 0x0(s1)
80005a90: 00d588b3     	add	a7, a1, a3
80005a94: 177d         	addi	a4, a4, -0x1
80005a96: 01088023     	sb	a6, 0x0(a7)
80005a9a: 0ac77d63     	bgeu	a4, a2, 0x80005b54 <.Lpcrel_hi77>
80005a9e: 0014c483     	lbu	s1, 0x1(s1)
80005aa2: 972e         	add	a4, a4, a1
80005aa4: 00970023     	sb	s1, 0x0(a4)
80005aa8: e509         	bnez	a0, 0x80005ab2 <.Lpcrel_hi75+0x40>
80005aaa: a029         	j	0x80005ab4 <.Lpcrel_hi75+0x42>
80005aac: 87c2         	mv	a5, a6
80005aae: 86ba         	mv	a3, a4
80005ab0: c111         	beqz	a0, 0x80005ab4 <.Lpcrel_hi75+0x42>
80005ab2: c385         	beqz	a5, 0x80005ad2 <.Lpcrel_hi79+0x14>
80005ab4: 16fd         	addi	a3, a3, -0x1
80005ab6: 0ac6fa63     	bgeu	a3, a2, 0x80005b6a <.Lpcrel_hi78>
80005aba: 0017951b     	slliw	a0, a5, 0x1

0000000080005abe <.Lpcrel_hi79>:
80005abe: 00003617     	auipc	a2, 0x3
80005ac2: 4ba60613     	addi	a2, a2, 0x4ba
80005ac6: 9532         	add	a0, a0, a2
80005ac8: 00154503     	lbu	a0, 0x1(a0)
80005acc: 95b6         	add	a1, a1, a3
80005ace: 00a58023     	sb	a0, 0x0(a1)
80005ad2: 8536         	mv	a0, a3
80005ad4: 70e2         	ld	ra, 0x38(sp)
80005ad6: 7442         	ld	s0, 0x30(sp)
80005ad8: 74a2         	ld	s1, 0x28(sp)
80005ada: 7902         	ld	s2, 0x20(sp)
80005adc: 69e2         	ld	s3, 0x18(sp)
80005ade: 6a42         	ld	s4, 0x10(sp)
80005ae0: 6aa2         	ld	s5, 0x8(sp)
80005ae2: 6121         	addi	sp, sp, 0x40
80005ae4: 8082         	ret

0000000080005ae6 <.Lpcrel_hi83>:
80005ae6: 00003517     	auipc	a0, 0x3
80005aea: 55a50713     	addi	a4, a0, 0x55a
80005aee: 8536         	mv	a0, a3
80005af0: 85b2         	mv	a1, a2
80005af2: 863a         	mv	a2, a4
80005af4: 00001097     	auipc	ra, 0x1
80005af8: cc6080e7     	jalr	-0x33a(ra) <core::panicking::panic_bounds_check::h6aaee0d15e0261eb>

0000000080005afc <.Lpcrel_hi82>:
80005afc: 00003517     	auipc	a0, 0x3
80005b00: 54450713     	addi	a4, a0, 0x544
80005b04: 8536         	mv	a0, a3
80005b06: 85b2         	mv	a1, a2
80005b08: 863a         	mv	a2, a4
80005b0a: 00001097     	auipc	ra, 0x1
80005b0e: cb0080e7     	jalr	-0x350(ra) <core::panicking::panic_bounds_check::h6aaee0d15e0261eb>

0000000080005b12 <.Lpcrel_hi81>:
80005b12: 00003517     	auipc	a0, 0x3
80005b16: 52e50713     	addi	a4, a0, 0x52e
80005b1a: 8536         	mv	a0, a3
80005b1c: 85b2         	mv	a1, a2
80005b1e: 863a         	mv	a2, a4
80005b20: 00001097     	auipc	ra, 0x1
80005b24: c9a080e7     	jalr	-0x366(ra) <core::panicking::panic_bounds_check::h6aaee0d15e0261eb>

0000000080005b28 <.Lpcrel_hi80>:
80005b28: 00003517     	auipc	a0, 0x3
80005b2c: 51850713     	addi	a4, a0, 0x518
80005b30: 8536         	mv	a0, a3
80005b32: 85b2         	mv	a1, a2
80005b34: 863a         	mv	a2, a4
80005b36: 00001097     	auipc	ra, 0x1
80005b3a: c84080e7     	jalr	-0x37c(ra) <core::panicking::panic_bounds_check::h6aaee0d15e0261eb>

0000000080005b3e <.Lpcrel_hi76>:
80005b3e: 00003517     	auipc	a0, 0x3
80005b42: 50250713     	addi	a4, a0, 0x502
80005b46: 8536         	mv	a0, a3
80005b48: 85b2         	mv	a1, a2
80005b4a: 863a         	mv	a2, a4
80005b4c: 00001097     	auipc	ra, 0x1
80005b50: c6e080e7     	jalr	-0x392(ra) <core::panicking::panic_bounds_check::h6aaee0d15e0261eb>

0000000080005b54 <.Lpcrel_hi77>:
80005b54: 00003517     	auipc	a0, 0x3
80005b58: 4ec50693     	addi	a3, a0, 0x4ec
80005b5c: 853a         	mv	a0, a4
80005b5e: 85b2         	mv	a1, a2
80005b60: 8636         	mv	a2, a3
80005b62: 00001097     	auipc	ra, 0x1
80005b66: c58080e7     	jalr	-0x3a8(ra) <core::panicking::panic_bounds_check::h6aaee0d15e0261eb>

0000000080005b6a <.Lpcrel_hi78>:
80005b6a: 00003517     	auipc	a0, 0x3
80005b6e: 4d650713     	addi	a4, a0, 0x4d6
80005b72: 8536         	mv	a0, a3
80005b74: 85b2         	mv	a1, a2
80005b76: 863a         	mv	a2, a4
80005b78: 00001097     	auipc	ra, 0x1
80005b7c: c42080e7     	jalr	-0x3be(ra) <core::panicking::panic_bounds_check::h6aaee0d15e0261eb>

0000000080005b80 <core::fmt::num::imp::_$LT$impl$u20$u64$GT$::_fmt_inner::habf36a285bd59e0b>:
80005b80: 7139         	addi	sp, sp, -0x40
80005b82: fc06         	sd	ra, 0x38(sp)
80005b84: f822         	sd	s0, 0x30(sp)
80005b86: f426         	sd	s1, 0x28(sp)
80005b88: f04a         	sd	s2, 0x20(sp)
80005b8a: ec4e         	sd	s3, 0x18(sp)
80005b8c: e852         	sd	s4, 0x10(sp)
80005b8e: e456         	sd	s5, 0x8(sp)
80005b90: 0080         	addi	s0, sp, 0x40
80005b92: 3e800693     	li	a3, 0x3e8
80005b96: 882a         	mv	a6, a0
80005b98: 8732         	mv	a4, a2
80005b9a: 0ad56e63     	bltu	a0, a3, 0x80005c56 <.Lpcrel_hi85+0x9a>
80005b9e: 4f01         	li	t5, 0x0
80005ba0: ffe58f93     	addi	t6, a1, -0x2

0000000080005ba4 <.Lpcrel_hi84>:
80005ba4: 00003697     	auipc	a3, 0x3
80005ba8: 6709         	lui	a4, 0x2
80005baa: 6785         	lui	a5, 0x1
80005bac: 06400893     	li	a7, 0x64
80005bb0: 3cc6b283     	ld	t0, 0x3cc(a3)
80005bb4: 71070313     	addi	t1, a4, 0x710
80005bb8: 47b78393     	addi	t2, a5, 0x47b

0000000080005bbc <.Lpcrel_hi85>:
80005bbc: 00003697     	auipc	a3, 0x3
80005bc0: 3bc68e13     	addi	t3, a3, 0x3bc
80005bc4: 009896b7     	lui	a3, 0x989
80005bc8: 67f68e93     	addi	t4, a3, 0x67f
80005bcc: 882a         	mv	a6, a0
80005bce: 01e60a33     	add	s4, a2, t5
80005bd2: ffca0693     	addi	a3, s4, -0x4
80005bd6: 14c6fb63     	bgeu	a3, a2, 0x80005d2c <.Lpcrel_hi91>
80005bda: 8942         	mv	s2, a6
80005bdc: 025836b3     	mulhu	a3, a6, t0
80005be0: 00b6d813     	srli	a6, a3, 0xb
80005be4: 026806b3     	mul	a3, a6, t1
80005be8: 40d909b3     	sub	s3, s2, a3
80005bec: 03099693     	slli	a3, s3, 0x30
80005bf0: 92c9         	srli	a3, a3, 0x32
80005bf2: 027687b3     	mul	a5, a3, t2
80005bf6: 83c5         	srli	a5, a5, 0x11
80005bf8: 00179713     	slli	a4, a5, 0x1
80005bfc: 9772         	add	a4, a4, t3
80005bfe: 00074a83     	lbu	s5, 0x0(a4)
80005c02: 00cf84b3     	add	s1, t6, a2
80005c06: ffda0693     	addi	a3, s4, -0x3
80005c0a: ff548f23     	sb	s5, -0x2(s1)
80005c0e: 10c6f463     	bgeu	a3, a2, 0x80005d16 <.Lpcrel_hi92>
80005c12: 00174703     	lbu	a4, 0x1(a4)
80005c16: ffea0693     	addi	a3, s4, -0x2
80005c1a: fee48fa3     	sb	a4, -0x1(s1)
80005c1e: 0ec6f163     	bgeu	a3, a2, 0x80005d00 <.Lpcrel_hi93>
80005c22: 031786b3     	mul	a3, a5, a7
80005c26: 40d986b3     	sub	a3, s3, a3
80005c2a: 16c6         	slli	a3, a3, 0x31
80005c2c: 92c1         	srli	a3, a3, 0x30
80005c2e: 00de0733     	add	a4, t3, a3
80005c32: 00074783     	lbu	a5, 0x0(a4)
80005c36: fffa0693     	addi	a3, s4, -0x1
80005c3a: 00f48023     	sb	a5, 0x0(s1)
80005c3e: 0ac6f663     	bgeu	a3, a2, 0x80005cea <.Lpcrel_hi94>
80005c42: 00174683     	lbu	a3, 0x1(a4)
80005c46: 1f71         	addi	t5, t5, -0x4
80005c48: 00d480a3     	sb	a3, 0x1(s1)
80005c4c: 1ff1         	addi	t6, t6, -0x4
80005c4e: f92ee0e3     	bltu	t4, s2, 0x80005bce <.Lpcrel_hi85+0x12>
80005c52: 01e60733     	add	a4, a2, t5
80005c56: 46a5         	li	a3, 0x9
80005c58: 0506fd63     	bgeu	a3, a6, 0x80005cb2 <.Lpcrel_hi86+0x3a>
80005c5c: ffe70693     	addi	a3, a4, -0x2
80005c60: 0ec6f163     	bgeu	a3, a2, 0x80005d42 <.Lpcrel_hi87>
80005c64: 03081793     	slli	a5, a6, 0x30
80005c68: 6485         	lui	s1, 0x1
80005c6a: 06400893     	li	a7, 0x64
80005c6e: 93c9         	srli	a5, a5, 0x32
80005c70: 47b48493     	addi	s1, s1, 0x47b
80005c74: 029787b3     	mul	a5, a5, s1

0000000080005c78 <.Lpcrel_hi86>:
80005c78: 00003297     	auipc	t0, 0x3
80005c7c: 83c5         	srli	a5, a5, 0x11
80005c7e: 031784b3     	mul	s1, a5, a7
80005c82: 409804bb     	subw	s1, a6, s1
80005c86: 14c6         	slli	s1, s1, 0x31
80005c88: 0304d813     	srli	a6, s1, 0x30
80005c8c: 30028493     	addi	s1, t0, 0x300
80005c90: 94c2         	add	s1, s1, a6
80005c92: 0004c803     	lbu	a6, 0x0(s1)
80005c96: 00d588b3     	add	a7, a1, a3
80005c9a: 177d         	addi	a4, a4, -0x1
80005c9c: 01088023     	sb	a6, 0x0(a7)
80005ca0: 0ac77c63     	bgeu	a4, a2, 0x80005d58 <.Lpcrel_hi88>
80005ca4: 0014c483     	lbu	s1, 0x1(s1)
80005ca8: 972e         	add	a4, a4, a1
80005caa: 00970023     	sb	s1, 0x0(a4)
80005cae: e509         	bnez	a0, 0x80005cb8 <.Lpcrel_hi86+0x40>
80005cb0: a029         	j	0x80005cba <.Lpcrel_hi86+0x42>
80005cb2: 87c2         	mv	a5, a6
80005cb4: 86ba         	mv	a3, a4
80005cb6: c111         	beqz	a0, 0x80005cba <.Lpcrel_hi86+0x42>
80005cb8: cf99         	beqz	a5, 0x80005cd6 <.Lpcrel_hi90+0x14>
80005cba: 16fd         	addi	a3, a3, -0x1
80005cbc: 0ac6f963     	bgeu	a3, a2, 0x80005d6e <.Lpcrel_hi89>
80005cc0: 0786         	slli	a5, a5, 0x1

0000000080005cc2 <.Lpcrel_hi90>:
80005cc2: 00003517     	auipc	a0, 0x3
80005cc6: 2b650513     	addi	a0, a0, 0x2b6
80005cca: 953e         	add	a0, a0, a5
80005ccc: 00154503     	lbu	a0, 0x1(a0)
80005cd0: 95b6         	add	a1, a1, a3
80005cd2: 00a58023     	sb	a0, 0x0(a1)
80005cd6: 8536         	mv	a0, a3
80005cd8: 70e2         	ld	ra, 0x38(sp)
80005cda: 7442         	ld	s0, 0x30(sp)
80005cdc: 74a2         	ld	s1, 0x28(sp)
80005cde: 7902         	ld	s2, 0x20(sp)
80005ce0: 69e2         	ld	s3, 0x18(sp)
80005ce2: 6a42         	ld	s4, 0x10(sp)
80005ce4: 6aa2         	ld	s5, 0x8(sp)
80005ce6: 6121         	addi	sp, sp, 0x40
80005ce8: 8082         	ret

0000000080005cea <.Lpcrel_hi94>:
80005cea: 00003517     	auipc	a0, 0x3
80005cee: 35650713     	addi	a4, a0, 0x356
80005cf2: 8536         	mv	a0, a3
80005cf4: 85b2         	mv	a1, a2
80005cf6: 863a         	mv	a2, a4
80005cf8: 00001097     	auipc	ra, 0x1
80005cfc: ac2080e7     	jalr	-0x53e(ra) <core::panicking::panic_bounds_check::h6aaee0d15e0261eb>

0000000080005d00 <.Lpcrel_hi93>:
80005d00: 00003517     	auipc	a0, 0x3
80005d04: 34050713     	addi	a4, a0, 0x340
80005d08: 8536         	mv	a0, a3
80005d0a: 85b2         	mv	a1, a2
80005d0c: 863a         	mv	a2, a4
80005d0e: 00001097     	auipc	ra, 0x1
80005d12: aac080e7     	jalr	-0x554(ra) <core::panicking::panic_bounds_check::h6aaee0d15e0261eb>

0000000080005d16 <.Lpcrel_hi92>:
80005d16: 00003517     	auipc	a0, 0x3
80005d1a: 32a50713     	addi	a4, a0, 0x32a
80005d1e: 8536         	mv	a0, a3
80005d20: 85b2         	mv	a1, a2
80005d22: 863a         	mv	a2, a4
80005d24: 00001097     	auipc	ra, 0x1
80005d28: a96080e7     	jalr	-0x56a(ra) <core::panicking::panic_bounds_check::h6aaee0d15e0261eb>

0000000080005d2c <.Lpcrel_hi91>:
80005d2c: 00003517     	auipc	a0, 0x3
80005d30: 31450713     	addi	a4, a0, 0x314
80005d34: 8536         	mv	a0, a3
80005d36: 85b2         	mv	a1, a2
80005d38: 863a         	mv	a2, a4
80005d3a: 00001097     	auipc	ra, 0x1
80005d3e: a80080e7     	jalr	-0x580(ra) <core::panicking::panic_bounds_check::h6aaee0d15e0261eb>

0000000080005d42 <.Lpcrel_hi87>:
80005d42: 00003517     	auipc	a0, 0x3
80005d46: 2fe50713     	addi	a4, a0, 0x2fe
80005d4a: 8536         	mv	a0, a3
80005d4c: 85b2         	mv	a1, a2
80005d4e: 863a         	mv	a2, a4
80005d50: 00001097     	auipc	ra, 0x1
80005d54: a6a080e7     	jalr	-0x596(ra) <core::panicking::panic_bounds_check::h6aaee0d15e0261eb>

0000000080005d58 <.Lpcrel_hi88>:
80005d58: 00003517     	auipc	a0, 0x3
80005d5c: 2e850693     	addi	a3, a0, 0x2e8
80005d60: 853a         	mv	a0, a4
80005d62: 85b2         	mv	a1, a2
80005d64: 8636         	mv	a2, a3
80005d66: 00001097     	auipc	ra, 0x1
80005d6a: a54080e7     	jalr	-0x5ac(ra) <core::panicking::panic_bounds_check::h6aaee0d15e0261eb>

0000000080005d6e <.Lpcrel_hi89>:
80005d6e: 00003517     	auipc	a0, 0x3
80005d72: 2d250713     	addi	a4, a0, 0x2d2
80005d76: 8536         	mv	a0, a3
80005d78: 85b2         	mv	a1, a2
80005d7a: 863a         	mv	a2, a4
80005d7c: 00001097     	auipc	ra, 0x1
80005d80: a3e080e7     	jalr	-0x5c2(ra) <core::panicking::panic_bounds_check::h6aaee0d15e0261eb>

0000000080005d84 <core::fmt::num::imp::_$LT$impl$u20$core..fmt..Display$u20$for$u20$u32$GT$::fmt::hc19fd54e2a0ceeb1>:
80005d84: 7139         	addi	sp, sp, -0x40
80005d86: fc06         	sd	ra, 0x38(sp)
80005d88: f822         	sd	s0, 0x30(sp)
80005d8a: f426         	sd	s1, 0x28(sp)
80005d8c: f04a         	sd	s2, 0x20(sp)
80005d8e: ec4e         	sd	s3, 0x18(sp)
80005d90: 0080         	addi	s0, sp, 0x40
80005d92: 4108         	lw	a0, 0x0(a0)
80005d94: 84ae         	mv	s1, a1
80005d96: fce40913     	addi	s2, s0, -0x32
80005d9a: fce40593     	addi	a1, s0, -0x32
80005d9e: 4629         	li	a2, 0xa
80005da0: 49a9         	li	s3, 0xa
80005da2: 00000097     	auipc	ra, 0x0
80005da6: bd2080e7     	jalr	-0x42e(ra) <core::fmt::num::imp::_$LT$impl$u20$u32$GT$::_fmt_inner::h2c8ef1aec4279901>
80005daa: 40a987b3     	sub	a5, s3, a0
80005dae: 00a90733     	add	a4, s2, a0
80005db2: 4585         	li	a1, 0x1
80005db4: 4605         	li	a2, 0x1
80005db6: 8526         	mv	a0, s1
80005db8: 4681         	li	a3, 0x0
80005dba: 00000097     	auipc	ra, 0x0
80005dbe: 3a4080e7     	jalr	0x3a4(ra) <core::fmt::Formatter::pad_integral::h0745a9fd037e4d44>
80005dc2: 70e2         	ld	ra, 0x38(sp)
80005dc4: 7442         	ld	s0, 0x30(sp)
80005dc6: 74a2         	ld	s1, 0x28(sp)
80005dc8: 7902         	ld	s2, 0x20(sp)
80005dca: 69e2         	ld	s3, 0x18(sp)
80005dcc: 6121         	addi	sp, sp, 0x40
80005dce: 8082         	ret

0000000080005dd0 <core::fmt::num::imp::_$LT$impl$u20$core..fmt..Display$u20$for$u20$usize$GT$::fmt::h566085f0242c3154>:
80005dd0: 7139         	addi	sp, sp, -0x40
80005dd2: fc06         	sd	ra, 0x38(sp)
80005dd4: f822         	sd	s0, 0x30(sp)
80005dd6: f426         	sd	s1, 0x28(sp)
80005dd8: f04a         	sd	s2, 0x20(sp)
80005dda: ec4e         	sd	s3, 0x18(sp)
80005ddc: 0080         	addi	s0, sp, 0x40
80005dde: 6108         	ld	a0, 0x0(a0)
80005de0: 84ae         	mv	s1, a1
80005de2: fc440913     	addi	s2, s0, -0x3c
80005de6: fc440593     	addi	a1, s0, -0x3c
80005dea: 4651         	li	a2, 0x14
80005dec: 49d1         	li	s3, 0x14
80005dee: 00000097     	auipc	ra, 0x0
80005df2: d92080e7     	jalr	-0x26e(ra) <core::fmt::num::imp::_$LT$impl$u20$u64$GT$::_fmt_inner::habf36a285bd59e0b>
80005df6: 40a987b3     	sub	a5, s3, a0
80005dfa: 00a90733     	add	a4, s2, a0
80005dfe: 4585         	li	a1, 0x1
80005e00: 4605         	li	a2, 0x1
80005e02: 8526         	mv	a0, s1
80005e04: 4681         	li	a3, 0x0
80005e06: 00000097     	auipc	ra, 0x0
80005e0a: 358080e7     	jalr	0x358(ra) <core::fmt::Formatter::pad_integral::h0745a9fd037e4d44>
80005e0e: 70e2         	ld	ra, 0x38(sp)
80005e10: 7442         	ld	s0, 0x30(sp)
80005e12: 74a2         	ld	s1, 0x28(sp)
80005e14: 7902         	ld	s2, 0x20(sp)
80005e16: 69e2         	ld	s3, 0x18(sp)
80005e18: 6121         	addi	sp, sp, 0x40
80005e1a: 8082         	ret

0000000080005e1c <core::fmt::num::_$LT$impl$u20$core..fmt..LowerHex$u20$for$u20$u32$GT$::fmt::h0304e93d0c05cf2e>:
80005e1c: 1101         	addi	sp, sp, -0x20
80005e1e: ec06         	sd	ra, 0x18(sp)
80005e20: e822         	sd	s0, 0x10(sp)
80005e22: 1000         	addi	s0, sp, 0x20
80005e24: 882e         	mv	a6, a1
80005e26: 4781         	li	a5, 0x0
80005e28: 4110         	lw	a2, 0x0(a0)
80005e2a: fef40513     	addi	a0, s0, -0x11

0000000080005e2e <.Lpcrel_hi207>:
80005e2e: 00002597     	auipc	a1, 0x2
80005e32: 9a258593     	addi	a1, a1, -0x65e
80005e36: 00f67693     	andi	a3, a2, 0xf
80005e3a: 96ae         	add	a3, a3, a1
80005e3c: 0006c683     	lbu	a3, 0x0(a3)
80005e40: 0046571b     	srliw	a4, a2, 0x4
80005e44: 0785         	addi	a5, a5, 0x1
80005e46: 00d50023     	sb	a3, 0x0(a0)
80005e4a: 157d         	addi	a0, a0, -0x1
80005e4c: 863a         	mv	a2, a4
80005e4e: f765         	bnez	a4, 0x80005e36 <.Lpcrel_hi207+0x8>
80005e50: fe840513     	addi	a0, s0, -0x18
80005e54: 8d1d         	sub	a0, a0, a5
80005e56: 00850713     	addi	a4, a0, 0x8

0000000080005e5a <.Lpcrel_hi208>:
80005e5a: 00003517     	auipc	a0, 0x3
80005e5e: 4585         	li	a1, 0x1
80005e60: 1fe50613     	addi	a2, a0, 0x1fe
80005e64: 4689         	li	a3, 0x2
80005e66: 8542         	mv	a0, a6
80005e68: 00000097     	auipc	ra, 0x0
80005e6c: 2f6080e7     	jalr	0x2f6(ra) <core::fmt::Formatter::pad_integral::h0745a9fd037e4d44>
80005e70: 60e2         	ld	ra, 0x18(sp)
80005e72: 6442         	ld	s0, 0x10(sp)
80005e74: 6105         	addi	sp, sp, 0x20
80005e76: 8082         	ret

0000000080005e78 <core::fmt::num::_$LT$impl$u20$core..fmt..LowerHex$u20$for$u20$usize$GT$::fmt::hcb99b156cc230e11>:
80005e78: 1101         	addi	sp, sp, -0x20
80005e7a: ec06         	sd	ra, 0x18(sp)
80005e7c: e822         	sd	s0, 0x10(sp)
80005e7e: 1000         	addi	s0, sp, 0x20
80005e80: 882e         	mv	a6, a1
80005e82: 4781         	li	a5, 0x0
80005e84: 6108         	ld	a0, 0x0(a0)
80005e86: fef40593     	addi	a1, s0, -0x11

0000000080005e8a <.Lpcrel_hi209>:
80005e8a: 00002617     	auipc	a2, 0x2
80005e8e: 94660613     	addi	a2, a2, -0x6ba
80005e92: 00f57693     	andi	a3, a0, 0xf
80005e96: 96b2         	add	a3, a3, a2
80005e98: 0006c683     	lbu	a3, 0x0(a3)
80005e9c: 8111         	srli	a0, a0, 0x4
80005e9e: 0785         	addi	a5, a5, 0x1
80005ea0: 00d58023     	sb	a3, 0x0(a1)
80005ea4: 15fd         	addi	a1, a1, -0x1
80005ea6: f575         	bnez	a0, 0x80005e92 <.Lpcrel_hi209+0x8>
80005ea8: fe040513     	addi	a0, s0, -0x20
80005eac: 8d1d         	sub	a0, a0, a5
80005eae: 01050713     	addi	a4, a0, 0x10

0000000080005eb2 <.Lpcrel_hi210>:
80005eb2: 00003517     	auipc	a0, 0x3
80005eb6: 4585         	li	a1, 0x1
80005eb8: 1a650613     	addi	a2, a0, 0x1a6
80005ebc: 4689         	li	a3, 0x2
80005ebe: 8542         	mv	a0, a6
80005ec0: 00000097     	auipc	ra, 0x0
80005ec4: 29e080e7     	jalr	0x29e(ra) <core::fmt::Formatter::pad_integral::h0745a9fd037e4d44>
80005ec8: 60e2         	ld	ra, 0x18(sp)
80005eca: 6442         	ld	s0, 0x10(sp)
80005ecc: 6105         	addi	sp, sp, 0x20
80005ece: 8082         	ret

0000000080005ed0 <core::fmt::num::_$LT$impl$u20$core..fmt..UpperHex$u20$for$u20$u32$GT$::fmt::h07f6b7b2f3968c14>:
80005ed0: 1101         	addi	sp, sp, -0x20
80005ed2: ec06         	sd	ra, 0x18(sp)
80005ed4: e822         	sd	s0, 0x10(sp)
80005ed6: 1000         	addi	s0, sp, 0x20
80005ed8: 882e         	mv	a6, a1
80005eda: 4781         	li	a5, 0x0
80005edc: 4110         	lw	a2, 0x0(a0)
80005ede: fef40513     	addi	a0, s0, -0x11

0000000080005ee2 <.Lpcrel_hi219>:
80005ee2: 00002597     	auipc	a1, 0x2
80005ee6: 8ce58593     	addi	a1, a1, -0x732
80005eea: 00f67693     	andi	a3, a2, 0xf
80005eee: 96ae         	add	a3, a3, a1
80005ef0: 0006c683     	lbu	a3, 0x0(a3)
80005ef4: 0046571b     	srliw	a4, a2, 0x4
80005ef8: 0785         	addi	a5, a5, 0x1
80005efa: 00d50023     	sb	a3, 0x0(a0)
80005efe: 157d         	addi	a0, a0, -0x1
80005f00: 863a         	mv	a2, a4
80005f02: f765         	bnez	a4, 0x80005eea <.Lpcrel_hi219+0x8>
80005f04: fe840513     	addi	a0, s0, -0x18
80005f08: 8d1d         	sub	a0, a0, a5
80005f0a: 00850713     	addi	a4, a0, 0x8

0000000080005f0e <.Lpcrel_hi220>:
80005f0e: 00003517     	auipc	a0, 0x3
80005f12: 4585         	li	a1, 0x1
80005f14: 14a50613     	addi	a2, a0, 0x14a
80005f18: 4689         	li	a3, 0x2
80005f1a: 8542         	mv	a0, a6
80005f1c: 00000097     	auipc	ra, 0x0
80005f20: 242080e7     	jalr	0x242(ra) <core::fmt::Formatter::pad_integral::h0745a9fd037e4d44>
80005f24: 60e2         	ld	ra, 0x18(sp)
80005f26: 6442         	ld	s0, 0x10(sp)
80005f28: 6105         	addi	sp, sp, 0x20
80005f2a: 8082         	ret

0000000080005f2c <core::fmt::write::hfd17e9e8e823b619>:
80005f2c: 7119         	addi	sp, sp, -0x80
80005f2e: fc86         	sd	ra, 0x78(sp)
80005f30: f8a2         	sd	s0, 0x70(sp)
80005f32: f4a6         	sd	s1, 0x68(sp)
80005f34: f0ca         	sd	s2, 0x60(sp)
80005f36: ecce         	sd	s3, 0x58(sp)
80005f38: e8d2         	sd	s4, 0x50(sp)
80005f3a: e4d6         	sd	s5, 0x48(sp)
80005f3c: e0da         	sd	s6, 0x40(sp)
80005f3e: fc5e         	sd	s7, 0x38(sp)
80005f40: f862         	sd	s8, 0x30(sp)
80005f42: f466         	sd	s9, 0x28(sp)
80005f44: f06a         	sd	s10, 0x20(sp)
80005f46: 0100         	addi	s0, sp, 0x80
80005f48: 89b6         	mv	s3, a3
80005f4a: 892e         	mv	s2, a1
80005f4c: 0016f593     	andi	a1, a3, 0x1
80005f50: 8a2a         	mv	s4, a0
80005f52: 16059063     	bnez	a1, 0x800060b2 <core::fmt::write::hfd17e9e8e823b619+0x186>
80005f56: 00064483     	lbu	s1, 0x0(a2)
80005f5a: 18048163     	beqz	s1, 0x800060dc <core::fmt::write::hfd17e9e8e823b619+0x1b0>
80005f5e: 4c81         	li	s9, 0x0
80005f60: 01893b03     	ld	s6, 0x18(s2)
80005f64: 08000b93     	li	s7, 0x80
80005f68: 0c000c13     	li	s8, 0xc0
80005f6c: 60000537     	lui	a0, 0x60000
80005f70: 02050d13     	addi	s10, a0, 0x20
80005f74: a805         	j	0x80005fa4 <core::fmt::write::hfd17e9e8e823b619+0x78>
80005f76: 004c9513     	slli	a0, s9, 0x4
80005f7a: 00a985b3     	add	a1, s3, a0
80005f7e: 6188         	ld	a0, 0x0(a1)
80005f80: 6590         	ld	a2, 0x8(a1)
80005f82: f9443423     	sd	s4, -0x78(s0)
80005f86: f9243823     	sd	s2, -0x70(s0)
80005f8a: f9a43c23     	sd	s10, -0x68(s0)
80005f8e: f8840593     	addi	a1, s0, -0x78
80005f92: 9602         	jalr	a2
80005f94: 14051663     	bnez	a0, 0x800060e0 <core::fmt::write::hfd17e9e8e823b619+0x1b4>
80005f98: 0c85         	addi	s9, s9, 0x1
80005f9a: 000ac483     	lbu	s1, 0x0(s5)
80005f9e: 8656         	mv	a2, s5
80005fa0: 12048e63     	beqz	s1, 0x800060dc <core::fmt::write::hfd17e9e8e823b619+0x1b0>
80005fa4: 03849513     	slli	a0, s1, 0x38
80005fa8: 00160a93     	addi	s5, a2, 0x1
80005fac: 00054a63     	bltz	a0, 0x80005fc0 <core::fmt::write::hfd17e9e8e823b619+0x94>
80005fb0: 8552         	mv	a0, s4
80005fb2: 85d6         	mv	a1, s5
80005fb4: 8626         	mv	a2, s1
80005fb6: 9b02         	jalr	s6
80005fb8: 12051463     	bnez	a0, 0x800060e0 <core::fmt::write::hfd17e9e8e823b619+0x1b4>
80005fbc: 9aa6         	add	s5, s5, s1
80005fbe: bff1         	j	0x80005f9a <core::fmt::write::hfd17e9e8e823b619+0x6e>
80005fc0: 05748b63     	beq	s1, s7, 0x80006016 <core::fmt::write::hfd17e9e8e823b619+0xea>
80005fc4: fb8489e3     	beq	s1, s8, 0x80005f76 <core::fmt::write::hfd17e9e8e823b619+0x4a>
80005fc8: 0014f513     	andi	a0, s1, 0x1
80005fcc: 85ea         	mv	a1, s10
80005fce: c115         	beqz	a0, 0x80005ff2 <core::fmt::write::hfd17e9e8e823b619+0xc6>
80005fd0: 00264503     	lbu	a0, 0x2(a2)
80005fd4: 00164583     	lbu	a1, 0x1(a2)
80005fd8: 00364683     	lbu	a3, 0x3(a2)
80005fdc: 00464703     	lbu	a4, 0x4(a2)
80005fe0: 0522         	slli	a0, a0, 0x8
80005fe2: 8d4d         	or	a0, a0, a1
80005fe4: 06c2         	slli	a3, a3, 0x10
80005fe6: 0762         	slli	a4, a4, 0x18
80005fe8: 00d765b3     	or	a1, a4, a3
80005fec: 8dc9         	or	a1, a1, a0
80005fee: 00560a93     	addi	s5, a2, 0x5
80005ff2: 0024f513     	andi	a0, s1, 0x2
80005ff6: e121         	bnez	a0, 0x80006036 <core::fmt::write::hfd17e9e8e823b619+0x10a>
80005ff8: 4601         	li	a2, 0x0
80005ffa: 0044f513     	andi	a0, s1, 0x4
80005ffe: c531         	beqz	a0, 0x8000604a <core::fmt::write::hfd17e9e8e823b619+0x11e>
80006000: 001ac503     	lbu	a0, 0x1(s5)
80006004: 000ac683     	lbu	a3, 0x0(s5)
80006008: 0522         	slli	a0, a0, 0x8
8000600a: 8ec9         	or	a3, a3, a0
8000600c: 0a89         	addi	s5, s5, 0x2
8000600e: 0084f513     	andi	a0, s1, 0x8
80006012: e121         	bnez	a0, 0x80006052 <core::fmt::write::hfd17e9e8e823b619+0x126>
80006014: a0b9         	j	0x80006062 <core::fmt::write::hfd17e9e8e823b619+0x136>
80006016: 00264503     	lbu	a0, 0x2(a2)
8000601a: 00164583     	lbu	a1, 0x1(a2)
8000601e: 0522         	slli	a0, a0, 0x8
80006020: 00b56ab3     	or	s5, a0, a1
80006024: 00360493     	addi	s1, a2, 0x3
80006028: 8552         	mv	a0, s4
8000602a: 85a6         	mv	a1, s1
8000602c: 8656         	mv	a2, s5
8000602e: 9b02         	jalr	s6
80006030: e945         	bnez	a0, 0x800060e0 <core::fmt::write::hfd17e9e8e823b619+0x1b4>
80006032: 9aa6         	add	s5, s5, s1
80006034: b79d         	j	0x80005f9a <core::fmt::write::hfd17e9e8e823b619+0x6e>
80006036: 001ac503     	lbu	a0, 0x1(s5)
8000603a: 000ac603     	lbu	a2, 0x0(s5)
8000603e: 0522         	slli	a0, a0, 0x8
80006040: 8e49         	or	a2, a2, a0
80006042: 0a89         	addi	s5, s5, 0x2
80006044: 0044f513     	andi	a0, s1, 0x4
80006048: fd45         	bnez	a0, 0x80006000 <core::fmt::write::hfd17e9e8e823b619+0xd4>
8000604a: 4681         	li	a3, 0x0
8000604c: 0084f513     	andi	a0, s1, 0x8
80006050: c909         	beqz	a0, 0x80006062 <core::fmt::write::hfd17e9e8e823b619+0x136>
80006052: 001ac503     	lbu	a0, 0x1(s5)
80006056: 000ac703     	lbu	a4, 0x0(s5)
8000605a: 0522         	slli	a0, a0, 0x8
8000605c: 00e56cb3     	or	s9, a0, a4
80006060: 0a89         	addi	s5, s5, 0x2
80006062: 0104f513     	andi	a0, s1, 0x10
80006066: ed15         	bnez	a0, 0x800060a2 <core::fmt::write::hfd17e9e8e823b619+0x176>
80006068: 0204f513     	andi	a0, s1, 0x20
8000606c: c509         	beqz	a0, 0x80006076 <core::fmt::write::hfd17e9e8e823b619+0x14a>
8000606e: 0692         	slli	a3, a3, 0x4
80006070: 96ce         	add	a3, a3, s3
80006072: 0086d683     	lhu	a3, 0x8(a3)
80006076: 004c9513     	slli	a0, s9, 0x4
8000607a: 00a98733     	add	a4, s3, a0
8000607e: 6308         	ld	a0, 0x0(a4)
80006080: 6718         	ld	a4, 0x8(a4)
80006082: f9443423     	sd	s4, -0x78(s0)
80006086: f9243823     	sd	s2, -0x70(s0)
8000608a: f8b42c23     	sw	a1, -0x68(s0)
8000608e: f8c41e23     	sh	a2, -0x64(s0)
80006092: f8d41f23     	sh	a3, -0x62(s0)
80006096: f8840593     	addi	a1, s0, -0x78
8000609a: 9702         	jalr	a4
8000609c: ee050ee3     	beqz	a0, 0x80005f98 <core::fmt::write::hfd17e9e8e823b619+0x6c>
800060a0: a081         	j	0x800060e0 <core::fmt::write::hfd17e9e8e823b619+0x1b4>
800060a2: 0612         	slli	a2, a2, 0x4
800060a4: 964e         	add	a2, a2, s3
800060a6: 00865603     	lhu	a2, 0x8(a2)
800060aa: 0204f513     	andi	a0, s1, 0x20
800060ae: f161         	bnez	a0, 0x8000606e <core::fmt::write::hfd17e9e8e823b619+0x142>
800060b0: b7d9         	j	0x80006076 <core::fmt::write::hfd17e9e8e823b619+0x14a>
800060b2: 01893783     	ld	a5, 0x18(s2)
800060b6: 0019d693     	srli	a3, s3, 0x1
800060ba: 8552         	mv	a0, s4
800060bc: 85b2         	mv	a1, a2
800060be: 8636         	mv	a2, a3
800060c0: 70e6         	ld	ra, 0x78(sp)
800060c2: 7446         	ld	s0, 0x70(sp)
800060c4: 74a6         	ld	s1, 0x68(sp)
800060c6: 7906         	ld	s2, 0x60(sp)
800060c8: 69e6         	ld	s3, 0x58(sp)
800060ca: 6a46         	ld	s4, 0x50(sp)
800060cc: 6aa6         	ld	s5, 0x48(sp)
800060ce: 6b06         	ld	s6, 0x40(sp)
800060d0: 7be2         	ld	s7, 0x38(sp)
800060d2: 7c42         	ld	s8, 0x30(sp)
800060d4: 7ca2         	ld	s9, 0x28(sp)
800060d6: 7d02         	ld	s10, 0x20(sp)
800060d8: 6109         	addi	sp, sp, 0x80
800060da: 8782         	jr	a5
800060dc: 4501         	li	a0, 0x0
800060de: a011         	j	0x800060e2 <core::fmt::write::hfd17e9e8e823b619+0x1b6>
800060e0: 4505         	li	a0, 0x1
800060e2: 70e6         	ld	ra, 0x78(sp)
800060e4: 7446         	ld	s0, 0x70(sp)
800060e6: 74a6         	ld	s1, 0x68(sp)
800060e8: 7906         	ld	s2, 0x60(sp)
800060ea: 69e6         	ld	s3, 0x58(sp)
800060ec: 6a46         	ld	s4, 0x50(sp)
800060ee: 6aa6         	ld	s5, 0x48(sp)
800060f0: 6b06         	ld	s6, 0x40(sp)
800060f2: 7be2         	ld	s7, 0x38(sp)
800060f4: 7c42         	ld	s8, 0x30(sp)
800060f6: 7ca2         	ld	s9, 0x28(sp)
800060f8: 7d02         	ld	s10, 0x20(sp)
800060fa: 6109         	addi	sp, sp, 0x80
800060fc: 8082         	ret

00000000800060fe <core::fmt::Formatter::pad_integral::write_prefix::hfc34f482b9af976a>:
800060fe: 7179         	addi	sp, sp, -0x30
80006100: f406         	sd	ra, 0x28(sp)
80006102: f022         	sd	s0, 0x20(sp)
80006104: ec26         	sd	s1, 0x18(sp)
80006106: e84a         	sd	s2, 0x10(sp)
80006108: e44e         	sd	s3, 0x8(sp)
8000610a: e052         	sd	s4, 0x0(sp)
8000610c: 1800         	addi	s0, sp, 0x30
8000610e: 893a         	mv	s2, a4
80006110: 8a36         	mv	s4, a3
80006112: 89ae         	mv	s3, a1
80006114: 001105b7     	lui	a1, 0x110
80006118: 00b60c63     	beq	a2, a1, 0x80006130 <core::fmt::Formatter::pad_integral::write_prefix::hfc34f482b9af976a+0x32>
8000611c: 0209b683     	ld	a3, 0x20(s3)
80006120: 84aa         	mv	s1, a0
80006122: 85b2         	mv	a1, a2
80006124: 9682         	jalr	a3
80006126: 85aa         	mv	a1, a0
80006128: 8526         	mv	a0, s1
8000612a: c199         	beqz	a1, 0x80006130 <core::fmt::Formatter::pad_integral::write_prefix::hfc34f482b9af976a+0x32>
8000612c: 4505         	li	a0, 0x1
8000612e: a005         	j	0x8000614e <core::fmt::Formatter::pad_integral::write_prefix::hfc34f482b9af976a+0x50>
80006130: 000a0e63     	beqz	s4, 0x8000614c <core::fmt::Formatter::pad_integral::write_prefix::hfc34f482b9af976a+0x4e>
80006134: 0189b783     	ld	a5, 0x18(s3)
80006138: 85d2         	mv	a1, s4
8000613a: 864a         	mv	a2, s2
8000613c: 70a2         	ld	ra, 0x28(sp)
8000613e: 7402         	ld	s0, 0x20(sp)
80006140: 64e2         	ld	s1, 0x18(sp)
80006142: 6942         	ld	s2, 0x10(sp)
80006144: 69a2         	ld	s3, 0x8(sp)
80006146: 6a02         	ld	s4, 0x0(sp)
80006148: 6145         	addi	sp, sp, 0x30
8000614a: 8782         	jr	a5
8000614c: 4501         	li	a0, 0x0
8000614e: 70a2         	ld	ra, 0x28(sp)
80006150: 7402         	ld	s0, 0x20(sp)
80006152: 64e2         	ld	s1, 0x18(sp)
80006154: 6942         	ld	s2, 0x10(sp)
80006156: 69a2         	ld	s3, 0x8(sp)
80006158: 6a02         	ld	s4, 0x0(sp)
8000615a: 6145         	addi	sp, sp, 0x30
8000615c: 8082         	ret

000000008000615e <core::fmt::Formatter::pad_integral::h0745a9fd037e4d44>:
8000615e: 7119         	addi	sp, sp, -0x80
80006160: fc86         	sd	ra, 0x78(sp)
80006162: f8a2         	sd	s0, 0x70(sp)
80006164: f4a6         	sd	s1, 0x68(sp)
80006166: f0ca         	sd	s2, 0x60(sp)
80006168: ecce         	sd	s3, 0x58(sp)
8000616a: e8d2         	sd	s4, 0x50(sp)
8000616c: e4d6         	sd	s5, 0x48(sp)
8000616e: e0da         	sd	s6, 0x40(sp)
80006170: fc5e         	sd	s7, 0x38(sp)
80006172: f862         	sd	s8, 0x30(sp)
80006174: f466         	sd	s9, 0x28(sp)
80006176: f06a         	sd	s10, 0x20(sp)
80006178: ec6e         	sd	s11, 0x18(sp)
8000617a: 0100         	addi	s0, sp, 0x80
8000617c: 89be         	mv	s3, a5
8000617e: 8d3a         	mv	s10, a4
80006180: 8a36         	mv	s4, a3
80006182: 8ab2         	mv	s5, a2
80006184: 8baa         	mv	s7, a0
80006186: cdbd         	beqz	a1, 0x80006204 <core::fmt::Formatter::pad_integral::h0745a9fd037e4d44+0xa6>
80006188: 010bec03     	lwu	s8, 0x10(s7)
8000618c: 00200537     	lui	a0, 0x200
80006190: 00ac7533     	and	a0, s8, a0
80006194: 00110b37     	lui	s6, 0x110
80006198: c119         	beqz	a0, 0x8000619e <core::fmt::Formatter::pad_integral::h0745a9fd037e4d44+0x40>
8000619a: 02b00b13     	li	s6, 0x2b
8000619e: 8155         	srli	a0, a0, 0x15
800061a0: 00a98cb3     	add	s9, s3, a0
800061a4: 028c1513     	slli	a0, s8, 0x28
800061a8: 06055863     	bgez	a0, 0x80006218 <core::fmt::Formatter::pad_integral::h0745a9fd037e4d44+0xba>
800061ac: 02000513     	li	a0, 0x20
800061b0: 0aaa7a63     	bgeu	s4, a0, 0x80006264 <core::fmt::Formatter::pad_integral::h0745a9fd037e4d44+0x106>
800061b4: 4501         	li	a0, 0x0
800061b6: 000a0f63     	beqz	s4, 0x800061d4 <core::fmt::Formatter::pad_integral::h0745a9fd037e4d44+0x76>
800061ba: 014a85b3     	add	a1, s5, s4
800061be: 8656         	mv	a2, s5
800061c0: 00060683     	lb	a3, 0x0(a2)
800061c4: 0605         	addi	a2, a2, 0x1
800061c6: fc06a693     	slti	a3, a3, -0x40
800061ca: 0016c693     	xori	a3, a3, 0x1
800061ce: 9536         	add	a0, a0, a3
800061d0: feb618e3     	bne	a2, a1, 0x800061c0 <core::fmt::Formatter::pad_integral::h0745a9fd037e4d44+0x62>
800061d4: 9caa         	add	s9, s9, a0
800061d6: 014bd903     	lhu	s2, 0x14(s7)
800061da: 052cf463     	bgeu	s9, s2, 0x80006222 <core::fmt::Formatter::pad_integral::h0745a9fd037e4d44+0xc4>
800061de: 027c1513     	slli	a0, s8, 0x27
800061e2: f9a43823     	sd	s10, -0x70(s0)
800061e6: 08054b63     	bltz	a0, 0x8000627c <core::fmt::Formatter::pad_integral::h0745a9fd037e4d44+0x11e>
800061ea: 41990633     	sub	a2, s2, s9
800061ee: 021c1513     	slli	a0, s8, 0x21
800061f2: 9179         	srli	a0, a0, 0x3e
800061f4: 4585         	li	a1, 0x1
800061f6: 1c2e         	slli	s8, s8, 0x2b
800061f8: 0ea5c263     	blt	a1, a0, 0x800062dc <core::fmt::Formatter::pad_integral::h0745a9fd037e4d44+0x17e>
800061fc: 10051563     	bnez	a0, 0x80006306 <core::fmt::Formatter::pad_integral::h0745a9fd037e4d44+0x1a8>
80006200: 4d81         	li	s11, 0x0
80006202: a219         	j	0x80006308 <core::fmt::Formatter::pad_integral::h0745a9fd037e4d44+0x1aa>
80006204: 010bac03     	lw	s8, 0x10(s7)
80006208: 00198c93     	addi	s9, s3, 0x1
8000620c: 02d00b13     	li	s6, 0x2d
80006210: 028c1513     	slli	a0, s8, 0x28
80006214: f8054ce3     	bltz	a0, 0x800061ac <core::fmt::Formatter::pad_integral::h0745a9fd037e4d44+0x4e>
80006218: 4a81         	li	s5, 0x0
8000621a: 014bd903     	lhu	s2, 0x14(s7)
8000621e: fd2ce0e3     	bltu	s9, s2, 0x800061de <core::fmt::Formatter::pad_integral::h0745a9fd037e4d44+0x80>
80006222: 000bbc03     	ld	s8, 0x0(s7)
80006226: 008bb483     	ld	s1, 0x8(s7)
8000622a: 8562         	mv	a0, s8
8000622c: 85a6         	mv	a1, s1
8000622e: 865a         	mv	a2, s6
80006230: 86d6         	mv	a3, s5
80006232: 8752         	mv	a4, s4
80006234: 00000097     	auipc	ra, 0x0
80006238: eca080e7     	jalr	-0x136(ra) <core::fmt::Formatter::pad_integral::write_prefix::hfc34f482b9af976a>
8000623c: ed75         	bnez	a0, 0x80006338 <core::fmt::Formatter::pad_integral::h0745a9fd037e4d44+0x1da>
8000623e: 6c9c         	ld	a5, 0x18(s1)
80006240: 8562         	mv	a0, s8
80006242: 85ea         	mv	a1, s10
80006244: 864e         	mv	a2, s3
80006246: 70e6         	ld	ra, 0x78(sp)
80006248: 7446         	ld	s0, 0x70(sp)
8000624a: 74a6         	ld	s1, 0x68(sp)
8000624c: 7906         	ld	s2, 0x60(sp)
8000624e: 69e6         	ld	s3, 0x58(sp)
80006250: 6a46         	ld	s4, 0x50(sp)
80006252: 6aa6         	ld	s5, 0x48(sp)
80006254: 6b06         	ld	s6, 0x40(sp)
80006256: 7be2         	ld	s7, 0x38(sp)
80006258: 7c42         	ld	s8, 0x30(sp)
8000625a: 7ca2         	ld	s9, 0x28(sp)
8000625c: 7d02         	ld	s10, 0x20(sp)
8000625e: 6de2         	ld	s11, 0x18(sp)
80006260: 6109         	addi	sp, sp, 0x80
80006262: 8782         	jr	a5
80006264: 8556         	mv	a0, s5
80006266: 85d2         	mv	a1, s4
80006268: 00000097     	auipc	ra, 0x0
8000626c: 30c080e7     	jalr	0x30c(ra) <core::str::count::do_count_chars::h6ce55074ab2fe9d1>
80006270: 9caa         	add	s9, s9, a0
80006272: 014bd903     	lhu	s2, 0x14(s7)
80006276: fb2cf6e3     	bgeu	s9, s2, 0x80006222 <core::fmt::Formatter::pad_integral::h0745a9fd037e4d44+0xc4>
8000627a: b795         	j	0x800061de <core::fmt::Formatter::pad_integral::h0745a9fd037e4d44+0x80>
8000627c: 010bbd03     	ld	s10, 0x10(s7)
80006280: 000bbc03     	ld	s8, 0x0(s7)
80006284: 008bbd83     	ld	s11, 0x8(s7)
80006288: 9fe00537     	lui	a0, 0x9fe00
8000628c: 200005b7     	lui	a1, 0x20000
80006290: 00ad7533     	and	a0, s10, a0
80006294: 03058593     	addi	a1, a1, 0x30
80006298: 8d4d         	or	a0, a0, a1
8000629a: 00aba823     	sw	a0, 0x10(s7)
8000629e: 8562         	mv	a0, s8
800062a0: 85ee         	mv	a1, s11
800062a2: 865a         	mv	a2, s6
800062a4: 86d6         	mv	a3, s5
800062a6: 8752         	mv	a4, s4
800062a8: 00000097     	auipc	ra, 0x0
800062ac: e56080e7     	jalr	-0x1aa(ra) <core::fmt::Formatter::pad_integral::write_prefix::hfc34f482b9af976a>
800062b0: 4a05         	li	s4, 0x1
800062b2: e541         	bnez	a0, 0x8000633a <core::fmt::Formatter::pad_integral::h0745a9fd037e4d44+0x1dc>
800062b4: 4481         	li	s1, 0x0
800062b6: 41990533     	sub	a0, s2, s9
800062ba: 6941         	lui	s2, 0x10
800062bc: 197d         	addi	s2, s2, -0x1
800062be: 01257ab3     	and	s5, a0, s2
800062c2: 0124f533     	and	a0, s1, s2
800062c6: 03557463     	bgeu	a0, s5, 0x800062ee <core::fmt::Formatter::pad_integral::h0745a9fd037e4d44+0x190>
800062ca: 020db603     	ld	a2, 0x20(s11)
800062ce: 0485         	addi	s1, s1, 0x1
800062d0: 03000593     	li	a1, 0x30
800062d4: 8562         	mv	a0, s8
800062d6: 9602         	jalr	a2
800062d8: d56d         	beqz	a0, 0x800062c2 <core::fmt::Formatter::pad_integral::h0745a9fd037e4d44+0x164>
800062da: a085         	j	0x8000633a <core::fmt::Formatter::pad_integral::h0745a9fd037e4d44+0x1dc>
800062dc: 4589         	li	a1, 0x2
800062de: 8db2         	mv	s11, a2
800062e0: 02b51463     	bne	a0, a1, 0x80006308 <core::fmt::Formatter::pad_integral::h0745a9fd037e4d44+0x1aa>
800062e4: 03061513     	slli	a0, a2, 0x30
800062e8: 03155d93     	srli	s11, a0, 0x31
800062ec: a831         	j	0x80006308 <core::fmt::Formatter::pad_integral::h0745a9fd037e4d44+0x1aa>
800062ee: 018db683     	ld	a3, 0x18(s11)
800062f2: 8562         	mv	a0, s8
800062f4: f9043583     	ld	a1, -0x70(s0)
800062f8: 864e         	mv	a2, s3
800062fa: 9682         	jalr	a3
800062fc: ed1d         	bnez	a0, 0x8000633a <core::fmt::Formatter::pad_integral::h0745a9fd037e4d44+0x1dc>
800062fe: 4a01         	li	s4, 0x0
80006300: 01abb823     	sd	s10, 0x10(s7)
80006304: a81d         	j	0x8000633a <core::fmt::Formatter::pad_integral::h0745a9fd037e4d44+0x1dc>
80006306: 8db2         	mv	s11, a2
80006308: f8c43423     	sd	a2, -0x78(s0)
8000630c: 4d01         	li	s10, 0x0
8000630e: 02bc5c13     	srli	s8, s8, 0x2b
80006312: 000bbc83     	ld	s9, 0x0(s7)
80006316: 008bbb83     	ld	s7, 0x8(s7)
8000631a: 64c1         	lui	s1, 0x10
8000631c: 14fd         	addi	s1, s1, -0x1
8000631e: 009df933     	and	s2, s11, s1
80006322: 009d7533     	and	a0, s10, s1
80006326: 03257a63     	bgeu	a0, s2, 0x8000635a <core::fmt::Formatter::pad_integral::h0745a9fd037e4d44+0x1fc>
8000632a: 020bb603     	ld	a2, 0x20(s7)
8000632e: 0d05         	addi	s10, s10, 0x1
80006330: 8566         	mv	a0, s9
80006332: 85e2         	mv	a1, s8
80006334: 9602         	jalr	a2
80006336: d575         	beqz	a0, 0x80006322 <core::fmt::Formatter::pad_integral::h0745a9fd037e4d44+0x1c4>
80006338: 4a05         	li	s4, 0x1
8000633a: 8552         	mv	a0, s4
8000633c: 70e6         	ld	ra, 0x78(sp)
8000633e: 7446         	ld	s0, 0x70(sp)
80006340: 74a6         	ld	s1, 0x68(sp)
80006342: 7906         	ld	s2, 0x60(sp)
80006344: 69e6         	ld	s3, 0x58(sp)
80006346: 6a46         	ld	s4, 0x50(sp)
80006348: 6aa6         	ld	s5, 0x48(sp)
8000634a: 6b06         	ld	s6, 0x40(sp)
8000634c: 7be2         	ld	s7, 0x38(sp)
8000634e: 7c42         	ld	s8, 0x30(sp)
80006350: 7ca2         	ld	s9, 0x28(sp)
80006352: 7d02         	ld	s10, 0x20(sp)
80006354: 6de2         	ld	s11, 0x18(sp)
80006356: 6109         	addi	sp, sp, 0x80
80006358: 8082         	ret
8000635a: 8566         	mv	a0, s9
8000635c: 85de         	mv	a1, s7
8000635e: 865a         	mv	a2, s6
80006360: 86d6         	mv	a3, s5
80006362: 8752         	mv	a4, s4
80006364: 00000097     	auipc	ra, 0x0
80006368: d9a080e7     	jalr	-0x266(ra) <core::fmt::Formatter::pad_integral::write_prefix::hfc34f482b9af976a>
8000636c: 4a05         	li	s4, 0x1
8000636e: f571         	bnez	a0, 0x8000633a <core::fmt::Formatter::pad_integral::h0745a9fd037e4d44+0x1dc>
80006370: 018bb683     	ld	a3, 0x18(s7)
80006374: 8566         	mv	a0, s9
80006376: f9043583     	ld	a1, -0x70(s0)
8000637a: 864e         	mv	a2, s3
8000637c: 9682         	jalr	a3
8000637e: fd55         	bnez	a0, 0x8000633a <core::fmt::Formatter::pad_integral::h0745a9fd037e4d44+0x1dc>
80006380: 4481         	li	s1, 0x0
80006382: f8843503     	ld	a0, -0x78(s0)
80006386: 41b50533     	sub	a0, a0, s11
8000638a: 6941         	lui	s2, 0x10
8000638c: 197d         	addi	s2, s2, -0x1
8000638e: 012579b3     	and	s3, a0, s2
80006392: 0124f533     	and	a0, s1, s2
80006396: 01353a33     	sltu	s4, a0, s3
8000639a: fb3570e3     	bgeu	a0, s3, 0x8000633a <core::fmt::Formatter::pad_integral::h0745a9fd037e4d44+0x1dc>
8000639e: 020bb603     	ld	a2, 0x20(s7)
800063a2: 0485         	addi	s1, s1, 0x1
800063a4: 8566         	mv	a0, s9
800063a6: 85e2         	mv	a1, s8
800063a8: 9602         	jalr	a2
800063aa: d565         	beqz	a0, 0x80006392 <core::fmt::Formatter::pad_integral::h0745a9fd037e4d44+0x234>
800063ac: b779         	j	0x8000633a <core::fmt::Formatter::pad_integral::h0745a9fd037e4d44+0x1dc>

00000000800063ae <core::fmt::Formatter::pad::h239e525174ab4a17>:
800063ae: 711d         	addi	sp, sp, -0x60
800063b0: ec86         	sd	ra, 0x58(sp)
800063b2: e8a2         	sd	s0, 0x50(sp)
800063b4: e4a6         	sd	s1, 0x48(sp)
800063b6: e0ca         	sd	s2, 0x40(sp)
800063b8: fc4e         	sd	s3, 0x38(sp)
800063ba: f852         	sd	s4, 0x30(sp)
800063bc: f456         	sd	s5, 0x28(sp)
800063be: f05a         	sd	s6, 0x20(sp)
800063c0: ec5e         	sd	s7, 0x18(sp)
800063c2: e862         	sd	s8, 0x10(sp)
800063c4: e466         	sd	s9, 0x8(sp)
800063c6: e06a         	sd	s10, 0x0(sp)
800063c8: 1080         	addi	s0, sp, 0x60
800063ca: 89b2         	mv	s3, a2
800063cc: 01056483     	lwu	s1, 0x10(a0)
800063d0: 18000637     	lui	a2, 0x18000
800063d4: 8e65         	and	a2, a2, s1
800063d6: 892e         	mv	s2, a1
800063d8: ce45         	beqz	a2, 0x80006490 <core::fmt::Formatter::pad::h239e525174ab4a17+0xe2>
800063da: 02349593     	slli	a1, s1, 0x23
800063de: 0405c863     	bltz	a1, 0x8000642e <core::fmt::Formatter::pad::h239e525174ab4a17+0x80>
800063e2: 02000593     	li	a1, 0x20
800063e6: 0cb9f863     	bgeu	s3, a1, 0x800064b6 <core::fmt::Formatter::pad::h239e525174ab4a17+0x108>
800063ea: 4581         	li	a1, 0x0
800063ec: 00098f63     	beqz	s3, 0x8000640a <core::fmt::Formatter::pad::h239e525174ab4a17+0x5c>
800063f0: 01390633     	add	a2, s2, s3
800063f4: 86ca         	mv	a3, s2
800063f6: 00068703     	lb	a4, 0x0(a3)
800063fa: 0685         	addi	a3, a3, 0x1
800063fc: fc072713     	slti	a4, a4, -0x40
80006400: 00174713     	xori	a4, a4, 0x1
80006404: 95ba         	add	a1, a1, a4
80006406: fec698e3     	bne	a3, a2, 0x800063f6 <core::fmt::Formatter::pad::h239e525174ab4a17+0x48>
8000640a: 01455603     	lhu	a2, 0x14(a0)
8000640e: 08c5f163     	bgeu	a1, a2, 0x80006490 <core::fmt::Formatter::pad::h239e525174ab4a17+0xe2>
80006412: 4b81         	li	s7, 0x0
80006414: 40b60b33     	sub	s6, a2, a1
80006418: 02149613     	slli	a2, s1, 0x21
8000641c: 9279         	srli	a2, a2, 0x3e
8000641e: 4685         	li	a3, 0x1
80006420: 02b49593     	slli	a1, s1, 0x2b
80006424: 0ac6c763     	blt	a3, a2, 0x800064d2 <core::fmt::Formatter::pad::h239e525174ab4a17+0x124>
80006428: ce45         	beqz	a2, 0x800064e0 <core::fmt::Formatter::pad::h239e525174ab4a17+0x132>
8000642a: 8bda         	mv	s7, s6
8000642c: a855         	j	0x800064e0 <core::fmt::Formatter::pad::h239e525174ab4a17+0x132>
8000642e: 01655583     	lhu	a1, 0x16(a0)
80006432: 10058563     	beqz	a1, 0x8000653c <core::fmt::Formatter::pad::h239e525174ab4a17+0x18e>
80006436: 013906b3     	add	a3, s2, s3
8000643a: 0e000893     	li	a7, 0xe0
8000643e: 0f000813     	li	a6, 0xf0
80006442: 87ca         	mv	a5, s2
80006444: 862e         	mv	a2, a1
80006446: 4981         	li	s3, 0x0
80006448: a811         	j	0x8000645c <core::fmt::Formatter::pad::h239e525174ab4a17+0xae>
8000644a: 00178713     	addi	a4, a5, 0x1
8000644e: 413787b3     	sub	a5, a5, s3
80006452: 167d         	addi	a2, a2, -0x1
80006454: 40f709b3     	sub	s3, a4, a5
80006458: 87ba         	mv	a5, a4
8000645a: c615         	beqz	a2, 0x80006486 <core::fmt::Formatter::pad::h239e525174ab4a17+0xd8>
8000645c: 02d78563     	beq	a5, a3, 0x80006486 <core::fmt::Formatter::pad::h239e525174ab4a17+0xd8>
80006460: 00078703     	lb	a4, 0x0(a5)
80006464: fe0753e3     	bgez	a4, 0x8000644a <core::fmt::Formatter::pad::h239e525174ab4a17+0x9c>
80006468: 0ff77713     	zext.b	a4, a4
8000646c: 01176763     	bltu	a4, a7, 0x8000647a <core::fmt::Formatter::pad::h239e525174ab4a17+0xcc>
80006470: 01076863     	bltu	a4, a6, 0x80006480 <core::fmt::Formatter::pad::h239e525174ab4a17+0xd2>
80006474: 00478713     	addi	a4, a5, 0x4
80006478: bfd9         	j	0x8000644e <core::fmt::Formatter::pad::h239e525174ab4a17+0xa0>
8000647a: 00278713     	addi	a4, a5, 0x2
8000647e: bfc1         	j	0x8000644e <core::fmt::Formatter::pad::h239e525174ab4a17+0xa0>
80006480: 00378713     	addi	a4, a5, 0x3
80006484: b7e9         	j	0x8000644e <core::fmt::Formatter::pad::h239e525174ab4a17+0xa0>
80006486: 8d91         	sub	a1, a1, a2
80006488: 01455603     	lhu	a2, 0x14(a0)
8000648c: f8c5e3e3     	bltu	a1, a2, 0x80006412 <core::fmt::Formatter::pad::h239e525174ab4a17+0x64>
80006490: 650c         	ld	a1, 0x8(a0)
80006492: 6108         	ld	a0, 0x0(a0)
80006494: 6d9c         	ld	a5, 0x18(a1)
80006496: 85ca         	mv	a1, s2
80006498: 864e         	mv	a2, s3
8000649a: 60e6         	ld	ra, 0x58(sp)
8000649c: 6446         	ld	s0, 0x50(sp)
8000649e: 64a6         	ld	s1, 0x48(sp)
800064a0: 6906         	ld	s2, 0x40(sp)
800064a2: 79e2         	ld	s3, 0x38(sp)
800064a4: 7a42         	ld	s4, 0x30(sp)
800064a6: 7aa2         	ld	s5, 0x28(sp)
800064a8: 7b02         	ld	s6, 0x20(sp)
800064aa: 6be2         	ld	s7, 0x18(sp)
800064ac: 6c42         	ld	s8, 0x10(sp)
800064ae: 6ca2         	ld	s9, 0x8(sp)
800064b0: 6d02         	ld	s10, 0x0(sp)
800064b2: 6125         	addi	sp, sp, 0x60
800064b4: 8782         	jr	a5
800064b6: 8a2a         	mv	s4, a0
800064b8: 854a         	mv	a0, s2
800064ba: 85ce         	mv	a1, s3
800064bc: 00000097     	auipc	ra, 0x0
800064c0: 0b8080e7     	jalr	0xb8(ra) <core::str::count::do_count_chars::h6ce55074ab2fe9d1>
800064c4: 85aa         	mv	a1, a0
800064c6: 8552         	mv	a0, s4
800064c8: 014a5603     	lhu	a2, 0x14(s4)
800064cc: fcc5f2e3     	bgeu	a1, a2, 0x80006490 <core::fmt::Formatter::pad::h239e525174ab4a17+0xe2>
800064d0: b789         	j	0x80006412 <core::fmt::Formatter::pad::h239e525174ab4a17+0x64>
800064d2: 4689         	li	a3, 0x2
800064d4: 00d61663     	bne	a2, a3, 0x800064e0 <core::fmt::Formatter::pad::h239e525174ab4a17+0x132>
800064d8: 030b1613     	slli	a2, s6, 0x30
800064dc: 03165b93     	srli	s7, a2, 0x31
800064e0: 4481         	li	s1, 0x0
800064e2: 02b5da13     	srli	s4, a1, 0x2b
800064e6: 00053a83     	ld	s5, 0x0(a0)
800064ea: 00853c03     	ld	s8, 0x8(a0)
800064ee: 6cc1         	lui	s9, 0x10
800064f0: 1cfd         	addi	s9, s9, -0x1
800064f2: 019bfd33     	and	s10, s7, s9
800064f6: 0194f533     	and	a0, s1, s9
800064fa: 01a57a63     	bgeu	a0, s10, 0x8000650e <core::fmt::Formatter::pad::h239e525174ab4a17+0x160>
800064fe: 020c3603     	ld	a2, 0x20(s8)
80006502: 0485         	addi	s1, s1, 0x1
80006504: 8556         	mv	a0, s5
80006506: 85d2         	mv	a1, s4
80006508: 9602         	jalr	a2
8000650a: d575         	beqz	a0, 0x800064f6 <core::fmt::Formatter::pad::h239e525174ab4a17+0x148>
8000650c: a801         	j	0x8000651c <core::fmt::Formatter::pad::h239e525174ab4a17+0x16e>
8000650e: 018c3683     	ld	a3, 0x18(s8)
80006512: 8556         	mv	a0, s5
80006514: 85ca         	mv	a1, s2
80006516: 864e         	mv	a2, s3
80006518: 9682         	jalr	a3
8000651a: c905         	beqz	a0, 0x8000654a <core::fmt::Formatter::pad::h239e525174ab4a17+0x19c>
8000651c: 4905         	li	s2, 0x1
8000651e: 854a         	mv	a0, s2
80006520: 60e6         	ld	ra, 0x58(sp)
80006522: 6446         	ld	s0, 0x50(sp)
80006524: 64a6         	ld	s1, 0x48(sp)
80006526: 6906         	ld	s2, 0x40(sp)
80006528: 79e2         	ld	s3, 0x38(sp)
8000652a: 7a42         	ld	s4, 0x30(sp)
8000652c: 7aa2         	ld	s5, 0x28(sp)
8000652e: 7b02         	ld	s6, 0x20(sp)
80006530: 6be2         	ld	s7, 0x18(sp)
80006532: 6c42         	ld	s8, 0x10(sp)
80006534: 6ca2         	ld	s9, 0x8(sp)
80006536: 6d02         	ld	s10, 0x0(sp)
80006538: 6125         	addi	sp, sp, 0x60
8000653a: 8082         	ret
8000653c: 4981         	li	s3, 0x0
8000653e: 85ae         	mv	a1, a1
80006540: 01455603     	lhu	a2, 0x14(a0)
80006544: ecc5e7e3     	bltu	a1, a2, 0x80006412 <core::fmt::Formatter::pad::h239e525174ab4a17+0x64>
80006548: b7a1         	j	0x80006490 <core::fmt::Formatter::pad::h239e525174ab4a17+0xe2>
8000654a: 4481         	li	s1, 0x0
8000654c: 417b0533     	sub	a0, s6, s7
80006550: 69c1         	lui	s3, 0x10
80006552: 19fd         	addi	s3, s3, -0x1
80006554: 01357b33     	and	s6, a0, s3
80006558: 0134f533     	and	a0, s1, s3
8000655c: 01653933     	sltu	s2, a0, s6
80006560: fb657fe3     	bgeu	a0, s6, 0x8000651e <core::fmt::Formatter::pad::h239e525174ab4a17+0x170>
80006564: 020c3603     	ld	a2, 0x20(s8)
80006568: 0485         	addi	s1, s1, 0x1
8000656a: 8556         	mv	a0, s5
8000656c: 85d2         	mv	a1, s4
8000656e: 9602         	jalr	a2
80006570: d565         	beqz	a0, 0x80006558 <core::fmt::Formatter::pad::h239e525174ab4a17+0x1aa>
80006572: b775         	j	0x8000651e <core::fmt::Formatter::pad::h239e525174ab4a17+0x170>

0000000080006574 <core::str::count::do_count_chars::h6ce55074ab2fe9d1>:
80006574: 1141         	addi	sp, sp, -0x10
80006576: e422         	sd	s0, 0x8(sp)
80006578: 862a         	mv	a2, a0
8000657a: 00750693     	addi	a3, a0, 0x7
8000657e: 9ae1         	andi	a3, a3, -0x8
80006580: 40a68333     	sub	t1, a3, a0
80006584: 0265f263     	bgeu	a1, t1, 0x800065a8 <core::str::count::do_count_chars::h6ce55074ab2fe9d1+0x34>
80006588: 4501         	li	a0, 0x0
8000658a: cd81         	beqz	a1, 0x800065a2 <core::str::count::do_count_chars::h6ce55074ab2fe9d1+0x2e>
8000658c: 95b2         	add	a1, a1, a2
8000658e: 00060683     	lb	a3, 0x0(a2)
80006592: 0605         	addi	a2, a2, 0x1
80006594: fc06a693     	slti	a3, a3, -0x40
80006598: 0016c693     	xori	a3, a3, 0x1
8000659c: 9536         	add	a0, a0, a3
8000659e: feb618e3     	bne	a2, a1, 0x8000658e <core::str::count::do_count_chars::h6ce55074ab2fe9d1+0x1a>
800065a2: 6422         	ld	s0, 0x8(sp)
800065a4: 0141         	addi	sp, sp, 0x10
800065a6: 8082         	ret
800065a8: 40658733     	sub	a4, a1, t1
800065ac: 00375393     	srli	t2, a4, 0x3
800065b0: fc038ce3     	beqz	t2, 0x80006588 <core::str::count::do_count_chars::h6ce55074ab2fe9d1+0x14>
800065b4: 9332         	add	t1, t1, a2
800065b6: 00777813     	andi	a6, a4, 0x7
800065ba: 4501         	li	a0, 0x0
800065bc: 00c68c63     	beq	a3, a2, 0x800065d4 <core::str::count::do_count_chars::h6ce55074ab2fe9d1+0x60>
800065c0: 00060583     	lb	a1, 0x0(a2)
800065c4: 0605         	addi	a2, a2, 0x1
800065c6: fc05a593     	slti	a1, a1, -0x40
800065ca: 0015c593     	xori	a1, a1, 0x1
800065ce: 952e         	add	a0, a0, a1
800065d0: fe6618e3     	bne	a2, t1, 0x800065c0 <core::str::count::do_count_chars::h6ce55074ab2fe9d1+0x4c>
800065d4: 4581         	li	a1, 0x0
800065d6: 02080363     	beqz	a6, 0x800065fc <core::str::count::do_count_chars::h6ce55074ab2fe9d1+0x88>
800065da: 96c2         	add	a3, a3, a6
800065dc: 5645         	li	a2, -0xf
800065de: 8205         	srli	a2, a2, 0x1
800065e0: 8f71         	and	a4, a4, a2
800065e2: 00e30633     	add	a2, t1, a4
800065e6: 96ba         	add	a3, a3, a4
800065e8: 00060703     	lb	a4, 0x0(a2)
800065ec: 0605         	addi	a2, a2, 0x1
800065ee: fc072713     	slti	a4, a4, -0x40
800065f2: 00174713     	xori	a4, a4, 0x1
800065f6: 95ba         	add	a1, a1, a4
800065f8: fed618e3     	bne	a2, a3, 0x800065e8 <core::str::count::do_count_chars::h6ce55074ab2fe9d1+0x74>
800065fc: 01010637     	lui	a2, 0x1010
80006600: 00ff06b7     	lui	a3, 0xff0
80006604: 6741         	lui	a4, 0x10
80006606: 10160613     	addi	a2, a2, 0x101
8000660a: 0ff68893     	addi	a7, a3, 0xff
8000660e: 00170813     	addi	a6, a4, 0x1
80006612: 02061713     	slli	a4, a2, 0x20
80006616: 00e60f33     	add	t5, a2, a4
8000661a: 02089613     	slli	a2, a7, 0x20
8000661e: 98b2         	add	a7, a7, a2
80006620: 02081613     	slli	a2, a6, 0x20
80006624: 9832         	add	a6, a6, a2
80006626: 952e         	add	a0, a0, a1
80006628: a015         	j	0x8000664c <core::str::count::do_count_chars::h6ce55074ab2fe9d1+0xd8>
8000662a: 9372         	add	t1, t1, t3
8000662c: 405383b3     	sub	t2, t2, t0
80006630: 0032f793     	andi	a5, t0, 0x3
80006634: 011ff5b3     	and	a1, t6, a7
80006638: 008fd613     	srli	a2, t6, 0x8
8000663c: 01167633     	and	a2, a2, a7
80006640: 95b2         	add	a1, a1, a2
80006642: 030585b3     	mul	a1, a1, a6
80006646: 91c1         	srli	a1, a1, 0x30
80006648: 952e         	add	a0, a0, a1
8000664a: efad         	bnez	a5, 0x800066c4 <core::str::count::do_count_chars::h6ce55074ab2fe9d1+0x150>
8000664c: f4038be3     	beqz	t2, 0x800065a2 <core::str::count::do_count_chars::h6ce55074ab2fe9d1+0x2e>
80006650: 8e1a         	mv	t3, t1
80006652: 0c000593     	li	a1, 0xc0
80006656: 829e         	mv	t0, t2
80006658: 00b3e463     	bltu	t2, a1, 0x80006660 <core::str::count::do_count_chars::h6ce55074ab2fe9d1+0xec>
8000665c: 0c000293     	li	t0, 0xc0
80006660: 00329313     	slli	t1, t0, 0x3
80006664: 4f81         	li	t6, 0x0
80006666: 7e037793     	andi	a5, t1, 0x7e0
8000666a: d3e1         	beqz	a5, 0x8000662a <core::str::count::do_count_chars::h6ce55074ab2fe9d1+0xb6>
8000666c: 00fe0eb3     	add	t4, t3, a5
80006670: 85f2         	mv	a1, t3
80006672: 6194         	ld	a3, 0x0(a1)
80006674: 659c         	ld	a5, 0x8(a1)
80006676: 6998         	ld	a4, 0x10(a1)
80006678: 6d90         	ld	a2, 0x18(a1)
8000667a: fff6c413     	not	s0, a3
8000667e: 8299         	srli	a3, a3, 0x6
80006680: 801d         	srli	s0, s0, 0x7
80006682: 8ec1         	or	a3, a3, s0
80006684: fff7c413     	not	s0, a5
80006688: 8399         	srli	a5, a5, 0x6
8000668a: 801d         	srli	s0, s0, 0x7
8000668c: 8fc1         	or	a5, a5, s0
8000668e: fff74413     	not	s0, a4
80006692: 8319         	srli	a4, a4, 0x6
80006694: 801d         	srli	s0, s0, 0x7
80006696: 8f41         	or	a4, a4, s0
80006698: fff64413     	not	s0, a2
8000669c: 8219         	srli	a2, a2, 0x6
8000669e: 801d         	srli	s0, s0, 0x7
800066a0: 8e41         	or	a2, a2, s0
800066a2: 01e6f6b3     	and	a3, a3, t5
800066a6: 96fe         	add	a3, a3, t6
800066a8: 01e7f7b3     	and	a5, a5, t5
800066ac: 01e77733     	and	a4, a4, t5
800066b0: 01e67fb3     	and	t6, a2, t5
800066b4: 973e         	add	a4, a4, a5
800066b6: 96ba         	add	a3, a3, a4
800066b8: 02058593     	addi	a1, a1, 0x20
800066bc: 9fb6         	add	t6, t6, a3
800066be: fbd59ae3     	bne	a1, t4, 0x80006672 <core::str::count::do_count_chars::h6ce55074ab2fe9d1+0xfe>
800066c2: b7a5         	j	0x8000662a <core::str::count::do_count_chars::h6ce55074ab2fe9d1+0xb6>
800066c4: 4581         	li	a1, 0x0
800066c6: 0fc2f613     	andi	a2, t0, 0xfc
800066ca: 060e         	slli	a2, a2, 0x3
800066cc: 00ce06b3     	add	a3, t3, a2
800066d0: 00379613     	slli	a2, a5, 0x3
800066d4: 6298         	ld	a4, 0x0(a3)
800066d6: 06a1         	addi	a3, a3, 0x8
800066d8: fff74793     	not	a5, a4
800066dc: 8319         	srli	a4, a4, 0x6
800066de: 839d         	srli	a5, a5, 0x7
800066e0: 8f5d         	or	a4, a4, a5
800066e2: 01e77733     	and	a4, a4, t5
800066e6: 1661         	addi	a2, a2, -0x8
800066e8: 95ba         	add	a1, a1, a4
800066ea: f66d         	bnez	a2, 0x800066d4 <core::str::count::do_count_chars::h6ce55074ab2fe9d1+0x160>
800066ec: 0115f633     	and	a2, a1, a7
800066f0: 81a1         	srli	a1, a1, 0x8
800066f2: 0115f5b3     	and	a1, a1, a7
800066f6: 95b2         	add	a1, a1, a2
800066f8: 030585b3     	mul	a1, a1, a6
800066fc: 91c1         	srli	a1, a1, 0x30
800066fe: 952e         	add	a0, a0, a1
80006700: 6422         	ld	s0, 0x8(sp)
80006702: 0141         	addi	sp, sp, 0x10
80006704: 8082         	ret

0000000080006706 <core::panicking::panic_const::panic_const_div_by_zero::hcfde4c26e8ecfc4b>:
80006706: 1141         	addi	sp, sp, -0x10
80006708: e406         	sd	ra, 0x8(sp)
8000670a: e022         	sd	s0, 0x0(sp)
8000670c: 0800         	addi	s0, sp, 0x10
8000670e: 862a         	mv	a2, a0

0000000080006710 <.Lpcrel_hi967>:
80006710: 00003517     	auipc	a0, 0x3
80006714: 9cb50513     	addi	a0, a0, -0x635
80006718: 03300593     	li	a1, 0x33
8000671c: 00000097     	auipc	ra, 0x0
80006720: 16a080e7     	jalr	0x16a(ra) <core::panicking::panic_fmt::h767dc8ac4dd44648>

0000000080006724 <core::panicking::panic_const::panic_const_add_overflow::h67cba067093910f8>:
80006724: 1141         	addi	sp, sp, -0x10
80006726: e406         	sd	ra, 0x8(sp)
80006728: e022         	sd	s0, 0x0(sp)
8000672a: 0800         	addi	s0, sp, 0x10
8000672c: 862a         	mv	a2, a0

000000008000672e <.Lpcrel_hi970>:
8000672e: 00003517     	auipc	a0, 0x3
80006732: 92c50513     	addi	a0, a0, -0x6d4
80006736: 03900593     	li	a1, 0x39
8000673a: 00000097     	auipc	ra, 0x0
8000673e: 14c080e7     	jalr	0x14c(ra) <core::panicking::panic_fmt::h767dc8ac4dd44648>

0000000080006742 <core::panicking::panic_const::panic_const_mul_overflow::h67897feae7531d51>:
80006742: 1141         	addi	sp, sp, -0x10
80006744: e406         	sd	ra, 0x8(sp)
80006746: e022         	sd	s0, 0x0(sp)
80006748: 0800         	addi	s0, sp, 0x10
8000674a: 862a         	mv	a2, a0

000000008000674c <.Lpcrel_hi972>:
8000674c: 00003517     	auipc	a0, 0x3
80006750: 92a50513     	addi	a0, a0, -0x6d6
80006754: 04300593     	li	a1, 0x43
80006758: 00000097     	auipc	ra, 0x0
8000675c: 12e080e7     	jalr	0x12e(ra) <core::panicking::panic_fmt::h767dc8ac4dd44648>

0000000080006760 <core::panicking::panic_const::panic_const_shl_overflow::h801c58e583f44244>:
80006760: 1141         	addi	sp, sp, -0x10
80006762: e406         	sd	ra, 0x8(sp)
80006764: e022         	sd	s0, 0x0(sp)
80006766: 0800         	addi	s0, sp, 0x10
80006768: 862a         	mv	a2, a0

000000008000676a <.Lpcrel_hi975>:
8000676a: 00003517     	auipc	a0, 0x3
8000676e: 92d50513     	addi	a0, a0, -0x6d3
80006772: 04700593     	li	a1, 0x47
80006776: 00000097     	auipc	ra, 0x0
8000677a: 110080e7     	jalr	0x110(ra) <core::panicking::panic_fmt::h767dc8ac4dd44648>

000000008000677e <core::panicking::panic_const::panic_const_sub_overflow::hccc965ba9198de7c>:
8000677e: 1141         	addi	sp, sp, -0x10
80006780: e406         	sd	ra, 0x8(sp)
80006782: e022         	sd	s0, 0x0(sp)
80006784: 0800         	addi	s0, sp, 0x10
80006786: 862a         	mv	a2, a0

0000000080006788 <.Lpcrel_hi977>:
80006788: 00003517     	auipc	a0, 0x3
8000678c: 93250513     	addi	a0, a0, -0x6ce
80006790: 04300593     	li	a1, 0x43
80006794: 00000097     	auipc	ra, 0x0
80006798: 0f2080e7     	jalr	0xf2(ra) <core::panicking::panic_fmt::h767dc8ac4dd44648>

000000008000679c <core::panicking::panic_nounwind::hf19a354d0b2d9097>:
8000679c: 1141         	addi	sp, sp, -0x10
8000679e: e406         	sd	ra, 0x8(sp)
800067a0: e022         	sd	s0, 0x0(sp)
800067a2: 0800         	addi	s0, sp, 0x10
800067a4: 0586         	slli	a1, a1, 0x1
800067a6: 0585         	addi	a1, a1, 0x1

00000000800067a8 <.Lpcrel_hi992>:
800067a8: 00003617     	auipc	a2, 0x3
800067ac: 95060693     	addi	a3, a2, -0x6b0
800067b0: 4601         	li	a2, 0x0
800067b2: 00000097     	auipc	ra, 0x0
800067b6: 044080e7     	jalr	0x44(ra) <core::panicking::panic_nounwind_fmt::h2e018e50a8d3bc73>

00000000800067ba <core::panicking::panic_bounds_check::h6aaee0d15e0261eb>:
800067ba: 7139         	addi	sp, sp, -0x40
800067bc: fc06         	sd	ra, 0x38(sp)
800067be: f822         	sd	s0, 0x30(sp)
800067c0: 0080         	addi	s0, sp, 0x40
800067c2: f0040713     	addi	a4, s0, -0x100
800067c6: e368         	sd	a0, 0xc0(a4)
800067c8: e76c         	sd	a1, 0xc8(a4)
800067ca: fc840513     	addi	a0, s0, -0x38

00000000800067ce <.Lpcrel_hi997>:
800067ce: fffff597     	auipc	a1, 0xfffff
800067d2: fc040693     	addi	a3, s0, -0x40
800067d6: 60258593     	addi	a1, a1, 0x602
800067da: eb68         	sd	a0, 0xd0(a4)
800067dc: ef6c         	sd	a1, 0xd8(a4)
800067de: f374         	sd	a3, 0xe0(a4)
800067e0: f76c         	sd	a1, 0xe8(a4)

00000000800067e2 <.Lpcrel_hi998>:
800067e2: 00001517     	auipc	a0, 0x1
800067e6: a7250513     	addi	a0, a0, -0x58e
800067ea: fd040593     	addi	a1, s0, -0x30
800067ee: 00000097     	auipc	ra, 0x0
800067f2: 098080e7     	jalr	0x98(ra) <core::panicking::panic_fmt::h767dc8ac4dd44648>

00000000800067f6 <core::panicking::panic_nounwind_fmt::h2e018e50a8d3bc73>:
800067f6: 7139         	addi	sp, sp, -0x40
800067f8: fc06         	sd	ra, 0x38(sp)
800067fa: f822         	sd	s0, 0x30(sp)
800067fc: 0080         	addi	s0, sp, 0x40
800067fe: fca43423     	sd	a0, -0x38(s0)
80006802: fcb43823     	sd	a1, -0x30(s0)
80006806: fc840513     	addi	a0, s0, -0x38
8000680a: fca43c23     	sd	a0, -0x28(s0)
8000680e: fed43023     	sd	a3, -0x20(s0)
80006812: fe040423     	sb	zero, -0x18(s0)
80006816: fec404a3     	sb	a2, -0x17(s0)
8000681a: fd840513     	addi	a0, s0, -0x28
8000681e: ffffa097     	auipc	ra, 0xffffa
80006822: 776080e7     	jalr	0x776(ra) <__user_program_end>

0000000080006826 <core::panicking::panic_null_pointer_dereference::hbac6411af4f2e916>:
80006826: 1141         	addi	sp, sp, -0x10
80006828: e406         	sd	ra, 0x8(sp)
8000682a: e022         	sd	s0, 0x0(sp)
8000682c: 0800         	addi	s0, sp, 0x10
8000682e: 86aa         	mv	a3, a0

0000000080006830 <.Lpcrel_hi1010>:
80006830: 00003517     	auipc	a0, 0x3
80006834: 8e050513     	addi	a0, a0, -0x720
80006838: 04300593     	li	a1, 0x43
8000683c: 4601         	li	a2, 0x0
8000683e: 00000097     	auipc	ra, 0x0
80006842: fb8080e7     	jalr	-0x48(ra) <core::panicking::panic_nounwind_fmt::h2e018e50a8d3bc73>

0000000080006846 <core::panicking::panic_misaligned_pointer_dereference::hda85f7fb51d959f0>:
80006846: 7139         	addi	sp, sp, -0x40
80006848: fc06         	sd	ra, 0x38(sp)
8000684a: f822         	sd	s0, 0x30(sp)
8000684c: 0080         	addi	s0, sp, 0x40
8000684e: 86b2         	mv	a3, a2
80006850: f0040713     	addi	a4, s0, -0x100
80006854: e368         	sd	a0, 0xc0(a4)
80006856: e76c         	sd	a1, 0xc8(a4)
80006858: fc040513     	addi	a0, s0, -0x40

000000008000685c <.Lpcrel_hi1013>:
8000685c: fffff597     	auipc	a1, 0xfffff
80006860: fc840613     	addi	a2, s0, -0x38
80006864: 61c58593     	addi	a1, a1, 0x61c
80006868: eb68         	sd	a0, 0xd0(a4)
8000686a: ef6c         	sd	a1, 0xd8(a4)
8000686c: f370         	sd	a2, 0xe0(a4)
8000686e: f76c         	sd	a1, 0xe8(a4)

0000000080006870 <.Lpcrel_hi1014>:
80006870: 00003517     	auipc	a0, 0x3
80006874: 8c150513     	addi	a0, a0, -0x73f
80006878: fd040593     	addi	a1, s0, -0x30
8000687c: 4601         	li	a2, 0x0
8000687e: 00000097     	auipc	ra, 0x0
80006882: f78080e7     	jalr	-0x88(ra) <core::panicking::panic_nounwind_fmt::h2e018e50a8d3bc73>

0000000080006886 <core::panicking::panic_fmt::h767dc8ac4dd44648>:
80006886: 7139         	addi	sp, sp, -0x40
80006888: fc06         	sd	ra, 0x38(sp)
8000688a: f822         	sd	s0, 0x30(sp)
8000688c: 0080         	addi	s0, sp, 0x40
8000688e: fca43423     	sd	a0, -0x38(s0)
80006892: fcb43823     	sd	a1, -0x30(s0)
80006896: fc840513     	addi	a0, s0, -0x38
8000689a: 4585         	li	a1, 0x1
8000689c: fca43c23     	sd	a0, -0x28(s0)
800068a0: fec43023     	sd	a2, -0x20(s0)
800068a4: feb41423     	sh	a1, -0x18(s0)
800068a8: fd840513     	addi	a0, s0, -0x28
800068ac: ffffa097     	auipc	ra, 0xffffa
800068b0: 6e8080e7     	jalr	0x6e8(ra) <__user_program_end>

00000000800068b4 <_$LT$core..panic..panic_info..PanicInfo$u20$as$u20$core..fmt..Display$GT$::fmt::hcccb3fed5b673506>:
800068b4: 7119         	addi	sp, sp, -0x80
800068b6: fc86         	sd	ra, 0x78(sp)
800068b8: f8a2         	sd	s0, 0x70(sp)
800068ba: f4a6         	sd	s1, 0x68(sp)
800068bc: f0ca         	sd	s2, 0x60(sp)
800068be: ecce         	sd	s3, 0x58(sp)
800068c0: e8d2         	sd	s4, 0x50(sp)
800068c2: e4d6         	sd	s5, 0x48(sp)
800068c4: 0100         	addi	s0, sp, 0x80
800068c6: 0085b903     	ld	s2, 0x8(a1)
800068ca: 6184         	ld	s1, 0x0(a1)
800068cc: 01893a83     	ld	s5, 0x18(s2)
800068d0: 89aa         	mv	s3, a0

00000000800068d2 <.Lpcrel_hi1258>:
800068d2: 00003517     	auipc	a0, 0x3
800068d6: 8b250593     	addi	a1, a0, -0x74e
800068da: 4631         	li	a2, 0xc
800068dc: 8526         	mv	a0, s1
800068de: 9a82         	jalr	s5
800068e0: 4a05         	li	s4, 0x1
800068e2: e151         	bnez	a0, 0x80006966 <.Lpcrel_hi1262+0x26>
800068e4: 0089b503     	ld	a0, 0x8(s3)
800068e8: f8840813     	addi	a6, s0, -0x78

00000000800068ec <.Lpcrel_hi1259>:
800068ec: fffff617     	auipc	a2, 0xfffff

00000000800068f0 <.Lpcrel_hi1260>:
800068f0: fffff697     	auipc	a3, 0xfffff
800068f4: 07860613     	addi	a2, a2, 0x78
800068f8: 49468693     	addi	a3, a3, 0x494
800068fc: 6118         	ld	a4, 0x0(a0)
800068fe: 651c         	ld	a5, 0x8(a0)
80006900: 01050593     	addi	a1, a0, 0x10
80006904: 0551         	addi	a0, a0, 0x14
80006906: f9043c23     	sd	a6, -0x68(s0)
8000690a: fac43023     	sd	a2, -0x60(s0)
8000690e: fab43423     	sd	a1, -0x58(s0)
80006912: fad43823     	sd	a3, -0x50(s0)
80006916: f8e43423     	sd	a4, -0x78(s0)
8000691a: f8f43823     	sd	a5, -0x70(s0)
8000691e: faa43c23     	sd	a0, -0x48(s0)
80006922: fcd43023     	sd	a3, -0x40(s0)

0000000080006926 <.Lpcrel_hi1261>:
80006926: 00001517     	auipc	a0, 0x1
8000692a: bd350613     	addi	a2, a0, -0x42d
8000692e: f9840693     	addi	a3, s0, -0x68
80006932: 8526         	mv	a0, s1
80006934: 85ca         	mv	a1, s2
80006936: fffff097     	auipc	ra, 0xfffff
8000693a: 5f6080e7     	jalr	0x5f6(ra) <core::fmt::write::hfd17e9e8e823b619>
8000693e: e505         	bnez	a0, 0x80006966 <.Lpcrel_hi1262+0x26>

0000000080006940 <.Lpcrel_hi1262>:
80006940: 00003517     	auipc	a0, 0x3
80006944: 85050593     	addi	a1, a0, -0x7b0
80006948: 4609         	li	a2, 0x2
8000694a: 8526         	mv	a0, s1
8000694c: 9a82         	jalr	s5
8000694e: ed01         	bnez	a0, 0x80006966 <.Lpcrel_hi1262+0x26>
80006950: 0009b503     	ld	a0, 0x0(s3)
80006954: 6110         	ld	a2, 0x0(a0)
80006956: 6514         	ld	a3, 0x8(a0)
80006958: 8526         	mv	a0, s1
8000695a: 85ca         	mv	a1, s2
8000695c: fffff097     	auipc	ra, 0xfffff
80006960: 5d0080e7     	jalr	0x5d0(ra) <core::fmt::write::hfd17e9e8e823b619>
80006964: 8a2a         	mv	s4, a0
80006966: 8552         	mv	a0, s4
80006968: 70e6         	ld	ra, 0x78(sp)
8000696a: 7446         	ld	s0, 0x70(sp)
8000696c: 74a6         	ld	s1, 0x68(sp)
8000696e: 7906         	ld	s2, 0x60(sp)
80006970: 69e6         	ld	s3, 0x58(sp)
80006972: 6a46         	ld	s4, 0x50(sp)
80006974: 6aa6         	ld	s5, 0x48(sp)
80006976: 6109         	addi	sp, sp, 0x80
80006978: 8082         	ret

000000008000697a <memset>:
8000697a: 46c1         	li	a3, 0x10
8000697c: 06d66463     	bltu	a2, a3, 0x800069e4 <memset+0x6a>
80006980: 40a006bb     	negw	a3, a0
80006984: 0076f813     	andi	a6, a3, 0x7
80006988: 01050733     	add	a4, a0, a6
8000698c: 00e57963     	bgeu	a0, a4, 0x8000699e <memset+0x24>
80006990: 87c2         	mv	a5, a6
80006992: 86aa         	mv	a3, a0
80006994: 00b68023     	sb	a1, 0x0(a3)
80006998: 17fd         	addi	a5, a5, -0x1
8000699a: 0685         	addi	a3, a3, 0x1
8000699c: ffe5         	bnez	a5, 0x80006994 <memset+0x1a>
8000699e: 41060633     	sub	a2, a2, a6
800069a2: ff867693     	andi	a3, a2, -0x8
800069a6: 96ba         	add	a3, a3, a4
800069a8: 02d77363     	bgeu	a4, a3, 0x800069ce <memset+0x54>
800069ac: 03859813     	slli	a6, a1, 0x38
800069b0: 101017b7     	lui	a5, 0x10101
800069b4: 0792         	slli	a5, a5, 0x4
800069b6: 10078793     	addi	a5, a5, 0x100
800069ba: 02f83833     	mulhu	a6, a6, a5
800069be: 02081793     	slli	a5, a6, 0x20
800069c2: 0107e7b3     	or	a5, a5, a6
800069c6: e31c         	sd	a5, 0x0(a4)
800069c8: 0721         	addi	a4, a4, 0x8
800069ca: fed76ee3     	bltu	a4, a3, 0x800069c6 <memset+0x4c>
800069ce: 8a1d         	andi	a2, a2, 0x7
800069d0: 00c68733     	add	a4, a3, a2
800069d4: 00e6f763     	bgeu	a3, a4, 0x800069e2 <memset+0x68>
800069d8: 00b68023     	sb	a1, 0x0(a3)
800069dc: 167d         	addi	a2, a2, -0x1
800069de: 0685         	addi	a3, a3, 0x1
800069e0: fe65         	bnez	a2, 0x800069d8 <memset+0x5e>
800069e2: 8082         	ret
800069e4: 86aa         	mv	a3, a0
800069e6: 00c50733     	add	a4, a0, a2
800069ea: fee567e3     	bltu	a0, a4, 0x800069d8 <memset+0x5e>
800069ee: bfd5         	j	0x800069e2 <memset+0x68>

00000000800069f0 <memcpy>:
800069f0: 00000317     	auipc	t1, 0x0
800069f4: 00830067     	jr	0x8(t1) <compiler_builtins::mem::memcpy::hee8635bcefabc13a>

00000000800069f8 <compiler_builtins::mem::memcpy::hee8635bcefabc13a>:
800069f8: 1101         	addi	sp, sp, -0x20
800069fa: ec22         	sd	s0, 0x18(sp)
800069fc: e826         	sd	s1, 0x10(sp)
800069fe: 46c1         	li	a3, 0x10
80006a00: 06d66363     	bltu	a2, a3, 0x80006a66 <compiler_builtins::mem::memcpy::hee8635bcefabc13a+0x6e>
80006a04: 40a006bb     	negw	a3, a0
80006a08: 0076f813     	andi	a6, a3, 0x7
80006a0c: 01050fb3     	add	t6, a0, a6
80006a10: 01f57d63     	bgeu	a0, t6, 0x80006a2a <compiler_builtins::mem::memcpy::hee8635bcefabc13a+0x32>
80006a14: 8742         	mv	a4, a6
80006a16: 86aa         	mv	a3, a0
80006a18: 87ae         	mv	a5, a1
80006a1a: 0007c883     	lbu	a7, 0x0(a5)
80006a1e: 177d         	addi	a4, a4, -0x1
80006a20: 01168023     	sb	a7, 0x0(a3)
80006a24: 0685         	addi	a3, a3, 0x1
80006a26: 0785         	addi	a5, a5, 0x1
80006a28: fb6d         	bnez	a4, 0x80006a1a <compiler_builtins::mem::memcpy::hee8635bcefabc13a+0x22>
80006a2a: 010584b3     	add	s1, a1, a6
80006a2e: 41060633     	sub	a2, a2, a6
80006a32: ff867713     	andi	a4, a2, -0x8
80006a36: 0074f813     	andi	a6, s1, 0x7
80006a3a: 00ef86b3     	add	a3, t6, a4
80006a3e: 04081563     	bnez	a6, 0x80006a88 <compiler_builtins::mem::memcpy::hee8635bcefabc13a+0x90>
80006a42: 00dffa63     	bgeu	t6, a3, 0x80006a56 <compiler_builtins::mem::memcpy::hee8635bcefabc13a+0x5e>
80006a46: 87a6         	mv	a5, s1
80006a48: 638c         	ld	a1, 0x0(a5)
80006a4a: 00bfb023     	sd	a1, 0x0(t6)
80006a4e: 0fa1         	addi	t6, t6, 0x8
80006a50: 07a1         	addi	a5, a5, 0x8
80006a52: fedfebe3     	bltu	t6, a3, 0x80006a48 <compiler_builtins::mem::memcpy::hee8635bcefabc13a+0x50>
80006a56: 00e485b3     	add	a1, s1, a4
80006a5a: 8a1d         	andi	a2, a2, 0x7
80006a5c: 00c68733     	add	a4, a3, a2
80006a60: 00e6e863     	bltu	a3, a4, 0x80006a70 <compiler_builtins::mem::memcpy::hee8635bcefabc13a+0x78>
80006a64: a831         	j	0x80006a80 <compiler_builtins::mem::memcpy::hee8635bcefabc13a+0x88>
80006a66: 86aa         	mv	a3, a0
80006a68: 00c50733     	add	a4, a0, a2
80006a6c: 00e57a63     	bgeu	a0, a4, 0x80006a80 <compiler_builtins::mem::memcpy::hee8635bcefabc13a+0x88>
80006a70: 0005c703     	lbu	a4, 0x0(a1)
80006a74: 167d         	addi	a2, a2, -0x1
80006a76: 00e68023     	sb	a4, 0x0(a3)
80006a7a: 0685         	addi	a3, a3, 0x1
80006a7c: 0585         	addi	a1, a1, 0x1
80006a7e: fa6d         	bnez	a2, 0x80006a70 <compiler_builtins::mem::memcpy::hee8635bcefabc13a+0x78>
80006a80: 6462         	ld	s0, 0x18(sp)
80006a82: 64c2         	ld	s1, 0x10(sp)
80006a84: 6105         	addi	sp, sp, 0x20
80006a86: 8082         	ret
80006a88: 4881         	li	a7, 0x0
80006a8a: 47a1         	li	a5, 0x8
80006a8c: e402         	sd	zero, 0x8(sp)
80006a8e: 41078333     	sub	t1, a5, a6
80006a92: 00810293     	addi	t0, sp, 0x8
80006a96: 00137793     	andi	a5, t1, 0x1
80006a9a: 0102e2b3     	or	t0, t0, a6
80006a9e: ebb1         	bnez	a5, 0x80006af2 <compiler_builtins::mem::memcpy::hee8635bcefabc13a+0xfa>
80006aa0: 00237793     	andi	a5, t1, 0x2
80006aa4: efb9         	bnez	a5, 0x80006b02 <compiler_builtins::mem::memcpy::hee8635bcefabc13a+0x10a>
80006aa6: 00437793     	andi	a5, t1, 0x4
80006aaa: eba5         	bnez	a5, 0x80006b1a <compiler_builtins::mem::memcpy::hee8635bcefabc13a+0x122>
80006aac: 63a2         	ld	t2, 0x8(sp)
80006aae: 00381893     	slli	a7, a6, 0x3
80006ab2: 008f8793     	addi	a5, t6, 0x8
80006ab6: 41048f33     	sub	t5, s1, a6
80006aba: 06d7ff63     	bgeu	a5, a3, 0x80006b38 <compiler_builtins::mem::memcpy::hee8635bcefabc13a+0x140>
80006abe: 411007bb     	negw	a5, a7
80006ac2: 0387fe13     	andi	t3, a5, 0x38
80006ac6: 008f3303     	ld	t1, 0x8(t5)
80006aca: 008f0e93     	addi	t4, t5, 0x8
80006ace: 0113d3b3     	srl	t2, t2, a7
80006ad2: 008f8293     	addi	t0, t6, 0x8
80006ad6: 01c317b3     	sll	a5, t1, t3
80006ada: 0077e7b3     	or	a5, a5, t2
80006ade: 010f8413     	addi	s0, t6, 0x10
80006ae2: 00ffb023     	sd	a5, 0x0(t6)
80006ae6: 8f96         	mv	t6, t0
80006ae8: 839a         	mv	t2, t1
80006aea: 8f76         	mv	t5, t4
80006aec: fcd46de3     	bltu	s0, a3, 0x80006ac6 <compiler_builtins::mem::memcpy::hee8635bcefabc13a+0xce>
80006af0: a0b9         	j	0x80006b3e <compiler_builtins::mem::memcpy::hee8635bcefabc13a+0x146>
80006af2: 0004c783     	lbu	a5, 0x0(s1)
80006af6: 00f28023     	sb	a5, 0x0(t0)
80006afa: 4885         	li	a7, 0x1
80006afc: 00237793     	andi	a5, t1, 0x2
80006b00: d3dd         	beqz	a5, 0x80006aa6 <compiler_builtins::mem::memcpy::hee8635bcefabc13a+0xae>
80006b02: 011487b3     	add	a5, s1, a7
80006b06: 00079383     	lh	t2, 0x0(a5)
80006b0a: 011287b3     	add	a5, t0, a7
80006b0e: 00779023     	sh	t2, 0x0(a5)
80006b12: 2889         	addiw	a7, a7, 0x2
80006b14: 00437793     	andi	a5, t1, 0x4
80006b18: dbd1         	beqz	a5, 0x80006aac <compiler_builtins::mem::memcpy::hee8635bcefabc13a+0xb4>
80006b1a: 011487b3     	add	a5, s1, a7
80006b1e: 439c         	lw	a5, 0x0(a5)
80006b20: 9896         	add	a7, a7, t0
80006b22: 00f8a023     	sw	a5, 0x0(a7)
80006b26: 63a2         	ld	t2, 0x8(sp)
80006b28: 00381893     	slli	a7, a6, 0x3
80006b2c: 008f8793     	addi	a5, t6, 0x8
80006b30: 41048f33     	sub	t5, s1, a6
80006b34: f8d7e5e3     	bltu	a5, a3, 0x80006abe <compiler_builtins::mem::memcpy::hee8635bcefabc13a+0xc6>
80006b38: 8efa         	mv	t4, t5
80006b3a: 82fe         	mv	t0, t6
80006b3c: 831e         	mv	t1, t2
80006b3e: 4781         	li	a5, 0x0
80006b40: 008e8393     	addi	t2, t4, 0x8
80006b44: 4411         	li	s0, 0x4
80006b46: e402         	sd	zero, 0x8(sp)
80006b48: 04887363     	bgeu	a6, s0, 0x80006b8e <compiler_builtins::mem::memcpy::hee8635bcefabc13a+0x196>
80006b4c: 0024f593     	andi	a1, s1, 0x2
80006b50: e5b1         	bnez	a1, 0x80006b9c <compiler_builtins::mem::memcpy::hee8635bcefabc13a+0x1a4>
80006b52: 0014f593     	andi	a1, s1, 0x1
80006b56: c981         	beqz	a1, 0x80006b66 <compiler_builtins::mem::memcpy::hee8635bcefabc13a+0x16e>
80006b58: 93be         	add	t2, t2, a5
80006b5a: 0003c583     	lbu	a1, 0x0(t2)
80006b5e: 0020         	addi	s0, sp, 0x8
80006b60: 8fc1         	or	a5, a5, s0
80006b62: 00b78023     	sb	a1, 0x0(a5)
80006b66: 65a2         	ld	a1, 0x8(sp)
80006b68: 011357b3     	srl	a5, t1, a7
80006b6c: 4110043b     	negw	s0, a7
80006b70: 03847413     	andi	s0, s0, 0x38
80006b74: 008595b3     	sll	a1, a1, s0
80006b78: 8ddd         	or	a1, a1, a5
80006b7a: 00b2b023     	sd	a1, 0x0(t0)
80006b7e: 00e485b3     	add	a1, s1, a4
80006b82: 8a1d         	andi	a2, a2, 0x7
80006b84: 00c68733     	add	a4, a3, a2
80006b88: eee6e4e3     	bltu	a3, a4, 0x80006a70 <compiler_builtins::mem::memcpy::hee8635bcefabc13a+0x78>
80006b8c: bdd5         	j	0x80006a80 <compiler_builtins::mem::memcpy::hee8635bcefabc13a+0x88>
80006b8e: 0003a783     	lw	a5, 0x0(t2)
80006b92: c43e         	sw	a5, 0x8(sp)
80006b94: 4791         	li	a5, 0x4
80006b96: 0024f593     	andi	a1, s1, 0x2
80006b9a: ddc5         	beqz	a1, 0x80006b52 <compiler_builtins::mem::memcpy::hee8635bcefabc13a+0x15a>
80006b9c: 00f385b3     	add	a1, t2, a5
80006ba0: 00059583     	lh	a1, 0x0(a1)
80006ba4: 0020         	addi	s0, sp, 0x8
80006ba6: 8c5d         	or	s0, s0, a5
80006ba8: 00b41023     	sh	a1, 0x0(s0)
80006bac: 2789         	addiw	a5, a5, 0x2
80006bae: 0014f593     	andi	a1, s1, 0x1
80006bb2: f1dd         	bnez	a1, 0x80006b58 <compiler_builtins::mem::memcpy::hee8635bcefabc13a+0x160>
80006bb4: bf4d         	j	0x80006b66 <compiler_builtins::mem::memcpy::hee8635bcefabc13a+0x16e>

0000000080006bb6 <.Lanon.48ad071f7f14870e5986912928c44cdd.0>:
80006bb6: 75 6e 73 61 66 65 20 70         unsafe p
80006bbe: 72 65 63 6f 6e 64 69 74         recondit
80006bc6: 69 6f 6e 28 73 29 20 76         ion(s) v
80006bce: 69 6f 6c 61 74 65 64 3a         iolated:
80006bd6: 20 70 74 72 3a 3a 77 72          ptr::wr
80006bde: 69 74 65 5f 62 79 74 65         ite_byte
80006be6: 73 20 72 65 71 75 69 72         s requir
80006bee: 65 73 20 74 68 61 74 20         es that 
80006bf6: 74 68 65 20 64 65 73 74         the dest
80006bfe: 69 6e 61 74 69 6f 6e 20         ination 
80006c06: 70 6f 69 6e 74 65 72 20         pointer 
80006c0e: 69 73 20 61 6c 69 67 6e         is align
80006c16: 65 64 20 61 6e 64 20 6e         ed and n
80006c1e: 6f 6e 2d 6e 75 6c 6c 0a         on-null.
80006c26: 0a 54 68 69 73 20 69 6e         .This in
80006c2e: 64 69 63 61 74 65 73 20         dicates 
80006c36: 61 20 62 75 67 20 69 6e         a bug in
80006c3e: 20 74 68 65 20 70 72 6f          the pro
80006c46: 67 72 61 6d 2e 20 54 68         gram. Th
80006c4e: 69 73 20 55 6e 64 65 66         is Undef
80006c56: 69 6e 65 64 20 42 65 68         ined Beh
80006c5e: 61 76 69 6f 72 20 63 68         avior ch
80006c66: 65 63 6b 20 69 73 20 6f         eck is o
80006c6e: 70 74 69 6f 6e 61 6c 2c         ptional,
80006c76: 20 61 6e 64 20 63 61 6e          and can
80006c7e: 6e 6f 74 20 62 65 20 72         not be r
80006c86: 65 6c 69 65 64 20 6f 6e         elied on
80006c8e: 20 66 6f 72 20 73 61 66          for saf
80006c96: 65 74 79 2e                     ety.

0000000080006c9a <.Lanon.48ad071f7f14870e5986912928c44cdd.1>:
80006c9a: 75 6e 73 61 66 65 20 70         unsafe p
80006ca2: 72 65 63 6f 6e 64 69 74         recondit
80006caa: 69 6f 6e 28 73 29 20 76         ion(s) v
80006cb2: 69 6f 6c 61 74 65 64 3a         iolated:
80006cba: 20 70 74 72 3a 3a 72 65          ptr::re
80006cc2: 61 64 5f 76 6f 6c 61 74         ad_volat
80006cca: 69 6c 65 20 72 65 71 75         ile requ
80006cd2: 69 72 65 73 20 74 68 61         ires tha
80006cda: 74 20 74 68 65 20 70 6f         t the po
80006ce2: 69 6e 74 65 72 20 61 72         inter ar
80006cea: 67 75 6d 65 6e 74 20 69         gument i
80006cf2: 73 20 61 6c 69 67 6e 65         s aligne
80006cfa: 64 0a 0a 54 68 69 73 20         d..This 
80006d02: 69 6e 64 69 63 61 74 65         indicate
80006d0a: 73 20 61 20 62 75 67 20         s a bug 
80006d12: 69 6e 20 74 68 65 20 70         in the p
80006d1a: 72 6f 67 72 61 6d 2e 20         rogram. 
80006d22: 54 68 69 73 20 55 6e 64         This Und
80006d2a: 65 66 69 6e 65 64 20 42         efined B
80006d32: 65 68 61 76 69 6f 72 20         ehavior 
80006d3a: 63 68 65 63 6b 20 69 73         check is
80006d42: 20 6f 70 74 69 6f 6e 61          optiona
80006d4a: 6c 2c 20 61 6e 64 20 63         l, and c
80006d52: 61 6e 6e 6f 74 20 62 65         annot be
80006d5a: 20 72 65 6c 69 65 64 20          relied 
80006d62: 6f 6e 20 66 6f 72 20 73         on for s
80006d6a: 61 66 65 74 79 2e               afety.

0000000080006d70 <.Lanon.48ad071f7f14870e5986912928c44cdd.2>:
80006d70: 75 6e 73 61 66 65 20 70         unsafe p
80006d78: 72 65 63 6f 6e 64 69 74         recondit
80006d80: 69 6f 6e 28 73 29 20 76         ion(s) v
80006d88: 69 6f 6c 61 74 65 64 3a         iolated:
80006d90: 20 70 74 72 3a 3a 77 72          ptr::wr
80006d98: 69 74 65 5f 76 6f 6c 61         ite_vola
80006da0: 74 69 6c 65 20 72 65 71         tile req
80006da8: 75 69 72 65 73 20 74 68         uires th
80006db0: 61 74 20 74 68 65 20 70         at the p
80006db8: 6f 69 6e 74 65 72 20 61         ointer a
80006dc0: 72 67 75 6d 65 6e 74 20         rgument 
80006dc8: 69 73 20 61 6c 69 67 6e         is align
80006dd0: 65 64 0a 0a 54 68 69 73         ed..This
80006dd8: 20 69 6e 64 69 63 61 74          indicat
80006de0: 65 73 20 61 20 62 75 67         es a bug
80006de8: 20 69 6e 20 74 68 65 20          in the 
80006df0: 70 72 6f 67 72 61 6d 2e         program.
80006df8: 20 54 68 69 73 20 55 6e          This Un
80006e00: 64 65 66 69 6e 65 64 20         defined 
80006e08: 42 65 68 61 76 69 6f 72         Behavior
80006e10: 20 63 68 65 63 6b 20 69          check i
80006e18: 73 20 6f 70 74 69 6f 6e         s option
80006e20: 61 6c 2c 20 61 6e 64 20         al, and 
80006e28: 63 61 6e 6e 6f 74 20 62         cannot b
80006e30: 65 20 72 65 6c 69 65 64         e relied
80006e38: 20 6f 6e 20 66 6f 72 20          on for 
80006e40: 73 61 66 65 74 79 2e            safety.

0000000080006e47 <.Lanon.48ad071f7f14870e5986912928c44cdd.3>:
80006e47: 75 6e 73 61 66 65 20 70         unsafe p
80006e4f: 72 65 63 6f 6e 64 69 74         recondit
80006e57: 69 6f 6e 28 73 29 20 76         ion(s) v
80006e5f: 69 6f 6c 61 74 65 64 3a         iolated:
80006e67: 20 70 74 72 3a 3a 63 6f          ptr::co
80006e6f: 70 79 5f 6e 6f 6e 6f 76         py_nonov
80006e77: 65 72 6c 61 70 70 69 6e         erlappin
80006e7f: 67 20 72 65 71 75 69 72         g requir
80006e87: 65 73 20 74 68 61 74 20         es that 
80006e8f: 62 6f 74 68 20 70 6f 69         both poi
80006e97: 6e 74 65 72 20 61 72 67         nter arg
80006e9f: 75 6d 65 6e 74 73 20 61         uments a
80006ea7: 72 65 20 61 6c 69 67 6e         re align
80006eaf: 65 64 20 61 6e 64 20 6e         ed and n
80006eb7: 6f 6e 2d 6e 75 6c 6c 20         on-null 
80006ebf: 61 6e 64 20 74 68 65 20         and the 
80006ec7: 73 70 65 63 69 66 69 65         specifie
80006ecf: 64 20 6d 65 6d 6f 72 79         d memory
80006ed7: 20 72 61 6e 67 65 73 20          ranges 
80006edf: 64 6f 20 6e 6f 74 20 6f         do not o
80006ee7: 76 65 72 6c 61 70 0a 0a         verlap..
80006eef: 54 68 69 73 20 69 6e 64         This ind
80006ef7: 69 63 61 74 65 73 20 61         icates a
80006eff: 20 62 75 67 20 69 6e 20          bug in 
80006f07: 74 68 65 20 70 72 6f 67         the prog
80006f0f: 72 61 6d 2e 20 54 68 69         ram. Thi
80006f17: 73 20 55 6e 64 65 66 69         s Undefi
80006f1f: 6e 65 64 20 42 65 68 61         ned Beha
80006f27: 76 69 6f 72 20 63 68 65         vior che
80006f2f: 63 6b 20 69 73 20 6f 70         ck is op
80006f37: 74 69 6f 6e 61 6c 2c 20         tional, 
80006f3f: 61 6e 64 20 63 61 6e 6e         and cann
80006f47: 6f 74 20 62 65 20 72 65         ot be re
80006f4f: 6c 69 65 64 20 6f 6e 20         lied on 
80006f57: 66 6f 72 20 73 61 66 65         for safe
80006f5f: 74 79 2e                        ty.

0000000080006f62 <.Lanon.19c2f02bacb3e1ecd2b0a5b4f1c0dca7.0>:
80006f62: 75 6e 73 61 66 65 20 70         unsafe p
80006f6a: 72 65 63 6f 6e 64 69 74         recondit
80006f72: 69 6f 6e 28 73 29 20 76         ion(s) v
80006f7a: 69 6f 6c 61 74 65 64 3a         iolated:
80006f82: 20 75 73 69 7a 65 3a 3a          usize::
80006f8a: 75 6e 63 68 65 63 6b 65         unchecke
80006f92: 64 5f 61 64 64 20 63 61         d_add ca
80006f9a: 6e 6e 6f 74 20 6f 76 65         nnot ove
80006fa2: 72 66 6c 6f 77 0a 0a 54         rflow..T
80006faa: 68 69 73 20 69 6e 64 69         his indi
80006fb2: 63 61 74 65 73 20 61 20         cates a 
80006fba: 62 75 67 20 69 6e 20 74         bug in t
80006fc2: 68 65 20 70 72 6f 67 72         he progr
80006fca: 61 6d 2e 20 54 68 69 73         am. This
80006fd2: 20 55 6e 64 65 66 69 6e          Undefin
80006fda: 65 64 20 42 65 68 61 76         ed Behav
80006fe2: 69 6f 72 20 63 68 65 63         ior chec
80006fea: 6b 20 69 73 20 6f 70 74         k is opt
80006ff2: 69 6f 6e 61 6c 2c 20 61         ional, a
80006ffa: 6e 64 20 63 61 6e 6e 6f         nd canno
80007002: 74 20 62 65 20 72 65 6c         t be rel
8000700a: 69 65 64 20 6f 6e 20 66         ied on f
80007012: 6f 72 20 73 61 66 65 74         or safet
8000701a: 79 2e 4e 5b 6b 65 72 6e         y.N[kern
80007022: 65 6c 5d 20 61 63 63 65         el] acce
8000702a: 70 74 61 6e 63 65 20 70         ptance p
80007032: 65 6e 64 69 6e 67 20 73         ending s
8000703a: 69 67 6e 61 6c 20 69 73         ignal is
80007042: 20 6d 61 72 6b 65 64 20          marked 
8000704a: 74 68 65 6e 20 63 68 65         then che
80007052: 63 6b 65 64 20 62 65 66         cked bef
8000705a: 6f 72 65 20 75 73 65 72         ore user
80007062: 20 72 65 74 75 72 6e 3a          return:
8000706a: 20 c0 01 0a 00 12 5b 6b          .....[k
80007072: 65 72 6e 65 6c 5d 20 66         ernel] f
8000707a: 61 69 6c 75 72 65 3a 20         ailure: 
80007082: c0 01 0a 00 73 72 63 2f         ....src/
8000708a: 6d 61 69 6e 2e 72 73 00         main.rs.
80007092: 5b 5b 6b 65 72 6e 65 6c         [[kernel
8000709a: 5d 20 61 63 63 65 70 74         ] accept
800070a2: 61 6e 63 65 20 75 73 65         ance use
800070aa: 72 20 66 6c 6f 77 20 72         r flow r
800070b2: 75 6e 73 20 6e 6f 72 6d         uns norm
800070ba: 61 6c 20 2d 3e 20 68 61         al -> ha
800070c2: 6e 64 6c 65 72 20 2d 3e         ndler ->
800070ca: 20 73 69 67 72 65 74 75          sigretu
800070d2: 72 6e 20 2d 3e 20 6e 6f         rn -> no
800070da: 72 6d 61 6c 20 77 69 74         rmal wit
800070e2: 68 6f 75 74 20 63 72 61         hout cra
800070ea: 73 68 3a 20 c0 01 0a 00         sh: ....
800070f2: 2f 72 75 73 74 63 2f 65         /rustc/e
800070fa: 34 30 38 39 34 37 62 66         408947bf
80007102: 64 32 30 30 61 66 34 32         d200af42
8000710a: 64 62 33 32 32 64 61 66         db322daf
80007112: 30 66 61 64 66 65 37 65         0fadfe7e
8000711a: 32 36 64 33 62 64 31 2f         26d3bd1/
80007122: 6c 69 62 72 61 72 79 2f         library/
8000712a: 63 6f 72 65 2f 73 72 63         core/src
80007132: 2f 70 74 72 2f 6d 6f 64         /ptr/mod
8000713a: 2e 72 73 00 10 5b 6b 65         .rs..[ke
80007142: 72 6e 65 6c 5d 20 70 61         rnel] pa
8000714a: 6e 69 63 3a 20 c0 01 0a         nic: ...
80007152: 00 2f 72 75 73 74 63 2f         ./rustc/
8000715a: 65 34 30 38 39 34 37 62         e408947b
80007162: 66 64 32 30 30 61 66 34         fd200af4
8000716a: 32 64 62 33 32 32 64 61         2db322da
80007172: 66 30 66 61 64 66 65 37         f0fadfe7
8000717a: 65 32 36 64 33 62 64 31         e26d3bd1
80007182: 2f 6c 69 62 72 61 72 79         /library
8000718a: 2f 63 6f 72 65 2f 73 72         /core/sr
80007192: 63 2f 6f 70 73 2f 69 6e         c/ops/in
8000719a: 64 65 78 5f 72 61 6e 67         dex_rang
800071a2: 65 2e 72 73 00 55 5b 6b         e.rs.U[k
800071aa: 65 72 6e 65 6c 5d 20 61         ernel] a
800071b2: 63 63 65 70 74 61 6e 63         cceptanc
800071ba: 65 20 6b 65 72 6e 65 6c         e kernel
800071c2: 20 72 65 77 72 69 74 65          rewrite
800071ca: 73 20 75 73 65 72 20 74         s user t
800071d2: 72 61 70 20 63 6f 6e 74         rap cont
800071da: 65 78 74 20 61 6e 64 20         ext and 
800071e2: 72 65 73 74 6f 72 65 73         restores
800071ea: 20 69 74 20 76 69 61 20          it via 
800071f2: 73 69 67 72 65 74 75 72         sigretur
800071fa: 6e 3a 20 c0 01 0a 00 2f         n: ..../
80007202: 72 75 73 74 63 2f 65 34         rustc/e4
8000720a: 30 38 39 34 37 62 66 64         08947bfd
80007212: 32 30 30 61 66 34 32 64         200af42d
8000721a: 62 33 32 32 64 61 66 30         b322daf0
80007222: 66 61 64 66 65 37 65 32         fadfe7e2
8000722a: 36 64 33 62 64 31 2f 6c         6d3bd1/l
80007232: 69 62 72 61 72 79 2f 63         ibrary/c
8000723a: 6f 72 65 2f 73 72 63 2f         ore/src/
80007242: 63 68 61 72 2f 6d 65 74         char/met
8000724a: 68 6f 64 73 2e 72 73 00         hods.rs.
80007252: c0 00 20 69 6e 64 65 78         .. index
8000725a: 20 6f 75 74 20 6f 66 20          out of 
80007262: 62 6f 75 6e 64 73 3a 20         bounds: 
8000726a: 74 68 65 20 6c 65 6e 20         the len 
80007272: 69 73 20 c0 12 20 62 75         is .. bu
8000727a: 74 20 74 68 65 20 69 6e         t the in
80007282: 64 65 78 20 69 73 20 c0         dex is .
8000728a: 00 2f 72 75 73 74 63 2f         ./rustc/
80007292: 65 34 30 38 39 34 37 62         e408947b
8000729a: 66 64 32 30 30 61 66 34         fd200af4
800072a2: 32 64 62 33 32 32 64 61         2db322da
800072aa: 66 30 66 61 64 66 65 37         f0fadfe7
800072b2: 65 32 36 64 33 62 64 31         e26d3bd1
800072ba: 2f 6c 69 62 72 61 72 79         /library
800072c2: 2f 63 6f 72 65 2f 73 72         /core/sr
800072ca: 63 2f 66 6d 74 2f 6d 6f         c/fmt/mo
800072d2: 64 2e 72 73 00 19 5b 6b         d.rs..[k
800072da: 65 72 6e 65 6c 5d 20 6d         ernel] m
800072e2: 61 69 6e 20 72 65 70 6f         ain repo
800072ea: 72 74 20 70 69 64 3d c0         rt pid=.
800072f2: 0c 20 73 65 65 6e 5f 73         . seen_s
800072fa: 74 61 74 65 3d c0 0d 20         tate=.. 
80007302: 66 69 6e 61 6c 5f 73 74         final_st
8000730a: 61 74 65 3d c0 08 20 73         ate=.. s
80007312: 69 67 6e 75 6d 3d c0 01         ignum=..
8000731a: 0a 00 2b 5b 6b 65 72 6e         ..+[kern
80007322: 65 6c 5d 20 66 69 6e 61         el] fina
8000732a: 6c 20 73 69 67 6e 61 6c         l signal
80007332: 20 73 74 61 74 73 3a 20          stats: 
8000733a: 72 65 67 69 73 74 72 61         registra
80007342: 74 69 6f 6e 73 3d c0 0f         tions=..
8000734a: 20 70 65 6e 64 69 6e 67          pending
80007352: 5f 6d 61 72 6b 73 3d c0         _marks=.
8000735a: 0c 20 64 69 73 70 61 74         . dispat
80007362: 63 68 65 73 3d c0 0c 20         ches=.. 
8000736a: 73 69 67 72 65 74 75 72         sigretur
80007372: 6e 73 3d c0 01 0a 00 73         ns=....s
8000737a: 72 63 2f 63 6f 6e 73 6f         rc/conso
80007382: 6c 65 2e 72 73 00 26 5b         le.rs.&[
8000738a: 6b 65 72 6e 65 6c 5d 20         kernel] 
80007392: 72 65 63 65 69 76 65 72         receiver
8000739a: 20 72 65 70 6f 72 74 20          report 
800073a2: 68 61 6e 64 6c 65 72 5f         handler_
800073aa: 72 75 6e 73 3d c0 0f 20         runs=.. 
800073b2: 68 61 6e 64 6c 65 72 5f         handler_
800073ba: 73 74 61 74 65 3d c0 11         state=..
800073c2: 20 6d 61 69 6e 5f 73 65          main_se
800073ca: 65 6e 5f 73 74 61 74 65         en_state
800073d2: 3d c0 0d 20 66 69 6e 61         =.. fina
800073da: 6c 5f 73 74 61 74 65 3d         l_state=
800073e2: c0 0d 20 6c 61 73 74 5f         .. last_
800073ea: 73 69 67 6e 61 6c 3d c0         signal=.
800073f2: 06 20 64 61 74 61 3d c0         . data=.
800073fa: 11 20 72 65 63 6f 72 64         . record
80007402: 65 64 5f 73 69 67 6e 61         ed_signa
8000740a: 6c 3d c0 01 0a 00 2f 72         l=..../r
80007412: 75 73 74 63 2f 65 34 30         ustc/e40
8000741a: 38 39 34 37 62 66 64 32         8947bfd2
80007422: 30 30 61 66 34 32 64 62         00af42db
8000742a: 33 32 32 64 61 66 30 66         322daf0f
80007432: 61 64 66 65 37 65 32 36         adfe7e26
8000743a: 64 33 62 64 31 2f 6c 69         d3bd1/li
80007442: 62 72 61 72 79 2f 63 6f         brary/co
8000744a: 72 65 2f 73 72 63 2f 69         re/src/i
80007452: 74 65 72 2f 72 61 6e 67         ter/rang
8000745a: 65 2e 72 73 00 2f 72 75         e.rs./ru
80007462: 73 74 63 2f 65 34 30 38         stc/e408
8000746a: 39 34 37 62 66 64 32 30         947bfd20
80007472: 30 61 66 34 32 64 62 33         0af42db3
8000747a: 32 32 64 61 66 30 66 61         22daf0fa
80007482: 64 66 65 37 65 32 36 64         dfe7e26d
8000748a: 33 62 64 31 2f 6c 69 62         3bd1/lib
80007492: 72 61 72 79 2f 63 6f 72         rary/cor
8000749a: 65 2f 73 72 63 2f 66 6d         e/src/fm
800074a2: 74 2f 6e 75 6d 2e 72 73         t/num.rs
800074aa: 00 2f 72 75 73 74 63 2f         ./rustc/
800074b2: 65 34 30 38 39 34 37 62         e408947b
800074ba: 66 64 32 30 30 61 66 34         fd200af4
800074c2: 32 64 62 33 32 32 64 61         2db322da
800074ca: 66 30 66 61 64 66 65 37         f0fadfe7
800074d2: 65 32 36 64 33 62 64 31         e26d3bd1
800074da: 2f 6c 69 62 72 61 72 79         /library
800074e2: 2f 63 6f 72 65 2f 73 72         /core/sr
800074ea: 63 2f 75 62 5f 63 68 65         c/ub_che
800074f2: 63 6b 73 2e 72 73 00 c0         cks.rs..
800074fa: 01 3a c0 01 3a c0 00 2f         .:..:../
80007502: 72 75 73 74 63 2f 65 34         rustc/e4
8000750a: 30 38 39 34 37 62 66 64         08947bfd
80007512: 32 30 30 61 66 34 32 64         200af42d
8000751a: 62 33 32 32 64 61 66 30         b322daf0
80007522: 66 61 64 66 65 37 65 32         fadfe7e2
8000752a: 36 64 33 62 64 31 2f 6c         6d3bd1/l
80007532: 69 62 72 61 72 79 2f 63         ibrary/c
8000753a: 6f 72 65 2f 73 72 63 2f         ore/src/
80007542: 70 74 72 2f 63 6f 6e 73         ptr/cons
8000754a: 74 5f 70 74 72 2e 72 73         t_ptr.rs
80007552: 00 2f 72 75 73 74 63 2f         ./rustc/
8000755a: 65 34 30 38 39 34 37 62         e408947b
80007562: 66 64 32 30 30 61 66 34         fd200af4
8000756a: 32 64 62 33 32 32 64 61         2db322da
80007572: 66 30 66 61 64 66 65 37         f0fadfe7
8000757a: 65 32 36 64 33 62 64 31         e26d3bd1
80007582: 2f 6c 69 62 72 61 72 79         /library
8000758a: 2f 63 6f 72 65 2f 73 72         /core/sr
80007592: 63 2f 61 72 72 61 79 2f         c/array/
8000759a: 69 74 65 72 2f 69 74 65         iter/ite
800075a2: 72 5f 69 6e 6e 65 72 2e         r_inner.
800075aa: 72 73 00 2f 72 75 73 74         rs./rust
800075b2: 63 2f 65 34 30 38 39 34         c/e40894
800075ba: 37 62 66 64 32 30 30 61         7bfd200a
800075c2: 66 34 32 64 62 33 32 32         f42db322
800075ca: 64 61 66 30 66 61 64 66         daf0fadf
800075d2: 65 37 65 32 36 64 33 62         e7e26d3b
800075da: 64 31 2f 6c 69 62 72 61         d1/libra
800075e2: 72 79 2f 63 6f 72 65 2f         ry/core/
800075ea: 73 72 63 2f 70 61 6e 69         src/pani
800075f2: 63 6b 69 6e 67 2e 72 73         cking.rs
800075fa: 00 00 00 00 00 00               ......

0000000080007600 <.Lanon.30f697d818f383d4e145781f617493d2.1>:
80007600: 10 74 00 80 00 00 00 00         .t......
80007608: 4e 00 00 00 00 00 00 00         N.......
80007610: b2 01 00 00 01 00 00 00         ........

0000000080007618 <.Lanon.19018f146088c88a6d9c48998081cfbc.1>:
80007618: 01 72 00 80 00 00 00 00         .r......
80007620: 50 00 00 00 00 00 00 00         P.......
80007628: 62 07 00 00 0e 00 00 00         b.......

0000000080007630 <.Lanon.19018f146088c88a6d9c48998081cfbc.2>:
80007630: 01 72 00 80 00 00 00 00         .r......
80007638: 50 00 00 00 00 00 00 00         P.......
80007640: 55 07 00 00 09 00 00 00         U.......

0000000080007648 <.Lanon.19018f146088c88a6d9c48998081cfbc.3>:
80007648: 12 65 6e 63 6f 64 65 5f         .encode_
80007650: 75 74 66 38 3a 20 6e 65         utf8: ne
80007658: 65 64 20 c0 13 20 62 79         ed .. by
80007660: 74 65 73 20 74 6f 20 65         tes to e
80007668: 6e 63 6f 64 65 20 55 2b         ncode U+
80007670: c3 20 00 00 69 04 00 15         . ..i...
80007678: 20 62 75 74 20 62 75 66          but buf
80007680: 66 65 72 20 68 61 73 20         fer has 
80007688: 6a 75 73 74 20 c0 00            just ..

000000008000768f <.Lanon.d7cd1f4c3fffd7b0bf71ac364bf1907f.0>:
8000768f: 75 6e 73 61 66 65 20 70         unsafe p
80007697: 72 65 63 6f 6e 64 69 74         recondit
8000769f: 69 6f 6e 28 73 29 20 76         ion(s) v
800076a7: 69 6f 6c 61 74 65 64 3a         iolated:
800076af: 20 73 6c 69 63 65 3a 3a          slice::
800076b7: 67 65 74 5f 75 6e 63 68         get_unch
800076bf: 65 63 6b 65 64 20 72 65         ecked re
800076c7: 71 75 69 72 65 73 20 74         quires t
800076cf: 68 61 74 20 74 68 65 20         hat the 
800076d7: 69 6e 64 65 78 20 69 73         index is
800076df: 20 77 69 74 68 69 6e 20          within 
800076e7: 74 68 65 20 73 6c 69 63         the slic
800076ef: 65 0a 0a 54 68 69 73 20         e..This 
800076f7: 69 6e 64 69 63 61 74 65         indicate
800076ff: 73 20 61 20 62 75 67 20         s a bug 
80007707: 69 6e 20 74 68 65 20 70         in the p
8000770f: 72 6f 67 72 61 6d 2e 20         rogram. 
80007717: 54 68 69 73 20 55 6e 64         This Und
8000771f: 65 66 69 6e 65 64 20 42         efined B
80007727: 65 68 61 76 69 6f 72 20         ehavior 
8000772f: 63 68 65 63 6b 20 69 73         check is
80007737: 20 6f 70 74 69 6f 6e 61          optiona
8000773f: 6c 2c 20 61 6e 64 20 63         l, and c
80007747: 61 6e 6e 6f 74 20 62 65         annot be
8000774f: 20 72 65 6c 69 65 64 20          relied 
80007757: 6f 6e 20 66 6f 72 20 73         on for s
8000775f: 61 66 65 74 79 2e 00 00         afety...
80007767: 00                              .

0000000080007768 <.Lanon.7f9b04f0b6869dc4705c400134becf31.0>:
80007768: 00 00 00 00 00 00 00 00         ........
80007770: 00 00 00 00 00 00 00 00         ........
80007778: 01 00 00 00 00 00 00 00         ........
80007780: 42 58 00 80 00 00 00 00         BX......
80007788: 8e 07 00 80 00 00 00 00         ........
80007790: ce 07 00 80 00 00 00 00         ........

0000000080007798 <.Lanon.2a6a7b88008800e89e4f7a12f6377e83.1>:
80007798: 8b 72 00 80 00 00 00 00         .r......
800077a0: 4b 00 00 00 00 00 00 00         K.......
800077a8: 71 03 00 00 2a 00 00 00         q...*...
800077b0: 30 31 32 33 34 35 36 37         01234567
800077b8: 38 39 41 42 43 44 45 46         89ABCDEF
800077c0: 00 00 00 00 00 00 00 00         ........
800077c8: 00 00 00 00 00 00 00 00         ........
800077d0: 30 31 32 33 34 35 36 37         01234567
800077d8: 38 39 61 62 63 64 65 66         89abcdef

00000000800077e0 <.Lanon.c20375b5f4e8c94d668a4a30f3345f86.0>:
800077e0: 00 00                           ..

00000000800077e2 <.Lanon.7f9be16d98b3390393cda363bf401bb9.0>:
800077e2: 69 73 5f 61 6c 69 67 6e         is_align
800077ea: 65 64 5f 74 6f 3a 20 61         ed_to: a
800077f2: 6c 69 67 6e 20 69 73 20         lign is 
800077fa: 6e 6f 74 20 61 20 70 6f         not a po
80007802: 77 65 72 2d 6f 66 2d 74         wer-of-t
8000780a: 77 6f 00 00 00 00               wo....

0000000080007810 <.Lanon.7f9be16d98b3390393cda363bf401bb9.2>:
80007810: 01 75 00 80 00 00 00 00         .u......
80007818: 51 00 00 00 00 00 00 00         Q.......
80007820: 5e 05 00 00 0d 00 00 00         ^.......

0000000080007828 <.Lanon.3e4d4d2976a1932b3b6e7df3b8e32c85.1>:
80007828: ab 74 00 80 00 00 00 00         .t......
80007830: 4d 00 00 00 00 00 00 00         M.......
80007838: 94 00 00 00 36 00 00 00         ....6...

0000000080007840 <.Lanon.3e4d4d2976a1932b3b6e7df3b8e32c85.2>:
80007840: 75 6e 73 61 66 65 20 70         unsafe p
80007848: 72 65 63 6f 6e 64 69 74         recondit
80007850: 69 6f 6e 28 73 29 20 76         ion(s) v
80007858: 69 6f 6c 61 74 65 64 3a         iolated:
80007860: 20 73 6c 69 63 65 3a 3a          slice::
80007868: 66 72 6f 6d 5f 72 61 77         from_raw
80007870: 5f 70 61 72 74 73 20 72         _parts r
80007878: 65 71 75 69 72 65 73 20         equires 
80007880: 74 68 65 20 70 6f 69 6e         the poin
80007888: 74 65 72 20 74 6f 20 62         ter to b
80007890: 65 20 61 6c 69 67 6e 65         e aligne
80007898: 64 20 61 6e 64 20 6e 6f         d and no
800078a0: 6e 2d 6e 75 6c 6c 2c 20         n-null, 
800078a8: 61 6e 64 20 74 68 65 20         and the 
800078b0: 74 6f 74 61 6c 20 73 69         total si
800078b8: 7a 65 20 6f 66 20 74 68         ze of th
800078c0: 65 20 73 6c 69 63 65 20         e slice 
800078c8: 6e 6f 74 20 74 6f 20 65         not to e
800078d0: 78 63 65 65 64 20 60 69         xceed `i
800078d8: 73 69 7a 65 3a 3a 4d 41         size::MA
800078e0: 58 60 0a 0a 54 68 69 73         X`..This
800078e8: 20 69 6e 64 69 63 61 74          indicat
800078f0: 65 73 20 61 20 62 75 67         es a bug
800078f8: 20 69 6e 20 74 68 65 20          in the 
80007900: 70 72 6f 67 72 61 6d 2e         program.
80007908: 20 54 68 69 73 20 55 6e          This Un
80007910: 64 65 66 69 6e 65 64 20         defined 
80007918: 42 65 68 61 76 69 6f 72         Behavior
80007920: 20 63 68 65 63 6b 20 69          check i
80007928: 73 20 6f 70 74 69 6f 6e         s option
80007930: 61 6c 2c 20 61 6e 64 20         al, and 
80007938: 63 61 6e 6e 6f 74 20 62         cannot b
80007940: 65 20 72 65 6c 69 65 64         e relied
80007948: 20 6f 6e 20 66 6f 72 20          on for 
80007950: 73 61 66 65 74 79 2e            safety.

0000000080007957 <.Lanon.3e4d4d2976a1932b3b6e7df3b8e32c85.3>:
80007957: 75 6e 73 61 66 65 20 70         unsafe p
8000795f: 72 65 63 6f 6e 64 69 74         recondit
80007967: 69 6f 6e 28 73 29 20 76         ion(s) v
8000796f: 69 6f 6c 61 74 65 64 3a         iolated:
80007977: 20 73 6c 69 63 65 3a 3a          slice::
8000797f: 66 72 6f 6d 5f 72 61 77         from_raw
80007987: 5f 70 61 72 74 73 5f 6d         _parts_m
8000798f: 75 74 20 72 65 71 75 69         ut requi
80007997: 72 65 73 20 74 68 65 20         res the 
8000799f: 70 6f 69 6e 74 65 72 20         pointer 
800079a7: 74 6f 20 62 65 20 61 6c         to be al
800079af: 69 67 6e 65 64 20 61 6e         igned an
800079b7: 64 20 6e 6f 6e 2d 6e 75         d non-nu
800079bf: 6c 6c 2c 20 61 6e 64 20         ll, and 
800079c7: 74 68 65 20 74 6f 74 61         the tota
800079cf: 6c 20 73 69 7a 65 20 6f         l size o
800079d7: 66 20 74 68 65 20 73 6c         f the sl
800079df: 69 63 65 20 6e 6f 74 20         ice not 
800079e7: 74 6f 20 65 78 63 65 65         to excee
800079ef: 64 20 60 69 73 69 7a 65         d `isize
800079f7: 3a 3a 4d 41 58 60 0a 0a         ::MAX`..
800079ff: 54 68 69 73 20 69 6e 64         This ind
80007a07: 69 63 61 74 65 73 20 61         icates a
80007a0f: 20 62 75 67 20 69 6e 20          bug in 
80007a17: 74 68 65 20 70 72 6f 67         the prog
80007a1f: 72 61 6d 2e 20 54 68 69         ram. Thi
80007a27: 73 20 55 6e 64 65 66 69         s Undefi
80007a2f: 6e 65 64 20 42 65 68 61         ned Beha
80007a37: 76 69 6f 72 20 63 68 65         vior che
80007a3f: 63 6b 20 69 73 20 6f 70         ck is op
80007a47: 74 69 6f 6e 61 6c 2c 20         tional, 
80007a4f: 61 6e 64 20 63 61 6e 6e         and cann
80007a57: 6f 74 20 62 65 20 72 65         ot be re
80007a5f: 6c 69 65 64 20 6f 6e 20         lied on 
80007a67: 66 6f 72 20 73 61 66 65         for safe
80007a6f: 74 79 2e 00 00 00 00 00         ty......
80007a77: 00                              .

0000000080007a78 <.LJTI34_0>:
80007a78: 2e92         	fld	ft9, 0x100(sp)
80007a7a: 8000         	<unknown>
80007a7c: 0000         	unimp
80007a7e: 0000         	unimp
80007a80: 2ea6         	fld	ft9, 0x48(sp)
80007a82: 8000         	<unknown>
80007a84: 0000         	unimp
80007a86: 0000         	unimp
80007a88: 2eba         	fld	ft9, 0x188(sp)
80007a8a: 8000         	<unknown>
80007a8c: 0000         	unimp
80007a8e: 0000         	unimp
80007a90: 2ecc         	fld	fa1, 0x98(a3)
80007a92: 8000         	<unknown>
80007a94: 0000         	unimp
80007a96: 0000         	unimp
80007a98: 2ee0         	fld	fs0, 0xd8(a3)
80007a9a: 8000         	<unknown>
80007a9c: 0000         	unimp
80007a9e: 0000         	unimp
80007aa0: 2eea         	fld	ft9, 0x98(sp)
80007aa2: 8000         	<unknown>
80007aa4: 0000         	unimp
80007aa6: 0000         	unimp
80007aa8: 0100         	addi	s0, sp, 0x80
80007aaa: 021c         	addi	a5, sp, 0x100
80007aac: 0e1d         	addi	t3, t3, 0x7
80007aae: 0318         	addi	a4, sp, 0x180
80007ab0: 161e         	slli	a2, a2, 0x27
80007ab2: 0f14         	addi	a3, sp, 0x390
80007ab4: 1119         	addi	sp, sp, -0x1a
80007ab6: 0804         	addi	s1, sp, 0x10
80007ab8: 1b1f 170d 1315       	<unknown>
80007abe: 0710         	addi	a2, sp, 0x380
80007ac0: 0c1a         	slli	s8, s8, 0x6
80007ac2: 0612         	slli	a2, a2, 0x4
80007ac4: 090a050b     	<unknown>

0000000080007ac8 <.Lanon.7e1ccd7fdb4fe9f61eaf94e993e90966.2>:
80007ac8: 86 70 00 80 00 00 00 00         .p......
80007ad0: 0b 00 00 00 00 00 00 00         ........
80007ad8: 7d 03 00 00 0e 00 00 00         }.......

0000000080007ae0 <.Lanon.7e1ccd7fdb4fe9f61eaf94e993e90966.3>:
80007ae0: 05 5b 70 74 5d 20 c0 05         .[pt] ..
80007ae8: 20 70 69 64 3d c0 04 20          pid=.. 
80007af0: 76 61 3d c1 20 00 80 60         va=. ..`
80007af8: 06 20 76 70 6e 3d 28 c0         . vpn=(.
80007b00: 01 2c c0 01 2c c0 0b 29         .,..,..)
80007b08: 20 72 6f 6f 74 5f 70 74          root_pt
80007b10: 65 3d c3 20 00 80 69 12         e=. ..i.
80007b18: 00 08 20 6c 31 5f 70 74         .. l1_pt
80007b20: 65 3d c3 20 00 80 69 12         e=. ..i.
80007b28: 00 08 20 6c 30 5f 70 74         .. l0_pt
80007b30: 65 3d c3 20 00 80 69 12         e=. ..i.
80007b38: 00 09 20 6c 65 61 66 5f         .. leaf_
80007b40: 70 61 3d c1 20 00 80 60         pa=. ..`
80007b48: 07 20 66 6c 61 67 73 3d         . flags=
80007b50: c0 01 0a 00 00 00 00 00         ........

0000000080007b58 <.Lanon.7e1ccd7fdb4fe9f61eaf94e993e90966.5>:
80007b58: 86 70 00 80 00 00 00 00         .p......
80007b60: 0b 00 00 00 00 00 00 00         ........
80007b68: f4 01 00 00 1c 00 00 00         ........

0000000080007b70 <.Lanon.7e1ccd7fdb4fe9f61eaf94e993e90966.6>:
80007b70: 86 70 00 80 00 00 00 00         .p......
80007b78: 0b 00 00 00 00 00 00 00         ........
80007b80: f5 01 00 00 1b 00 00 00         ........

0000000080007b88 <.Lanon.7e1ccd7fdb4fe9f61eaf94e993e90966.7>:
80007b88: 86 70 00 80 00 00 00 00         .p......
80007b90: 0b 00 00 00 00 00 00 00         ........
80007b98: fc 01 00 00 09 00 00 00         ........

0000000080007ba0 <.Lanon.7e1ccd7fdb4fe9f61eaf94e993e90966.8>:
80007ba0: 86 70 00 80 00 00 00 00         .p......
80007ba8: 0b 00 00 00 00 00 00 00         ........
80007bb0: fd 01 00 00 09 00 00 00         ........

0000000080007bb8 <.Lanon.7e1ccd7fdb4fe9f61eaf94e993e90966.9>:
80007bb8: 86 70 00 80 00 00 00 00         .p......
80007bc0: 0b 00 00 00 00 00 00 00         ........
80007bc8: fe 01 00 00 09 00 00 00         ........

0000000080007bd0 <.Lanon.7e1ccd7fdb4fe9f61eaf94e993e90966.10>:
80007bd0: 17 5b 6b 65 72 6e 65 6c         .[kernel
80007bd8: 5d 20 73 69 67 61 63 74         ] sigact
80007be0: 69 6f 6e 20 70 69 64 3d         ion pid=
80007be8: c0 08 20 73 69 67 6e 75         .. signu
80007bf0: 6d 3d c0 09 20 68 61 6e         m=.. han
80007bf8: 64 6c 65 72 3d c1 20 00         dler=. .
80007c00: 80 60 01 0a 00                  .`...

0000000080007c05 <.Lanon.7e1ccd7fdb4fe9f61eaf94e993e90966.11>:
80007c05: 73 69 67 61 63 74 69 6f         sigactio
80007c0d: 6e 20 73 69 67 6e 75 6d         n signum
80007c15: 20 6f 75 74 20 6f 66 20          out of 
80007c1d: 72 61 6e 67 65 00 00 00         range...
80007c25: 00 00 00                        ...

0000000080007c28 <.Lanon.7e1ccd7fdb4fe9f61eaf94e993e90966.12>:
80007c28: 86 70 00 80 00 00 00 00         .p......
80007c30: 0b 00 00 00 00 00 00 00         ........
80007c38: 21 02 00 00 0d 00 00 00         !.......

0000000080007c40 <.Lanon.7e1ccd7fdb4fe9f61eaf94e993e90966.13>:
80007c40: 86 70 00 80 00 00 00 00         .p......
80007c48: 0b 00 00 00 00 00 00 00         ........
80007c50: 22 02 00 00 0d 00 00 00         ".......

0000000080007c58 <.Lanon.7e1ccd7fdb4fe9f61eaf94e993e90966.14>:
80007c58: 73 69 67 72 65 74 75 72         sigretur
80007c60: 6e 20 77 69 74 68 6f 75         n withou
80007c68: 74 20 61 63 74 69 76 65         t active
80007c70: 20 73 69 67 6e 61 6c 20          signal 
80007c78: 66 72 61 6d 65 00 00 00         frame...

0000000080007c80 <.Lanon.7e1ccd7fdb4fe9f61eaf94e993e90966.15>:
80007c80: 86 70 00 80 00 00 00 00         .p......
80007c88: 0b 00 00 00 00 00 00 00         ........
80007c90: 2a 02 00 00 1e 00 00 00         *.......

0000000080007c98 <.Lanon.7e1ccd7fdb4fe9f61eaf94e993e90966.16>:
80007c98: 86 70 00 80 00 00 00 00         .p......
80007ca0: 0b 00 00 00 00 00 00 00         ........
80007ca8: 2c 02 00 00 2a 00 00 00         ,...*...

0000000080007cb0 <.Lanon.7e1ccd7fdb4fe9f61eaf94e993e90966.17>:
80007cb0: 86 70 00 80 00 00 00 00         .p......
80007cb8: 0b 00 00 00 00 00 00 00         ........
80007cc0: 2f 02 00 00 09 00 00 00         /.......

0000000080007cc8 <.Lanon.7e1ccd7fdb4fe9f61eaf94e993e90966.18>:
80007cc8: 86 70 00 80 00 00 00 00         .p......
80007cd0: 0b 00 00 00 00 00 00 00         ........
80007cd8: 30 02 00 00 09 00 00 00         0.......

0000000080007ce0 <.Lanon.7e1ccd7fdb4fe9f61eaf94e993e90966.19>:
80007ce0: 86 70 00 80 00 00 00 00         .p......
80007ce8: 0b 00 00 00 00 00 00 00         ........
80007cf0: 31 02 00 00 09 00 00 00         1.......

0000000080007cf8 <.Lanon.7e1ccd7fdb4fe9f61eaf94e993e90966.20>:
80007cf8: 86 70 00 80 00 00 00 00         .p......
80007d00: 0b 00 00 00 00 00 00 00         ........
80007d08: 32 02 00 00 09 00 00 00         2.......

0000000080007d10 <.Lanon.7e1ccd7fdb4fe9f61eaf94e993e90966.21>:
80007d10: 86 70 00 80 00 00 00 00         .p......
80007d18: 0b 00 00 00 00 00 00 00         ........
80007d20: 33 02 00 00 09 00 00 00         3.......

0000000080007d28 <.Lanon.7e1ccd7fdb4fe9f61eaf94e993e90966.22>:
80007d28: 86 70 00 80 00 00 00 00         .p......
80007d30: 0b 00 00 00 00 00 00 00         ........
80007d38: 34 02 00 00 09 00 00 00         4.......

0000000080007d40 <.Lanon.7e1ccd7fdb4fe9f61eaf94e993e90966.23>:
80007d40: 86 70 00 80 00 00 00 00         .p......
80007d48: 0b 00 00 00 00 00 00 00         ........
80007d50: 35 02 00 00 09 00 00 00         5.......

0000000080007d58 <.Lanon.7e1ccd7fdb4fe9f61eaf94e993e90966.24>:
80007d58: 17 5b 6b 65 72 6e 65 6c         .[kernel
80007d60: 5d 20 73 69 67 72 65 74         ] sigret
80007d68: 75 72 6e 20 70 69 64 3d         urn pid=
80007d70: c0 0c 20 73 74 61 63 6b         .. stack
80007d78: 65 64 5f 72 61 3d c1 20         ed_ra=. 
80007d80: 00 80 60 0d 20 73 74 61         ..`. sta
80007d88: 63 6b 65 64 5f 65 70 63         cked_epc
80007d90: 3d c1 20 00 80 60 0d 20         =. ..`. 
80007d98: 72 65 73 74 6f 72 65 5f         restore_
80007da0: 65 70 63 3d c1 20 00 80         epc=. ..
80007da8: 60 0c 20 72 65 73 74 6f         `. resto
80007db0: 72 65 5f 73 70 3d c1 20         re_sp=. 
80007db8: 00 80 60 01 0a 00 00 00         ..`.....

0000000080007dc0 <.Lanon.7e1ccd7fdb4fe9f61eaf94e993e90966.25>:
80007dc0: 86 70 00 80 00 00 00 00         .p......
80007dc8: 0b 00 00 00 00 00 00 00         ........
80007dd0: aa 01 00 00 09 00 00 00         ........

0000000080007dd8 <.Lanon.7e1ccd7fdb4fe9f61eaf94e993e90966.26>:
80007dd8: 86 70 00 80 00 00 00 00         .p......
80007de0: 0b 00 00 00 00 00 00 00         ........
80007de8: ab 01 00 00 09 00 00 00         ........

0000000080007df0 <.Lanon.7e1ccd7fdb4fe9f61eaf94e993e90966.27>:
80007df0: 86 70 00 80 00 00 00 00         .p......
80007df8: 0b 00 00 00 00 00 00 00         ........
80007e00: ae 01 00 00 09 00 00 00         ........

0000000080007e08 <.Lanon.7e1ccd7fdb4fe9f61eaf94e993e90966.28>:
80007e08: 86 70 00 80 00 00 00 00         .p......
80007e10: 0b 00 00 00 00 00 00 00         ........
80007e18: af 01 00 00 09 00 00 00         ........

0000000080007e20 <.Lanon.7e1ccd7fdb4fe9f61eaf94e993e90966.29>:
80007e20: 86 70 00 80 00 00 00 00         .p......
80007e28: 0b 00 00 00 00 00 00 00         ........
80007e30: b1 01 00 00 09 00 00 00         ........

0000000080007e38 <.Lanon.7e1ccd7fdb4fe9f61eaf94e993e90966.30>:
80007e38: 86 70 00 80 00 00 00 00         .p......
80007e40: 0b 00 00 00 00 00 00 00         ........
80007e48: b4 01 00 00 09 00 00 00         ........

0000000080007e50 <.Lanon.7e1ccd7fdb4fe9f61eaf94e993e90966.31>:
80007e50: 86 70 00 80 00 00 00 00         .p......
80007e58: 0b 00 00 00 00 00 00 00         ........
80007e60: b6 01 00 00 09 00 00 00         ........

0000000080007e68 <.Lanon.7e1ccd7fdb4fe9f61eaf94e993e90966.32>:
80007e68: 86 70 00 80 00 00 00 00         .p......
80007e70: 0b 00 00 00 00 00 00 00         ........
80007e78: b8 01 00 00 09 00 00 00         ........

0000000080007e80 <.Lanon.7e1ccd7fdb4fe9f61eaf94e993e90966.33>:
80007e80: 86 70 00 80 00 00 00 00         .p......
80007e88: 0b 00 00 00 00 00 00 00         ........
80007e90: bb 01 00 00 09 00 00 00         ........

0000000080007e98 <.Lanon.7e1ccd7fdb4fe9f61eaf94e993e90966.34>:
80007e98: 86 70 00 80 00 00 00 00         .p......
80007ea0: 0b 00 00 00 00 00 00 00         ........
80007ea8: bc 01 00 00 09 00 00 00         ........

0000000080007eb0 <.Lanon.7e1ccd7fdb4fe9f61eaf94e993e90966.35>:
80007eb0: 86 70 00 80 00 00 00 00         .p......
80007eb8: 0b 00 00 00 00 00 00 00         ........
80007ec0: bd 01 00 00 09 00 00 00         ........

0000000080007ec8 <.Lanon.7e1ccd7fdb4fe9f61eaf94e993e90966.36>:
80007ec8: 86 70 00 80 00 00 00 00         .p......
80007ed0: 0b 00 00 00 00 00 00 00         ........
80007ed8: be 01 00 00 09 00 00 00         ........

0000000080007ee0 <.Lanon.7e1ccd7fdb4fe9f61eaf94e993e90966.37>:
80007ee0: 86 70 00 80 00 00 00 00         .p......
80007ee8: 0b 00 00 00 00 00 00 00         ........
80007ef0: bf 01 00 00 09 00 00 00         ........

0000000080007ef8 <.Lanon.7e1ccd7fdb4fe9f61eaf94e993e90966.38>:
80007ef8: 86 70 00 80 00 00 00 00         .p......
80007f00: 0b 00 00 00 00 00 00 00         ........
80007f08: c0 01 00 00 09 00 00 00         ........

0000000080007f10 <.Lanon.7e1ccd7fdb4fe9f61eaf94e993e90966.39>:
80007f10: 86 70 00 80 00 00 00 00         .p......
80007f18: 0b 00 00 00 00 00 00 00         ........
80007f20: c1 01 00 00 09 00 00 00         ........

0000000080007f28 <.Lanon.7e1ccd7fdb4fe9f61eaf94e993e90966.40>:
80007f28: 86 70 00 80 00 00 00 00         .p......
80007f30: 0b 00 00 00 00 00 00 00         ........
80007f38: c3 01 00 00 09 00 00 00         ........

0000000080007f40 <.Lanon.7e1ccd7fdb4fe9f61eaf94e993e90966.41>:
80007f40: 86 70 00 80 00 00 00 00         .p......
80007f48: 0b 00 00 00 00 00 00 00         ........
80007f50: c4 01 00 00 09 00 00 00         ........

0000000080007f58 <.Lanon.7e1ccd7fdb4fe9f61eaf94e993e90966.42>:
80007f58: 86 70 00 80 00 00 00 00         .p......
80007f60: 0b 00 00 00 00 00 00 00         ........
80007f68: c5 01 00 00 09 00 00 00         ........

0000000080007f70 <.Lanon.7e1ccd7fdb4fe9f61eaf94e993e90966.43>:
80007f70: 86 70 00 80 00 00 00 00         .p......
80007f78: 0b 00 00 00 00 00 00 00         ........
80007f80: c6 01 00 00 09 00 00 00         ........

0000000080007f88 <.Lanon.7e1ccd7fdb4fe9f61eaf94e993e90966.44>:
80007f88: 72 65 61 64 5f 75 73 65         read_use
80007f90: 72 5f 75 36 34 20 6f 6e         r_u64 on
80007f98: 20 75 6e 6d 61 70 70 65          unmappe
80007fa0: 64 20 76 69 72 74 75 61         d virtua
80007fa8: 6c 20 61 64 64 72 65 73         l addres
80007fb0: 73 00 00 00 00 00 00 00         s.......

0000000080007fb8 <.Lanon.7e1ccd7fdb4fe9f61eaf94e993e90966.45>:
80007fb8: 86 70 00 80 00 00 00 00         .p......
80007fc0: 0b 00 00 00 00 00 00 00         ........
80007fc8: 13 03 00 00 0e 00 00 00         ........

0000000080007fd0 <.Lanon.7e1ccd7fdb4fe9f61eaf94e993e90966.46>:
80007fd0: 86 70 00 80 00 00 00 00         .p......
80007fd8: 0b 00 00 00 00 00 00 00         ........
80007fe0: 14 03 00 00 0e 00 00 00         ........

0000000080007fe8 <.Lanon.7e1ccd7fdb4fe9f61eaf94e993e90966.47>:
80007fe8: 86 70 00 80 00 00 00 00         .p......
80007ff0: 0b 00 00 00 00 00 00 00         ........
80007ff8: fe 03 00 00 14 00 00 00         ........

0000000080008000 <.Lanon.7e1ccd7fdb4fe9f61eaf94e993e90966.48>:
80008000: 86 70 00 80 00 00 00 00         .p......
80008008: 0b 00 00 00 00 00 00 00         ........
80008010: fe 03 00 00 05 00 00 00         ........

0000000080008018 <.Lanon.7e1ccd7fdb4fe9f61eaf94e993e90966.49>:
80008018: 77 72 69 74 65 5f 75 73         write_us
80008020: 65 72 5f 75 36 34 20 6f         er_u64 o
80008028: 6e 20 75 6e 77 72 69 74         n unwrit
80008030: 61 62 6c 65 20 76 69 72         able vir
80008038: 74 75 61 6c 20 61 64 64         tual add
80008040: 72 65 73 73 00 00 00 00         ress....

0000000080008048 <.Lanon.7e1ccd7fdb4fe9f61eaf94e993e90966.50>:
80008048: 86 70 00 80 00 00 00 00         .p......
80008050: 0b 00 00 00 00 00 00 00         ........
80008058: 1c 03 00 00 0e 00 00 00         ........

0000000080008060 <.Lanon.7e1ccd7fdb4fe9f61eaf94e993e90966.51>:
80008060: 86 70 00 80 00 00 00 00         .p......
80008068: 0b 00 00 00 00 00 00 00         ........
80008070: 1e 03 00 00 09 00 00 00         ........

0000000080008078 <.Lanon.7e1ccd7fdb4fe9f61eaf94e993e90966.52>:
80008078: 86 70 00 80 00 00 00 00         .p......
80008080: 0b 00 00 00 00 00 00 00         ........
80008088: 07 03 00 00 19 00 00 00         ........

0000000080008090 <.Lanon.7e1ccd7fdb4fe9f61eaf94e993e90966.53>:
80008090: 86 70 00 80 00 00 00 00         .p......
80008098: 0b 00 00 00 00 00 00 00         ........
800080a0: 83 03 00 00 0d 00 00 00         ........

00000000800080a8 <.Lanon.7e1ccd7fdb4fe9f61eaf94e993e90966.54>:
800080a8: 86 70 00 80 00 00 00 00         .p......
800080b0: 0b 00 00 00 00 00 00 00         ........
800080b8: fa 03 00 00 05 00 00 00         ........

00000000800080c0 <.Lanon.7e1ccd7fdb4fe9f61eaf94e993e90966.55>:
800080c0: 86 70 00 80 00 00 00 00         .p......
800080c8: 0b 00 00 00 00 00 00 00         ........
800080d0: 8c 01 00 00 12 00 00 00         ........

00000000800080d8 <.Lanon.7e1ccd7fdb4fe9f61eaf94e993e90966.56>:
800080d8: 86 70 00 80 00 00 00 00         .p......
800080e0: 0b 00 00 00 00 00 00 00         ........
800080e8: 9b 02 00 00 24 00 00 00         ....$...

00000000800080f0 <.Lanon.7e1ccd7fdb4fe9f61eaf94e993e90966.57>:
800080f0: 86 70 00 80 00 00 00 00         .p......
800080f8: 0b 00 00 00 00 00 00 00         ........
80008100: 9c 02 00 00 21 00 00 00         ....!...

0000000080008108 <.Lanon.7e1ccd7fdb4fe9f61eaf94e993e90966.59>:
80008108: 23 5b 6b 65 72 6e 65 6c         #[kernel
80008110: 5d 20 63 6f 6e 74 65 78         ] contex
80008118: 74 20 72 65 77 72 69 74         t rewrit
80008120: 65 20 73 61 76 65 64 5f         e saved_
80008128: 65 70 63 3d c1 20 00 80         epc=. ..
80008130: 60 0a 20 73 61 76 65 64         `. saved
80008138: 5f 73 70 3d c1 20 00 80         _sp=. ..
80008140: 60 0d 20 68 61 6e 64 6c         `. handl
80008148: 65 72 5f 65 70 63 3d c1         er_epc=.
80008150: 20 00 80 60 0c 20 74 72          ..`. tr
80008158: 61 6d 70 6f 6c 69 6e 65         ampoline
80008160: 3d c1 20 00 80 60 0c 20         =. ..`. 
80008168: 73 74 61 63 6b 65 64 5f         stacked_
80008170: 72 61 3d c1 20 00 80 60         ra=. ..`
80008178: 0d 20 73 74 61 63 6b 65         . stacke
80008180: 64 5f 65 70 63 3d c1 20         d_epc=. 
80008188: 00 80 60 0e 20 72 65 73         ..`. res
80008190: 74 6f 72 65 64 5f 65 70         tored_ep
80008198: 63 3d c1 20 00 80 60 0d         c=. ..`.
800081a0: 20 72 65 73 74 6f 72 65          restore
800081a8: 64 5f 73 70 3d c1 20 00         d_sp=. .
800081b0: 80 60 01 0a 00 00 00 00         .`......

00000000800081b8 <.Lanon.7e1ccd7fdb4fe9f61eaf94e993e90966.61>:
800081b8: 86 70 00 80 00 00 00 00         .p......
800081c0: 0b 00 00 00 00 00 00 00         ........
800081c8: c0 02 00 00 15 00 00 00         ........

00000000800081d0 <.Lanon.7e1ccd7fdb4fe9f61eaf94e993e90966.62>:
800081d0: 86 70 00 80 00 00 00 00         .p......
800081d8: 0b 00 00 00 00 00 00 00         ........
800081e0: cb 02 00 00 15 00 00 00         ........

00000000800081e8 <.Lanon.7e1ccd7fdb4fe9f61eaf94e993e90966.63>:
800081e8: 86 70 00 80 00 00 00 00         .p......
800081f0: 0b 00 00 00 00 00 00 00         ........
800081f8: cc 02 00 00 15 00 00 00         ........

0000000080008200 <.Lanon.7e1ccd7fdb4fe9f61eaf94e993e90966.64>:
80008200: 86 70 00 80 00 00 00 00         .p......
80008208: 0b 00 00 00 00 00 00 00         ........
80008210: cd 02 00 00 15 00 00 00         ........

0000000080008218 <.Lanon.7e1ccd7fdb4fe9f61eaf94e993e90966.68>:
80008218: 86 70 00 80 00 00 00 00         .p......
80008220: 0b 00 00 00 00 00 00 00         ........
80008228: cb 01 00 00 1f 00 00 00         ........

0000000080008230 <.Lanon.7e1ccd7fdb4fe9f61eaf94e993e90966.69>:
80008230: 86 70 00 80 00 00 00 00         .p......
80008238: 0b 00 00 00 00 00 00 00         ........
80008240: ce 01 00 00 09 00 00 00         ........

0000000080008248 <.Lanon.7e1ccd7fdb4fe9f61eaf94e993e90966.70>:
80008248: 86 70 00 80 00 00 00 00         .p......
80008250: 0b 00 00 00 00 00 00 00         ........
80008258: e1 01 00 00 11 00 00 00         ........

0000000080008260 <.Lanon.7e1ccd7fdb4fe9f61eaf94e993e90966.71>:
80008260: 86 70 00 80 00 00 00 00         .p......
80008268: 0b 00 00 00 00 00 00 00         ........
80008270: e2 01 00 00 30 00 00 00         ....0...

0000000080008278 <.Lanon.7e1ccd7fdb4fe9f61eaf94e993e90966.72>:
80008278: 86 70 00 80 00 00 00 00         .p......
80008280: 0b 00 00 00 00 00 00 00         ........
80008288: e2 01 00 00 11 00 00 00         ........

0000000080008290 <.Lanon.7e1ccd7fdb4fe9f61eaf94e993e90966.73>:
80008290: 86 70 00 80 00 00 00 00         .p......
80008298: 0b 00 00 00 00 00 00 00         ........
800082a0: ec 01 00 00 1a 00 00 00         ........

00000000800082a8 <.Lanon.7e1ccd7fdb4fe9f61eaf94e993e90966.74>:
800082a8: 21 5b 6b 65 72 6e 65 6c         ![kernel
800082b0: 5d 20 75 6e 65 78 70 65         ] unexpe
800082b8: 63 74 65 64 20 73 79 73         cted sys
800082c0: 63 61 6c 6c 3a 20 70 69         call: pi
800082c8: 64 3d c0 04 20 61 37 3d         d=.. a7=
800082d0: c0 04 20 61 30 3d c1 20         .. a0=. 
800082d8: 00 80 60 01 0a 00 00 00         ..`.....

00000000800082e0 <.Lanon.7e1ccd7fdb4fe9f61eaf94e993e90966.75>:
800082e0: 86 70 00 80 00 00 00 00         .p......
800082e8: 0b 00 00 00 00 00 00 00         ........
800082f0: f2 03 00 00 1c 00 00 00         ........

00000000800082f8 <.Lanon.7e1ccd7fdb4fe9f61eaf94e993e90966.76>:
800082f8: 86 70 00 80 00 00 00 00         .p......
80008300: 0b 00 00 00 00 00 00 00         ........
80008308: 3b 03 00 00 20 00 00 00         ;... ...

0000000080008310 <.Lanon.7e1ccd7fdb4fe9f61eaf94e993e90966.77>:
80008310: 86 70 00 80 00 00 00 00         .p......
80008318: 0b 00 00 00 00 00 00 00         ........
80008320: 42 03 00 00 17 00 00 00         B.......

0000000080008328 <.Lanon.7e1ccd7fdb4fe9f61eaf94e993e90966.78>:
80008328: 86 70 00 80 00 00 00 00         .p......
80008330: 0b 00 00 00 00 00 00 00         ........
80008338: 43 03 00 00 15 00 00 00         C.......

0000000080008340 <.Lanon.7e1ccd7fdb4fe9f61eaf94e993e90966.79>:
80008340: 86 70 00 80 00 00 00 00         .p......
80008348: 0b 00 00 00 00 00 00 00         ........
80008350: 4a 03 00 00 17 00 00 00         J.......

0000000080008358 <.Lanon.7e1ccd7fdb4fe9f61eaf94e993e90966.80>:
80008358: 86 70 00 80 00 00 00 00         .p......
80008360: 0b 00 00 00 00 00 00 00         ........
80008368: 4b 03 00 00 15 00 00 00         K.......

0000000080008370 <.Lanon.7e1ccd7fdb4fe9f61eaf94e993e90966.81>:
80008370: 86 70 00 80 00 00 00 00         .p......
80008378: 0b 00 00 00 00 00 00 00         ........
80008380: 80 01 00 00 09 00 00 00         ........

0000000080008388 <.Lanon.7e1ccd7fdb4fe9f61eaf94e993e90966.82>:
80008388: 86 70 00 80 00 00 00 00         .p......
80008390: 0b 00 00 00 00 00 00 00         ........
80008398: 81 01 00 00 09 00 00 00         ........

00000000800083a0 <.Lanon.7e1ccd7fdb4fe9f61eaf94e993e90966.83>:
800083a0: 86 70 00 80 00 00 00 00         .p......
800083a8: 0b 00 00 00 00 00 00 00         ........
800083b0: 79 01 00 00 0d 00 00 00         y.......

00000000800083b8 <.Lanon.7e1ccd7fdb4fe9f61eaf94e993e90966.84>:
800083b8: 86 70 00 80 00 00 00 00         .p......
800083c0: 0b 00 00 00 00 00 00 00         ........
800083c8: 7a 01 00 00 0d 00 00 00         z.......

00000000800083d0 <.Lanon.7e1ccd7fdb4fe9f61eaf94e993e90966.85>:
800083d0: 86 70 00 80 00 00 00 00         .p......
800083d8: 0b 00 00 00 00 00 00 00         ........
800083e0: 7b 01 00 00 0d 00 00 00         {.......

00000000800083e8 <.Lanon.7e1ccd7fdb4fe9f61eaf94e993e90966.86>:
800083e8: 86 70 00 80 00 00 00 00         .p......
800083f0: 0b 00 00 00 00 00 00 00         ........
800083f8: d2 03 00 00 1c 00 00 00         ........

0000000080008400 <.Lanon.7e1ccd7fdb4fe9f61eaf94e993e90966.87>:
80008400: 86 70 00 80 00 00 00 00         .p......
80008408: 0b 00 00 00 00 00 00 00         ........
80008410: ea 03 00 00 20 00 00 00         .... ...

0000000080008418 <.Lanon.7e1ccd7fdb4fe9f61eaf94e993e90966.88>:
80008418: 86 70 00 80 00 00 00 00         .p......
80008420: 0b 00 00 00 00 00 00 00         ........
80008428: f6 03 00 00 1c 00 00 00         ........

0000000080008430 <.Lanon.7e1ccd7fdb4fe9f61eaf94e993e90966.89>:
80008430: 86 70 00 80 00 00 00 00         .p......
80008438: 0b 00 00 00 00 00 00 00         ........
80008440: c6 03 00 00 20 00 00 00         .... ...

0000000080008448 <.Lanon.7e1ccd7fdb4fe9f61eaf94e993e90966.90>:
80008448: 86 70 00 80 00 00 00 00         .p......
80008450: 0b 00 00 00 00 00 00 00         ........
80008458: ee 03 00 00 20 00 00 00         .... ...

0000000080008460 <.Lanon.7e1ccd7fdb4fe9f61eaf94e993e90966.91>:
80008460: 86 70 00 80 00 00 00 00         .p......
80008468: 0b 00 00 00 00 00 00 00         ........
80008470: d6 03 00 00 1c 00 00 00         ........

0000000080008478 <.Lanon.7e1ccd7fdb4fe9f61eaf94e993e90966.92>:
80008478: 86 70 00 80 00 00 00 00         .p......
80008480: 0b 00 00 00 00 00 00 00         ........
80008488: 44 02 00 00 1a 00 00 00         D.......

0000000080008490 <.Lanon.7e1ccd7fdb4fe9f61eaf94e993e90966.93>:
80008490: 86 70 00 80 00 00 00 00         .p......
80008498: 0b 00 00 00 00 00 00 00         ........
800084a0: 48 02 00 00 0d 00 00 00         H.......

00000000800084a8 <.Lanon.7e1ccd7fdb4fe9f61eaf94e993e90966.94>:
800084a8: 86 70 00 80 00 00 00 00         .p......
800084b0: 0b 00 00 00 00 00 00 00         ........
800084b8: 49 02 00 00 32 00 00 00         I...2...

00000000800084c0 <.Lanon.7e1ccd7fdb4fe9f61eaf94e993e90966.95>:
800084c0: 86 70 00 80 00 00 00 00         .p......
800084c8: 0b 00 00 00 00 00 00 00         ........
800084d0: 49 02 00 00 0d 00 00 00         I.......

00000000800084d8 <.Lanon.7e1ccd7fdb4fe9f61eaf94e993e90966.96>:
800084d8: 86 70 00 80 00 00 00 00         .p......
800084e0: 0b 00 00 00 00 00 00 00         ........
800084e8: 4a 02 00 00 30 00 00 00         J...0...

00000000800084f0 <.Lanon.7e1ccd7fdb4fe9f61eaf94e993e90966.97>:
800084f0: 86 70 00 80 00 00 00 00         .p......
800084f8: 0b 00 00 00 00 00 00 00         ........
80008500: 4a 02 00 00 0d 00 00 00         J.......

0000000080008508 <.Lanon.7e1ccd7fdb4fe9f61eaf94e993e90966.98>:
80008508: 86 70 00 80 00 00 00 00         .p......
80008510: 0b 00 00 00 00 00 00 00         ........
80008518: 4b 02 00 00 2f 00 00 00         K.../...

0000000080008520 <.Lanon.7e1ccd7fdb4fe9f61eaf94e993e90966.99>:
80008520: 86 70 00 80 00 00 00 00         .p......
80008528: 0b 00 00 00 00 00 00 00         ........
80008530: 4b 02 00 00 0d 00 00 00         K.......

0000000080008538 <.Lanon.7e1ccd7fdb4fe9f61eaf94e993e90966.100>:
80008538: 86 70 00 80 00 00 00 00         .p......
80008540: 0b 00 00 00 00 00 00 00         ........
80008548: 4c 02 00 00 2f 00 00 00         L.../...

0000000080008550 <.Lanon.7e1ccd7fdb4fe9f61eaf94e993e90966.101>:
80008550: 86 70 00 80 00 00 00 00         .p......
80008558: 0b 00 00 00 00 00 00 00         ........
80008560: 4c 02 00 00 0d 00 00 00         L.......

0000000080008568 <.Lanon.7e1ccd7fdb4fe9f61eaf94e993e90966.102>:
80008568: 86 70 00 80 00 00 00 00         .p......
80008570: 0b 00 00 00 00 00 00 00         ........
80008578: 50 02 00 00 11 00 00 00         P.......

0000000080008580 <.Lanon.7e1ccd7fdb4fe9f61eaf94e993e90966.103>:
80008580: 86 70 00 80 00 00 00 00         .p......
80008588: 0b 00 00 00 00 00 00 00         ........
80008590: 4d 02 00 00 0d 00 00 00         M.......

0000000080008598 <.Lanon.7e1ccd7fdb4fe9f61eaf94e993e90966.104>:
80008598: 86 70 00 80 00 00 00 00         .p......
800085a0: 0b 00 00 00 00 00 00 00         ........
800085a8: 51 02 00 00 11 00 00 00         Q.......

00000000800085b0 <.Lanon.7e1ccd7fdb4fe9f61eaf94e993e90966.105>:
800085b0: 86 70 00 80 00 00 00 00         .p......
800085b8: 0b 00 00 00 00 00 00 00         ........
800085c0: 52 02 00 00 11 00 00 00         R.......

00000000800085c8 <.Lanon.7e1ccd7fdb4fe9f61eaf94e993e90966.106>:
800085c8: 86 70 00 80 00 00 00 00         .p......
800085d0: 0b 00 00 00 00 00 00 00         ........
800085d8: 53 02 00 00 11 00 00 00         S.......

00000000800085e0 <.Lanon.7e1ccd7fdb4fe9f61eaf94e993e90966.107>:
800085e0: 1c 5b 6b 65 72 6e 65 6c         .[kernel
800085e8: 5d 20 68 61 6e 64 6c 65         ] handle
800085f0: 72 20 72 65 70 6f 72 74         r report
800085f8: 20 70 69 64 3d c0 07 20          pid=.. 
80008600: 73 74 61 74 65 3d c0 08         state=..
80008608: 20 73 69 67 6e 75 6d 3d          signum=
80008610: c0 04 20 73 70 3d c1 20         .. sp=. 
80008618: 00 80 60 04 20 72 61 3d         ..`. ra=
80008620: c1 20 00 80 60 01 0a 00         . ..`...

0000000080008628 <.Lanon.7e1ccd7fdb4fe9f61eaf94e993e90966.108>:
80008628: 86 70 00 80 00 00 00 00         .p......
80008630: 0b 00 00 00 00 00 00 00         ........
80008638: 57 02 00 00 0d 00 00 00         W.......

0000000080008640 <.Lanon.7e1ccd7fdb4fe9f61eaf94e993e90966.109>:
80008640: 86 70 00 80 00 00 00 00         .p......
80008648: 0b 00 00 00 00 00 00 00         ........
80008650: 58 02 00 00 34 00 00 00         X...4...

0000000080008658 <.Lanon.7e1ccd7fdb4fe9f61eaf94e993e90966.110>:
80008658: 86 70 00 80 00 00 00 00         .p......
80008660: 0b 00 00 00 00 00 00 00         ........
80008668: 58 02 00 00 0d 00 00 00         X.......

0000000080008670 <.Lanon.7e1ccd7fdb4fe9f61eaf94e993e90966.111>:
80008670: 86 70 00 80 00 00 00 00         .p......
80008678: 0b 00 00 00 00 00 00 00         ........
80008680: 59 02 00 00 30 00 00 00         Y...0...

0000000080008688 <.Lanon.7e1ccd7fdb4fe9f61eaf94e993e90966.112>:
80008688: 86 70 00 80 00 00 00 00         .p......
80008690: 0b 00 00 00 00 00 00 00         ........
80008698: 59 02 00 00 0d 00 00 00         Y.......

00000000800086a0 <.Lanon.7e1ccd7fdb4fe9f61eaf94e993e90966.113>:
800086a0: 86 70 00 80 00 00 00 00         .p......
800086a8: 0b 00 00 00 00 00 00 00         ........
800086b0: 5a 02 00 00 30 00 00 00         Z...0...

00000000800086b8 <.Lanon.7e1ccd7fdb4fe9f61eaf94e993e90966.114>:
800086b8: 86 70 00 80 00 00 00 00         .p......
800086c0: 0b 00 00 00 00 00 00 00         ........
800086c8: 5a 02 00 00 0d 00 00 00         Z.......

00000000800086d0 <.Lanon.7e1ccd7fdb4fe9f61eaf94e993e90966.115>:
800086d0: 86 70 00 80 00 00 00 00         .p......
800086d8: 0b 00 00 00 00 00 00 00         ........
800086e0: 5e 02 00 00 11 00 00 00         ^.......

00000000800086e8 <.Lanon.7e1ccd7fdb4fe9f61eaf94e993e90966.116>:
800086e8: 86 70 00 80 00 00 00 00         .p......
800086f0: 0b 00 00 00 00 00 00 00         ........
800086f8: 5b 02 00 00 0d 00 00 00         [.......

0000000080008700 <.Lanon.7e1ccd7fdb4fe9f61eaf94e993e90966.117>:
80008700: 86 70 00 80 00 00 00 00         .p......
80008708: 0b 00 00 00 00 00 00 00         ........
80008710: 5f 02 00 00 11 00 00 00         _.......

0000000080008718 <.Lanon.7e1ccd7fdb4fe9f61eaf94e993e90966.118>:
80008718: 86 70 00 80 00 00 00 00         .p......
80008720: 0b 00 00 00 00 00 00 00         ........
80008728: 60 02 00 00 11 00 00 00         `.......

0000000080008730 <.Lanon.7e1ccd7fdb4fe9f61eaf94e993e90966.120>:
80008730: 75 6e 6b 6e 6f 77 6e 20         unknown 
80008738: 72 65 70 6f 72 74 20 70         report p
80008740: 68 61 73 65 00 00 00 00         hase....

0000000080008748 <.Lanon.7e1ccd7fdb4fe9f61eaf94e993e90966.121>:
80008748: 86 70 00 80 00 00 00 00         .p......
80008750: 0b 00 00 00 00 00 00 00         ........
80008758: ca 03 00 00 20 00 00 00         .... ...

0000000080008760 <.Lanon.7e1ccd7fdb4fe9f61eaf94e993e90966.122>:
80008760: 86 70 00 80 00 00 00 00         .p......
80008768: 0b 00 00 00 00 00 00 00         ........
80008770: da 03 00 00 1c 00 00 00         ........

0000000080008778 <.Lanon.7e1ccd7fdb4fe9f61eaf94e993e90966.123>:
80008778: 86 70 00 80 00 00 00 00         .p......
80008780: 0b 00 00 00 00 00 00 00         ........
80008788: ee 02 00 00 11 00 00 00         ........

0000000080008790 <.Lanon.7e1ccd7fdb4fe9f61eaf94e993e90966.124>:
80008790: 86 70 00 80 00 00 00 00         .p......
80008798: 0b 00 00 00 00 00 00 00         ........
800087a0: ce 03 00 00 20 00 00 00         .... ...

00000000800087a8 <.Lanon.7e1ccd7fdb4fe9f61eaf94e993e90966.125>:
800087a8: 86 70 00 80 00 00 00 00         .p......
800087b0: 0b 00 00 00 00 00 00 00         ........
800087b8: f7 02 00 00 15 00 00 00         ........

00000000800087c0 <.Lanon.7e1ccd7fdb4fe9f61eaf94e993e90966.126>:
800087c0: 86 70 00 80 00 00 00 00         .p......
800087c8: 0b 00 00 00 00 00 00 00         ........
800087d0: 99 01 00 00 09 00 00 00         ........

00000000800087d8 <.Lanon.7e1ccd7fdb4fe9f61eaf94e993e90966.127>:
800087d8: 86 70 00 80 00 00 00 00         .p......
800087e0: 0b 00 00 00 00 00 00 00         ........
800087e8: 9d 01 00 00 24 00 00 00         ....$...

00000000800087f0 <.Lanon.7e1ccd7fdb4fe9f61eaf94e993e90966.128>:
800087f0: 86 70 00 80 00 00 00 00         .p......
800087f8: 0b 00 00 00 00 00 00 00         ........
80008800: 9d 01 00 00 16 00 00 00         ........

0000000080008808 <.Lanon.7e1ccd7fdb4fe9f61eaf94e993e90966.129>:
80008808: 86 70 00 80 00 00 00 00         .p......
80008810: 0b 00 00 00 00 00 00 00         ........
80008818: 9e 01 00 00 0d 00 00 00         ........

0000000080008820 <.Lanon.7e1ccd7fdb4fe9f61eaf94e993e90966.130>:
80008820: 86 70 00 80 00 00 00 00         .p......
80008828: 0b 00 00 00 00 00 00 00         ........
80008830: 68 02 00 00 21 00 00 00         h...!...

0000000080008838 <.Lanon.7e1ccd7fdb4fe9f61eaf94e993e90966.131>:
80008838: 86 70 00 80 00 00 00 00         .p......
80008840: 0b 00 00 00 00 00 00 00         ........
80008848: 69 02 00 00 22 00 00 00         i..."...

0000000080008850 <.Lanon.7e1ccd7fdb4fe9f61eaf94e993e90966.132>:
80008850: 86 70 00 80 00 00 00 00         .p......
80008858: 0b 00 00 00 00 00 00 00         ........
80008860: 70 02 00 00 1c 00 00 00         p.......

0000000080008868 <.Lanon.7e1ccd7fdb4fe9f61eaf94e993e90966.133>:
80008868: 86 70 00 80 00 00 00 00         .p......
80008870: 0b 00 00 00 00 00 00 00         ........
80008878: 76 02 00 00 20 00 00 00         v... ...

0000000080008880 <.Lanon.7e1ccd7fdb4fe9f61eaf94e993e90966.134>:
80008880: 86 70 00 80 00 00 00 00         .p......
80008888: 0b 00 00 00 00 00 00 00         ........
80008890: 77 02 00 00 1d 00 00 00         w.......

0000000080008898 <.Lanon.7e1ccd7fdb4fe9f61eaf94e993e90966.135>:
80008898: 86 70 00 80 00 00 00 00         .p......
800088a0: 0b 00 00 00 00 00 00 00         ........
800088a8: 7b 02 00 00 19 00 00 00         {.......

00000000800088b0 <.Lanon.7e1ccd7fdb4fe9f61eaf94e993e90966.136>:
800088b0: 86 70 00 80 00 00 00 00         .p......
800088b8: 0b 00 00 00 00 00 00 00         ........
800088c0: 7e 02 00 00 2d 00 00 00         ~...-...

00000000800088c8 <.Lanon.7e1ccd7fdb4fe9f61eaf94e993e90966.137>:
800088c8: 86 70 00 80 00 00 00 00         .p......
800088d0: 0b 00 00 00 00 00 00 00         ........
800088d8: 7e 02 00 00 09 00 00 00         ~.......

00000000800088e0 <.Lanon.7e1ccd7fdb4fe9f61eaf94e993e90966.138>:
800088e0: 86 70 00 80 00 00 00 00         .p......
800088e8: 0b 00 00 00 00 00 00 00         ........
800088f0: 7f 02 00 00 09 00 00 00         ........

00000000800088f8 <.Lanon.7e1ccd7fdb4fe9f61eaf94e993e90966.139>:
800088f8: 86 70 00 80 00 00 00 00         .p......
80008900: 0b 00 00 00 00 00 00 00         ........
80008908: 80 02 00 00 09 00 00 00         ........

0000000080008910 <.Lanon.7e1ccd7fdb4fe9f61eaf94e993e90966.140>:
80008910: 86 70 00 80 00 00 00 00         .p......
80008918: 0b 00 00 00 00 00 00 00         ........
80008920: 82 02 00 00 09 00 00 00         ........

0000000080008928 <.Lanon.7e1ccd7fdb4fe9f61eaf94e993e90966.141>:
80008928: 86 70 00 80 00 00 00 00         .p......
80008930: 0b 00 00 00 00 00 00 00         ........
80008938: 83 02 00 00 09 00 00 00         ........

0000000080008940 <.Lanon.7e1ccd7fdb4fe9f61eaf94e993e90966.142>:
80008940: 86 70 00 80 00 00 00 00         .p......
80008948: 0b 00 00 00 00 00 00 00         ........
80008950: 84 02 00 00 09 00 00 00         ........

0000000080008958 <.Lanon.7e1ccd7fdb4fe9f61eaf94e993e90966.143>:
80008958: 86 70 00 80 00 00 00 00         .p......
80008960: 0b 00 00 00 00 00 00 00         ........
80008968: 85 02 00 00 09 00 00 00         ........

0000000080008970 <.Lanon.7e1ccd7fdb4fe9f61eaf94e993e90966.144>:
80008970: 86 70 00 80 00 00 00 00         .p......
80008978: 0b 00 00 00 00 00 00 00         ........
80008980: 87 02 00 00 09 00 00 00         ........

0000000080008988 <.Lanon.7e1ccd7fdb4fe9f61eaf94e993e90966.145>:
80008988: 86 70 00 80 00 00 00 00         .p......
80008990: 0b 00 00 00 00 00 00 00         ........
80008998: 88 02 00 00 09 00 00 00         ........

00000000800089a0 <.Lanon.7e1ccd7fdb4fe9f61eaf94e993e90966.146>:
800089a0: 86 70 00 80 00 00 00 00         .p......
800089a8: 0b 00 00 00 00 00 00 00         ........
800089b0: 89 02 00 00 09 00 00 00         ........

00000000800089b8 <.Lanon.7e1ccd7fdb4fe9f61eaf94e993e90966.147>:
800089b8: 86 70 00 80 00 00 00 00         .p......
800089c0: 0b 00 00 00 00 00 00 00         ........
800089c8: 8a 02 00 00 09 00 00 00         ........

00000000800089d0 <.Lanon.7e1ccd7fdb4fe9f61eaf94e993e90966.148>:
800089d0: 86 70 00 80 00 00 00 00         .p......
800089d8: 0b 00 00 00 00 00 00 00         ........
800089e0: 8b 02 00 00 09 00 00 00         ........

00000000800089e8 <.Lanon.7e1ccd7fdb4fe9f61eaf94e993e90966.149>:
800089e8: 1d 5b 6b 65 72 6e 65 6c         .[kernel
800089f0: 5d 20 64 69 73 70 61 74         ] dispat
800089f8: 63 68 20 73 69 67 6e 61         ch signa
80008a00: 6c 20 70 69 64 3d c0 08         l pid=..
80008a08: 20 73 69 67 6e 75 6d 3d          signum=
80008a10: c0 0b 20 73 61 76 65 64         .. saved
80008a18: 5f 65 70 63 3d c1 20 00         _epc=. .
80008a20: 80 60 0a 20 73 61 76 65         .`. save
80008a28: 64 5f 73 70 3d c1 20 00         d_sp=. .
80008a30: 80 60 0d 20 68 61 6e 64         .`. hand
80008a38: 6c 65 72 5f 65 70 63 3d         ler_epc=
80008a40: c1 20 00 80 60 08 20 6e         . ..`. n
80008a48: 65 77 5f 73 70 3d c1 20         ew_sp=. 
80008a50: 00 80 60 0c 20 74 72 61         ..`. tra
80008a58: 6d 70 6f 6c 69 6e 65 3d         mpoline=
80008a60: c1 20 00 80 60 01 0a 00         . ..`...

0000000080008a68 <.Lanon.7e1ccd7fdb4fe9f61eaf94e993e90966.150>:
80008a68: 70 65 6e 64 69 6e 67 20         pending 
80008a70: 73 69 67 6e 61 6c 20 68         signal h
80008a78: 61 73 20 6e 6f 20 72 65         as no re
80008a80: 67 69 73 74 65 72 65 64         gistered
80008a88: 20 68 61 6e 64 6c 65 72          handler

0000000080008a90 <.Lanon.7e1ccd7fdb4fe9f61eaf94e993e90966.151>:
80008a90: 86 70 00 80 00 00 00 00         .p......
80008a98: 0b 00 00 00 00 00 00 00         ........
80008aa0: 08 02 00 00 1b 00 00 00         ........

0000000080008aa8 <.Lanon.7e1ccd7fdb4fe9f61eaf94e993e90966.152>:
80008aa8: 86 70 00 80 00 00 00 00         .p......
80008ab0: 0b 00 00 00 00 00 00 00         ........
80008ab8: 09 02 00 00 1b 00 00 00         ........

0000000080008ac0 <.Lanon.7e1ccd7fdb4fe9f61eaf94e993e90966.153>:
80008ac0: 86 70 00 80 00 00 00 00         .p......
80008ac8: 0b 00 00 00 00 00 00 00         ........
80008ad0: 10 02 00 00 2f 00 00 00         ..../...

0000000080008ad8 <.Lanon.7e1ccd7fdb4fe9f61eaf94e993e90966.154>:
80008ad8: 86 70 00 80 00 00 00 00         .p......
80008ae0: 0b 00 00 00 00 00 00 00         ........
80008ae8: 10 02 00 00 09 00 00 00         ........

0000000080008af0 <.Lanon.7e1ccd7fdb4fe9f61eaf94e993e90966.155>:
80008af0: 86 70 00 80 00 00 00 00         .p......
80008af8: 0b 00 00 00 00 00 00 00         ........
80008b00: 11 02 00 00 09 00 00 00         ........

0000000080008b08 <.Lanon.7e1ccd7fdb4fe9f61eaf94e993e90966.156>:
80008b08: 86 70 00 80 00 00 00 00         .p......
80008b10: 0b 00 00 00 00 00 00 00         ........
80008b18: 12 02 00 00 09 00 00 00         ........

0000000080008b20 <.Lanon.7e1ccd7fdb4fe9f61eaf94e993e90966.157>:
80008b20: 86 70 00 80 00 00 00 00         .p......
80008b28: 0b 00 00 00 00 00 00 00         ........
80008b30: 1a 02 00 00 12 00 00 00         ........

0000000080008b38 <.Lanon.7e1ccd7fdb4fe9f61eaf94e993e90966.158>:
80008b38: 19 5b 6b 65 72 6e 65 6c         .[kernel
80008b40: 5d 20 6b 69 6c 6c 20 73         ] kill s
80008b48: 65 6e 64 65 72 5f 70 69         ender_pi
80008b50: 64 3d c0 0c 20 74 61 72         d=.. tar
80008b58: 67 65 74 5f 70 69 64 3d         get_pid=
80008b60: c0 08 20 73 69 67 6e 75         .. signu
80008b68: 6d 3d c0 0e 20 70 65 6e         m=.. pen
80008b70: 64 69 6e 67 5f 6d 61 73         ding_mas
80008b78: 6b 3d c1 20 00 80 60 01         k=. ..`.
80008b80: 0a 00                           ..

0000000080008b82 <.Lanon.7e1ccd7fdb4fe9f61eaf94e993e90966.159>:
80008b82: 6b 69 6c 6c 20 74 61 72         kill tar
80008b8a: 67 65 74 20 6f 72 20 73         get or s
80008b92: 69 67 6e 75 6d 20 6f 75         ignum ou
80008b9a: 74 20 6f 66 20 72 61 6e         t of ran
80008ba2: 67 65 00 00 00 00               ge....

0000000080008ba8 <.Lanon.7e1ccd7fdb4fe9f61eaf94e993e90966.160>:
80008ba8: 86 70 00 80 00 00 00 00         .p......
80008bb0: 0b 00 00 00 00 00 00 00         ........
80008bb8: 1d 04 00 00 24 00 00 00         ....$...
80008bc0: 46 41 49 4c 50 41 53 53         FAILPASS

0000000080008bc8 <.Lanon.7e1ccd7fdb4fe9f61eaf94e993e90966.163>:
80008bc8: 86 70 00 80 00 00 00 00         .p......
80008bd0: 0b 00 00 00 00 00 00 00         ........
80008bd8: 2e 04 00 00 09 00 00 00         ........

0000000080008be0 <.Lanon.7e1ccd7fdb4fe9f61eaf94e993e90966.164>:
80008be0: 86 70 00 80 00 00 00 00         .p......
80008be8: 0b 00 00 00 00 00 00 00         ........
80008bf0: 8a 03 00 00 1a 00 00 00         ........

0000000080008bf8 <.Lanon.7e1ccd7fdb4fe9f61eaf94e993e90966.166>:
80008bf8: f2 70 00 80 00 00 00 00         .p......
80008c00: 4b 00 00 00 00 00 00 00         K.......
80008c08: bc 02 00 00 09 00 00 00         ........

0000000080008c10 <.Lanon.7e1ccd7fdb4fe9f61eaf94e993e90966.167>:
80008c10: f2 70 00 80 00 00 00 00         .p......
80008c18: 4b 00 00 00 00 00 00 00         K.......
80008c20: 0f 02 00 00 05 00 00 00         ........

0000000080008c28 <.Lanon.7e1ccd7fdb4fe9f61eaf94e993e90966.169>:
80008c28: 86 70 00 80 00 00 00 00         .p......
80008c30: 0b 00 00 00 00 00 00 00         ........
80008c38: e4 00 00 00 0d 00 00 00         ........

0000000080008c40 <.Lanon.7e1ccd7fdb4fe9f61eaf94e993e90966.170>:
80008c40: 29 5b 6b 65 72 6e 65 6c         )[kernel
80008c48: 5d 20 75 6e 65 78 70 65         ] unexpe
80008c50: 63 74 65 64 20 6d 61 63         cted mac
80008c58: 68 69 6e 65 20 74 72 61         hine tra
80008c60: 70 3a 20 6d 63 61 75 73         p: mcaus
80008c68: 65 3d c1 20 00 80 60 06         e=. ..`.
80008c70: 20 6d 65 70 63 3d c1 20          mepc=. 
80008c78: 00 80 60 07 20 6d 74 76         ..`. mtv
80008c80: 61 6c 3d c1 20 00 80 60         al=. ..`
80008c88: 01 0a 00 00 00 00 00 00         ........

0000000080008c90 <.Lanon.7e1ccd7fdb4fe9f61eaf94e993e90966.171>:
80008c90: 86 70 00 80 00 00 00 00         .p......
80008c98: 0b 00 00 00 00 00 00 00         ........
80008ca0: 4b 01 00 00 18 00 00 00         K.......

0000000080008ca8 <.Lanon.7e1ccd7fdb4fe9f61eaf94e993e90966.172>:
80008ca8: 86 70 00 80 00 00 00 00         .p......
80008cb0: 0b 00 00 00 00 00 00 00         ........
80008cb8: 50 01 00 00 09 00 00 00         P.......

0000000080008cc0 <.Lanon.7e1ccd7fdb4fe9f61eaf94e993e90966.173>:
80008cc0: 86 70 00 80 00 00 00 00         .p......
80008cc8: 0b 00 00 00 00 00 00 00         ........
80008cd0: 60 01 00 00 0d 00 00 00         `.......

0000000080008cd8 <.Lanon.7e1ccd7fdb4fe9f61eaf94e993e90966.174>:
80008cd8: 86 70 00 80 00 00 00 00         .p......
80008ce0: 0b 00 00 00 00 00 00 00         ........
80008ce8: 65 01 00 00 16 00 00 00         e.......

0000000080008cf0 <.Lanon.7e1ccd7fdb4fe9f61eaf94e993e90966.175>:
80008cf0: 29 5b 6b 65 72 6e 65 6c         )[kernel
80008cf8: 5d 20 75 6e 65 78 70 65         ] unexpe
80008d00: 63 74 65 64 20 73 75 70         cted sup
80008d08: 65 72 76 69 73 6f 72 20         ervisor 
80008d10: 74 72 61 70 3a 20 70 69         trap: pi
80008d18: 64 3d c0 08 20 73 63 61         d=.. sca
80008d20: 75 73 65 3d c1 20 00 80         use=. ..
80008d28: 60 06 20 73 65 70 63 3d         `. sepc=
80008d30: c1 20 00 80 60 07 20 73         . ..`. s
80008d38: 74 76 61 6c 3d c1 20 00         tval=. .
80008d40: 80 60 01 0a 00                  .`...

0000000080008d45 <.Lanon.7e1ccd7fdb4fe9f61eaf94e993e90966.176>:
80008d45: 5b 6b 65 72 6e 65 6c 5d         [kernel]
80008d4d: 20 62 6f 6f 74 65 64 20          booted 
80008d55: 69 6e 20 53 2d 6d 6f 64         in S-mod
80008d5d: 65 20 77 69 74 68 20 53         e with S
80008d65: 76 33 39 20 65 6e 61 62         v39 enab
80008d6d: 6c 65 64 0a                     led.

0000000080008d71 <.Lanon.7e1ccd7fdb4fe9f61eaf94e993e90966.177>:
80008d71: 5b 6b 65 72 6e 65 6c 5d         [kernel]
80008d79: 20 4c 41 42 37 20 6b 65          LAB7 ke
80008d81: 72 6e 65 6c 20 74 61 73         rnel tas
80008d89: 6b 32 20 73 69 67 6e 61         k2 signa
80008d91: 6c 20 64 65 6c 69 76 65         l delive
80008d99: 72 79 20 61 6e 64 20 73         ry and s
80008da1: 69 67 72 65 74 75 72 6e         igreturn
80008da9: 0a                              .

0000000080008daa <.Lanon.7e1ccd7fdb4fe9f61eaf94e993e90966.178>:
80008daa: 5b 6b 65 72 6e 65 6c 5d         [kernel]
80008db2: 20 6d 6f 64 65 6c 3a 20          model: 
80008dba: 72 65 63 65 69 76 65 72         receiver
80008dc2: 20 70 69 64 3d 30 20 72          pid=0 r
80008dca: 65 67 69 73 74 65 72 73         egisters
80008dd2: 20 53 49 47 55 53 52 31          SIGUSR1
80008dda: 20 68 61 6e 64 6c 65 72          handler
80008de2: 2c 20 73 65 6e 64 65 72         , sender
80008dea: 20 70 69 64 3d 31 20 6d          pid=1 m
80008df2: 61 72 6b 73 20 70 65 6e         arks pen
80008dfa: 64 69 6e 67 20 73 69 67         ding sig
80008e02: 6e 61 6c 2c 20 6b 65 72         nal, ker
80008e0a: 6e 65 6c 20 72 65 77 72         nel rewr
80008e12: 69 74 65 73 20 74 72 61         ites tra
80008e1a: 70 20 66 72 61 6d 65 20         p frame 
80008e22: 62 65 66 6f 72 65 20 72         before r
80008e2a: 65 74 75 72 6e 69 6e 67         eturning
80008e32: 20 74 6f 20 75 73 65 72          to user
80008e3a: 0a                              .

0000000080008e3b <.Lanon.7e1ccd7fdb4fe9f61eaf94e993e90966.179>:
80008e3b: 28 5b 6b 65 72 6e 65 6c         ([kernel
80008e43: 5d 20 65 78 70 65 63 74         ] expect
80008e4b: 65 64 20 75 73 65 72 20         ed user 
80008e53: 73 79 6d 62 6f 6c 73 3a         symbols:
80008e5b: 20 68 61 6e 64 6c 65 72          handler
80008e63: 3d c1 20 00 80 60 08 20         =. ..`. 
80008e6b: 72 65 73 75 6d 65 3d c1         resume=.
80008e73: 20 00 80 60 0c 20 74 72          ..`. tr
80008e7b: 61 6d 70 6f 6c 69 6e 65         ampoline
80008e83: 3d c1 20 00 80 60 01 0a         =. ..`..
80008e8b: 00                              .

0000000080008e8c <.Lanon.7e1ccd7fdb4fe9f61eaf94e993e90966.180>:
80008e8c: 72 65 63 65 69 76 65 72         receiver
80008e94: 5f 74 65 78 74                  _text

0000000080008e99 <.Lanon.7e1ccd7fdb4fe9f61eaf94e993e90966.181>:
80008e99: 72 65 63 65 69 76 65 72         receiver
80008ea1: 5f 64 61 74 61                  _data

0000000080008ea6 <.Lanon.7e1ccd7fdb4fe9f61eaf94e993e90966.182>:
80008ea6: 72 65 63 65 69 76 65 72         receiver
80008eae: 5f 73 74 61 63 6b 00 00         _stack..
80008eb6: 00 00                           ..

0000000080008eb8 <.Lanon.7e1ccd7fdb4fe9f61eaf94e993e90966.183>:
80008eb8: 86 70 00 80 00 00 00 00         .p......
80008ec0: 0b 00 00 00 00 00 00 00         ........
80008ec8: 35 01 00 00 09 00 00 00         5.......

0000000080008ed0 <.Lanon.19cc3888c68d7e174635d431b9a71ab3.0>:
80008ed0: 69 73 5f 6e 6f 6e 6f 76         is_nonov
80008ed8: 65 72 6c 61 70 70 69 6e         erlappin
80008ee0: 67 3a 20 60 73 69 7a 65         g: `size
80008ee8: 5f 6f 66 3a 3a 3c 54 3e         _of::<T>
80008ef0: 28 29 20 2a 20 63 6f 75         () * cou
80008ef8: 6e 74 60 20 6f 76 65 72         nt` over
80008f00: 66 6c 6f 77 73 20 61 20         flows a 
80008f08: 75 73 69 7a 65 00 00 00         usize...

0000000080008f10 <.Lanon.1c28329066e5cfbae010f74af22e8c6b.2>:
80008f10: 53 71 00 80 00 00 00 00         Sq......
80008f18: 53 00 00 00 00 00 00 00         S.......
80008f20: 3f 00 00 00 25 00 00 00         ?...%...

0000000080008f28 <.Lanon.1c28329066e5cfbae010f74af22e8c6b.4>:
80008f28: 53 75 00 80 00 00 00 00         Su......
80008f30: 59 00 00 00 00 00 00 00         Y.......
80008f38: ae 00 00 00 20 00 00 00         .... ...

0000000080008f40 <.Lanon.bca632dac71c523cfe958a83baaa6844.1>:
80008f40: 79 73 00 80 00 00 00 00         ys......
80008f48: 0e 00 00 00 00 00 00 00         ........
80008f50: 09 00 00 00 0d 00 00 00         ........

0000000080008f58 <.Lanon.bca632dac71c523cfe958a83baaa6844.2>:
80008f58: 79 73 00 80 00 00 00 00         ys......
80008f60: 0e 00 00 00 00 00 00 00         ........
80008f68: 0b 00 00 00 09 00 00 00         ........
80008f70: 4b 59 86 38 d6 c5 6d 34         KY.8..m4

0000000080008f78 <.Lanon.536f2323b683c81b361b85010efd6979.10>:
80008f78: 30 30 30 31 30 32 30 33         00010203
80008f80: 30 34 30 35 30 36 30 37         04050607
80008f88: 30 38 30 39 31 30 31 31         08091011
80008f90: 31 32 31 33 31 34 31 35         12131415
80008f98: 31 36 31 37 31 38 31 39         16171819
80008fa0: 32 30 32 31 32 32 32 33         20212223
80008fa8: 32 34 32 35 32 36 32 37         24252627
80008fb0: 32 38 32 39 33 30 33 31         28293031
80008fb8: 33 32 33 33 33 34 33 35         32333435
80008fc0: 33 36 33 37 33 38 33 39         36373839
80008fc8: 34 30 34 31 34 32 34 33         40414243
80008fd0: 34 34 34 35 34 36 34 37         44454647
80008fd8: 34 38 34 39 35 30 35 31         48495051
80008fe0: 35 32 35 33 35 34 35 35         52535455
80008fe8: 35 36 35 37 35 38 35 39         56575859
80008ff0: 36 30 36 31 36 32 36 33         60616263
80008ff8: 36 34 36 35 36 36 36 37         64656667
80009000: 36 38 36 39 37 30 37 31         68697071
80009008: 37 32 37 33 37 34 37 35         72737475
80009010: 37 36 37 37 37 38 37 39         76777879
80009018: 38 30 38 31 38 32 38 33         80818283
80009020: 38 34 38 35 38 36 38 37         84858687
80009028: 38 38 38 39 39 30 39 31         88899091
80009030: 39 32 39 33 39 34 39 35         92939495
80009038: 39 36 39 37 39 38 39 39         96979899

0000000080009040 <.Lanon.536f2323b683c81b361b85010efd6979.22>:
80009040: 5f 74 00 80 00 00 00 00         _t......
80009048: 4b 00 00 00 00 00 00 00         K.......
80009050: 57 02 00 00 05 00 00 00         W.......

0000000080009058 <.Lanon.536f2323b683c81b361b85010efd6979.31>:
80009058: 30 78                           0x

000000008000905a <.Lanon.536f2323b683c81b361b85010efd6979.80>:
8000905a: 61 74 74 65 6d 70 74 20         attempt 
80009062: 74 6f 20 61 64 64 20 77         to add w
8000906a: 69 74 68 20 6f 76 65 72         ith over
80009072: 66 6c 6f 77                     flow

0000000080009076 <.Lanon.536f2323b683c81b361b85010efd6979.82>:
80009076: 61 74 74 65 6d 70 74 20         attempt 
8000907e: 74 6f 20 6d 75 6c 74 69         to multi
80009086: 70 6c 79 20 77 69 74 68         ply with
8000908e: 20 6f 76 65 72 66 6c 6f          overflo
80009096: 77                              w

0000000080009097 <.Lanon.536f2323b683c81b361b85010efd6979.85>:
80009097: 61 74 74 65 6d 70 74 20         attempt 
8000909f: 74 6f 20 73 68 69 66 74         to shift
800090a7: 20 6c 65 66 74 20 77 69          left wi
800090af: 74 68 20 6f 76 65 72 66         th overf
800090b7: 6c 6f 77                        low

00000000800090ba <.Lanon.536f2323b683c81b361b85010efd6979.87>:
800090ba: 61 74 74 65 6d 70 74 20         attempt 
800090c2: 74 6f 20 73 75 62 74 72         to subtr
800090ca: 61 63 74 20 77 69 74 68         act with
800090d2: 20 6f 76 65 72 66 6c 6f          overflo
800090da: 77                              w

00000000800090db <.Lanon.536f2323b683c81b361b85010efd6979.259>:
800090db: 61 74 74 65 6d 70 74 20         attempt 
800090e3: 74 6f 20 64 69 76 69 64         to divid
800090eb: 65 20 62 79 20 7a 65 72         e by zer
800090f3: 6f 00 00 00 00                  o....

00000000800090f8 <.Lanon.536f2323b683c81b361b85010efd6979.277>:
800090f8: ad 75 00 80 00 00 00 00         .u......
80009100: 4d 00 00 00 00 00 00 00         M.......
80009108: e1 00 00 00 05 00 00 00         ........

0000000080009110 <.Lanon.536f2323b683c81b361b85010efd6979.288>:
80009110: 6e 75 6c 6c 20 70 6f 69         null poi
80009118: 6e 74 65 72 20 64 65 72         nter der
80009120: 65 66 65 72 65 6e 63 65         eference
80009128: 20 6f 63 63 75 72 72 65          occurre
80009130: 64                              d

0000000080009131 <.Lanon.536f2323b683c81b361b85010efd6979.290>:
80009131: 3e 6d 69 73 61 6c 69 67         >misalig
80009139: 6e 65 64 20 70 6f 69 6e         ned poin
80009141: 74 65 72 20 64 65 72 65         ter dere
80009149: 66 65 72 65 6e 63 65 3a         ference:
80009151: 20 61 64 64 72 65 73 73          address
80009159: 20 6d 75 73 74 20 62 65          must be
80009161: 20 61 20 6d 75 6c 74 69          a multi
80009169: 70 6c 65 20 6f 66 20 c1         ple of .
80009171: 20 00 80 60 08 20 62 75          ..`. bu
80009179: 74 20 69 73 20 c1 20 00         t is . .
80009181: 80 60 00                        .`.

0000000080009184 <.Lanon.536f2323b683c81b361b85010efd6979.399>:
80009184: 70 61 6e 69 63 6b 65 64         panicked
8000918c: 20 61 74 20                      at 

0000000080009190 <.Lanon.536f2323b683c81b361b85010efd6979.400>:
80009190: 3a 0a                           :.
