
lab5_kernel_task3:	file format elf64-littleriscv

Disassembly of section .text:

0000000080000000 <_start>:
80000000: f1402573     	csrr	a0, mhartid

0000000080000004 <.Lpcrel_hi0>:
80000004: 00037297     	auipc	t0, 0x37
80000008: f7c28293     	addi	t0, t0, -0x84
8000000c: 6311         	lui	t1, 0x4
8000000e: 026503b3     	mul	t2, a0, t1
80000012: 40728133     	sub	sp, t0, t2
80000016: cd11         	beqz	a0, 0x80000032 <.Lpcrel_hi1+0x1a>

0000000080000018 <.Lpcrel_hi1>:
80000018: 00007297     	auipc	t0, 0x7
8000001c: d9828293     	addi	t0, t0, -0x268
80000020: 0002b303     	ld	t1, 0x0(t0)
80000024: fe030ee3     	beqz	t1, 0x80000020 <.Lpcrel_hi1+0x8>
80000028: 00003097     	auipc	ra, 0x3
8000002c: 832080e7     	jalr	-0x7ce(ra) <start_secondary>
80000030: a029         	j	0x8000003a <.Lpcrel_hi1+0x22>
80000032: 00002097     	auipc	ra, 0x2
80000036: 59a080e7     	jalr	0x59a(ra) <start_primary>
8000003a: a001         	j	0x8000003a <.Lpcrel_hi1+0x22>

000000008000003c <lab5_kernel_task3::console::write_byte::h86e49ccd2c504c28>:
8000003c: 1101         	addi	sp, sp, -0x20
8000003e: ec06         	sd	ra, 0x18(sp)
80000040: 85aa         	mv	a1, a0
80000042: e42e         	sd	a1, 0x8(sp)
80000044: 00a10ba3     	sb	a0, 0x17(sp)
80000048: 45a9         	li	a1, 0xa
8000004a: 02b50363     	beq	a0, a1, 0x80000070 <.Lpcrel_hi1>
8000004e: a009         	j	0x80000050 <lab5_kernel_task3::console::write_byte::h86e49ccd2c504c28+0x14>
80000050: 6522         	ld	a0, 0x8(sp)
80000052: 0ff57593     	zext.b	a1, a0

0000000080000056 <.Lpcrel_hi0>:
80000056: 00005517     	auipc	a0, 0x5
8000005a: 6a250613     	addi	a2, a0, 0x6a2
8000005e: 10000537     	lui	a0, 0x10000
80000062: 00003097     	auipc	ra, 0x3
80000066: 8fe080e7     	jalr	-0x702(ra) <core::ptr::write_volatile::hc5a1ef04a6bbdf17>
8000006a: 60e2         	ld	ra, 0x18(sp)
8000006c: 6105         	addi	sp, sp, 0x20
8000006e: 8082         	ret

0000000080000070 <.Lpcrel_hi1>:
80000070: 00005517     	auipc	a0, 0x5
80000074: 67050613     	addi	a2, a0, 0x670
80000078: 10000537     	lui	a0, 0x10000
8000007c: 45b5         	li	a1, 0xd
8000007e: 00003097     	auipc	ra, 0x3
80000082: 8e2080e7     	jalr	-0x71e(ra) <core::ptr::write_volatile::hc5a1ef04a6bbdf17>
80000086: b7e9         	j	0x80000050 <lab5_kernel_task3::console::write_byte::h86e49ccd2c504c28+0x14>

0000000080000088 <lab5_kernel_task3::console::print::h4512414521490714>:
80000088: 7139         	addi	sp, sp, -0x40
8000008a: fc06         	sd	ra, 0x38(sp)
8000008c: e42e         	sd	a1, 0x8(sp)
8000008e: e02a         	sd	a0, 0x0(sp)
80000090: f02a         	sd	a0, 0x20(sp)
80000092: f42e         	sd	a1, 0x28(sp)

0000000080000094 <.Lpcrel_hi2>:
80000094: 00007517     	auipc	a0, 0x7
80000098: d6c50513     	addi	a0, a0, -0x294
8000009c: 00000097     	auipc	ra, 0x0
800000a0: 55a080e7     	jalr	0x55a(ra) <lab5_kernel_task3::spinlock::SpinLock$LT$T$GT$::lock::h28a1b0dcda53f329>
800000a4: 6582         	ld	a1, 0x0(sp)
800000a6: 6622         	ld	a2, 0x8(sp)
800000a8: e82a         	sd	a0, 0x10(sp)
800000aa: 01f10513     	addi	a0, sp, 0x1f
800000ae: 00004097     	auipc	ra, 0x4
800000b2: df2080e7     	jalr	-0x20e(ra) <core::fmt::Write::write_fmt::h0d36f0c220588a74>
800000b6: 0808         	addi	a0, sp, 0x10
800000b8: 00004097     	auipc	ra, 0x4
800000bc: d28080e7     	jalr	-0x2d8(ra) <core::ptr::drop_in_place$LT$lab5_kernel_task3..spinlock..SpinLockGuard$LT$$LP$$RP$$GT$$GT$::h139c532d1e23d0fe>
800000c0: 70e2         	ld	ra, 0x38(sp)
800000c2: 6121         	addi	sp, sp, 0x40
800000c4: 8082         	ret

00000000800000c6 <_$LT$lab5_kernel_task3..console..KernelConsole$u20$as$u20$core..fmt..Write$GT$::write_str::h1d82c921b143e5ac>:
800000c6: 715d         	addi	sp, sp, -0x50
800000c8: e486         	sd	ra, 0x48(sp)
800000ca: e032         	sd	a2, 0x0(sp)
800000cc: 862e         	mv	a2, a1
800000ce: 6582         	ld	a1, 0x0(sp)
800000d0: e432         	sd	a2, 0x8(sp)
800000d2: 862a         	mv	a2, a0
800000d4: 6522         	ld	a0, 0x8(sp)
800000d6: f432         	sd	a2, 0x28(sp)
800000d8: f82a         	sd	a0, 0x30(sp)
800000da: fc2e         	sd	a1, 0x38(sp)
800000dc: 00004097     	auipc	ra, 0x4
800000e0: ce4080e7     	jalr	-0x31c(ra) <core::str::_$LT$impl$u20$str$GT$::bytes::h840a04d2fb3154d5>
800000e4: 00000097     	auipc	ra, 0x0
800000e8: 0d4080e7     	jalr	0xd4(ra) <_$LT$I$u20$as$u20$core..iter..traits..collect..IntoIterator$GT$::into_iter::hc3160ff0b6a62f21>
800000ec: e82a         	sd	a0, 0x10(sp)
800000ee: ec2e         	sd	a1, 0x18(sp)
800000f0: a009         	j	0x800000f2 <_$LT$lab5_kernel_task3..console..KernelConsole$u20$as$u20$core..fmt..Write$GT$::write_str::h1d82c921b143e5ac+0x2c>
800000f2: 0808         	addi	a0, sp, 0x10
800000f4: 00000097     	auipc	ra, 0x0
800000f8: 306080e7     	jalr	0x306(ra) <_$LT$core..str..iter..Bytes$u20$as$u20$core..iter..traits..iterator..Iterator$GT$::next::h6d94a3e600d128b8>
800000fc: 8905         	andi	a0, a0, 0x1
800000fe: 02a10323     	sb	a0, 0x26(sp)
80000102: 02b103a3     	sb	a1, 0x27(sp)
80000106: 02614503     	lbu	a0, 0x26(sp)
8000010a: 8905         	andi	a0, a0, 0x1
8000010c: c919         	beqz	a0, 0x80000122 <_$LT$lab5_kernel_task3..console..KernelConsole$u20$as$u20$core..fmt..Write$GT$::write_str::h1d82c921b143e5ac+0x5c>
8000010e: a009         	j	0x80000110 <_$LT$lab5_kernel_task3..console..KernelConsole$u20$as$u20$core..fmt..Write$GT$::write_str::h1d82c921b143e5ac+0x4a>
80000110: 02714503     	lbu	a0, 0x27(sp)
80000114: 04a103a3     	sb	a0, 0x47(sp)
80000118: 00000097     	auipc	ra, 0x0
8000011c: f24080e7     	jalr	-0xdc(ra) <lab5_kernel_task3::console::write_byte::h86e49ccd2c504c28>
80000120: bfc9         	j	0x800000f2 <_$LT$lab5_kernel_task3..console..KernelConsole$u20$as$u20$core..fmt..Write$GT$::write_str::h1d82c921b143e5ac+0x2c>
80000122: 4501         	li	a0, 0x0
80000124: 60a6         	ld	ra, 0x48(sp)
80000126: 6161         	addi	sp, sp, 0x50
80000128: 8082         	ret

000000008000012a <core::hint::black_box::h1d5b7ea5d72894a5>:
8000012a: 1141         	addi	sp, sp, -0x10
8000012c: e02a         	sd	a0, 0x0(sp)
8000012e: e42a         	sd	a0, 0x8(sp)
80000130: 0028         	addi	a0, sp, 0x8
80000132: 6522         	ld	a0, 0x8(sp)
80000134: 0141         	addi	sp, sp, 0x10
80000136: 8082         	ret

0000000080000138 <core::num::_$LT$impl$u20$usize$GT$::checked_add::h92541912bf2a96f0>:
80000138: 7139         	addi	sp, sp, -0x40
8000013a: e42e         	sd	a1, 0x8(sp)
8000013c: 85aa         	mv	a1, a0
8000013e: 6522         	ld	a0, 0x8(sp)
80000140: e82e         	sd	a1, 0x10(sp)
80000142: f42e         	sd	a1, 0x28(sp)
80000144: f82a         	sd	a0, 0x30(sp)
80000146: 952e         	add	a0, a0, a1
80000148: 00b53633     	sltu	a2, a0, a1
8000014c: 02c10fa3     	sb	a2, 0x3f(sp)
80000150: 00b56a63     	bltu	a0, a1, 0x80000164 <.Lpcrel_hi0>
80000154: a009         	j	0x80000156 <core::num::_$LT$impl$u20$usize$GT$::checked_add::h92541912bf2a96f0+0x1e>
80000156: 6542         	ld	a0, 0x10(sp)
80000158: 65a2         	ld	a1, 0x8(sp)
8000015a: 952e         	add	a0, a0, a1
8000015c: f02a         	sd	a0, 0x20(sp)
8000015e: 4505         	li	a0, 0x1
80000160: ec2a         	sd	a0, 0x18(sp)
80000162: a811         	j	0x80000176 <.Lpcrel_hi0+0x12>

0000000080000164 <.Lpcrel_hi0>:
80000164: 00005517     	auipc	a0, 0x5
80000168: 5bc50513     	addi	a0, a0, 0x5bc
8000016c: 610c         	ld	a1, 0x0(a0)
8000016e: 6508         	ld	a0, 0x8(a0)
80000170: ec2e         	sd	a1, 0x18(sp)
80000172: f02a         	sd	a0, 0x20(sp)
80000174: a009         	j	0x80000176 <.Lpcrel_hi0+0x12>
80000176: 6562         	ld	a0, 0x18(sp)
80000178: 7582         	ld	a1, 0x20(sp)
8000017a: 6121         	addi	sp, sp, 0x40
8000017c: 8082         	ret

000000008000017e <core::num::_$LT$impl$u20$usize$GT$::unchecked_add::precondition_check::h3ffa1c77a9014de3>:
8000017e: 7179         	addi	sp, sp, -0x30
80000180: e032         	sd	a2, 0x0(sp)
80000182: e42e         	sd	a1, 0x8(sp)
80000184: 85aa         	mv	a1, a0
80000186: 6522         	ld	a0, 0x8(sp)
80000188: e82e         	sd	a1, 0x10(sp)
8000018a: ec2a         	sd	a0, 0x18(sp)
8000018c: 952e         	add	a0, a0, a1
8000018e: 00b56563     	bltu	a0, a1, 0x80000198 <core::num::_$LT$impl$u20$usize$GT$::unchecked_add::precondition_check::h3ffa1c77a9014de3+0x1a>
80000192: a009         	j	0x80000194 <core::num::_$LT$impl$u20$usize$GT$::unchecked_add::precondition_check::h3ffa1c77a9014de3+0x16>
80000194: 6145         	addi	sp, sp, 0x30
80000196: 8082         	ret
80000198: 6682         	ld	a3, 0x0(sp)

000000008000019a <.Lpcrel_hi1>:
8000019a: 00005517     	auipc	a0, 0x5
8000019e: 5a650513     	addi	a0, a0, 0x5a6
800001a2: f02a         	sd	a0, 0x20(sp)
800001a4: 0ba00593     	li	a1, 0xba
800001a8: f42e         	sd	a1, 0x28(sp)
800001aa: 17500593     	li	a1, 0x175
800001ae: 4601         	li	a2, 0x0
800001b0: 00005097     	auipc	ra, 0x5
800001b4: bdc080e7     	jalr	-0x424(ra) <core::panicking::panic_nounwind_fmt::h2e018e50a8d3bc73>

00000000800001b8 <_$LT$I$u20$as$u20$core..iter..traits..collect..IntoIterator$GT$::into_iter::hc3160ff0b6a62f21>:
800001b8: 1141         	addi	sp, sp, -0x10
800001ba: e02a         	sd	a0, 0x0(sp)
800001bc: e42e         	sd	a1, 0x8(sp)
800001be: 0141         	addi	sp, sp, 0x10
800001c0: 8082         	ret

00000000800001c2 <core::cmp::Ord::max::h152348c6ddeacb1c>:
800001c2: 7179         	addi	sp, sp, -0x30
800001c4: e42a         	sd	a0, 0x8(sp)
800001c6: e82e         	sd	a1, 0x10(sp)
800001c8: 0808         	addi	a0, sp, 0x10
800001ca: f02a         	sd	a0, 0x20(sp)
800001cc: 0028         	addi	a0, sp, 0x8
800001ce: f42a         	sd	a0, 0x28(sp)
800001d0: 6542         	ld	a0, 0x10(sp)
800001d2: 65a2         	ld	a1, 0x8(sp)
800001d4: 00b56663     	bltu	a0, a1, 0x800001e0 <core::cmp::Ord::max::h152348c6ddeacb1c+0x1e>
800001d8: a009         	j	0x800001da <core::cmp::Ord::max::h152348c6ddeacb1c+0x18>
800001da: 6542         	ld	a0, 0x10(sp)
800001dc: ec2a         	sd	a0, 0x18(sp)
800001de: a021         	j	0x800001e6 <core::cmp::Ord::max::h152348c6ddeacb1c+0x24>
800001e0: 6522         	ld	a0, 0x8(sp)
800001e2: ec2a         	sd	a0, 0x18(sp)
800001e4: a009         	j	0x800001e6 <core::cmp::Ord::max::h152348c6ddeacb1c+0x24>
800001e6: 6562         	ld	a0, 0x18(sp)
800001e8: 6145         	addi	sp, sp, 0x30
800001ea: 8082         	ret

00000000800001ec <_$LT$$RF$T$u20$as$u20$core..fmt..Display$GT$::fmt::hcb4b3ade7ee6a5c5>:
800001ec: 1101         	addi	sp, sp, -0x20
800001ee: ec06         	sd	ra, 0x18(sp)
800001f0: 862e         	mv	a2, a1
800001f2: 85aa         	mv	a1, a0
800001f4: e42e         	sd	a1, 0x8(sp)
800001f6: e832         	sd	a2, 0x10(sp)
800001f8: 6188         	ld	a0, 0x0(a1)
800001fa: 658c         	ld	a1, 0x8(a1)
800001fc: 00004097     	auipc	ra, 0x4
80000200: d86080e7     	jalr	-0x27a(ra) <_$LT$str$u20$as$u20$core..fmt..Display$GT$::fmt::h53474d83e2b0968b>
80000204: 60e2         	ld	ra, 0x18(sp)
80000206: 6105         	addi	sp, sp, 0x20
80000208: 8082         	ret

000000008000020a <core::fmt::Arguments::new::h05066f4af3216030>:
8000020a: 1141         	addi	sp, sp, -0x10
8000020c: e02a         	sd	a0, 0x0(sp)
8000020e: e42e         	sd	a1, 0x8(sp)
80000210: 0141         	addi	sp, sp, 0x10
80000212: 8082         	ret

0000000080000214 <core::fmt::Arguments::new::h05a79c67499c574b>:
80000214: 1141         	addi	sp, sp, -0x10
80000216: e02a         	sd	a0, 0x0(sp)
80000218: e42e         	sd	a1, 0x8(sp)
8000021a: 0141         	addi	sp, sp, 0x10
8000021c: 8082         	ret

000000008000021e <core::fmt::Arguments::new::h0a9f9ed8a3e87766>:
8000021e: 1141         	addi	sp, sp, -0x10
80000220: e02a         	sd	a0, 0x0(sp)
80000222: e42e         	sd	a1, 0x8(sp)
80000224: 0141         	addi	sp, sp, 0x10
80000226: 8082         	ret

0000000080000228 <core::fmt::Arguments::new::h20477a2e14f781db>:
80000228: 1141         	addi	sp, sp, -0x10
8000022a: e02a         	sd	a0, 0x0(sp)
8000022c: e42e         	sd	a1, 0x8(sp)
8000022e: 0141         	addi	sp, sp, 0x10
80000230: 8082         	ret

0000000080000232 <core::fmt::Arguments::new::h2d03f12aa70b4dbb>:
80000232: 1141         	addi	sp, sp, -0x10
80000234: e02a         	sd	a0, 0x0(sp)
80000236: e42e         	sd	a1, 0x8(sp)
80000238: 0141         	addi	sp, sp, 0x10
8000023a: 8082         	ret

000000008000023c <core::fmt::Arguments::new::h383f07117f08c8bc>:
8000023c: 1141         	addi	sp, sp, -0x10
8000023e: e02a         	sd	a0, 0x0(sp)
80000240: e42e         	sd	a1, 0x8(sp)
80000242: 0141         	addi	sp, sp, 0x10
80000244: 8082         	ret

0000000080000246 <core::fmt::Arguments::new::h3d40072ac7227a23>:
80000246: 1141         	addi	sp, sp, -0x10
80000248: e02a         	sd	a0, 0x0(sp)
8000024a: e42e         	sd	a1, 0x8(sp)
8000024c: 0141         	addi	sp, sp, 0x10
8000024e: 8082         	ret

0000000080000250 <core::fmt::Arguments::new::h3fcf81b06dcbfaad>:
80000250: 1141         	addi	sp, sp, -0x10
80000252: e02a         	sd	a0, 0x0(sp)
80000254: e42e         	sd	a1, 0x8(sp)
80000256: 0141         	addi	sp, sp, 0x10
80000258: 8082         	ret

000000008000025a <core::fmt::Arguments::new::h43e7ee9d0331f452>:
8000025a: 1141         	addi	sp, sp, -0x10
8000025c: e02a         	sd	a0, 0x0(sp)
8000025e: e42e         	sd	a1, 0x8(sp)
80000260: 0141         	addi	sp, sp, 0x10
80000262: 8082         	ret

0000000080000264 <core::fmt::Arguments::new::h65caf24651fa53d2>:
80000264: 1141         	addi	sp, sp, -0x10
80000266: e02a         	sd	a0, 0x0(sp)
80000268: e42e         	sd	a1, 0x8(sp)
8000026a: 0141         	addi	sp, sp, 0x10
8000026c: 8082         	ret

000000008000026e <core::fmt::Arguments::new::h697bf53e95968956>:
8000026e: 1141         	addi	sp, sp, -0x10
80000270: e02a         	sd	a0, 0x0(sp)
80000272: e42e         	sd	a1, 0x8(sp)
80000274: 0141         	addi	sp, sp, 0x10
80000276: 8082         	ret

0000000080000278 <core::fmt::Arguments::new::h6c2a2e65fcda6b77>:
80000278: 1141         	addi	sp, sp, -0x10
8000027a: e02a         	sd	a0, 0x0(sp)
8000027c: e42e         	sd	a1, 0x8(sp)
8000027e: 0141         	addi	sp, sp, 0x10
80000280: 8082         	ret

0000000080000282 <core::fmt::Arguments::new::h7428651031302d95>:
80000282: 1141         	addi	sp, sp, -0x10
80000284: e02a         	sd	a0, 0x0(sp)
80000286: e42e         	sd	a1, 0x8(sp)
80000288: 0141         	addi	sp, sp, 0x10
8000028a: 8082         	ret

000000008000028c <core::fmt::Arguments::new::h8f9b107f17d50367>:
8000028c: 1141         	addi	sp, sp, -0x10
8000028e: e02a         	sd	a0, 0x0(sp)
80000290: e42e         	sd	a1, 0x8(sp)
80000292: 0141         	addi	sp, sp, 0x10
80000294: 8082         	ret

0000000080000296 <core::fmt::Arguments::new::h9ae0a39989cfa6ec>:
80000296: 1141         	addi	sp, sp, -0x10
80000298: e02a         	sd	a0, 0x0(sp)
8000029a: e42e         	sd	a1, 0x8(sp)
8000029c: 0141         	addi	sp, sp, 0x10
8000029e: 8082         	ret

00000000800002a0 <core::fmt::Arguments::new::ha8f58eb7a68e6310>:
800002a0: 1141         	addi	sp, sp, -0x10
800002a2: e02a         	sd	a0, 0x0(sp)
800002a4: e42e         	sd	a1, 0x8(sp)
800002a6: 0141         	addi	sp, sp, 0x10
800002a8: 8082         	ret

00000000800002aa <core::fmt::Arguments::new::hab6d5879b5aa179d>:
800002aa: 1141         	addi	sp, sp, -0x10
800002ac: e02a         	sd	a0, 0x0(sp)
800002ae: e42e         	sd	a1, 0x8(sp)
800002b0: 0141         	addi	sp, sp, 0x10
800002b2: 8082         	ret

00000000800002b4 <core::fmt::Arguments::new::hd0bed6df61687249>:
800002b4: 1141         	addi	sp, sp, -0x10
800002b6: e02a         	sd	a0, 0x0(sp)
800002b8: e42e         	sd	a1, 0x8(sp)
800002ba: 0141         	addi	sp, sp, 0x10
800002bc: 8082         	ret

00000000800002be <core::fmt::Arguments::new::he3965fc147052b43>:
800002be: 1141         	addi	sp, sp, -0x10
800002c0: e02a         	sd	a0, 0x0(sp)
800002c2: e42e         	sd	a1, 0x8(sp)
800002c4: 0141         	addi	sp, sp, 0x10
800002c6: 8082         	ret

00000000800002c8 <core::fmt::Arguments::new::he782f70bfba041f5>:
800002c8: 1141         	addi	sp, sp, -0x10
800002ca: e02a         	sd	a0, 0x0(sp)
800002cc: e42e         	sd	a1, 0x8(sp)
800002ce: 0141         	addi	sp, sp, 0x10
800002d0: 8082         	ret

00000000800002d2 <core::fmt::Arguments::new::hf3355129d630920c>:
800002d2: 1141         	addi	sp, sp, -0x10
800002d4: e02a         	sd	a0, 0x0(sp)
800002d6: e42e         	sd	a1, 0x8(sp)
800002d8: 0141         	addi	sp, sp, 0x10
800002da: 8082         	ret

00000000800002dc <core::intrinsics::rotate_left::h57d84328c0708bcf>:
800002dc: 1141         	addi	sp, sp, -0x10
800002de: 86ae         	mv	a3, a1
800002e0: 85aa         	mv	a1, a0
800002e2: 00b103a3     	sb	a1, 0x7(sp)
800002e6: c436         	sw	a3, 0x8(sp)
800002e8: 0076f513     	andi	a0, a3, 0x7
800002ec: 00a59533     	sll	a0, a1, a0
800002f0: 4601         	li	a2, 0x0
800002f2: 9e15         	subw	a2, a2, a3
800002f4: 8a1d         	andi	a2, a2, 0x7
800002f6: 00c5d5b3     	srl	a1, a1, a2
800002fa: 8d4d         	or	a0, a0, a1
800002fc: 00a107a3     	sb	a0, 0xf(sp)
80000300: 00f14503     	lbu	a0, 0xf(sp)
80000304: 0141         	addi	sp, sp, 0x10
80000306: 8082         	ret

0000000080000308 <core::intrinsics::rotate_left::h870f961987655293>:
80000308: 1101         	addi	sp, sp, -0x20
8000030a: 86ae         	mv	a3, a1
8000030c: 85aa         	mv	a1, a0
8000030e: e42e         	sd	a1, 0x8(sp)
80000310: ca36         	sw	a3, 0x14(sp)
80000312: 00d59533     	sll	a0, a1, a3
80000316: 4601         	li	a2, 0x0
80000318: 9e15         	subw	a2, a2, a3
8000031a: 00c5d5b3     	srl	a1, a1, a2
8000031e: 8d4d         	or	a0, a0, a1
80000320: ec2a         	sd	a0, 0x18(sp)
80000322: 6562         	ld	a0, 0x18(sp)
80000324: 6105         	addi	sp, sp, 0x20
80000326: 8082         	ret

0000000080000328 <core::ptr::write_bytes::precondition_check::hb4ff0c422006d0e5>:
80000328: 715d         	addi	sp, sp, -0x50
8000032a: e486         	sd	ra, 0x48(sp)
8000032c: e436         	sd	a3, 0x8(sp)
8000032e: e82a         	sd	a0, 0x10(sp)
80000330: 86b2         	mv	a3, a2
80000332: ec36         	sd	a3, 0x18(sp)
80000334: f02a         	sd	a0, 0x20(sp)
80000336: f42e         	sd	a1, 0x28(sp)
80000338: 02c10ba3     	sb	a2, 0x37(sp)
8000033c: 00002097     	auipc	ra, 0x2
80000340: 7ca080e7     	jalr	0x7ca(ra) <core::ptr::const_ptr::_$LT$impl$u20$$BP$const$u20$T$GT$::is_aligned_to::h35cf6ffca25c92ff>
80000344: e119         	bnez	a0, 0x8000034a <core::ptr::write_bytes::precondition_check::hb4ff0c422006d0e5+0x22>
80000346: a009         	j	0x80000348 <core::ptr::write_bytes::precondition_check::hb4ff0c422006d0e5+0x20>
80000348: a029         	j	0x80000352 <core::ptr::write_bytes::precondition_check::hb4ff0c422006d0e5+0x2a>
8000034a: 6562         	ld	a0, 0x18(sp)
8000034c: 8905         	andi	a0, a0, 0x1
8000034e: e50d         	bnez	a0, 0x80000378 <.Lpcrel_hi0+0x24>
80000350: a00d         	j	0x80000372 <.Lpcrel_hi0+0x1e>
80000352: 66a2         	ld	a3, 0x8(sp)

0000000080000354 <.Lpcrel_hi0>:
80000354: 00005517     	auipc	a0, 0x5
80000358: 4a650513     	addi	a0, a0, 0x4a6
8000035c: fc2a         	sd	a0, 0x38(sp)
8000035e: 0e400593     	li	a1, 0xe4
80000362: e0ae         	sd	a1, 0x40(sp)
80000364: 1c900593     	li	a1, 0x1c9
80000368: 4601         	li	a2, 0x0
8000036a: 00005097     	auipc	ra, 0x5
8000036e: a22080e7     	jalr	-0x5de(ra) <core::panicking::panic_nounwind_fmt::h2e018e50a8d3bc73>
80000372: 6542         	ld	a0, 0x10(sp)
80000374: e119         	bnez	a0, 0x8000037a <.Lpcrel_hi0+0x26>
80000376: bff1         	j	0x80000352 <core::ptr::write_bytes::precondition_check::hb4ff0c422006d0e5+0x2a>
80000378: a009         	j	0x8000037a <.Lpcrel_hi0+0x26>
8000037a: 60a6         	ld	ra, 0x48(sp)
8000037c: 6161         	addi	sp, sp, 0x50
8000037e: 8082         	ret

0000000080000380 <core::ptr::read_volatile::precondition_check::h149dc202cac1645d>:
80000380: 7179         	addi	sp, sp, -0x30
80000382: f406         	sd	ra, 0x28(sp)
80000384: e032         	sd	a2, 0x0(sp)
80000386: e42a         	sd	a0, 0x8(sp)
80000388: e82e         	sd	a1, 0x10(sp)
8000038a: 00002097     	auipc	ra, 0x2
8000038e: 77c080e7     	jalr	0x77c(ra) <core::ptr::const_ptr::_$LT$impl$u20$$BP$const$u20$T$GT$::is_aligned_to::h35cf6ffca25c92ff>
80000392: e115         	bnez	a0, 0x800003b6 <.Lpcrel_hi1+0x1e>
80000394: a009         	j	0x80000396 <core::ptr::read_volatile::precondition_check::h149dc202cac1645d+0x16>
80000396: 6682         	ld	a3, 0x0(sp)

0000000080000398 <.Lpcrel_hi1>:
80000398: 00005517     	auipc	a0, 0x5
8000039c: 54650513     	addi	a0, a0, 0x546
800003a0: ec2a         	sd	a0, 0x18(sp)
800003a2: 0d600593     	li	a1, 0xd6
800003a6: f02e         	sd	a1, 0x20(sp)
800003a8: 1ad00593     	li	a1, 0x1ad
800003ac: 4601         	li	a2, 0x0
800003ae: 00005097     	auipc	ra, 0x5
800003b2: 9de080e7     	jalr	-0x622(ra) <core::panicking::panic_nounwind_fmt::h2e018e50a8d3bc73>
800003b6: 70a2         	ld	ra, 0x28(sp)
800003b8: 6145         	addi	sp, sp, 0x30
800003ba: 8082         	ret

00000000800003bc <core::ptr::write_volatile::precondition_check::h534c43152ec8a749>:
800003bc: 7139         	addi	sp, sp, -0x40
800003be: fc06         	sd	ra, 0x38(sp)
800003c0: e432         	sd	a2, 0x8(sp)
800003c2: e82a         	sd	a0, 0x10(sp)
800003c4: ec2e         	sd	a1, 0x18(sp)
800003c6: f02a         	sd	a0, 0x20(sp)
800003c8: 00002097     	auipc	ra, 0x2
800003cc: 73e080e7     	jalr	0x73e(ra) <core::ptr::const_ptr::_$LT$impl$u20$$BP$const$u20$T$GT$::is_aligned_to::h35cf6ffca25c92ff>
800003d0: e115         	bnez	a0, 0x800003f4 <.Lpcrel_hi2+0x1e>
800003d2: a009         	j	0x800003d4 <core::ptr::write_volatile::precondition_check::h534c43152ec8a749+0x18>
800003d4: 66a2         	ld	a3, 0x8(sp)

00000000800003d6 <.Lpcrel_hi2>:
800003d6: 00005517     	auipc	a0, 0x5
800003da: 5de50513     	addi	a0, a0, 0x5de
800003de: f42a         	sd	a0, 0x28(sp)
800003e0: 0d700593     	li	a1, 0xd7
800003e4: f82e         	sd	a1, 0x30(sp)
800003e6: 1af00593     	li	a1, 0x1af
800003ea: 4601         	li	a2, 0x0
800003ec: 00005097     	auipc	ra, 0x5
800003f0: 9a0080e7     	jalr	-0x660(ra) <core::panicking::panic_nounwind_fmt::h2e018e50a8d3bc73>
800003f4: 70e2         	ld	ra, 0x38(sp)
800003f6: 6121         	addi	sp, sp, 0x40
800003f8: 8082         	ret

00000000800003fa <_$LT$core..str..iter..Bytes$u20$as$u20$core..iter..traits..iterator..Iterator$GT$::next::h6d94a3e600d128b8>:
800003fa: 7179         	addi	sp, sp, -0x30
800003fc: f406         	sd	ra, 0x28(sp)
800003fe: ec2a         	sd	a0, 0x18(sp)
80000400: 00004097     	auipc	ra, 0x4
80000404: b40080e7     	jalr	-0x4c0(ra) <_$LT$core..slice..iter..Iter$LT$T$GT$$u20$as$u20$core..iter..traits..iterator..Iterator$GT$::next::h6f21188351496f86>
80000408: e82a         	sd	a0, 0x10(sp)
8000040a: 6542         	ld	a0, 0x10(sp)
8000040c: cd09         	beqz	a0, 0x80000426 <.Lpcrel_hi0>
8000040e: a009         	j	0x80000410 <_$LT$core..str..iter..Bytes$u20$as$u20$core..iter..traits..iterator..Iterator$GT$::next::h6d94a3e600d128b8+0x16>
80000410: 6542         	ld	a0, 0x10(sp)
80000412: 00054503     	lbu	a0, 0x0(a0)
80000416: 02a103a3     	sb	a0, 0x27(sp)
8000041a: 00a107a3     	sb	a0, 0xf(sp)
8000041e: 4505         	li	a0, 0x1
80000420: 00a10723     	sb	a0, 0xe(sp)
80000424: a831         	j	0x80000440 <.Lpcrel_hi0+0x1a>

0000000080000426 <.Lpcrel_hi0>:
80000426: 00005517     	auipc	a0, 0x5
8000042a: 66550513     	addi	a0, a0, 0x665
8000042e: 00054583     	lbu	a1, 0x0(a0)
80000432: 00154503     	lbu	a0, 0x1(a0)
80000436: 00b10723     	sb	a1, 0xe(sp)
8000043a: 00a107a3     	sb	a0, 0xf(sp)
8000043e: a009         	j	0x80000440 <.Lpcrel_hi0+0x1a>
80000440: 00e14503     	lbu	a0, 0xe(sp)
80000444: 00f14583     	lbu	a1, 0xf(sp)
80000448: 70a2         	ld	ra, 0x28(sp)
8000044a: 6145         	addi	sp, sp, 0x30
8000044c: 8082         	ret

000000008000044e <core::fmt::Arguments::as_statically_known_str::h4a37378837ee15a0>:
8000044e: 7119         	addi	sp, sp, -0x80
80000450: fc86         	sd	ra, 0x78(sp)
80000452: ec2a         	sd	a0, 0x18(sp)
80000454: fc2a         	sd	a0, 0x38(sp)
80000456: 6508         	ld	a0, 0x8(a0)
80000458: f02a         	sd	a0, 0x20(sp)
8000045a: e0aa         	sd	a0, 0x40(sp)
8000045c: 8905         	andi	a0, a0, 0x1
8000045e: cd01         	beqz	a0, 0x80000476 <.Lpcrel_hi0>
80000460: a009         	j	0x80000462 <core::fmt::Arguments::as_statically_known_str::h4a37378837ee15a0+0x14>
80000462: 7502         	ld	a0, 0x20(sp)
80000464: 65e2         	ld	a1, 0x18(sp)
80000466: 618c         	ld	a1, 0x0(a1)
80000468: e42e         	sd	a1, 0x8(sp)
8000046a: e4ae         	sd	a1, 0x48(sp)
8000046c: e8ae         	sd	a1, 0x50(sp)
8000046e: 8105         	srli	a0, a0, 0x1
80000470: e82a         	sd	a0, 0x10(sp)
80000472: ecaa         	sd	a0, 0x58(sp)
80000474: a811         	j	0x80000488 <.Lpcrel_hi0+0x12>

0000000080000476 <.Lpcrel_hi0>:
80000476: 00005517     	auipc	a0, 0x5
8000047a: 2aa50513     	addi	a0, a0, 0x2aa
8000047e: 610c         	ld	a1, 0x0(a0)
80000480: 6508         	ld	a0, 0x8(a0)
80000482: f42e         	sd	a1, 0x28(sp)
80000484: f82a         	sd	a0, 0x30(sp)
80000486: a02d         	j	0x800004b0 <.Lpcrel_hi1+0x24>
80000488: 66c2         	ld	a3, 0x10(sp)
8000048a: 6522         	ld	a0, 0x8(sp)

000000008000048c <.Lpcrel_hi1>:
8000048c: 00005597     	auipc	a1, 0x5
80000490: 60458713     	addi	a4, a1, 0x604
80000494: 4605         	li	a2, 0x1
80000496: 85b2         	mv	a1, a2
80000498: 00002097     	auipc	ra, 0x2
8000049c: 4fa080e7     	jalr	0x4fa(ra) <core::slice::raw::from_raw_parts::precondition_check::heebd4d859fc3aa1a>
800004a0: a009         	j	0x800004a2 <.Lpcrel_hi1+0x16>
800004a2: 6542         	ld	a0, 0x10(sp)
800004a4: 65a2         	ld	a1, 0x8(sp)
800004a6: f0ae         	sd	a1, 0x60(sp)
800004a8: f4aa         	sd	a0, 0x68(sp)
800004aa: f42e         	sd	a1, 0x28(sp)
800004ac: f82a         	sd	a0, 0x30(sp)
800004ae: a009         	j	0x800004b0 <.Lpcrel_hi1+0x24>
800004b0: 4501         	li	a0, 0x0
800004b2: 06a10ba3     	sb	a0, 0x77(sp)
800004b6: 07714503     	lbu	a0, 0x77(sp)
800004ba: 8905         	andi	a0, a0, 0x1
800004bc: e919         	bnez	a0, 0x800004d2 <.Lpcrel_hi2+0x12>
800004be: a009         	j	0x800004c0 <.Lpcrel_hi2>

00000000800004c0 <.Lpcrel_hi2>:
800004c0: 00005517     	auipc	a0, 0x5
800004c4: 26050513     	addi	a0, a0, 0x260
800004c8: 610c         	ld	a1, 0x0(a0)
800004ca: 6508         	ld	a0, 0x8(a0)
800004cc: f42e         	sd	a1, 0x28(sp)
800004ce: f82a         	sd	a0, 0x30(sp)
800004d0: a011         	j	0x800004d4 <.Lpcrel_hi2+0x14>
800004d2: a009         	j	0x800004d4 <.Lpcrel_hi2+0x14>
800004d4: 7522         	ld	a0, 0x28(sp)
800004d6: 75c2         	ld	a1, 0x30(sp)
800004d8: 70e6         	ld	ra, 0x78(sp)
800004da: 6109         	addi	sp, sp, 0x80
800004dc: 8082         	ret

00000000800004de <core::fmt::Arguments::from_str::hc9d9dad7d734f0db>:
800004de: 1141         	addi	sp, sp, -0x10
800004e0: e02a         	sd	a0, 0x0(sp)
800004e2: e42e         	sd	a1, 0x8(sp)
800004e4: 0586         	slli	a1, a1, 0x1
800004e6: 0585         	addi	a1, a1, 0x1
800004e8: 0141         	addi	sp, sp, 0x10
800004ea: 8082         	ret

00000000800004ec <lab5_kernel_task3::spinlock::SpinLock$LT$T$GT$::acquisitions::h6d92d75681962d8b>:
800004ec: 1141         	addi	sp, sp, -0x10
800004ee: e406         	sd	ra, 0x8(sp)
800004f0: e02a         	sd	a0, 0x0(sp)
800004f2: 05050513     	addi	a0, a0, 0x50
800004f6: 4581         	li	a1, 0x0
800004f8: 00003097     	auipc	ra, 0x3
800004fc: 082080e7     	jalr	0x82(ra) <core::sync::atomic::AtomicU64::load::h21c7385feb3db3ed>
80000500: 60a2         	ld	ra, 0x8(sp)
80000502: 0141         	addi	sp, sp, 0x10
80000504: 8082         	ret

0000000080000506 <lab5_kernel_task3::spinlock::SpinLock$LT$T$GT$::acquisitions::hd09535554499311e>:
80000506: 1141         	addi	sp, sp, -0x10
80000508: e406         	sd	ra, 0x8(sp)
8000050a: e02a         	sd	a0, 0x0(sp)
8000050c: 4581         	li	a1, 0x0
8000050e: 00003097     	auipc	ra, 0x3
80000512: 06c080e7     	jalr	0x6c(ra) <core::sync::atomic::AtomicU64::load::h21c7385feb3db3ed>
80000516: 60a2         	ld	ra, 0x8(sp)
80000518: 0141         	addi	sp, sp, 0x10
8000051a: 8082         	ret

000000008000051c <lab5_kernel_task3::spinlock::SpinLock$LT$T$GT$::contention_spins::h8042e51ed4de838a>:
8000051c: 1141         	addi	sp, sp, -0x10
8000051e: e406         	sd	ra, 0x8(sp)
80000520: e02a         	sd	a0, 0x0(sp)
80000522: 05850513     	addi	a0, a0, 0x58
80000526: 4581         	li	a1, 0x0
80000528: 00003097     	auipc	ra, 0x3
8000052c: 052080e7     	jalr	0x52(ra) <core::sync::atomic::AtomicU64::load::h21c7385feb3db3ed>
80000530: 60a2         	ld	ra, 0x8(sp)
80000532: 0141         	addi	sp, sp, 0x10
80000534: 8082         	ret

0000000080000536 <lab5_kernel_task3::spinlock::SpinLock$LT$T$GT$::contention_spins::h8de9882996c0ddb5>:
80000536: 1141         	addi	sp, sp, -0x10
80000538: e406         	sd	ra, 0x8(sp)
8000053a: e02a         	sd	a0, 0x0(sp)
8000053c: 0521         	addi	a0, a0, 0x8
8000053e: 4581         	li	a1, 0x0
80000540: 00003097     	auipc	ra, 0x3
80000544: 03a080e7     	jalr	0x3a(ra) <core::sync::atomic::AtomicU64::load::h21c7385feb3db3ed>
80000548: 60a2         	ld	ra, 0x8(sp)
8000054a: 0141         	addi	sp, sp, 0x10
8000054c: 8082         	ret

000000008000054e <lab5_kernel_task3::spinlock::SpinLock$LT$T$GT$::lock::h0f608dc81da44a39>:
8000054e: 715d         	addi	sp, sp, -0x50
80000550: e486         	sd	ra, 0x48(sp)
80000552: e42a         	sd	a0, 0x8(sp)
80000554: f02a         	sd	a0, 0x20(sp)
80000556: 4501         	li	a0, 0x0
80000558: e82a         	sd	a0, 0x10(sp)
8000055a: a009         	j	0x8000055c <lab5_kernel_task3::spinlock::SpinLock$LT$T$GT$::lock::h0f608dc81da44a39+0xe>
8000055c: 6522         	ld	a0, 0x8(sp)
8000055e: 06050513     	addi	a0, a0, 0x60
80000562: 4605         	li	a2, 0x1
80000564: 4689         	li	a3, 0x2
80000566: 4701         	li	a4, 0x0
80000568: 85ba         	mv	a1, a4
8000056a: 00003097     	auipc	ra, 0x3
8000056e: c52080e7     	jalr	-0x3ae(ra) <core::sync::atomic::AtomicBool::compare_exchange_weak::h0a12d61d64a10783>
80000572: 8905         	andi	a0, a0, 0x1
80000574: 00a10f23     	sb	a0, 0x1e(sp)
80000578: 00b10fa3     	sb	a1, 0x1f(sp)
8000057c: 01e10513     	addi	a0, sp, 0x1e
80000580: 00004097     	auipc	ra, 0x4
80000584: 996080e7     	jalr	-0x66a(ra) <core::result::Result$LT$T$C$E$GT$::is_ok::h9c84771828e5a228>
80000588: ed09         	bnez	a0, 0x800005a2 <lab5_kernel_task3::spinlock::SpinLock$LT$T$GT$::lock::h0f608dc81da44a39+0x54>
8000058a: a009         	j	0x8000058c <lab5_kernel_task3::spinlock::SpinLock$LT$T$GT$::lock::h0f608dc81da44a39+0x3e>
8000058c: a009         	j	0x8000058e <lab5_kernel_task3::spinlock::SpinLock$LT$T$GT$::lock::h0f608dc81da44a39+0x40>
8000058e: 6522         	ld	a0, 0x8(sp)
80000590: 06050513     	addi	a0, a0, 0x60
80000594: 4581         	li	a1, 0x0
80000596: 00003097     	auipc	ra, 0x3
8000059a: c4a080e7     	jalr	-0x3b6(ra) <core::sync::atomic::AtomicBool::load::h61d87e6f66d1143e>
8000059e: e50d         	bnez	a0, 0x800005c8 <lab5_kernel_task3::spinlock::SpinLock$LT$T$GT$::lock::h0f608dc81da44a39+0x7a>
800005a0: a829         	j	0x800005ba <lab5_kernel_task3::spinlock::SpinLock$LT$T$GT$::lock::h0f608dc81da44a39+0x6c>
800005a2: 6522         	ld	a0, 0x8(sp)
800005a4: 05050513     	addi	a0, a0, 0x50
800005a8: 4585         	li	a1, 0x1
800005aa: 4601         	li	a2, 0x0
800005ac: 00003097     	auipc	ra, 0x3
800005b0: 000080e7     	jalr	ra <core::sync::atomic::AtomicU64::fetch_add::ha0aca473a513c11b>
800005b4: 6542         	ld	a0, 0x10(sp)
800005b6: e515         	bnez	a0, 0x800005e2 <lab5_kernel_task3::spinlock::SpinLock$LT$T$GT$::lock::h0f608dc81da44a39+0x94>
800005b8: a00d         	j	0x800005da <lab5_kernel_task3::spinlock::SpinLock$LT$T$GT$::lock::h0f608dc81da44a39+0x8c>
800005ba: 6542         	ld	a0, 0x10(sp)
800005bc: fc2a         	sd	a0, 0x38(sp)
800005be: 4585         	li	a1, 0x1
800005c0: e0ae         	sd	a1, 0x40(sp)
800005c2: 0505         	addi	a0, a0, 0x1
800005c4: e82a         	sd	a0, 0x10(sp)
800005c6: bf59         	j	0x8000055c <lab5_kernel_task3::spinlock::SpinLock$LT$T$GT$::lock::h0f608dc81da44a39+0xe>
800005c8: 6542         	ld	a0, 0x10(sp)
800005ca: f42a         	sd	a0, 0x28(sp)
800005cc: 4585         	li	a1, 0x1
800005ce: f82e         	sd	a1, 0x30(sp)
800005d0: 0505         	addi	a0, a0, 0x1
800005d2: e82a         	sd	a0, 0x10(sp)
800005d4: 0100000f     	fence	w, 0
800005d8: bf5d         	j	0x8000058e <lab5_kernel_task3::spinlock::SpinLock$LT$T$GT$::lock::h0f608dc81da44a39+0x40>
800005da: 6522         	ld	a0, 0x8(sp)
800005dc: 60a6         	ld	ra, 0x48(sp)
800005de: 6161         	addi	sp, sp, 0x50
800005e0: 8082         	ret
800005e2: 6522         	ld	a0, 0x8(sp)
800005e4: 05850513     	addi	a0, a0, 0x58
800005e8: 65c2         	ld	a1, 0x10(sp)
800005ea: 4601         	li	a2, 0x0
800005ec: 00003097     	auipc	ra, 0x3
800005f0: fc0080e7     	jalr	-0x40(ra) <core::sync::atomic::AtomicU64::fetch_add::ha0aca473a513c11b>
800005f4: b7dd         	j	0x800005da <lab5_kernel_task3::spinlock::SpinLock$LT$T$GT$::lock::h0f608dc81da44a39+0x8c>

00000000800005f6 <lab5_kernel_task3::spinlock::SpinLock$LT$T$GT$::lock::h28a1b0dcda53f329>:
800005f6: 715d         	addi	sp, sp, -0x50
800005f8: e486         	sd	ra, 0x48(sp)
800005fa: e42a         	sd	a0, 0x8(sp)
800005fc: f02a         	sd	a0, 0x20(sp)
800005fe: 4501         	li	a0, 0x0
80000600: e82a         	sd	a0, 0x10(sp)
80000602: a009         	j	0x80000604 <lab5_kernel_task3::spinlock::SpinLock$LT$T$GT$::lock::h28a1b0dcda53f329+0xe>
80000604: 6522         	ld	a0, 0x8(sp)
80000606: 0541         	addi	a0, a0, 0x10
80000608: 4605         	li	a2, 0x1
8000060a: 4689         	li	a3, 0x2
8000060c: 4701         	li	a4, 0x0
8000060e: 85ba         	mv	a1, a4
80000610: 00003097     	auipc	ra, 0x3
80000614: bac080e7     	jalr	-0x454(ra) <core::sync::atomic::AtomicBool::compare_exchange_weak::h0a12d61d64a10783>
80000618: 8905         	andi	a0, a0, 0x1
8000061a: 00a10f23     	sb	a0, 0x1e(sp)
8000061e: 00b10fa3     	sb	a1, 0x1f(sp)
80000622: 01e10513     	addi	a0, sp, 0x1e
80000626: 00004097     	auipc	ra, 0x4
8000062a: 8f0080e7     	jalr	-0x710(ra) <core::result::Result$LT$T$C$E$GT$::is_ok::h9c84771828e5a228>
8000062e: ed01         	bnez	a0, 0x80000646 <lab5_kernel_task3::spinlock::SpinLock$LT$T$GT$::lock::h28a1b0dcda53f329+0x50>
80000630: a009         	j	0x80000632 <lab5_kernel_task3::spinlock::SpinLock$LT$T$GT$::lock::h28a1b0dcda53f329+0x3c>
80000632: a009         	j	0x80000634 <lab5_kernel_task3::spinlock::SpinLock$LT$T$GT$::lock::h28a1b0dcda53f329+0x3e>
80000634: 6522         	ld	a0, 0x8(sp)
80000636: 0541         	addi	a0, a0, 0x10
80000638: 4581         	li	a1, 0x0
8000063a: 00003097     	auipc	ra, 0x3
8000063e: ba6080e7     	jalr	-0x45a(ra) <core::sync::atomic::AtomicBool::load::h61d87e6f66d1143e>
80000642: e11d         	bnez	a0, 0x80000668 <lab5_kernel_task3::spinlock::SpinLock$LT$T$GT$::lock::h28a1b0dcda53f329+0x72>
80000644: a819         	j	0x8000065a <lab5_kernel_task3::spinlock::SpinLock$LT$T$GT$::lock::h28a1b0dcda53f329+0x64>
80000646: 6522         	ld	a0, 0x8(sp)
80000648: 4585         	li	a1, 0x1
8000064a: 4601         	li	a2, 0x0
8000064c: 00003097     	auipc	ra, 0x3
80000650: f60080e7     	jalr	-0xa0(ra) <core::sync::atomic::AtomicU64::fetch_add::ha0aca473a513c11b>
80000654: 6542         	ld	a0, 0x10(sp)
80000656: e515         	bnez	a0, 0x80000682 <lab5_kernel_task3::spinlock::SpinLock$LT$T$GT$::lock::h28a1b0dcda53f329+0x8c>
80000658: a00d         	j	0x8000067a <lab5_kernel_task3::spinlock::SpinLock$LT$T$GT$::lock::h28a1b0dcda53f329+0x84>
8000065a: 6542         	ld	a0, 0x10(sp)
8000065c: fc2a         	sd	a0, 0x38(sp)
8000065e: 4585         	li	a1, 0x1
80000660: e0ae         	sd	a1, 0x40(sp)
80000662: 0505         	addi	a0, a0, 0x1
80000664: e82a         	sd	a0, 0x10(sp)
80000666: bf79         	j	0x80000604 <lab5_kernel_task3::spinlock::SpinLock$LT$T$GT$::lock::h28a1b0dcda53f329+0xe>
80000668: 6542         	ld	a0, 0x10(sp)
8000066a: f42a         	sd	a0, 0x28(sp)
8000066c: 4585         	li	a1, 0x1
8000066e: f82e         	sd	a1, 0x30(sp)
80000670: 0505         	addi	a0, a0, 0x1
80000672: e82a         	sd	a0, 0x10(sp)
80000674: 0100000f     	fence	w, 0
80000678: bf75         	j	0x80000634 <lab5_kernel_task3::spinlock::SpinLock$LT$T$GT$::lock::h28a1b0dcda53f329+0x3e>
8000067a: 6522         	ld	a0, 0x8(sp)
8000067c: 60a6         	ld	ra, 0x48(sp)
8000067e: 6161         	addi	sp, sp, 0x50
80000680: 8082         	ret
80000682: 6522         	ld	a0, 0x8(sp)
80000684: 0521         	addi	a0, a0, 0x8
80000686: 65c2         	ld	a1, 0x10(sp)
80000688: 4601         	li	a2, 0x0
8000068a: 00003097     	auipc	ra, 0x3
8000068e: f22080e7     	jalr	-0xde(ra) <core::sync::atomic::AtomicU64::fetch_add::ha0aca473a513c11b>
80000692: b7e5         	j	0x8000067a <lab5_kernel_task3::spinlock::SpinLock$LT$T$GT$::lock::h28a1b0dcda53f329+0x84>

0000000080000694 <lab5_kernel_task3::spinlock::SpinLock$LT$T$GT$::lock::h5c33a43fd9ae7382>:
80000694: 715d         	addi	sp, sp, -0x50
80000696: e486         	sd	ra, 0x48(sp)
80000698: e42a         	sd	a0, 0x8(sp)
8000069a: f02a         	sd	a0, 0x20(sp)
8000069c: 4501         	li	a0, 0x0
8000069e: e82a         	sd	a0, 0x10(sp)
800006a0: a009         	j	0x800006a2 <lab5_kernel_task3::spinlock::SpinLock$LT$T$GT$::lock::h5c33a43fd9ae7382+0xe>
800006a2: 6522         	ld	a0, 0x8(sp)
800006a4: 02850513     	addi	a0, a0, 0x28
800006a8: 4605         	li	a2, 0x1
800006aa: 4689         	li	a3, 0x2
800006ac: 4701         	li	a4, 0x0
800006ae: 85ba         	mv	a1, a4
800006b0: 00003097     	auipc	ra, 0x3
800006b4: b0c080e7     	jalr	-0x4f4(ra) <core::sync::atomic::AtomicBool::compare_exchange_weak::h0a12d61d64a10783>
800006b8: 8905         	andi	a0, a0, 0x1
800006ba: 00a10f23     	sb	a0, 0x1e(sp)
800006be: 00b10fa3     	sb	a1, 0x1f(sp)
800006c2: 01e10513     	addi	a0, sp, 0x1e
800006c6: 00004097     	auipc	ra, 0x4
800006ca: 850080e7     	jalr	-0x7b0(ra) <core::result::Result$LT$T$C$E$GT$::is_ok::h9c84771828e5a228>
800006ce: ed09         	bnez	a0, 0x800006e8 <lab5_kernel_task3::spinlock::SpinLock$LT$T$GT$::lock::h5c33a43fd9ae7382+0x54>
800006d0: a009         	j	0x800006d2 <lab5_kernel_task3::spinlock::SpinLock$LT$T$GT$::lock::h5c33a43fd9ae7382+0x3e>
800006d2: a009         	j	0x800006d4 <lab5_kernel_task3::spinlock::SpinLock$LT$T$GT$::lock::h5c33a43fd9ae7382+0x40>
800006d4: 6522         	ld	a0, 0x8(sp)
800006d6: 02850513     	addi	a0, a0, 0x28
800006da: 4581         	li	a1, 0x0
800006dc: 00003097     	auipc	ra, 0x3
800006e0: b04080e7     	jalr	-0x4fc(ra) <core::sync::atomic::AtomicBool::load::h61d87e6f66d1143e>
800006e4: e11d         	bnez	a0, 0x8000070a <lab5_kernel_task3::spinlock::SpinLock$LT$T$GT$::lock::h5c33a43fd9ae7382+0x76>
800006e6: a819         	j	0x800006fc <lab5_kernel_task3::spinlock::SpinLock$LT$T$GT$::lock::h5c33a43fd9ae7382+0x68>
800006e8: 6522         	ld	a0, 0x8(sp)
800006ea: 4585         	li	a1, 0x1
800006ec: 4601         	li	a2, 0x0
800006ee: 00003097     	auipc	ra, 0x3
800006f2: ebe080e7     	jalr	-0x142(ra) <core::sync::atomic::AtomicU64::fetch_add::ha0aca473a513c11b>
800006f6: 6542         	ld	a0, 0x10(sp)
800006f8: e515         	bnez	a0, 0x80000724 <lab5_kernel_task3::spinlock::SpinLock$LT$T$GT$::lock::h5c33a43fd9ae7382+0x90>
800006fa: a00d         	j	0x8000071c <lab5_kernel_task3::spinlock::SpinLock$LT$T$GT$::lock::h5c33a43fd9ae7382+0x88>
800006fc: 6542         	ld	a0, 0x10(sp)
800006fe: fc2a         	sd	a0, 0x38(sp)
80000700: 4585         	li	a1, 0x1
80000702: e0ae         	sd	a1, 0x40(sp)
80000704: 0505         	addi	a0, a0, 0x1
80000706: e82a         	sd	a0, 0x10(sp)
80000708: bf69         	j	0x800006a2 <lab5_kernel_task3::spinlock::SpinLock$LT$T$GT$::lock::h5c33a43fd9ae7382+0xe>
8000070a: 6542         	ld	a0, 0x10(sp)
8000070c: f42a         	sd	a0, 0x28(sp)
8000070e: 4585         	li	a1, 0x1
80000710: f82e         	sd	a1, 0x30(sp)
80000712: 0505         	addi	a0, a0, 0x1
80000714: e82a         	sd	a0, 0x10(sp)
80000716: 0100000f     	fence	w, 0
8000071a: bf6d         	j	0x800006d4 <lab5_kernel_task3::spinlock::SpinLock$LT$T$GT$::lock::h5c33a43fd9ae7382+0x40>
8000071c: 6522         	ld	a0, 0x8(sp)
8000071e: 60a6         	ld	ra, 0x48(sp)
80000720: 6161         	addi	sp, sp, 0x50
80000722: 8082         	ret
80000724: 6522         	ld	a0, 0x8(sp)
80000726: 0521         	addi	a0, a0, 0x8
80000728: 65c2         	ld	a1, 0x10(sp)
8000072a: 4601         	li	a2, 0x0
8000072c: 00003097     	auipc	ra, 0x3
80000730: e80080e7     	jalr	-0x180(ra) <core::sync::atomic::AtomicU64::fetch_add::ha0aca473a513c11b>
80000734: b7e5         	j	0x8000071c <lab5_kernel_task3::spinlock::SpinLock$LT$T$GT$::lock::h5c33a43fd9ae7382+0x88>

0000000080000736 <_$LT$lab5_kernel_task3..spinlock..SpinLockGuard$LT$T$GT$$u20$as$u20$core..ops..deref..Deref$GT$::deref::h3bf6006a36d9dddc>:
80000736: 1101         	addi	sp, sp, -0x20
80000738: e82a         	sd	a0, 0x10(sp)
8000073a: 6108         	ld	a0, 0x0(a0)
8000073c: 0541         	addi	a0, a0, 0x10
8000073e: e02a         	sd	a0, 0x0(sp)
80000740: 85aa         	mv	a1, a0
80000742: e42e         	sd	a1, 0x8(sp)
80000744: ec2a         	sd	a0, 0x18(sp)
80000746: 891d         	andi	a0, a0, 0x7
80000748: e509         	bnez	a0, 0x80000752 <_$LT$lab5_kernel_task3..spinlock..SpinLockGuard$LT$T$GT$$u20$as$u20$core..ops..deref..Deref$GT$::deref::h3bf6006a36d9dddc+0x1c>
8000074a: a009         	j	0x8000074c <_$LT$lab5_kernel_task3..spinlock..SpinLockGuard$LT$T$GT$$u20$as$u20$core..ops..deref..Deref$GT$::deref::h3bf6006a36d9dddc+0x16>
8000074c: 6522         	ld	a0, 0x8(sp)
8000074e: ed01         	bnez	a0, 0x80000766 <.Lpcrel_hi0+0x12>
80000750: a831         	j	0x8000076c <.Lpcrel_hi1>
80000752: 6582         	ld	a1, 0x0(sp)

0000000080000754 <.Lpcrel_hi0>:
80000754: 00005517     	auipc	a0, 0x5
80000758: 35450613     	addi	a2, a0, 0x354
8000075c: 4521         	li	a0, 0x8
8000075e: 00004097     	auipc	ra, 0x4
80000762: 67e080e7     	jalr	0x67e(ra) <core::panicking::panic_misaligned_pointer_dereference::hda85f7fb51d959f0>
80000766: 6522         	ld	a0, 0x8(sp)
80000768: 6105         	addi	sp, sp, 0x20
8000076a: 8082         	ret

000000008000076c <.Lpcrel_hi1>:
8000076c: 00005517     	auipc	a0, 0x5
80000770: 33c50513     	addi	a0, a0, 0x33c
80000774: 00004097     	auipc	ra, 0x4
80000778: 648080e7     	jalr	0x648(ra) <core::panicking::panic_null_pointer_dereference::hbac6411af4f2e916>

000000008000077c <_$LT$lab5_kernel_task3..spinlock..SpinLockGuard$LT$T$GT$$u20$as$u20$core..ops..deref..Deref$GT$::deref::h75e5ba78bc81e491>:
8000077c: 1101         	addi	sp, sp, -0x20
8000077e: e82a         	sd	a0, 0x10(sp)
80000780: 6108         	ld	a0, 0x0(a0)
80000782: e02a         	sd	a0, 0x0(sp)
80000784: 85aa         	mv	a1, a0
80000786: e42e         	sd	a1, 0x8(sp)
80000788: ec2a         	sd	a0, 0x18(sp)
8000078a: 891d         	andi	a0, a0, 0x7
8000078c: e509         	bnez	a0, 0x80000796 <_$LT$lab5_kernel_task3..spinlock..SpinLockGuard$LT$T$GT$$u20$as$u20$core..ops..deref..Deref$GT$::deref::h75e5ba78bc81e491+0x1a>
8000078e: a009         	j	0x80000790 <_$LT$lab5_kernel_task3..spinlock..SpinLockGuard$LT$T$GT$$u20$as$u20$core..ops..deref..Deref$GT$::deref::h75e5ba78bc81e491+0x14>
80000790: 6522         	ld	a0, 0x8(sp)
80000792: ed01         	bnez	a0, 0x800007aa <.Lpcrel_hi2+0x12>
80000794: a831         	j	0x800007b0 <.Lpcrel_hi3>
80000796: 6582         	ld	a1, 0x0(sp)

0000000080000798 <.Lpcrel_hi2>:
80000798: 00005517     	auipc	a0, 0x5
8000079c: 31050613     	addi	a2, a0, 0x310
800007a0: 4521         	li	a0, 0x8
800007a2: 00004097     	auipc	ra, 0x4
800007a6: 63a080e7     	jalr	0x63a(ra) <core::panicking::panic_misaligned_pointer_dereference::hda85f7fb51d959f0>
800007aa: 6522         	ld	a0, 0x8(sp)
800007ac: 6105         	addi	sp, sp, 0x20
800007ae: 8082         	ret

00000000800007b0 <.Lpcrel_hi3>:
800007b0: 00005517     	auipc	a0, 0x5
800007b4: 2f850513     	addi	a0, a0, 0x2f8
800007b8: 00004097     	auipc	ra, 0x4
800007bc: 604080e7     	jalr	0x604(ra) <core::panicking::panic_null_pointer_dereference::hbac6411af4f2e916>

00000000800007c0 <_$LT$lab5_kernel_task3..spinlock..SpinLockGuard$LT$T$GT$$u20$as$u20$core..ops..deref..DerefMut$GT$::deref_mut::h1d6518625cfd55e9>:
800007c0: 1101         	addi	sp, sp, -0x20
800007c2: e82a         	sd	a0, 0x10(sp)
800007c4: 6108         	ld	a0, 0x0(a0)
800007c6: 0541         	addi	a0, a0, 0x10
800007c8: e02a         	sd	a0, 0x0(sp)
800007ca: 85aa         	mv	a1, a0
800007cc: e42e         	sd	a1, 0x8(sp)
800007ce: ec2a         	sd	a0, 0x18(sp)
800007d0: 891d         	andi	a0, a0, 0x7
800007d2: e509         	bnez	a0, 0x800007dc <_$LT$lab5_kernel_task3..spinlock..SpinLockGuard$LT$T$GT$$u20$as$u20$core..ops..deref..DerefMut$GT$::deref_mut::h1d6518625cfd55e9+0x1c>
800007d4: a009         	j	0x800007d6 <_$LT$lab5_kernel_task3..spinlock..SpinLockGuard$LT$T$GT$$u20$as$u20$core..ops..deref..DerefMut$GT$::deref_mut::h1d6518625cfd55e9+0x16>
800007d6: 6522         	ld	a0, 0x8(sp)
800007d8: ed01         	bnez	a0, 0x800007f0 <.Lpcrel_hi4+0x12>
800007da: a831         	j	0x800007f6 <.Lpcrel_hi5>
800007dc: 6582         	ld	a1, 0x0(sp)

00000000800007de <.Lpcrel_hi4>:
800007de: 00005517     	auipc	a0, 0x5
800007e2: 2e250613     	addi	a2, a0, 0x2e2
800007e6: 4521         	li	a0, 0x8
800007e8: 00004097     	auipc	ra, 0x4
800007ec: 5f4080e7     	jalr	0x5f4(ra) <core::panicking::panic_misaligned_pointer_dereference::hda85f7fb51d959f0>
800007f0: 6522         	ld	a0, 0x8(sp)
800007f2: 6105         	addi	sp, sp, 0x20
800007f4: 8082         	ret

00000000800007f6 <.Lpcrel_hi5>:
800007f6: 00005517     	auipc	a0, 0x5
800007fa: 2ca50513     	addi	a0, a0, 0x2ca
800007fe: 00004097     	auipc	ra, 0x4
80000802: 5be080e7     	jalr	0x5be(ra) <core::panicking::panic_null_pointer_dereference::hbac6411af4f2e916>

0000000080000806 <_$LT$lab5_kernel_task3..spinlock..SpinLockGuard$LT$T$GT$$u20$as$u20$core..ops..deref..DerefMut$GT$::deref_mut::h7b7960eafc890d48>:
80000806: 1101         	addi	sp, sp, -0x20
80000808: e82a         	sd	a0, 0x10(sp)
8000080a: 6108         	ld	a0, 0x0(a0)
8000080c: e02a         	sd	a0, 0x0(sp)
8000080e: 85aa         	mv	a1, a0
80000810: e42e         	sd	a1, 0x8(sp)
80000812: ec2a         	sd	a0, 0x18(sp)
80000814: 891d         	andi	a0, a0, 0x7
80000816: e509         	bnez	a0, 0x80000820 <_$LT$lab5_kernel_task3..spinlock..SpinLockGuard$LT$T$GT$$u20$as$u20$core..ops..deref..DerefMut$GT$::deref_mut::h7b7960eafc890d48+0x1a>
80000818: a009         	j	0x8000081a <_$LT$lab5_kernel_task3..spinlock..SpinLockGuard$LT$T$GT$$u20$as$u20$core..ops..deref..DerefMut$GT$::deref_mut::h7b7960eafc890d48+0x14>
8000081a: 6522         	ld	a0, 0x8(sp)
8000081c: ed01         	bnez	a0, 0x80000834 <.Lpcrel_hi6+0x12>
8000081e: a831         	j	0x8000083a <.Lpcrel_hi7>
80000820: 6582         	ld	a1, 0x0(sp)

0000000080000822 <.Lpcrel_hi6>:
80000822: 00005517     	auipc	a0, 0x5
80000826: 29e50613     	addi	a2, a0, 0x29e
8000082a: 4521         	li	a0, 0x8
8000082c: 00004097     	auipc	ra, 0x4
80000830: 5b0080e7     	jalr	0x5b0(ra) <core::panicking::panic_misaligned_pointer_dereference::hda85f7fb51d959f0>
80000834: 6522         	ld	a0, 0x8(sp)
80000836: 6105         	addi	sp, sp, 0x20
80000838: 8082         	ret

000000008000083a <.Lpcrel_hi7>:
8000083a: 00005517     	auipc	a0, 0x5
8000083e: 28650513     	addi	a0, a0, 0x286
80000842: 00004097     	auipc	ra, 0x4
80000846: 57a080e7     	jalr	0x57a(ra) <core::panicking::panic_null_pointer_dereference::hbac6411af4f2e916>

000000008000084a <__rustc::rust_begin_unwind>:
8000084a: 7159         	addi	sp, sp, -0x70
8000084c: f486         	sd	ra, 0x68(sp)
8000084e: e42a         	sd	a0, 0x8(sp)
80000850: 00000097     	auipc	ra, 0x0
80000854: 43a080e7     	jalr	0x43a(ra) <lab5_kernel_task3::read_mhartid::hb17ac286a97fc288>
80000858: e82a         	sd	a0, 0x10(sp)
8000085a: 080c         	addi	a1, sp, 0x10
8000085c: ecae         	sd	a1, 0x58(sp)
8000085e: 0028         	addi	a0, sp, 0x8
80000860: e02a         	sd	a0, 0x0(sp)
80000862: f0aa         	sd	a0, 0x60(sp)
80000864: 1828         	addi	a0, sp, 0x38
80000866: 00002097     	auipc	ra, 0x2
8000086a: 342080e7     	jalr	0x342(ra) <core::fmt::rt::Argument::new_display::h26a32fde33194792>
8000086e: 6582         	ld	a1, 0x0(sp)
80000870: 00a8         	addi	a0, sp, 0x48
80000872: 00002097     	auipc	ra, 0x2
80000876: 37a080e7     	jalr	0x37a(ra) <core::fmt::rt::Argument::new_display::h3c7ad53467ad9b19>
8000087a: 6506         	ld	a0, 0x40(sp)
8000087c: f02a         	sd	a0, 0x20(sp)
8000087e: 7562         	ld	a0, 0x38(sp)
80000880: ec2a         	sd	a0, 0x18(sp)
80000882: 6546         	ld	a0, 0x50(sp)
80000884: f82a         	sd	a0, 0x30(sp)
80000886: 6526         	ld	a0, 0x48(sp)
80000888: f42a         	sd	a0, 0x28(sp)

000000008000088a <.Lpcrel_hi2>:
8000088a: 00005517     	auipc	a0, 0x5
8000088e: b4450513     	addi	a0, a0, -0x4bc
80000892: 082c         	addi	a1, sp, 0x18
80000894: 00000097     	auipc	ra, 0x0
80000898: 994080e7     	jalr	-0x66c(ra) <core::fmt::Arguments::new::h20477a2e14f781db>
8000089c: fffff097     	auipc	ra, 0xfffff
800008a0: 7ec080e7     	jalr	0x7ec(ra) <lab5_kernel_task3::console::print::h4512414521490714>
800008a4: 4505         	li	a0, 0x1
800008a6: 00002097     	auipc	ra, 0x2
800008aa: cde080e7     	jalr	-0x322(ra) <lab5_kernel_task3::qemu_exit::h0f0a3b696d7196c5>

00000000800008ae <lab5_kernel_task3::touch_heap::h15cce592fb30fcfb>:
800008ae: 7111         	addi	sp, sp, -0x100
800008b0: fd86         	sd	ra, 0xf8(sp)
800008b2: f436         	sd	a3, 0x28(sp)
800008b4: f82e         	sd	a1, 0x30(sp)
800008b6: 85aa         	mv	a1, a0
800008b8: 7542         	ld	a0, 0x30(sp)
800008ba: f0ae         	sd	a1, 0x60(sp)
800008bc: f4aa         	sd	a0, 0x68(sp)
800008be: f8b2         	sd	a2, 0x70(sp)
800008c0: fcb6         	sd	a3, 0x78(sp)
800008c2: e13a         	sd	a4, 0x80(sp)

00000000800008c4 <.Lpcrel_hi3>:
800008c4: 00006517     	auipc	a0, 0x6
800008c8: 55450513     	addi	a0, a0, 0x554
800008cc: f5aa         	sd	a0, 0xe8(sp)
800008ce: f9ae         	sd	a1, 0xf0(sp)
800008d0: 952e         	add	a0, a0, a1
800008d2: fc2a         	sd	a0, 0x38(sp)
800008d4: e52a         	sd	a0, 0x88(sp)
800008d6: 4501         	li	a0, 0x0
800008d8: e4aa         	sd	a0, 0x48(sp)
800008da: e8aa         	sd	a0, 0x50(sp)
800008dc: 0ad10323     	sb	a3, 0xa6(sp)
800008e0: 451d         	li	a0, 0x7
800008e2: 0aa103a3     	sb	a0, 0xa7(sp)
800008e6: 00369513     	slli	a0, a3, 0x3
800008ea: 8d15         	sub	a0, a0, a3
800008ec: 0ac10123     	sb	a2, 0xa2(sp)
800008f0: 0aa101a3     	sb	a0, 0xa3(sp)
800008f4: 9532         	add	a0, a0, a2
800008f6: 0ae10223     	sb	a4, 0xa4(sp)
800008fa: 45b5         	li	a1, 0xd
800008fc: 0ab102a3     	sb	a1, 0xa5(sp)
80000900: 02b705b3     	mul	a1, a4, a1
80000904: 0aa10023     	sb	a0, 0xa0(sp)
80000908: 0ab100a3     	sb	a1, 0xa1(sp)
8000090c: 952e         	add	a0, a0, a1
8000090e: e0aa         	sd	a0, 0x40(sp)
80000910: 08a10a23     	sb	a0, 0x94(sp)
80000914: a009         	j	0x80000916 <.Lpcrel_hi3+0x52>
80000916: 75c2         	ld	a1, 0x30(sp)
80000918: 6526         	ld	a0, 0x48(sp)
8000091a: 00b56663     	bltu	a0, a1, 0x80000926 <.Lpcrel_hi3+0x62>
8000091e: a009         	j	0x80000920 <.Lpcrel_hi3+0x5c>
80000920: 4501         	li	a0, 0x0
80000922: ecaa         	sd	a0, 0x58(sp)
80000924: a89d         	j	0x8000099a <.Lpcrel_hi4+0x38>
80000926: 75a2         	ld	a1, 0x28(sp)
80000928: 6506         	ld	a0, 0x40(sp)
8000092a: 04814603     	lbu	a2, 0x48(sp)
8000092e: 08a10f23     	sb	a0, 0x9e(sp)
80000932: 08c10fa3     	sb	a2, 0x9f(sp)
80000936: 9d31         	addw	a0, a0, a2
80000938: 899d         	andi	a1, a1, 0x7
8000093a: 08a10ba3     	sb	a0, 0x97(sp)
8000093e: cd2e         	sw	a1, 0x98(sp)
80000940: 0ff57513     	zext.b	a0, a0
80000944: 00000097     	auipc	ra, 0x0
80000948: 998080e7     	jalr	-0x668(ra) <core::intrinsics::rotate_left::h57d84328c0708bcf>
8000094c: 85aa         	mv	a1, a0
8000094e: 7562         	ld	a0, 0x38(sp)
80000950: 08b10b23     	sb	a1, 0x96(sp)
80000954: 6626         	ld	a2, 0x48(sp)
80000956: e5aa         	sd	a0, 0xc8(sp)
80000958: e9b2         	sd	a2, 0xd0(sp)
8000095a: 9532         	add	a0, a0, a2
8000095c: 0ff5f593     	zext.b	a1, a1
80000960: ec2e         	sd	a1, 0x18(sp)

0000000080000962 <.Lpcrel_hi4>:
80000962: 00005617     	auipc	a2, 0x5
80000966: 20660613     	addi	a2, a2, 0x206
8000096a: 00002097     	auipc	ra, 0x2
8000096e: ff6080e7     	jalr	-0xa(ra) <core::ptr::write_volatile::hc5a1ef04a6bbdf17>
80000972: 6546         	ld	a0, 0x50(sp)
80000974: f52a         	sd	a0, 0xa8(sp)
80000976: 458d         	li	a1, 0x3
80000978: db2e         	sw	a1, 0xb4(sp)
8000097a: 00000097     	auipc	ra, 0x0
8000097e: 98e080e7     	jalr	-0x672(ra) <core::intrinsics::rotate_left::h870f961987655293>
80000982: 65e2         	ld	a1, 0x18(sp)
80000984: fd2a         	sd	a0, 0xb8(sp)
80000986: e1ae         	sd	a1, 0xc0(sp)
80000988: 952e         	add	a0, a0, a1
8000098a: e8aa         	sd	a0, 0x50(sp)
8000098c: 65a6         	ld	a1, 0x48(sp)
8000098e: 00158513     	addi	a0, a1, 0x1
80000992: f02a         	sd	a0, 0x20(sp)
80000994: 0ab56163     	bltu	a0, a1, 0x80000a36 <.Lpcrel_hi8>
80000998: a861         	j	0x80000a30 <.Lpcrel_hi7+0x10>
8000099a: 75c2         	ld	a1, 0x30(sp)
8000099c: 6566         	ld	a0, 0x58(sp)
8000099e: 00b56763     	bltu	a0, a1, 0x800009ac <.Lpcrel_hi4+0x4a>
800009a2: a009         	j	0x800009a4 <.Lpcrel_hi4+0x42>
800009a4: 6546         	ld	a0, 0x50(sp)
800009a6: 70ee         	ld	ra, 0xf8(sp)
800009a8: 6111         	addi	sp, sp, 0x100
800009aa: 8082         	ret
800009ac: 7562         	ld	a0, 0x38(sp)
800009ae: 65e6         	ld	a1, 0x58(sp)
800009b0: edaa         	sd	a0, 0xd8(sp)
800009b2: f1ae         	sd	a1, 0xe0(sp)
800009b4: 952e         	add	a0, a0, a1

00000000800009b6 <.Lpcrel_hi5>:
800009b6: 00005597     	auipc	a1, 0x5
800009ba: 16a58593     	addi	a1, a1, 0x16a
800009be: 00002097     	auipc	ra, 0x2
800009c2: f18080e7     	jalr	-0xe8(ra) <core::ptr::read_volatile::h455e802862cc9396>
800009c6: 08a10aa3     	sb	a0, 0x95(sp)
800009ca: 0ff57513     	zext.b	a0, a0
800009ce: e42a         	sd	a0, 0x8(sp)
800009d0: 6566         	ld	a0, 0x58(sp)
800009d2: 00757593     	andi	a1, a0, 0x7
800009d6: e82e         	sd	a1, 0x10(sp)
800009d8: 03f00513     	li	a0, 0x3f
800009dc: 02b56763     	bltu	a0, a1, 0x80000a0a <.Lpcrel_hi6>
800009e0: a009         	j	0x800009e2 <.Lpcrel_hi5+0x2c>
800009e2: 7542         	ld	a0, 0x30(sp)
800009e4: 65a2         	ld	a1, 0x8(sp)
800009e6: 6642         	ld	a2, 0x10(sp)
800009e8: 00c59633     	sll	a2, a1, a2
800009ec: 65c6         	ld	a1, 0x50(sp)
800009ee: 8db1         	xor	a1, a1, a2
800009f0: e8ae         	sd	a1, 0x50(sp)
800009f2: 810d         	srli	a0, a0, 0x3
800009f4: 4585         	li	a1, 0x1
800009f6: fffff097     	auipc	ra, 0xfffff
800009fa: 7cc080e7     	jalr	0x7cc(ra) <core::cmp::Ord::max::h152348c6ddeacb1c>
800009fe: 65e6         	ld	a1, 0x58(sp)
80000a00: 952e         	add	a0, a0, a1
80000a02: e02a         	sd	a0, 0x0(sp)
80000a04: 00b56e63     	bltu	a0, a1, 0x80000a20 <.Lpcrel_hi7>
80000a08: a809         	j	0x80000a1a <.Lpcrel_hi6+0x10>

0000000080000a0a <.Lpcrel_hi6>:
80000a0a: 00005517     	auipc	a0, 0x5
80000a0e: 12e50513     	addi	a0, a0, 0x12e
80000a12: 00004097     	auipc	ra, 0x4
80000a16: 302080e7     	jalr	0x302(ra) <core::panicking::panic_const::panic_const_shl_overflow::h801c58e583f44244>
80000a1a: 6502         	ld	a0, 0x0(sp)
80000a1c: ecaa         	sd	a0, 0x58(sp)
80000a1e: bfb5         	j	0x8000099a <.Lpcrel_hi4+0x38>

0000000080000a20 <.Lpcrel_hi7>:
80000a20: 00005517     	auipc	a0, 0x5
80000a24: 13050513     	addi	a0, a0, 0x130
80000a28: 00004097     	auipc	ra, 0x4
80000a2c: 2ce080e7     	jalr	0x2ce(ra) <core::panicking::panic_const::panic_const_add_overflow::h67cba067093910f8>
80000a30: 7502         	ld	a0, 0x20(sp)
80000a32: e4aa         	sd	a0, 0x48(sp)
80000a34: b5cd         	j	0x80000916 <.Lpcrel_hi3+0x52>

0000000080000a36 <.Lpcrel_hi8>:
80000a36: 00005517     	auipc	a0, 0x5
80000a3a: 14a50513     	addi	a0, a0, 0x14a
80000a3e: 00004097     	auipc	ra, 0x4
80000a42: 2b8080e7     	jalr	0x2b8(ra) <core::panicking::panic_const::panic_const_add_overflow::h67cba067093910f8>

0000000080000a46 <lab5_kernel_task3::bool_to_u64::h4072d49acbd2121f>:
80000a46: 1141         	addi	sp, sp, -0x10
80000a48: 00a107a3     	sb	a0, 0xf(sp)
80000a4c: e509         	bnez	a0, 0x80000a56 <lab5_kernel_task3::bool_to_u64::h4072d49acbd2121f+0x10>
80000a4e: a009         	j	0x80000a50 <lab5_kernel_task3::bool_to_u64::h4072d49acbd2121f+0xa>
80000a50: 4501         	li	a0, 0x0
80000a52: e02a         	sd	a0, 0x0(sp)
80000a54: a021         	j	0x80000a5c <lab5_kernel_task3::bool_to_u64::h4072d49acbd2121f+0x16>
80000a56: 4505         	li	a0, 0x1
80000a58: e02a         	sd	a0, 0x0(sp)
80000a5a: a009         	j	0x80000a5c <lab5_kernel_task3::bool_to_u64::h4072d49acbd2121f+0x16>
80000a5c: 6502         	ld	a0, 0x0(sp)
80000a5e: 0141         	addi	sp, sp, 0x10
80000a60: 8082         	ret

0000000080000a62 <lab5_kernel_task3::execute_job::heaaded99e0832bbb>:
80000a62: 711d         	addi	sp, sp, -0x60
80000a64: ec86         	sd	ra, 0x58(sp)
80000a66: e836         	sd	a3, 0x10(sp)
80000a68: ec32         	sd	a2, 0x18(sp)
80000a6a: f02e         	sd	a1, 0x20(sp)
80000a6c: 85aa         	mv	a1, a0
80000a6e: 7502         	ld	a0, 0x20(sp)
80000a70: f42e         	sd	a1, 0x28(sp)
80000a72: e0ae         	sd	a1, 0x40(sp)
80000a74: e4b2         	sd	a2, 0x48(sp)
80000a76: e8b6         	sd	a3, 0x50(sp)
80000a78: 4681         	li	a3, 0x0
80000a7a: f836         	sd	a3, 0x30(sp)
80000a7c: 6908         	ld	a0, 0x10(a0)
80000a7e: 1582         	slli	a1, a1, 0x20
80000a80: 8d2d         	xor	a0, a0, a1
80000a82: 8d31         	xor	a0, a0, a2

0000000080000a84 <.Lpcrel_hi9>:
80000a84: 00005597     	auipc	a1, 0x5
80000a88: 07c58593     	addi	a1, a1, 0x7c
80000a8c: 618c         	ld	a1, 0x0(a1)
80000a8e: 8d2d         	xor	a0, a0, a1
80000a90: fc2a         	sd	a0, 0x38(sp)
80000a92: a009         	j	0x80000a94 <.Lpcrel_hi9+0x10>
80000a94: 7582         	ld	a1, 0x20(sp)
80000a96: 7542         	ld	a0, 0x30(sp)
80000a98: 718c         	ld	a1, 0x20(a1)
80000a9a: 00b56b63     	bltu	a0, a1, 0x80000ab0 <.Lpcrel_hi9+0x2c>
80000a9e: a009         	j	0x80000aa0 <.Lpcrel_hi9+0x1c>
80000aa0: 7562         	ld	a0, 0x38(sp)
80000aa2: fffff097     	auipc	ra, 0xfffff
80000aa6: 688080e7     	jalr	0x688(ra) <core::hint::black_box::h1d5b7ea5d72894a5>
80000aaa: 60e6         	ld	ra, 0x58(sp)
80000aac: 6125         	addi	sp, sp, 0x60
80000aae: 8082         	ret
80000ab0: 7582         	ld	a1, 0x20(sp)
80000ab2: 7562         	ld	a0, 0x38(sp)
80000ab4: 7642         	ld	a2, 0x30(sp)
80000ab6: 8d31         	xor	a0, a0, a2
80000ab8: 758c         	ld	a1, 0x28(a1)
80000aba: 00001097     	auipc	ra, 0x1
80000abe: 786080e7     	jalr	0x786(ra) <lab5_kernel_task3::busy_mix::hc0542bcceab4471e>
80000ac2: 7602         	ld	a2, 0x20(sp)
80000ac4: 65c2         	ld	a1, 0x10(sp)
80000ac6: 76a2         	ld	a3, 0x28(sp)
80000ac8: 872a         	mv	a4, a0
80000aca: 6562         	ld	a0, 0x18(sp)
80000acc: fc3a         	sd	a4, 0x38(sp)
80000ace: 6a10         	ld	a2, 0x10(a2)
80000ad0: 7742         	ld	a4, 0x30(sp)
80000ad2: 00000097     	auipc	ra, 0x0
80000ad6: ddc080e7     	jalr	-0x224(ra) <lab5_kernel_task3::touch_heap::h15cce592fb30fcfb>
80000ada: 85aa         	mv	a1, a0
80000adc: 7562         	ld	a0, 0x38(sp)
80000ade: 8d2d         	xor	a0, a0, a1
80000ae0: fc2a         	sd	a0, 0x38(sp)
80000ae2: 75c2         	ld	a1, 0x30(sp)
80000ae4: 00158513     	addi	a0, a1, 0x1
80000ae8: e42a         	sd	a0, 0x8(sp)
80000aea: 00b56663     	bltu	a0, a1, 0x80000af6 <.Lpcrel_hi10>
80000aee: a009         	j	0x80000af0 <.Lpcrel_hi9+0x6c>
80000af0: 6522         	ld	a0, 0x8(sp)
80000af2: f82a         	sd	a0, 0x30(sp)
80000af4: b745         	j	0x80000a94 <.Lpcrel_hi9+0x10>

0000000080000af6 <.Lpcrel_hi10>:
80000af6: 00005517     	auipc	a0, 0x5
80000afa: 0a250513     	addi	a0, a0, 0xa2
80000afe: 00004097     	auipc	ra, 0x4
80000b02: 1f8080e7     	jalr	0x1f8(ra) <core::panicking::panic_const::panic_const_add_overflow::h67cba067093910f8>

0000000080000b06 <lab5_kernel_task3::pop_next_job::h85fa45ba85ecd867>:
80000b06: 7125         	addi	sp, sp, -0x1a0
80000b08: ef06         	sd	ra, 0x198(sp)
80000b0a: f42a         	sd	a0, 0x28(sp)

0000000080000b0c <.Lpcrel_hi11>:
80000b0c: 00016517     	auipc	a0, 0x16
80000b10: 40450513     	addi	a0, a0, 0x404
80000b14: 00000097     	auipc	ra, 0x0
80000b18: a3a080e7     	jalr	-0x5c6(ra) <lab5_kernel_task3::spinlock::SpinLock$LT$T$GT$::lock::h0f608dc81da44a39>
80000b1c: f0aa         	sd	a0, 0x60(sp)
80000b1e: 00000097     	auipc	ra, 0x0
80000b22: 612080e7     	jalr	0x612(ra) <lab5_kernel_task3::hold_lock_window::ha551cf5c78fa28b1>
80000b26: 1088         	addi	a0, sp, 0x60
80000b28: f02a         	sd	a0, 0x20(sp)
80000b2a: 00000097     	auipc	ra, 0x0
80000b2e: cdc080e7     	jalr	-0x324(ra) <_$LT$lab5_kernel_task3..spinlock..SpinLockGuard$LT$T$GT$$u20$as$u20$core..ops..deref..DerefMut$GT$::deref_mut::h7b7960eafc890d48>
80000b32: 00001097     	auipc	ra, 0x1
80000b36: 64c080e7     	jalr	0x64c(ra) <lab5_kernel_task3::RunQueue::pop_next::h29d528039e421693>
80000b3a: 862a         	mv	a2, a0
80000b3c: 7502         	ld	a0, 0x20(sp)
80000b3e: e832         	sd	a2, 0x10(sp)
80000b40: ec2e         	sd	a1, 0x18(sp)
80000b42: feb2         	sd	a2, 0x178(sp)
80000b44: e32e         	sd	a1, 0x180(sp)
80000b46: 00000097     	auipc	ra, 0x0
80000b4a: c36080e7     	jalr	-0x3ca(ra) <_$LT$lab5_kernel_task3..spinlock..SpinLockGuard$LT$T$GT$$u20$as$u20$core..ops..deref..Deref$GT$::deref::h75e5ba78bc81e491>
80000b4e: 00001097     	auipc	ra, 0x1
80000b52: 6d0080e7     	jalr	0x6d0(ra) <lab5_kernel_task3::RunQueue::remaining::h62cf4fea635b682b>
80000b56: 66c2         	ld	a3, 0x10(sp)
80000b58: 6662         	ld	a2, 0x18(sp)
80000b5a: 85aa         	mv	a1, a0
80000b5c: 7502         	ld	a0, 0x20(sp)
80000b5e: e72e         	sd	a1, 0x188(sp)
80000b60: e4b6         	sd	a3, 0x48(sp)
80000b62: e8b2         	sd	a2, 0x50(sp)
80000b64: ecae         	sd	a1, 0x58(sp)
80000b66: 00003097     	auipc	ra, 0x3
80000b6a: 28e080e7     	jalr	0x28e(ra) <core::ptr::drop_in_place$LT$lab5_kernel_task3..spinlock..SpinLockGuard$LT$lab5_kernel_task3..RunQueue$GT$$GT$::had1488e64e48b413>
80000b6e: 65a6         	ld	a1, 0x48(sp)
80000b70: 6546         	ld	a0, 0x50(sp)
80000b72: f82e         	sd	a1, 0x30(sp)
80000b74: fc2a         	sd	a0, 0x38(sp)
80000b76: 6566         	ld	a0, 0x58(sp)
80000b78: e0aa         	sd	a0, 0x40(sp)
80000b7a: 7542         	ld	a0, 0x30(sp)
80000b7c: 8905         	andi	a0, a0, 0x1
80000b7e: c909         	beqz	a0, 0x80000b90 <.Lpcrel_hi11+0x84>
80000b80: a009         	j	0x80000b82 <.Lpcrel_hi11+0x76>
80000b82: 7562         	ld	a0, 0x38(sp)
80000b84: e42a         	sd	a0, 0x8(sp)
80000b86: eb2a         	sd	a0, 0x190(sp)
80000b88: 45a1         	li	a1, 0x8
80000b8a: 00b56863     	bltu	a0, a1, 0x80000b9a <.Lpcrel_hi11+0x8e>
80000b8e: a0e5         	j	0x80000c76 <.Lpcrel_hi13+0x1c>
80000b90: 7542         	ld	a0, 0x30(sp)
80000b92: 75e2         	ld	a1, 0x38(sp)
80000b94: 60fa         	ld	ra, 0x198(sp)
80000b96: 611d         	addi	sp, sp, 0x1a0
80000b98: 8082         	ret
80000b9a: 6522         	ld	a0, 0x8(sp)
80000b9c: 00351593     	slli	a1, a0, 0x3
80000ba0: 051a         	slli	a0, a0, 0x6
80000ba2: 40b505b3     	sub	a1, a0, a1

0000000080000ba6 <.Lpcrel_hi12>:
80000ba6: 00005517     	auipc	a0, 0x5
80000baa: 3da50513     	addi	a0, a0, 0x3da
80000bae: 952e         	add	a0, a0, a1
80000bb0: 790c         	ld	a1, 0x30(a0)
80000bb2: ed2e         	sd	a1, 0x98(sp)
80000bb4: 750c         	ld	a1, 0x28(a0)
80000bb6: e92e         	sd	a1, 0x90(sp)
80000bb8: 710c         	ld	a1, 0x20(a0)
80000bba: e52e         	sd	a1, 0x88(sp)
80000bbc: 6d0c         	ld	a1, 0x18(a0)
80000bbe: e12e         	sd	a1, 0x80(sp)
80000bc0: 690c         	ld	a1, 0x10(a0)
80000bc2: fcae         	sd	a1, 0x78(sp)
80000bc4: 650c         	ld	a1, 0x8(a0)
80000bc6: f8ae         	sd	a1, 0x70(sp)
80000bc8: 6108         	ld	a0, 0x0(a0)
80000bca: f4aa         	sd	a0, 0x68(sp)
80000bcc: 18a8         	addi	a0, sp, 0x78
80000bce: e02a         	sd	a0, 0x0(sp)
80000bd0: 09814503     	lbu	a0, 0x98(sp)
80000bd4: 00001097     	auipc	ra, 0x1
80000bd8: 4fe080e7     	jalr	0x4fe(ra) <lab5_kernel_task3::JobClass::as_str::h9231136219e7239a>
80000bdc: 862a         	mv	a2, a0
80000bde: 6502         	ld	a0, 0x0(sp)
80000be0: e5b2         	sd	a2, 0xc8(sp)
80000be2: e9ae         	sd	a1, 0xd0(sp)
80000be4: 102c         	addi	a1, sp, 0x28
80000be6: f12e         	sd	a1, 0xa0(sp)
80000be8: f52a         	sd	a0, 0xa8(sp)
80000bea: 10a8         	addi	a0, sp, 0x68
80000bec: f92a         	sd	a0, 0xb0(sp)
80000bee: 01a8         	addi	a0, sp, 0xc8
80000bf0: fd2a         	sd	a0, 0xb8(sp)
80000bf2: 0088         	addi	a0, sp, 0x40
80000bf4: e1aa         	sd	a0, 0xc0(sp)
80000bf6: 758a         	ld	a1, 0xa0(sp)
80000bf8: 1228         	addi	a0, sp, 0x128
80000bfa: 00002097     	auipc	ra, 0x2
80000bfe: fae080e7     	jalr	-0x52(ra) <core::fmt::rt::Argument::new_display::h26a32fde33194792>
80000c02: 75aa         	ld	a1, 0xa8(sp)
80000c04: 1a28         	addi	a0, sp, 0x138
80000c06: 00002097     	auipc	ra, 0x2
80000c0a: 008080e7     	jalr	0x8(ra) <core::fmt::rt::Argument::new_display::hd6d864d0c34cbb40>
80000c0e: 75ca         	ld	a1, 0xb0(sp)
80000c10: 02a8         	addi	a0, sp, 0x148
80000c12: 00002097     	auipc	ra, 0x2
80000c16: fb8080e7     	jalr	-0x48(ra) <core::fmt::rt::Argument::new_display::h343420e83d4da8a8>
80000c1a: 75ea         	ld	a1, 0xb8(sp)
80000c1c: 0aa8         	addi	a0, sp, 0x158
80000c1e: 00002097     	auipc	ra, 0x2
80000c22: fac080e7     	jalr	-0x54(ra) <core::fmt::rt::Argument::new_display::h343420e83d4da8a8>
80000c26: 658e         	ld	a1, 0xc0(sp)
80000c28: 12a8         	addi	a0, sp, 0x168
80000c2a: 00002097     	auipc	ra, 0x2
80000c2e: f7e080e7     	jalr	-0x82(ra) <core::fmt::rt::Argument::new_display::h26a32fde33194792>
80000c32: 7552         	ld	a0, 0x130(sp)
80000c34: f1aa         	sd	a0, 0xe0(sp)
80000c36: 7532         	ld	a0, 0x128(sp)
80000c38: edaa         	sd	a0, 0xd8(sp)
80000c3a: 6516         	ld	a0, 0x140(sp)
80000c3c: f9aa         	sd	a0, 0xf0(sp)
80000c3e: 7572         	ld	a0, 0x138(sp)
80000c40: f5aa         	sd	a0, 0xe8(sp)
80000c42: 6556         	ld	a0, 0x150(sp)
80000c44: e22a         	sd	a0, 0x100(sp)
80000c46: 6536         	ld	a0, 0x148(sp)
80000c48: fdaa         	sd	a0, 0xf8(sp)
80000c4a: 7516         	ld	a0, 0x160(sp)
80000c4c: ea2a         	sd	a0, 0x110(sp)
80000c4e: 6576         	ld	a0, 0x158(sp)
80000c50: e62a         	sd	a0, 0x108(sp)
80000c52: 7556         	ld	a0, 0x170(sp)
80000c54: f22a         	sd	a0, 0x120(sp)
80000c56: 7536         	ld	a0, 0x168(sp)
80000c58: ee2a         	sd	a0, 0x118(sp)

0000000080000c5a <.Lpcrel_hi13>:
80000c5a: 00004517     	auipc	a0, 0x4
80000c5e: 49950513     	addi	a0, a0, 0x499
80000c62: 09ac         	addi	a1, sp, 0xd8
80000c64: fffff097     	auipc	ra, 0xfffff
80000c68: 65a080e7     	jalr	0x65a(ra) <core::fmt::Arguments::new::he3965fc147052b43>
80000c6c: fffff097     	auipc	ra, 0xfffff
80000c70: 41c080e7     	jalr	0x41c(ra) <lab5_kernel_task3::console::print::h4512414521490714>
80000c74: bf31         	j	0x80000b90 <.Lpcrel_hi11+0x84>
80000c76: 6522         	ld	a0, 0x8(sp)

0000000080000c78 <.Lpcrel_hi14>:
80000c78: 00005597     	auipc	a1, 0x5
80000c7c: f3858613     	addi	a2, a1, -0xc8
80000c80: 45a1         	li	a1, 0x8
80000c82: 00004097     	auipc	ra, 0x4
80000c86: 0ce080e7     	jalr	0xce(ra) <core::panicking::panic_bounds_check::h6aaee0d15e0261eb>

0000000080000c8a <lab5_kernel_task3::read_mhartid::hb17ac286a97fc288>:
80000c8a: 1141         	addi	sp, sp, -0x10
80000c8c: f1402573     	csrr	a0, mhartid
80000c90: e42a         	sd	a0, 0x8(sp)
80000c92: 6522         	ld	a0, 0x8(sp)
80000c94: 0141         	addi	sp, sp, 0x10
80000c96: 8082         	ret

0000000080000c98 <lab5_kernel_task3::BumpAllocator::reset::hf926a65285620d24>:
80000c98: 1141         	addi	sp, sp, -0x10
80000c9a: 85aa         	mv	a1, a0
80000c9c: e42e         	sd	a1, 0x8(sp)
80000c9e: 4501         	li	a0, 0x0
80000ca0: e188         	sd	a0, 0x0(a1)
80000ca2: e588         	sd	a0, 0x8(a1)
80000ca4: e988         	sd	a0, 0x10(a1)
80000ca6: 0141         	addi	sp, sp, 0x10
80000ca8: 8082         	ret

0000000080000caa <lab5_kernel_task3::BumpAllocator::allocate::h97f3a8e24119e641>:
80000caa: 7135         	addi	sp, sp, -0xa0
80000cac: ed06         	sd	ra, 0x98(sp)
80000cae: e832         	sd	a2, 0x10(sp)
80000cb0: 862e         	mv	a2, a1
80000cb2: 65c2         	ld	a1, 0x10(sp)
80000cb4: ec32         	sd	a2, 0x18(sp)
80000cb6: 862a         	mv	a2, a0
80000cb8: 6562         	ld	a0, 0x18(sp)
80000cba: f032         	sd	a2, 0x20(sp)
80000cbc: e0aa         	sd	a0, 0x40(sp)
80000cbe: e4ae         	sd	a1, 0x48(sp)
80000cc0: e8b6         	sd	a3, 0x50(sp)
80000cc2: e536         	sd	a3, 0x88(sp)
80000cc4: 4605         	li	a2, 0x1
80000cc6: e932         	sd	a2, 0x90(sp)
80000cc8: fff68613     	addi	a2, a3, -0x1
80000ccc: f0b2         	sd	a2, 0x60(sp)
80000cce: 6108         	ld	a0, 0x0(a0)
80000cd0: fcaa         	sd	a0, 0x78(sp)
80000cd2: e132         	sd	a2, 0x80(sp)
80000cd4: 9532         	add	a0, a0, a2
80000cd6: fff64613     	not	a2, a2
80000cda: 8d71         	and	a0, a0, a2
80000cdc: f42a         	sd	a0, 0x28(sp)
80000cde: f4aa         	sd	a0, 0x68(sp)
80000ce0: fffff097     	auipc	ra, 0xfffff
80000ce4: 458080e7     	jalr	0x458(ra) <core::num::_$LT$impl$u20$usize$GT$::checked_add::h92541912bf2a96f0>
80000ce8: 00003097     	auipc	ra, 0x3
80000cec: 0b0080e7     	jalr	0xb0(ra) <_$LT$core..option..Option$LT$T$GT$$u20$as$u20$core..ops..try_trait..Try$GT$::branch::hec3e151354782060>
80000cf0: f82a         	sd	a0, 0x30(sp)
80000cf2: fc2e         	sd	a1, 0x38(sp)
80000cf4: 7542         	ld	a0, 0x30(sp)
80000cf6: 8905         	andi	a0, a0, 0x1
80000cf8: c901         	beqz	a0, 0x80000d08 <lab5_kernel_task3::BumpAllocator::allocate::h97f3a8e24119e641+0x5e>
80000cfa: a009         	j	0x80000cfc <lab5_kernel_task3::BumpAllocator::allocate::h97f3a8e24119e641+0x52>
80000cfc: 7502         	ld	a0, 0x20(sp)
80000cfe: 00003097     	auipc	ra, 0x3
80000d02: 08e080e7     	jalr	0x8e(ra) <_$LT$core..option..Option$LT$T$GT$$u20$as$u20$core..ops..try_trait..FromResidual$LT$core..option..Option$LT$core..convert..Infallible$GT$$GT$$GT$::from_residual::h47b1361322428644>
80000d06: a095         	j	0x80000d6a <.Lpcrel_hi15+0x10>
80000d08: 75e2         	ld	a1, 0x38(sp)
80000d0a: e42e         	sd	a1, 0x8(sp)
80000d0c: f8ae         	sd	a1, 0x70(sp)
80000d0e: 6541         	lui	a0, 0x10
80000d10: 00b56a63     	bltu	a0, a1, 0x80000d24 <lab5_kernel_task3::BumpAllocator::allocate::h97f3a8e24119e641+0x7a>
80000d14: a009         	j	0x80000d16 <lab5_kernel_task3::BumpAllocator::allocate::h97f3a8e24119e641+0x6c>
80000d16: 65a2         	ld	a1, 0x8(sp)
80000d18: 6562         	ld	a0, 0x18(sp)
80000d1a: e10c         	sd	a1, 0x0(a0)
80000d1c: 6508         	ld	a0, 0x8(a0)
80000d1e: 00b56f63     	bltu	a0, a1, 0x80000d3c <lab5_kernel_task3::BumpAllocator::allocate::h97f3a8e24119e641+0x92>
80000d22: a029         	j	0x80000d2c <lab5_kernel_task3::BumpAllocator::allocate::h97f3a8e24119e641+0x82>
80000d24: 7582         	ld	a1, 0x20(sp)
80000d26: 4501         	li	a0, 0x0
80000d28: e188         	sd	a0, 0x0(a1)
80000d2a: a081         	j	0x80000d6a <.Lpcrel_hi15+0x10>
80000d2c: 6562         	ld	a0, 0x18(sp)
80000d2e: 690c         	ld	a1, 0x10(a0)
80000d30: 00158513     	addi	a0, a1, 0x1
80000d34: e02a         	sd	a0, 0x0(sp)
80000d36: 02b56263     	bltu	a0, a1, 0x80000d5a <.Lpcrel_hi15>
80000d3a: a029         	j	0x80000d44 <lab5_kernel_task3::BumpAllocator::allocate::h97f3a8e24119e641+0x9a>
80000d3c: 6522         	ld	a0, 0x8(sp)
80000d3e: 65e2         	ld	a1, 0x18(sp)
80000d40: e588         	sd	a0, 0x8(a1)
80000d42: b7ed         	j	0x80000d2c <lab5_kernel_task3::BumpAllocator::allocate::h97f3a8e24119e641+0x82>
80000d44: 7582         	ld	a1, 0x20(sp)
80000d46: 6542         	ld	a0, 0x10(sp)
80000d48: 7622         	ld	a2, 0x28(sp)
80000d4a: 6682         	ld	a3, 0x0(sp)
80000d4c: 6762         	ld	a4, 0x18(sp)
80000d4e: eb14         	sd	a3, 0x10(a4)
80000d50: e590         	sd	a2, 0x8(a1)
80000d52: e988         	sd	a0, 0x10(a1)
80000d54: 4505         	li	a0, 0x1
80000d56: e188         	sd	a0, 0x0(a1)
80000d58: a809         	j	0x80000d6a <.Lpcrel_hi15+0x10>

0000000080000d5a <.Lpcrel_hi15>:
80000d5a: 00005517     	auipc	a0, 0x5
80000d5e: e6e50513     	addi	a0, a0, -0x192
80000d62: 00004097     	auipc	ra, 0x4
80000d66: f94080e7     	jalr	-0x6c(ra) <core::panicking::panic_const::panic_const_add_overflow::h67cba067093910f8>
80000d6a: 60ea         	ld	ra, 0x98(sp)
80000d6c: 610d         	addi	sp, sp, 0xa0
80000d6e: 8082         	ret

0000000080000d70 <lab5_kernel_task3::configure_pmp::h4324ee0ee8a2b134>:
80000d70: 557d         	li	a0, -0x1
80000d72: 8109         	srli	a0, a0, 0x2
80000d74: 3b051073     	csrw	pmpaddr0, a0
80000d78: 457d         	li	a0, 0x1f
80000d7a: 3a051073     	csrw	pmpcfg0, a0
80000d7e: 8082         	ret

0000000080000d80 <lab5_kernel_task3::scheduler_loop::h81a180ba088654d4>:
80000d80: 7115         	addi	sp, sp, -0xe0
80000d82: ed86         	sd	ra, 0xd8(sp)
80000d84: e42a         	sd	a0, 0x8(sp)
80000d86: a009         	j	0x80000d88 <lab5_kernel_task3::scheduler_loop::h81a180ba088654d4+0x8>
80000d88: 6522         	ld	a0, 0x8(sp)
80000d8a: 00000097     	auipc	ra, 0x0
80000d8e: d7c080e7     	jalr	-0x284(ra) <lab5_kernel_task3::pop_next_job::h85fa45ba85ecd867>
80000d92: e82a         	sd	a0, 0x10(sp)
80000d94: ec2e         	sd	a1, 0x18(sp)
80000d96: 6542         	ld	a0, 0x10(sp)
80000d98: 8905         	andi	a0, a0, 0x1
80000d9a: c919         	beqz	a0, 0x80000db0 <.Lpcrel_hi16>
80000d9c: a009         	j	0x80000d9e <lab5_kernel_task3::scheduler_loop::h81a180ba088654d4+0x1e>
80000d9e: 65e2         	ld	a1, 0x18(sp)
80000da0: e9ae         	sd	a1, 0xd0(sp)
80000da2: 6522         	ld	a0, 0x8(sp)
80000da4: 00001097     	auipc	ra, 0x1
80000da8: f2c080e7     	jalr	-0xd4(ra) <lab5_kernel_task3::run_job::ha2d601b6278a69bd>
80000dac: a009         	j	0x80000dae <lab5_kernel_task3::scheduler_loop::h81a180ba088654d4+0x2e>
80000dae: bfe9         	j	0x80000d88 <lab5_kernel_task3::scheduler_loop::h81a180ba088654d4+0x8>

0000000080000db0 <.Lpcrel_hi16>:
80000db0: 00016517     	auipc	a0, 0x16
80000db4: 0c050513     	addi	a0, a0, 0xc0
80000db8: 4589         	li	a1, 0x2
80000dba: 00002097     	auipc	ra, 0x2
80000dbe: 63c080e7     	jalr	0x63c(ra) <core::sync::atomic::AtomicUsize::load::h01085caffe0799e0>
80000dc2: 45a1         	li	a1, 0x8
80000dc4: 00b50663     	beq	a0, a1, 0x80000dd0 <.Lpcrel_hi17>
80000dc8: a009         	j	0x80000dca <.Lpcrel_hi16+0x1a>
80000dca: 0100000f     	fence	w, 0
80000dce: b7c5         	j	0x80000dae <lab5_kernel_task3::scheduler_loop::h81a180ba088654d4+0x2e>

0000000080000dd0 <.Lpcrel_hi17>:
80000dd0: 00016517     	auipc	a0, 0x16
80000dd4: 0a850513     	addi	a0, a0, 0xa8
80000dd8: 4585         	li	a1, 0x1
80000dda: 460d         	li	a2, 0x3
80000ddc: 00002097     	auipc	ra, 0x2
80000de0: 6b6080e7     	jalr	0x6b6(ra) <core::sync::atomic::AtomicUsize::fetch_add::hae86e4587c5e2d8e>
80000de4: 85aa         	mv	a1, a0
80000de6: 00158513     	addi	a0, a1, 0x1
80000dea: e02a         	sd	a0, 0x0(sp)
80000dec: 00b56a63     	bltu	a0, a1, 0x80000e00 <.Lpcrel_hi18>
80000df0: a009         	j	0x80000df2 <.Lpcrel_hi17+0x22>
80000df2: 6502         	ld	a0, 0x0(sp)
80000df4: f02a         	sd	a0, 0x20(sp)
80000df6: 6522         	ld	a0, 0x8(sp)
80000df8: 4591         	li	a1, 0x4
80000dfa: 00b56b63     	bltu	a0, a1, 0x80000e10 <.Lpcrel_hi18+0x10>
80000dfe: a86d         	j	0x80000eb8 <.Lpcrel_hi21+0x26>

0000000080000e00 <.Lpcrel_hi18>:
80000e00: 00005517     	auipc	a0, 0x5
80000e04: de050513     	addi	a0, a0, -0x220
80000e08: 00004097     	auipc	ra, 0x4
80000e0c: eee080e7     	jalr	-0x112(ra) <core::panicking::panic_const::panic_const_add_overflow::h67cba067093910f8>
80000e10: 6522         	ld	a0, 0x8(sp)
80000e12: 00351593     	slli	a1, a0, 0x3

0000000080000e16 <.Lpcrel_hi19>:
80000e16: 00016517     	auipc	a0, 0x16
80000e1a: 07250513     	addi	a0, a0, 0x72
80000e1e: 952e         	add	a0, a0, a1
80000e20: 4581         	li	a1, 0x0
80000e22: 00002097     	auipc	ra, 0x2
80000e26: 758080e7     	jalr	0x758(ra) <core::sync::atomic::AtomicU64::load::h21c7385feb3db3ed>
80000e2a: e4aa         	sd	a0, 0x48(sp)
80000e2c: 0028         	addi	a0, sp, 0x8
80000e2e: f42a         	sd	a0, 0x28(sp)
80000e30: 00a8         	addi	a0, sp, 0x48
80000e32: f82a         	sd	a0, 0x30(sp)
80000e34: 1008         	addi	a0, sp, 0x20
80000e36: fc2a         	sd	a0, 0x38(sp)

0000000080000e38 <.Lpcrel_hi20>:
80000e38: 00005517     	auipc	a0, 0x5
80000e3c: cd850513     	addi	a0, a0, -0x328
80000e40: e0aa         	sd	a0, 0x40(sp)
80000e42: 75a2         	ld	a1, 0x28(sp)
80000e44: 0908         	addi	a0, sp, 0x90
80000e46: 00002097     	auipc	ra, 0x2
80000e4a: d62080e7     	jalr	-0x29e(ra) <core::fmt::rt::Argument::new_display::h26a32fde33194792>
80000e4e: 75c2         	ld	a1, 0x30(sp)
80000e50: 1108         	addi	a0, sp, 0xa0
80000e52: 00002097     	auipc	ra, 0x2
80000e56: dbc080e7     	jalr	-0x244(ra) <core::fmt::rt::Argument::new_display::hd6d864d0c34cbb40>
80000e5a: 75e2         	ld	a1, 0x38(sp)
80000e5c: 1908         	addi	a0, sp, 0xb0
80000e5e: 00002097     	auipc	ra, 0x2
80000e62: d4a080e7     	jalr	-0x2b6(ra) <core::fmt::rt::Argument::new_display::h26a32fde33194792>
80000e66: 6586         	ld	a1, 0x40(sp)
80000e68: 0188         	addi	a0, sp, 0xc0
80000e6a: 00002097     	auipc	ra, 0x2
80000e6e: d3e080e7     	jalr	-0x2c2(ra) <core::fmt::rt::Argument::new_display::h26a32fde33194792>
80000e72: 656a         	ld	a0, 0x98(sp)
80000e74: ecaa         	sd	a0, 0x58(sp)
80000e76: 654a         	ld	a0, 0x90(sp)
80000e78: e8aa         	sd	a0, 0x50(sp)
80000e7a: 752a         	ld	a0, 0xa8(sp)
80000e7c: f4aa         	sd	a0, 0x68(sp)
80000e7e: 750a         	ld	a0, 0xa0(sp)
80000e80: f0aa         	sd	a0, 0x60(sp)
80000e82: 756a         	ld	a0, 0xb8(sp)
80000e84: fcaa         	sd	a0, 0x78(sp)
80000e86: 754a         	ld	a0, 0xb0(sp)
80000e88: f8aa         	sd	a0, 0x70(sp)
80000e8a: 652e         	ld	a0, 0xc8(sp)
80000e8c: e52a         	sd	a0, 0x88(sp)
80000e8e: 650e         	ld	a0, 0xc0(sp)
80000e90: e12a         	sd	a0, 0x80(sp)

0000000080000e92 <.Lpcrel_hi21>:
80000e92: 00004517     	auipc	a0, 0x4
80000e96: 0f450513     	addi	a0, a0, 0xf4
80000e9a: 088c         	addi	a1, sp, 0x50
80000e9c: fffff097     	auipc	ra, 0xfffff
80000ea0: 396080e7     	jalr	0x396(ra) <core::fmt::Arguments::new::h2d03f12aa70b4dbb>
80000ea4: fffff097     	auipc	ra, 0xfffff
80000ea8: 1e4080e7     	jalr	0x1e4(ra) <lab5_kernel_task3::console::print::h4512414521490714>
80000eac: 7502         	ld	a0, 0x20(sp)
80000eae: 4591         	li	a1, 0x4
80000eb0: 02b50a63     	beq	a0, a1, 0x80000ee4 <.Lpcrel_hi24>
80000eb4: a009         	j	0x80000eb6 <.Lpcrel_hi21+0x24>
80000eb6: a819         	j	0x80000ecc <.Lpcrel_hi23>
80000eb8: 6522         	ld	a0, 0x8(sp)

0000000080000eba <.Lpcrel_hi22>:
80000eba: 00005597     	auipc	a1, 0x5
80000ebe: d3e58613     	addi	a2, a1, -0x2c2
80000ec2: 4591         	li	a1, 0x4
80000ec4: 00004097     	auipc	ra, 0x4
80000ec8: e8c080e7     	jalr	-0x174(ra) <core::panicking::panic_bounds_check::h6aaee0d15e0261eb>

0000000080000ecc <.Lpcrel_hi23>:
80000ecc: 00016517     	auipc	a0, 0x16
80000ed0: 00c50513     	addi	a0, a0, 0xc
80000ed4: 4589         	li	a1, 0x2
80000ed6: 00002097     	auipc	ra, 0x2
80000eda: 30a080e7     	jalr	0x30a(ra) <core::sync::atomic::AtomicBool::load::h61d87e6f66d1143e>
80000ede: c10d         	beqz	a0, 0x80000f00 <.Lpcrel_hi24+0x1c>
80000ee0: a009         	j	0x80000ee2 <.Lpcrel_hi23+0x16>
80000ee2: a015         	j	0x80000f06 <.Lpcrel_hi24+0x22>

0000000080000ee4 <.Lpcrel_hi24>:
80000ee4: 00016517     	auipc	a0, 0x16
80000ee8: ff450513     	addi	a0, a0, -0xc
80000eec: 4605         	li	a2, 0x1
80000eee: 85b2         	mv	a1, a2
80000ef0: 00002097     	auipc	ra, 0x2
80000ef4: 4ea080e7     	jalr	0x4ea(ra) <core::sync::atomic::AtomicBool::store::h599594f597f0706b>
80000ef8: 00000097     	auipc	ra, 0x0
80000efc: 328080e7     	jalr	0x328(ra) <lab5_kernel_task3::print_summary_and_exit::h99d560399f880518>
80000f00: 0100000f     	fence	w, 0
80000f04: b7e1         	j	0x80000ecc <.Lpcrel_hi23>
80000f06: 0100000f     	fence	w, 0
80000f0a: bff5         	j	0x80000f06 <.Lpcrel_hi24+0x22>

0000000080000f0c <lab5_kernel_task3::allocate_for_job::h79b94899d9fc351d>:
80000f0c: df010113     	addi	sp, sp, -0x210
80000f10: 20113423     	sd	ra, 0x208(sp)
80000f14: e02e         	sd	a1, 0x0(sp)
80000f16: e82a         	sd	a0, 0x10(sp)
80000f18: ec32         	sd	a2, 0x18(sp)
80000f1a: ffae         	sd	a1, 0x1f8(sp)

0000000080000f1c <.Lpcrel_hi25>:
80000f1c: 00016517     	auipc	a0, 0x16
80000f20: fc450513     	addi	a0, a0, -0x3c
80000f24: fffff097     	auipc	ra, 0xfffff
80000f28: 770080e7     	jalr	0x770(ra) <lab5_kernel_task3::spinlock::SpinLock$LT$T$GT$::lock::h5c33a43fd9ae7382>
80000f2c: f8aa         	sd	a0, 0x70(sp)
80000f2e: 00000097     	auipc	ra, 0x0
80000f32: 202080e7     	jalr	0x202(ra) <lab5_kernel_task3::hold_lock_window::ha551cf5c78fa28b1>
80000f36: 1888         	addi	a0, sp, 0x70
80000f38: e42a         	sd	a0, 0x8(sp)
80000f3a: 00000097     	auipc	ra, 0x0
80000f3e: 886080e7     	jalr	-0x77a(ra) <_$LT$lab5_kernel_task3..spinlock..SpinLockGuard$LT$T$GT$$u20$as$u20$core..ops..deref..DerefMut$GT$::deref_mut::h1d6518625cfd55e9>
80000f42: 85aa         	mv	a1, a0
80000f44: 6662         	ld	a2, 0x18(sp)
80000f46: 18a8         	addi	a0, sp, 0x78
80000f48: 04000693     	li	a3, 0x40
80000f4c: 00000097     	auipc	ra, 0x0
80000f50: d5e080e7     	jalr	-0x2a2(ra) <lab5_kernel_task3::BumpAllocator::allocate::h97f3a8e24119e641>
80000f54: 6522         	ld	a0, 0x8(sp)
80000f56: fffff097     	auipc	ra, 0xfffff
80000f5a: 7e0080e7     	jalr	0x7e0(ra) <_$LT$lab5_kernel_task3..spinlock..SpinLockGuard$LT$T$GT$$u20$as$u20$core..ops..deref..Deref$GT$::deref::h3bf6006a36d9dddc>
80000f5e: 85aa         	mv	a1, a0
80000f60: 6522         	ld	a0, 0x8(sp)
80000f62: 658c         	ld	a1, 0x8(a1)
80000f64: 20b13023     	sd	a1, 0x200(sp)
80000f68: 662a         	ld	a2, 0x88(sp)
80000f6a: f0b2         	sd	a2, 0x60(sp)
80000f6c: 660a         	ld	a2, 0x80(sp)
80000f6e: ecb2         	sd	a2, 0x58(sp)
80000f70: 7666         	ld	a2, 0x78(sp)
80000f72: e8b2         	sd	a2, 0x50(sp)
80000f74: f4ae         	sd	a1, 0x68(sp)
80000f76: 00003097     	auipc	ra, 0x3
80000f7a: e56080e7     	jalr	-0x1aa(ra) <core::ptr::drop_in_place$LT$lab5_kernel_task3..spinlock..SpinLockGuard$LT$lab5_kernel_task3..BumpAllocator$GT$$GT$::h8b1040e67a19296d>
80000f7e: 7506         	ld	a0, 0x60(sp)
80000f80: e0aa         	sd	a0, 0x40(sp)
80000f82: 6566         	ld	a0, 0x58(sp)
80000f84: fc2a         	sd	a0, 0x38(sp)
80000f86: 6546         	ld	a0, 0x50(sp)
80000f88: f82a         	sd	a0, 0x30(sp)
80000f8a: 7526         	ld	a0, 0x68(sp)
80000f8c: e4aa         	sd	a0, 0x48(sp)
80000f8e: 7542         	ld	a0, 0x30(sp)
80000f90: 8905         	andi	a0, a0, 0x1
80000f92: c919         	beqz	a0, 0x80000fa8 <.Lpcrel_hi25+0x8c>
80000f94: a009         	j	0x80000f96 <.Lpcrel_hi25+0x7a>
80000f96: 6502         	ld	a0, 0x0(sp)
80000f98: 7662         	ld	a2, 0x38(sp)
80000f9a: 6586         	ld	a1, 0x40(sp)
80000f9c: f032         	sd	a2, 0x20(sp)
80000f9e: f42e         	sd	a1, 0x28(sp)
80000fa0: 45a1         	li	a1, 0x8
80000fa2: 00b56863     	bltu	a0, a1, 0x80000fb2 <.Lpcrel_hi25+0x96>
80000fa6: a0c9         	j	0x80001068 <.Lpcrel_hi27+0x28>
80000fa8: 6502         	ld	a0, 0x0(sp)
80000faa: 45a1         	li	a1, 0x8
80000fac: 0cb56863     	bltu	a0, a1, 0x8000107c <.Lpcrel_hi28+0x12>
80000fb0: a2b5         	j	0x8000111c <.Lpcrel_hi31+0x24>
80000fb2: 6502         	ld	a0, 0x0(sp)
80000fb4: 00351593     	slli	a1, a0, 0x3
80000fb8: 051a         	slli	a0, a0, 0x6
80000fba: 40b505b3     	sub	a1, a0, a1

0000000080000fbe <.Lpcrel_hi26>:
80000fbe: 00005517     	auipc	a0, 0x5
80000fc2: fc250513     	addi	a0, a0, -0x3e
80000fc6: 952e         	add	a0, a0, a1
80000fc8: 0541         	addi	a0, a0, 0x10
80000fca: 080c         	addi	a1, sp, 0x10
80000fcc: e92e         	sd	a1, 0x90(sp)
80000fce: ed2a         	sd	a0, 0x98(sp)
80000fd0: 0828         	addi	a0, sp, 0x18
80000fd2: f12a         	sd	a0, 0xa0(sp)
80000fd4: 1008         	addi	a0, sp, 0x20
80000fd6: f52a         	sd	a0, 0xa8(sp)
80000fd8: 00a8         	addi	a0, sp, 0x48
80000fda: f92a         	sd	a0, 0xb0(sp)
80000fdc: 65ca         	ld	a1, 0x90(sp)
80000fde: 0228         	addi	a0, sp, 0x108
80000fe0: 00002097     	auipc	ra, 0x2
80000fe4: bc8080e7     	jalr	-0x438(ra) <core::fmt::rt::Argument::new_display::h26a32fde33194792>
80000fe8: 65ea         	ld	a1, 0x98(sp)
80000fea: 0a28         	addi	a0, sp, 0x118
80000fec: 00002097     	auipc	ra, 0x2
80000ff0: c22080e7     	jalr	-0x3de(ra) <core::fmt::rt::Argument::new_display::hd6d864d0c34cbb40>
80000ff4: 758a         	ld	a1, 0xa0(sp)
80000ff6: 1228         	addi	a0, sp, 0x128
80000ff8: 00002097     	auipc	ra, 0x2
80000ffc: bb0080e7     	jalr	-0x450(ra) <core::fmt::rt::Argument::new_display::h26a32fde33194792>
80001000: 75aa         	ld	a1, 0xa8(sp)
80001002: 1a28         	addi	a0, sp, 0x138
80001004: 00002097     	auipc	ra, 0x2
80001008: ba4080e7     	jalr	-0x45c(ra) <core::fmt::rt::Argument::new_display::h26a32fde33194792>
8000100c: 75ca         	ld	a1, 0xb0(sp)
8000100e: 02a8         	addi	a0, sp, 0x148
80001010: 00002097     	auipc	ra, 0x2
80001014: b98080e7     	jalr	-0x468(ra) <core::fmt::rt::Argument::new_display::h26a32fde33194792>
80001018: 6552         	ld	a0, 0x110(sp)
8000101a: e1aa         	sd	a0, 0xc0(sp)
8000101c: 6532         	ld	a0, 0x108(sp)
8000101e: fd2a         	sd	a0, 0xb8(sp)
80001020: 7512         	ld	a0, 0x120(sp)
80001022: e9aa         	sd	a0, 0xd0(sp)
80001024: 6572         	ld	a0, 0x118(sp)
80001026: e5aa         	sd	a0, 0xc8(sp)
80001028: 7552         	ld	a0, 0x130(sp)
8000102a: f1aa         	sd	a0, 0xe0(sp)
8000102c: 7532         	ld	a0, 0x128(sp)
8000102e: edaa         	sd	a0, 0xd8(sp)
80001030: 6516         	ld	a0, 0x140(sp)
80001032: f9aa         	sd	a0, 0xf0(sp)
80001034: 7572         	ld	a0, 0x138(sp)
80001036: f5aa         	sd	a0, 0xe8(sp)
80001038: 6556         	ld	a0, 0x150(sp)
8000103a: e22a         	sd	a0, 0x100(sp)
8000103c: 6536         	ld	a0, 0x148(sp)
8000103e: fdaa         	sd	a0, 0xf8(sp)

0000000080001040 <.Lpcrel_hi27>:
80001040: 00004517     	auipc	a0, 0x4
80001044: 1aa50513     	addi	a0, a0, 0x1aa
80001048: 192c         	addi	a1, sp, 0xb8
8000104a: fffff097     	auipc	ra, 0xfffff
8000104e: 224080e7     	jalr	0x224(ra) <core::fmt::Arguments::new::h697bf53e95968956>
80001052: fffff097     	auipc	ra, 0xfffff
80001056: 036080e7     	jalr	0x36(ra) <lab5_kernel_task3::console::print::h4512414521490714>
8000105a: 7502         	ld	a0, 0x20(sp)
8000105c: 75a2         	ld	a1, 0x28(sp)
8000105e: 20813083     	ld	ra, 0x208(sp)
80001062: 21010113     	addi	sp, sp, 0x210
80001066: 8082         	ret
80001068: 6502         	ld	a0, 0x0(sp)

000000008000106a <.Lpcrel_hi28>:
8000106a: 00005597     	auipc	a1, 0x5
8000106e: ba658613     	addi	a2, a1, -0x45a
80001072: 45a1         	li	a1, 0x8
80001074: 00004097     	auipc	ra, 0x4
80001078: cdc080e7     	jalr	-0x324(ra) <core::panicking::panic_bounds_check::h6aaee0d15e0261eb>
8000107c: 6502         	ld	a0, 0x0(sp)
8000107e: 00351593     	slli	a1, a0, 0x3
80001082: 051a         	slli	a0, a0, 0x6
80001084: 40b505b3     	sub	a1, a0, a1

0000000080001088 <.Lpcrel_hi29>:
80001088: 00005517     	auipc	a0, 0x5
8000108c: ef850513     	addi	a0, a0, -0x108
80001090: 952e         	add	a0, a0, a1
80001092: 0541         	addi	a0, a0, 0x10
80001094: 080c         	addi	a1, sp, 0x10
80001096: eeae         	sd	a1, 0x158(sp)
80001098: f2aa         	sd	a0, 0x160(sp)
8000109a: 0828         	addi	a0, sp, 0x18
8000109c: f6aa         	sd	a0, 0x168(sp)

000000008000109e <.Lpcrel_hi30>:
8000109e: 00005517     	auipc	a0, 0x5
800010a2: a6a50513     	addi	a0, a0, -0x596
800010a6: faaa         	sd	a0, 0x170(sp)
800010a8: 65f6         	ld	a1, 0x158(sp)
800010aa: 1b28         	addi	a0, sp, 0x1b8
800010ac: 00002097     	auipc	ra, 0x2
800010b0: afc080e7     	jalr	-0x504(ra) <core::fmt::rt::Argument::new_display::h26a32fde33194792>
800010b4: 7596         	ld	a1, 0x160(sp)
800010b6: 03a8         	addi	a0, sp, 0x1c8
800010b8: 00002097     	auipc	ra, 0x2
800010bc: b56080e7     	jalr	-0x4aa(ra) <core::fmt::rt::Argument::new_display::hd6d864d0c34cbb40>
800010c0: 75b6         	ld	a1, 0x168(sp)
800010c2: 0ba8         	addi	a0, sp, 0x1d8
800010c4: 00002097     	auipc	ra, 0x2
800010c8: ae4080e7     	jalr	-0x51c(ra) <core::fmt::rt::Argument::new_display::h26a32fde33194792>
800010cc: 75d6         	ld	a1, 0x170(sp)
800010ce: 13a8         	addi	a0, sp, 0x1e8
800010d0: 00002097     	auipc	ra, 0x2
800010d4: ad8080e7     	jalr	-0x528(ra) <core::fmt::rt::Argument::new_display::h26a32fde33194792>
800010d8: 651e         	ld	a0, 0x1c0(sp)
800010da: e32a         	sd	a0, 0x180(sp)
800010dc: 757a         	ld	a0, 0x1b8(sp)
800010de: feaa         	sd	a0, 0x178(sp)
800010e0: 655e         	ld	a0, 0x1d0(sp)
800010e2: eb2a         	sd	a0, 0x190(sp)
800010e4: 653e         	ld	a0, 0x1c8(sp)
800010e6: e72a         	sd	a0, 0x188(sp)
800010e8: 751e         	ld	a0, 0x1e0(sp)
800010ea: f32a         	sd	a0, 0x1a0(sp)
800010ec: 657e         	ld	a0, 0x1d8(sp)
800010ee: ef2a         	sd	a0, 0x198(sp)
800010f0: 755e         	ld	a0, 0x1f0(sp)
800010f2: fb2a         	sd	a0, 0x1b0(sp)
800010f4: 753e         	ld	a0, 0x1e8(sp)
800010f6: f72a         	sd	a0, 0x1a8(sp)

00000000800010f8 <.Lpcrel_hi31>:
800010f8: 00004517     	auipc	a0, 0x4
800010fc: f6250513     	addi	a0, a0, -0x9e
80001100: 1aac         	addi	a1, sp, 0x178
80001102: fffff097     	auipc	ra, 0xfffff
80001106: 18a080e7     	jalr	0x18a(ra) <core::fmt::Arguments::new::h8f9b107f17d50367>
8000110a: fffff097     	auipc	ra, 0xfffff
8000110e: f7e080e7     	jalr	-0x82(ra) <lab5_kernel_task3::console::print::h4512414521490714>
80001112: 4505         	li	a0, 0x1
80001114: 00001097     	auipc	ra, 0x1
80001118: 470080e7     	jalr	0x470(ra) <lab5_kernel_task3::qemu_exit::h0f0a3b696d7196c5>
8000111c: 6502         	ld	a0, 0x0(sp)

000000008000111e <.Lpcrel_hi32>:
8000111e: 00005597     	auipc	a1, 0x5
80001122: b0a58613     	addi	a2, a1, -0x4f6
80001126: 45a1         	li	a1, 0x8
80001128: 00004097     	auipc	ra, 0x4
8000112c: c28080e7     	jalr	-0x3d8(ra) <core::panicking::panic_bounds_check::h6aaee0d15e0261eb>

0000000080001130 <lab5_kernel_task3::hold_lock_window::ha551cf5c78fa28b1>:
80001130: 1141         	addi	sp, sp, -0x10
80001132: 08000513     	li	a0, 0x80
80001136: c62a         	sw	a0, 0xc(sp)
80001138: a009         	j	0x8000113a <lab5_kernel_task3::hold_lock_window::ha551cf5c78fa28b1+0xa>
8000113a: 4532         	lw	a0, 0xc(sp)
8000113c: e501         	bnez	a0, 0x80001144 <lab5_kernel_task3::hold_lock_window::ha551cf5c78fa28b1+0x14>
8000113e: a009         	j	0x80001140 <lab5_kernel_task3::hold_lock_window::ha551cf5c78fa28b1+0x10>
80001140: 0141         	addi	sp, sp, 0x10
80001142: 8082         	ret
80001144: 0100000f     	fence	w, 0
80001148: 4532         	lw	a0, 0xc(sp)
8000114a: fff5059b     	addiw	a1, a0, -0x1
8000114e: e02e         	sd	a1, 0x0(sp)
80001150: c509         	beqz	a0, 0x8000115a <.Lpcrel_hi33>
80001152: a009         	j	0x80001154 <lab5_kernel_task3::hold_lock_window::ha551cf5c78fa28b1+0x24>
80001154: 6502         	ld	a0, 0x0(sp)
80001156: c62a         	sw	a0, 0xc(sp)
80001158: b7cd         	j	0x8000113a <lab5_kernel_task3::hold_lock_window::ha551cf5c78fa28b1+0xa>

000000008000115a <.Lpcrel_hi33>:
8000115a: 00005517     	auipc	a0, 0x5
8000115e: ae650513     	addi	a0, a0, -0x51a
80001162: 00004097     	auipc	ra, 0x4
80001166: bd0080e7     	jalr	-0x430(ra) <core::panicking::panic_const::panic_const_sub_overflow::hccc965ba9198de7c>

000000008000116a <lab5_kernel_task3::expected_hart_mask::hc8536d7f314a4f0f>:
8000116a: 453d         	li	a0, 0xf
8000116c: 8082         	ret

000000008000116e <lab5_kernel_task3::mark_hart_initialized::hc55829f8c9918fcf>:
8000116e: 7179         	addi	sp, sp, -0x30
80001170: f406         	sd	ra, 0x28(sp)
80001172: 85aa         	mv	a1, a0
80001174: ec2e         	sd	a1, 0x18(sp)
80001176: f02e         	sd	a1, 0x20(sp)
80001178: 450d         	li	a0, 0x3
8000117a: 02b56563     	bltu	a0, a1, 0x800011a4 <.Lpcrel_hi34+0x22>
8000117e: a009         	j	0x80001180 <lab5_kernel_task3::mark_hart_initialized::hc55829f8c9918fcf+0x12>
80001180: 65e2         	ld	a1, 0x18(sp)

0000000080001182 <.Lpcrel_hi34>:
80001182: 00016517     	auipc	a0, 0x16
80001186: cfe50513     	addi	a0, a0, -0x302
8000118a: 952e         	add	a0, a0, a1
8000118c: 4605         	li	a2, 0x1
8000118e: 85b2         	mv	a1, a2
80001190: 00002097     	auipc	ra, 0x2
80001194: 24a080e7     	jalr	0x24a(ra) <core::sync::atomic::AtomicBool::store::h599594f597f0706b>
80001198: 6562         	ld	a0, 0x18(sp)
8000119a: 04000593     	li	a1, 0x40
8000119e: 00b56d63     	bltu	a0, a1, 0x800011b8 <.Lpcrel_hi35+0x12>
800011a2: a899         	j	0x800011f8 <.Lpcrel_hi38>
800011a4: 6562         	ld	a0, 0x18(sp)

00000000800011a6 <.Lpcrel_hi35>:
800011a6: 00005597     	auipc	a1, 0x5
800011aa: ab258613     	addi	a2, a1, -0x54e
800011ae: 4591         	li	a1, 0x4
800011b0: 00004097     	auipc	ra, 0x4
800011b4: ba0080e7     	jalr	-0x460(ra) <core::panicking::panic_bounds_check::h6aaee0d15e0261eb>
800011b8: 65e2         	ld	a1, 0x18(sp)
800011ba: 4505         	li	a0, 0x1
800011bc: e02a         	sd	a0, 0x0(sp)
800011be: 00b515b3     	sll	a1, a0, a1

00000000800011c2 <.Lpcrel_hi36>:
800011c2: 00016517     	auipc	a0, 0x16
800011c6: c5650513     	addi	a0, a0, -0x3aa
800011ca: 460d         	li	a2, 0x3
800011cc: e432         	sd	a2, 0x8(sp)
800011ce: 00002097     	auipc	ra, 0x2
800011d2: 25a080e7     	jalr	0x25a(ra) <core::sync::atomic::AtomicUsize::fetch_or::he2428ef25d47e925>
800011d6: 6582         	ld	a1, 0x0(sp)
800011d8: 6622         	ld	a2, 0x8(sp)

00000000800011da <.Lpcrel_hi37>:
800011da: 00016517     	auipc	a0, 0x16
800011de: c4650513     	addi	a0, a0, -0x3ba
800011e2: 00002097     	auipc	ra, 0x2
800011e6: 2b0080e7     	jalr	0x2b0(ra) <core::sync::atomic::AtomicUsize::fetch_add::hae86e4587c5e2d8e>
800011ea: 85aa         	mv	a1, a0
800011ec: 00158513     	addi	a0, a1, 0x1
800011f0: e82a         	sd	a0, 0x10(sp)
800011f2: 00b56f63     	bltu	a0, a1, 0x80001210 <.Lpcrel_hi39>
800011f6: a809         	j	0x80001208 <.Lpcrel_hi38+0x10>

00000000800011f8 <.Lpcrel_hi38>:
800011f8: 00005517     	auipc	a0, 0x5
800011fc: a7850513     	addi	a0, a0, -0x588
80001200: 00004097     	auipc	ra, 0x4
80001204: b14080e7     	jalr	-0x4ec(ra) <core::panicking::panic_const::panic_const_shl_overflow::h801c58e583f44244>
80001208: 6542         	ld	a0, 0x10(sp)
8000120a: 70a2         	ld	ra, 0x28(sp)
8000120c: 6145         	addi	sp, sp, 0x30
8000120e: 8082         	ret

0000000080001210 <.Lpcrel_hi39>:
80001210: 00005517     	auipc	a0, 0x5
80001214: a7850513     	addi	a0, a0, -0x588
80001218: 00004097     	auipc	ra, 0x4
8000121c: ade080e7     	jalr	-0x522(ra) <core::panicking::panic_const::panic_const_add_overflow::h67cba067093910f8>

0000000080001220 <lab5_kernel_task3::print_summary_and_exit::h99d560399f880518>:
80001220: a2010113     	addi	sp, sp, -0x5e0
80001224: 5c113c23     	sd	ra, 0x5d8(sp)

0000000080001228 <.Lpcrel_hi40>:
80001228: 00016517     	auipc	a0, 0x16
8000122c: bf050513     	addi	a0, a0, -0x410
80001230: 4589         	li	a1, 0x2
80001232: ec2e         	sd	a1, 0x18(sp)
80001234: 00002097     	auipc	ra, 0x2
80001238: 1c2080e7     	jalr	0x1c2(ra) <core::sync::atomic::AtomicUsize::load::h01085caffe0799e0>
8000123c: 65e2         	ld	a1, 0x18(sp)
8000123e: f0aa         	sd	a0, 0x60(sp)

0000000080001240 <.Lpcrel_hi41>:
80001240: 00016517     	auipc	a0, 0x16
80001244: be050513     	addi	a0, a0, -0x420
80001248: 00002097     	auipc	ra, 0x2
8000124c: 1ae080e7     	jalr	0x1ae(ra) <core::sync::atomic::AtomicUsize::load::h01085caffe0799e0>
80001250: 65e2         	ld	a1, 0x18(sp)
80001252: f4aa         	sd	a0, 0x68(sp)

0000000080001254 <.Lpcrel_hi42>:
80001254: 00016517     	auipc	a0, 0x16
80001258: c1c50513     	addi	a0, a0, -0x3e4
8000125c: 00002097     	auipc	ra, 0x2
80001260: 19a080e7     	jalr	0x19a(ra) <core::sync::atomic::AtomicUsize::load::h01085caffe0799e0>
80001264: 65e2         	ld	a1, 0x18(sp)
80001266: f8aa         	sd	a0, 0x70(sp)

0000000080001268 <.Lpcrel_hi43>:
80001268: 00016517     	auipc	a0, 0x16
8000126c: c1050513     	addi	a0, a0, -0x3f0
80001270: 00002097     	auipc	ra, 0x2
80001274: 186080e7     	jalr	0x186(ra) <core::sync::atomic::AtomicUsize::load::h01085caffe0799e0>
80001278: 65e2         	ld	a1, 0x18(sp)
8000127a: fcaa         	sd	a0, 0x78(sp)

000000008000127c <.Lpcrel_hi44>:
8000127c: 00016517     	auipc	a0, 0x16
80001280: c5450513     	addi	a0, a0, -0x3ac
80001284: 00002097     	auipc	ra, 0x2
80001288: 2f6080e7     	jalr	0x2f6(ra) <core::sync::atomic::AtomicU64::load::h21c7385feb3db3ed>
8000128c: e12a         	sd	a0, 0x80(sp)

000000008000128e <.Lpcrel_hi45>:
8000128e: 00016517     	auipc	a0, 0x16
80001292: c8250513     	addi	a0, a0, -0x37e
80001296: e8aa         	sd	a0, 0x50(sp)
80001298: fffff097     	auipc	ra, 0xfffff
8000129c: 2b6080e7     	jalr	0x2b6(ra) <lab5_kernel_task3::spinlock::SpinLock$LT$T$GT$::lock::h0f608dc81da44a39>
800012a0: ed2a         	sd	a0, 0x98(sp)
800012a2: 0928         	addi	a0, sp, 0x98
800012a4: f02a         	sd	a0, 0x20(sp)
800012a6: fffff097     	auipc	ra, 0xfffff
800012aa: 4d6080e7     	jalr	0x4d6(ra) <_$LT$lab5_kernel_task3..spinlock..SpinLockGuard$LT$T$GT$$u20$as$u20$core..ops..deref..Deref$GT$::deref::h75e5ba78bc81e491>
800012ae: 85aa         	mv	a1, a0
800012b0: 7502         	ld	a0, 0x20(sp)
800012b2: 65ac         	ld	a1, 0x48(a1)
800012b4: f42e         	sd	a1, 0x28(sp)
800012b6: fffff097     	auipc	ra, 0xfffff
800012ba: 4c6080e7     	jalr	0x4c6(ra) <_$LT$lab5_kernel_task3..spinlock..SpinLockGuard$LT$T$GT$$u20$as$u20$core..ops..deref..Deref$GT$::deref::h75e5ba78bc81e491>
800012be: 00001097     	auipc	ra, 0x1
800012c2: f60080e7     	jalr	-0xa0(ra) <lab5_kernel_task3::RunQueue::remaining::h62cf4fea635b682b>
800012c6: 85aa         	mv	a1, a0
800012c8: 7502         	ld	a0, 0x20(sp)
800012ca: f82e         	sd	a1, 0x30(sp)
800012cc: 00003097     	auipc	ra, 0x3
800012d0: b28080e7     	jalr	-0x4d8(ra) <core::ptr::drop_in_place$LT$lab5_kernel_task3..spinlock..SpinLockGuard$LT$lab5_kernel_task3..RunQueue$GT$$GT$::had1488e64e48b413>
800012d4: 75a2         	ld	a1, 0x28(sp)
800012d6: 7542         	ld	a0, 0x30(sp)
800012d8: e52e         	sd	a1, 0x88(sp)
800012da: e92a         	sd	a0, 0x90(sp)

00000000800012dc <.Lpcrel_hi46>:
800012dc: 00016517     	auipc	a0, 0x16
800012e0: c0450513     	addi	a0, a0, -0x3fc
800012e4: ecaa         	sd	a0, 0x58(sp)
800012e6: fffff097     	auipc	ra, 0xfffff
800012ea: 3ae080e7     	jalr	0x3ae(ra) <lab5_kernel_task3::spinlock::SpinLock$LT$T$GT$::lock::h5c33a43fd9ae7382>
800012ee: f92a         	sd	a0, 0xb0(sp)
800012f0: 1908         	addi	a0, sp, 0xb0
800012f2: fc2a         	sd	a0, 0x38(sp)
800012f4: fffff097     	auipc	ra, 0xfffff
800012f8: 442080e7     	jalr	0x442(ra) <_$LT$lab5_kernel_task3..spinlock..SpinLockGuard$LT$T$GT$$u20$as$u20$core..ops..deref..Deref$GT$::deref::h3bf6006a36d9dddc>
800012fc: 85aa         	mv	a1, a0
800012fe: 7562         	ld	a0, 0x38(sp)
80001300: 698c         	ld	a1, 0x10(a1)
80001302: e0ae         	sd	a1, 0x40(sp)
80001304: fffff097     	auipc	ra, 0xfffff
80001308: 432080e7     	jalr	0x432(ra) <_$LT$lab5_kernel_task3..spinlock..SpinLockGuard$LT$T$GT$$u20$as$u20$core..ops..deref..Deref$GT$::deref::h3bf6006a36d9dddc>
8000130c: 85aa         	mv	a1, a0
8000130e: 7562         	ld	a0, 0x38(sp)
80001310: 658c         	ld	a1, 0x8(a1)
80001312: e4ae         	sd	a1, 0x48(sp)
80001314: 00003097     	auipc	ra, 0x3
80001318: ab8080e7     	jalr	-0x548(ra) <core::ptr::drop_in_place$LT$lab5_kernel_task3..spinlock..SpinLockGuard$LT$lab5_kernel_task3..BumpAllocator$GT$$GT$::h8b1040e67a19296d>
8000131c: 6586         	ld	a1, 0x40(sp)
8000131e: 6526         	ld	a0, 0x48(sp)
80001320: f12e         	sd	a1, 0xa0(sp)
80001322: f52a         	sd	a0, 0xa8(sp)
80001324: 10a8         	addi	a0, sp, 0x68
80001326: fd2a         	sd	a0, 0xb8(sp)
80001328: 1088         	addi	a0, sp, 0x60
8000132a: e1aa         	sd	a0, 0xc0(sp)
8000132c: 18a8         	addi	a0, sp, 0x78
8000132e: e5aa         	sd	a0, 0xc8(sp)
80001330: 1888         	addi	a0, sp, 0x70
80001332: e9aa         	sd	a0, 0xd0(sp)

0000000080001334 <.Lpcrel_hi47>:
80001334: 00004517     	auipc	a0, 0x4
80001338: 7a450513     	addi	a0, a0, 0x7a4
8000133c: edaa         	sd	a0, 0xd8(sp)
8000133e: 0108         	addi	a0, sp, 0x80
80001340: f1aa         	sd	a0, 0xe0(sp)
80001342: 75ea         	ld	a1, 0xb8(sp)
80001344: 02a8         	addi	a0, sp, 0x148
80001346: 00002097     	auipc	ra, 0x2
8000134a: 862080e7     	jalr	-0x79e(ra) <core::fmt::rt::Argument::new_display::h26a32fde33194792>
8000134e: 658e         	ld	a1, 0xc0(sp)
80001350: 0aa8         	addi	a0, sp, 0x158
80001352: 00002097     	auipc	ra, 0x2
80001356: 900080e7     	jalr	-0x700(ra) <core::fmt::rt::Argument::new_lower_hex::hc6569d0de85acebc>
8000135a: 65ae         	ld	a1, 0xc8(sp)
8000135c: 12a8         	addi	a0, sp, 0x168
8000135e: 00002097     	auipc	ra, 0x2
80001362: 84a080e7     	jalr	-0x7b6(ra) <core::fmt::rt::Argument::new_display::h26a32fde33194792>
80001366: 65ce         	ld	a1, 0xd0(sp)
80001368: 1aa8         	addi	a0, sp, 0x178
8000136a: 00002097     	auipc	ra, 0x2
8000136e: 83e080e7     	jalr	-0x7c2(ra) <core::fmt::rt::Argument::new_display::h26a32fde33194792>
80001372: 65ee         	ld	a1, 0xd8(sp)
80001374: 0328         	addi	a0, sp, 0x188
80001376: 00002097     	auipc	ra, 0x2
8000137a: 832080e7     	jalr	-0x7ce(ra) <core::fmt::rt::Argument::new_display::h26a32fde33194792>
8000137e: 758e         	ld	a1, 0xe0(sp)
80001380: 0b28         	addi	a0, sp, 0x198
80001382: 00002097     	auipc	ra, 0x2
80001386: 88c080e7     	jalr	-0x774(ra) <core::fmt::rt::Argument::new_display::hd6d864d0c34cbb40>
8000138a: 6556         	ld	a0, 0x150(sp)
8000138c: f9aa         	sd	a0, 0xf0(sp)
8000138e: 6536         	ld	a0, 0x148(sp)
80001390: f5aa         	sd	a0, 0xe8(sp)
80001392: 7516         	ld	a0, 0x160(sp)
80001394: e22a         	sd	a0, 0x100(sp)
80001396: 6576         	ld	a0, 0x158(sp)
80001398: fdaa         	sd	a0, 0xf8(sp)
8000139a: 7556         	ld	a0, 0x170(sp)
8000139c: ea2a         	sd	a0, 0x110(sp)
8000139e: 7536         	ld	a0, 0x168(sp)
800013a0: e62a         	sd	a0, 0x108(sp)
800013a2: 651a         	ld	a0, 0x180(sp)
800013a4: f22a         	sd	a0, 0x120(sp)
800013a6: 7576         	ld	a0, 0x178(sp)
800013a8: ee2a         	sd	a0, 0x118(sp)
800013aa: 655a         	ld	a0, 0x190(sp)
800013ac: fa2a         	sd	a0, 0x130(sp)
800013ae: 653a         	ld	a0, 0x188(sp)
800013b0: f62a         	sd	a0, 0x128(sp)
800013b2: 751a         	ld	a0, 0x1a0(sp)
800013b4: e2aa         	sd	a0, 0x140(sp)
800013b6: 657a         	ld	a0, 0x198(sp)
800013b8: fe2a         	sd	a0, 0x138(sp)

00000000800013ba <.Lpcrel_hi48>:
800013ba: 00005517     	auipc	a0, 0x5
800013be: 8e650513     	addi	a0, a0, -0x71a
800013c2: 11ac         	addi	a1, sp, 0xe8
800013c4: fffff097     	auipc	ra, 0xfffff
800013c8: e46080e7     	jalr	-0x1ba(ra) <core::fmt::Arguments::new::h05066f4af3216030>
800013cc: fffff097     	auipc	ra, 0xfffff
800013d0: cbc080e7     	jalr	-0x344(ra) <lab5_kernel_task3::console::print::h4512414521490714>
800013d4: 6546         	ld	a0, 0x50(sp)
800013d6: fffff097     	auipc	ra, 0xfffff
800013da: 116080e7     	jalr	0x116(ra) <lab5_kernel_task3::spinlock::SpinLock$LT$T$GT$::acquisitions::h6d92d75681962d8b>
800013de: 85aa         	mv	a1, a0
800013e0: 6546         	ld	a0, 0x50(sp)
800013e2: e7ae         	sd	a1, 0x1c8(sp)
800013e4: fffff097     	auipc	ra, 0xfffff
800013e8: 138080e7     	jalr	0x138(ra) <lab5_kernel_task3::spinlock::SpinLock$LT$T$GT$::contention_spins::h8042e51ed4de838a>
800013ec: ebaa         	sd	a0, 0x1d0(sp)
800013ee: 03a8         	addi	a0, sp, 0x1c8
800013f0: f72a         	sd	a0, 0x1a8(sp)
800013f2: 0b88         	addi	a0, sp, 0x1d0
800013f4: fb2a         	sd	a0, 0x1b0(sp)
800013f6: 0128         	addi	a0, sp, 0x88
800013f8: ff2a         	sd	a0, 0x1b8(sp)
800013fa: 0908         	addi	a0, sp, 0x90
800013fc: e3aa         	sd	a0, 0x1c0(sp)
800013fe: 75ba         	ld	a1, 0x1a8(sp)
80001400: 0c28         	addi	a0, sp, 0x218
80001402: 00002097     	auipc	ra, 0x2
80001406: 80c080e7     	jalr	-0x7f4(ra) <core::fmt::rt::Argument::new_display::hd6d864d0c34cbb40>
8000140a: 75da         	ld	a1, 0x1b0(sp)
8000140c: 1428         	addi	a0, sp, 0x228
8000140e: 00002097     	auipc	ra, 0x2
80001412: 800080e7     	jalr	-0x800(ra) <core::fmt::rt::Argument::new_display::hd6d864d0c34cbb40>
80001416: 75fa         	ld	a1, 0x1b8(sp)
80001418: 1c28         	addi	a0, sp, 0x238
8000141a: 00001097     	auipc	ra, 0x1
8000141e: 7f4080e7     	jalr	0x7f4(ra) <core::fmt::rt::Argument::new_display::hd6d864d0c34cbb40>
80001422: 659e         	ld	a1, 0x1c0(sp)
80001424: 04a8         	addi	a0, sp, 0x248
80001426: 00001097     	auipc	ra, 0x1
8000142a: 782080e7     	jalr	0x782(ra) <core::fmt::rt::Argument::new_display::h26a32fde33194792>
8000142e: 22013503     	ld	a0, 0x220(sp)
80001432: f3aa         	sd	a0, 0x1e0(sp)
80001434: 21813503     	ld	a0, 0x218(sp)
80001438: efaa         	sd	a0, 0x1d8(sp)
8000143a: 23013503     	ld	a0, 0x230(sp)
8000143e: fbaa         	sd	a0, 0x1f0(sp)
80001440: 22813503     	ld	a0, 0x228(sp)
80001444: f7aa         	sd	a0, 0x1e8(sp)
80001446: 24013503     	ld	a0, 0x240(sp)
8000144a: 20a13023     	sd	a0, 0x200(sp)
8000144e: 23813503     	ld	a0, 0x238(sp)
80001452: ffaa         	sd	a0, 0x1f8(sp)
80001454: 25013503     	ld	a0, 0x250(sp)
80001458: 20a13823     	sd	a0, 0x210(sp)
8000145c: 24813503     	ld	a0, 0x248(sp)
80001460: 20a13423     	sd	a0, 0x208(sp)

0000000080001464 <.Lpcrel_hi49>:
80001464: 00004517     	auipc	a0, 0x4
80001468: 21d50513     	addi	a0, a0, 0x21d
8000146c: 0bac         	addi	a1, sp, 0x1d8
8000146e: fffff097     	auipc	ra, 0xfffff
80001472: e64080e7     	jalr	-0x19c(ra) <core::fmt::Arguments::new::hf3355129d630920c>
80001476: fffff097     	auipc	ra, 0xfffff
8000147a: c12080e7     	jalr	-0x3ee(ra) <lab5_kernel_task3::console::print::h4512414521490714>
8000147e: 6566         	ld	a0, 0x58(sp)
80001480: fffff097     	auipc	ra, 0xfffff
80001484: 086080e7     	jalr	0x86(ra) <lab5_kernel_task3::spinlock::SpinLock$LT$T$GT$::acquisitions::hd09535554499311e>
80001488: 85aa         	mv	a1, a0
8000148a: 6566         	ld	a0, 0x58(sp)
8000148c: 26b13c23     	sd	a1, 0x278(sp)
80001490: fffff097     	auipc	ra, 0xfffff
80001494: 0a6080e7     	jalr	0xa6(ra) <lab5_kernel_task3::spinlock::SpinLock$LT$T$GT$::contention_spins::h8de9882996c0ddb5>
80001498: 28a13023     	sd	a0, 0x280(sp)
8000149c: 1ca8         	addi	a0, sp, 0x278
8000149e: 24a13c23     	sd	a0, 0x258(sp)
800014a2: 0508         	addi	a0, sp, 0x280
800014a4: 26a13023     	sd	a0, 0x260(sp)
800014a8: 1108         	addi	a0, sp, 0xa0
800014aa: 26a13423     	sd	a0, 0x268(sp)
800014ae: 1128         	addi	a0, sp, 0xa8
800014b0: 26a13823     	sd	a0, 0x270(sp)
800014b4: 25813583     	ld	a1, 0x258(sp)
800014b8: 05a8         	addi	a0, sp, 0x2c8
800014ba: 00001097     	auipc	ra, 0x1
800014be: 754080e7     	jalr	0x754(ra) <core::fmt::rt::Argument::new_display::hd6d864d0c34cbb40>
800014c2: 26013583     	ld	a1, 0x260(sp)
800014c6: 0da8         	addi	a0, sp, 0x2d8
800014c8: 00001097     	auipc	ra, 0x1
800014cc: 746080e7     	jalr	0x746(ra) <core::fmt::rt::Argument::new_display::hd6d864d0c34cbb40>
800014d0: 26813583     	ld	a1, 0x268(sp)
800014d4: 15a8         	addi	a0, sp, 0x2e8
800014d6: 00001097     	auipc	ra, 0x1
800014da: 738080e7     	jalr	0x738(ra) <core::fmt::rt::Argument::new_display::hd6d864d0c34cbb40>
800014de: 27013583     	ld	a1, 0x270(sp)
800014e2: 1da8         	addi	a0, sp, 0x2f8
800014e4: 00001097     	auipc	ra, 0x1
800014e8: 6c4080e7     	jalr	0x6c4(ra) <core::fmt::rt::Argument::new_display::h26a32fde33194792>
800014ec: 2d013503     	ld	a0, 0x2d0(sp)
800014f0: 28a13823     	sd	a0, 0x290(sp)
800014f4: 2c813503     	ld	a0, 0x2c8(sp)
800014f8: 28a13423     	sd	a0, 0x288(sp)
800014fc: 2e013503     	ld	a0, 0x2e0(sp)
80001500: 2aa13023     	sd	a0, 0x2a0(sp)
80001504: 2d813503     	ld	a0, 0x2d8(sp)
80001508: 28a13c23     	sd	a0, 0x298(sp)
8000150c: 2f013503     	ld	a0, 0x2f0(sp)
80001510: 2aa13823     	sd	a0, 0x2b0(sp)
80001514: 2e813503     	ld	a0, 0x2e8(sp)
80001518: 2aa13423     	sd	a0, 0x2a8(sp)
8000151c: 30013503     	ld	a0, 0x300(sp)
80001520: 2ca13023     	sd	a0, 0x2c0(sp)
80001524: 2f813503     	ld	a0, 0x2f8(sp)
80001528: 2aa13c23     	sd	a0, 0x2b8(sp)

000000008000152c <.Lpcrel_hi50>:
8000152c: 00004517     	auipc	a0, 0x4
80001530: e4050513     	addi	a0, a0, -0x1c0
80001534: 052c         	addi	a1, sp, 0x288
80001536: fffff097     	auipc	ra, 0xfffff
8000153a: d7e080e7     	jalr	-0x282(ra) <core::fmt::Arguments::new::hd0bed6df61687249>
8000153e: fffff097     	auipc	ra, 0xfffff
80001542: b4a080e7     	jalr	-0x4b6(ra) <lab5_kernel_task3::console::print::h4512414521490714>
80001546: 4501         	li	a0, 0x0
80001548: 4591         	li	a1, 0x4
8000154a: 00002097     	auipc	ra, 0x2
8000154e: 960080e7     	jalr	-0x6a0(ra) <_$LT$I$u20$as$u20$core..iter..traits..collect..IntoIterator$GT$::into_iter::h9f015da8b0ccb3ff>
80001552: 30a13423     	sd	a0, 0x308(sp)
80001556: 30b13823     	sd	a1, 0x310(sp)
8000155a: a009         	j	0x8000155c <.Lpcrel_hi50+0x30>
8000155c: 0628         	addi	a0, sp, 0x308
8000155e: 00002097     	auipc	ra, 0x2
80001562: 938080e7     	jalr	-0x6c8(ra) <core::iter::range::_$LT$impl$u20$core..iter..traits..iterator..Iterator$u20$for$u20$core..ops..range..Range$LT$A$GT$$GT$::next::hdcf0cc9aae1cf88d>
80001566: 30a13c23     	sd	a0, 0x318(sp)
8000156a: 32b13023     	sd	a1, 0x320(sp)
8000156e: 31813503     	ld	a0, 0x318(sp)
80001572: 8905         	andi	a0, a0, 0x1
80001574: cd01         	beqz	a0, 0x8000158c <.Lpcrel_hi50+0x60>
80001576: a009         	j	0x80001578 <.Lpcrel_hi50+0x4c>
80001578: 32013503     	ld	a0, 0x320(sp)
8000157c: 32a13423     	sd	a0, 0x328(sp)
80001580: 32813503     	ld	a0, 0x328(sp)
80001584: 4591         	li	a1, 0x4
80001586: 42b56f63     	bltu	a0, a1, 0x800019c4 <.Lpcrel_hi65+0x12>
8000158a: a1ad         	j	0x800019f4 <.Lpcrel_hi66+0x2c>
8000158c: 4501         	li	a0, 0x0
8000158e: 45a1         	li	a1, 0x8
80001590: 00002097     	auipc	ra, 0x2
80001594: 91a080e7     	jalr	-0x6e6(ra) <_$LT$I$u20$as$u20$core..iter..traits..collect..IntoIterator$GT$::into_iter::h9f015da8b0ccb3ff>
80001598: 3ea13423     	sd	a0, 0x3e8(sp)
8000159c: 3eb13823     	sd	a1, 0x3f0(sp)
800015a0: a009         	j	0x800015a2 <.Lpcrel_hi50+0x76>
800015a2: 17a8         	addi	a0, sp, 0x3e8
800015a4: 00002097     	auipc	ra, 0x2
800015a8: 8f2080e7     	jalr	-0x70e(ra) <core::iter::range::_$LT$impl$u20$core..iter..traits..iterator..Iterator$u20$for$u20$core..ops..range..Range$LT$A$GT$$GT$::next::hdcf0cc9aae1cf88d>
800015ac: 3ea13c23     	sd	a0, 0x3f8(sp)
800015b0: 40b13023     	sd	a1, 0x400(sp)
800015b4: 3f813503     	ld	a0, 0x3f8(sp)
800015b8: 8905         	andi	a0, a0, 0x1
800015ba: cd01         	beqz	a0, 0x800015d2 <.Lpcrel_hi50+0xa6>
800015bc: a009         	j	0x800015be <.Lpcrel_hi50+0x92>
800015be: 40013503     	ld	a0, 0x400(sp)
800015c2: 40a13423     	sd	a0, 0x408(sp)
800015c6: 40813503     	ld	a0, 0x408(sp)
800015ca: 45a1         	li	a1, 0x8
800015cc: 20b56863     	bltu	a0, a1, 0x800017dc <.Lpcrel_hi56+0x56>
800015d0: ac25         	j	0x80001808 <.Lpcrel_hi57+0x24>
800015d2: 7526         	ld	a0, 0x68(sp)
800015d4: 4591         	li	a1, 0x4
800015d6: 00b50763     	beq	a0, a1, 0x800015e4 <.Lpcrel_hi50+0xb8>
800015da: a009         	j	0x800015dc <.Lpcrel_hi50+0xb0>
800015dc: 4501         	li	a0, 0x0
800015de: 4ea10ea3     	sb	a0, 0x4fd(sp)
800015e2: a829         	j	0x800015fc <.Lpcrel_hi50+0xd0>
800015e4: 00000097     	auipc	ra, 0x0
800015e8: b86080e7     	jalr	-0x47a(ra) <lab5_kernel_task3::expected_hart_mask::hc8536d7f314a4f0f>
800015ec: 85aa         	mv	a1, a0
800015ee: 7506         	ld	a0, 0x60(sp)
800015f0: 8d2d         	xor	a0, a0, a1
800015f2: 00153513     	seqz	a0, a0
800015f6: 4ea10ea3     	sb	a0, 0x4fd(sp)
800015fa: a009         	j	0x800015fc <.Lpcrel_hi50+0xd0>
800015fc: 652a         	ld	a0, 0x88(sp)
800015fe: 45a1         	li	a1, 0x8
80001600: 00b50763     	beq	a0, a1, 0x8000160e <.Lpcrel_hi50+0xe2>
80001604: a009         	j	0x80001606 <.Lpcrel_hi50+0xda>
80001606: 4501         	li	a0, 0x0
80001608: 4ea10f23     	sb	a0, 0x4fe(sp)
8000160c: a089         	j	0x8000164e <.Lpcrel_hi52+0x1e>
8000160e: 750a         	ld	a0, 0xa0(sp)
80001610: 45a1         	li	a1, 0x8
80001612: feb51ae3     	bne	a0, a1, 0x80001606 <.Lpcrel_hi50+0xda>
80001616: a009         	j	0x80001618 <.Lpcrel_hi51>

0000000080001618 <.Lpcrel_hi51>:
80001618: 00016517     	auipc	a0, 0x16
8000161c: 8f850513     	addi	a0, a0, -0x708
80001620: fffff097     	auipc	ra, 0xfffff
80001624: ecc080e7     	jalr	-0x134(ra) <lab5_kernel_task3::spinlock::SpinLock$LT$T$GT$::acquisitions::h6d92d75681962d8b>
80001628: 45a1         	li	a1, 0x8
8000162a: fcb56ee3     	bltu	a0, a1, 0x80001606 <.Lpcrel_hi50+0xda>
8000162e: a009         	j	0x80001630 <.Lpcrel_hi52>

0000000080001630 <.Lpcrel_hi52>:
80001630: 00016517     	auipc	a0, 0x16
80001634: 8b050513     	addi	a0, a0, -0x750
80001638: fffff097     	auipc	ra, 0xfffff
8000163c: ece080e7     	jalr	-0x132(ra) <lab5_kernel_task3::spinlock::SpinLock$LT$T$GT$::acquisitions::hd09535554499311e>
80001640: 00853513     	sltiu	a0, a0, 0x8
80001644: 00154513     	xori	a0, a0, 0x1
80001648: 4ea10f23     	sb	a0, 0x4fe(sp)
8000164c: a009         	j	0x8000164e <.Lpcrel_hi52+0x1e>
8000164e: 7546         	ld	a0, 0x70(sp)
80001650: 45a1         	li	a1, 0x8
80001652: 00b50763     	beq	a0, a1, 0x80001660 <.Lpcrel_hi52+0x30>
80001656: a009         	j	0x80001658 <.Lpcrel_hi52+0x28>
80001658: 4501         	li	a0, 0x0
8000165a: 4ea10fa3     	sb	a0, 0x4ff(sp)
8000165e: a831         	j	0x8000167a <.Lpcrel_hi52+0x4a>
80001660: 7566         	ld	a0, 0x78(sp)
80001662: 4591         	li	a1, 0x4
80001664: feb51ae3     	bne	a0, a1, 0x80001658 <.Lpcrel_hi52+0x28>
80001668: a009         	j	0x8000166a <.Lpcrel_hi52+0x3a>
8000166a: 650a         	ld	a0, 0x80(sp)
8000166c: 00253513     	sltiu	a0, a0, 0x2
80001670: 00154513     	xori	a0, a0, 0x1
80001674: 4ea10fa3     	sb	a0, 0x4ff(sp)
80001678: a009         	j	0x8000167a <.Lpcrel_hi52+0x4a>
8000167a: 4fd14503     	lbu	a0, 0x4fd(sp)
8000167e: 00001097     	auipc	ra, 0x1
80001682: ed4080e7     	jalr	-0x12c(ra) <lab5_kernel_task3::pass_fail::h08854fc3445c59b2>
80001686: 50a13023     	sd	a0, 0x500(sp)
8000168a: 50b13423     	sd	a1, 0x508(sp)
8000168e: 50010593     	addi	a1, sp, 0x500
80001692: 5ab13c23     	sd	a1, 0x5b8(sp)
80001696: 52010513     	addi	a0, sp, 0x520
8000169a: 00001097     	auipc	ra, 0x1
8000169e: 530080e7     	jalr	0x530(ra) <core::fmt::rt::Argument::new_display::h343420e83d4da8a8>
800016a2: 52813503     	ld	a0, 0x528(sp)
800016a6: 50a13c23     	sd	a0, 0x518(sp)
800016aa: 52013503     	ld	a0, 0x520(sp)
800016ae: 50a13823     	sd	a0, 0x510(sp)

00000000800016b2 <.Lpcrel_hi53>:
800016b2: 00004517     	auipc	a0, 0x4
800016b6: 91450513     	addi	a0, a0, -0x6ec
800016ba: 51010593     	addi	a1, sp, 0x510
800016be: fffff097     	auipc	ra, 0xfffff
800016c2: be2080e7     	jalr	-0x41e(ra) <core::fmt::Arguments::new::ha8f58eb7a68e6310>
800016c6: fffff097     	auipc	ra, 0xfffff
800016ca: 9c2080e7     	jalr	-0x63e(ra) <lab5_kernel_task3::console::print::h4512414521490714>
800016ce: 4fe14503     	lbu	a0, 0x4fe(sp)
800016d2: 00001097     	auipc	ra, 0x1
800016d6: e80080e7     	jalr	-0x180(ra) <lab5_kernel_task3::pass_fail::h08854fc3445c59b2>
800016da: 52a13823     	sd	a0, 0x530(sp)
800016de: 52b13c23     	sd	a1, 0x538(sp)
800016e2: 53010593     	addi	a1, sp, 0x530
800016e6: 5cb13023     	sd	a1, 0x5c0(sp)
800016ea: 55010513     	addi	a0, sp, 0x550
800016ee: 00001097     	auipc	ra, 0x1
800016f2: 4dc080e7     	jalr	0x4dc(ra) <core::fmt::rt::Argument::new_display::h343420e83d4da8a8>
800016f6: 55813503     	ld	a0, 0x558(sp)
800016fa: 54a13423     	sd	a0, 0x548(sp)
800016fe: 55013503     	ld	a0, 0x550(sp)
80001702: 54a13023     	sd	a0, 0x540(sp)

0000000080001706 <.Lpcrel_hi54>:
80001706: 00004517     	auipc	a0, 0x4
8000170a: b7f50513     	addi	a0, a0, -0x481
8000170e: 54010593     	addi	a1, sp, 0x540
80001712: fffff097     	auipc	ra, 0xfffff
80001716: bb6080e7     	jalr	-0x44a(ra) <core::fmt::Arguments::new::he782f70bfba041f5>
8000171a: fffff097     	auipc	ra, 0xfffff
8000171e: 96e080e7     	jalr	-0x692(ra) <lab5_kernel_task3::console::print::h4512414521490714>
80001722: 4ff14503     	lbu	a0, 0x4ff(sp)
80001726: 00001097     	auipc	ra, 0x1
8000172a: e2c080e7     	jalr	-0x1d4(ra) <lab5_kernel_task3::pass_fail::h08854fc3445c59b2>
8000172e: 56a13023     	sd	a0, 0x560(sp)
80001732: 56b13423     	sd	a1, 0x568(sp)

0000000080001736 <.Lpcrel_hi55>:
80001736: 00004517     	auipc	a0, 0x4
8000173a: 3da50593     	addi	a1, a0, 0x3da
8000173e: 5cb13423     	sd	a1, 0x5c8(sp)
80001742: 56010513     	addi	a0, sp, 0x560
80001746: e82a         	sd	a0, 0x10(sp)
80001748: 5ca13823     	sd	a0, 0x5d0(sp)
8000174c: 59010513     	addi	a0, sp, 0x590
80001750: 00001097     	auipc	ra, 0x1
80001754: 458080e7     	jalr	0x458(ra) <core::fmt::rt::Argument::new_display::h26a32fde33194792>
80001758: 65c2         	ld	a1, 0x10(sp)
8000175a: 5a010513     	addi	a0, sp, 0x5a0
8000175e: 00001097     	auipc	ra, 0x1
80001762: 46c080e7     	jalr	0x46c(ra) <core::fmt::rt::Argument::new_display::h343420e83d4da8a8>
80001766: 59813503     	ld	a0, 0x598(sp)
8000176a: 56a13c23     	sd	a0, 0x578(sp)
8000176e: 59013503     	ld	a0, 0x590(sp)
80001772: 56a13823     	sd	a0, 0x570(sp)
80001776: 5a813503     	ld	a0, 0x5a8(sp)
8000177a: 58a13423     	sd	a0, 0x588(sp)
8000177e: 5a013503     	ld	a0, 0x5a0(sp)
80001782: 58a13023     	sd	a0, 0x580(sp)

0000000080001786 <.Lpcrel_hi56>:
80001786: 00004517     	auipc	a0, 0x4
8000178a: ca550513     	addi	a0, a0, -0x35b
8000178e: 57010593     	addi	a1, sp, 0x570
80001792: fffff097     	auipc	ra, 0xfffff
80001796: af0080e7     	jalr	-0x510(ra) <core::fmt::Arguments::new::h7428651031302d95>
8000179a: fffff097     	auipc	ra, 0xfffff
8000179e: 8ee080e7     	jalr	-0x712(ra) <lab5_kernel_task3::console::print::h4512414521490714>
800017a2: 4fd14503     	lbu	a0, 0x4fd(sp)
800017a6: 8905         	andi	a0, a0, 0x1
800017a8: e511         	bnez	a0, 0x800017b4 <.Lpcrel_hi56+0x2e>
800017aa: a009         	j	0x800017ac <.Lpcrel_hi56+0x26>
800017ac: 4505         	li	a0, 0x1
800017ae: 5aa12a23     	sw	a0, 0x5b4(sp)
800017b2: a839         	j	0x800017d0 <.Lpcrel_hi56+0x4a>
800017b4: 4fe14503     	lbu	a0, 0x4fe(sp)
800017b8: 8905         	andi	a0, a0, 0x1
800017ba: d96d         	beqz	a0, 0x800017ac <.Lpcrel_hi56+0x26>
800017bc: a009         	j	0x800017be <.Lpcrel_hi56+0x38>
800017be: 4ff14503     	lbu	a0, 0x4ff(sp)
800017c2: 8905         	andi	a0, a0, 0x1
800017c4: d565         	beqz	a0, 0x800017ac <.Lpcrel_hi56+0x26>
800017c6: a009         	j	0x800017c8 <.Lpcrel_hi56+0x42>
800017c8: 4501         	li	a0, 0x0
800017ca: 5aa12a23     	sw	a0, 0x5b4(sp)
800017ce: a009         	j	0x800017d0 <.Lpcrel_hi56+0x4a>
800017d0: 5b412503     	lw	a0, 0x5b4(sp)
800017d4: 00001097     	auipc	ra, 0x1
800017d8: db0080e7     	jalr	-0x250(ra) <lab5_kernel_task3::qemu_exit::h0f0a3b696d7196c5>
800017dc: 40813503     	ld	a0, 0x408(sp)
800017e0: 00351593     	slli	a1, a0, 0x3

00000000800017e4 <.Lpcrel_hi57>:
800017e4: 00005517     	auipc	a0, 0x5
800017e8: 5d450513     	addi	a0, a0, 0x5d4
800017ec: 952e         	add	a0, a0, a1
800017ee: 4589         	li	a1, 0x2
800017f0: 00002097     	auipc	ra, 0x2
800017f4: c06080e7     	jalr	-0x3fa(ra) <core::sync::atomic::AtomicUsize::load::h01085caffe0799e0>
800017f8: 40a13823     	sd	a0, 0x410(sp)
800017fc: 40813503     	ld	a0, 0x408(sp)
80001800: 45a1         	li	a1, 0x8
80001802: 00b56e63     	bltu	a0, a1, 0x8000181e <.Lpcrel_hi58+0x12>
80001806: a83d         	j	0x80001844 <.Lpcrel_hi59+0x16>
80001808: 40813503     	ld	a0, 0x408(sp)

000000008000180c <.Lpcrel_hi58>:
8000180c: 00004597     	auipc	a1, 0x4
80001810: 50c58613     	addi	a2, a1, 0x50c
80001814: 45a1         	li	a1, 0x8
80001816: 00003097     	auipc	ra, 0x3
8000181a: 53a080e7     	jalr	0x53a(ra) <core::panicking::panic_bounds_check::h6aaee0d15e0261eb>
8000181e: 40813503     	ld	a0, 0x408(sp)
80001822: 00351613     	slli	a2, a0, 0x3
80001826: 00651593     	slli	a1, a0, 0x6
8000182a: 40c58633     	sub	a2, a1, a2

000000008000182e <.Lpcrel_hi59>:
8000182e: 00004597     	auipc	a1, 0x4
80001832: 75258593     	addi	a1, a1, 0x752
80001836: 95b2         	add	a1, a1, a2
80001838: 05c1         	addi	a1, a1, 0x10
8000183a: e42e         	sd	a1, 0x8(sp)
8000183c: 45a1         	li	a1, 0x8
8000183e: 00b56e63     	bltu	a0, a1, 0x8000185a <.Lpcrel_hi60+0x12>
80001842: a881         	j	0x80001892 <.Lpcrel_hi61+0x2a>
80001844: 40813503     	ld	a0, 0x408(sp)

0000000080001848 <.Lpcrel_hi60>:
80001848: 00004597     	auipc	a1, 0x4
8000184c: 4e858613     	addi	a2, a1, 0x4e8
80001850: 45a1         	li	a1, 0x8
80001852: 00003097     	auipc	ra, 0x3
80001856: 4fe080e7     	jalr	0x4fe(ra) <core::panicking::panic_bounds_check::h6aaee0d15e0261eb>
8000185a: 40813503     	ld	a0, 0x408(sp)
8000185e: 00351593     	slli	a1, a0, 0x3
80001862: 051a         	slli	a0, a0, 0x6
80001864: 40b505b3     	sub	a1, a0, a1

0000000080001868 <.Lpcrel_hi61>:
80001868: 00004517     	auipc	a0, 0x4
8000186c: 71850513     	addi	a0, a0, 0x718
80001870: 952e         	add	a0, a0, a1
80001872: 03054503     	lbu	a0, 0x30(a0)
80001876: 00001097     	auipc	ra, 0x1
8000187a: 85c080e7     	jalr	-0x7a4(ra) <lab5_kernel_task3::JobClass::as_str::h9231136219e7239a>
8000187e: 44a13023     	sd	a0, 0x440(sp)
80001882: 44b13423     	sd	a1, 0x448(sp)
80001886: 40813503     	ld	a0, 0x408(sp)
8000188a: 45a1         	li	a1, 0x8
8000188c: 00b56e63     	bltu	a0, a1, 0x800018a8 <.Lpcrel_hi62+0x12>
80001890: aa39         	j	0x800019ae <.Lpcrel_hi64+0x1e>
80001892: 40813503     	ld	a0, 0x408(sp)

0000000080001896 <.Lpcrel_hi62>:
80001896: 00004597     	auipc	a1, 0x4
8000189a: 4b258613     	addi	a2, a1, 0x4b2
8000189e: 45a1         	li	a1, 0x8
800018a0: 00003097     	auipc	ra, 0x3
800018a4: 4b0080e7     	jalr	0x4b0(ra) <core::panicking::panic_bounds_check::h6aaee0d15e0261eb>
800018a8: 40813503     	ld	a0, 0x408(sp)
800018ac: 00351593     	slli	a1, a0, 0x3

00000000800018b0 <.Lpcrel_hi63>:
800018b0: 00015517     	auipc	a0, 0x15
800018b4: 58050513     	addi	a0, a0, 0x580
800018b8: 952e         	add	a0, a0, a1
800018ba: 4589         	li	a1, 0x2
800018bc: 00002097     	auipc	ra, 0x2
800018c0: cbe080e7     	jalr	-0x342(ra) <core::sync::atomic::AtomicU64::load::h21c7385feb3db3ed>
800018c4: 85aa         	mv	a1, a0
800018c6: 6522         	ld	a0, 0x8(sp)
800018c8: 44b13823     	sd	a1, 0x450(sp)
800018cc: 40810593     	addi	a1, sp, 0x408
800018d0: 40b13c23     	sd	a1, 0x418(sp)
800018d4: 42a13023     	sd	a0, 0x420(sp)
800018d8: 44010513     	addi	a0, sp, 0x440
800018dc: 42a13423     	sd	a0, 0x428(sp)
800018e0: 41010513     	addi	a0, sp, 0x410
800018e4: 42a13823     	sd	a0, 0x430(sp)
800018e8: 45010513     	addi	a0, sp, 0x450
800018ec: 42a13c23     	sd	a0, 0x438(sp)
800018f0: 41813583     	ld	a1, 0x418(sp)
800018f4: 4a810513     	addi	a0, sp, 0x4a8
800018f8: 00001097     	auipc	ra, 0x1
800018fc: 2b0080e7     	jalr	0x2b0(ra) <core::fmt::rt::Argument::new_display::h26a32fde33194792>
80001900: 42013583     	ld	a1, 0x420(sp)
80001904: 4b810513     	addi	a0, sp, 0x4b8
80001908: 00001097     	auipc	ra, 0x1
8000190c: 306080e7     	jalr	0x306(ra) <core::fmt::rt::Argument::new_display::hd6d864d0c34cbb40>
80001910: 42813583     	ld	a1, 0x428(sp)
80001914: 4c810513     	addi	a0, sp, 0x4c8
80001918: 00001097     	auipc	ra, 0x1
8000191c: 2b2080e7     	jalr	0x2b2(ra) <core::fmt::rt::Argument::new_display::h343420e83d4da8a8>
80001920: 43013583     	ld	a1, 0x430(sp)
80001924: 4d810513     	addi	a0, sp, 0x4d8
80001928: 00001097     	auipc	ra, 0x1
8000192c: 280080e7     	jalr	0x280(ra) <core::fmt::rt::Argument::new_display::h26a32fde33194792>
80001930: 43813583     	ld	a1, 0x438(sp)
80001934: 4e810513     	addi	a0, sp, 0x4e8
80001938: 00001097     	auipc	ra, 0x1
8000193c: 2f8080e7     	jalr	0x2f8(ra) <core::fmt::rt::Argument::new_lower_hex::h4660349ecbfaa947>
80001940: 4b013503     	ld	a0, 0x4b0(sp)
80001944: 46a13023     	sd	a0, 0x460(sp)
80001948: 4a813503     	ld	a0, 0x4a8(sp)
8000194c: 44a13c23     	sd	a0, 0x458(sp)
80001950: 4c013503     	ld	a0, 0x4c0(sp)
80001954: 46a13823     	sd	a0, 0x470(sp)
80001958: 4b813503     	ld	a0, 0x4b8(sp)
8000195c: 46a13423     	sd	a0, 0x468(sp)
80001960: 4d013503     	ld	a0, 0x4d0(sp)
80001964: 48a13023     	sd	a0, 0x480(sp)
80001968: 4c813503     	ld	a0, 0x4c8(sp)
8000196c: 46a13c23     	sd	a0, 0x478(sp)
80001970: 4e013503     	ld	a0, 0x4e0(sp)
80001974: 48a13823     	sd	a0, 0x490(sp)
80001978: 4d813503     	ld	a0, 0x4d8(sp)
8000197c: 48a13423     	sd	a0, 0x488(sp)
80001980: 4f013503     	ld	a0, 0x4f0(sp)
80001984: 4aa13023     	sd	a0, 0x4a0(sp)
80001988: 4e813503     	ld	a0, 0x4e8(sp)
8000198c: 48a13c23     	sd	a0, 0x498(sp)

0000000080001990 <.Lpcrel_hi64>:
80001990: 00004517     	auipc	a0, 0x4
80001994: 3e850513     	addi	a0, a0, 0x3e8
80001998: 45810593     	addi	a1, sp, 0x458
8000199c: fffff097     	auipc	ra, 0xfffff
800019a0: 8c8080e7     	jalr	-0x738(ra) <core::fmt::Arguments::new::h65caf24651fa53d2>
800019a4: ffffe097     	auipc	ra, 0xffffe
800019a8: 6e4080e7     	jalr	0x6e4(ra) <lab5_kernel_task3::console::print::h4512414521490714>
800019ac: bedd         	j	0x800015a2 <.Lpcrel_hi50+0x76>
800019ae: 40813503     	ld	a0, 0x408(sp)

00000000800019b2 <.Lpcrel_hi65>:
800019b2: 00004597     	auipc	a1, 0x4
800019b6: 3ae58613     	addi	a2, a1, 0x3ae
800019ba: 45a1         	li	a1, 0x8
800019bc: 00003097     	auipc	ra, 0x3
800019c0: 394080e7     	jalr	0x394(ra) <core::panicking::panic_bounds_check::h6aaee0d15e0261eb>
800019c4: 32813583     	ld	a1, 0x328(sp)

00000000800019c8 <.Lpcrel_hi66>:
800019c8: 00015517     	auipc	a0, 0x15
800019cc: 4b850513     	addi	a0, a0, 0x4b8
800019d0: 952e         	add	a0, a0, a1
800019d2: 4589         	li	a1, 0x2
800019d4: 00002097     	auipc	ra, 0x2
800019d8: 80c080e7     	jalr	-0x7f4(ra) <core::sync::atomic::AtomicBool::load::h61d87e6f66d1143e>
800019dc: fffff097     	auipc	ra, 0xfffff
800019e0: 06a080e7     	jalr	0x6a(ra) <lab5_kernel_task3::bool_to_u64::h4072d49acbd2121f>
800019e4: 34a13823     	sd	a0, 0x350(sp)
800019e8: 32813503     	ld	a0, 0x328(sp)
800019ec: 4591         	li	a1, 0x4
800019ee: 00b56e63     	bltu	a0, a1, 0x80001a0a <.Lpcrel_hi67+0x12>
800019f2: a091         	j	0x80001a36 <.Lpcrel_hi68+0x24>
800019f4: 32813503     	ld	a0, 0x328(sp)

00000000800019f8 <.Lpcrel_hi67>:
800019f8: 00004597     	auipc	a1, 0x4
800019fc: 3c858613     	addi	a2, a1, 0x3c8
80001a00: 4591         	li	a1, 0x4
80001a02: 00003097     	auipc	ra, 0x3
80001a06: 34e080e7     	jalr	0x34e(ra) <core::panicking::panic_bounds_check::h6aaee0d15e0261eb>
80001a0a: 32813503     	ld	a0, 0x328(sp)
80001a0e: 00351593     	slli	a1, a0, 0x3

0000000080001a12 <.Lpcrel_hi68>:
80001a12: 00015517     	auipc	a0, 0x15
80001a16: 47650513     	addi	a0, a0, 0x476
80001a1a: 952e         	add	a0, a0, a1
80001a1c: 4581         	li	a1, 0x0
80001a1e: 00002097     	auipc	ra, 0x2
80001a22: b5c080e7     	jalr	-0x4a4(ra) <core::sync::atomic::AtomicU64::load::h21c7385feb3db3ed>
80001a26: 34a13c23     	sd	a0, 0x358(sp)
80001a2a: 32813503     	ld	a0, 0x328(sp)
80001a2e: 4591         	li	a1, 0x4
80001a30: 00b56e63     	bltu	a0, a1, 0x80001a4c <.Lpcrel_hi69+0x12>
80001a34: a0d5         	j	0x80001b18 <.Lpcrel_hi71+0x1c>
80001a36: 32813503     	ld	a0, 0x328(sp)

0000000080001a3a <.Lpcrel_hi69>:
80001a3a: 00004597     	auipc	a1, 0x4
80001a3e: 39e58613     	addi	a2, a1, 0x39e
80001a42: 4591         	li	a1, 0x4
80001a44: 00003097     	auipc	ra, 0x3
80001a48: 30c080e7     	jalr	0x30c(ra) <core::panicking::panic_bounds_check::h6aaee0d15e0261eb>
80001a4c: 32813503     	ld	a0, 0x328(sp)
80001a50: 00351593     	slli	a1, a0, 0x3

0000000080001a54 <.Lpcrel_hi70>:
80001a54: 00015517     	auipc	a0, 0x15
80001a58: 45450513     	addi	a0, a0, 0x454
80001a5c: 952e         	add	a0, a0, a1
80001a5e: 4581         	li	a1, 0x0
80001a60: 00002097     	auipc	ra, 0x2
80001a64: b1a080e7     	jalr	-0x4e6(ra) <core::sync::atomic::AtomicU64::load::h21c7385feb3db3ed>
80001a68: 36a13023     	sd	a0, 0x360(sp)
80001a6c: 1628         	addi	a0, sp, 0x328
80001a6e: 32a13823     	sd	a0, 0x330(sp)
80001a72: 0e88         	addi	a0, sp, 0x350
80001a74: 32a13c23     	sd	a0, 0x338(sp)
80001a78: 0ea8         	addi	a0, sp, 0x358
80001a7a: 34a13023     	sd	a0, 0x340(sp)
80001a7e: 1688         	addi	a0, sp, 0x360
80001a80: 34a13423     	sd	a0, 0x348(sp)
80001a84: 33013583     	ld	a1, 0x330(sp)
80001a88: 1728         	addi	a0, sp, 0x3a8
80001a8a: 00001097     	auipc	ra, 0x1
80001a8e: 11e080e7     	jalr	0x11e(ra) <core::fmt::rt::Argument::new_display::h26a32fde33194792>
80001a92: 33813583     	ld	a1, 0x338(sp)
80001a96: 1f28         	addi	a0, sp, 0x3b8
80001a98: 00001097     	auipc	ra, 0x1
80001a9c: 176080e7     	jalr	0x176(ra) <core::fmt::rt::Argument::new_display::hd6d864d0c34cbb40>
80001aa0: 34013583     	ld	a1, 0x340(sp)
80001aa4: 07a8         	addi	a0, sp, 0x3c8
80001aa6: 00001097     	auipc	ra, 0x1
80001aaa: 168080e7     	jalr	0x168(ra) <core::fmt::rt::Argument::new_display::hd6d864d0c34cbb40>
80001aae: 34813583     	ld	a1, 0x348(sp)
80001ab2: 0fa8         	addi	a0, sp, 0x3d8
80001ab4: 00001097     	auipc	ra, 0x1
80001ab8: 15a080e7     	jalr	0x15a(ra) <core::fmt::rt::Argument::new_display::hd6d864d0c34cbb40>
80001abc: 3b013503     	ld	a0, 0x3b0(sp)
80001ac0: 36a13823     	sd	a0, 0x370(sp)
80001ac4: 3a813503     	ld	a0, 0x3a8(sp)
80001ac8: 36a13423     	sd	a0, 0x368(sp)
80001acc: 3c013503     	ld	a0, 0x3c0(sp)
80001ad0: 38a13023     	sd	a0, 0x380(sp)
80001ad4: 3b813503     	ld	a0, 0x3b8(sp)
80001ad8: 36a13c23     	sd	a0, 0x378(sp)
80001adc: 3d013503     	ld	a0, 0x3d0(sp)
80001ae0: 38a13823     	sd	a0, 0x390(sp)
80001ae4: 3c813503     	ld	a0, 0x3c8(sp)
80001ae8: 38a13423     	sd	a0, 0x388(sp)
80001aec: 3e013503     	ld	a0, 0x3e0(sp)
80001af0: 3aa13023     	sd	a0, 0x3a0(sp)
80001af4: 3d813503     	ld	a0, 0x3d8(sp)
80001af8: 38a13c23     	sd	a0, 0x398(sp)

0000000080001afc <.Lpcrel_hi71>:
80001afc: 00004517     	auipc	a0, 0x4
80001b00: 8f150513     	addi	a0, a0, -0x70f
80001b04: 16ac         	addi	a1, sp, 0x368
80001b06: ffffe097     	auipc	ra, 0xffffe
80001b0a: 736080e7     	jalr	0x736(ra) <core::fmt::Arguments::new::h383f07117f08c8bc>
80001b0e: ffffe097     	auipc	ra, 0xffffe
80001b12: 57a080e7     	jalr	0x57a(ra) <lab5_kernel_task3::console::print::h4512414521490714>
80001b16: b499         	j	0x8000155c <.Lpcrel_hi50+0x30>
80001b18: 32813503     	ld	a0, 0x328(sp)

0000000080001b1c <.Lpcrel_hi72>:
80001b1c: 00004597     	auipc	a1, 0x4
80001b20: 2d458613     	addi	a2, a1, 0x2d4
80001b24: 4591         	li	a1, 0x4
80001b26: 00003097     	auipc	ra, 0x3
80001b2a: 22a080e7     	jalr	0x22a(ra) <core::panicking::panic_bounds_check::h6aaee0d15e0261eb>

0000000080001b2e <lab5_kernel_task3::initialize_global_state::h0e7b81437a15bf46>:
80001b2e: 7179         	addi	sp, sp, -0x30
80001b30: f406         	sd	ra, 0x28(sp)

0000000080001b32 <.Lpcrel_hi73>:
80001b32: 00015517     	auipc	a0, 0x15
80001b36: 3de50513     	addi	a0, a0, 0x3de
80001b3a: fffff097     	auipc	ra, 0xfffff
80001b3e: a14080e7     	jalr	-0x5ec(ra) <lab5_kernel_task3::spinlock::SpinLock$LT$T$GT$::lock::h0f608dc81da44a39>
80001b42: ec2a         	sd	a0, 0x18(sp)
80001b44: 0828         	addi	a0, sp, 0x18
80001b46: e02a         	sd	a0, 0x0(sp)
80001b48: fffff097     	auipc	ra, 0xfffff
80001b4c: cbe080e7     	jalr	-0x342(ra) <_$LT$lab5_kernel_task3..spinlock..SpinLockGuard$LT$T$GT$$u20$as$u20$core..ops..deref..DerefMut$GT$::deref_mut::h7b7960eafc890d48>
80001b50: 00000097     	auipc	ra, 0x0
80001b54: 5b4080e7     	jalr	0x5b4(ra) <lab5_kernel_task3::RunQueue::reset::h3a37b9ee36051a31>
80001b58: 6502         	ld	a0, 0x0(sp)
80001b5a: 00002097     	auipc	ra, 0x2
80001b5e: 29a080e7     	jalr	0x29a(ra) <core::ptr::drop_in_place$LT$lab5_kernel_task3..spinlock..SpinLockGuard$LT$lab5_kernel_task3..RunQueue$GT$$GT$::had1488e64e48b413>

0000000080001b62 <.Lpcrel_hi74>:
80001b62: 00015517     	auipc	a0, 0x15
80001b66: 37e50513     	addi	a0, a0, 0x37e
80001b6a: fffff097     	auipc	ra, 0xfffff
80001b6e: b2a080e7     	jalr	-0x4d6(ra) <lab5_kernel_task3::spinlock::SpinLock$LT$T$GT$::lock::h5c33a43fd9ae7382>
80001b72: f02a         	sd	a0, 0x20(sp)
80001b74: 1008         	addi	a0, sp, 0x20
80001b76: e42a         	sd	a0, 0x8(sp)
80001b78: fffff097     	auipc	ra, 0xfffff
80001b7c: c48080e7     	jalr	-0x3b8(ra) <_$LT$lab5_kernel_task3..spinlock..SpinLockGuard$LT$T$GT$$u20$as$u20$core..ops..deref..DerefMut$GT$::deref_mut::h1d6518625cfd55e9>
80001b80: fffff097     	auipc	ra, 0xfffff
80001b84: 118080e7     	jalr	0x118(ra) <lab5_kernel_task3::BumpAllocator::reset::hf926a65285620d24>
80001b88: 6522         	ld	a0, 0x8(sp)
80001b8a: 00002097     	auipc	ra, 0x2
80001b8e: 242080e7     	jalr	0x242(ra) <core::ptr::drop_in_place$LT$lab5_kernel_task3..spinlock..SpinLockGuard$LT$lab5_kernel_task3..BumpAllocator$GT$$GT$::h8b1040e67a19296d>

0000000080001b92 <.Lpcrel_hi75>:
80001b92: 00015517     	auipc	a0, 0x15
80001b96: 34650513     	addi	a0, a0, 0x346
80001b9a: 4601         	li	a2, 0x0
80001b9c: e832         	sd	a2, 0x10(sp)
80001b9e: 85b2         	mv	a1, a2
80001ba0: 00002097     	auipc	ra, 0x2
80001ba4: 83a080e7     	jalr	-0x7c6(ra) <core::sync::atomic::AtomicBool::store::h599594f597f0706b>
80001ba8: 6642         	ld	a2, 0x10(sp)

0000000080001baa <.Lpcrel_hi76>:
80001baa: 00015517     	auipc	a0, 0x15
80001bae: 31e50513     	addi	a0, a0, 0x31e
80001bb2: 85b2         	mv	a1, a2
80001bb4: 00002097     	auipc	ra, 0x2
80001bb8: 826080e7     	jalr	-0x7da(ra) <core::sync::atomic::AtomicBool::store::h599594f597f0706b>
80001bbc: 6642         	ld	a2, 0x10(sp)

0000000080001bbe <.Lpcrel_hi77>:
80001bbe: 00015517     	auipc	a0, 0x15
80001bc2: 26250513     	addi	a0, a0, 0x262
80001bc6: 85b2         	mv	a1, a2
80001bc8: 00002097     	auipc	ra, 0x2
80001bcc: 846080e7     	jalr	-0x7ba(ra) <core::sync::atomic::AtomicUsize::store::h36a8c1ce4042fe8a>
80001bd0: 6642         	ld	a2, 0x10(sp)

0000000080001bd2 <.Lpcrel_hi78>:
80001bd2: 00015517     	auipc	a0, 0x15
80001bd6: 24650513     	addi	a0, a0, 0x246
80001bda: 85b2         	mv	a1, a2
80001bdc: 00002097     	auipc	ra, 0x2
80001be0: 832080e7     	jalr	-0x7ce(ra) <core::sync::atomic::AtomicUsize::store::h36a8c1ce4042fe8a>
80001be4: 6642         	ld	a2, 0x10(sp)

0000000080001be6 <.Lpcrel_hi79>:
80001be6: 00015517     	auipc	a0, 0x15
80001bea: 28a50513     	addi	a0, a0, 0x28a
80001bee: 85b2         	mv	a1, a2
80001bf0: 00002097     	auipc	ra, 0x2
80001bf4: 81e080e7     	jalr	-0x7e2(ra) <core::sync::atomic::AtomicUsize::store::h36a8c1ce4042fe8a>
80001bf8: 6642         	ld	a2, 0x10(sp)

0000000080001bfa <.Lpcrel_hi80>:
80001bfa: 00015517     	auipc	a0, 0x15
80001bfe: 27e50513     	addi	a0, a0, 0x27e
80001c02: 85b2         	mv	a1, a2
80001c04: 00002097     	auipc	ra, 0x2
80001c08: 80a080e7     	jalr	-0x7f6(ra) <core::sync::atomic::AtomicUsize::store::h36a8c1ce4042fe8a>
80001c0c: 6642         	ld	a2, 0x10(sp)

0000000080001c0e <.Lpcrel_hi81>:
80001c0e: 00015517     	auipc	a0, 0x15
80001c12: 21a50513     	addi	a0, a0, 0x21a
80001c16: 85b2         	mv	a1, a2
80001c18: 00002097     	auipc	ra, 0x2
80001c1c: 97a080e7     	jalr	-0x686(ra) <core::sync::atomic::AtomicU64::store::hff0f936c3127984b>
80001c20: 6642         	ld	a2, 0x10(sp)

0000000080001c22 <.Lpcrel_hi82>:
80001c22: 00015517     	auipc	a0, 0x15
80001c26: 2ae50513     	addi	a0, a0, 0x2ae
80001c2a: 85b2         	mv	a1, a2
80001c2c: 00002097     	auipc	ra, 0x2
80001c30: 966080e7     	jalr	-0x69a(ra) <core::sync::atomic::AtomicU64::store::hff0f936c3127984b>
80001c34: 70a2         	ld	ra, 0x28(sp)
80001c36: 6145         	addi	sp, sp, 0x30
80001c38: 8082         	ret

0000000080001c3a <lab5_kernel_task3::release_secondary_harts::ha4da04bde8370993>:
80001c3a: 1141         	addi	sp, sp, -0x10
80001c3c: e406         	sd	ra, 0x8(sp)
80001c3e: 4505         	li	a0, 0x1
80001c40: e02a         	sd	a0, 0x0(sp)
80001c42: 00002097     	auipc	ra, 0x2
80001c46: 8ba080e7     	jalr	-0x746(ra) <core::sync::atomic::fence::h07d489e6ef4c0a32>
80001c4a: 6582         	ld	a1, 0x0(sp)

0000000080001c4c <.Lpcrel_hi83>:
80001c4c: 00005517     	auipc	a0, 0x5
80001c50: 16450513     	addi	a0, a0, 0x164

0000000080001c54 <.Lpcrel_hi84>:
80001c54: 00004617     	auipc	a2, 0x4
80001c58: 1b460613     	addi	a2, a2, 0x1b4
80001c5c: 00001097     	auipc	ra, 0x1
80001c60: cd8080e7     	jalr	-0x328(ra) <core::ptr::write_volatile::ha889142a39010445>
80001c64: 60a2         	ld	ra, 0x8(sp)
80001c66: 0141         	addi	sp, sp, 0x10
80001c68: 8082         	ret

0000000080001c6a <lab5_kernel_task3::update_max_parallel_jobs::h472ca8925e522dee>:
80001c6a: 7139         	addi	sp, sp, -0x40
80001c6c: fc06         	sd	ra, 0x38(sp)
80001c6e: e42a         	sd	a0, 0x8(sp)
80001c70: f42a         	sd	a0, 0x28(sp)

0000000080001c72 <.Lpcrel_hi85>:
80001c72: 00015517     	auipc	a0, 0x15
80001c76: 25e50513     	addi	a0, a0, 0x25e
80001c7a: 4589         	li	a1, 0x2
80001c7c: 00002097     	auipc	ra, 0x2
80001c80: 8fe080e7     	jalr	-0x702(ra) <core::sync::atomic::AtomicU64::load::h21c7385feb3db3ed>
80001c84: e82a         	sd	a0, 0x10(sp)
80001c86: a009         	j	0x80001c88 <.Lpcrel_hi85+0x16>
80001c88: 65a2         	ld	a1, 0x8(sp)
80001c8a: 6542         	ld	a0, 0x10(sp)
80001c8c: 00b56663     	bltu	a0, a1, 0x80001c98 <.Lpcrel_hi85+0x26>
80001c90: a009         	j	0x80001c92 <.Lpcrel_hi85+0x20>
80001c92: 70e2         	ld	ra, 0x38(sp)
80001c94: 6121         	addi	sp, sp, 0x40
80001c96: 8082         	ret
80001c98: 6622         	ld	a2, 0x8(sp)
80001c9a: 65c2         	ld	a1, 0x10(sp)

0000000080001c9c <.Lpcrel_hi86>:
80001c9c: 00015517     	auipc	a0, 0x15
80001ca0: 23450513     	addi	a0, a0, 0x234
80001ca4: 468d         	li	a3, 0x3
80001ca6: 4709         	li	a4, 0x2
80001ca8: 00002097     	auipc	ra, 0x2
80001cac: 8b2080e7     	jalr	-0x74e(ra) <core::sync::atomic::AtomicU64::compare_exchange_weak::h8bc941950654d97a>
80001cb0: ec2a         	sd	a0, 0x18(sp)
80001cb2: f02e         	sd	a1, 0x20(sp)
80001cb4: 6562         	ld	a0, 0x18(sp)
80001cb6: 8905         	andi	a0, a0, 0x1
80001cb8: dd69         	beqz	a0, 0x80001c92 <.Lpcrel_hi85+0x20>
80001cba: a009         	j	0x80001cbc <.Lpcrel_hi86+0x20>
80001cbc: 7502         	ld	a0, 0x20(sp)
80001cbe: f82a         	sd	a0, 0x30(sp)
80001cc0: e82a         	sd	a0, 0x10(sp)
80001cc2: b7d9         	j	0x80001c88 <.Lpcrel_hi85+0x16>

0000000080001cc4 <lab5_kernel_task3::read_sp::hebd5d816062a978b>:
80001cc4: 1141         	addi	sp, sp, -0x10
80001cc6: 850a         	mv	a0, sp
80001cc8: e42a         	sd	a0, 0x8(sp)
80001cca: 6522         	ld	a0, 0x8(sp)
80001ccc: 0141         	addi	sp, sp, 0x10
80001cce: 8082         	ret

0000000080001cd0 <lab5_kernel_task3::run_job::ha2d601b6278a69bd>:
80001cd0: d0010113     	addi	sp, sp, -0x300
80001cd4: 2e113c23     	sd	ra, 0x2f8(sp)
80001cd8: f42e         	sd	a1, 0x28(sp)
80001cda: f82a         	sd	a0, 0x30(sp)
80001cdc: 2ab13c23     	sd	a1, 0x2b8(sp)
80001ce0: 451d         	li	a0, 0x7
80001ce2: 04b56d63     	bltu	a0, a1, 0x80001d3c <.Lpcrel_hi88+0x22>
80001ce6: a009         	j	0x80001ce8 <lab5_kernel_task3::run_job::ha2d601b6278a69bd+0x18>
80001ce8: 7522         	ld	a0, 0x28(sp)
80001cea: 00351593     	slli	a1, a0, 0x3
80001cee: 051a         	slli	a0, a0, 0x6
80001cf0: 40b505b3     	sub	a1, a0, a1

0000000080001cf4 <.Lpcrel_hi87>:
80001cf4: 00004517     	auipc	a0, 0x4
80001cf8: 28c50513     	addi	a0, a0, 0x28c
80001cfc: 952e         	add	a0, a0, a1
80001cfe: 790c         	ld	a1, 0x30(a0)
80001d00: f4ae         	sd	a1, 0x68(sp)
80001d02: 750c         	ld	a1, 0x28(a0)
80001d04: f0ae         	sd	a1, 0x60(sp)
80001d06: 710c         	ld	a1, 0x20(a0)
80001d08: ecae         	sd	a1, 0x58(sp)
80001d0a: 6d0c         	ld	a1, 0x18(a0)
80001d0c: e8ae         	sd	a1, 0x50(sp)
80001d0e: 690c         	ld	a1, 0x10(a0)
80001d10: e4ae         	sd	a1, 0x48(sp)
80001d12: 650c         	ld	a1, 0x8(a0)
80001d14: e0ae         	sd	a1, 0x40(sp)
80001d16: 6108         	ld	a0, 0x0(a0)
80001d18: fc2a         	sd	a0, 0x38(sp)

0000000080001d1a <.Lpcrel_hi88>:
80001d1a: 00015517     	auipc	a0, 0x15
80001d1e: 10e50513     	addi	a0, a0, 0x10e
80001d22: 4585         	li	a1, 0x1
80001d24: 460d         	li	a2, 0x3
80001d26: 00002097     	auipc	ra, 0x2
80001d2a: 886080e7     	jalr	-0x77a(ra) <core::sync::atomic::AtomicU64::fetch_add::ha0aca473a513c11b>
80001d2e: 85aa         	mv	a1, a0
80001d30: 00158513     	addi	a0, a1, 0x1
80001d34: f02a         	sd	a0, 0x20(sp)
80001d36: 16b56b63     	bltu	a0, a1, 0x80001eac <.Lpcrel_hi92>
80001d3a: a819         	j	0x80001d50 <.Lpcrel_hi89+0x12>
80001d3c: 7522         	ld	a0, 0x28(sp)

0000000080001d3e <.Lpcrel_hi89>:
80001d3e: 00004597     	auipc	a1, 0x4
80001d42: 0e258613     	addi	a2, a1, 0xe2
80001d46: 45a1         	li	a1, 0x8
80001d48: 00003097     	auipc	ra, 0x3
80001d4c: 008080e7     	jalr	0x8(ra) <core::panicking::panic_bounds_check::h6aaee0d15e0261eb>
80001d50: 7502         	ld	a0, 0x20(sp)
80001d52: f8aa         	sd	a0, 0x70(sp)
80001d54: 7546         	ld	a0, 0x70(sp)
80001d56: 00000097     	auipc	ra, 0x0
80001d5a: f14080e7     	jalr	-0xec(ra) <lab5_kernel_task3::update_max_parallel_jobs::h472ca8925e522dee>
80001d5e: 75a2         	ld	a1, 0x28(sp)
80001d60: 6646         	ld	a2, 0x50(sp)
80001d62: 7542         	ld	a0, 0x30(sp)
80001d64: fffff097     	auipc	ra, 0xfffff
80001d68: 1a8080e7     	jalr	0x1a8(ra) <lab5_kernel_task3::allocate_for_job::h79b94899d9fc351d>
80001d6c: fcaa         	sd	a0, 0x78(sp)
80001d6e: 0108         	addi	a0, sp, 0x80
80001d70: e42a         	sd	a0, 0x8(sp)
80001d72: e12e         	sd	a1, 0x80(sp)
80001d74: 00a8         	addi	a0, sp, 0x48
80001d76: e82a         	sd	a0, 0x10(sp)
80001d78: 06814503     	lbu	a0, 0x68(sp)
80001d7c: 00000097     	auipc	ra, 0x0
80001d80: 356080e7     	jalr	0x356(ra) <lab5_kernel_task3::JobClass::as_str::h9231136219e7239a>
80001d84: 86aa         	mv	a3, a0
80001d86: 6522         	ld	a0, 0x8(sp)
80001d88: 862e         	mv	a2, a1
80001d8a: 65c2         	ld	a1, 0x10(sp)
80001d8c: e1b6         	sd	a3, 0xc0(sp)
80001d8e: e5b2         	sd	a2, 0xc8(sp)
80001d90: 1810         	addi	a2, sp, 0x30
80001d92: e532         	sd	a2, 0x88(sp)
80001d94: e92e         	sd	a1, 0x90(sp)
80001d96: 182c         	addi	a1, sp, 0x38
80001d98: ed2e         	sd	a1, 0x98(sp)
80001d9a: 018c         	addi	a1, sp, 0xc0
80001d9c: f12e         	sd	a1, 0xa0(sp)
80001d9e: 18ac         	addi	a1, sp, 0x78
80001da0: f52e         	sd	a1, 0xa8(sp)
80001da2: f92a         	sd	a0, 0xb0(sp)
80001da4: 1888         	addi	a0, sp, 0x70
80001da6: fd2a         	sd	a0, 0xb8(sp)
80001da8: 65aa         	ld	a1, 0x88(sp)
80001daa: 0288         	addi	a0, sp, 0x140
80001dac: 00001097     	auipc	ra, 0x1
80001db0: dfc080e7     	jalr	-0x204(ra) <core::fmt::rt::Argument::new_display::h26a32fde33194792>
80001db4: 65ca         	ld	a1, 0x90(sp)
80001db6: 0a88         	addi	a0, sp, 0x150
80001db8: 00001097     	auipc	ra, 0x1
80001dbc: e56080e7     	jalr	-0x1aa(ra) <core::fmt::rt::Argument::new_display::hd6d864d0c34cbb40>
80001dc0: 65ea         	ld	a1, 0x98(sp)
80001dc2: 1288         	addi	a0, sp, 0x160
80001dc4: 00001097     	auipc	ra, 0x1
80001dc8: e06080e7     	jalr	-0x1fa(ra) <core::fmt::rt::Argument::new_display::h343420e83d4da8a8>
80001dcc: 758a         	ld	a1, 0xa0(sp)
80001dce: 1a88         	addi	a0, sp, 0x170
80001dd0: 00001097     	auipc	ra, 0x1
80001dd4: dfa080e7     	jalr	-0x206(ra) <core::fmt::rt::Argument::new_display::h343420e83d4da8a8>
80001dd8: 75aa         	ld	a1, 0xa8(sp)
80001dda: 0308         	addi	a0, sp, 0x180
80001ddc: 00001097     	auipc	ra, 0x1
80001de0: dcc080e7     	jalr	-0x234(ra) <core::fmt::rt::Argument::new_display::h26a32fde33194792>
80001de4: 75ca         	ld	a1, 0xb0(sp)
80001de6: 0b08         	addi	a0, sp, 0x190
80001de8: 00001097     	auipc	ra, 0x1
80001dec: dc0080e7     	jalr	-0x240(ra) <core::fmt::rt::Argument::new_display::h26a32fde33194792>
80001df0: 75ea         	ld	a1, 0xb8(sp)
80001df2: 1308         	addi	a0, sp, 0x1a0
80001df4: 00001097     	auipc	ra, 0x1
80001df8: e1a080e7     	jalr	-0x1e6(ra) <core::fmt::rt::Argument::new_display::hd6d864d0c34cbb40>
80001dfc: 6536         	ld	a0, 0x148(sp)
80001dfe: edaa         	sd	a0, 0xd8(sp)
80001e00: 6516         	ld	a0, 0x140(sp)
80001e02: e9aa         	sd	a0, 0xd0(sp)
80001e04: 6576         	ld	a0, 0x158(sp)
80001e06: f5aa         	sd	a0, 0xe8(sp)
80001e08: 6556         	ld	a0, 0x150(sp)
80001e0a: f1aa         	sd	a0, 0xe0(sp)
80001e0c: 7536         	ld	a0, 0x168(sp)
80001e0e: fdaa         	sd	a0, 0xf8(sp)
80001e10: 7516         	ld	a0, 0x160(sp)
80001e12: f9aa         	sd	a0, 0xf0(sp)
80001e14: 7576         	ld	a0, 0x178(sp)
80001e16: e62a         	sd	a0, 0x108(sp)
80001e18: 7556         	ld	a0, 0x170(sp)
80001e1a: e22a         	sd	a0, 0x100(sp)
80001e1c: 653a         	ld	a0, 0x188(sp)
80001e1e: ee2a         	sd	a0, 0x118(sp)
80001e20: 651a         	ld	a0, 0x180(sp)
80001e22: ea2a         	sd	a0, 0x110(sp)
80001e24: 657a         	ld	a0, 0x198(sp)
80001e26: f62a         	sd	a0, 0x128(sp)
80001e28: 655a         	ld	a0, 0x190(sp)
80001e2a: f22a         	sd	a0, 0x120(sp)
80001e2c: 753a         	ld	a0, 0x1a8(sp)
80001e2e: fe2a         	sd	a0, 0x138(sp)
80001e30: 751a         	ld	a0, 0x1a0(sp)
80001e32: fa2a         	sd	a0, 0x130(sp)

0000000080001e34 <.Lpcrel_hi90>:
80001e34: 00003517     	auipc	a0, 0x3
80001e38: 30450513     	addi	a0, a0, 0x304
80001e3c: 098c         	addi	a1, sp, 0xd0
80001e3e: ffffe097     	auipc	ra, 0xffffe
80001e42: 41c080e7     	jalr	0x41c(ra) <core::fmt::Arguments::new::h43e7ee9d0331f452>
80001e46: ffffe097     	auipc	ra, 0xffffe
80001e4a: 242080e7     	jalr	0x242(ra) <lab5_kernel_task3::console::print::h4512414521490714>
80001e4e: 7542         	ld	a0, 0x30(sp)
80001e50: 75a6         	ld	a1, 0x68(sp)
80001e52: 2eb13823     	sd	a1, 0x2f0(sp)
80001e56: 7586         	ld	a1, 0x60(sp)
80001e58: 2eb13423     	sd	a1, 0x2e8(sp)
80001e5c: 65e6         	ld	a1, 0x58(sp)
80001e5e: 2eb13023     	sd	a1, 0x2e0(sp)
80001e62: 65c6         	ld	a1, 0x50(sp)
80001e64: 2cb13c23     	sd	a1, 0x2d8(sp)
80001e68: 65a6         	ld	a1, 0x48(sp)
80001e6a: 2cb13823     	sd	a1, 0x2d0(sp)
80001e6e: 6586         	ld	a1, 0x40(sp)
80001e70: 2cb13423     	sd	a1, 0x2c8(sp)
80001e74: 75e2         	ld	a1, 0x38(sp)
80001e76: 2cb13023     	sd	a1, 0x2c0(sp)
80001e7a: 7666         	ld	a2, 0x78(sp)
80001e7c: 668a         	ld	a3, 0x80(sp)
80001e7e: 058c         	addi	a1, sp, 0x2c0
80001e80: fffff097     	auipc	ra, 0xfffff
80001e84: be2080e7     	jalr	-0x41e(ra) <lab5_kernel_task3::execute_job::heaaded99e0832bbb>
80001e88: fb2a         	sd	a0, 0x1b0(sp)

0000000080001e8a <.Lpcrel_hi91>:
80001e8a: 00015517     	auipc	a0, 0x15
80001e8e: fe650513     	addi	a0, a0, -0x1a
80001e92: 4585         	li	a1, 0x1
80001e94: 460d         	li	a2, 0x3
80001e96: 00001097     	auipc	ra, 0x1
80001e9a: 5fc080e7     	jalr	0x5fc(ra) <core::sync::atomic::AtomicUsize::fetch_add::hae86e4587c5e2d8e>
80001e9e: 85aa         	mv	a1, a0
80001ea0: 00158513     	addi	a0, a1, 0x1
80001ea4: ec2a         	sd	a0, 0x18(sp)
80001ea6: 02b56c63     	bltu	a0, a1, 0x80001ede <.Lpcrel_hi94>
80001eaa: a809         	j	0x80001ebc <.Lpcrel_hi92+0x10>

0000000080001eac <.Lpcrel_hi92>:
80001eac: 00004517     	auipc	a0, 0x4
80001eb0: f8c50513     	addi	a0, a0, -0x74
80001eb4: 00003097     	auipc	ra, 0x3
80001eb8: e42080e7     	jalr	-0x1be(ra) <core::panicking::panic_const::panic_const_add_overflow::h67cba067093910f8>
80001ebc: 6562         	ld	a0, 0x18(sp)
80001ebe: ff2a         	sd	a0, 0x1b8(sp)

0000000080001ec0 <.Lpcrel_hi93>:
80001ec0: 00015517     	auipc	a0, 0x15
80001ec4: f6850513     	addi	a0, a0, -0x98
80001ec8: 4585         	li	a1, 0x1
80001eca: 460d         	li	a2, 0x3
80001ecc: 00001097     	auipc	ra, 0x1
80001ed0: 74a080e7     	jalr	0x74a(ra) <core::sync::atomic::AtomicU64::fetch_sub::ha6c5c7765d81d8e2>
80001ed4: fff50593     	addi	a1, a0, -0x1
80001ed8: e02e         	sd	a1, 0x0(sp)
80001eda: c10d         	beqz	a0, 0x80001efc <.Lpcrel_hi95>
80001edc: a809         	j	0x80001eee <.Lpcrel_hi94+0x10>

0000000080001ede <.Lpcrel_hi94>:
80001ede: 00004517     	auipc	a0, 0x4
80001ee2: f7250513     	addi	a0, a0, -0x8e
80001ee6: 00003097     	auipc	ra, 0x3
80001eea: e10080e7     	jalr	-0x1f0(ra) <core::panicking::panic_const::panic_const_add_overflow::h67cba067093910f8>
80001eee: 7522         	ld	a0, 0x28(sp)
80001ef0: 6582         	ld	a1, 0x0(sp)
80001ef2: e3ae         	sd	a1, 0x1c0(sp)
80001ef4: 45a1         	li	a1, 0x8
80001ef6: 00b56b63     	bltu	a0, a1, 0x80001f0c <.Lpcrel_hi95+0x10>
80001efa: a825         	j	0x80001f32 <.Lpcrel_hi96+0x20>

0000000080001efc <.Lpcrel_hi95>:
80001efc: 00004517     	auipc	a0, 0x4
80001f00: f6c50513     	addi	a0, a0, -0x94
80001f04: 00003097     	auipc	ra, 0x3
80001f08: e2e080e7     	jalr	-0x1d2(ra) <core::panicking::panic_const::panic_const_sub_overflow::hccc965ba9198de7c>
80001f0c: 7522         	ld	a0, 0x28(sp)
80001f0e: 00351593     	slli	a1, a0, 0x3

0000000080001f12 <.Lpcrel_hi96>:
80001f12: 00015517     	auipc	a0, 0x15
80001f16: f1e50513     	addi	a0, a0, -0xe2
80001f1a: 952e         	add	a0, a0, a1
80001f1c: 75da         	ld	a1, 0x1b0(sp)
80001f1e: 4605         	li	a2, 0x1
80001f20: 00001097     	auipc	ra, 0x1
80001f24: 672080e7     	jalr	0x672(ra) <core::sync::atomic::AtomicU64::store::hff0f936c3127984b>
80001f28: 7522         	ld	a0, 0x28(sp)
80001f2a: 45a1         	li	a1, 0x8
80001f2c: 00b56d63     	bltu	a0, a1, 0x80001f46 <.Lpcrel_hi97+0x12>
80001f30: a835         	j	0x80001f6c <.Lpcrel_hi98+0x20>
80001f32: 7522         	ld	a0, 0x28(sp)

0000000080001f34 <.Lpcrel_hi97>:
80001f34: 00004597     	auipc	a1, 0x4
80001f38: f4c58613     	addi	a2, a1, -0xb4
80001f3c: 45a1         	li	a1, 0x8
80001f3e: 00003097     	auipc	ra, 0x3
80001f42: e12080e7     	jalr	-0x1ee(ra) <core::panicking::panic_bounds_check::h6aaee0d15e0261eb>
80001f46: 7522         	ld	a0, 0x28(sp)
80001f48: 00351593     	slli	a1, a0, 0x3

0000000080001f4c <.Lpcrel_hi98>:
80001f4c: 00005517     	auipc	a0, 0x5
80001f50: e6c50513     	addi	a0, a0, -0x194
80001f54: 952e         	add	a0, a0, a1
80001f56: 75c2         	ld	a1, 0x30(sp)
80001f58: 4605         	li	a2, 0x1
80001f5a: 00001097     	auipc	ra, 0x1
80001f5e: 4b4080e7     	jalr	0x4b4(ra) <core::sync::atomic::AtomicUsize::store::h36a8c1ce4042fe8a>
80001f62: 7542         	ld	a0, 0x30(sp)
80001f64: 4591         	li	a1, 0x4
80001f66: 00b56d63     	bltu	a0, a1, 0x80001f80 <.Lpcrel_hi99+0x12>
80001f6a: a835         	j	0x80001fa6 <.Lpcrel_hi100+0x20>
80001f6c: 7522         	ld	a0, 0x28(sp)

0000000080001f6e <.Lpcrel_hi99>:
80001f6e: 00004597     	auipc	a1, 0x4
80001f72: f2a58613     	addi	a2, a1, -0xd6
80001f76: 45a1         	li	a1, 0x8
80001f78: 00003097     	auipc	ra, 0x3
80001f7c: dd8080e7     	jalr	-0x228(ra) <core::panicking::panic_bounds_check::h6aaee0d15e0261eb>
80001f80: 7542         	ld	a0, 0x30(sp)
80001f82: 00351593     	slli	a1, a0, 0x3

0000000080001f86 <.Lpcrel_hi100>:
80001f86: 00015517     	auipc	a0, 0x15
80001f8a: f0250513     	addi	a0, a0, -0xfe
80001f8e: 952e         	add	a0, a0, a1
80001f90: 4585         	li	a1, 0x1
80001f92: 4601         	li	a2, 0x0
80001f94: 00001097     	auipc	ra, 0x1
80001f98: 618080e7     	jalr	0x618(ra) <core::sync::atomic::AtomicU64::fetch_add::ha0aca473a513c11b>
80001f9c: 7542         	ld	a0, 0x30(sp)
80001f9e: 4591         	li	a1, 0x4
80001fa0: 00b56d63     	bltu	a0, a1, 0x80001fba <.Lpcrel_hi101+0x12>
80001fa4: aa29         	j	0x800020be <.Lpcrel_hi104+0x24>
80001fa6: 7542         	ld	a0, 0x30(sp)

0000000080001fa8 <.Lpcrel_hi101>:
80001fa8: 00004597     	auipc	a1, 0x4
80001fac: f0858613     	addi	a2, a1, -0xf8
80001fb0: 4591         	li	a1, 0x4
80001fb2: 00003097     	auipc	ra, 0x3
80001fb6: d9e080e7     	jalr	-0x262(ra) <core::panicking::panic_bounds_check::h6aaee0d15e0261eb>
80001fba: 7542         	ld	a0, 0x30(sp)
80001fbc: 00351593     	slli	a1, a0, 0x3

0000000080001fc0 <.Lpcrel_hi102>:
80001fc0: 00015517     	auipc	a0, 0x15
80001fc4: ee850513     	addi	a0, a0, -0x118
80001fc8: 952e         	add	a0, a0, a1
80001fca: 65c6         	ld	a1, 0x50(sp)
80001fcc: 4601         	li	a2, 0x0
80001fce: 00001097     	auipc	ra, 0x1
80001fd2: 5de080e7     	jalr	0x5de(ra) <core::sync::atomic::AtomicU64::fetch_add::ha0aca473a513c11b>
80001fd6: 00a8         	addi	a0, sp, 0x48
80001fd8: 180c         	addi	a1, sp, 0x30
80001fda: e7ae         	sd	a1, 0x1c8(sp)
80001fdc: ebaa         	sd	a0, 0x1d0(sp)
80001fde: 1b08         	addi	a0, sp, 0x1b0
80001fe0: efaa         	sd	a0, 0x1d8(sp)
80001fe2: 1b28         	addi	a0, sp, 0x1b8
80001fe4: f3aa         	sd	a0, 0x1e0(sp)

0000000080001fe6 <.Lpcrel_hi103>:
80001fe6: 00004517     	auipc	a0, 0x4
80001fea: af250513     	addi	a0, a0, -0x50e
80001fee: f7aa         	sd	a0, 0x1e8(sp)
80001ff0: 0388         	addi	a0, sp, 0x1c0
80001ff2: fbaa         	sd	a0, 0x1f0(sp)
80001ff4: 65be         	ld	a1, 0x1c8(sp)
80001ff6: 0ca8         	addi	a0, sp, 0x258
80001ff8: 00001097     	auipc	ra, 0x1
80001ffc: bb0080e7     	jalr	-0x450(ra) <core::fmt::rt::Argument::new_display::h26a32fde33194792>
80002000: 65de         	ld	a1, 0x1d0(sp)
80002002: 14a8         	addi	a0, sp, 0x268
80002004: 00001097     	auipc	ra, 0x1
80002008: c0a080e7     	jalr	-0x3f6(ra) <core::fmt::rt::Argument::new_display::hd6d864d0c34cbb40>
8000200c: 65fe         	ld	a1, 0x1d8(sp)
8000200e: 1ca8         	addi	a0, sp, 0x278
80002010: 00001097     	auipc	ra, 0x1
80002014: c20080e7     	jalr	-0x3e0(ra) <core::fmt::rt::Argument::new_lower_hex::h4660349ecbfaa947>
80002018: 759e         	ld	a1, 0x1e0(sp)
8000201a: 0528         	addi	a0, sp, 0x288
8000201c: 00001097     	auipc	ra, 0x1
80002020: b8c080e7     	jalr	-0x474(ra) <core::fmt::rt::Argument::new_display::h26a32fde33194792>
80002024: 75be         	ld	a1, 0x1e8(sp)
80002026: 0d28         	addi	a0, sp, 0x298
80002028: 00001097     	auipc	ra, 0x1
8000202c: b80080e7     	jalr	-0x480(ra) <core::fmt::rt::Argument::new_display::h26a32fde33194792>
80002030: 75de         	ld	a1, 0x1f0(sp)
80002032: 1528         	addi	a0, sp, 0x2a8
80002034: 00001097     	auipc	ra, 0x1
80002038: bda080e7     	jalr	-0x426(ra) <core::fmt::rt::Argument::new_display::hd6d864d0c34cbb40>
8000203c: 26013503     	ld	a0, 0x260(sp)
80002040: 20a13023     	sd	a0, 0x200(sp)
80002044: 25813503     	ld	a0, 0x258(sp)
80002048: ffaa         	sd	a0, 0x1f8(sp)
8000204a: 27013503     	ld	a0, 0x270(sp)
8000204e: 20a13823     	sd	a0, 0x210(sp)
80002052: 26813503     	ld	a0, 0x268(sp)
80002056: 20a13423     	sd	a0, 0x208(sp)
8000205a: 28013503     	ld	a0, 0x280(sp)
8000205e: 22a13023     	sd	a0, 0x220(sp)
80002062: 27813503     	ld	a0, 0x278(sp)
80002066: 20a13c23     	sd	a0, 0x218(sp)
8000206a: 29013503     	ld	a0, 0x290(sp)
8000206e: 22a13823     	sd	a0, 0x230(sp)
80002072: 28813503     	ld	a0, 0x288(sp)
80002076: 22a13423     	sd	a0, 0x228(sp)
8000207a: 2a013503     	ld	a0, 0x2a0(sp)
8000207e: 24a13023     	sd	a0, 0x240(sp)
80002082: 29813503     	ld	a0, 0x298(sp)
80002086: 22a13c23     	sd	a0, 0x238(sp)
8000208a: 2b013503     	ld	a0, 0x2b0(sp)
8000208e: 24a13823     	sd	a0, 0x250(sp)
80002092: 2a813503     	ld	a0, 0x2a8(sp)
80002096: 24a13423     	sd	a0, 0x248(sp)

000000008000209a <.Lpcrel_hi104>:
8000209a: 00004517     	auipc	a0, 0x4
8000209e: e4650513     	addi	a0, a0, -0x1ba
800020a2: 1bac         	addi	a1, sp, 0x1f8
800020a4: ffffe097     	auipc	ra, 0xffffe
800020a8: 1d4080e7     	jalr	0x1d4(ra) <core::fmt::Arguments::new::h6c2a2e65fcda6b77>
800020ac: ffffe097     	auipc	ra, 0xffffe
800020b0: fdc080e7     	jalr	-0x24(ra) <lab5_kernel_task3::console::print::h4512414521490714>
800020b4: 2f813083     	ld	ra, 0x2f8(sp)
800020b8: 30010113     	addi	sp, sp, 0x300
800020bc: 8082         	ret
800020be: 7542         	ld	a0, 0x30(sp)

00000000800020c0 <.Lpcrel_hi105>:
800020c0: 00004597     	auipc	a1, 0x4
800020c4: e0858613     	addi	a2, a1, -0x1f8
800020c8: 4591         	li	a1, 0x4
800020ca: 00003097     	auipc	ra, 0x3
800020ce: c86080e7     	jalr	-0x37a(ra) <core::panicking::panic_bounds_check::h6aaee0d15e0261eb>

00000000800020d2 <lab5_kernel_task3::JobClass::as_str::h9231136219e7239a>:
800020d2: 1101         	addi	sp, sp, -0x20
800020d4: 00a10fa3     	sb	a0, 0x1f(sp)
800020d8: c911         	beqz	a0, 0x800020ec <.Lpcrel_hi107>
800020da: a009         	j	0x800020dc <.Lpcrel_hi106>

00000000800020dc <.Lpcrel_hi106>:
800020dc: 00004517     	auipc	a0, 0x4
800020e0: 06f50513     	addi	a0, a0, 0x6f
800020e4: e42a         	sd	a0, 0x8(sp)
800020e6: 451d         	li	a0, 0x7
800020e8: e82a         	sd	a0, 0x10(sp)
800020ea: a809         	j	0x800020fc <.Lpcrel_hi107+0x10>

00000000800020ec <.Lpcrel_hi107>:
800020ec: 00004517     	auipc	a0, 0x4
800020f0: 05450513     	addi	a0, a0, 0x54
800020f4: e42a         	sd	a0, 0x8(sp)
800020f6: 452d         	li	a0, 0xb
800020f8: e82a         	sd	a0, 0x10(sp)
800020fa: a009         	j	0x800020fc <.Lpcrel_hi107+0x10>
800020fc: 6522         	ld	a0, 0x8(sp)
800020fe: 65c2         	ld	a1, 0x10(sp)
80002100: 6105         	addi	sp, sp, 0x20
80002102: 8082         	ret

0000000080002104 <lab5_kernel_task3::RunQueue::reset::h3a37b9ee36051a31>:
80002104: 7139         	addi	sp, sp, -0x40
80002106: f42a         	sd	a0, 0x28(sp)
80002108: fc2a         	sd	a0, 0x38(sp)
8000210a: 4501         	li	a0, 0x0
8000210c: f82a         	sd	a0, 0x30(sp)
8000210e: a009         	j	0x80002110 <lab5_kernel_task3::RunQueue::reset::h3a37b9ee36051a31+0xc>
80002110: 7542         	ld	a0, 0x30(sp)
80002112: 45a1         	li	a1, 0x8
80002114: 00b56963     	bltu	a0, a1, 0x80002126 <lab5_kernel_task3::RunQueue::reset::h3a37b9ee36051a31+0x22>
80002118: a009         	j	0x8000211a <lab5_kernel_task3::RunQueue::reset::h3a37b9ee36051a31+0x16>
8000211a: 75a2         	ld	a1, 0x28(sp)
8000211c: 4501         	li	a0, 0x0
8000211e: e1a8         	sd	a0, 0x40(a1)
80002120: e5a8         	sd	a0, 0x48(a1)
80002122: 6121         	addi	sp, sp, 0x40
80002124: 8082         	ret
80002126: 75c2         	ld	a1, 0x30(sp)
80002128: e82e         	sd	a1, 0x10(sp)
8000212a: 852e         	mv	a0, a1
8000212c: ec2a         	sd	a0, 0x18(sp)
8000212e: 451d         	li	a0, 0x7
80002130: 862e         	mv	a2, a1
80002132: f032         	sd	a2, 0x20(sp)
80002134: 02b56063     	bltu	a0, a1, 0x80002154 <lab5_kernel_task3::RunQueue::reset::h3a37b9ee36051a31+0x50>
80002138: a009         	j	0x8000213a <lab5_kernel_task3::RunQueue::reset::h3a37b9ee36051a31+0x36>
8000213a: 6562         	ld	a0, 0x18(sp)
8000213c: 75a2         	ld	a1, 0x28(sp)
8000213e: 6642         	ld	a2, 0x10(sp)
80002140: 060e         	slli	a2, a2, 0x3
80002142: 95b2         	add	a1, a1, a2
80002144: e188         	sd	a0, 0x0(a1)
80002146: 75c2         	ld	a1, 0x30(sp)
80002148: 00158513     	addi	a0, a1, 0x1
8000214c: e42a         	sd	a0, 0x8(sp)
8000214e: 02b56063     	bltu	a0, a1, 0x8000216e <.Lpcrel_hi109>
80002152: a819         	j	0x80002168 <.Lpcrel_hi108+0x12>
80002154: 7502         	ld	a0, 0x20(sp)

0000000080002156 <.Lpcrel_hi108>:
80002156: 00004597     	auipc	a1, 0x4
8000215a: 00258613     	addi	a2, a1, 0x2
8000215e: 45a1         	li	a1, 0x8
80002160: 00003097     	auipc	ra, 0x3
80002164: bf0080e7     	jalr	-0x410(ra) <core::panicking::panic_bounds_check::h6aaee0d15e0261eb>
80002168: 6522         	ld	a0, 0x8(sp)
8000216a: f82a         	sd	a0, 0x30(sp)
8000216c: b755         	j	0x80002110 <lab5_kernel_task3::RunQueue::reset::h3a37b9ee36051a31+0xc>

000000008000216e <.Lpcrel_hi109>:
8000216e: 00004517     	auipc	a0, 0x4
80002172: 00250513     	addi	a0, a0, 0x2
80002176: 00003097     	auipc	ra, 0x3
8000217a: b80080e7     	jalr	-0x480(ra) <core::panicking::panic_const::panic_const_add_overflow::h67cba067093910f8>

000000008000217e <lab5_kernel_task3::RunQueue::pop_next::h29d528039e421693>:
8000217e: 715d         	addi	sp, sp, -0x50
80002180: f42a         	sd	a0, 0x28(sp)
80002182: e0aa         	sd	a0, 0x40(sp)
80002184: 612c         	ld	a1, 0x40(a0)
80002186: 451d         	li	a0, 0x7
80002188: 00b56a63     	bltu	a0, a1, 0x8000219c <lab5_kernel_task3::RunQueue::pop_next::h29d528039e421693+0x1e>
8000218c: a009         	j	0x8000218e <lab5_kernel_task3::RunQueue::pop_next::h29d528039e421693+0x10>
8000218e: 7522         	ld	a0, 0x28(sp)
80002190: 6128         	ld	a0, 0x40(a0)
80002192: f02a         	sd	a0, 0x20(sp)
80002194: 45a1         	li	a1, 0x8
80002196: 00b56663     	bltu	a0, a1, 0x800021a2 <lab5_kernel_task3::RunQueue::pop_next::h29d528039e421693+0x24>
8000219a: a015         	j	0x800021be <lab5_kernel_task3::RunQueue::pop_next::h29d528039e421693+0x40>
8000219c: 4501         	li	a0, 0x0
8000219e: f82a         	sd	a0, 0x30(sp)
800021a0: a89d         	j	0x80002216 <.Lpcrel_hi112+0x10>
800021a2: 7522         	ld	a0, 0x28(sp)
800021a4: 7582         	ld	a1, 0x20(sp)
800021a6: 058e         	slli	a1, a1, 0x3
800021a8: 95aa         	add	a1, a1, a0
800021aa: 618c         	ld	a1, 0x0(a1)
800021ac: e82e         	sd	a1, 0x10(sp)
800021ae: e4ae         	sd	a1, 0x48(sp)
800021b0: 612c         	ld	a1, 0x40(a0)
800021b2: 00158513     	addi	a0, a1, 0x1
800021b6: ec2a         	sd	a0, 0x18(sp)
800021b8: 02b56763     	bltu	a0, a1, 0x800021e6 <.Lpcrel_hi111>
800021bc: a819         	j	0x800021d2 <.Lpcrel_hi110+0x12>
800021be: 7502         	ld	a0, 0x20(sp)

00000000800021c0 <.Lpcrel_hi110>:
800021c0: 00004597     	auipc	a1, 0x4
800021c4: fc858613     	addi	a2, a1, -0x38
800021c8: 45a1         	li	a1, 0x8
800021ca: 00003097     	auipc	ra, 0x3
800021ce: b86080e7     	jalr	-0x47a(ra) <core::panicking::panic_bounds_check::h6aaee0d15e0261eb>
800021d2: 7522         	ld	a0, 0x28(sp)
800021d4: 65e2         	ld	a1, 0x18(sp)
800021d6: e12c         	sd	a1, 0x40(a0)
800021d8: 652c         	ld	a1, 0x48(a0)
800021da: 00158513     	addi	a0, a1, 0x1
800021de: e42a         	sd	a0, 0x8(sp)
800021e0: 02b56363     	bltu	a0, a1, 0x80002206 <.Lpcrel_hi112>
800021e4: a809         	j	0x800021f6 <.Lpcrel_hi111+0x10>

00000000800021e6 <.Lpcrel_hi111>:
800021e6: 00004517     	auipc	a0, 0x4
800021ea: fba50513     	addi	a0, a0, -0x46
800021ee: 00003097     	auipc	ra, 0x3
800021f2: b08080e7     	jalr	-0x4f8(ra) <core::panicking::panic_const::panic_const_add_overflow::h67cba067093910f8>
800021f6: 6542         	ld	a0, 0x10(sp)
800021f8: 65a2         	ld	a1, 0x8(sp)
800021fa: 7622         	ld	a2, 0x28(sp)
800021fc: e62c         	sd	a1, 0x48(a2)
800021fe: fc2a         	sd	a0, 0x38(sp)
80002200: 4505         	li	a0, 0x1
80002202: f82a         	sd	a0, 0x30(sp)
80002204: a809         	j	0x80002216 <.Lpcrel_hi112+0x10>

0000000080002206 <.Lpcrel_hi112>:
80002206: 00004517     	auipc	a0, 0x4
8000220a: fb250513     	addi	a0, a0, -0x4e
8000220e: 00003097     	auipc	ra, 0x3
80002212: ae8080e7     	jalr	-0x518(ra) <core::panicking::panic_const::panic_const_add_overflow::h67cba067093910f8>
80002216: 7542         	ld	a0, 0x30(sp)
80002218: 75e2         	ld	a1, 0x38(sp)
8000221a: 6161         	addi	sp, sp, 0x50
8000221c: 8082         	ret

000000008000221e <lab5_kernel_task3::RunQueue::remaining::h62cf4fea635b682b>:
8000221e: 1101         	addi	sp, sp, -0x20
80002220: e02a         	sd	a0, 0x0(sp)
80002222: 612c         	ld	a1, 0x40(a0)
80002224: 4521         	li	a0, 0x8
80002226: e42a         	sd	a0, 0x8(sp)
80002228: e82e         	sd	a1, 0x10(sp)
8000222a: 40b505b3     	sub	a1, a0, a1
8000222e: 0095b613     	sltiu	a2, a1, 0x9
80002232: 4501         	li	a0, 0x0
80002234: 8d11         	sub	a0, a0, a2
80002236: 8d6d         	and	a0, a0, a1
80002238: ec2a         	sd	a0, 0x18(sp)
8000223a: 6562         	ld	a0, 0x18(sp)
8000223c: 6105         	addi	sp, sp, 0x20
8000223e: 8082         	ret

0000000080002240 <lab5_kernel_task3::busy_mix::hc0542bcceab4471e>:
80002240: 711d         	addi	sp, sp, -0x60
80002242: ec86         	sd	ra, 0x58(sp)
80002244: e42e         	sd	a1, 0x8(sp)
80002246: e82a         	sd	a0, 0x10(sp)
80002248: f02e         	sd	a1, 0x20(sp)
8000224a: 4501         	li	a0, 0x0
8000224c: ec2a         	sd	a0, 0x18(sp)
8000224e: a009         	j	0x80002250 <lab5_kernel_task3::busy_mix::hc0542bcceab4471e+0x10>
80002250: 65a2         	ld	a1, 0x8(sp)
80002252: 6562         	ld	a0, 0x18(sp)
80002254: 00b56b63     	bltu	a0, a1, 0x8000226a <lab5_kernel_task3::busy_mix::hc0542bcceab4471e+0x2a>
80002258: a009         	j	0x8000225a <lab5_kernel_task3::busy_mix::hc0542bcceab4471e+0x1a>
8000225a: 6542         	ld	a0, 0x10(sp)
8000225c: ffffe097     	auipc	ra, 0xffffe
80002260: ece080e7     	jalr	-0x132(ra) <core::hint::black_box::h1d5b7ea5d72894a5>
80002264: 60e6         	ld	ra, 0x58(sp)
80002266: 6125         	addi	sp, sp, 0x60
80002268: 8082         	ret
8000226a: 6542         	ld	a0, 0x10(sp)
8000226c: f42a         	sd	a0, 0x28(sp)
8000226e: 459d         	li	a1, 0x7
80002270: da2e         	sw	a1, 0x34(sp)
80002272: ffffe097     	auipc	ra, 0xffffe
80002276: 096080e7     	jalr	0x96(ra) <core::intrinsics::rotate_left::h870f961987655293>
8000227a: 65e2         	ld	a1, 0x18(sp)

000000008000227c <.Lpcrel_hi113>:
8000227c: 00004617     	auipc	a2, 0x4
80002280: 86c60613     	addi	a2, a2, -0x794
80002284: 6210         	ld	a2, 0x0(a2)
80002286: 8db1         	xor	a1, a1, a2
80002288: fc2a         	sd	a0, 0x38(sp)
8000228a: e0ae         	sd	a1, 0x40(sp)
8000228c: 952e         	add	a0, a0, a1
8000228e: e4aa         	sd	a0, 0x48(sp)

0000000080002290 <.Lpcrel_hi114>:
80002290: 00004597     	auipc	a1, 0x4
80002294: 86858593     	addi	a1, a1, -0x798
80002298: 618c         	ld	a1, 0x0(a1)
8000229a: e8ae         	sd	a1, 0x50(sp)
8000229c: 02b50533     	mul	a0, a0, a1
800022a0: e82a         	sd	a0, 0x10(sp)
800022a2: 65e2         	ld	a1, 0x18(sp)
800022a4: 00158513     	addi	a0, a1, 0x1
800022a8: e02a         	sd	a0, 0x0(sp)
800022aa: 00b56663     	bltu	a0, a1, 0x800022b6 <.Lpcrel_hi115>
800022ae: a009         	j	0x800022b0 <.Lpcrel_hi114+0x20>
800022b0: 6502         	ld	a0, 0x0(sp)
800022b2: ec2a         	sd	a0, 0x18(sp)
800022b4: bf71         	j	0x80002250 <lab5_kernel_task3::busy_mix::hc0542bcceab4471e+0x10>

00000000800022b6 <.Lpcrel_hi115>:
800022b6: 00004517     	auipc	a0, 0x4
800022ba: f1a50513     	addi	a0, a0, -0xe6
800022be: 00003097     	auipc	ra, 0x3
800022c2: a38080e7     	jalr	-0x5c8(ra) <core::panicking::panic_const::panic_const_add_overflow::h67cba067093910f8>

00000000800022c6 <lab5_kernel_task3::clear_bss::hd75c0529629f22fd>:
800022c6: 715d         	addi	sp, sp, -0x50
800022c8: e486         	sd	ra, 0x48(sp)

00000000800022ca <.Lpcrel_hi116>:
800022ca: 00005517     	auipc	a0, 0x5
800022ce: b3650593     	addi	a1, a0, -0x4ca
800022d2: ec2e         	sd	a1, 0x18(sp)

00000000800022d4 <.Lpcrel_hi117>:
800022d4: 00015517     	auipc	a0, 0x15
800022d8: ca450513     	addi	a0, a0, -0x35c
800022dc: f02a         	sd	a0, 0x20(sp)
800022de: 04b56d63     	bltu	a0, a1, 0x80002338 <.Lpcrel_hi121>
800022e2: a009         	j	0x800022e4 <.Lpcrel_hi118>

00000000800022e4 <.Lpcrel_hi118>:
800022e4: 00005517     	auipc	a0, 0x5
800022e8: b1c50513     	addi	a0, a0, -0x4e4
800022ec: e02a         	sd	a0, 0x0(sp)
800022ee: f82a         	sd	a0, 0x30(sp)
800022f0: 4581         	li	a1, 0x0
800022f2: e42e         	sd	a1, 0x8(sp)
800022f4: 02b10fa3     	sb	a1, 0x3f(sp)

00000000800022f8 <.Lpcrel_hi119>:
800022f8: 00015597     	auipc	a1, 0x15
800022fc: c8058593     	addi	a1, a1, -0x380
80002300: 8d89         	sub	a1, a1, a0
80002302: e82e         	sd	a1, 0x10(sp)
80002304: e0ae         	sd	a1, 0x40(sp)
80002306: 0015b593     	seqz	a1, a1
8000230a: 02b107a3     	sb	a1, 0x2f(sp)
8000230e: 02f14603     	lbu	a2, 0x2f(sp)

0000000080002312 <.Lpcrel_hi120>:
80002312: 00004597     	auipc	a1, 0x4
80002316: fa658693     	addi	a3, a1, -0x5a
8000231a: 4585         	li	a1, 0x1
8000231c: ffffe097     	auipc	ra, 0xffffe
80002320: 00c080e7     	jalr	0xc(ra) <core::ptr::write_bytes::precondition_check::hb4ff0c422006d0e5>
80002324: 6502         	ld	a0, 0x0(sp)
80002326: 65a2         	ld	a1, 0x8(sp)
80002328: 6642         	ld	a2, 0x10(sp)
8000232a: 00003097     	auipc	ra, 0x3
8000232e: be6080e7     	jalr	-0x41a(ra) <memset>
80002332: 60a6         	ld	ra, 0x48(sp)
80002334: 6161         	addi	sp, sp, 0x50
80002336: 8082         	ret

0000000080002338 <.Lpcrel_hi121>:
80002338: 00004517     	auipc	a0, 0x4
8000233c: eb050513     	addi	a0, a0, -0x150
80002340: 00003097     	auipc	ra, 0x3
80002344: 9f2080e7     	jalr	-0x60e(ra) <core::panicking::panic_const::panic_const_sub_overflow::hccc965ba9198de7c>

0000000080002348 <lab5_kernel_task3::hart_main::h2f45c3cd655a24ff>:
80002348: 7145         	addi	sp, sp, -0x1d0
8000234a: e786         	sd	ra, 0x1c8(sp)
8000234c: ec2e         	sd	a1, 0x18(sp)
8000234e: 862e         	mv	a2, a1
80002350: e832         	sd	a2, 0x10(sp)
80002352: f02a         	sd	a0, 0x20(sp)
80002354: 1ab10fa3     	sb	a1, 0x1bf(sp)
80002358: 00000097     	auipc	ra, 0x0
8000235c: 96c080e7     	jalr	-0x694(ra) <lab5_kernel_task3::read_sp::hebd5d816062a978b>
80002360: f42a         	sd	a0, 0x28(sp)
80002362: 7502         	ld	a0, 0x20(sp)
80002364: fffff097     	auipc	ra, 0xfffff
80002368: e0a080e7     	jalr	-0x1f6(ra) <lab5_kernel_task3::mark_hart_initialized::hc55829f8c9918fcf>
8000236c: 65e2         	ld	a1, 0x18(sp)
8000236e: f82a         	sd	a0, 0x30(sp)
80002370: e991         	bnez	a1, 0x80002384 <.Lpcrel_hi123>
80002372: a009         	j	0x80002374 <.Lpcrel_hi122>

0000000080002374 <.Lpcrel_hi122>:
80002374: 00004517     	auipc	a0, 0x4
80002378: e8c50513     	addi	a0, a0, -0x174
8000237c: f0aa         	sd	a0, 0x60(sp)
8000237e: 4525         	li	a0, 0x9
80002380: f4aa         	sd	a0, 0x68(sp)
80002382: a809         	j	0x80002394 <.Lpcrel_hi123+0x10>

0000000080002384 <.Lpcrel_hi123>:
80002384: 00004517     	auipc	a0, 0x4
80002388: e8550513     	addi	a0, a0, -0x17b
8000238c: f0aa         	sd	a0, 0x60(sp)
8000238e: 451d         	li	a0, 0x7
80002390: f4aa         	sd	a0, 0x68(sp)
80002392: a009         	j	0x80002394 <.Lpcrel_hi123+0x10>
80002394: 1008         	addi	a0, sp, 0x20
80002396: fc2a         	sd	a0, 0x38(sp)
80002398: 1088         	addi	a0, sp, 0x60
8000239a: e0aa         	sd	a0, 0x40(sp)
8000239c: 1028         	addi	a0, sp, 0x28
8000239e: e4aa         	sd	a0, 0x48(sp)
800023a0: 1808         	addi	a0, sp, 0x30
800023a2: e8aa         	sd	a0, 0x50(sp)

00000000800023a4 <.Lpcrel_hi124>:
800023a4: 00003517     	auipc	a0, 0x3
800023a8: 76c50513     	addi	a0, a0, 0x76c
800023ac: ecaa         	sd	a0, 0x58(sp)
800023ae: 75e2         	ld	a1, 0x38(sp)
800023b0: 0188         	addi	a0, sp, 0xc0
800023b2: 00000097     	auipc	ra, 0x0
800023b6: 7f6080e7     	jalr	0x7f6(ra) <core::fmt::rt::Argument::new_display::h26a32fde33194792>
800023ba: 6586         	ld	a1, 0x40(sp)
800023bc: 0988         	addi	a0, sp, 0xd0
800023be: 00001097     	auipc	ra, 0x1
800023c2: 80c080e7     	jalr	-0x7f4(ra) <core::fmt::rt::Argument::new_display::h343420e83d4da8a8>
800023c6: 65a6         	ld	a1, 0x48(sp)
800023c8: 1188         	addi	a0, sp, 0xe0
800023ca: 00001097     	auipc	ra, 0x1
800023ce: 888080e7     	jalr	-0x778(ra) <core::fmt::rt::Argument::new_lower_hex::hc6569d0de85acebc>
800023d2: 65c6         	ld	a1, 0x50(sp)
800023d4: 1988         	addi	a0, sp, 0xf0
800023d6: 00000097     	auipc	ra, 0x0
800023da: 7d2080e7     	jalr	0x7d2(ra) <core::fmt::rt::Argument::new_display::h26a32fde33194792>
800023de: 65e6         	ld	a1, 0x58(sp)
800023e0: 0208         	addi	a0, sp, 0x100
800023e2: 00000097     	auipc	ra, 0x0
800023e6: 7c6080e7     	jalr	0x7c6(ra) <core::fmt::rt::Argument::new_display::h26a32fde33194792>
800023ea: 652e         	ld	a0, 0xc8(sp)
800023ec: fcaa         	sd	a0, 0x78(sp)
800023ee: 650e         	ld	a0, 0xc0(sp)
800023f0: f8aa         	sd	a0, 0x70(sp)
800023f2: 656e         	ld	a0, 0xd8(sp)
800023f4: e52a         	sd	a0, 0x88(sp)
800023f6: 654e         	ld	a0, 0xd0(sp)
800023f8: e12a         	sd	a0, 0x80(sp)
800023fa: 752e         	ld	a0, 0xe8(sp)
800023fc: ed2a         	sd	a0, 0x98(sp)
800023fe: 750e         	ld	a0, 0xe0(sp)
80002400: e92a         	sd	a0, 0x90(sp)
80002402: 756e         	ld	a0, 0xf8(sp)
80002404: f52a         	sd	a0, 0xa8(sp)
80002406: 754e         	ld	a0, 0xf0(sp)
80002408: f12a         	sd	a0, 0xa0(sp)
8000240a: 6532         	ld	a0, 0x108(sp)
8000240c: fd2a         	sd	a0, 0xb8(sp)
8000240e: 6512         	ld	a0, 0x100(sp)
80002410: f92a         	sd	a0, 0xb0(sp)

0000000080002412 <.Lpcrel_hi125>:
80002412: 00004517     	auipc	a0, 0x4
80002416: dfe50513     	addi	a0, a0, -0x202
8000241a: 188c         	addi	a1, sp, 0x70
8000241c: ffffe097     	auipc	ra, 0xffffe
80002420: e02080e7     	jalr	-0x1fe(ra) <core::fmt::Arguments::new::h0a9f9ed8a3e87766>
80002424: ffffe097     	auipc	ra, 0xffffe
80002428: c64080e7     	jalr	-0x39c(ra) <lab5_kernel_task3::console::print::h4512414521490714>
8000242c: 6542         	ld	a0, 0x10(sp)
8000242e: 8905         	andi	a0, a0, 0x1
80002430: e119         	bnez	a0, 0x80002436 <.Lpcrel_hi125+0x24>
80002432: a009         	j	0x80002434 <.Lpcrel_hi125+0x22>
80002434: a011         	j	0x80002438 <.Lpcrel_hi126>
80002436: a821         	j	0x8000244e <.Lpcrel_hi127>

0000000080002438 <.Lpcrel_hi126>:
80002438: 00015517     	auipc	a0, 0x15
8000243c: a9050513     	addi	a0, a0, -0x570
80002440: 4589         	li	a1, 0x2
80002442: 00001097     	auipc	ra, 0x1
80002446: d9e080e7     	jalr	-0x262(ra) <core::sync::atomic::AtomicBool::load::h61d87e6f66d1143e>
8000244a: e115         	bnez	a0, 0x8000246e <.Lpcrel_hi127+0x20>
8000244c: a831         	j	0x80002468 <.Lpcrel_hi127+0x1a>

000000008000244e <.Lpcrel_hi127>:
8000244e: 00015517     	auipc	a0, 0x15
80002452: 9d250513     	addi	a0, a0, -0x62e
80002456: 4589         	li	a1, 0x2
80002458: 00001097     	auipc	ra, 0x1
8000245c: f9e080e7     	jalr	-0x62(ra) <core::sync::atomic::AtomicUsize::load::h01085caffe0799e0>
80002460: 4591         	li	a1, 0x4
80002462: 0eb56563     	bltu	a0, a1, 0x8000254c <.Lpcrel_hi132+0x1c>
80002466: a091         	j	0x800024aa <.Lpcrel_hi129>
80002468: 0100000f     	fence	w, 0
8000246c: b7f1         	j	0x80002438 <.Lpcrel_hi126>
8000246e: 100c         	addi	a1, sp, 0x20
80002470: e3ae         	sd	a1, 0x1c0(sp)
80002472: 1328         	addi	a0, sp, 0x1a8
80002474: 00000097     	auipc	ra, 0x0
80002478: 734080e7     	jalr	0x734(ra) <core::fmt::rt::Argument::new_display::h26a32fde33194792>
8000247c: 755a         	ld	a0, 0x1b0(sp)
8000247e: f32a         	sd	a0, 0x1a0(sp)
80002480: 753a         	ld	a0, 0x1a8(sp)
80002482: ef2a         	sd	a0, 0x198(sp)

0000000080002484 <.Lpcrel_hi128>:
80002484: 00003517     	auipc	a0, 0x3
80002488: 13250513     	addi	a0, a0, 0x132
8000248c: 0b2c         	addi	a1, sp, 0x198
8000248e: ffffe097     	auipc	ra, 0xffffe
80002492: e1c080e7     	jalr	-0x1e4(ra) <core::fmt::Arguments::new::hab6d5879b5aa179d>
80002496: ffffe097     	auipc	ra, 0xffffe
8000249a: bf2080e7     	jalr	-0x40e(ra) <lab5_kernel_task3::console::print::h4512414521490714>
8000249e: a009         	j	0x800024a0 <.Lpcrel_hi128+0x1c>
800024a0: 7502         	ld	a0, 0x20(sp)
800024a2: fffff097     	auipc	ra, 0xfffff
800024a6: 8de080e7     	jalr	-0x722(ra) <lab5_kernel_task3::scheduler_loop::h81a180ba088654d4>

00000000800024aa <.Lpcrel_hi129>:
800024aa: 00015517     	auipc	a0, 0x15
800024ae: a1e50513     	addi	a0, a0, -0x5e2
800024b2: 4605         	li	a2, 0x1
800024b4: 85b2         	mv	a1, a2
800024b6: 00001097     	auipc	ra, 0x1
800024ba: f24080e7     	jalr	-0xdc(ra) <core::sync::atomic::AtomicBool::store::h599594f597f0706b>

00000000800024be <.Lpcrel_hi130>:
800024be: 00015517     	auipc	a0, 0x15
800024c2: 96250513     	addi	a0, a0, -0x69e
800024c6: 4589         	li	a1, 0x2
800024c8: e42e         	sd	a1, 0x8(sp)
800024ca: 00001097     	auipc	ra, 0x1
800024ce: f2c080e7     	jalr	-0xd4(ra) <core::sync::atomic::AtomicUsize::load::h01085caffe0799e0>
800024d2: 65a2         	ld	a1, 0x8(sp)
800024d4: f62a         	sd	a0, 0x128(sp)

00000000800024d6 <.Lpcrel_hi131>:
800024d6: 00015517     	auipc	a0, 0x15
800024da: 94250513     	addi	a0, a0, -0x6be
800024de: 00001097     	auipc	ra, 0x1
800024e2: f18080e7     	jalr	-0xe8(ra) <core::sync::atomic::AtomicUsize::load::h01085caffe0799e0>
800024e6: fa2a         	sd	a0, 0x130(sp)
800024e8: 1008         	addi	a0, sp, 0x20
800024ea: ea2a         	sd	a0, 0x110(sp)
800024ec: 1228         	addi	a0, sp, 0x128
800024ee: ee2a         	sd	a0, 0x118(sp)
800024f0: 1a08         	addi	a0, sp, 0x130
800024f2: f22a         	sd	a0, 0x120(sp)
800024f4: 65d2         	ld	a1, 0x110(sp)
800024f6: 12a8         	addi	a0, sp, 0x168
800024f8: 00000097     	auipc	ra, 0x0
800024fc: 6b0080e7     	jalr	0x6b0(ra) <core::fmt::rt::Argument::new_display::h26a32fde33194792>
80002500: 65f2         	ld	a1, 0x118(sp)
80002502: 1aa8         	addi	a0, sp, 0x178
80002504: 00000097     	auipc	ra, 0x0
80002508: 6a4080e7     	jalr	0x6a4(ra) <core::fmt::rt::Argument::new_display::h26a32fde33194792>
8000250c: 7592         	ld	a1, 0x120(sp)
8000250e: 0328         	addi	a0, sp, 0x188
80002510: 00000097     	auipc	ra, 0x0
80002514: 742080e7     	jalr	0x742(ra) <core::fmt::rt::Argument::new_lower_hex::hc6569d0de85acebc>
80002518: 7556         	ld	a0, 0x170(sp)
8000251a: e2aa         	sd	a0, 0x140(sp)
8000251c: 7536         	ld	a0, 0x168(sp)
8000251e: fe2a         	sd	a0, 0x138(sp)
80002520: 651a         	ld	a0, 0x180(sp)
80002522: eaaa         	sd	a0, 0x150(sp)
80002524: 7576         	ld	a0, 0x178(sp)
80002526: e6aa         	sd	a0, 0x148(sp)
80002528: 655a         	ld	a0, 0x190(sp)
8000252a: f2aa         	sd	a0, 0x160(sp)
8000252c: 653a         	ld	a0, 0x188(sp)
8000252e: eeaa         	sd	a0, 0x158(sp)

0000000080002530 <.Lpcrel_hi132>:
80002530: 00004517     	auipc	a0, 0x4
80002534: d1e50513     	addi	a0, a0, -0x2e2
80002538: 1a2c         	addi	a1, sp, 0x138
8000253a: ffffe097     	auipc	ra, 0xffffe
8000253e: cda080e7     	jalr	-0x326(ra) <core::fmt::Arguments::new::h05a79c67499c574b>
80002542: ffffe097     	auipc	ra, 0xffffe
80002546: b46080e7     	jalr	-0x4ba(ra) <lab5_kernel_task3::console::print::h4512414521490714>
8000254a: bf99         	j	0x800024a0 <.Lpcrel_hi128+0x1c>
8000254c: 0100000f     	fence	w, 0
80002550: bdfd         	j	0x8000244e <.Lpcrel_hi127>

0000000080002552 <lab5_kernel_task3::pass_fail::h08854fc3445c59b2>:
80002552: 1101         	addi	sp, sp, -0x20
80002554: 00a10fa3     	sb	a0, 0x1f(sp)
80002558: e911         	bnez	a0, 0x8000256c <.Lpcrel_hi134>
8000255a: a009         	j	0x8000255c <.Lpcrel_hi133>

000000008000255c <.Lpcrel_hi133>:
8000255c: 00004517     	auipc	a0, 0x4
80002560: d3750513     	addi	a0, a0, -0x2c9
80002564: e42a         	sd	a0, 0x8(sp)
80002566: 4511         	li	a0, 0x4
80002568: e82a         	sd	a0, 0x10(sp)
8000256a: a809         	j	0x8000257c <.Lpcrel_hi134+0x10>

000000008000256c <.Lpcrel_hi134>:
8000256c: 00004517     	auipc	a0, 0x4
80002570: d2b50513     	addi	a0, a0, -0x2d5
80002574: e42a         	sd	a0, 0x8(sp)
80002576: 4511         	li	a0, 0x4
80002578: e82a         	sd	a0, 0x10(sp)
8000257a: a009         	j	0x8000257c <.Lpcrel_hi134+0x10>
8000257c: 6522         	ld	a0, 0x8(sp)
8000257e: 65c2         	ld	a1, 0x10(sp)
80002580: 6105         	addi	sp, sp, 0x20
80002582: 8082         	ret

0000000080002584 <lab5_kernel_task3::qemu_exit::h0f0a3b696d7196c5>:
80002584: 1101         	addi	sp, sp, -0x20
80002586: ec06         	sd	ra, 0x18(sp)
80002588: 85aa         	mv	a1, a0
8000258a: e42e         	sd	a1, 0x8(sp)
8000258c: ca2a         	sw	a0, 0x14(sp)
8000258e: c919         	beqz	a0, 0x800025a4 <lab5_kernel_task3::qemu_exit::h0f0a3b696d7196c5+0x20>
80002590: a009         	j	0x80002592 <lab5_kernel_task3::qemu_exit::h0f0a3b696d7196c5+0xe>
80002592: 6522         	ld	a0, 0x8(sp)
80002594: 0105151b     	slliw	a0, a0, 0x10
80002598: 658d         	lui	a1, 0x3
8000259a: 33358593     	addi	a1, a1, 0x333
8000259e: 8d4d         	or	a0, a0, a1
800025a0: c82a         	sw	a0, 0x10(sp)
800025a2: a031         	j	0x800025ae <lab5_kernel_task3::qemu_exit::h0f0a3b696d7196c5+0x2a>
800025a4: 6515         	lui	a0, 0x5
800025a6: 55550513     	addi	a0, a0, 0x555
800025aa: c82a         	sw	a0, 0x10(sp)
800025ac: a009         	j	0x800025ae <lab5_kernel_task3::qemu_exit::h0f0a3b696d7196c5+0x2a>
800025ae: 45c2         	lw	a1, 0x10(sp)

00000000800025b0 <.Lpcrel_hi135>:
800025b0: 00004517     	auipc	a0, 0x4
800025b4: cf050613     	addi	a2, a0, -0x310
800025b8: 00100537     	lui	a0, 0x100
800025bc: 00000097     	auipc	ra, 0x0
800025c0: 34a080e7     	jalr	0x34a(ra) <core::ptr::write_volatile::h11db5a9e258656ad>
800025c4: a009         	j	0x800025c6 <.Lpcrel_hi135+0x16>
800025c6: 0100000f     	fence	w, 0
800025ca: bff5         	j	0x800025c6 <.Lpcrel_hi135+0x16>

00000000800025cc <start_primary>:
800025cc: db010113     	addi	sp, sp, -0x250
800025d0: 24113423     	sd	ra, 0x248(sp)
800025d4: 00000097     	auipc	ra, 0x0
800025d8: cf2080e7     	jalr	-0x30e(ra) <lab5_kernel_task3::clear_bss::hd75c0529629f22fd>
800025dc: fffff097     	auipc	ra, 0xfffff
800025e0: 552080e7     	jalr	0x552(ra) <lab5_kernel_task3::initialize_global_state::h0e7b81437a15bf46>
800025e4: ffffe097     	auipc	ra, 0xffffe
800025e8: 78c080e7     	jalr	0x78c(ra) <lab5_kernel_task3::configure_pmp::h4324ee0ee8a2b134>

00000000800025ec <.Lpcrel_hi136>:
800025ec: 00004517     	auipc	a0, 0x4
800025f0: ce450513     	addi	a0, a0, -0x31c
800025f4: 45e9         	li	a1, 0x1a
800025f6: ffffe097     	auipc	ra, 0xffffe
800025fa: ee8080e7     	jalr	-0x118(ra) <core::fmt::Arguments::from_str::hc9d9dad7d734f0db>
800025fe: ffffe097     	auipc	ra, 0xffffe
80002602: a8a080e7     	jalr	-0x576(ra) <lab5_kernel_task3::console::print::h4512414521490714>

0000000080002606 <.Lpcrel_hi137>:
80002606: 00004517     	auipc	a0, 0x4
8000260a: ce450513     	addi	a0, a0, -0x31c
8000260e: 03400593     	li	a1, 0x34
80002612: ffffe097     	auipc	ra, 0xffffe
80002616: ecc080e7     	jalr	-0x134(ra) <core::fmt::Arguments::from_str::hc9d9dad7d734f0db>
8000261a: ffffe097     	auipc	ra, 0xffffe
8000261e: a6e080e7     	jalr	-0x592(ra) <lab5_kernel_task3::console::print::h4512414521490714>

0000000080002622 <.Lpcrel_hi138>:
80002622: 00003517     	auipc	a0, 0x3
80002626: 4ee50513     	addi	a0, a0, 0x4ee
8000262a: f02a         	sd	a0, 0x20(sp)

000000008000262c <.Lpcrel_hi139>:
8000262c: 00003517     	auipc	a0, 0x3
80002630: 4ac50513     	addi	a0, a0, 0x4ac
80002634: f42a         	sd	a0, 0x28(sp)

0000000080002636 <.Lpcrel_hi140>:
80002636: 00003517     	auipc	a0, 0x3
8000263a: 4d250513     	addi	a0, a0, 0x4d2
8000263e: f82a         	sd	a0, 0x30(sp)

0000000080002640 <.Lpcrel_hi141>:
80002640: 00003517     	auipc	a0, 0x3
80002644: 4d850513     	addi	a0, a0, 0x4d8
80002648: fc2a         	sd	a0, 0x38(sp)
8000264a: 7582         	ld	a1, 0x20(sp)
8000264c: 0108         	addi	a0, sp, 0x80
8000264e: 00000097     	auipc	ra, 0x0
80002652: 55a080e7     	jalr	0x55a(ra) <core::fmt::rt::Argument::new_display::h26a32fde33194792>
80002656: 75a2         	ld	a1, 0x28(sp)
80002658: 0908         	addi	a0, sp, 0x90
8000265a: 00000097     	auipc	ra, 0x0
8000265e: 54e080e7     	jalr	0x54e(ra) <core::fmt::rt::Argument::new_display::h26a32fde33194792>
80002662: 75c2         	ld	a1, 0x30(sp)
80002664: 1108         	addi	a0, sp, 0xa0
80002666: 00000097     	auipc	ra, 0x0
8000266a: 542080e7     	jalr	0x542(ra) <core::fmt::rt::Argument::new_display::h26a32fde33194792>
8000266e: 75e2         	ld	a1, 0x38(sp)
80002670: 1908         	addi	a0, sp, 0xb0
80002672: 00000097     	auipc	ra, 0x0
80002676: 536080e7     	jalr	0x536(ra) <core::fmt::rt::Argument::new_display::h26a32fde33194792>
8000267a: 652a         	ld	a0, 0x88(sp)
8000267c: e4aa         	sd	a0, 0x48(sp)
8000267e: 650a         	ld	a0, 0x80(sp)
80002680: e0aa         	sd	a0, 0x40(sp)
80002682: 656a         	ld	a0, 0x98(sp)
80002684: ecaa         	sd	a0, 0x58(sp)
80002686: 654a         	ld	a0, 0x90(sp)
80002688: e8aa         	sd	a0, 0x50(sp)
8000268a: 752a         	ld	a0, 0xa8(sp)
8000268c: f4aa         	sd	a0, 0x68(sp)
8000268e: 750a         	ld	a0, 0xa0(sp)
80002690: f0aa         	sd	a0, 0x60(sp)
80002692: 756a         	ld	a0, 0xb8(sp)
80002694: fcaa         	sd	a0, 0x78(sp)
80002696: 754a         	ld	a0, 0xb0(sp)
80002698: f8aa         	sd	a0, 0x70(sp)

000000008000269a <.Lpcrel_hi142>:
8000269a: 00003517     	auipc	a0, 0x3
8000269e: f3e50513     	addi	a0, a0, -0xc2
800026a2: 008c         	addi	a1, sp, 0x40
800026a4: ffffe097     	auipc	ra, 0xffffe
800026a8: ba2080e7     	jalr	-0x45e(ra) <core::fmt::Arguments::new::h3d40072ac7227a23>
800026ac: ffffe097     	auipc	ra, 0xffffe
800026b0: 9dc080e7     	jalr	-0x624(ra) <lab5_kernel_task3::console::print::h4512414521490714>

00000000800026b4 <.Lpcrel_hi143>:
800026b4: 00004517     	auipc	a0, 0x4
800026b8: c6a50513     	addi	a0, a0, -0x396
800026bc: 05200593     	li	a1, 0x52
800026c0: ffffe097     	auipc	ra, 0xffffe
800026c4: e1e080e7     	jalr	-0x1e2(ra) <core::fmt::Arguments::from_str::hc9d9dad7d734f0db>
800026c8: ffffe097     	auipc	ra, 0xffffe
800026cc: 9c0080e7     	jalr	-0x640(ra) <lab5_kernel_task3::console::print::h4512414521490714>
800026d0: 4501         	li	a0, 0x0
800026d2: 45a1         	li	a1, 0x8
800026d4: 00000097     	auipc	ra, 0x0
800026d8: 7d6080e7     	jalr	0x7d6(ra) <_$LT$I$u20$as$u20$core..iter..traits..collect..IntoIterator$GT$::into_iter::h9f015da8b0ccb3ff>
800026dc: e1aa         	sd	a0, 0xc0(sp)
800026de: e5ae         	sd	a1, 0xc8(sp)
800026e0: a009         	j	0x800026e2 <.Lpcrel_hi143+0x2e>
800026e2: 0188         	addi	a0, sp, 0xc0
800026e4: 00000097     	auipc	ra, 0x0
800026e8: 7b2080e7     	jalr	0x7b2(ra) <core::iter::range::_$LT$impl$u20$core..iter..traits..iterator..Iterator$u20$for$u20$core..ops..range..Range$LT$A$GT$$GT$::next::hdcf0cc9aae1cf88d>
800026ec: e9aa         	sd	a0, 0xd0(sp)
800026ee: edae         	sd	a1, 0xd8(sp)
800026f0: 654e         	ld	a0, 0xd0(sp)
800026f2: 8905         	andi	a0, a0, 0x1
800026f4: c909         	beqz	a0, 0x80002706 <.Lpcrel_hi143+0x52>
800026f6: a009         	j	0x800026f8 <.Lpcrel_hi143+0x44>
800026f8: 656e         	ld	a0, 0xd8(sp)
800026fa: f1aa         	sd	a0, 0xe0(sp)
800026fc: 750e         	ld	a0, 0xe0(sp)
800026fe: 45a1         	li	a1, 0x8
80002700: 00b56d63     	bltu	a0, a1, 0x8000271a <.Lpcrel_hi143+0x66>
80002704: a289         	j	0x80002846 <.Lpcrel_hi145+0x1c>
80002706: fffff097     	auipc	ra, 0xfffff
8000270a: 534080e7     	jalr	0x534(ra) <lab5_kernel_task3::release_secondary_harts::ha4da04bde8370993>
8000270e: 4501         	li	a0, 0x0
80002710: 4585         	li	a1, 0x1
80002712: 00000097     	auipc	ra, 0x0
80002716: c36080e7     	jalr	-0x3ca(ra) <lab5_kernel_task3::hart_main::h2f45c3cd655a24ff>
8000271a: 750e         	ld	a0, 0xe0(sp)
8000271c: 00351593     	slli	a1, a0, 0x3
80002720: 051a         	slli	a0, a0, 0x6
80002722: 40b505b3     	sub	a1, a0, a1

0000000080002726 <.Lpcrel_hi144>:
80002726: 00004517     	auipc	a0, 0x4
8000272a: 85a50513     	addi	a0, a0, -0x7a6
8000272e: 952e         	add	a0, a0, a1
80002730: 790c         	ld	a1, 0x30(a0)
80002732: ee2e         	sd	a1, 0x118(sp)
80002734: 750c         	ld	a1, 0x28(a0)
80002736: ea2e         	sd	a1, 0x110(sp)
80002738: 710c         	ld	a1, 0x20(a0)
8000273a: e62e         	sd	a1, 0x108(sp)
8000273c: 6d0c         	ld	a1, 0x18(a0)
8000273e: e22e         	sd	a1, 0x100(sp)
80002740: 690c         	ld	a1, 0x10(a0)
80002742: fdae         	sd	a1, 0xf8(sp)
80002744: 650c         	ld	a1, 0x8(a0)
80002746: f9ae         	sd	a1, 0xf0(sp)
80002748: 6108         	ld	a0, 0x0(a0)
8000274a: f5aa         	sd	a0, 0xe8(sp)
8000274c: 0a08         	addi	a0, sp, 0x110
8000274e: e82a         	sd	a0, 0x10(sp)
80002750: 0228         	addi	a0, sp, 0x108
80002752: ec2a         	sd	a0, 0x18(sp)
80002754: 0208         	addi	a0, sp, 0x100
80002756: e42a         	sd	a0, 0x8(sp)
80002758: 19a8         	addi	a0, sp, 0xf8
8000275a: e02a         	sd	a0, 0x0(sp)
8000275c: 11814503     	lbu	a0, 0x118(sp)
80002760: 00000097     	auipc	ra, 0x0
80002764: 972080e7     	jalr	-0x68e(ra) <lab5_kernel_task3::JobClass::as_str::h9231136219e7239a>
80002768: 6682         	ld	a3, 0x0(sp)
8000276a: 6622         	ld	a2, 0x8(sp)
8000276c: 87aa         	mv	a5, a0
8000276e: 6542         	ld	a0, 0x10(sp)
80002770: 872e         	mv	a4, a1
80002772: 65e2         	ld	a1, 0x18(sp)
80002774: eebe         	sd	a5, 0x158(sp)
80002776: f2ba         	sd	a4, 0x160(sp)
80002778: 1198         	addi	a4, sp, 0xe0
8000277a: f23a         	sd	a4, 0x120(sp)
8000277c: f636         	sd	a3, 0x128(sp)
8000277e: 11b4         	addi	a3, sp, 0xe8
80002780: fa36         	sd	a3, 0x130(sp)
80002782: 0ab4         	addi	a3, sp, 0x158
80002784: fe36         	sd	a3, 0x138(sp)
80002786: e2b2         	sd	a2, 0x140(sp)
80002788: e6ae         	sd	a1, 0x148(sp)
8000278a: eaaa         	sd	a0, 0x150(sp)
8000278c: 7592         	ld	a1, 0x120(sp)
8000278e: 0ba8         	addi	a0, sp, 0x1d8
80002790: 00000097     	auipc	ra, 0x0
80002794: 418080e7     	jalr	0x418(ra) <core::fmt::rt::Argument::new_display::h26a32fde33194792>
80002798: 75b2         	ld	a1, 0x128(sp)
8000279a: 13a8         	addi	a0, sp, 0x1e8
8000279c: 00000097     	auipc	ra, 0x0
800027a0: 472080e7     	jalr	0x472(ra) <core::fmt::rt::Argument::new_display::hd6d864d0c34cbb40>
800027a4: 75d2         	ld	a1, 0x130(sp)
800027a6: 1ba8         	addi	a0, sp, 0x1f8
800027a8: 00000097     	auipc	ra, 0x0
800027ac: 422080e7     	jalr	0x422(ra) <core::fmt::rt::Argument::new_display::h343420e83d4da8a8>
800027b0: 75f2         	ld	a1, 0x138(sp)
800027b2: 0428         	addi	a0, sp, 0x208
800027b4: 00000097     	auipc	ra, 0x0
800027b8: 416080e7     	jalr	0x416(ra) <core::fmt::rt::Argument::new_display::h343420e83d4da8a8>
800027bc: 6596         	ld	a1, 0x140(sp)
800027be: 0c28         	addi	a0, sp, 0x218
800027c0: 00000097     	auipc	ra, 0x0
800027c4: 3e8080e7     	jalr	0x3e8(ra) <core::fmt::rt::Argument::new_display::h26a32fde33194792>
800027c8: 65b6         	ld	a1, 0x148(sp)
800027ca: 1428         	addi	a0, sp, 0x228
800027cc: 00000097     	auipc	ra, 0x0
800027d0: 3dc080e7     	jalr	0x3dc(ra) <core::fmt::rt::Argument::new_display::h26a32fde33194792>
800027d4: 65d6         	ld	a1, 0x150(sp)
800027d6: 1c28         	addi	a0, sp, 0x238
800027d8: 00000097     	auipc	ra, 0x0
800027dc: 436080e7     	jalr	0x436(ra) <core::fmt::rt::Argument::new_display::hd6d864d0c34cbb40>
800027e0: 751e         	ld	a0, 0x1e0(sp)
800027e2: faaa         	sd	a0, 0x170(sp)
800027e4: 657e         	ld	a0, 0x1d8(sp)
800027e6: f6aa         	sd	a0, 0x168(sp)
800027e8: 755e         	ld	a0, 0x1f0(sp)
800027ea: e32a         	sd	a0, 0x180(sp)
800027ec: 753e         	ld	a0, 0x1e8(sp)
800027ee: feaa         	sd	a0, 0x178(sp)
800027f0: 20013503     	ld	a0, 0x200(sp)
800027f4: eb2a         	sd	a0, 0x190(sp)
800027f6: 757e         	ld	a0, 0x1f8(sp)
800027f8: e72a         	sd	a0, 0x188(sp)
800027fa: 21013503     	ld	a0, 0x210(sp)
800027fe: f32a         	sd	a0, 0x1a0(sp)
80002800: 20813503     	ld	a0, 0x208(sp)
80002804: ef2a         	sd	a0, 0x198(sp)
80002806: 22013503     	ld	a0, 0x220(sp)
8000280a: fb2a         	sd	a0, 0x1b0(sp)
8000280c: 21813503     	ld	a0, 0x218(sp)
80002810: f72a         	sd	a0, 0x1a8(sp)
80002812: 23013503     	ld	a0, 0x230(sp)
80002816: e3aa         	sd	a0, 0x1c0(sp)
80002818: 22813503     	ld	a0, 0x228(sp)
8000281c: ff2a         	sd	a0, 0x1b8(sp)
8000281e: 24013503     	ld	a0, 0x240(sp)
80002822: ebaa         	sd	a0, 0x1d0(sp)
80002824: 23813503     	ld	a0, 0x238(sp)
80002828: e7aa         	sd	a0, 0x1c8(sp)

000000008000282a <.Lpcrel_hi145>:
8000282a: 00003517     	auipc	a0, 0x3
8000282e: 96a50513     	addi	a0, a0, -0x696
80002832: 12ac         	addi	a1, sp, 0x168
80002834: ffffe097     	auipc	ra, 0xffffe
80002838: a62080e7     	jalr	-0x59e(ra) <core::fmt::Arguments::new::h9ae0a39989cfa6ec>
8000283c: ffffe097     	auipc	ra, 0xffffe
80002840: 84c080e7     	jalr	-0x7b4(ra) <lab5_kernel_task3::console::print::h4512414521490714>
80002844: bd79         	j	0x800026e2 <.Lpcrel_hi143+0x2e>
80002846: 750e         	ld	a0, 0xe0(sp)

0000000080002848 <.Lpcrel_hi146>:
80002848: 00004597     	auipc	a1, 0x4
8000284c: b2858613     	addi	a2, a1, -0x4d8
80002850: 45a1         	li	a1, 0x8
80002852: 00002097     	auipc	ra, 0x2
80002856: 4fe080e7     	jalr	0x4fe(ra) <core::panicking::panic_bounds_check::h6aaee0d15e0261eb>

000000008000285a <start_secondary>:
8000285a: 7159         	addi	sp, sp, -0x70
8000285c: f486         	sd	ra, 0x68(sp)
8000285e: e82a         	sd	a0, 0x10(sp)
80002860: 65c2         	ld	a1, 0x10(sp)
80002862: 450d         	li	a0, 0x3
80002864: 00b56d63     	bltu	a0, a1, 0x8000287e <start_secondary+0x24>
80002868: a009         	j	0x8000286a <start_secondary+0x10>
8000286a: ffffe097     	auipc	ra, 0xffffe
8000286e: 506080e7     	jalr	0x506(ra) <lab5_kernel_task3::configure_pmp::h4324ee0ee8a2b134>
80002872: 6542         	ld	a0, 0x10(sp)
80002874: 4581         	li	a1, 0x0
80002876: 00000097     	auipc	ra, 0x0
8000287a: ad2080e7     	jalr	-0x52e(ra) <lab5_kernel_task3::hart_main::h2f45c3cd655a24ff>
8000287e: 080c         	addi	a1, sp, 0x10
80002880: ecae         	sd	a1, 0x58(sp)

0000000080002882 <.Lpcrel_hi147>:
80002882: 00003517     	auipc	a0, 0x3
80002886: 28e50513     	addi	a0, a0, 0x28e
8000288a: e42a         	sd	a0, 0x8(sp)
8000288c: f0aa         	sd	a0, 0x60(sp)
8000288e: 1828         	addi	a0, sp, 0x38
80002890: 00000097     	auipc	ra, 0x0
80002894: 318080e7     	jalr	0x318(ra) <core::fmt::rt::Argument::new_display::h26a32fde33194792>
80002898: 65a2         	ld	a1, 0x8(sp)
8000289a: 00a8         	addi	a0, sp, 0x48
8000289c: 00000097     	auipc	ra, 0x0
800028a0: 30c080e7     	jalr	0x30c(ra) <core::fmt::rt::Argument::new_display::h26a32fde33194792>
800028a4: 6506         	ld	a0, 0x40(sp)
800028a6: f02a         	sd	a0, 0x20(sp)
800028a8: 7562         	ld	a0, 0x38(sp)
800028aa: ec2a         	sd	a0, 0x18(sp)
800028ac: 6546         	ld	a0, 0x50(sp)
800028ae: f82a         	sd	a0, 0x30(sp)
800028b0: 6526         	ld	a0, 0x48(sp)
800028b2: f42a         	sd	a0, 0x28(sp)

00000000800028b4 <.Lpcrel_hi148>:
800028b4: 00002517     	auipc	a0, 0x2
800028b8: 76650513     	addi	a0, a0, 0x766
800028bc: 082c         	addi	a1, sp, 0x18
800028be: ffffe097     	auipc	ra, 0xffffe
800028c2: 992080e7     	jalr	-0x66e(ra) <core::fmt::Arguments::new::h3fcf81b06dcbfaad>
800028c6: ffffd097     	auipc	ra, 0xffffd
800028ca: 7c2080e7     	jalr	0x7c2(ra) <lab5_kernel_task3::console::print::h4512414521490714>
800028ce: a009         	j	0x800028d0 <.Lpcrel_hi148+0x1c>
800028d0: 0100000f     	fence	w, 0
800028d4: bff5         	j	0x800028d0 <.Lpcrel_hi148+0x1c>

00000000800028d6 <core::ptr::read_volatile::h455e802862cc9396>:
800028d6: 7179         	addi	sp, sp, -0x30
800028d8: f406         	sd	ra, 0x28(sp)
800028da: e42e         	sd	a1, 0x8(sp)
800028dc: e82a         	sd	a0, 0x10(sp)
800028de: ec2a         	sd	a0, 0x18(sp)
800028e0: a009         	j	0x800028e2 <core::ptr::read_volatile::h455e802862cc9396+0xc>
800028e2: 6622         	ld	a2, 0x8(sp)
800028e4: 6542         	ld	a0, 0x10(sp)
800028e6: 4585         	li	a1, 0x1
800028e8: ffffe097     	auipc	ra, 0xffffe
800028ec: a98080e7     	jalr	-0x568(ra) <core::ptr::read_volatile::precondition_check::h149dc202cac1645d>
800028f0: a009         	j	0x800028f2 <core::ptr::read_volatile::h455e802862cc9396+0x1c>
800028f2: 6542         	ld	a0, 0x10(sp)
800028f4: 00054503     	lbu	a0, 0x0(a0)
800028f8: 02a103a3     	sb	a0, 0x27(sp)
800028fc: 02714503     	lbu	a0, 0x27(sp)
80002900: 70a2         	ld	ra, 0x28(sp)
80002902: 6145         	addi	sp, sp, 0x30
80002904: 8082         	ret

0000000080002906 <core::ptr::write_volatile::h11db5a9e258656ad>:
80002906: 7179         	addi	sp, sp, -0x30
80002908: f406         	sd	ra, 0x28(sp)
8000290a: e032         	sd	a2, 0x0(sp)
8000290c: e42a         	sd	a0, 0x8(sp)
8000290e: 862e         	mv	a2, a1
80002910: e832         	sd	a2, 0x10(sp)
80002912: ec2a         	sd	a0, 0x18(sp)
80002914: d22e         	sw	a1, 0x24(sp)
80002916: a009         	j	0x80002918 <core::ptr::write_volatile::h11db5a9e258656ad+0x12>
80002918: 6602         	ld	a2, 0x0(sp)
8000291a: 6522         	ld	a0, 0x8(sp)
8000291c: 4591         	li	a1, 0x4
8000291e: ffffe097     	auipc	ra, 0xffffe
80002922: a9e080e7     	jalr	-0x562(ra) <core::ptr::write_volatile::precondition_check::h534c43152ec8a749>
80002926: a009         	j	0x80002928 <core::ptr::write_volatile::h11db5a9e258656ad+0x22>
80002928: 6542         	ld	a0, 0x10(sp)
8000292a: 65a2         	ld	a1, 0x8(sp)
8000292c: c188         	sw	a0, 0x0(a1)
8000292e: 70a2         	ld	ra, 0x28(sp)
80002930: 6145         	addi	sp, sp, 0x30
80002932: 8082         	ret

0000000080002934 <core::ptr::write_volatile::ha889142a39010445>:
80002934: 7179         	addi	sp, sp, -0x30
80002936: f406         	sd	ra, 0x28(sp)
80002938: e032         	sd	a2, 0x0(sp)
8000293a: e42e         	sd	a1, 0x8(sp)
8000293c: e82a         	sd	a0, 0x10(sp)
8000293e: ec2a         	sd	a0, 0x18(sp)
80002940: f02e         	sd	a1, 0x20(sp)
80002942: a009         	j	0x80002944 <core::ptr::write_volatile::ha889142a39010445+0x10>
80002944: 6602         	ld	a2, 0x0(sp)
80002946: 6542         	ld	a0, 0x10(sp)
80002948: 45a1         	li	a1, 0x8
8000294a: ffffe097     	auipc	ra, 0xffffe
8000294e: a72080e7     	jalr	-0x58e(ra) <core::ptr::write_volatile::precondition_check::h534c43152ec8a749>
80002952: a009         	j	0x80002954 <core::ptr::write_volatile::ha889142a39010445+0x20>
80002954: 6522         	ld	a0, 0x8(sp)
80002956: 65c2         	ld	a1, 0x10(sp)
80002958: e188         	sd	a0, 0x0(a1)
8000295a: 70a2         	ld	ra, 0x28(sp)
8000295c: 6145         	addi	sp, sp, 0x30
8000295e: 8082         	ret

0000000080002960 <core::ptr::write_volatile::hc5a1ef04a6bbdf17>:
80002960: 7179         	addi	sp, sp, -0x30
80002962: f406         	sd	ra, 0x28(sp)
80002964: e032         	sd	a2, 0x0(sp)
80002966: e42a         	sd	a0, 0x8(sp)
80002968: 862e         	mv	a2, a1
8000296a: e832         	sd	a2, 0x10(sp)
8000296c: ec2a         	sd	a0, 0x18(sp)
8000296e: 02b103a3     	sb	a1, 0x27(sp)
80002972: a009         	j	0x80002974 <core::ptr::write_volatile::hc5a1ef04a6bbdf17+0x14>
80002974: 6602         	ld	a2, 0x0(sp)
80002976: 6522         	ld	a0, 0x8(sp)
80002978: 4585         	li	a1, 0x1
8000297a: ffffe097     	auipc	ra, 0xffffe
8000297e: a42080e7     	jalr	-0x5be(ra) <core::ptr::write_volatile::precondition_check::h534c43152ec8a749>
80002982: a009         	j	0x80002984 <core::ptr::write_volatile::hc5a1ef04a6bbdf17+0x24>
80002984: 6542         	ld	a0, 0x10(sp)
80002986: 65a2         	ld	a1, 0x8(sp)
80002988: 00a58023     	sb	a0, 0x0(a1)
8000298c: 70a2         	ld	ra, 0x28(sp)
8000298e: 6145         	addi	sp, sp, 0x30
80002990: 8082         	ret

0000000080002992 <core::slice::raw::from_raw_parts::precondition_check::heebd4d859fc3aa1a>:
80002992: 7119         	addi	sp, sp, -0x80
80002994: fc86         	sd	ra, 0x78(sp)
80002996: e43a         	sd	a4, 0x8(sp)
80002998: e836         	sd	a3, 0x10(sp)
8000299a: ec32         	sd	a2, 0x18(sp)
8000299c: 862e         	mv	a2, a1
8000299e: 65e2         	ld	a1, 0x18(sp)
800029a0: f032         	sd	a2, 0x20(sp)
800029a2: f42a         	sd	a0, 0x28(sp)
800029a4: fc2a         	sd	a0, 0x38(sp)
800029a6: e0b2         	sd	a2, 0x40(sp)
800029a8: e4ae         	sd	a1, 0x48(sp)
800029aa: e8b6         	sd	a3, 0x50(sp)
800029ac: 4601         	li	a2, 0x0
800029ae: 04c10fa3     	sb	a2, 0x5f(sp)
800029b2: f0aa         	sd	a0, 0x60(sp)
800029b4: 00000097     	auipc	ra, 0x0
800029b8: 152080e7     	jalr	0x152(ra) <core::ptr::const_ptr::_$LT$impl$u20$$BP$const$u20$T$GT$::is_aligned_to::h35cf6ffca25c92ff>
800029bc: e119         	bnez	a0, 0x800029c2 <core::slice::raw::from_raw_parts::precondition_check::heebd4d859fc3aa1a+0x30>
800029be: a009         	j	0x800029c0 <core::slice::raw::from_raw_parts::precondition_check::heebd4d859fc3aa1a+0x2e>
800029c0: a021         	j	0x800029c8 <core::slice::raw::from_raw_parts::precondition_check::heebd4d859fc3aa1a+0x36>
800029c2: 7522         	ld	a0, 0x28(sp)
800029c4: e119         	bnez	a0, 0x800029ca <core::slice::raw::from_raw_parts::precondition_check::heebd4d859fc3aa1a+0x38>
800029c6: a009         	j	0x800029c8 <core::slice::raw::from_raw_parts::precondition_check::heebd4d859fc3aa1a+0x36>
800029c8: a039         	j	0x800029d6 <core::slice::raw::from_raw_parts::precondition_check::heebd4d859fc3aa1a+0x44>
800029ca: 7502         	ld	a0, 0x20(sp)
800029cc: 00153593     	seqz	a1, a0
800029d0: e02e         	sd	a1, 0x0(sp)
800029d2: c115         	beqz	a0, 0x800029f6 <.Lpcrel_hi0+0x1e>
800029d4: a025         	j	0x800029fc <.Lpcrel_hi0+0x24>
800029d6: 66a2         	ld	a3, 0x8(sp)

00000000800029d8 <.Lpcrel_hi0>:
800029d8: 00004517     	auipc	a0, 0x4
800029dc: 9c850513     	addi	a0, a0, -0x638
800029e0: f4aa         	sd	a0, 0x68(sp)
800029e2: 11700593     	li	a1, 0x117
800029e6: f8ae         	sd	a1, 0x70(sp)
800029e8: 22f00593     	li	a1, 0x22f
800029ec: 4601         	li	a2, 0x0
800029ee: 00002097     	auipc	ra, 0x2
800029f2: 39e080e7     	jalr	0x39e(ra) <core::panicking::panic_nounwind_fmt::h2e018e50a8d3bc73>
800029f6: 557d         	li	a0, -0x1
800029f8: f82a         	sd	a0, 0x30(sp)
800029fa: a029         	j	0x80002a04 <.Lpcrel_hi0+0x2c>
800029fc: 6502         	ld	a0, 0x0(sp)
800029fe: 8905         	andi	a0, a0, 0x1
80002a00: ed11         	bnez	a0, 0x80002a1c <.Lpcrel_hi1>
80002a02: a031         	j	0x80002a0e <.Lpcrel_hi0+0x36>
80002a04: 65c2         	ld	a1, 0x10(sp)
80002a06: 7542         	ld	a0, 0x30(sp)
80002a08: 02b57363     	bgeu	a0, a1, 0x80002a2e <.Lpcrel_hi1+0x12>
80002a0c: a005         	j	0x80002a2c <.Lpcrel_hi1+0x10>
80002a0e: 7582         	ld	a1, 0x20(sp)
80002a10: 557d         	li	a0, -0x1
80002a12: 8105         	srli	a0, a0, 0x1
80002a14: 02b55533     	divu	a0, a0, a1
80002a18: f82a         	sd	a0, 0x30(sp)
80002a1a: b7ed         	j	0x80002a04 <.Lpcrel_hi0+0x2c>

0000000080002a1c <.Lpcrel_hi1>:
80002a1c: 00004517     	auipc	a0, 0x4
80002a20: 96c50513     	addi	a0, a0, -0x694
80002a24: 00002097     	auipc	ra, 0x2
80002a28: 2b4080e7     	jalr	0x2b4(ra) <core::panicking::panic_const::panic_const_div_by_zero::hcfde4c26e8ecfc4b>
80002a2c: b76d         	j	0x800029d6 <core::slice::raw::from_raw_parts::precondition_check::heebd4d859fc3aa1a+0x44>
80002a2e: 70e6         	ld	ra, 0x78(sp)
80002a30: 6109         	addi	sp, sp, 0x80
80002a32: 8082         	ret

0000000080002a34 <core::slice::raw::from_raw_parts_mut::precondition_check::h62946701a98fd606>:
80002a34: 7119         	addi	sp, sp, -0x80
80002a36: fc86         	sd	ra, 0x78(sp)
80002a38: e43a         	sd	a4, 0x8(sp)
80002a3a: e836         	sd	a3, 0x10(sp)
80002a3c: ec32         	sd	a2, 0x18(sp)
80002a3e: 862e         	mv	a2, a1
80002a40: 65e2         	ld	a1, 0x18(sp)
80002a42: f032         	sd	a2, 0x20(sp)
80002a44: f42a         	sd	a0, 0x28(sp)
80002a46: fc2a         	sd	a0, 0x38(sp)
80002a48: e0b2         	sd	a2, 0x40(sp)
80002a4a: e4ae         	sd	a1, 0x48(sp)
80002a4c: e8b6         	sd	a3, 0x50(sp)
80002a4e: 4601         	li	a2, 0x0
80002a50: 04c10fa3     	sb	a2, 0x5f(sp)
80002a54: f0aa         	sd	a0, 0x60(sp)
80002a56: 00000097     	auipc	ra, 0x0
80002a5a: 0b0080e7     	jalr	0xb0(ra) <core::ptr::const_ptr::_$LT$impl$u20$$BP$const$u20$T$GT$::is_aligned_to::h35cf6ffca25c92ff>
80002a5e: e119         	bnez	a0, 0x80002a64 <core::slice::raw::from_raw_parts_mut::precondition_check::h62946701a98fd606+0x30>
80002a60: a009         	j	0x80002a62 <core::slice::raw::from_raw_parts_mut::precondition_check::h62946701a98fd606+0x2e>
80002a62: a021         	j	0x80002a6a <core::slice::raw::from_raw_parts_mut::precondition_check::h62946701a98fd606+0x36>
80002a64: 7522         	ld	a0, 0x28(sp)
80002a66: e119         	bnez	a0, 0x80002a6c <core::slice::raw::from_raw_parts_mut::precondition_check::h62946701a98fd606+0x38>
80002a68: a009         	j	0x80002a6a <core::slice::raw::from_raw_parts_mut::precondition_check::h62946701a98fd606+0x36>
80002a6a: a039         	j	0x80002a78 <core::slice::raw::from_raw_parts_mut::precondition_check::h62946701a98fd606+0x44>
80002a6c: 7502         	ld	a0, 0x20(sp)
80002a6e: 00153593     	seqz	a1, a0
80002a72: e02e         	sd	a1, 0x0(sp)
80002a74: c115         	beqz	a0, 0x80002a98 <.Lpcrel_hi2+0x1e>
80002a76: a025         	j	0x80002a9e <.Lpcrel_hi2+0x24>
80002a78: 66a2         	ld	a3, 0x8(sp)

0000000080002a7a <.Lpcrel_hi2>:
80002a7a: 00004517     	auipc	a0, 0x4
80002a7e: a3d50513     	addi	a0, a0, -0x5c3
80002a82: f4aa         	sd	a0, 0x68(sp)
80002a84: 11b00593     	li	a1, 0x11b
80002a88: f8ae         	sd	a1, 0x70(sp)
80002a8a: 23700593     	li	a1, 0x237
80002a8e: 4601         	li	a2, 0x0
80002a90: 00002097     	auipc	ra, 0x2
80002a94: 2fc080e7     	jalr	0x2fc(ra) <core::panicking::panic_nounwind_fmt::h2e018e50a8d3bc73>
80002a98: 557d         	li	a0, -0x1
80002a9a: f82a         	sd	a0, 0x30(sp)
80002a9c: a029         	j	0x80002aa6 <.Lpcrel_hi2+0x2c>
80002a9e: 6502         	ld	a0, 0x0(sp)
80002aa0: 8905         	andi	a0, a0, 0x1
80002aa2: ed11         	bnez	a0, 0x80002abe <.Lpcrel_hi3>
80002aa4: a031         	j	0x80002ab0 <.Lpcrel_hi2+0x36>
80002aa6: 65c2         	ld	a1, 0x10(sp)
80002aa8: 7542         	ld	a0, 0x30(sp)
80002aaa: 02b57363     	bgeu	a0, a1, 0x80002ad0 <.Lpcrel_hi3+0x12>
80002aae: a005         	j	0x80002ace <.Lpcrel_hi3+0x10>
80002ab0: 7582         	ld	a1, 0x20(sp)
80002ab2: 557d         	li	a0, -0x1
80002ab4: 8105         	srli	a0, a0, 0x1
80002ab6: 02b55533     	divu	a0, a0, a1
80002aba: f82a         	sd	a0, 0x30(sp)
80002abc: b7ed         	j	0x80002aa6 <.Lpcrel_hi2+0x2c>

0000000080002abe <.Lpcrel_hi3>:
80002abe: 00004517     	auipc	a0, 0x4
80002ac2: 8ca50513     	addi	a0, a0, -0x736
80002ac6: 00002097     	auipc	ra, 0x2
80002aca: 212080e7     	jalr	0x212(ra) <core::panicking::panic_const::panic_const_div_by_zero::hcfde4c26e8ecfc4b>
80002ace: b76d         	j	0x80002a78 <core::slice::raw::from_raw_parts_mut::precondition_check::h62946701a98fd606+0x44>
80002ad0: 70e6         	ld	ra, 0x78(sp)
80002ad2: 6109         	addi	sp, sp, 0x80
80002ad4: 8082         	ret

0000000080002ad6 <_$LT$usize$u20$as$u20$core..iter..range..Step$GT$::forward_unchecked::h40f11bace8612ed0>:
80002ad6: 7179         	addi	sp, sp, -0x30
80002ad8: f406         	sd	ra, 0x28(sp)
80002ada: e42e         	sd	a1, 0x8(sp)
80002adc: e82a         	sd	a0, 0x10(sp)
80002ade: ec2a         	sd	a0, 0x18(sp)
80002ae0: f02e         	sd	a1, 0x20(sp)
80002ae2: a009         	j	0x80002ae4 <_$LT$usize$u20$as$u20$core..iter..range..Step$GT$::forward_unchecked::h40f11bace8612ed0+0xe>
80002ae4: 65a2         	ld	a1, 0x8(sp)
80002ae6: 6542         	ld	a0, 0x10(sp)

0000000080002ae8 <.Lpcrel_hi0>:
80002ae8: 00004617     	auipc	a2, 0x4
80002aec: af060613     	addi	a2, a2, -0x510
80002af0: ffffd097     	auipc	ra, 0xffffd
80002af4: 68e080e7     	jalr	0x68e(ra) <core::num::_$LT$impl$u20$usize$GT$::unchecked_add::precondition_check::h3ffa1c77a9014de3>
80002af8: a009         	j	0x80002afa <.Lpcrel_hi0+0x12>
80002afa: 6542         	ld	a0, 0x10(sp)
80002afc: 65a2         	ld	a1, 0x8(sp)
80002afe: 952e         	add	a0, a0, a1
80002b00: 70a2         	ld	ra, 0x28(sp)
80002b02: 6145         	addi	sp, sp, 0x30
80002b04: 8082         	ret

0000000080002b06 <core::ptr::const_ptr::_$LT$impl$u20$$BP$const$u20$T$GT$::is_aligned_to::h35cf6ffca25c92ff>:
80002b06: 7139         	addi	sp, sp, -0x40
80002b08: e42e         	sd	a1, 0x8(sp)
80002b0a: e82a         	sd	a0, 0x10(sp)
80002b0c: ec2a         	sd	a0, 0x18(sp)
80002b0e: f02e         	sd	a1, 0x20(sp)
80002b10: 0015d513     	srli	a0, a1, 0x1
80002b14: 55555637     	lui	a2, 0x55555
80002b18: 55560613     	addi	a2, a2, 0x555
80002b1c: 02061693     	slli	a3, a2, 0x20
80002b20: 9636         	add	a2, a2, a3
80002b22: 8d71         	and	a0, a0, a2
80002b24: 8d89         	sub	a1, a1, a0
80002b26: 33333537     	lui	a0, 0x33333
80002b2a: 33350513     	addi	a0, a0, 0x333
80002b2e: 02051613     	slli	a2, a0, 0x20
80002b32: 962a         	add	a2, a2, a0
80002b34: 00c5f533     	and	a0, a1, a2
80002b38: 8189         	srli	a1, a1, 0x2
80002b3a: 8df1         	and	a1, a1, a2
80002b3c: 952e         	add	a0, a0, a1
80002b3e: 00455593     	srli	a1, a0, 0x4
80002b42: 952e         	add	a0, a0, a1
80002b44: 0f0f15b7     	lui	a1, 0xf0f1
80002b48: f0f58593     	addi	a1, a1, -0xf1
80002b4c: 02059613     	slli	a2, a1, 0x20
80002b50: 95b2         	add	a1, a1, a2
80002b52: 8d6d         	and	a0, a0, a1
80002b54: 010105b7     	lui	a1, 0x1010
80002b58: 10158593     	addi	a1, a1, 0x101
80002b5c: 02059613     	slli	a2, a1, 0x20
80002b60: 95b2         	add	a1, a1, a2
80002b62: 02b50533     	mul	a0, a0, a1
80002b66: 9161         	srli	a0, a0, 0x38
80002b68: d62a         	sw	a0, 0x2c(sp)
80002b6a: 5532         	lw	a0, 0x2c(sp)
80002b6c: 4585         	li	a1, 0x1
80002b6e: 00b51b63     	bne	a0, a1, 0x80002b84 <.Lpcrel_hi0>
80002b72: a009         	j	0x80002b74 <core::ptr::const_ptr::_$LT$impl$u20$$BP$const$u20$T$GT$::is_aligned_to::h35cf6ffca25c92ff+0x6e>
80002b74: 6542         	ld	a0, 0x10(sp)
80002b76: 65a2         	ld	a1, 0x8(sp)
80002b78: 15fd         	addi	a1, a1, -0x1
80002b7a: 8d6d         	and	a0, a0, a1
80002b7c: 00153513     	seqz	a0, a0
80002b80: 6121         	addi	sp, sp, 0x40
80002b82: 8082         	ret

0000000080002b84 <.Lpcrel_hi0>:
80002b84: 00004517     	auipc	a0, 0x4
80002b88: a6c50513     	addi	a0, a0, -0x594
80002b8c: f82a         	sd	a0, 0x30(sp)
80002b8e: 02a00593     	li	a1, 0x2a
80002b92: fc2e         	sd	a1, 0x38(sp)

0000000080002b94 <.Lpcrel_hi1>:
80002b94: 00004597     	auipc	a1, 0x4
80002b98: a8c58613     	addi	a2, a1, -0x574
80002b9c: 05500593     	li	a1, 0x55
80002ba0: 00002097     	auipc	ra, 0x2
80002ba4: 27c080e7     	jalr	0x27c(ra) <core::panicking::panic_fmt::h767dc8ac4dd44648>

0000000080002ba8 <core::fmt::rt::Argument::new_display::h26a32fde33194792>:
80002ba8: 1101         	addi	sp, sp, -0x20
80002baa: e02e         	sd	a1, 0x0(sp)
80002bac: 85aa         	mv	a1, a0
80002bae: 6502         	ld	a0, 0x0(sp)
80002bb0: ec2a         	sd	a0, 0x18(sp)
80002bb2: e42a         	sd	a0, 0x8(sp)

0000000080002bb4 <.Lpcrel_hi0>:
80002bb4: 00002517     	auipc	a0, 0x2
80002bb8: 84a50513     	addi	a0, a0, -0x7b6
80002bbc: e82a         	sd	a0, 0x10(sp)
80002bbe: 6542         	ld	a0, 0x10(sp)
80002bc0: e588         	sd	a0, 0x8(a1)
80002bc2: 6522         	ld	a0, 0x8(sp)
80002bc4: e188         	sd	a0, 0x0(a1)
80002bc6: 6105         	addi	sp, sp, 0x20
80002bc8: 8082         	ret

0000000080002bca <core::fmt::rt::Argument::new_display::h343420e83d4da8a8>:
80002bca: 1101         	addi	sp, sp, -0x20
80002bcc: e02e         	sd	a1, 0x0(sp)
80002bce: 85aa         	mv	a1, a0
80002bd0: 6502         	ld	a0, 0x0(sp)
80002bd2: ec2a         	sd	a0, 0x18(sp)
80002bd4: e42a         	sd	a0, 0x8(sp)

0000000080002bd6 <.Lpcrel_hi1>:
80002bd6: ffffd517     	auipc	a0, 0xffffd
80002bda: 61650513     	addi	a0, a0, 0x616
80002bde: e82a         	sd	a0, 0x10(sp)
80002be0: 6542         	ld	a0, 0x10(sp)
80002be2: e588         	sd	a0, 0x8(a1)
80002be4: 6522         	ld	a0, 0x8(sp)
80002be6: e188         	sd	a0, 0x0(a1)
80002be8: 6105         	addi	sp, sp, 0x20
80002bea: 8082         	ret

0000000080002bec <core::fmt::rt::Argument::new_display::h3c7ad53467ad9b19>:
80002bec: 1101         	addi	sp, sp, -0x20
80002bee: e02e         	sd	a1, 0x0(sp)
80002bf0: 85aa         	mv	a1, a0
80002bf2: 6502         	ld	a0, 0x0(sp)
80002bf4: ec2a         	sd	a0, 0x18(sp)
80002bf6: e42a         	sd	a0, 0x8(sp)

0000000080002bf8 <.Lpcrel_hi2>:
80002bf8: 00001517     	auipc	a0, 0x1
80002bfc: 33050513     	addi	a0, a0, 0x330
80002c00: e82a         	sd	a0, 0x10(sp)
80002c02: 6542         	ld	a0, 0x10(sp)
80002c04: e588         	sd	a0, 0x8(a1)
80002c06: 6522         	ld	a0, 0x8(sp)
80002c08: e188         	sd	a0, 0x0(a1)
80002c0a: 6105         	addi	sp, sp, 0x20
80002c0c: 8082         	ret

0000000080002c0e <core::fmt::rt::Argument::new_display::hd6d864d0c34cbb40>:
80002c0e: 1101         	addi	sp, sp, -0x20
80002c10: e02e         	sd	a1, 0x0(sp)
80002c12: 85aa         	mv	a1, a0
80002c14: 6502         	ld	a0, 0x0(sp)
80002c16: ec2a         	sd	a0, 0x18(sp)
80002c18: e42a         	sd	a0, 0x8(sp)

0000000080002c1a <.Lpcrel_hi3>:
80002c1a: 00001517     	auipc	a0, 0x1
80002c1e: 7e450513     	addi	a0, a0, 0x7e4
80002c22: e82a         	sd	a0, 0x10(sp)
80002c24: 6542         	ld	a0, 0x10(sp)
80002c26: e588         	sd	a0, 0x8(a1)
80002c28: 6522         	ld	a0, 0x8(sp)
80002c2a: e188         	sd	a0, 0x0(a1)
80002c2c: 6105         	addi	sp, sp, 0x20
80002c2e: 8082         	ret

0000000080002c30 <core::fmt::rt::Argument::new_lower_hex::h4660349ecbfaa947>:
80002c30: 1101         	addi	sp, sp, -0x20
80002c32: e02e         	sd	a1, 0x0(sp)
80002c34: 85aa         	mv	a1, a0
80002c36: 6502         	ld	a0, 0x0(sp)
80002c38: ec2a         	sd	a0, 0x18(sp)
80002c3a: e42a         	sd	a0, 0x8(sp)

0000000080002c3c <.Lpcrel_hi4>:
80002c3c: 00002517     	auipc	a0, 0x2
80002c40: 80e50513     	addi	a0, a0, -0x7f2
80002c44: e82a         	sd	a0, 0x10(sp)
80002c46: 6542         	ld	a0, 0x10(sp)
80002c48: e588         	sd	a0, 0x8(a1)
80002c4a: 6522         	ld	a0, 0x8(sp)
80002c4c: e188         	sd	a0, 0x0(a1)
80002c4e: 6105         	addi	sp, sp, 0x20
80002c50: 8082         	ret

0000000080002c52 <core::fmt::rt::Argument::new_lower_hex::hc6569d0de85acebc>:
80002c52: 1101         	addi	sp, sp, -0x20
80002c54: e02e         	sd	a1, 0x0(sp)
80002c56: 85aa         	mv	a1, a0
80002c58: 6502         	ld	a0, 0x0(sp)
80002c5a: ec2a         	sd	a0, 0x18(sp)
80002c5c: e42a         	sd	a0, 0x8(sp)

0000000080002c5e <.Lpcrel_hi5>:
80002c5e: 00001517     	auipc	a0, 0x1
80002c62: 7ec50513     	addi	a0, a0, 0x7ec
80002c66: e82a         	sd	a0, 0x10(sp)
80002c68: 6542         	ld	a0, 0x10(sp)
80002c6a: e588         	sd	a0, 0x8(a1)
80002c6c: 6522         	ld	a0, 0x8(sp)
80002c6e: e188         	sd	a0, 0x0(a1)
80002c70: 6105         	addi	sp, sp, 0x20
80002c72: 8082         	ret

0000000080002c74 <core::char::methods::encode_utf8_raw::h497925ac9df9624d>:
80002c74: 715d         	addi	sp, sp, -0x50
80002c76: e486         	sd	ra, 0x48(sp)
80002c78: e032         	sd	a2, 0x0(sp)
80002c7a: e42e         	sd	a1, 0x8(sp)
80002c7c: 86aa         	mv	a3, a0
80002c7e: e836         	sd	a3, 0x10(sp)
80002c80: d22a         	sw	a0, 0x24(sp)
80002c82: f42e         	sd	a1, 0x28(sp)
80002c84: f832         	sd	a2, 0x30(sp)
80002c86: 08000593     	li	a1, 0x80
80002c8a: 00b56863     	bltu	a0, a1, 0x80002c9a <core::char::methods::encode_utf8_raw::h497925ac9df9624d+0x26>
80002c8e: a009         	j	0x80002c90 <core::char::methods::encode_utf8_raw::h497925ac9df9624d+0x1c>
80002c90: 6542         	ld	a0, 0x10(sp)
80002c92: 00b5551b     	srliw	a0, a0, 0xb
80002c96: c911         	beqz	a0, 0x80002caa <core::char::methods::encode_utf8_raw::h497925ac9df9624d+0x36>
80002c98: a021         	j	0x80002ca0 <core::char::methods::encode_utf8_raw::h497925ac9df9624d+0x2c>
80002c9a: 4505         	li	a0, 0x1
80002c9c: ec2a         	sd	a0, 0x18(sp)
80002c9e: a839         	j	0x80002cbc <core::char::methods::encode_utf8_raw::h497925ac9df9624d+0x48>
80002ca0: 6542         	ld	a0, 0x10(sp)
80002ca2: 0105551b     	srliw	a0, a0, 0x10
80002ca6: c901         	beqz	a0, 0x80002cb6 <core::char::methods::encode_utf8_raw::h497925ac9df9624d+0x42>
80002ca8: a021         	j	0x80002cb0 <core::char::methods::encode_utf8_raw::h497925ac9df9624d+0x3c>
80002caa: 4509         	li	a0, 0x2
80002cac: ec2a         	sd	a0, 0x18(sp)
80002cae: a039         	j	0x80002cbc <core::char::methods::encode_utf8_raw::h497925ac9df9624d+0x48>
80002cb0: 4511         	li	a0, 0x4
80002cb2: ec2a         	sd	a0, 0x18(sp)
80002cb4: a021         	j	0x80002cbc <core::char::methods::encode_utf8_raw::h497925ac9df9624d+0x48>
80002cb6: 450d         	li	a0, 0x3
80002cb8: ec2a         	sd	a0, 0x18(sp)
80002cba: a009         	j	0x80002cbc <core::char::methods::encode_utf8_raw::h497925ac9df9624d+0x48>
80002cbc: 6502         	ld	a0, 0x0(sp)
80002cbe: fc2a         	sd	a0, 0x38(sp)
80002cc0: 65e2         	ld	a1, 0x18(sp)
80002cc2: 00b56d63     	bltu	a0, a1, 0x80002cdc <core::char::methods::encode_utf8_raw::h497925ac9df9624d+0x68>
80002cc6: a009         	j	0x80002cc8 <core::char::methods::encode_utf8_raw::h497925ac9df9624d+0x54>
80002cc8: 65a2         	ld	a1, 0x8(sp)
80002cca: 6542         	ld	a0, 0x10(sp)
80002ccc: 2501         	sext.w	a0, a0
80002cce: 00000097     	auipc	ra, 0x0
80002cd2: 0cc080e7     	jalr	0xcc(ra) <core::char::methods::encode_utf8_raw_unchecked::he53dc85fbc3807e3>
80002cd6: 6522         	ld	a0, 0x8(sp)
80002cd8: e0aa         	sd	a0, 0x40(sp)
80002cda: a829         	j	0x80002cf4 <.Lpcrel_hi0+0x10>
80002cdc: 6602         	ld	a2, 0x0(sp)
80002cde: 6542         	ld	a0, 0x10(sp)
80002ce0: 65e2         	ld	a1, 0x18(sp)
80002ce2: 2501         	sext.w	a0, a0

0000000080002ce4 <.Lpcrel_hi0>:
80002ce4: 00004697     	auipc	a3, 0x4
80002ce8: 96c68693     	addi	a3, a3, -0x694
80002cec: 00000097     	auipc	ra, 0x0
80002cf0: 02c080e7     	jalr	0x2c(ra) <core::char::methods::encode_utf8_raw::do_panic::runtime::hc22d5e4f50ef13e9>
80002cf4: 6522         	ld	a0, 0x8(sp)
80002cf6: 66e2         	ld	a3, 0x18(sp)

0000000080002cf8 <.Lpcrel_hi1>:
80002cf8: 00004597     	auipc	a1, 0x4
80002cfc: 94058713     	addi	a4, a1, -0x6c0
80002d00: 4605         	li	a2, 0x1
80002d02: 85b2         	mv	a1, a2
80002d04: 00000097     	auipc	ra, 0x0
80002d08: d30080e7     	jalr	-0x2d0(ra) <core::slice::raw::from_raw_parts_mut::precondition_check::h62946701a98fd606>
80002d0c: a009         	j	0x80002d0e <.Lpcrel_hi1+0x16>
80002d0e: 6522         	ld	a0, 0x8(sp)
80002d10: 65e2         	ld	a1, 0x18(sp)
80002d12: 60a6         	ld	ra, 0x48(sp)
80002d14: 6161         	addi	sp, sp, 0x50
80002d16: 8082         	ret

0000000080002d18 <core::char::methods::encode_utf8_raw::do_panic::runtime::hc22d5e4f50ef13e9>:
80002d18: 7115         	addi	sp, sp, -0xe0
80002d1a: e036         	sd	a3, 0x0(sp)
80002d1c: 86b2         	mv	a3, a2
80002d1e: 6602         	ld	a2, 0x0(sp)
80002d20: e436         	sd	a3, 0x8(sp)
80002d22: 86aa         	mv	a3, a0
80002d24: 6522         	ld	a0, 0x8(sp)
80002d26: ca36         	sw	a3, 0x14(sp)
80002d28: ec2e         	sd	a1, 0x18(sp)
80002d2a: f02a         	sd	a0, 0x20(sp)

0000000080002d2c <.Lpcrel_hi2>:
80002d2c: 00004517     	auipc	a0, 0x4
80002d30: 93c50513     	addi	a0, a0, -0x6c4
80002d34: fd2a         	sd	a0, 0xb8(sp)
80002d36: 082c         	addi	a1, sp, 0x18
80002d38: e1ae         	sd	a1, 0xc0(sp)
80002d3a: 0858         	addi	a4, sp, 0x14
80002d3c: e5ba         	sd	a4, 0xc8(sp)
80002d3e: 1014         	addi	a3, sp, 0x20
80002d40: e9b6         	sd	a3, 0xd0(sp)
80002d42: e52e         	sd	a1, 0x88(sp)

0000000080002d44 <.Lpcrel_hi3>:
80002d44: 00001597     	auipc	a1, 0x1
80002d48: 6ba58593     	addi	a1, a1, 0x6ba
80002d4c: e92e         	sd	a1, 0x90(sp)
80002d4e: 67ca         	ld	a5, 0x90(sp)
80002d50: f0be         	sd	a5, 0x60(sp)
80002d52: 67aa         	ld	a5, 0x88(sp)
80002d54: ecbe         	sd	a5, 0x58(sp)
80002d56: ed3a         	sd	a4, 0x98(sp)

0000000080002d58 <.Lpcrel_hi4>:
80002d58: 00001717     	auipc	a4, 0x1
80002d5c: 74a70713     	addi	a4, a4, 0x74a
80002d60: f13a         	sd	a4, 0xa0(sp)
80002d62: 770a         	ld	a4, 0xa0(sp)
80002d64: f8ba         	sd	a4, 0x70(sp)
80002d66: 676a         	ld	a4, 0x98(sp)
80002d68: f4ba         	sd	a4, 0x68(sp)
80002d6a: f536         	sd	a3, 0xa8(sp)
80002d6c: f92e         	sd	a1, 0xb0(sp)
80002d6e: 75ca         	ld	a1, 0xb0(sp)
80002d70: e12e         	sd	a1, 0x80(sp)
80002d72: 75aa         	ld	a1, 0xa8(sp)
80002d74: fcae         	sd	a1, 0x78(sp)
80002d76: 7586         	ld	a1, 0x60(sp)
80002d78: f82e         	sd	a1, 0x30(sp)
80002d7a: 65e6         	ld	a1, 0x58(sp)
80002d7c: f42e         	sd	a1, 0x28(sp)
80002d7e: 75c6         	ld	a1, 0x70(sp)
80002d80: e0ae         	sd	a1, 0x40(sp)
80002d82: 75a6         	ld	a1, 0x68(sp)
80002d84: fc2e         	sd	a1, 0x38(sp)
80002d86: 658a         	ld	a1, 0x80(sp)
80002d88: e8ae         	sd	a1, 0x50(sp)
80002d8a: 75e6         	ld	a1, 0x78(sp)
80002d8c: e4ae         	sd	a1, 0x48(sp)
80002d8e: 102c         	addi	a1, sp, 0x28
80002d90: edae         	sd	a1, 0xd8(sp)
80002d92: 00002097     	auipc	ra, 0x2
80002d96: 08a080e7     	jalr	0x8a(ra) <core::panicking::panic_fmt::h767dc8ac4dd44648>

0000000080002d9a <core::char::methods::encode_utf8_raw_unchecked::he53dc85fbc3807e3>:
80002d9a: 7119         	addi	sp, sp, -0x80
80002d9c: f02e         	sd	a1, 0x20(sp)
80002d9e: 862a         	mv	a2, a0
80002da0: f432         	sd	a2, 0x28(sp)
80002da2: de2a         	sw	a0, 0x3c(sp)
80002da4: e0ae         	sd	a1, 0x40(sp)
80002da6: 4585         	li	a1, 0x1
80002da8: e4ae         	sd	a1, 0x48(sp)
80002daa: e8ae         	sd	a1, 0x50(sp)
80002dac: ecae         	sd	a1, 0x58(sp)
80002dae: 4589         	li	a1, 0x2
80002db0: f0ae         	sd	a1, 0x60(sp)
80002db2: f4ae         	sd	a1, 0x68(sp)
80002db4: 458d         	li	a1, 0x3
80002db6: f8ae         	sd	a1, 0x70(sp)
80002db8: 08000593     	li	a1, 0x80
80002dbc: 00b56863     	bltu	a0, a1, 0x80002dcc <core::char::methods::encode_utf8_raw_unchecked::he53dc85fbc3807e3+0x32>
80002dc0: a009         	j	0x80002dc2 <core::char::methods::encode_utf8_raw_unchecked::he53dc85fbc3807e3+0x28>
80002dc2: 7522         	ld	a0, 0x28(sp)
80002dc4: 00b5551b     	srliw	a0, a0, 0xb
80002dc8: cd11         	beqz	a0, 0x80002de4 <core::char::methods::encode_utf8_raw_unchecked::he53dc85fbc3807e3+0x4a>
80002dca: a801         	j	0x80002dda <core::char::methods::encode_utf8_raw_unchecked::he53dc85fbc3807e3+0x40>
80002dcc: 7522         	ld	a0, 0x28(sp)
80002dce: 7582         	ld	a1, 0x20(sp)
80002dd0: 4605         	li	a2, 0x1
80002dd2: f832         	sd	a2, 0x30(sp)
80002dd4: 00a58023     	sb	a0, 0x0(a1)
80002dd8: a049         	j	0x80002e5a <core::char::methods::encode_utf8_raw_unchecked::he53dc85fbc3807e3+0xc0>
80002dda: 7522         	ld	a0, 0x28(sp)
80002ddc: 0105551b     	srliw	a0, a0, 0x10
80002de0: c901         	beqz	a0, 0x80002df0 <core::char::methods::encode_utf8_raw_unchecked::he53dc85fbc3807e3+0x56>
80002de2: a021         	j	0x80002dea <core::char::methods::encode_utf8_raw_unchecked::he53dc85fbc3807e3+0x50>
80002de4: 4509         	li	a0, 0x2
80002de6: f82a         	sd	a0, 0x30(sp)
80002de8: a039         	j	0x80002df6 <core::char::methods::encode_utf8_raw_unchecked::he53dc85fbc3807e3+0x5c>
80002dea: 4511         	li	a0, 0x4
80002dec: f82a         	sd	a0, 0x30(sp)
80002dee: a021         	j	0x80002df6 <core::char::methods::encode_utf8_raw_unchecked::he53dc85fbc3807e3+0x5c>
80002df0: 450d         	li	a0, 0x3
80002df2: f82a         	sd	a0, 0x30(sp)
80002df4: a009         	j	0x80002df6 <core::char::methods::encode_utf8_raw_unchecked::he53dc85fbc3807e3+0x5c>
80002df6: 7522         	ld	a0, 0x28(sp)
80002df8: 03f57593     	andi	a1, a0, 0x3f
80002dfc: f805859b     	addiw	a1, a1, -0x80
80002e00: e02e         	sd	a1, 0x0(sp)
80002e02: 06b10e23     	sb	a1, 0x7c(sp)
80002e06: 03451593     	slli	a1, a0, 0x34
80002e0a: 91e9         	srli	a1, a1, 0x3a
80002e0c: f805859b     	addiw	a1, a1, -0x80
80002e10: e42e         	sd	a1, 0x8(sp)
80002e12: 06b10ea3     	sb	a1, 0x7d(sp)
80002e16: 02e51593     	slli	a1, a0, 0x2e
80002e1a: 91e9         	srli	a1, a1, 0x3a
80002e1c: f805859b     	addiw	a1, a1, -0x80
80002e20: e82e         	sd	a1, 0x10(sp)
80002e22: 06b10f23     	sb	a1, 0x7e(sp)
80002e26: 8149         	srli	a0, a0, 0x12
80002e28: ff056513     	ori	a0, a0, -0x10
80002e2c: ec2a         	sd	a0, 0x18(sp)
80002e2e: 06a10fa3     	sb	a0, 0x7f(sp)
80002e32: 7542         	ld	a0, 0x30(sp)
80002e34: 4589         	li	a1, 0x2
80002e36: 00b51d63     	bne	a0, a1, 0x80002e50 <core::char::methods::encode_utf8_raw_unchecked::he53dc85fbc3807e3+0xb6>
80002e3a: a009         	j	0x80002e3c <core::char::methods::encode_utf8_raw_unchecked::he53dc85fbc3807e3+0xa2>
80002e3c: 6502         	ld	a0, 0x0(sp)
80002e3e: 7582         	ld	a1, 0x20(sp)
80002e40: 6622         	ld	a2, 0x8(sp)
80002e42: 0c066613     	ori	a2, a2, 0xc0
80002e46: 00c58023     	sb	a2, 0x0(a1)
80002e4a: 00a580a3     	sb	a0, 0x1(a1)
80002e4e: a031         	j	0x80002e5a <core::char::methods::encode_utf8_raw_unchecked::he53dc85fbc3807e3+0xc0>
80002e50: 7542         	ld	a0, 0x30(sp)
80002e52: 458d         	li	a1, 0x3
80002e54: 00b50463     	beq	a0, a1, 0x80002e5c <core::char::methods::encode_utf8_raw_unchecked::he53dc85fbc3807e3+0xc2>
80002e58: a839         	j	0x80002e76 <core::char::methods::encode_utf8_raw_unchecked::he53dc85fbc3807e3+0xdc>
80002e5a: a825         	j	0x80002e92 <core::char::methods::encode_utf8_raw_unchecked::he53dc85fbc3807e3+0xf8>
80002e5c: 6502         	ld	a0, 0x0(sp)
80002e5e: 7582         	ld	a1, 0x20(sp)
80002e60: 6622         	ld	a2, 0x8(sp)
80002e62: 66c2         	ld	a3, 0x10(sp)
80002e64: 0e06e693     	ori	a3, a3, 0xe0
80002e68: 00d58023     	sb	a3, 0x0(a1)
80002e6c: 00c580a3     	sb	a2, 0x1(a1)
80002e70: 00a58123     	sb	a0, 0x2(a1)
80002e74: b7dd         	j	0x80002e5a <core::char::methods::encode_utf8_raw_unchecked::he53dc85fbc3807e3+0xc0>
80002e76: 6502         	ld	a0, 0x0(sp)
80002e78: 7582         	ld	a1, 0x20(sp)
80002e7a: 6622         	ld	a2, 0x8(sp)
80002e7c: 66c2         	ld	a3, 0x10(sp)
80002e7e: 6762         	ld	a4, 0x18(sp)
80002e80: 00e58023     	sb	a4, 0x0(a1)
80002e84: 00d580a3     	sb	a3, 0x1(a1)
80002e88: 00c58123     	sb	a2, 0x2(a1)
80002e8c: 00a581a3     	sb	a0, 0x3(a1)
80002e90: a009         	j	0x80002e92 <core::char::methods::encode_utf8_raw_unchecked::he53dc85fbc3807e3+0xf8>
80002e92: 6109         	addi	sp, sp, 0x80
80002e94: 8082         	ret

0000000080002e96 <core::iter::range::_$LT$impl$u20$core..iter..traits..iterator..Iterator$u20$for$u20$core..ops..range..Range$LT$A$GT$$GT$::next::hdcf0cc9aae1cf88d>:
80002e96: 1141         	addi	sp, sp, -0x10
80002e98: e406         	sd	ra, 0x8(sp)
80002e9a: e02a         	sd	a0, 0x0(sp)
80002e9c: 00000097     	auipc	ra, 0x0
80002ea0: 018080e7     	jalr	0x18(ra) <_$LT$core..ops..range..Range$LT$T$GT$$u20$as$u20$core..iter..range..RangeIteratorImpl$GT$::spec_next::h00e93702fd48dbfc>
80002ea4: 60a2         	ld	ra, 0x8(sp)
80002ea6: 0141         	addi	sp, sp, 0x10
80002ea8: 8082         	ret

0000000080002eaa <_$LT$I$u20$as$u20$core..iter..traits..collect..IntoIterator$GT$::into_iter::h9f015da8b0ccb3ff>:
80002eaa: 1141         	addi	sp, sp, -0x10
80002eac: e02a         	sd	a0, 0x0(sp)
80002eae: e42e         	sd	a1, 0x8(sp)
80002eb0: 0141         	addi	sp, sp, 0x10
80002eb2: 8082         	ret

0000000080002eb4 <_$LT$core..ops..range..Range$LT$T$GT$$u20$as$u20$core..iter..range..RangeIteratorImpl$GT$::spec_next::h00e93702fd48dbfc>:
80002eb4: 715d         	addi	sp, sp, -0x50
80002eb6: e486         	sd	ra, 0x48(sp)
80002eb8: 85aa         	mv	a1, a0
80002eba: e82e         	sd	a1, 0x10(sp)
80002ebc: f42e         	sd	a1, 0x28(sp)
80002ebe: 00858513     	addi	a0, a1, 0x8
80002ec2: fc2e         	sd	a1, 0x38(sp)
80002ec4: e0aa         	sd	a0, 0x40(sp)
80002ec6: 6188         	ld	a0, 0x0(a1)
80002ec8: 658c         	ld	a1, 0x8(a1)
80002eca: 00b56663     	bltu	a0, a1, 0x80002ed6 <_$LT$core..ops..range..Range$LT$T$GT$$u20$as$u20$core..iter..range..RangeIteratorImpl$GT$::spec_next::h00e93702fd48dbfc+0x22>
80002ece: a009         	j	0x80002ed0 <_$LT$core..ops..range..Range$LT$T$GT$$u20$as$u20$core..iter..range..RangeIteratorImpl$GT$::spec_next::h00e93702fd48dbfc+0x1c>
80002ed0: 4501         	li	a0, 0x0
80002ed2: ec2a         	sd	a0, 0x18(sp)
80002ed4: a01d         	j	0x80002efa <_$LT$core..ops..range..Range$LT$T$GT$$u20$as$u20$core..iter..range..RangeIteratorImpl$GT$::spec_next::h00e93702fd48dbfc+0x46>
80002ed6: 6542         	ld	a0, 0x10(sp)
80002ed8: 6108         	ld	a0, 0x0(a0)
80002eda: e02a         	sd	a0, 0x0(sp)
80002edc: f82a         	sd	a0, 0x30(sp)
80002ede: 4585         	li	a1, 0x1
80002ee0: e42e         	sd	a1, 0x8(sp)
80002ee2: 00000097     	auipc	ra, 0x0
80002ee6: bf4080e7     	jalr	-0x40c(ra) <_$LT$usize$u20$as$u20$core..iter..range..Step$GT$::forward_unchecked::h40f11bace8612ed0>
80002eea: 66c2         	ld	a3, 0x10(sp)
80002eec: 6582         	ld	a1, 0x0(sp)
80002eee: 862a         	mv	a2, a0
80002ef0: 6522         	ld	a0, 0x8(sp)
80002ef2: e290         	sd	a2, 0x0(a3)
80002ef4: f02e         	sd	a1, 0x20(sp)
80002ef6: ec2a         	sd	a0, 0x18(sp)
80002ef8: a009         	j	0x80002efa <_$LT$core..ops..range..Range$LT$T$GT$$u20$as$u20$core..iter..range..RangeIteratorImpl$GT$::spec_next::h00e93702fd48dbfc+0x46>
80002efa: 6562         	ld	a0, 0x18(sp)
80002efc: 7582         	ld	a1, 0x20(sp)
80002efe: 60a6         	ld	ra, 0x48(sp)
80002f00: 6161         	addi	sp, sp, 0x50
80002f02: 8082         	ret

0000000080002f04 <core::sync::atomic::AtomicBool::compare_exchange::hb26b1b318dd29b85>:
80002f04: 7119         	addi	sp, sp, -0x80
80002f06: fc86         	sd	ra, 0x78(sp)
80002f08: e42a         	sd	a0, 0x8(sp)
80002f0a: 87ba         	mv	a5, a4
80002f0c: e83e         	sd	a5, 0x10(sp)
80002f0e: 87b2         	mv	a5, a2
80002f10: ec3e         	sd	a5, 0x18(sp)
80002f12: 87ae         	mv	a5, a1
80002f14: f03e         	sd	a5, 0x20(sp)
80002f16: e4aa         	sd	a0, 0x48(sp)
80002f18: 04b10923     	sb	a1, 0x52(sp)
80002f1c: 04c109a3     	sb	a2, 0x53(sp)
80002f20: 04d10a23     	sb	a3, 0x54(sp)
80002f24: 04e10aa3     	sb	a4, 0x55(sp)
80002f28: 4501         	li	a0, 0x0
80002f2a: 04a10b23     	sb	a0, 0x56(sp)
80002f2e: 04a10ba3     	sb	a0, 0x57(sp)
80002f32: 8536         	mv	a0, a3
80002f34: f42a         	sd	a0, 0x28(sp)
80002f36: 4511         	li	a0, 0x4
80002f38: 00a69763     	bne	a3, a0, 0x80002f46 <core::sync::atomic::AtomicBool::compare_exchange::hb26b1b318dd29b85+0x42>
80002f3c: a009         	j	0x80002f3e <core::sync::atomic::AtomicBool::compare_exchange::hb26b1b318dd29b85+0x3a>
80002f3e: 4511         	li	a0, 0x4
80002f40: 02a10a23     	sb	a0, 0x34(sp)
80002f44: a809         	j	0x80002f56 <core::sync::atomic::AtomicBool::compare_exchange::hb26b1b318dd29b85+0x52>
80002f46: 6542         	ld	a0, 0x10(sp)
80002f48: 0ff57513     	zext.b	a0, a0
80002f4c: e02a         	sd	a0, 0x0(sp)
80002f4e: 4591         	li	a1, 0x4
80002f50: 02b50063     	beq	a0, a1, 0x80002f70 <core::sync::atomic::AtomicBool::compare_exchange::hb26b1b318dd29b85+0x6c>
80002f54: a015         	j	0x80002f78 <core::sync::atomic::AtomicBool::compare_exchange::hb26b1b318dd29b85+0x74>
80002f56: 7502         	ld	a0, 0x20(sp)
80002f58: 65e2         	ld	a1, 0x18(sp)
80002f5a: 8d2d         	xor	a0, a0, a1
80002f5c: fff54513     	not	a0, a0
80002f60: 8905         	andi	a0, a0, 0x1
80002f62: 02a10b23     	sb	a0, 0x36(sp)
80002f66: 03614503     	lbu	a0, 0x36(sp)
80002f6a: 8905         	andi	a0, a0, 0x1
80002f6c: e51d         	bnez	a0, 0x80002f9a <core::sync::atomic::AtomicBool::compare_exchange::hb26b1b318dd29b85+0x96>
80002f6e: a811         	j	0x80002f82 <core::sync::atomic::AtomicBool::compare_exchange::hb26b1b318dd29b85+0x7e>
80002f70: 4511         	li	a0, 0x4
80002f72: 02a10a23     	sb	a0, 0x34(sp)
80002f76: b7c5         	j	0x80002f56 <core::sync::atomic::AtomicBool::compare_exchange::hb26b1b318dd29b85+0x52>
80002f78: 7522         	ld	a0, 0x28(sp)
80002f7a: 458d         	li	a1, 0x3
80002f7c: 04b50763     	beq	a0, a1, 0x80002fca <core::sync::atomic::AtomicBool::compare_exchange::hb26b1b318dd29b85+0xc6>
80002f80: a889         	j	0x80002fd2 <core::sync::atomic::AtomicBool::compare_exchange::hb26b1b318dd29b85+0xce>
80002f82: 6522         	ld	a0, 0x8(sp)
80002f84: 65e2         	ld	a1, 0x18(sp)
80002f86: 03414603     	lbu	a2, 0x34(sp)
80002f8a: 8985         	andi	a1, a1, 0x1
80002f8c: 00000097     	auipc	ra, 0x0
80002f90: 274080e7     	jalr	0x274(ra) <core::sync::atomic::AtomicBool::swap::hdf727bd307c0d4ff>
80002f94: 02a10aa3     	sb	a0, 0x35(sp)
80002f98: a2dd         	j	0x8000317e <.Lpcrel_hi3+0xbc>
80002f9a: 6522         	ld	a0, 0x8(sp)
80002f9c: e0aa         	sd	a0, 0x40(sp)
80002f9e: 6506         	ld	a0, 0x40(sp)
80002fa0: fc2a         	sd	a0, 0x38(sp)
80002fa2: 75e2         	ld	a1, 0x38(sp)
80002fa4: ffc5f513     	andi	a0, a1, -0x4
80002fa8: 0035959b     	slliw	a1, a1, 0x3
80002fac: 4601         	li	a2, 0x0
80002fae: 46c5252f     	amoor.w.aqrl	a0, a2, (a0)
80002fb2: 00b5553b     	srlw	a0, a0, a1
80002fb6: 02a10ba3     	sb	a0, 0x37(sp)
80002fba: a009         	j	0x80002fbc <core::sync::atomic::AtomicBool::compare_exchange::hb26b1b318dd29b85+0xb8>
80002fbc: 03714503     	lbu	a0, 0x37(sp)
80002fc0: 00a03533     	snez	a0, a0
80002fc4: 02a10aa3     	sb	a0, 0x35(sp)
80002fc8: aa5d         	j	0x8000317e <.Lpcrel_hi3+0xbc>
80002fca: 450d         	li	a0, 0x3
80002fcc: 02a10a23     	sb	a0, 0x34(sp)
80002fd0: a819         	j	0x80002fe6 <core::sync::atomic::AtomicBool::compare_exchange::hb26b1b318dd29b85+0xe2>
80002fd2: 6502         	ld	a0, 0x0(sp)
80002fd4: 4589         	li	a1, 0x2
80002fd6: 02b50a63     	beq	a0, a1, 0x8000300a <core::sync::atomic::AtomicBool::compare_exchange::hb26b1b318dd29b85+0x106>
80002fda: a009         	j	0x80002fdc <core::sync::atomic::AtomicBool::compare_exchange::hb26b1b318dd29b85+0xd8>
80002fdc: 6502         	ld	a0, 0x0(sp)
80002fde: 458d         	li	a1, 0x3
80002fe0: 02b50a63     	beq	a0, a1, 0x80003014 <.Lpcrel_hi0>
80002fe4: a831         	j	0x80003000 <core::sync::atomic::AtomicBool::compare_exchange::hb26b1b318dd29b85+0xfc>
80002fe6: 7502         	ld	a0, 0x20(sp)
80002fe8: 65e2         	ld	a1, 0x18(sp)
80002fea: 8d2d         	xor	a0, a0, a1
80002fec: fff54513     	not	a0, a0
80002ff0: 8905         	andi	a0, a0, 0x1
80002ff2: 02a10b23     	sb	a0, 0x36(sp)
80002ff6: 03614503     	lbu	a0, 0x36(sp)
80002ffa: 8905         	andi	a0, a0, 0x1
80002ffc: e539         	bnez	a0, 0x8000304a <.Lpcrel_hi1+0x26>
80002ffe: b751         	j	0x80002f82 <core::sync::atomic::AtomicBool::compare_exchange::hb26b1b318dd29b85+0x7e>
80003000: 7522         	ld	a0, 0x28(sp)
80003002: 4589         	li	a1, 0x2
80003004: 06b50463     	beq	a0, a1, 0x8000306c <.Lpcrel_hi1+0x48>
80003008: a895         	j	0x8000307c <.Lpcrel_hi1+0x58>
8000300a: 7522         	ld	a0, 0x28(sp)
8000300c: 4585         	li	a1, 0x1
8000300e: 02b50563     	beq	a0, a1, 0x80003038 <.Lpcrel_hi1+0x14>
80003012: a03d         	j	0x80003040 <.Lpcrel_hi1+0x1c>

0000000080003014 <.Lpcrel_hi0>:
80003014: 00003517     	auipc	a0, 0x3
80003018: 7b450513     	addi	a0, a0, 0x7b4
8000301c: ecaa         	sd	a0, 0x58(sp)
8000301e: 03d00593     	li	a1, 0x3d
80003022: f0ae         	sd	a1, 0x60(sp)

0000000080003024 <.Lpcrel_hi1>:
80003024: 00003597     	auipc	a1, 0x3
80003028: 7e458613     	addi	a2, a1, 0x7e4
8000302c: 07b00593     	li	a1, 0x7b
80003030: 00002097     	auipc	ra, 0x2
80003034: dec080e7     	jalr	-0x214(ra) <core::panicking::panic_fmt::h767dc8ac4dd44648>
80003038: 450d         	li	a0, 0x3
8000303a: 02a10a23     	sb	a0, 0x34(sp)
8000303e: b765         	j	0x80002fe6 <core::sync::atomic::AtomicBool::compare_exchange::hb26b1b318dd29b85+0xe2>
80003040: 7522         	ld	a0, 0x28(sp)
80003042: 4589         	li	a1, 0x2
80003044: 02b50463     	beq	a0, a1, 0x8000306c <.Lpcrel_hi1+0x48>
80003048: a035         	j	0x80003074 <.Lpcrel_hi1+0x50>
8000304a: 6522         	ld	a0, 0x8(sp)
8000304c: e0aa         	sd	a0, 0x40(sp)
8000304e: 6506         	ld	a0, 0x40(sp)
80003050: fc2a         	sd	a0, 0x38(sp)
80003052: 75e2         	ld	a1, 0x38(sp)
80003054: ffc5f513     	andi	a0, a1, -0x4
80003058: 0035959b     	slliw	a1, a1, 0x3
8000305c: 4601         	li	a2, 0x0
8000305e: 46c5252f     	amoor.w.aqrl	a0, a2, (a0)
80003062: 00b5553b     	srlw	a0, a0, a1
80003066: 02a10ba3     	sb	a0, 0x37(sp)
8000306a: bf89         	j	0x80002fbc <core::sync::atomic::AtomicBool::compare_exchange::hb26b1b318dd29b85+0xb8>
8000306c: 4509         	li	a0, 0x2
8000306e: 02a10a23     	sb	a0, 0x34(sp)
80003072: a831         	j	0x8000308e <.Lpcrel_hi1+0x6a>
80003074: 4509         	li	a0, 0x2
80003076: 02a10a23     	sb	a0, 0x34(sp)
8000307a: a811         	j	0x8000308e <.Lpcrel_hi1+0x6a>
8000307c: 6502         	ld	a0, 0x0(sp)
8000307e: c515         	beqz	a0, 0x800030aa <.Lpcrel_hi1+0x86>
80003080: a009         	j	0x80003082 <.Lpcrel_hi1+0x5e>
80003082: 6502         	ld	a0, 0x0(sp)
80003084: 4585         	li	a1, 0x1
80003086: 02b50663     	beq	a0, a1, 0x800030b2 <.Lpcrel_hi2>
8000308a: a009         	j	0x8000308c <.Lpcrel_hi1+0x68>
8000308c: b7e5         	j	0x80003074 <.Lpcrel_hi1+0x50>
8000308e: 7502         	ld	a0, 0x20(sp)
80003090: 65e2         	ld	a1, 0x18(sp)
80003092: 8d2d         	xor	a0, a0, a1
80003094: fff54513     	not	a0, a0
80003098: 8905         	andi	a0, a0, 0x1
8000309a: 02a10b23     	sb	a0, 0x36(sp)
8000309e: 03614503     	lbu	a0, 0x36(sp)
800030a2: 8905         	andi	a0, a0, 0x1
800030a4: ed45         	bnez	a0, 0x8000315c <.Lpcrel_hi3+0x9a>
800030a6: bdf1         	j	0x80002f82 <core::sync::atomic::AtomicBool::compare_exchange::hb26b1b318dd29b85+0x7e>
800030a8: 0000         	unimp
800030aa: 7522         	ld	a0, 0x28(sp)
800030ac: 8905         	andi	a0, a0, 0x1
800030ae: e505         	bnez	a0, 0x800030d6 <.Lpcrel_hi3+0x14>
800030b0: a099         	j	0x800030f6 <.Lpcrel_hi3+0x34>

00000000800030b2 <.Lpcrel_hi2>:
800030b2: 00003517     	auipc	a0, 0x3
800030b6: 76e50513     	addi	a0, a0, 0x76e
800030ba: f4aa         	sd	a0, 0x68(sp)
800030bc: 03400593     	li	a1, 0x34
800030c0: f8ae         	sd	a1, 0x70(sp)

00000000800030c2 <.Lpcrel_hi3>:
800030c2: 00003597     	auipc	a1, 0x3
800030c6: 79658613     	addi	a2, a1, 0x796
800030ca: 06900593     	li	a1, 0x69
800030ce: 00002097     	auipc	ra, 0x2
800030d2: d4e080e7     	jalr	-0x2b2(ra) <core::panicking::panic_fmt::h767dc8ac4dd44648>
800030d6: 7502         	ld	a0, 0x20(sp)
800030d8: 65e2         	ld	a1, 0x18(sp)
800030da: 4605         	li	a2, 0x1
800030dc: 02c10a23     	sb	a2, 0x34(sp)
800030e0: 8d2d         	xor	a0, a0, a1
800030e2: fff54513     	not	a0, a0
800030e6: 8905         	andi	a0, a0, 0x1
800030e8: 02a10b23     	sb	a0, 0x36(sp)
800030ec: 03614503     	lbu	a0, 0x36(sp)
800030f0: 8905         	andi	a0, a0, 0x1
800030f2: e521         	bnez	a0, 0x8000313a <.Lpcrel_hi3+0x78>
800030f4: b579         	j	0x80002f82 <core::sync::atomic::AtomicBool::compare_exchange::hb26b1b318dd29b85+0x7e>
800030f6: 7502         	ld	a0, 0x20(sp)
800030f8: 65e2         	ld	a1, 0x18(sp)
800030fa: 4601         	li	a2, 0x0
800030fc: 02c10a23     	sb	a2, 0x34(sp)
80003100: 8d2d         	xor	a0, a0, a1
80003102: fff54513     	not	a0, a0
80003106: 8905         	andi	a0, a0, 0x1
80003108: 02a10b23     	sb	a0, 0x36(sp)
8000310c: 03614503     	lbu	a0, 0x36(sp)
80003110: 8905         	andi	a0, a0, 0x1
80003112: e60508e3     	beqz	a0, 0x80002f82 <core::sync::atomic::AtomicBool::compare_exchange::hb26b1b318dd29b85+0x7e>
80003116: a009         	j	0x80003118 <.Lpcrel_hi3+0x56>
80003118: 6522         	ld	a0, 0x8(sp)
8000311a: e0aa         	sd	a0, 0x40(sp)
8000311c: 6506         	ld	a0, 0x40(sp)
8000311e: fc2a         	sd	a0, 0x38(sp)
80003120: 75e2         	ld	a1, 0x38(sp)
80003122: ffc5f513     	andi	a0, a1, -0x4
80003126: 0035959b     	slliw	a1, a1, 0x3
8000312a: 4601         	li	a2, 0x0
8000312c: 40c5252f     	amoor.w	a0, a2, (a0)
80003130: 00b5553b     	srlw	a0, a0, a1
80003134: 02a10ba3     	sb	a0, 0x37(sp)
80003138: b551         	j	0x80002fbc <core::sync::atomic::AtomicBool::compare_exchange::hb26b1b318dd29b85+0xb8>
8000313a: 6522         	ld	a0, 0x8(sp)
8000313c: e0aa         	sd	a0, 0x40(sp)
8000313e: 6506         	ld	a0, 0x40(sp)
80003140: fc2a         	sd	a0, 0x38(sp)
80003142: 75e2         	ld	a1, 0x38(sp)
80003144: ffc5f513     	andi	a0, a1, -0x4
80003148: 0035959b     	slliw	a1, a1, 0x3
8000314c: 4601         	li	a2, 0x0
8000314e: 42c5252f     	amoor.w.rl	a0, a2, (a0)
80003152: 00b5553b     	srlw	a0, a0, a1
80003156: 02a10ba3     	sb	a0, 0x37(sp)
8000315a: b58d         	j	0x80002fbc <core::sync::atomic::AtomicBool::compare_exchange::hb26b1b318dd29b85+0xb8>
8000315c: 6522         	ld	a0, 0x8(sp)
8000315e: e0aa         	sd	a0, 0x40(sp)
80003160: 6506         	ld	a0, 0x40(sp)
80003162: fc2a         	sd	a0, 0x38(sp)
80003164: 75e2         	ld	a1, 0x38(sp)
80003166: ffc5f513     	andi	a0, a1, -0x4
8000316a: 0035959b     	slliw	a1, a1, 0x3
8000316e: 4601         	li	a2, 0x0
80003170: 44c5252f     	amoor.w.aq	a0, a2, (a0)
80003174: 00b5553b     	srlw	a0, a0, a1
80003178: 02a10ba3     	sb	a0, 0x37(sp)
8000317c: b581         	j	0x80002fbc <core::sync::atomic::AtomicBool::compare_exchange::hb26b1b318dd29b85+0xb8>
8000317e: 7582         	ld	a1, 0x20(sp)
80003180: 03514503     	lbu	a0, 0x35(sp)
80003184: 8905         	andi	a0, a0, 0x1
80003186: 8985         	andi	a1, a1, 0x1
80003188: 00b50b63     	beq	a0, a1, 0x8000319e <.Lpcrel_hi3+0xdc>
8000318c: a009         	j	0x8000318e <.Lpcrel_hi3+0xcc>
8000318e: 03514503     	lbu	a0, 0x35(sp)
80003192: 02a109a3     	sb	a0, 0x33(sp)
80003196: 4505         	li	a0, 0x1
80003198: 02a10923     	sb	a0, 0x32(sp)
8000319c: a809         	j	0x800031ae <.Lpcrel_hi3+0xec>
8000319e: 03514503     	lbu	a0, 0x35(sp)
800031a2: 02a109a3     	sb	a0, 0x33(sp)
800031a6: 4501         	li	a0, 0x0
800031a8: 02a10923     	sb	a0, 0x32(sp)
800031ac: a009         	j	0x800031ae <.Lpcrel_hi3+0xec>
800031ae: 03214503     	lbu	a0, 0x32(sp)
800031b2: 03314583     	lbu	a1, 0x33(sp)
800031b6: 70e6         	ld	ra, 0x78(sp)
800031b8: 6109         	addi	sp, sp, 0x80
800031ba: 8082         	ret

00000000800031bc <core::sync::atomic::AtomicBool::compare_exchange_weak::h0a12d61d64a10783>:
800031bc: 1101         	addi	sp, sp, -0x20
800031be: ec06         	sd	ra, 0x18(sp)
800031c0: e42a         	sd	a0, 0x8(sp)
800031c2: 00b10a23     	sb	a1, 0x14(sp)
800031c6: 00c10aa3     	sb	a2, 0x15(sp)
800031ca: 00d10b23     	sb	a3, 0x16(sp)
800031ce: 00e10ba3     	sb	a4, 0x17(sp)
800031d2: 00000097     	auipc	ra, 0x0
800031d6: d32080e7     	jalr	-0x2ce(ra) <core::sync::atomic::AtomicBool::compare_exchange::hb26b1b318dd29b85>
800031da: 60e2         	ld	ra, 0x18(sp)
800031dc: 6105         	addi	sp, sp, 0x20
800031de: 8082         	ret

00000000800031e0 <core::sync::atomic::AtomicBool::load::h61d87e6f66d1143e>:
800031e0: 1101         	addi	sp, sp, -0x20
800031e2: ec06         	sd	ra, 0x18(sp)
800031e4: e42a         	sd	a0, 0x8(sp)
800031e6: 00b10ba3     	sb	a1, 0x17(sp)
800031ea: 00000097     	auipc	ra, 0x0
800031ee: 4aa080e7     	jalr	0x4aa(ra) <core::sync::atomic::atomic_load::h15919eed82dbf178>
800031f2: 0ff57513     	zext.b	a0, a0
800031f6: 00a03533     	snez	a0, a0
800031fa: 60e2         	ld	ra, 0x18(sp)
800031fc: 6105         	addi	sp, sp, 0x20
800031fe: 8082         	ret

0000000080003200 <core::sync::atomic::AtomicBool::swap::hdf727bd307c0d4ff>:
80003200: 715d         	addi	sp, sp, -0x50
80003202: ec2a         	sd	a0, 0x18(sp)
80003204: 86b2         	mv	a3, a2
80003206: f036         	sd	a3, 0x20(sp)
80003208: f82a         	sd	a0, 0x30(sp)
8000320a: 02b10d23     	sb	a1, 0x3a(sp)
8000320e: 02c10da3     	sb	a2, 0x3b(sp)
80003212: 4505         	li	a0, 0x1
80003214: 02a10e23     	sb	a0, 0x3c(sp)
80003218: 02a10ea3     	sb	a0, 0x3d(sp)
8000321c: 4501         	li	a0, 0x0
8000321e: 02a10f23     	sb	a0, 0x3e(sp)
80003222: 02a10fa3     	sb	a0, 0x3f(sp)
80003226: e195         	bnez	a1, 0x8000324a <.Lpcrel_hi4+0xe>
80003228: a009         	j	0x8000322a <core::sync::atomic::AtomicBool::swap::hdf727bd307c0d4ff+0x2a>
8000322a: 7502         	ld	a0, 0x20(sp)
8000322c: 65e2         	ld	a1, 0x18(sp)
8000322e: e0ae         	sd	a1, 0x40(sp)
80003230: 0ff57513     	zext.b	a0, a0
80003234: e82a         	sd	a0, 0x10(sp)
80003236: 6542         	ld	a0, 0x10(sp)
80003238: 00351593     	slli	a1, a0, 0x3

000000008000323c <.Lpcrel_hi4>:
8000323c: 00003517     	auipc	a0, 0x3
80003240: 47450513     	addi	a0, a0, 0x474
80003244: 952e         	add	a0, a0, a1
80003246: 6108         	ld	a0, 0x0(a0)
80003248: 8502         	jr	a0
8000324a: 7502         	ld	a0, 0x20(sp)
8000324c: 65e2         	ld	a1, 0x18(sp)
8000324e: e4ae         	sd	a1, 0x48(sp)
80003250: 0ff57513     	zext.b	a0, a0
80003254: e42a         	sd	a0, 0x8(sp)
80003256: 6522         	ld	a0, 0x8(sp)
80003258: 00351593     	slli	a1, a0, 0x3

000000008000325c <.Lpcrel_hi5>:
8000325c: 00003517     	auipc	a0, 0x3
80003260: 47c50513     	addi	a0, a0, 0x47c
80003264: 952e         	add	a0, a0, a1
80003266: 6108         	ld	a0, 0x0(a0)
80003268: 8502         	jr	a0
8000326a: 0000         	unimp
8000326c: 65e2         	ld	a1, 0x18(sp)
8000326e: ffc5f513     	andi	a0, a1, -0x4
80003272: 0035959b     	slliw	a1, a1, 0x3
80003276: 0ff00613     	li	a2, 0xff
8000327a: 00b6163b     	sllw	a2, a2, a1
8000327e: fff64613     	not	a2, a2
80003282: 60c5252f     	amoand.w	a0, a2, (a0)
80003286: 00b5553b     	srlw	a0, a0, a1
8000328a: 02a107a3     	sb	a0, 0x2f(sp)
8000328e: a849         	j	0x80003320 <.Lpcrel_hi5+0xc4>
80003290: 65e2         	ld	a1, 0x18(sp)
80003292: ffc5f513     	andi	a0, a1, -0x4
80003296: 0035959b     	slliw	a1, a1, 0x3
8000329a: 0ff00613     	li	a2, 0xff
8000329e: 00b6163b     	sllw	a2, a2, a1
800032a2: fff64613     	not	a2, a2
800032a6: 62c5252f     	amoand.w.rl	a0, a2, (a0)
800032aa: 00b5553b     	srlw	a0, a0, a1
800032ae: 02a107a3     	sb	a0, 0x2f(sp)
800032b2: a0bd         	j	0x80003320 <.Lpcrel_hi5+0xc4>
800032b4: 65e2         	ld	a1, 0x18(sp)
800032b6: ffc5f513     	andi	a0, a1, -0x4
800032ba: 0035959b     	slliw	a1, a1, 0x3
800032be: 0ff00613     	li	a2, 0xff
800032c2: 00b6163b     	sllw	a2, a2, a1
800032c6: fff64613     	not	a2, a2
800032ca: 64c5252f     	amoand.w.aq	a0, a2, (a0)
800032ce: 00b5553b     	srlw	a0, a0, a1
800032d2: 02a107a3     	sb	a0, 0x2f(sp)
800032d6: a0a9         	j	0x80003320 <.Lpcrel_hi5+0xc4>
800032d8: 65e2         	ld	a1, 0x18(sp)
800032da: ffc5f513     	andi	a0, a1, -0x4
800032de: 0035959b     	slliw	a1, a1, 0x3
800032e2: 0ff00613     	li	a2, 0xff
800032e6: 00b6163b     	sllw	a2, a2, a1
800032ea: fff64613     	not	a2, a2
800032ee: 66c5252f     	amoand.w.aqrl	a0, a2, (a0)
800032f2: 00b5553b     	srlw	a0, a0, a1
800032f6: 02a107a3     	sb	a0, 0x2f(sp)
800032fa: a01d         	j	0x80003320 <.Lpcrel_hi5+0xc4>
800032fc: 65e2         	ld	a1, 0x18(sp)
800032fe: ffc5f513     	andi	a0, a1, -0x4
80003302: 0035959b     	slliw	a1, a1, 0x3
80003306: 0ff00613     	li	a2, 0xff
8000330a: 00b6163b     	sllw	a2, a2, a1
8000330e: fff64613     	not	a2, a2
80003312: 66c5252f     	amoand.w.aqrl	a0, a2, (a0)
80003316: 00b5553b     	srlw	a0, a0, a1
8000331a: 02a107a3     	sb	a0, 0x2f(sp)
8000331e: a009         	j	0x80003320 <.Lpcrel_hi5+0xc4>
80003320: 02f14503     	lbu	a0, 0x2f(sp)
80003324: 00a03533     	snez	a0, a0
80003328: 02a106a3     	sb	a0, 0x2d(sp)
8000332c: a009         	j	0x8000332e <.Lpcrel_hi5+0xd2>
8000332e: 02d14503     	lbu	a0, 0x2d(sp)
80003332: 6161         	addi	sp, sp, 0x50
80003334: 8082         	ret
80003336: 65e2         	ld	a1, 0x18(sp)
80003338: ffc5f513     	andi	a0, a1, -0x4
8000333c: 0035959b     	slliw	a1, a1, 0x3
80003340: 4605         	li	a2, 0x1
80003342: 00b6163b     	sllw	a2, a2, a1
80003346: 40c5252f     	amoor.w	a0, a2, (a0)
8000334a: 00b5553b     	srlw	a0, a0, a1
8000334e: 02a10723     	sb	a0, 0x2e(sp)
80003352: a8ad         	j	0x800033cc <.Lpcrel_hi5+0x170>
80003354: 65e2         	ld	a1, 0x18(sp)
80003356: ffc5f513     	andi	a0, a1, -0x4
8000335a: 0035959b     	slliw	a1, a1, 0x3
8000335e: 4605         	li	a2, 0x1
80003360: 00b6163b     	sllw	a2, a2, a1
80003364: 42c5252f     	amoor.w.rl	a0, a2, (a0)
80003368: 00b5553b     	srlw	a0, a0, a1
8000336c: 02a10723     	sb	a0, 0x2e(sp)
80003370: a8b1         	j	0x800033cc <.Lpcrel_hi5+0x170>
80003372: 65e2         	ld	a1, 0x18(sp)
80003374: ffc5f513     	andi	a0, a1, -0x4
80003378: 0035959b     	slliw	a1, a1, 0x3
8000337c: 4605         	li	a2, 0x1
8000337e: 00b6163b     	sllw	a2, a2, a1
80003382: 44c5252f     	amoor.w.aq	a0, a2, (a0)
80003386: 00b5553b     	srlw	a0, a0, a1
8000338a: 02a10723     	sb	a0, 0x2e(sp)
8000338e: a83d         	j	0x800033cc <.Lpcrel_hi5+0x170>
80003390: 65e2         	ld	a1, 0x18(sp)
80003392: ffc5f513     	andi	a0, a1, -0x4
80003396: 0035959b     	slliw	a1, a1, 0x3
8000339a: 4605         	li	a2, 0x1
8000339c: 00b6163b     	sllw	a2, a2, a1
800033a0: 46c5252f     	amoor.w.aqrl	a0, a2, (a0)
800033a4: 00b5553b     	srlw	a0, a0, a1
800033a8: 02a10723     	sb	a0, 0x2e(sp)
800033ac: a005         	j	0x800033cc <.Lpcrel_hi5+0x170>
800033ae: 65e2         	ld	a1, 0x18(sp)
800033b0: ffc5f513     	andi	a0, a1, -0x4
800033b4: 0035959b     	slliw	a1, a1, 0x3
800033b8: 4605         	li	a2, 0x1
800033ba: 00b6163b     	sllw	a2, a2, a1
800033be: 46c5252f     	amoor.w.aqrl	a0, a2, (a0)
800033c2: 00b5553b     	srlw	a0, a0, a1
800033c6: 02a10723     	sb	a0, 0x2e(sp)
800033ca: a009         	j	0x800033cc <.Lpcrel_hi5+0x170>
800033cc: 02e14503     	lbu	a0, 0x2e(sp)
800033d0: 00a03533     	snez	a0, a0
800033d4: 02a106a3     	sb	a0, 0x2d(sp)
800033d8: bf99         	j	0x8000332e <.Lpcrel_hi5+0xd2>

00000000800033da <core::sync::atomic::AtomicBool::store::h599594f597f0706b>:
800033da: 1101         	addi	sp, sp, -0x20
800033dc: ec06         	sd	ra, 0x18(sp)
800033de: e42a         	sd	a0, 0x8(sp)
800033e0: 00b10b23     	sb	a1, 0x16(sp)
800033e4: 00c10ba3     	sb	a2, 0x17(sp)
800033e8: 00000097     	auipc	ra, 0x0
800033ec: 476080e7     	jalr	0x476(ra) <core::sync::atomic::atomic_store::h0db7ad23a9683de4>
800033f0: 60e2         	ld	ra, 0x18(sp)
800033f2: 6105         	addi	sp, sp, 0x20
800033f4: 8082         	ret

00000000800033f6 <core::sync::atomic::AtomicUsize::load::h01085caffe0799e0>:
800033f6: 1101         	addi	sp, sp, -0x20
800033f8: ec06         	sd	ra, 0x18(sp)
800033fa: e42a         	sd	a0, 0x8(sp)
800033fc: 00b10ba3     	sb	a1, 0x17(sp)
80003400: 00000097     	auipc	ra, 0x0
80003404: 3ca080e7     	jalr	0x3ca(ra) <core::sync::atomic::atomic_load::hc2d6507b5824663b>
80003408: 60e2         	ld	ra, 0x18(sp)
8000340a: 6105         	addi	sp, sp, 0x20
8000340c: 8082         	ret

000000008000340e <core::sync::atomic::AtomicUsize::store::h36a8c1ce4042fe8a>:
8000340e: 1101         	addi	sp, sp, -0x20
80003410: ec06         	sd	ra, 0x18(sp)
80003412: e02a         	sd	a0, 0x0(sp)
80003414: e42e         	sd	a1, 0x8(sp)
80003416: 00c10ba3     	sb	a2, 0x17(sp)
8000341a: 00000097     	auipc	ra, 0x0
8000341e: 57a080e7     	jalr	0x57a(ra) <core::sync::atomic::atomic_store::h65c785609310680a>
80003422: 60e2         	ld	ra, 0x18(sp)
80003424: 6105         	addi	sp, sp, 0x20
80003426: 8082         	ret

0000000080003428 <core::sync::atomic::AtomicUsize::fetch_or::he2428ef25d47e925>:
80003428: 7139         	addi	sp, sp, -0x40
8000342a: e02e         	sd	a1, 0x0(sp)
8000342c: e42a         	sd	a0, 0x8(sp)
8000342e: f02a         	sd	a0, 0x20(sp)
80003430: f42e         	sd	a1, 0x28(sp)
80003432: 02c10ba3     	sb	a2, 0x37(sp)
80003436: fc2a         	sd	a0, 0x38(sp)
80003438: e832         	sd	a2, 0x10(sp)
8000343a: 6542         	ld	a0, 0x10(sp)
8000343c: 00351593     	slli	a1, a0, 0x3

0000000080003440 <.Lpcrel_hi6>:
80003440: 00003517     	auipc	a0, 0x3
80003444: 2c050513     	addi	a0, a0, 0x2c0
80003448: 952e         	add	a0, a0, a1
8000344a: 6108         	ld	a0, 0x0(a0)
8000344c: 8502         	jr	a0
8000344e: 0000         	unimp
80003450: 6522         	ld	a0, 0x8(sp)
80003452: 6582         	ld	a1, 0x0(sp)
80003454: 40b5352f     	amoor.d	a0, a1, (a0)
80003458: ec2a         	sd	a0, 0x18(sp)
8000345a: a80d         	j	0x8000348c <.Lpcrel_hi6+0x4c>
8000345c: 6522         	ld	a0, 0x8(sp)
8000345e: 6582         	ld	a1, 0x0(sp)
80003460: 42b5352f     	amoor.d.rl	a0, a1, (a0)
80003464: ec2a         	sd	a0, 0x18(sp)
80003466: a01d         	j	0x8000348c <.Lpcrel_hi6+0x4c>
80003468: 6522         	ld	a0, 0x8(sp)
8000346a: 6582         	ld	a1, 0x0(sp)
8000346c: 44b5352f     	amoor.d.aq	a0, a1, (a0)
80003470: ec2a         	sd	a0, 0x18(sp)
80003472: a829         	j	0x8000348c <.Lpcrel_hi6+0x4c>
80003474: 6522         	ld	a0, 0x8(sp)
80003476: 6582         	ld	a1, 0x0(sp)
80003478: 46b5352f     	amoor.d.aqrl	a0, a1, (a0)
8000347c: ec2a         	sd	a0, 0x18(sp)
8000347e: a039         	j	0x8000348c <.Lpcrel_hi6+0x4c>
80003480: 6522         	ld	a0, 0x8(sp)
80003482: 6582         	ld	a1, 0x0(sp)
80003484: 46b5352f     	amoor.d.aqrl	a0, a1, (a0)
80003488: ec2a         	sd	a0, 0x18(sp)
8000348a: a009         	j	0x8000348c <.Lpcrel_hi6+0x4c>
8000348c: 6562         	ld	a0, 0x18(sp)
8000348e: 6121         	addi	sp, sp, 0x40
80003490: 8082         	ret

0000000080003492 <core::sync::atomic::AtomicUsize::fetch_add::hae86e4587c5e2d8e>:
80003492: 7139         	addi	sp, sp, -0x40
80003494: e02e         	sd	a1, 0x0(sp)
80003496: e42a         	sd	a0, 0x8(sp)
80003498: f02a         	sd	a0, 0x20(sp)
8000349a: f42e         	sd	a1, 0x28(sp)
8000349c: 02c10ba3     	sb	a2, 0x37(sp)
800034a0: fc2a         	sd	a0, 0x38(sp)
800034a2: e832         	sd	a2, 0x10(sp)
800034a4: 6542         	ld	a0, 0x10(sp)
800034a6: 00351593     	slli	a1, a0, 0x3

00000000800034aa <.Lpcrel_hi7>:
800034aa: 00003517     	auipc	a0, 0x3
800034ae: 27e50513     	addi	a0, a0, 0x27e
800034b2: 952e         	add	a0, a0, a1
800034b4: 6108         	ld	a0, 0x0(a0)
800034b6: 8502         	jr	a0
800034b8: 0000         	unimp
800034ba: 6522         	ld	a0, 0x8(sp)
800034bc: 6582         	ld	a1, 0x0(sp)
800034be: 00b5352f     	amoadd.d	a0, a1, (a0)
800034c2: ec2a         	sd	a0, 0x18(sp)
800034c4: a80d         	j	0x800034f6 <.Lpcrel_hi7+0x4c>
800034c6: 6522         	ld	a0, 0x8(sp)
800034c8: 6582         	ld	a1, 0x0(sp)
800034ca: 02b5352f     	amoadd.d.rl	a0, a1, (a0)
800034ce: ec2a         	sd	a0, 0x18(sp)
800034d0: a01d         	j	0x800034f6 <.Lpcrel_hi7+0x4c>
800034d2: 6522         	ld	a0, 0x8(sp)
800034d4: 6582         	ld	a1, 0x0(sp)
800034d6: 04b5352f     	amoadd.d.aq	a0, a1, (a0)
800034da: ec2a         	sd	a0, 0x18(sp)
800034dc: a829         	j	0x800034f6 <.Lpcrel_hi7+0x4c>
800034de: 6522         	ld	a0, 0x8(sp)
800034e0: 6582         	ld	a1, 0x0(sp)
800034e2: 06b5352f     	amoadd.d.aqrl	a0, a1, (a0)
800034e6: ec2a         	sd	a0, 0x18(sp)
800034e8: a039         	j	0x800034f6 <.Lpcrel_hi7+0x4c>
800034ea: 6522         	ld	a0, 0x8(sp)
800034ec: 6582         	ld	a1, 0x0(sp)
800034ee: 06b5352f     	amoadd.d.aqrl	a0, a1, (a0)
800034f2: ec2a         	sd	a0, 0x18(sp)
800034f4: a009         	j	0x800034f6 <.Lpcrel_hi7+0x4c>
800034f6: 6562         	ld	a0, 0x18(sp)
800034f8: 6121         	addi	sp, sp, 0x40
800034fa: 8082         	ret

00000000800034fc <core::sync::atomic::fence::h07d489e6ef4c0a32>:
800034fc: 1101         	addi	sp, sp, -0x20
800034fe: 00a107a3     	sb	a0, 0xf(sp)
80003502: e02a         	sd	a0, 0x0(sp)
80003504: 6502         	ld	a0, 0x0(sp)
80003506: 00351593     	slli	a1, a0, 0x3

000000008000350a <.Lpcrel_hi8>:
8000350a: 00003517     	auipc	a0, 0x3
8000350e: 24650513     	addi	a0, a0, 0x246
80003512: 952e         	add	a0, a0, a1
80003514: 6108         	ld	a0, 0x0(a0)
80003516: 8502         	jr	a0
80003518: 0000         	unimp

000000008000351a <.Lpcrel_hi9>:
8000351a: 00003517     	auipc	a0, 0x3
8000351e: 35650513     	addi	a0, a0, 0x356
80003522: e82a         	sd	a0, 0x10(sp)
80003524: 02900593     	li	a1, 0x29
80003528: ec2e         	sd	a1, 0x18(sp)

000000008000352a <.Lpcrel_hi10>:
8000352a: 00003597     	auipc	a1, 0x3
8000352e: 37658613     	addi	a2, a1, 0x376
80003532: 05300593     	li	a1, 0x53
80003536: 00002097     	auipc	ra, 0x2
8000353a: 8e6080e7     	jalr	-0x71a(ra) <core::panicking::panic_fmt::h767dc8ac4dd44648>
8000353e: 0310000f     	fence	rw, w
80003542: a811         	j	0x80003556 <.Lpcrel_hi10+0x2c>
80003544: 0230000f     	fence	r, rw
80003548: a039         	j	0x80003556 <.Lpcrel_hi10+0x2c>
8000354a: 8330000f     	fence.tso
8000354e: a021         	j	0x80003556 <.Lpcrel_hi10+0x2c>
80003550: 0330000f     	fence	rw, rw
80003554: a009         	j	0x80003556 <.Lpcrel_hi10+0x2c>
80003556: 6105         	addi	sp, sp, 0x20
80003558: 8082         	ret

000000008000355a <core::sync::atomic::AtomicU64::compare_exchange_weak::h8bc941950654d97a>:
8000355a: 7179         	addi	sp, sp, -0x30
8000355c: f406         	sd	ra, 0x28(sp)
8000355e: e42a         	sd	a0, 0x8(sp)
80003560: e82e         	sd	a1, 0x10(sp)
80003562: ec32         	sd	a2, 0x18(sp)
80003564: 02d10323     	sb	a3, 0x26(sp)
80003568: 02e103a3     	sb	a4, 0x27(sp)
8000356c: 00000097     	auipc	ra, 0x0
80003570: 4be080e7     	jalr	0x4be(ra) <core::sync::atomic::atomic_compare_exchange_weak::hd973d583017b11d7>
80003574: 70a2         	ld	ra, 0x28(sp)
80003576: 6145         	addi	sp, sp, 0x30
80003578: 8082         	ret

000000008000357a <core::sync::atomic::AtomicU64::load::h21c7385feb3db3ed>:
8000357a: 1101         	addi	sp, sp, -0x20
8000357c: ec06         	sd	ra, 0x18(sp)
8000357e: e42a         	sd	a0, 0x8(sp)
80003580: 00b10ba3     	sb	a1, 0x17(sp)
80003584: 00000097     	auipc	ra, 0x0
80003588: 1b2080e7     	jalr	0x1b2(ra) <core::sync::atomic::atomic_load::ha9384aa7ac804123>
8000358c: 60e2         	ld	ra, 0x18(sp)
8000358e: 6105         	addi	sp, sp, 0x20
80003590: 8082         	ret

0000000080003592 <core::sync::atomic::AtomicU64::store::hff0f936c3127984b>:
80003592: 1101         	addi	sp, sp, -0x20
80003594: ec06         	sd	ra, 0x18(sp)
80003596: e02a         	sd	a0, 0x0(sp)
80003598: e42e         	sd	a1, 0x8(sp)
8000359a: 00c10ba3     	sb	a2, 0x17(sp)
8000359e: 00000097     	auipc	ra, 0x0
800035a2: 360080e7     	jalr	0x360(ra) <core::sync::atomic::atomic_store::h2c3660b55c314c50>
800035a6: 60e2         	ld	ra, 0x18(sp)
800035a8: 6105         	addi	sp, sp, 0x20
800035aa: 8082         	ret

00000000800035ac <core::sync::atomic::AtomicU64::fetch_add::ha0aca473a513c11b>:
800035ac: 7139         	addi	sp, sp, -0x40
800035ae: e02e         	sd	a1, 0x0(sp)
800035b0: e42a         	sd	a0, 0x8(sp)
800035b2: f02a         	sd	a0, 0x20(sp)
800035b4: f42e         	sd	a1, 0x28(sp)
800035b6: 02c10ba3     	sb	a2, 0x37(sp)
800035ba: fc2a         	sd	a0, 0x38(sp)
800035bc: e832         	sd	a2, 0x10(sp)
800035be: 6542         	ld	a0, 0x10(sp)
800035c0: 00351593     	slli	a1, a0, 0x3

00000000800035c4 <.Lpcrel_hi11>:
800035c4: 00003517     	auipc	a0, 0x3
800035c8: 1b450513     	addi	a0, a0, 0x1b4
800035cc: 952e         	add	a0, a0, a1
800035ce: 6108         	ld	a0, 0x0(a0)
800035d0: 8502         	jr	a0
800035d2: 0000         	unimp
800035d4: 6522         	ld	a0, 0x8(sp)
800035d6: 6582         	ld	a1, 0x0(sp)
800035d8: 00b5352f     	amoadd.d	a0, a1, (a0)
800035dc: ec2a         	sd	a0, 0x18(sp)
800035de: a80d         	j	0x80003610 <.Lpcrel_hi11+0x4c>
800035e0: 6522         	ld	a0, 0x8(sp)
800035e2: 6582         	ld	a1, 0x0(sp)
800035e4: 02b5352f     	amoadd.d.rl	a0, a1, (a0)
800035e8: ec2a         	sd	a0, 0x18(sp)
800035ea: a01d         	j	0x80003610 <.Lpcrel_hi11+0x4c>
800035ec: 6522         	ld	a0, 0x8(sp)
800035ee: 6582         	ld	a1, 0x0(sp)
800035f0: 04b5352f     	amoadd.d.aq	a0, a1, (a0)
800035f4: ec2a         	sd	a0, 0x18(sp)
800035f6: a829         	j	0x80003610 <.Lpcrel_hi11+0x4c>
800035f8: 6522         	ld	a0, 0x8(sp)
800035fa: 6582         	ld	a1, 0x0(sp)
800035fc: 06b5352f     	amoadd.d.aqrl	a0, a1, (a0)
80003600: ec2a         	sd	a0, 0x18(sp)
80003602: a039         	j	0x80003610 <.Lpcrel_hi11+0x4c>
80003604: 6522         	ld	a0, 0x8(sp)
80003606: 6582         	ld	a1, 0x0(sp)
80003608: 06b5352f     	amoadd.d.aqrl	a0, a1, (a0)
8000360c: ec2a         	sd	a0, 0x18(sp)
8000360e: a009         	j	0x80003610 <.Lpcrel_hi11+0x4c>
80003610: 6562         	ld	a0, 0x18(sp)
80003612: 6121         	addi	sp, sp, 0x40
80003614: 8082         	ret

0000000080003616 <core::sync::atomic::AtomicU64::fetch_sub::ha6c5c7765d81d8e2>:
80003616: 7139         	addi	sp, sp, -0x40
80003618: e02e         	sd	a1, 0x0(sp)
8000361a: e42a         	sd	a0, 0x8(sp)
8000361c: f02a         	sd	a0, 0x20(sp)
8000361e: f42e         	sd	a1, 0x28(sp)
80003620: 02c10ba3     	sb	a2, 0x37(sp)
80003624: fc2a         	sd	a0, 0x38(sp)
80003626: e832         	sd	a2, 0x10(sp)
80003628: 6542         	ld	a0, 0x10(sp)
8000362a: 00351593     	slli	a1, a0, 0x3

000000008000362e <.Lpcrel_hi12>:
8000362e: 00003517     	auipc	a0, 0x3
80003632: 17250513     	addi	a0, a0, 0x172
80003636: 952e         	add	a0, a0, a1
80003638: 6108         	ld	a0, 0x0(a0)
8000363a: 8502         	jr	a0
8000363c: 0000         	unimp
8000363e: 6522         	ld	a0, 0x8(sp)
80003640: 6602         	ld	a2, 0x0(sp)
80003642: 4581         	li	a1, 0x0
80003644: 8d91         	sub	a1, a1, a2
80003646: 00b5352f     	amoadd.d	a0, a1, (a0)
8000364a: ec2a         	sd	a0, 0x18(sp)
8000364c: a089         	j	0x8000368e <.Lpcrel_hi12+0x60>
8000364e: 6522         	ld	a0, 0x8(sp)
80003650: 6602         	ld	a2, 0x0(sp)
80003652: 4581         	li	a1, 0x0
80003654: 8d91         	sub	a1, a1, a2
80003656: 02b5352f     	amoadd.d.rl	a0, a1, (a0)
8000365a: ec2a         	sd	a0, 0x18(sp)
8000365c: a80d         	j	0x8000368e <.Lpcrel_hi12+0x60>
8000365e: 6522         	ld	a0, 0x8(sp)
80003660: 6602         	ld	a2, 0x0(sp)
80003662: 4581         	li	a1, 0x0
80003664: 8d91         	sub	a1, a1, a2
80003666: 04b5352f     	amoadd.d.aq	a0, a1, (a0)
8000366a: ec2a         	sd	a0, 0x18(sp)
8000366c: a00d         	j	0x8000368e <.Lpcrel_hi12+0x60>
8000366e: 6522         	ld	a0, 0x8(sp)
80003670: 6602         	ld	a2, 0x0(sp)
80003672: 4581         	li	a1, 0x0
80003674: 8d91         	sub	a1, a1, a2
80003676: 06b5352f     	amoadd.d.aqrl	a0, a1, (a0)
8000367a: ec2a         	sd	a0, 0x18(sp)
8000367c: a809         	j	0x8000368e <.Lpcrel_hi12+0x60>
8000367e: 6522         	ld	a0, 0x8(sp)
80003680: 6602         	ld	a2, 0x0(sp)
80003682: 4581         	li	a1, 0x0
80003684: 8d91         	sub	a1, a1, a2
80003686: 06b5352f     	amoadd.d.aqrl	a0, a1, (a0)
8000368a: ec2a         	sd	a0, 0x18(sp)
8000368c: a009         	j	0x8000368e <.Lpcrel_hi12+0x60>
8000368e: 6562         	ld	a0, 0x18(sp)
80003690: 6121         	addi	sp, sp, 0x40
80003692: 8082         	ret

0000000080003694 <core::sync::atomic::atomic_load::h15919eed82dbf178>:
80003694: 715d         	addi	sp, sp, -0x50
80003696: e42a         	sd	a0, 0x8(sp)
80003698: f02a         	sd	a0, 0x20(sp)
8000369a: 02b107a3     	sb	a1, 0x2f(sp)
8000369e: e82e         	sd	a1, 0x10(sp)
800036a0: 6542         	ld	a0, 0x10(sp)
800036a2: 00351593     	slli	a1, a0, 0x3

00000000800036a6 <.Lpcrel_hi0>:
800036a6: 00003517     	auipc	a0, 0x3
800036aa: 21250513     	addi	a0, a0, 0x212
800036ae: 952e         	add	a0, a0, a1
800036b0: 6108         	ld	a0, 0x0(a0)
800036b2: 8502         	jr	a0
800036b4: 0000         	unimp
800036b6: 6522         	ld	a0, 0x8(sp)
800036b8: 00050503     	lb	a0, 0x0(a0)
800036bc: 00a10fa3     	sb	a0, 0x1f(sp)
800036c0: a0bd         	j	0x8000372e <.Lpcrel_hi4+0x28>

00000000800036c2 <.Lpcrel_hi1>:
800036c2: 00003517     	auipc	a0, 0x3
800036c6: 30e50513     	addi	a0, a0, 0x30e
800036ca: f82a         	sd	a0, 0x30(sp)
800036cc: 02800593     	li	a1, 0x28
800036d0: fc2e         	sd	a1, 0x38(sp)

00000000800036d2 <.Lpcrel_hi2>:
800036d2: 00003597     	auipc	a1, 0x3
800036d6: 32658613     	addi	a2, a1, 0x326
800036da: 05100593     	li	a1, 0x51
800036de: 00001097     	auipc	ra, 0x1
800036e2: 73e080e7     	jalr	0x73e(ra) <core::panicking::panic_fmt::h767dc8ac4dd44648>
800036e6: 6522         	ld	a0, 0x8(sp)
800036e8: 00050503     	lb	a0, 0x0(a0)
800036ec: 0230000f     	fence	r, rw
800036f0: 00a10fa3     	sb	a0, 0x1f(sp)
800036f4: a82d         	j	0x8000372e <.Lpcrel_hi4+0x28>

00000000800036f6 <.Lpcrel_hi3>:
800036f6: 00003517     	auipc	a0, 0x3
800036fa: 31a50513     	addi	a0, a0, 0x31a
800036fe: e0aa         	sd	a0, 0x40(sp)
80003700: 03100593     	li	a1, 0x31
80003704: e4ae         	sd	a1, 0x48(sp)

0000000080003706 <.Lpcrel_hi4>:
80003706: 00003597     	auipc	a1, 0x3
8000370a: 34258613     	addi	a2, a1, 0x342
8000370e: 06300593     	li	a1, 0x63
80003712: 00001097     	auipc	ra, 0x1
80003716: 70a080e7     	jalr	0x70a(ra) <core::panicking::panic_fmt::h767dc8ac4dd44648>
8000371a: 6522         	ld	a0, 0x8(sp)
8000371c: 0330000f     	fence	rw, rw
80003720: 00050503     	lb	a0, 0x0(a0)
80003724: 0230000f     	fence	r, rw
80003728: 00a10fa3     	sb	a0, 0x1f(sp)
8000372c: a009         	j	0x8000372e <.Lpcrel_hi4+0x28>
8000372e: 01f14503     	lbu	a0, 0x1f(sp)
80003732: 6161         	addi	sp, sp, 0x50
80003734: 8082         	ret

0000000080003736 <core::sync::atomic::atomic_load::ha9384aa7ac804123>:
80003736: 715d         	addi	sp, sp, -0x50
80003738: e42a         	sd	a0, 0x8(sp)
8000373a: f02a         	sd	a0, 0x20(sp)
8000373c: 02b107a3     	sb	a1, 0x2f(sp)
80003740: e82e         	sd	a1, 0x10(sp)
80003742: 6542         	ld	a0, 0x10(sp)
80003744: 00351593     	slli	a1, a0, 0x3

0000000080003748 <.Lpcrel_hi5>:
80003748: 00003517     	auipc	a0, 0x3
8000374c: 19850513     	addi	a0, a0, 0x198
80003750: 952e         	add	a0, a0, a1
80003752: 6108         	ld	a0, 0x0(a0)
80003754: 8502         	jr	a0
80003756: 0000         	unimp
80003758: 6522         	ld	a0, 0x8(sp)
8000375a: 6108         	ld	a0, 0x0(a0)
8000375c: ec2a         	sd	a0, 0x18(sp)
8000375e: a09d         	j	0x800037c4 <.Lpcrel_hi9+0x24>

0000000080003760 <.Lpcrel_hi6>:
80003760: 00003517     	auipc	a0, 0x3
80003764: 27050513     	addi	a0, a0, 0x270
80003768: f82a         	sd	a0, 0x30(sp)
8000376a: 02800593     	li	a1, 0x28
8000376e: fc2e         	sd	a1, 0x38(sp)

0000000080003770 <.Lpcrel_hi7>:
80003770: 00003597     	auipc	a1, 0x3
80003774: 28858613     	addi	a2, a1, 0x288
80003778: 05100593     	li	a1, 0x51
8000377c: 00001097     	auipc	ra, 0x1
80003780: 6a0080e7     	jalr	0x6a0(ra) <core::panicking::panic_fmt::h767dc8ac4dd44648>
80003784: 6522         	ld	a0, 0x8(sp)
80003786: 6108         	ld	a0, 0x0(a0)
80003788: 0230000f     	fence	r, rw
8000378c: ec2a         	sd	a0, 0x18(sp)
8000378e: a81d         	j	0x800037c4 <.Lpcrel_hi9+0x24>

0000000080003790 <.Lpcrel_hi8>:
80003790: 00003517     	auipc	a0, 0x3
80003794: 28050513     	addi	a0, a0, 0x280
80003798: e0aa         	sd	a0, 0x40(sp)
8000379a: 03100593     	li	a1, 0x31
8000379e: e4ae         	sd	a1, 0x48(sp)

00000000800037a0 <.Lpcrel_hi9>:
800037a0: 00003597     	auipc	a1, 0x3
800037a4: 2a858613     	addi	a2, a1, 0x2a8
800037a8: 06300593     	li	a1, 0x63
800037ac: 00001097     	auipc	ra, 0x1
800037b0: 670080e7     	jalr	0x670(ra) <core::panicking::panic_fmt::h767dc8ac4dd44648>
800037b4: 6522         	ld	a0, 0x8(sp)
800037b6: 0330000f     	fence	rw, rw
800037ba: 6108         	ld	a0, 0x0(a0)
800037bc: 0230000f     	fence	r, rw
800037c0: ec2a         	sd	a0, 0x18(sp)
800037c2: a009         	j	0x800037c4 <.Lpcrel_hi9+0x24>
800037c4: 6562         	ld	a0, 0x18(sp)
800037c6: 6161         	addi	sp, sp, 0x50
800037c8: 8082         	ret

00000000800037ca <core::sync::atomic::atomic_load::hc2d6507b5824663b>:
800037ca: 715d         	addi	sp, sp, -0x50
800037cc: e42a         	sd	a0, 0x8(sp)
800037ce: f02a         	sd	a0, 0x20(sp)
800037d0: 02b107a3     	sb	a1, 0x2f(sp)
800037d4: e82e         	sd	a1, 0x10(sp)
800037d6: 6542         	ld	a0, 0x10(sp)
800037d8: 00351593     	slli	a1, a0, 0x3

00000000800037dc <.Lpcrel_hi10>:
800037dc: 00003517     	auipc	a0, 0x3
800037e0: 12c50513     	addi	a0, a0, 0x12c
800037e4: 952e         	add	a0, a0, a1
800037e6: 6108         	ld	a0, 0x0(a0)
800037e8: 8502         	jr	a0
800037ea: 0000         	unimp
800037ec: 6522         	ld	a0, 0x8(sp)
800037ee: 6108         	ld	a0, 0x0(a0)
800037f0: ec2a         	sd	a0, 0x18(sp)
800037f2: a09d         	j	0x80003858 <.Lpcrel_hi14+0x24>

00000000800037f4 <.Lpcrel_hi11>:
800037f4: 00003517     	auipc	a0, 0x3
800037f8: 1dc50513     	addi	a0, a0, 0x1dc
800037fc: f82a         	sd	a0, 0x30(sp)
800037fe: 02800593     	li	a1, 0x28
80003802: fc2e         	sd	a1, 0x38(sp)

0000000080003804 <.Lpcrel_hi12>:
80003804: 00003597     	auipc	a1, 0x3
80003808: 1f458613     	addi	a2, a1, 0x1f4
8000380c: 05100593     	li	a1, 0x51
80003810: 00001097     	auipc	ra, 0x1
80003814: 60c080e7     	jalr	0x60c(ra) <core::panicking::panic_fmt::h767dc8ac4dd44648>
80003818: 6522         	ld	a0, 0x8(sp)
8000381a: 6108         	ld	a0, 0x0(a0)
8000381c: 0230000f     	fence	r, rw
80003820: ec2a         	sd	a0, 0x18(sp)
80003822: a81d         	j	0x80003858 <.Lpcrel_hi14+0x24>

0000000080003824 <.Lpcrel_hi13>:
80003824: 00003517     	auipc	a0, 0x3
80003828: 1ec50513     	addi	a0, a0, 0x1ec
8000382c: e0aa         	sd	a0, 0x40(sp)
8000382e: 03100593     	li	a1, 0x31
80003832: e4ae         	sd	a1, 0x48(sp)

0000000080003834 <.Lpcrel_hi14>:
80003834: 00003597     	auipc	a1, 0x3
80003838: 21458613     	addi	a2, a1, 0x214
8000383c: 06300593     	li	a1, 0x63
80003840: 00001097     	auipc	ra, 0x1
80003844: 5dc080e7     	jalr	0x5dc(ra) <core::panicking::panic_fmt::h767dc8ac4dd44648>
80003848: 6522         	ld	a0, 0x8(sp)
8000384a: 0330000f     	fence	rw, rw
8000384e: 6108         	ld	a0, 0x0(a0)
80003850: 0230000f     	fence	r, rw
80003854: ec2a         	sd	a0, 0x18(sp)
80003856: a009         	j	0x80003858 <.Lpcrel_hi14+0x24>
80003858: 6562         	ld	a0, 0x18(sp)
8000385a: 6161         	addi	sp, sp, 0x50
8000385c: 8082         	ret

000000008000385e <core::sync::atomic::atomic_store::h0db7ad23a9683de4>:
8000385e: 715d         	addi	sp, sp, -0x50
80003860: e42a         	sd	a0, 0x8(sp)
80003862: 86ae         	mv	a3, a1
80003864: e836         	sd	a3, 0x10(sp)
80003866: f02a         	sd	a0, 0x20(sp)
80003868: 02b10723     	sb	a1, 0x2e(sp)
8000386c: 02c107a3     	sb	a2, 0x2f(sp)
80003870: ec32         	sd	a2, 0x18(sp)
80003872: 6562         	ld	a0, 0x18(sp)
80003874: 00351593     	slli	a1, a0, 0x3

0000000080003878 <.Lpcrel_hi15>:
80003878: 00003517     	auipc	a0, 0x3
8000387c: 0b850513     	addi	a0, a0, 0xb8
80003880: 952e         	add	a0, a0, a1
80003882: 6108         	ld	a0, 0x0(a0)
80003884: 8502         	jr	a0
80003886: 0000         	unimp
80003888: 6542         	ld	a0, 0x10(sp)
8000388a: 65a2         	ld	a1, 0x8(sp)
8000388c: 00a58023     	sb	a0, 0x0(a1)
80003890: a0ad         	j	0x800038fa <.Lpcrel_hi19+0x26>
80003892: 6542         	ld	a0, 0x10(sp)
80003894: 65a2         	ld	a1, 0x8(sp)
80003896: 0310000f     	fence	rw, w
8000389a: 00a58023     	sb	a0, 0x0(a1)
8000389e: a8b1         	j	0x800038fa <.Lpcrel_hi19+0x26>

00000000800038a0 <.Lpcrel_hi16>:
800038a0: 00003517     	auipc	a0, 0x3
800038a4: 1c050513     	addi	a0, a0, 0x1c0
800038a8: f82a         	sd	a0, 0x30(sp)
800038aa: 02a00593     	li	a1, 0x2a
800038ae: fc2e         	sd	a1, 0x38(sp)

00000000800038b0 <.Lpcrel_hi17>:
800038b0: 00003597     	auipc	a1, 0x3
800038b4: 1e058613     	addi	a2, a1, 0x1e0
800038b8: 05500593     	li	a1, 0x55
800038bc: 00001097     	auipc	ra, 0x1
800038c0: 560080e7     	jalr	0x560(ra) <core::panicking::panic_fmt::h767dc8ac4dd44648>

00000000800038c4 <.Lpcrel_hi18>:
800038c4: 00003517     	auipc	a0, 0x3
800038c8: 1e450513     	addi	a0, a0, 0x1e4
800038cc: e0aa         	sd	a0, 0x40(sp)
800038ce: 03200593     	li	a1, 0x32
800038d2: e4ae         	sd	a1, 0x48(sp)

00000000800038d4 <.Lpcrel_hi19>:
800038d4: 00003597     	auipc	a1, 0x3
800038d8: 20c58613     	addi	a2, a1, 0x20c
800038dc: 06500593     	li	a1, 0x65
800038e0: 00001097     	auipc	ra, 0x1
800038e4: 53c080e7     	jalr	0x53c(ra) <core::panicking::panic_fmt::h767dc8ac4dd44648>
800038e8: 6542         	ld	a0, 0x10(sp)
800038ea: 65a2         	ld	a1, 0x8(sp)
800038ec: 0310000f     	fence	rw, w
800038f0: 00a58023     	sb	a0, 0x0(a1)
800038f4: 0330000f     	fence	rw, rw
800038f8: a009         	j	0x800038fa <.Lpcrel_hi19+0x26>
800038fa: 6161         	addi	sp, sp, 0x50
800038fc: 8082         	ret

00000000800038fe <core::sync::atomic::atomic_store::h2c3660b55c314c50>:
800038fe: 715d         	addi	sp, sp, -0x50
80003900: e02e         	sd	a1, 0x0(sp)
80003902: e42a         	sd	a0, 0x8(sp)
80003904: ec2a         	sd	a0, 0x18(sp)
80003906: f02e         	sd	a1, 0x20(sp)
80003908: 02c107a3     	sb	a2, 0x2f(sp)
8000390c: e832         	sd	a2, 0x10(sp)
8000390e: 6542         	ld	a0, 0x10(sp)
80003910: 00351593     	slli	a1, a0, 0x3

0000000080003914 <.Lpcrel_hi20>:
80003914: 00003517     	auipc	a0, 0x3
80003918: 04450513     	addi	a0, a0, 0x44
8000391c: 952e         	add	a0, a0, a1
8000391e: 6108         	ld	a0, 0x0(a0)
80003920: 8502         	jr	a0
80003922: 0000         	unimp
80003924: 6502         	ld	a0, 0x0(sp)
80003926: 65a2         	ld	a1, 0x8(sp)
80003928: e188         	sd	a0, 0x0(a1)
8000392a: a09d         	j	0x80003990 <.Lpcrel_hi24+0x24>
8000392c: 6502         	ld	a0, 0x0(sp)
8000392e: 65a2         	ld	a1, 0x8(sp)
80003930: 0310000f     	fence	rw, w
80003934: e188         	sd	a0, 0x0(a1)
80003936: a8a9         	j	0x80003990 <.Lpcrel_hi24+0x24>

0000000080003938 <.Lpcrel_hi21>:
80003938: 00003517     	auipc	a0, 0x3
8000393c: 12850513     	addi	a0, a0, 0x128
80003940: f82a         	sd	a0, 0x30(sp)
80003942: 02a00593     	li	a1, 0x2a
80003946: fc2e         	sd	a1, 0x38(sp)

0000000080003948 <.Lpcrel_hi22>:
80003948: 00003597     	auipc	a1, 0x3
8000394c: 14858613     	addi	a2, a1, 0x148
80003950: 05500593     	li	a1, 0x55
80003954: 00001097     	auipc	ra, 0x1
80003958: 4c8080e7     	jalr	0x4c8(ra) <core::panicking::panic_fmt::h767dc8ac4dd44648>

000000008000395c <.Lpcrel_hi23>:
8000395c: 00003517     	auipc	a0, 0x3
80003960: 14c50513     	addi	a0, a0, 0x14c
80003964: e0aa         	sd	a0, 0x40(sp)
80003966: 03200593     	li	a1, 0x32
8000396a: e4ae         	sd	a1, 0x48(sp)

000000008000396c <.Lpcrel_hi24>:
8000396c: 00003597     	auipc	a1, 0x3
80003970: 17458613     	addi	a2, a1, 0x174
80003974: 06500593     	li	a1, 0x65
80003978: 00001097     	auipc	ra, 0x1
8000397c: 4a4080e7     	jalr	0x4a4(ra) <core::panicking::panic_fmt::h767dc8ac4dd44648>
80003980: 6502         	ld	a0, 0x0(sp)
80003982: 65a2         	ld	a1, 0x8(sp)
80003984: 0310000f     	fence	rw, w
80003988: e188         	sd	a0, 0x0(a1)
8000398a: 0330000f     	fence	rw, rw
8000398e: a009         	j	0x80003990 <.Lpcrel_hi24+0x24>
80003990: 6161         	addi	sp, sp, 0x50
80003992: 8082         	ret

0000000080003994 <core::sync::atomic::atomic_store::h65c785609310680a>:
80003994: 715d         	addi	sp, sp, -0x50
80003996: e02e         	sd	a1, 0x0(sp)
80003998: e42a         	sd	a0, 0x8(sp)
8000399a: ec2a         	sd	a0, 0x18(sp)
8000399c: f02e         	sd	a1, 0x20(sp)
8000399e: 02c107a3     	sb	a2, 0x2f(sp)
800039a2: e832         	sd	a2, 0x10(sp)
800039a4: 6542         	ld	a0, 0x10(sp)
800039a6: 00351593     	slli	a1, a0, 0x3

00000000800039aa <.Lpcrel_hi25>:
800039aa: 00003517     	auipc	a0, 0x3
800039ae: fd650513     	addi	a0, a0, -0x2a
800039b2: 952e         	add	a0, a0, a1
800039b4: 6108         	ld	a0, 0x0(a0)
800039b6: 8502         	jr	a0
800039b8: 0000         	unimp
800039ba: 6502         	ld	a0, 0x0(sp)
800039bc: 65a2         	ld	a1, 0x8(sp)
800039be: e188         	sd	a0, 0x0(a1)
800039c0: a09d         	j	0x80003a26 <.Lpcrel_hi29+0x24>
800039c2: 6502         	ld	a0, 0x0(sp)
800039c4: 65a2         	ld	a1, 0x8(sp)
800039c6: 0310000f     	fence	rw, w
800039ca: e188         	sd	a0, 0x0(a1)
800039cc: a8a9         	j	0x80003a26 <.Lpcrel_hi29+0x24>

00000000800039ce <.Lpcrel_hi26>:
800039ce: 00003517     	auipc	a0, 0x3
800039d2: 09250513     	addi	a0, a0, 0x92
800039d6: f82a         	sd	a0, 0x30(sp)
800039d8: 02a00593     	li	a1, 0x2a
800039dc: fc2e         	sd	a1, 0x38(sp)

00000000800039de <.Lpcrel_hi27>:
800039de: 00003597     	auipc	a1, 0x3
800039e2: 0b258613     	addi	a2, a1, 0xb2
800039e6: 05500593     	li	a1, 0x55
800039ea: 00001097     	auipc	ra, 0x1
800039ee: 432080e7     	jalr	0x432(ra) <core::panicking::panic_fmt::h767dc8ac4dd44648>

00000000800039f2 <.Lpcrel_hi28>:
800039f2: 00003517     	auipc	a0, 0x3
800039f6: 0b650513     	addi	a0, a0, 0xb6
800039fa: e0aa         	sd	a0, 0x40(sp)
800039fc: 03200593     	li	a1, 0x32
80003a00: e4ae         	sd	a1, 0x48(sp)

0000000080003a02 <.Lpcrel_hi29>:
80003a02: 00003597     	auipc	a1, 0x3
80003a06: 0de58613     	addi	a2, a1, 0xde
80003a0a: 06500593     	li	a1, 0x65
80003a0e: 00001097     	auipc	ra, 0x1
80003a12: 40e080e7     	jalr	0x40e(ra) <core::panicking::panic_fmt::h767dc8ac4dd44648>
80003a16: 6502         	ld	a0, 0x0(sp)
80003a18: 65a2         	ld	a1, 0x8(sp)
80003a1a: 0310000f     	fence	rw, w
80003a1e: e188         	sd	a0, 0x0(a1)
80003a20: 0330000f     	fence	rw, rw
80003a24: a009         	j	0x80003a26 <.Lpcrel_hi29+0x24>
80003a26: 6161         	addi	sp, sp, 0x50
80003a28: 8082         	ret

0000000080003a2a <core::sync::atomic::atomic_compare_exchange_weak::hd973d583017b11d7>:
80003a2a: 7155         	addi	sp, sp, -0xd0
80003a2c: fc32         	sd	a2, 0x38(sp)
80003a2e: e0ae         	sd	a1, 0x40(sp)
80003a30: e4aa         	sd	a0, 0x48(sp)
80003a32: 87ba         	mv	a5, a4
80003a34: e8be         	sd	a5, 0x50(sp)
80003a36: e12a         	sd	a0, 0x80(sp)
80003a38: e52e         	sd	a1, 0x88(sp)
80003a3a: e932         	sd	a2, 0x90(sp)
80003a3c: 08d10f23     	sb	a3, 0x9e(sp)
80003a40: 08e10fa3     	sb	a4, 0x9f(sp)
80003a44: ecb6         	sd	a3, 0x58(sp)
80003a46: 6566         	ld	a0, 0x58(sp)
80003a48: 00351593     	slli	a1, a0, 0x3

0000000080003a4c <.Lpcrel_hi30>:
80003a4c: 00003517     	auipc	a0, 0x3
80003a50: f5c50513     	addi	a0, a0, -0xa4
80003a54: 952e         	add	a0, a0, a1
80003a56: 6108         	ld	a0, 0x0(a0)
80003a58: 8502         	jr	a0
80003a5a: 0000         	unimp
80003a5c: 6546         	ld	a0, 0x50(sp)
80003a5e: 0ff57513     	zext.b	a0, a0
80003a62: f82a         	sd	a0, 0x30(sp)
80003a64: c55d         	beqz	a0, 0x80003b12 <.Lpcrel_hi30+0xc6>
80003a66: a009         	j	0x80003a68 <.Lpcrel_hi30+0x1c>
80003a68: 7542         	ld	a0, 0x30(sp)
80003a6a: 4589         	li	a1, 0x2
80003a6c: 0cb50463     	beq	a0, a1, 0x80003b34 <.Lpcrel_hi30+0xe8>
80003a70: a009         	j	0x80003a72 <.Lpcrel_hi30+0x26>
80003a72: 7542         	ld	a0, 0x30(sp)
80003a74: 4591         	li	a1, 0x4
80003a76: 0eb50063     	beq	a0, a1, 0x80003b56 <.Lpcrel_hi30+0x10a>
80003a7a: a069         	j	0x80003b04 <.Lpcrel_hi30+0xb8>
80003a7c: 6546         	ld	a0, 0x50(sp)
80003a7e: 0ff57513     	zext.b	a0, a0
80003a82: f42a         	sd	a0, 0x28(sp)
80003a84: 10050663     	beqz	a0, 0x80003b90 <.Lpcrel_hi30+0x144>
80003a88: a009         	j	0x80003a8a <.Lpcrel_hi30+0x3e>
80003a8a: 7522         	ld	a0, 0x28(sp)
80003a8c: 4589         	li	a1, 0x2
80003a8e: 12b50263     	beq	a0, a1, 0x80003bb2 <.Lpcrel_hi30+0x166>
80003a92: a009         	j	0x80003a94 <.Lpcrel_hi30+0x48>
80003a94: 7522         	ld	a0, 0x28(sp)
80003a96: 4591         	li	a1, 0x4
80003a98: 12b50e63     	beq	a0, a1, 0x80003bd4 <.Lpcrel_hi30+0x188>
80003a9c: a0a5         	j	0x80003b04 <.Lpcrel_hi30+0xb8>
80003a9e: 6546         	ld	a0, 0x50(sp)
80003aa0: 0ff57513     	zext.b	a0, a0
80003aa4: f02a         	sd	a0, 0x20(sp)
80003aa6: 14050863     	beqz	a0, 0x80003bf6 <.Lpcrel_hi30+0x1aa>
80003aaa: a009         	j	0x80003aac <.Lpcrel_hi30+0x60>
80003aac: 7502         	ld	a0, 0x20(sp)
80003aae: 4589         	li	a1, 0x2
80003ab0: 16b50463     	beq	a0, a1, 0x80003c18 <.Lpcrel_hi30+0x1cc>
80003ab4: a009         	j	0x80003ab6 <.Lpcrel_hi30+0x6a>
80003ab6: 7502         	ld	a0, 0x20(sp)
80003ab8: 4591         	li	a1, 0x4
80003aba: 18b50063     	beq	a0, a1, 0x80003c3a <.Lpcrel_hi30+0x1ee>
80003abe: a099         	j	0x80003b04 <.Lpcrel_hi30+0xb8>
80003ac0: 6546         	ld	a0, 0x50(sp)
80003ac2: 0ff57513     	zext.b	a0, a0
80003ac6: ec2a         	sd	a0, 0x18(sp)
80003ac8: 18050a63     	beqz	a0, 0x80003c5c <.Lpcrel_hi30+0x210>
80003acc: a009         	j	0x80003ace <.Lpcrel_hi30+0x82>
80003ace: 6562         	ld	a0, 0x18(sp)
80003ad0: 4589         	li	a1, 0x2
80003ad2: 1ab50663     	beq	a0, a1, 0x80003c7e <.Lpcrel_hi30+0x232>
80003ad6: a009         	j	0x80003ad8 <.Lpcrel_hi30+0x8c>
80003ad8: 6562         	ld	a0, 0x18(sp)
80003ada: 4591         	li	a1, 0x4
80003adc: 1cb50263     	beq	a0, a1, 0x80003ca0 <.Lpcrel_hi30+0x254>
80003ae0: a015         	j	0x80003b04 <.Lpcrel_hi30+0xb8>
80003ae2: 6546         	ld	a0, 0x50(sp)
80003ae4: 0ff57513     	zext.b	a0, a0
80003ae8: e82a         	sd	a0, 0x10(sp)
80003aea: 1c050c63     	beqz	a0, 0x80003cc2 <.Lpcrel_hi30+0x276>
80003aee: a009         	j	0x80003af0 <.Lpcrel_hi30+0xa4>
80003af0: 6542         	ld	a0, 0x10(sp)
80003af2: 4589         	li	a1, 0x2
80003af4: 1eb50863     	beq	a0, a1, 0x80003ce4 <.Lpcrel_hi30+0x298>
80003af8: a009         	j	0x80003afa <.Lpcrel_hi30+0xae>
80003afa: 6542         	ld	a0, 0x10(sp)
80003afc: 4591         	li	a1, 0x4
80003afe: 20b50463     	beq	a0, a1, 0x80003d06 <.Lpcrel_hi30+0x2ba>
80003b02: a009         	j	0x80003b04 <.Lpcrel_hi30+0xb8>
80003b04: 6546         	ld	a0, 0x50(sp)
80003b06: 0ff57513     	zext.b	a0, a0
80003b0a: 4585         	li	a1, 0x1
80003b0c: 22b50c63     	beq	a0, a1, 0x80003d44 <.Lpcrel_hi31>
80003b10: aca1         	j	0x80003d68 <.Lpcrel_hi33>
80003b12: 6506         	ld	a0, 0x40(sp)
80003b14: 66a6         	ld	a3, 0x48(sp)
80003b16: 7762         	ld	a4, 0x38(sp)
80003b18: 1006b5af     	lr.d	a1, (a3)
80003b1c: 00a59563     	bne	a1, a0, 0x80003b26 <.Lpcrel_hi30+0xda>
80003b20: 18e6b62f     	sc.d	a2, a4, (a3)
80003b24: fa75         	bnez	a2, 0x80003b18 <.Lpcrel_hi30+0xcc>
80003b26: 8d2d         	xor	a0, a0, a1
80003b28: 00153513     	seqz	a0, a0
80003b2c: f8ae         	sd	a1, 0x70(sp)
80003b2e: 06a10c23     	sb	a0, 0x78(sp)
80003b32: a099         	j	0x80003b78 <.Lpcrel_hi30+0x12c>
80003b34: 6506         	ld	a0, 0x40(sp)
80003b36: 66a6         	ld	a3, 0x48(sp)
80003b38: 7762         	ld	a4, 0x38(sp)
80003b3a: 1406b5af     	lr.d.aq	a1, (a3)
80003b3e: 00a59563     	bne	a1, a0, 0x80003b48 <.Lpcrel_hi30+0xfc>
80003b42: 18e6b62f     	sc.d	a2, a4, (a3)
80003b46: fa75         	bnez	a2, 0x80003b3a <.Lpcrel_hi30+0xee>
80003b48: 8d2d         	xor	a0, a0, a1
80003b4a: 00153513     	seqz	a0, a0
80003b4e: f8ae         	sd	a1, 0x70(sp)
80003b50: 06a10c23     	sb	a0, 0x78(sp)
80003b54: a015         	j	0x80003b78 <.Lpcrel_hi30+0x12c>
80003b56: 6506         	ld	a0, 0x40(sp)
80003b58: 66a6         	ld	a3, 0x48(sp)
80003b5a: 7762         	ld	a4, 0x38(sp)
80003b5c: 1606b5af     	lr.d.aqrl	a1, (a3)
80003b60: 00a59563     	bne	a1, a0, 0x80003b6a <.Lpcrel_hi30+0x11e>
80003b64: 1ae6b62f     	sc.d.rl	a2, a4, (a3)
80003b68: fa75         	bnez	a2, 0x80003b5c <.Lpcrel_hi30+0x110>
80003b6a: 8d2d         	xor	a0, a0, a1
80003b6c: 00153513     	seqz	a0, a0
80003b70: f8ae         	sd	a1, 0x70(sp)
80003b72: 06a10c23     	sb	a0, 0x78(sp)
80003b76: a009         	j	0x80003b78 <.Lpcrel_hi30+0x12c>
80003b78: 7546         	ld	a0, 0x70(sp)
80003b7a: e42a         	sd	a0, 0x8(sp)
80003b7c: f12a         	sd	a0, 0xa0(sp)
80003b7e: 07814583     	lbu	a1, 0x78(sp)
80003b82: 0015f513     	andi	a0, a1, 0x1
80003b86: 0ab107a3     	sb	a1, 0xaf(sp)
80003b8a: 1a051463     	bnez	a0, 0x80003d32 <.Lpcrel_hi30+0x2e6>
80003b8e: aa69         	j	0x80003d28 <.Lpcrel_hi30+0x2dc>
80003b90: 6506         	ld	a0, 0x40(sp)
80003b92: 66a6         	ld	a3, 0x48(sp)
80003b94: 7762         	ld	a4, 0x38(sp)
80003b96: 1006b5af     	lr.d	a1, (a3)
80003b9a: 00a59563     	bne	a1, a0, 0x80003ba4 <.Lpcrel_hi30+0x158>
80003b9e: 1ae6b62f     	sc.d.rl	a2, a4, (a3)
80003ba2: fa75         	bnez	a2, 0x80003b96 <.Lpcrel_hi30+0x14a>
80003ba4: 8d2d         	xor	a0, a0, a1
80003ba6: 00153513     	seqz	a0, a0
80003baa: f8ae         	sd	a1, 0x70(sp)
80003bac: 06a10c23     	sb	a0, 0x78(sp)
80003bb0: b7e1         	j	0x80003b78 <.Lpcrel_hi30+0x12c>
80003bb2: 6506         	ld	a0, 0x40(sp)
80003bb4: 66a6         	ld	a3, 0x48(sp)
80003bb6: 7762         	ld	a4, 0x38(sp)
80003bb8: 1406b5af     	lr.d.aq	a1, (a3)
80003bbc: 00a59563     	bne	a1, a0, 0x80003bc6 <.Lpcrel_hi30+0x17a>
80003bc0: 1ae6b62f     	sc.d.rl	a2, a4, (a3)
80003bc4: fa75         	bnez	a2, 0x80003bb8 <.Lpcrel_hi30+0x16c>
80003bc6: 8d2d         	xor	a0, a0, a1
80003bc8: 00153513     	seqz	a0, a0
80003bcc: f8ae         	sd	a1, 0x70(sp)
80003bce: 06a10c23     	sb	a0, 0x78(sp)
80003bd2: b75d         	j	0x80003b78 <.Lpcrel_hi30+0x12c>
80003bd4: 6506         	ld	a0, 0x40(sp)
80003bd6: 66a6         	ld	a3, 0x48(sp)
80003bd8: 7762         	ld	a4, 0x38(sp)
80003bda: 1606b5af     	lr.d.aqrl	a1, (a3)
80003bde: 00a59563     	bne	a1, a0, 0x80003be8 <.Lpcrel_hi30+0x19c>
80003be2: 1ae6b62f     	sc.d.rl	a2, a4, (a3)
80003be6: fa75         	bnez	a2, 0x80003bda <.Lpcrel_hi30+0x18e>
80003be8: 8d2d         	xor	a0, a0, a1
80003bea: 00153513     	seqz	a0, a0
80003bee: f8ae         	sd	a1, 0x70(sp)
80003bf0: 06a10c23     	sb	a0, 0x78(sp)
80003bf4: b751         	j	0x80003b78 <.Lpcrel_hi30+0x12c>
80003bf6: 6506         	ld	a0, 0x40(sp)
80003bf8: 66a6         	ld	a3, 0x48(sp)
80003bfa: 7762         	ld	a4, 0x38(sp)
80003bfc: 1406b5af     	lr.d.aq	a1, (a3)
80003c00: 00a59563     	bne	a1, a0, 0x80003c0a <.Lpcrel_hi30+0x1be>
80003c04: 18e6b62f     	sc.d	a2, a4, (a3)
80003c08: fa75         	bnez	a2, 0x80003bfc <.Lpcrel_hi30+0x1b0>
80003c0a: 8d2d         	xor	a0, a0, a1
80003c0c: 00153513     	seqz	a0, a0
80003c10: f8ae         	sd	a1, 0x70(sp)
80003c12: 06a10c23     	sb	a0, 0x78(sp)
80003c16: b78d         	j	0x80003b78 <.Lpcrel_hi30+0x12c>
80003c18: 6506         	ld	a0, 0x40(sp)
80003c1a: 66a6         	ld	a3, 0x48(sp)
80003c1c: 7762         	ld	a4, 0x38(sp)
80003c1e: 1406b5af     	lr.d.aq	a1, (a3)
80003c22: 00a59563     	bne	a1, a0, 0x80003c2c <.Lpcrel_hi30+0x1e0>
80003c26: 18e6b62f     	sc.d	a2, a4, (a3)
80003c2a: fa75         	bnez	a2, 0x80003c1e <.Lpcrel_hi30+0x1d2>
80003c2c: 8d2d         	xor	a0, a0, a1
80003c2e: 00153513     	seqz	a0, a0
80003c32: f8ae         	sd	a1, 0x70(sp)
80003c34: 06a10c23     	sb	a0, 0x78(sp)
80003c38: b781         	j	0x80003b78 <.Lpcrel_hi30+0x12c>
80003c3a: 6506         	ld	a0, 0x40(sp)
80003c3c: 66a6         	ld	a3, 0x48(sp)
80003c3e: 7762         	ld	a4, 0x38(sp)
80003c40: 1606b5af     	lr.d.aqrl	a1, (a3)
80003c44: 00a59563     	bne	a1, a0, 0x80003c4e <.Lpcrel_hi30+0x202>
80003c48: 1ae6b62f     	sc.d.rl	a2, a4, (a3)
80003c4c: fa75         	bnez	a2, 0x80003c40 <.Lpcrel_hi30+0x1f4>
80003c4e: 8d2d         	xor	a0, a0, a1
80003c50: 00153513     	seqz	a0, a0
80003c54: f8ae         	sd	a1, 0x70(sp)
80003c56: 06a10c23     	sb	a0, 0x78(sp)
80003c5a: bf39         	j	0x80003b78 <.Lpcrel_hi30+0x12c>
80003c5c: 6506         	ld	a0, 0x40(sp)
80003c5e: 66a6         	ld	a3, 0x48(sp)
80003c60: 7762         	ld	a4, 0x38(sp)
80003c62: 1406b5af     	lr.d.aq	a1, (a3)
80003c66: 00a59563     	bne	a1, a0, 0x80003c70 <.Lpcrel_hi30+0x224>
80003c6a: 1ae6b62f     	sc.d.rl	a2, a4, (a3)
80003c6e: fa75         	bnez	a2, 0x80003c62 <.Lpcrel_hi30+0x216>
80003c70: 8d2d         	xor	a0, a0, a1
80003c72: 00153513     	seqz	a0, a0
80003c76: f8ae         	sd	a1, 0x70(sp)
80003c78: 06a10c23     	sb	a0, 0x78(sp)
80003c7c: bdf5         	j	0x80003b78 <.Lpcrel_hi30+0x12c>
80003c7e: 6506         	ld	a0, 0x40(sp)
80003c80: 66a6         	ld	a3, 0x48(sp)
80003c82: 7762         	ld	a4, 0x38(sp)
80003c84: 1406b5af     	lr.d.aq	a1, (a3)
80003c88: 00a59563     	bne	a1, a0, 0x80003c92 <.Lpcrel_hi30+0x246>
80003c8c: 1ae6b62f     	sc.d.rl	a2, a4, (a3)
80003c90: fa75         	bnez	a2, 0x80003c84 <.Lpcrel_hi30+0x238>
80003c92: 8d2d         	xor	a0, a0, a1
80003c94: 00153513     	seqz	a0, a0
80003c98: f8ae         	sd	a1, 0x70(sp)
80003c9a: 06a10c23     	sb	a0, 0x78(sp)
80003c9e: bde9         	j	0x80003b78 <.Lpcrel_hi30+0x12c>
80003ca0: 6506         	ld	a0, 0x40(sp)
80003ca2: 66a6         	ld	a3, 0x48(sp)
80003ca4: 7762         	ld	a4, 0x38(sp)
80003ca6: 1606b5af     	lr.d.aqrl	a1, (a3)
80003caa: 00a59563     	bne	a1, a0, 0x80003cb4 <.Lpcrel_hi30+0x268>
80003cae: 1ae6b62f     	sc.d.rl	a2, a4, (a3)
80003cb2: fa75         	bnez	a2, 0x80003ca6 <.Lpcrel_hi30+0x25a>
80003cb4: 8d2d         	xor	a0, a0, a1
80003cb6: 00153513     	seqz	a0, a0
80003cba: f8ae         	sd	a1, 0x70(sp)
80003cbc: 06a10c23     	sb	a0, 0x78(sp)
80003cc0: bd65         	j	0x80003b78 <.Lpcrel_hi30+0x12c>
80003cc2: 6506         	ld	a0, 0x40(sp)
80003cc4: 66a6         	ld	a3, 0x48(sp)
80003cc6: 7762         	ld	a4, 0x38(sp)
80003cc8: 1606b5af     	lr.d.aqrl	a1, (a3)
80003ccc: 00a59563     	bne	a1, a0, 0x80003cd6 <.Lpcrel_hi30+0x28a>
80003cd0: 1ae6b62f     	sc.d.rl	a2, a4, (a3)
80003cd4: fa75         	bnez	a2, 0x80003cc8 <.Lpcrel_hi30+0x27c>
80003cd6: 8d2d         	xor	a0, a0, a1
80003cd8: 00153513     	seqz	a0, a0
80003cdc: f8ae         	sd	a1, 0x70(sp)
80003cde: 06a10c23     	sb	a0, 0x78(sp)
80003ce2: bd59         	j	0x80003b78 <.Lpcrel_hi30+0x12c>
80003ce4: 6506         	ld	a0, 0x40(sp)
80003ce6: 66a6         	ld	a3, 0x48(sp)
80003ce8: 7762         	ld	a4, 0x38(sp)
80003cea: 1606b5af     	lr.d.aqrl	a1, (a3)
80003cee: 00a59563     	bne	a1, a0, 0x80003cf8 <.Lpcrel_hi30+0x2ac>
80003cf2: 1ae6b62f     	sc.d.rl	a2, a4, (a3)
80003cf6: fa75         	bnez	a2, 0x80003cea <.Lpcrel_hi30+0x29e>
80003cf8: 8d2d         	xor	a0, a0, a1
80003cfa: 00153513     	seqz	a0, a0
80003cfe: f8ae         	sd	a1, 0x70(sp)
80003d00: 06a10c23     	sb	a0, 0x78(sp)
80003d04: bd95         	j	0x80003b78 <.Lpcrel_hi30+0x12c>
80003d06: 6506         	ld	a0, 0x40(sp)
80003d08: 66a6         	ld	a3, 0x48(sp)
80003d0a: 7762         	ld	a4, 0x38(sp)
80003d0c: 1606b5af     	lr.d.aqrl	a1, (a3)
80003d10: 00a59563     	bne	a1, a0, 0x80003d1a <.Lpcrel_hi30+0x2ce>
80003d14: 1ae6b62f     	sc.d.rl	a2, a4, (a3)
80003d18: fa75         	bnez	a2, 0x80003d0c <.Lpcrel_hi30+0x2c0>
80003d1a: 8d2d         	xor	a0, a0, a1
80003d1c: 00153513     	seqz	a0, a0
80003d20: f8ae         	sd	a1, 0x70(sp)
80003d22: 06a10c23     	sb	a0, 0x78(sp)
80003d26: bd89         	j	0x80003b78 <.Lpcrel_hi30+0x12c>
80003d28: 6522         	ld	a0, 0x8(sp)
80003d2a: f4aa         	sd	a0, 0x68(sp)
80003d2c: 4505         	li	a0, 0x1
80003d2e: f0aa         	sd	a0, 0x60(sp)
80003d30: a031         	j	0x80003d3c <.Lpcrel_hi30+0x2f0>
80003d32: 6522         	ld	a0, 0x8(sp)
80003d34: f4aa         	sd	a0, 0x68(sp)
80003d36: 4501         	li	a0, 0x0
80003d38: f0aa         	sd	a0, 0x60(sp)
80003d3a: a009         	j	0x80003d3c <.Lpcrel_hi30+0x2f0>
80003d3c: 7506         	ld	a0, 0x60(sp)
80003d3e: 75a6         	ld	a1, 0x68(sp)
80003d40: 6169         	addi	sp, sp, 0xd0
80003d42: 8082         	ret

0000000080003d44 <.Lpcrel_hi31>:
80003d44: 00003517     	auipc	a0, 0x3
80003d48: db450513     	addi	a0, a0, -0x24c
80003d4c: f92a         	sd	a0, 0xb0(sp)
80003d4e: 03400593     	li	a1, 0x34
80003d52: fd2e         	sd	a1, 0xb8(sp)

0000000080003d54 <.Lpcrel_hi32>:
80003d54: 00003597     	auipc	a1, 0x3
80003d58: ddc58613     	addi	a2, a1, -0x224
80003d5c: 06900593     	li	a1, 0x69
80003d60: 00001097     	auipc	ra, 0x1
80003d64: 0bc080e7     	jalr	0xbc(ra) <core::panicking::panic_fmt::h767dc8ac4dd44648>

0000000080003d68 <.Lpcrel_hi33>:
80003d68: 00003517     	auipc	a0, 0x3
80003d6c: de050513     	addi	a0, a0, -0x220
80003d70: e1aa         	sd	a0, 0xc0(sp)
80003d72: 03d00593     	li	a1, 0x3d
80003d76: e5ae         	sd	a1, 0xc8(sp)

0000000080003d78 <.Lpcrel_hi34>:
80003d78: 00003597     	auipc	a1, 0x3
80003d7c: e1058613     	addi	a2, a1, -0x1f0
80003d80: 07b00593     	li	a1, 0x7b
80003d84: 00001097     	auipc	ra, 0x1
80003d88: 098080e7     	jalr	0x98(ra) <core::panicking::panic_fmt::h767dc8ac4dd44648>

0000000080003d8c <_$LT$core..option..Option$LT$T$GT$$u20$as$u20$core..ops..try_trait..FromResidual$LT$core..option..Option$LT$core..convert..Infallible$GT$$GT$$GT$::from_residual::h47b1361322428644>:
80003d8c: 1141         	addi	sp, sp, -0x10
80003d8e: 85aa         	mv	a1, a0
80003d90: 4501         	li	a0, 0x0
80003d92: e188         	sd	a0, 0x0(a1)
80003d94: 0141         	addi	sp, sp, 0x10
80003d96: 8082         	ret

0000000080003d98 <_$LT$core..option..Option$LT$T$GT$$u20$as$u20$core..ops..try_trait..Try$GT$::branch::hec3e151354782060>:
80003d98: 7179         	addi	sp, sp, -0x30
80003d9a: e42a         	sd	a0, 0x8(sp)
80003d9c: e82e         	sd	a1, 0x10(sp)
80003d9e: 6522         	ld	a0, 0x8(sp)
80003da0: 8905         	andi	a0, a0, 0x1
80003da2: c901         	beqz	a0, 0x80003db2 <_$LT$core..option..Option$LT$T$GT$$u20$as$u20$core..ops..try_trait..Try$GT$::branch::hec3e151354782060+0x1a>
80003da4: a009         	j	0x80003da6 <_$LT$core..option..Option$LT$T$GT$$u20$as$u20$core..ops..try_trait..Try$GT$::branch::hec3e151354782060+0xe>
80003da6: 6542         	ld	a0, 0x10(sp)
80003da8: f42a         	sd	a0, 0x28(sp)
80003daa: f02a         	sd	a0, 0x20(sp)
80003dac: 4501         	li	a0, 0x0
80003dae: ec2a         	sd	a0, 0x18(sp)
80003db0: a021         	j	0x80003db8 <_$LT$core..option..Option$LT$T$GT$$u20$as$u20$core..ops..try_trait..Try$GT$::branch::hec3e151354782060+0x20>
80003db2: 4505         	li	a0, 0x1
80003db4: ec2a         	sd	a0, 0x18(sp)
80003db6: a009         	j	0x80003db8 <_$LT$core..option..Option$LT$T$GT$$u20$as$u20$core..ops..try_trait..Try$GT$::branch::hec3e151354782060+0x20>
80003db8: 6562         	ld	a0, 0x18(sp)
80003dba: 7582         	ld	a1, 0x20(sp)
80003dbc: 6145         	addi	sp, sp, 0x30
80003dbe: 8082         	ret

0000000080003dc0 <core::str::_$LT$impl$u20$str$GT$::bytes::h840a04d2fb3154d5>:
80003dc0: 1141         	addi	sp, sp, -0x10
80003dc2: e02a         	sd	a0, 0x0(sp)
80003dc4: e42e         	sd	a1, 0x8(sp)
80003dc6: 95aa         	add	a1, a1, a0
80003dc8: 0141         	addi	sp, sp, 0x10
80003dca: 8082         	ret

0000000080003dcc <core::ptr::drop_in_place$LT$lab5_kernel_task3..spinlock..SpinLockGuard$LT$lab5_kernel_task3..BumpAllocator$GT$$GT$::h8b1040e67a19296d>:
80003dcc: 1141         	addi	sp, sp, -0x10
80003dce: e406         	sd	ra, 0x8(sp)
80003dd0: e02a         	sd	a0, 0x0(sp)
80003dd2: 00000097     	auipc	ra, 0x0
80003dd6: 036080e7     	jalr	0x36(ra) <_$LT$lab5_kernel_task3..spinlock..SpinLockGuard$LT$T$GT$$u20$as$u20$core..ops..drop..Drop$GT$::drop::hb244d99945ab2e2e>
80003dda: 60a2         	ld	ra, 0x8(sp)
80003ddc: 0141         	addi	sp, sp, 0x10
80003dde: 8082         	ret

0000000080003de0 <core::ptr::drop_in_place$LT$lab5_kernel_task3..spinlock..SpinLockGuard$LT$$LP$$RP$$GT$$GT$::h139c532d1e23d0fe>:
80003de0: 1141         	addi	sp, sp, -0x10
80003de2: e406         	sd	ra, 0x8(sp)
80003de4: e02a         	sd	a0, 0x0(sp)
80003de6: 00000097     	auipc	ra, 0x0
80003dea: 05e080e7     	jalr	0x5e(ra) <_$LT$lab5_kernel_task3..spinlock..SpinLockGuard$LT$T$GT$$u20$as$u20$core..ops..drop..Drop$GT$::drop::hbfe3e2403a4774c9>
80003dee: 60a2         	ld	ra, 0x8(sp)
80003df0: 0141         	addi	sp, sp, 0x10
80003df2: 8082         	ret

0000000080003df4 <core::ptr::drop_in_place$LT$lab5_kernel_task3..spinlock..SpinLockGuard$LT$lab5_kernel_task3..RunQueue$GT$$GT$::had1488e64e48b413>:
80003df4: 1141         	addi	sp, sp, -0x10
80003df6: e406         	sd	ra, 0x8(sp)
80003df8: e02a         	sd	a0, 0x0(sp)
80003dfa: 00000097     	auipc	ra, 0x0
80003dfe: 02c080e7     	jalr	0x2c(ra) <_$LT$lab5_kernel_task3..spinlock..SpinLockGuard$LT$T$GT$$u20$as$u20$core..ops..drop..Drop$GT$::drop::hbaa835e784318743>
80003e02: 60a2         	ld	ra, 0x8(sp)
80003e04: 0141         	addi	sp, sp, 0x10
80003e06: 8082         	ret

0000000080003e08 <_$LT$lab5_kernel_task3..spinlock..SpinLockGuard$LT$T$GT$$u20$as$u20$core..ops..drop..Drop$GT$::drop::hb244d99945ab2e2e>:
80003e08: 1141         	addi	sp, sp, -0x10
80003e0a: e406         	sd	ra, 0x8(sp)
80003e0c: e02a         	sd	a0, 0x0(sp)
80003e0e: 6108         	ld	a0, 0x0(a0)
80003e10: 02850513     	addi	a0, a0, 0x28
80003e14: 4581         	li	a1, 0x0
80003e16: 4605         	li	a2, 0x1
80003e18: fffff097     	auipc	ra, 0xfffff
80003e1c: 5c2080e7     	jalr	0x5c2(ra) <core::sync::atomic::AtomicBool::store::h599594f597f0706b>
80003e20: 60a2         	ld	ra, 0x8(sp)
80003e22: 0141         	addi	sp, sp, 0x10
80003e24: 8082         	ret

0000000080003e26 <_$LT$lab5_kernel_task3..spinlock..SpinLockGuard$LT$T$GT$$u20$as$u20$core..ops..drop..Drop$GT$::drop::hbaa835e784318743>:
80003e26: 1141         	addi	sp, sp, -0x10
80003e28: e406         	sd	ra, 0x8(sp)
80003e2a: e02a         	sd	a0, 0x0(sp)
80003e2c: 6108         	ld	a0, 0x0(a0)
80003e2e: 06050513     	addi	a0, a0, 0x60
80003e32: 4581         	li	a1, 0x0
80003e34: 4605         	li	a2, 0x1
80003e36: fffff097     	auipc	ra, 0xfffff
80003e3a: 5a4080e7     	jalr	0x5a4(ra) <core::sync::atomic::AtomicBool::store::h599594f597f0706b>
80003e3e: 60a2         	ld	ra, 0x8(sp)
80003e40: 0141         	addi	sp, sp, 0x10
80003e42: 8082         	ret

0000000080003e44 <_$LT$lab5_kernel_task3..spinlock..SpinLockGuard$LT$T$GT$$u20$as$u20$core..ops..drop..Drop$GT$::drop::hbfe3e2403a4774c9>:
80003e44: 1141         	addi	sp, sp, -0x10
80003e46: e406         	sd	ra, 0x8(sp)
80003e48: e02a         	sd	a0, 0x0(sp)
80003e4a: 6108         	ld	a0, 0x0(a0)
80003e4c: 0541         	addi	a0, a0, 0x10
80003e4e: 4581         	li	a1, 0x0
80003e50: 4605         	li	a2, 0x1
80003e52: fffff097     	auipc	ra, 0xfffff
80003e56: 588080e7     	jalr	0x588(ra) <core::sync::atomic::AtomicBool::store::h599594f597f0706b>
80003e5a: 60a2         	ld	ra, 0x8(sp)
80003e5c: 0141         	addi	sp, sp, 0x10
80003e5e: 8082         	ret

0000000080003e60 <core::fmt::Write::write_char::hf86ebde556380c9d>:
80003e60: 711d         	addi	sp, sp, -0x60
80003e62: ec86         	sd	ra, 0x58(sp)
80003e64: e42e         	sd	a1, 0x8(sp)
80003e66: 85aa         	mv	a1, a0
80003e68: 6522         	ld	a0, 0x8(sp)
80003e6a: e82e         	sd	a1, 0x10(sp)
80003e6c: f42e         	sd	a1, 0x28(sp)
80003e6e: da2a         	sw	a0, 0x34(sp)
80003e70: 4581         	li	a1, 0x0
80003e72: d22e         	sw	a1, 0x24(sp)
80003e74: 104c         	addi	a1, sp, 0x24
80003e76: fc2e         	sd	a1, 0x38(sp)
80003e78: 4611         	li	a2, 0x4
80003e7a: e0b2         	sd	a2, 0x40(sp)
80003e7c: fffff097     	auipc	ra, 0xfffff
80003e80: df8080e7     	jalr	-0x208(ra) <core::char::methods::encode_utf8_raw::h497925ac9df9624d>
80003e84: 862a         	mv	a2, a0
80003e86: 6542         	ld	a0, 0x10(sp)
80003e88: ec32         	sd	a2, 0x18(sp)
80003e8a: 862e         	mv	a2, a1
80003e8c: 65e2         	ld	a1, 0x18(sp)
80003e8e: e4ae         	sd	a1, 0x48(sp)
80003e90: e8b2         	sd	a2, 0x50(sp)
80003e92: ffffc097     	auipc	ra, 0xffffc
80003e96: 234080e7     	jalr	0x234(ra) <_$LT$lab5_kernel_task3..console..KernelConsole$u20$as$u20$core..fmt..Write$GT$::write_str::h1d82c921b143e5ac>
80003e9a: 60e6         	ld	ra, 0x58(sp)
80003e9c: 6125         	addi	sp, sp, 0x60
80003e9e: 8082         	ret

0000000080003ea0 <core::fmt::Write::write_fmt::h0d36f0c220588a74>:
80003ea0: 1101         	addi	sp, sp, -0x20
80003ea2: ec06         	sd	ra, 0x18(sp)
80003ea4: e02a         	sd	a0, 0x0(sp)
80003ea6: e42e         	sd	a1, 0x8(sp)
80003ea8: e832         	sd	a2, 0x10(sp)
80003eaa: 00000097     	auipc	ra, 0x0
80003eae: 00e080e7     	jalr	0xe(ra) <_$LT$$RF$mut$u20$W$u20$as$u20$core..fmt..Write..write_fmt..SpecWriteFmt$GT$::spec_write_fmt::h908a4f72faa87ce9>
80003eb2: 60e2         	ld	ra, 0x18(sp)
80003eb4: 6105         	addi	sp, sp, 0x20
80003eb6: 8082         	ret

0000000080003eb8 <_$LT$$RF$mut$u20$W$u20$as$u20$core..fmt..Write..write_fmt..SpecWriteFmt$GT$::spec_write_fmt::h908a4f72faa87ce9>:
80003eb8: 715d         	addi	sp, sp, -0x50
80003eba: e486         	sd	ra, 0x48(sp)
80003ebc: e02a         	sd	a0, 0x0(sp)
80003ebe: e42e         	sd	a1, 0x8(sp)
80003ec0: e832         	sd	a2, 0x10(sp)
80003ec2: f82a         	sd	a0, 0x30(sp)
80003ec4: 0028         	addi	a0, sp, 0x8
80003ec6: ffffc097     	auipc	ra, 0xffffc
80003eca: 588080e7     	jalr	0x588(ra) <core::fmt::Arguments::as_statically_known_str::h4a37378837ee15a0>
80003ece: f02a         	sd	a0, 0x20(sp)
80003ed0: f42e         	sd	a1, 0x28(sp)
80003ed2: 7502         	ld	a0, 0x20(sp)
80003ed4: cd11         	beqz	a0, 0x80003ef0 <_$LT$$RF$mut$u20$W$u20$as$u20$core..fmt..Write..write_fmt..SpecWriteFmt$GT$::spec_write_fmt::h908a4f72faa87ce9+0x38>
80003ed6: a009         	j	0x80003ed8 <_$LT$$RF$mut$u20$W$u20$as$u20$core..fmt..Write..write_fmt..SpecWriteFmt$GT$::spec_write_fmt::h908a4f72faa87ce9+0x20>
80003ed8: 6502         	ld	a0, 0x0(sp)
80003eda: 7582         	ld	a1, 0x20(sp)
80003edc: 7622         	ld	a2, 0x28(sp)
80003ede: fc2e         	sd	a1, 0x38(sp)
80003ee0: e0b2         	sd	a2, 0x40(sp)
80003ee2: ffffc097     	auipc	ra, 0xffffc
80003ee6: 1e4080e7     	jalr	0x1e4(ra) <_$LT$lab5_kernel_task3..console..KernelConsole$u20$as$u20$core..fmt..Write$GT$::write_str::h1d82c921b143e5ac>
80003eea: 00a10fa3     	sb	a0, 0x1f(sp)
80003eee: a839         	j	0x80003f0c <.Lpcrel_hi0+0x16>
80003ef0: 6502         	ld	a0, 0x0(sp)
80003ef2: 6622         	ld	a2, 0x8(sp)
80003ef4: 66c2         	ld	a3, 0x10(sp)

0000000080003ef6 <.Lpcrel_hi0>:
80003ef6: 00003597     	auipc	a1, 0x3
80003efa: caa58593     	addi	a1, a1, -0x356
80003efe: 00000097     	auipc	ra, 0x0
80003f02: 600080e7     	jalr	0x600(ra) <core::fmt::write::hfd17e9e8e823b619>
80003f06: 00a10fa3     	sb	a0, 0x1f(sp)
80003f0a: a009         	j	0x80003f0c <.Lpcrel_hi0+0x16>
80003f0c: 01f14503     	lbu	a0, 0x1f(sp)
80003f10: 60a6         	ld	ra, 0x48(sp)
80003f12: 6161         	addi	sp, sp, 0x50
80003f14: 8082         	ret

0000000080003f16 <core::result::Result$LT$T$C$E$GT$::is_ok::h9c84771828e5a228>:
80003f16: 1141         	addi	sp, sp, -0x10
80003f18: e42a         	sd	a0, 0x8(sp)
80003f1a: 00054503     	lbu	a0, 0x0(a0)
80003f1e: fff54513     	not	a0, a0
80003f22: 8905         	andi	a0, a0, 0x1
80003f24: 0141         	addi	sp, sp, 0x10
80003f26: 8082         	ret

0000000080003f28 <_$LT$$RF$T$u20$as$u20$core..fmt..Display$GT$::fmt::hccd325b38fc0afa7>:
80003f28: 1101         	addi	sp, sp, -0x20
80003f2a: ec06         	sd	ra, 0x18(sp)
80003f2c: e42a         	sd	a0, 0x8(sp)
80003f2e: e82e         	sd	a1, 0x10(sp)
80003f30: 6108         	ld	a0, 0x0(a0)
80003f32: 00001097     	auipc	ra, 0x1
80003f36: f18080e7     	jalr	-0xe8(ra) <_$LT$core..panic..panic_info..PanicInfo$u20$as$u20$core..fmt..Display$GT$::fmt::hcccb3fed5b673506>
80003f3a: 60e2         	ld	ra, 0x18(sp)
80003f3c: 6105         	addi	sp, sp, 0x20
80003f3e: 8082         	ret

0000000080003f40 <_$LT$core..slice..iter..Iter$LT$T$GT$$u20$as$u20$core..iter..traits..iterator..Iterator$GT$::next::h6f21188351496f86>:
80003f40: 715d         	addi	sp, sp, -0x50
80003f42: e42a         	sd	a0, 0x8(sp)
80003f44: f42a         	sd	a0, 0x28(sp)
80003f46: 4585         	li	a1, 0x1
80003f48: f82e         	sd	a1, 0x30(sp)
80003f4a: fc2e         	sd	a1, 0x38(sp)
80003f4c: 610c         	ld	a1, 0x0(a0)
80003f4e: e82e         	sd	a1, 0x10(sp)
80003f50: e0ae         	sd	a1, 0x40(sp)
80003f52: 6508         	ld	a0, 0x8(a0)
80003f54: ec2a         	sd	a0, 0x18(sp)
80003f56: e4aa         	sd	a0, 0x48(sp)
80003f58: a009         	j	0x80003f5a <_$LT$core..slice..iter..Iter$LT$T$GT$$u20$as$u20$core..iter..traits..iterator..Iterator$GT$::next::h6f21188351496f86+0x1a>
80003f5a: 6542         	ld	a0, 0x10(sp)
80003f5c: 65e2         	ld	a1, 0x18(sp)
80003f5e: 00b50863     	beq	a0, a1, 0x80003f6e <_$LT$core..slice..iter..Iter$LT$T$GT$$u20$as$u20$core..iter..traits..iterator..Iterator$GT$::next::h6f21188351496f86+0x2e>
80003f62: a009         	j	0x80003f64 <_$LT$core..slice..iter..Iter$LT$T$GT$$u20$as$u20$core..iter..traits..iterator..Iterator$GT$::next::h6f21188351496f86+0x24>
80003f64: 65a2         	ld	a1, 0x8(sp)
80003f66: 6542         	ld	a0, 0x10(sp)
80003f68: 0505         	addi	a0, a0, 0x1
80003f6a: e188         	sd	a0, 0x0(a1)
80003f6c: a021         	j	0x80003f74 <_$LT$core..slice..iter..Iter$LT$T$GT$$u20$as$u20$core..iter..traits..iterator..Iterator$GT$::next::h6f21188351496f86+0x34>
80003f6e: 4501         	li	a0, 0x0
80003f70: f02a         	sd	a0, 0x20(sp)
80003f72: a039         	j	0x80003f80 <_$LT$core..slice..iter..Iter$LT$T$GT$$u20$as$u20$core..iter..traits..iterator..Iterator$GT$::next::h6f21188351496f86+0x40>
80003f74: 6542         	ld	a0, 0x10(sp)
80003f76: f02a         	sd	a0, 0x20(sp)
80003f78: a009         	j	0x80003f7a <_$LT$core..slice..iter..Iter$LT$T$GT$$u20$as$u20$core..iter..traits..iterator..Iterator$GT$::next::h6f21188351496f86+0x3a>
80003f7a: 7502         	ld	a0, 0x20(sp)
80003f7c: 6161         	addi	sp, sp, 0x50
80003f7e: 8082         	ret
80003f80: bfed         	j	0x80003f7a <_$LT$core..slice..iter..Iter$LT$T$GT$$u20$as$u20$core..iter..traits..iterator..Iterator$GT$::next::h6f21188351496f86+0x3a>

0000000080003f82 <_$LT$str$u20$as$u20$core..fmt..Display$GT$::fmt::h53474d83e2b0968b>:
80003f82: 86ae         	mv	a3, a1
80003f84: 85aa         	mv	a1, a0
80003f86: 8532         	mv	a0, a2
80003f88: 8636         	mv	a2, a3
80003f8a: 00001317     	auipc	t1, 0x1
80003f8e: 9f630067     	jr	-0x60a(t1) <core::fmt::Formatter::pad::h239e525174ab4a17>

0000000080003f92 <_$LT$$RF$T$u20$as$u20$core..fmt..Display$GT$::fmt::h60cf88dbe6a53042>:
80003f92: 6114         	ld	a3, 0x0(a0)
80003f94: 6510         	ld	a2, 0x8(a0)
80003f96: 852e         	mv	a0, a1
80003f98: 85b6         	mv	a1, a3
80003f9a: 00001317     	auipc	t1, 0x1
80003f9e: 9e630067     	jr	-0x61a(t1) <core::fmt::Formatter::pad::h239e525174ab4a17>

0000000080003fa2 <core::fmt::num::imp::_$LT$impl$u20$u32$GT$::_fmt_inner::h2c8ef1aec4279901>:
80003fa2: 7139         	addi	sp, sp, -0x40
80003fa4: fc06         	sd	ra, 0x38(sp)
80003fa6: f822         	sd	s0, 0x30(sp)
80003fa8: f426         	sd	s1, 0x28(sp)
80003faa: f04a         	sd	s2, 0x20(sp)
80003fac: ec4e         	sd	s3, 0x18(sp)
80003fae: e852         	sd	s4, 0x10(sp)
80003fb0: e456         	sd	s5, 0x8(sp)
80003fb2: 0080         	addi	s0, sp, 0x40
80003fb4: 3e800693     	li	a3, 0x3e8
80003fb8: 882a         	mv	a6, a0
80003fba: 8732         	mv	a4, a2
80003fbc: 0cd56163     	bltu	a0, a3, 0x8000407e <.Lpcrel_hi74+0xac>
80003fc0: 4f01         	li	t5, 0x0
80003fc2: ffe58f93     	addi	t6, a1, -0x2
80003fc6: d1b71837     	lui	a6, 0xd1b71
80003fca: 6709         	lui	a4, 0x2
80003fcc: 6785         	lui	a5, 0x1
80003fce: 06400893     	li	a7, 0x64

0000000080003fd2 <.Lpcrel_hi74>:
80003fd2: 00003497     	auipc	s1, 0x3
80003fd6: 009896b7     	lui	a3, 0x989
80003fda: 75980e13     	addi	t3, a6, 0x759
80003fde: 71070293     	addi	t0, a4, 0x710
80003fe2: 47b78313     	addi	t1, a5, 0x47b
80003fe6: bfe48393     	addi	t2, s1, -0x402
80003fea: 1e02         	slli	t3, t3, 0x20
80003fec: 67f68e93     	addi	t4, a3, 0x67f
80003ff0: 882a         	mv	a6, a0
80003ff2: 01e60a33     	add	s4, a2, t5
80003ff6: ffca0693     	addi	a3, s4, -0x4
80003ffa: 14c6fe63     	bgeu	a3, a2, 0x80004156 <.Lpcrel_hi80>
80003ffe: 8942         	mv	s2, a6
80004000: 02081693     	slli	a3, a6, 0x20
80004004: 03c6b6b3     	mulhu	a3, a3, t3
80004008: 02d6d813     	srli	a6, a3, 0x2d
8000400c: 025806b3     	mul	a3, a6, t0
80004010: 40d909bb     	subw	s3, s2, a3
80004014: 03099693     	slli	a3, s3, 0x30
80004018: 92c9         	srli	a3, a3, 0x32
8000401a: 026687b3     	mul	a5, a3, t1
8000401e: 83c5         	srli	a5, a5, 0x11
80004020: 00179713     	slli	a4, a5, 0x1
80004024: 971e         	add	a4, a4, t2
80004026: 00074a83     	lbu	s5, 0x0(a4)
8000402a: 00cf84b3     	add	s1, t6, a2
8000402e: ffda0693     	addi	a3, s4, -0x3
80004032: ff548f23     	sb	s5, -0x2(s1)
80004036: 10c6f563     	bgeu	a3, a2, 0x80004140 <.Lpcrel_hi81>
8000403a: 00174703     	lbu	a4, 0x1(a4)
8000403e: ffea0693     	addi	a3, s4, -0x2
80004042: fee48fa3     	sb	a4, -0x1(s1)
80004046: 0ec6f263     	bgeu	a3, a2, 0x8000412a <.Lpcrel_hi82>
8000404a: 031786b3     	mul	a3, a5, a7
8000404e: 40d986b3     	sub	a3, s3, a3
80004052: 16c6         	slli	a3, a3, 0x31
80004054: 92c1         	srli	a3, a3, 0x30
80004056: 00d38733     	add	a4, t2, a3
8000405a: 00074783     	lbu	a5, 0x0(a4)
8000405e: fffa0693     	addi	a3, s4, -0x1
80004062: 00f48023     	sb	a5, 0x0(s1)
80004066: 0ac6f763     	bgeu	a3, a2, 0x80004114 <.Lpcrel_hi83>
8000406a: 00174683     	lbu	a3, 0x1(a4)
8000406e: 1f71         	addi	t5, t5, -0x4
80004070: 00d480a3     	sb	a3, 0x1(s1)
80004074: 1ff1         	addi	t6, t6, -0x4
80004076: f72eeee3     	bltu	t4, s2, 0x80003ff2 <.Lpcrel_hi74+0x20>
8000407a: 01e60733     	add	a4, a2, t5
8000407e: 46a5         	li	a3, 0x9
80004080: 0506fd63     	bgeu	a3, a6, 0x800040da <.Lpcrel_hi75+0x3a>
80004084: ffe70693     	addi	a3, a4, -0x2
80004088: 0ec6f263     	bgeu	a3, a2, 0x8000416c <.Lpcrel_hi76>
8000408c: 03081793     	slli	a5, a6, 0x30
80004090: 6485         	lui	s1, 0x1
80004092: 06400893     	li	a7, 0x64
80004096: 93c9         	srli	a5, a5, 0x32
80004098: 47b48493     	addi	s1, s1, 0x47b
8000409c: 029787b3     	mul	a5, a5, s1

00000000800040a0 <.Lpcrel_hi75>:
800040a0: 00003297     	auipc	t0, 0x3
800040a4: 83c5         	srli	a5, a5, 0x11
800040a6: 031784b3     	mul	s1, a5, a7
800040aa: 409804bb     	subw	s1, a6, s1
800040ae: 14c6         	slli	s1, s1, 0x31
800040b0: 0304d813     	srli	a6, s1, 0x30
800040b4: b3028493     	addi	s1, t0, -0x4d0
800040b8: 94c2         	add	s1, s1, a6
800040ba: 0004c803     	lbu	a6, 0x0(s1)
800040be: 00d588b3     	add	a7, a1, a3
800040c2: 177d         	addi	a4, a4, -0x1
800040c4: 01088023     	sb	a6, 0x0(a7)
800040c8: 0ac77d63     	bgeu	a4, a2, 0x80004182 <.Lpcrel_hi77>
800040cc: 0014c483     	lbu	s1, 0x1(s1)
800040d0: 972e         	add	a4, a4, a1
800040d2: 00970023     	sb	s1, 0x0(a4)
800040d6: e509         	bnez	a0, 0x800040e0 <.Lpcrel_hi75+0x40>
800040d8: a029         	j	0x800040e2 <.Lpcrel_hi75+0x42>
800040da: 87c2         	mv	a5, a6
800040dc: 86ba         	mv	a3, a4
800040de: c111         	beqz	a0, 0x800040e2 <.Lpcrel_hi75+0x42>
800040e0: c385         	beqz	a5, 0x80004100 <.Lpcrel_hi79+0x14>
800040e2: 16fd         	addi	a3, a3, -0x1
800040e4: 0ac6fa63     	bgeu	a3, a2, 0x80004198 <.Lpcrel_hi78>
800040e8: 0017951b     	slliw	a0, a5, 0x1

00000000800040ec <.Lpcrel_hi79>:
800040ec: 00003617     	auipc	a2, 0x3
800040f0: ae460613     	addi	a2, a2, -0x51c
800040f4: 9532         	add	a0, a0, a2
800040f6: 00154503     	lbu	a0, 0x1(a0)
800040fa: 95b6         	add	a1, a1, a3
800040fc: 00a58023     	sb	a0, 0x0(a1)
80004100: 8536         	mv	a0, a3
80004102: 70e2         	ld	ra, 0x38(sp)
80004104: 7442         	ld	s0, 0x30(sp)
80004106: 74a2         	ld	s1, 0x28(sp)
80004108: 7902         	ld	s2, 0x20(sp)
8000410a: 69e2         	ld	s3, 0x18(sp)
8000410c: 6a42         	ld	s4, 0x10(sp)
8000410e: 6aa2         	ld	s5, 0x8(sp)
80004110: 6121         	addi	sp, sp, 0x40
80004112: 8082         	ret

0000000080004114 <.Lpcrel_hi83>:
80004114: 00003517     	auipc	a0, 0x3
80004118: b8450713     	addi	a4, a0, -0x47c
8000411c: 8536         	mv	a0, a3
8000411e: 85b2         	mv	a1, a2
80004120: 863a         	mv	a2, a4
80004122: 00001097     	auipc	ra, 0x1
80004126: c2e080e7     	jalr	-0x3d2(ra) <core::panicking::panic_bounds_check::h6aaee0d15e0261eb>

000000008000412a <.Lpcrel_hi82>:
8000412a: 00003517     	auipc	a0, 0x3
8000412e: b6e50713     	addi	a4, a0, -0x492
80004132: 8536         	mv	a0, a3
80004134: 85b2         	mv	a1, a2
80004136: 863a         	mv	a2, a4
80004138: 00001097     	auipc	ra, 0x1
8000413c: c18080e7     	jalr	-0x3e8(ra) <core::panicking::panic_bounds_check::h6aaee0d15e0261eb>

0000000080004140 <.Lpcrel_hi81>:
80004140: 00003517     	auipc	a0, 0x3
80004144: b5850713     	addi	a4, a0, -0x4a8
80004148: 8536         	mv	a0, a3
8000414a: 85b2         	mv	a1, a2
8000414c: 863a         	mv	a2, a4
8000414e: 00001097     	auipc	ra, 0x1
80004152: c02080e7     	jalr	-0x3fe(ra) <core::panicking::panic_bounds_check::h6aaee0d15e0261eb>

0000000080004156 <.Lpcrel_hi80>:
80004156: 00003517     	auipc	a0, 0x3
8000415a: b4250713     	addi	a4, a0, -0x4be
8000415e: 8536         	mv	a0, a3
80004160: 85b2         	mv	a1, a2
80004162: 863a         	mv	a2, a4
80004164: 00001097     	auipc	ra, 0x1
80004168: bec080e7     	jalr	-0x414(ra) <core::panicking::panic_bounds_check::h6aaee0d15e0261eb>

000000008000416c <.Lpcrel_hi76>:
8000416c: 00003517     	auipc	a0, 0x3
80004170: b2c50713     	addi	a4, a0, -0x4d4
80004174: 8536         	mv	a0, a3
80004176: 85b2         	mv	a1, a2
80004178: 863a         	mv	a2, a4
8000417a: 00001097     	auipc	ra, 0x1
8000417e: bd6080e7     	jalr	-0x42a(ra) <core::panicking::panic_bounds_check::h6aaee0d15e0261eb>

0000000080004182 <.Lpcrel_hi77>:
80004182: 00003517     	auipc	a0, 0x3
80004186: b1650693     	addi	a3, a0, -0x4ea
8000418a: 853a         	mv	a0, a4
8000418c: 85b2         	mv	a1, a2
8000418e: 8636         	mv	a2, a3
80004190: 00001097     	auipc	ra, 0x1
80004194: bc0080e7     	jalr	-0x440(ra) <core::panicking::panic_bounds_check::h6aaee0d15e0261eb>

0000000080004198 <.Lpcrel_hi78>:
80004198: 00003517     	auipc	a0, 0x3
8000419c: b0050713     	addi	a4, a0, -0x500
800041a0: 8536         	mv	a0, a3
800041a2: 85b2         	mv	a1, a2
800041a4: 863a         	mv	a2, a4
800041a6: 00001097     	auipc	ra, 0x1
800041aa: baa080e7     	jalr	-0x456(ra) <core::panicking::panic_bounds_check::h6aaee0d15e0261eb>

00000000800041ae <core::fmt::num::imp::_$LT$impl$u20$u64$GT$::_fmt_inner::habf36a285bd59e0b>:
800041ae: 7139         	addi	sp, sp, -0x40
800041b0: fc06         	sd	ra, 0x38(sp)
800041b2: f822         	sd	s0, 0x30(sp)
800041b4: f426         	sd	s1, 0x28(sp)
800041b6: f04a         	sd	s2, 0x20(sp)
800041b8: ec4e         	sd	s3, 0x18(sp)
800041ba: e852         	sd	s4, 0x10(sp)
800041bc: e456         	sd	s5, 0x8(sp)
800041be: 0080         	addi	s0, sp, 0x40
800041c0: 3e800693     	li	a3, 0x3e8
800041c4: 882a         	mv	a6, a0
800041c6: 8732         	mv	a4, a2
800041c8: 0ad56e63     	bltu	a0, a3, 0x80004284 <.Lpcrel_hi85+0x9a>
800041cc: 4f01         	li	t5, 0x0
800041ce: ffe58f93     	addi	t6, a1, -0x2

00000000800041d2 <.Lpcrel_hi84>:
800041d2: 00002697     	auipc	a3, 0x2
800041d6: 6709         	lui	a4, 0x2
800041d8: 6785         	lui	a5, 0x1
800041da: 06400893     	li	a7, 0x64
800041de: 91e6b283     	ld	t0, -0x6e2(a3)
800041e2: 71070313     	addi	t1, a4, 0x710
800041e6: 47b78393     	addi	t2, a5, 0x47b

00000000800041ea <.Lpcrel_hi85>:
800041ea: 00003697     	auipc	a3, 0x3
800041ee: 9e668e13     	addi	t3, a3, -0x61a
800041f2: 009896b7     	lui	a3, 0x989
800041f6: 67f68e93     	addi	t4, a3, 0x67f
800041fa: 882a         	mv	a6, a0
800041fc: 01e60a33     	add	s4, a2, t5
80004200: ffca0693     	addi	a3, s4, -0x4
80004204: 14c6fb63     	bgeu	a3, a2, 0x8000435a <.Lpcrel_hi91>
80004208: 8942         	mv	s2, a6
8000420a: 025836b3     	mulhu	a3, a6, t0
8000420e: 00b6d813     	srli	a6, a3, 0xb
80004212: 026806b3     	mul	a3, a6, t1
80004216: 40d909b3     	sub	s3, s2, a3
8000421a: 03099693     	slli	a3, s3, 0x30
8000421e: 92c9         	srli	a3, a3, 0x32
80004220: 027687b3     	mul	a5, a3, t2
80004224: 83c5         	srli	a5, a5, 0x11
80004226: 00179713     	slli	a4, a5, 0x1
8000422a: 9772         	add	a4, a4, t3
8000422c: 00074a83     	lbu	s5, 0x0(a4)
80004230: 00cf84b3     	add	s1, t6, a2
80004234: ffda0693     	addi	a3, s4, -0x3
80004238: ff548f23     	sb	s5, -0x2(s1)
8000423c: 10c6f463     	bgeu	a3, a2, 0x80004344 <.Lpcrel_hi92>
80004240: 00174703     	lbu	a4, 0x1(a4)
80004244: ffea0693     	addi	a3, s4, -0x2
80004248: fee48fa3     	sb	a4, -0x1(s1)
8000424c: 0ec6f163     	bgeu	a3, a2, 0x8000432e <.Lpcrel_hi93>
80004250: 031786b3     	mul	a3, a5, a7
80004254: 40d986b3     	sub	a3, s3, a3
80004258: 16c6         	slli	a3, a3, 0x31
8000425a: 92c1         	srli	a3, a3, 0x30
8000425c: 00de0733     	add	a4, t3, a3
80004260: 00074783     	lbu	a5, 0x0(a4)
80004264: fffa0693     	addi	a3, s4, -0x1
80004268: 00f48023     	sb	a5, 0x0(s1)
8000426c: 0ac6f663     	bgeu	a3, a2, 0x80004318 <.Lpcrel_hi94>
80004270: 00174683     	lbu	a3, 0x1(a4)
80004274: 1f71         	addi	t5, t5, -0x4
80004276: 00d480a3     	sb	a3, 0x1(s1)
8000427a: 1ff1         	addi	t6, t6, -0x4
8000427c: f92ee0e3     	bltu	t4, s2, 0x800041fc <.Lpcrel_hi85+0x12>
80004280: 01e60733     	add	a4, a2, t5
80004284: 46a5         	li	a3, 0x9
80004286: 0506fd63     	bgeu	a3, a6, 0x800042e0 <.Lpcrel_hi86+0x3a>
8000428a: ffe70693     	addi	a3, a4, -0x2
8000428e: 0ec6f163     	bgeu	a3, a2, 0x80004370 <.Lpcrel_hi87>
80004292: 03081793     	slli	a5, a6, 0x30
80004296: 6485         	lui	s1, 0x1
80004298: 06400893     	li	a7, 0x64
8000429c: 93c9         	srli	a5, a5, 0x32
8000429e: 47b48493     	addi	s1, s1, 0x47b
800042a2: 029787b3     	mul	a5, a5, s1

00000000800042a6 <.Lpcrel_hi86>:
800042a6: 00003297     	auipc	t0, 0x3
800042aa: 83c5         	srli	a5, a5, 0x11
800042ac: 031784b3     	mul	s1, a5, a7
800042b0: 409804bb     	subw	s1, a6, s1
800042b4: 14c6         	slli	s1, s1, 0x31
800042b6: 0304d813     	srli	a6, s1, 0x30
800042ba: 92a28493     	addi	s1, t0, -0x6d6
800042be: 94c2         	add	s1, s1, a6
800042c0: 0004c803     	lbu	a6, 0x0(s1)
800042c4: 00d588b3     	add	a7, a1, a3
800042c8: 177d         	addi	a4, a4, -0x1
800042ca: 01088023     	sb	a6, 0x0(a7)
800042ce: 0ac77c63     	bgeu	a4, a2, 0x80004386 <.Lpcrel_hi88>
800042d2: 0014c483     	lbu	s1, 0x1(s1)
800042d6: 972e         	add	a4, a4, a1
800042d8: 00970023     	sb	s1, 0x0(a4)
800042dc: e509         	bnez	a0, 0x800042e6 <.Lpcrel_hi86+0x40>
800042de: a029         	j	0x800042e8 <.Lpcrel_hi86+0x42>
800042e0: 87c2         	mv	a5, a6
800042e2: 86ba         	mv	a3, a4
800042e4: c111         	beqz	a0, 0x800042e8 <.Lpcrel_hi86+0x42>
800042e6: cf99         	beqz	a5, 0x80004304 <.Lpcrel_hi90+0x14>
800042e8: 16fd         	addi	a3, a3, -0x1
800042ea: 0ac6f963     	bgeu	a3, a2, 0x8000439c <.Lpcrel_hi89>
800042ee: 0786         	slli	a5, a5, 0x1

00000000800042f0 <.Lpcrel_hi90>:
800042f0: 00003517     	auipc	a0, 0x3
800042f4: 8e050513     	addi	a0, a0, -0x720
800042f8: 953e         	add	a0, a0, a5
800042fa: 00154503     	lbu	a0, 0x1(a0)
800042fe: 95b6         	add	a1, a1, a3
80004300: 00a58023     	sb	a0, 0x0(a1)
80004304: 8536         	mv	a0, a3
80004306: 70e2         	ld	ra, 0x38(sp)
80004308: 7442         	ld	s0, 0x30(sp)
8000430a: 74a2         	ld	s1, 0x28(sp)
8000430c: 7902         	ld	s2, 0x20(sp)
8000430e: 69e2         	ld	s3, 0x18(sp)
80004310: 6a42         	ld	s4, 0x10(sp)
80004312: 6aa2         	ld	s5, 0x8(sp)
80004314: 6121         	addi	sp, sp, 0x40
80004316: 8082         	ret

0000000080004318 <.Lpcrel_hi94>:
80004318: 00003517     	auipc	a0, 0x3
8000431c: 98050713     	addi	a4, a0, -0x680
80004320: 8536         	mv	a0, a3
80004322: 85b2         	mv	a1, a2
80004324: 863a         	mv	a2, a4
80004326: 00001097     	auipc	ra, 0x1
8000432a: a2a080e7     	jalr	-0x5d6(ra) <core::panicking::panic_bounds_check::h6aaee0d15e0261eb>

000000008000432e <.Lpcrel_hi93>:
8000432e: 00003517     	auipc	a0, 0x3
80004332: 96a50713     	addi	a4, a0, -0x696
80004336: 8536         	mv	a0, a3
80004338: 85b2         	mv	a1, a2
8000433a: 863a         	mv	a2, a4
8000433c: 00001097     	auipc	ra, 0x1
80004340: a14080e7     	jalr	-0x5ec(ra) <core::panicking::panic_bounds_check::h6aaee0d15e0261eb>

0000000080004344 <.Lpcrel_hi92>:
80004344: 00003517     	auipc	a0, 0x3
80004348: 95450713     	addi	a4, a0, -0x6ac
8000434c: 8536         	mv	a0, a3
8000434e: 85b2         	mv	a1, a2
80004350: 863a         	mv	a2, a4
80004352: 00001097     	auipc	ra, 0x1
80004356: 9fe080e7     	jalr	-0x602(ra) <core::panicking::panic_bounds_check::h6aaee0d15e0261eb>

000000008000435a <.Lpcrel_hi91>:
8000435a: 00003517     	auipc	a0, 0x3
8000435e: 93e50713     	addi	a4, a0, -0x6c2
80004362: 8536         	mv	a0, a3
80004364: 85b2         	mv	a1, a2
80004366: 863a         	mv	a2, a4
80004368: 00001097     	auipc	ra, 0x1
8000436c: 9e8080e7     	jalr	-0x618(ra) <core::panicking::panic_bounds_check::h6aaee0d15e0261eb>

0000000080004370 <.Lpcrel_hi87>:
80004370: 00003517     	auipc	a0, 0x3
80004374: 92850713     	addi	a4, a0, -0x6d8
80004378: 8536         	mv	a0, a3
8000437a: 85b2         	mv	a1, a2
8000437c: 863a         	mv	a2, a4
8000437e: 00001097     	auipc	ra, 0x1
80004382: 9d2080e7     	jalr	-0x62e(ra) <core::panicking::panic_bounds_check::h6aaee0d15e0261eb>

0000000080004386 <.Lpcrel_hi88>:
80004386: 00003517     	auipc	a0, 0x3
8000438a: 91250693     	addi	a3, a0, -0x6ee
8000438e: 853a         	mv	a0, a4
80004390: 85b2         	mv	a1, a2
80004392: 8636         	mv	a2, a3
80004394: 00001097     	auipc	ra, 0x1
80004398: 9bc080e7     	jalr	-0x644(ra) <core::panicking::panic_bounds_check::h6aaee0d15e0261eb>

000000008000439c <.Lpcrel_hi89>:
8000439c: 00003517     	auipc	a0, 0x3
800043a0: 8fc50713     	addi	a4, a0, -0x704
800043a4: 8536         	mv	a0, a3
800043a6: 85b2         	mv	a1, a2
800043a8: 863a         	mv	a2, a4
800043aa: 00001097     	auipc	ra, 0x1
800043ae: 9a6080e7     	jalr	-0x65a(ra) <core::panicking::panic_bounds_check::h6aaee0d15e0261eb>

00000000800043b2 <core::fmt::num::imp::_$LT$impl$u20$core..fmt..Display$u20$for$u20$u32$GT$::fmt::hc19fd54e2a0ceeb1>:
800043b2: 7139         	addi	sp, sp, -0x40
800043b4: fc06         	sd	ra, 0x38(sp)
800043b6: f822         	sd	s0, 0x30(sp)
800043b8: f426         	sd	s1, 0x28(sp)
800043ba: f04a         	sd	s2, 0x20(sp)
800043bc: ec4e         	sd	s3, 0x18(sp)
800043be: 0080         	addi	s0, sp, 0x40
800043c0: 4108         	lw	a0, 0x0(a0)
800043c2: 84ae         	mv	s1, a1
800043c4: fce40913     	addi	s2, s0, -0x32
800043c8: fce40593     	addi	a1, s0, -0x32
800043cc: 4629         	li	a2, 0xa
800043ce: 49a9         	li	s3, 0xa
800043d0: 00000097     	auipc	ra, 0x0
800043d4: bd2080e7     	jalr	-0x42e(ra) <core::fmt::num::imp::_$LT$impl$u20$u32$GT$::_fmt_inner::h2c8ef1aec4279901>
800043d8: 40a987b3     	sub	a5, s3, a0
800043dc: 00a90733     	add	a4, s2, a0
800043e0: 4585         	li	a1, 0x1
800043e2: 4605         	li	a2, 0x1
800043e4: 8526         	mv	a0, s1
800043e6: 4681         	li	a3, 0x0
800043e8: 00000097     	auipc	ra, 0x0
800043ec: 348080e7     	jalr	0x348(ra) <core::fmt::Formatter::pad_integral::h0745a9fd037e4d44>
800043f0: 70e2         	ld	ra, 0x38(sp)
800043f2: 7442         	ld	s0, 0x30(sp)
800043f4: 74a2         	ld	s1, 0x28(sp)
800043f6: 7902         	ld	s2, 0x20(sp)
800043f8: 69e2         	ld	s3, 0x18(sp)
800043fa: 6121         	addi	sp, sp, 0x40
800043fc: 8082         	ret

00000000800043fe <core::fmt::num::imp::_$LT$impl$u20$core..fmt..Display$u20$for$u20$usize$GT$::fmt::h566085f0242c3154>:
800043fe: 7139         	addi	sp, sp, -0x40
80004400: fc06         	sd	ra, 0x38(sp)
80004402: f822         	sd	s0, 0x30(sp)
80004404: f426         	sd	s1, 0x28(sp)
80004406: f04a         	sd	s2, 0x20(sp)
80004408: ec4e         	sd	s3, 0x18(sp)
8000440a: 0080         	addi	s0, sp, 0x40
8000440c: 6108         	ld	a0, 0x0(a0)
8000440e: 84ae         	mv	s1, a1
80004410: fc440913     	addi	s2, s0, -0x3c
80004414: fc440593     	addi	a1, s0, -0x3c
80004418: 4651         	li	a2, 0x14
8000441a: 49d1         	li	s3, 0x14
8000441c: 00000097     	auipc	ra, 0x0
80004420: d92080e7     	jalr	-0x26e(ra) <core::fmt::num::imp::_$LT$impl$u20$u64$GT$::_fmt_inner::habf36a285bd59e0b>
80004424: 40a987b3     	sub	a5, s3, a0
80004428: 00a90733     	add	a4, s2, a0
8000442c: 4585         	li	a1, 0x1
8000442e: 4605         	li	a2, 0x1
80004430: 8526         	mv	a0, s1
80004432: 4681         	li	a3, 0x0
80004434: 00000097     	auipc	ra, 0x0
80004438: 2fc080e7     	jalr	0x2fc(ra) <core::fmt::Formatter::pad_integral::h0745a9fd037e4d44>
8000443c: 70e2         	ld	ra, 0x38(sp)
8000443e: 7442         	ld	s0, 0x30(sp)
80004440: 74a2         	ld	s1, 0x28(sp)
80004442: 7902         	ld	s2, 0x20(sp)
80004444: 69e2         	ld	s3, 0x18(sp)
80004446: 6121         	addi	sp, sp, 0x40
80004448: 8082         	ret

000000008000444a <core::fmt::num::_$LT$impl$u20$core..fmt..LowerHex$u20$for$u20$usize$GT$::fmt::hcb99b156cc230e11>:
8000444a: 1101         	addi	sp, sp, -0x20
8000444c: ec06         	sd	ra, 0x18(sp)
8000444e: e822         	sd	s0, 0x10(sp)
80004450: 1000         	addi	s0, sp, 0x20
80004452: 882e         	mv	a6, a1
80004454: 4781         	li	a5, 0x0
80004456: 6108         	ld	a0, 0x0(a0)
80004458: fef40593     	addi	a1, s0, -0x11

000000008000445c <.Lpcrel_hi209>:
8000445c: 00001617     	auipc	a2, 0x1
80004460: 2d460613     	addi	a2, a2, 0x2d4
80004464: 00f57693     	andi	a3, a0, 0xf
80004468: 96b2         	add	a3, a3, a2
8000446a: 0006c683     	lbu	a3, 0x0(a3)
8000446e: 8111         	srli	a0, a0, 0x4
80004470: 0785         	addi	a5, a5, 0x1
80004472: 00d58023     	sb	a3, 0x0(a1)
80004476: 15fd         	addi	a1, a1, -0x1
80004478: f575         	bnez	a0, 0x80004464 <.Lpcrel_hi209+0x8>
8000447a: fe040513     	addi	a0, s0, -0x20
8000447e: 8d1d         	sub	a0, a0, a5
80004480: 01050713     	addi	a4, a0, 0x10

0000000080004484 <.Lpcrel_hi210>:
80004484: 00003517     	auipc	a0, 0x3
80004488: 4585         	li	a1, 0x1
8000448a: 82c50613     	addi	a2, a0, -0x7d4
8000448e: 4689         	li	a3, 0x2
80004490: 8542         	mv	a0, a6
80004492: 00000097     	auipc	ra, 0x0
80004496: 29e080e7     	jalr	0x29e(ra) <core::fmt::Formatter::pad_integral::h0745a9fd037e4d44>
8000449a: 60e2         	ld	ra, 0x18(sp)
8000449c: 6442         	ld	s0, 0x10(sp)
8000449e: 6105         	addi	sp, sp, 0x20
800044a0: 8082         	ret

00000000800044a2 <core::fmt::num::_$LT$impl$u20$core..fmt..UpperHex$u20$for$u20$u32$GT$::fmt::h07f6b7b2f3968c14>:
800044a2: 1101         	addi	sp, sp, -0x20
800044a4: ec06         	sd	ra, 0x18(sp)
800044a6: e822         	sd	s0, 0x10(sp)
800044a8: 1000         	addi	s0, sp, 0x20
800044aa: 882e         	mv	a6, a1
800044ac: 4781         	li	a5, 0x0
800044ae: 4110         	lw	a2, 0x0(a0)
800044b0: fef40513     	addi	a0, s0, -0x11

00000000800044b4 <.Lpcrel_hi219>:
800044b4: 00001597     	auipc	a1, 0x1
800044b8: 25c58593     	addi	a1, a1, 0x25c
800044bc: 00f67693     	andi	a3, a2, 0xf
800044c0: 96ae         	add	a3, a3, a1
800044c2: 0006c683     	lbu	a3, 0x0(a3)
800044c6: 0046571b     	srliw	a4, a2, 0x4
800044ca: 0785         	addi	a5, a5, 0x1
800044cc: 00d50023     	sb	a3, 0x0(a0)
800044d0: 157d         	addi	a0, a0, -0x1
800044d2: 863a         	mv	a2, a4
800044d4: f765         	bnez	a4, 0x800044bc <.Lpcrel_hi219+0x8>
800044d6: fe840513     	addi	a0, s0, -0x18
800044da: 8d1d         	sub	a0, a0, a5
800044dc: 00850713     	addi	a4, a0, 0x8

00000000800044e0 <.Lpcrel_hi220>:
800044e0: 00002517     	auipc	a0, 0x2
800044e4: 4585         	li	a1, 0x1
800044e6: 7d050613     	addi	a2, a0, 0x7d0
800044ea: 4689         	li	a3, 0x2
800044ec: 8542         	mv	a0, a6
800044ee: 00000097     	auipc	ra, 0x0
800044f2: 242080e7     	jalr	0x242(ra) <core::fmt::Formatter::pad_integral::h0745a9fd037e4d44>
800044f6: 60e2         	ld	ra, 0x18(sp)
800044f8: 6442         	ld	s0, 0x10(sp)
800044fa: 6105         	addi	sp, sp, 0x20
800044fc: 8082         	ret

00000000800044fe <core::fmt::write::hfd17e9e8e823b619>:
800044fe: 7119         	addi	sp, sp, -0x80
80004500: fc86         	sd	ra, 0x78(sp)
80004502: f8a2         	sd	s0, 0x70(sp)
80004504: f4a6         	sd	s1, 0x68(sp)
80004506: f0ca         	sd	s2, 0x60(sp)
80004508: ecce         	sd	s3, 0x58(sp)
8000450a: e8d2         	sd	s4, 0x50(sp)
8000450c: e4d6         	sd	s5, 0x48(sp)
8000450e: e0da         	sd	s6, 0x40(sp)
80004510: fc5e         	sd	s7, 0x38(sp)
80004512: f862         	sd	s8, 0x30(sp)
80004514: f466         	sd	s9, 0x28(sp)
80004516: f06a         	sd	s10, 0x20(sp)
80004518: 0100         	addi	s0, sp, 0x80
8000451a: 89b6         	mv	s3, a3
8000451c: 892e         	mv	s2, a1
8000451e: 0016f593     	andi	a1, a3, 0x1
80004522: 8a2a         	mv	s4, a0
80004524: 16059063     	bnez	a1, 0x80004684 <core::fmt::write::hfd17e9e8e823b619+0x186>
80004528: 00064483     	lbu	s1, 0x0(a2)
8000452c: 18048163     	beqz	s1, 0x800046ae <core::fmt::write::hfd17e9e8e823b619+0x1b0>
80004530: 4c81         	li	s9, 0x0
80004532: 01893b03     	ld	s6, 0x18(s2)
80004536: 08000b93     	li	s7, 0x80
8000453a: 0c000c13     	li	s8, 0xc0
8000453e: 60000537     	lui	a0, 0x60000
80004542: 02050d13     	addi	s10, a0, 0x20
80004546: a805         	j	0x80004576 <core::fmt::write::hfd17e9e8e823b619+0x78>
80004548: 004c9513     	slli	a0, s9, 0x4
8000454c: 00a985b3     	add	a1, s3, a0
80004550: 6188         	ld	a0, 0x0(a1)
80004552: 6590         	ld	a2, 0x8(a1)
80004554: f9443423     	sd	s4, -0x78(s0)
80004558: f9243823     	sd	s2, -0x70(s0)
8000455c: f9a43c23     	sd	s10, -0x68(s0)
80004560: f8840593     	addi	a1, s0, -0x78
80004564: 9602         	jalr	a2
80004566: 14051663     	bnez	a0, 0x800046b2 <core::fmt::write::hfd17e9e8e823b619+0x1b4>
8000456a: 0c85         	addi	s9, s9, 0x1
8000456c: 000ac483     	lbu	s1, 0x0(s5)
80004570: 8656         	mv	a2, s5
80004572: 12048e63     	beqz	s1, 0x800046ae <core::fmt::write::hfd17e9e8e823b619+0x1b0>
80004576: 03849513     	slli	a0, s1, 0x38
8000457a: 00160a93     	addi	s5, a2, 0x1
8000457e: 00054a63     	bltz	a0, 0x80004592 <core::fmt::write::hfd17e9e8e823b619+0x94>
80004582: 8552         	mv	a0, s4
80004584: 85d6         	mv	a1, s5
80004586: 8626         	mv	a2, s1
80004588: 9b02         	jalr	s6
8000458a: 12051463     	bnez	a0, 0x800046b2 <core::fmt::write::hfd17e9e8e823b619+0x1b4>
8000458e: 9aa6         	add	s5, s5, s1
80004590: bff1         	j	0x8000456c <core::fmt::write::hfd17e9e8e823b619+0x6e>
80004592: 05748b63     	beq	s1, s7, 0x800045e8 <core::fmt::write::hfd17e9e8e823b619+0xea>
80004596: fb8489e3     	beq	s1, s8, 0x80004548 <core::fmt::write::hfd17e9e8e823b619+0x4a>
8000459a: 0014f513     	andi	a0, s1, 0x1
8000459e: 85ea         	mv	a1, s10
800045a0: c115         	beqz	a0, 0x800045c4 <core::fmt::write::hfd17e9e8e823b619+0xc6>
800045a2: 00264503     	lbu	a0, 0x2(a2)
800045a6: 00164583     	lbu	a1, 0x1(a2)
800045aa: 00364683     	lbu	a3, 0x3(a2)
800045ae: 00464703     	lbu	a4, 0x4(a2)
800045b2: 0522         	slli	a0, a0, 0x8
800045b4: 8d4d         	or	a0, a0, a1
800045b6: 06c2         	slli	a3, a3, 0x10
800045b8: 0762         	slli	a4, a4, 0x18
800045ba: 00d765b3     	or	a1, a4, a3
800045be: 8dc9         	or	a1, a1, a0
800045c0: 00560a93     	addi	s5, a2, 0x5
800045c4: 0024f513     	andi	a0, s1, 0x2
800045c8: e121         	bnez	a0, 0x80004608 <core::fmt::write::hfd17e9e8e823b619+0x10a>
800045ca: 4601         	li	a2, 0x0
800045cc: 0044f513     	andi	a0, s1, 0x4
800045d0: c531         	beqz	a0, 0x8000461c <core::fmt::write::hfd17e9e8e823b619+0x11e>
800045d2: 001ac503     	lbu	a0, 0x1(s5)
800045d6: 000ac683     	lbu	a3, 0x0(s5)
800045da: 0522         	slli	a0, a0, 0x8
800045dc: 8ec9         	or	a3, a3, a0
800045de: 0a89         	addi	s5, s5, 0x2
800045e0: 0084f513     	andi	a0, s1, 0x8
800045e4: e121         	bnez	a0, 0x80004624 <core::fmt::write::hfd17e9e8e823b619+0x126>
800045e6: a0b9         	j	0x80004634 <core::fmt::write::hfd17e9e8e823b619+0x136>
800045e8: 00264503     	lbu	a0, 0x2(a2)
800045ec: 00164583     	lbu	a1, 0x1(a2)
800045f0: 0522         	slli	a0, a0, 0x8
800045f2: 00b56ab3     	or	s5, a0, a1
800045f6: 00360493     	addi	s1, a2, 0x3
800045fa: 8552         	mv	a0, s4
800045fc: 85a6         	mv	a1, s1
800045fe: 8656         	mv	a2, s5
80004600: 9b02         	jalr	s6
80004602: e945         	bnez	a0, 0x800046b2 <core::fmt::write::hfd17e9e8e823b619+0x1b4>
80004604: 9aa6         	add	s5, s5, s1
80004606: b79d         	j	0x8000456c <core::fmt::write::hfd17e9e8e823b619+0x6e>
80004608: 001ac503     	lbu	a0, 0x1(s5)
8000460c: 000ac603     	lbu	a2, 0x0(s5)
80004610: 0522         	slli	a0, a0, 0x8
80004612: 8e49         	or	a2, a2, a0
80004614: 0a89         	addi	s5, s5, 0x2
80004616: 0044f513     	andi	a0, s1, 0x4
8000461a: fd45         	bnez	a0, 0x800045d2 <core::fmt::write::hfd17e9e8e823b619+0xd4>
8000461c: 4681         	li	a3, 0x0
8000461e: 0084f513     	andi	a0, s1, 0x8
80004622: c909         	beqz	a0, 0x80004634 <core::fmt::write::hfd17e9e8e823b619+0x136>
80004624: 001ac503     	lbu	a0, 0x1(s5)
80004628: 000ac703     	lbu	a4, 0x0(s5)
8000462c: 0522         	slli	a0, a0, 0x8
8000462e: 00e56cb3     	or	s9, a0, a4
80004632: 0a89         	addi	s5, s5, 0x2
80004634: 0104f513     	andi	a0, s1, 0x10
80004638: ed15         	bnez	a0, 0x80004674 <core::fmt::write::hfd17e9e8e823b619+0x176>
8000463a: 0204f513     	andi	a0, s1, 0x20
8000463e: c509         	beqz	a0, 0x80004648 <core::fmt::write::hfd17e9e8e823b619+0x14a>
80004640: 0692         	slli	a3, a3, 0x4
80004642: 96ce         	add	a3, a3, s3
80004644: 0086d683     	lhu	a3, 0x8(a3)
80004648: 004c9513     	slli	a0, s9, 0x4
8000464c: 00a98733     	add	a4, s3, a0
80004650: 6308         	ld	a0, 0x0(a4)
80004652: 6718         	ld	a4, 0x8(a4)
80004654: f9443423     	sd	s4, -0x78(s0)
80004658: f9243823     	sd	s2, -0x70(s0)
8000465c: f8b42c23     	sw	a1, -0x68(s0)
80004660: f8c41e23     	sh	a2, -0x64(s0)
80004664: f8d41f23     	sh	a3, -0x62(s0)
80004668: f8840593     	addi	a1, s0, -0x78
8000466c: 9702         	jalr	a4
8000466e: ee050ee3     	beqz	a0, 0x8000456a <core::fmt::write::hfd17e9e8e823b619+0x6c>
80004672: a081         	j	0x800046b2 <core::fmt::write::hfd17e9e8e823b619+0x1b4>
80004674: 0612         	slli	a2, a2, 0x4
80004676: 964e         	add	a2, a2, s3
80004678: 00865603     	lhu	a2, 0x8(a2)
8000467c: 0204f513     	andi	a0, s1, 0x20
80004680: f161         	bnez	a0, 0x80004640 <core::fmt::write::hfd17e9e8e823b619+0x142>
80004682: b7d9         	j	0x80004648 <core::fmt::write::hfd17e9e8e823b619+0x14a>
80004684: 01893783     	ld	a5, 0x18(s2)
80004688: 0019d693     	srli	a3, s3, 0x1
8000468c: 8552         	mv	a0, s4
8000468e: 85b2         	mv	a1, a2
80004690: 8636         	mv	a2, a3
80004692: 70e6         	ld	ra, 0x78(sp)
80004694: 7446         	ld	s0, 0x70(sp)
80004696: 74a6         	ld	s1, 0x68(sp)
80004698: 7906         	ld	s2, 0x60(sp)
8000469a: 69e6         	ld	s3, 0x58(sp)
8000469c: 6a46         	ld	s4, 0x50(sp)
8000469e: 6aa6         	ld	s5, 0x48(sp)
800046a0: 6b06         	ld	s6, 0x40(sp)
800046a2: 7be2         	ld	s7, 0x38(sp)
800046a4: 7c42         	ld	s8, 0x30(sp)
800046a6: 7ca2         	ld	s9, 0x28(sp)
800046a8: 7d02         	ld	s10, 0x20(sp)
800046aa: 6109         	addi	sp, sp, 0x80
800046ac: 8782         	jr	a5
800046ae: 4501         	li	a0, 0x0
800046b0: a011         	j	0x800046b4 <core::fmt::write::hfd17e9e8e823b619+0x1b6>
800046b2: 4505         	li	a0, 0x1
800046b4: 70e6         	ld	ra, 0x78(sp)
800046b6: 7446         	ld	s0, 0x70(sp)
800046b8: 74a6         	ld	s1, 0x68(sp)
800046ba: 7906         	ld	s2, 0x60(sp)
800046bc: 69e6         	ld	s3, 0x58(sp)
800046be: 6a46         	ld	s4, 0x50(sp)
800046c0: 6aa6         	ld	s5, 0x48(sp)
800046c2: 6b06         	ld	s6, 0x40(sp)
800046c4: 7be2         	ld	s7, 0x38(sp)
800046c6: 7c42         	ld	s8, 0x30(sp)
800046c8: 7ca2         	ld	s9, 0x28(sp)
800046ca: 7d02         	ld	s10, 0x20(sp)
800046cc: 6109         	addi	sp, sp, 0x80
800046ce: 8082         	ret

00000000800046d0 <core::fmt::Formatter::pad_integral::write_prefix::hfc34f482b9af976a>:
800046d0: 7179         	addi	sp, sp, -0x30
800046d2: f406         	sd	ra, 0x28(sp)
800046d4: f022         	sd	s0, 0x20(sp)
800046d6: ec26         	sd	s1, 0x18(sp)
800046d8: e84a         	sd	s2, 0x10(sp)
800046da: e44e         	sd	s3, 0x8(sp)
800046dc: e052         	sd	s4, 0x0(sp)
800046de: 1800         	addi	s0, sp, 0x30
800046e0: 893a         	mv	s2, a4
800046e2: 8a36         	mv	s4, a3
800046e4: 89ae         	mv	s3, a1
800046e6: 001105b7     	lui	a1, 0x110
800046ea: 00b60c63     	beq	a2, a1, 0x80004702 <core::fmt::Formatter::pad_integral::write_prefix::hfc34f482b9af976a+0x32>
800046ee: 0209b683     	ld	a3, 0x20(s3)
800046f2: 84aa         	mv	s1, a0
800046f4: 85b2         	mv	a1, a2
800046f6: 9682         	jalr	a3
800046f8: 85aa         	mv	a1, a0
800046fa: 8526         	mv	a0, s1
800046fc: c199         	beqz	a1, 0x80004702 <core::fmt::Formatter::pad_integral::write_prefix::hfc34f482b9af976a+0x32>
800046fe: 4505         	li	a0, 0x1
80004700: a005         	j	0x80004720 <core::fmt::Formatter::pad_integral::write_prefix::hfc34f482b9af976a+0x50>
80004702: 000a0e63     	beqz	s4, 0x8000471e <core::fmt::Formatter::pad_integral::write_prefix::hfc34f482b9af976a+0x4e>
80004706: 0189b783     	ld	a5, 0x18(s3)
8000470a: 85d2         	mv	a1, s4
8000470c: 864a         	mv	a2, s2
8000470e: 70a2         	ld	ra, 0x28(sp)
80004710: 7402         	ld	s0, 0x20(sp)
80004712: 64e2         	ld	s1, 0x18(sp)
80004714: 6942         	ld	s2, 0x10(sp)
80004716: 69a2         	ld	s3, 0x8(sp)
80004718: 6a02         	ld	s4, 0x0(sp)
8000471a: 6145         	addi	sp, sp, 0x30
8000471c: 8782         	jr	a5
8000471e: 4501         	li	a0, 0x0
80004720: 70a2         	ld	ra, 0x28(sp)
80004722: 7402         	ld	s0, 0x20(sp)
80004724: 64e2         	ld	s1, 0x18(sp)
80004726: 6942         	ld	s2, 0x10(sp)
80004728: 69a2         	ld	s3, 0x8(sp)
8000472a: 6a02         	ld	s4, 0x0(sp)
8000472c: 6145         	addi	sp, sp, 0x30
8000472e: 8082         	ret

0000000080004730 <core::fmt::Formatter::pad_integral::h0745a9fd037e4d44>:
80004730: 7119         	addi	sp, sp, -0x80
80004732: fc86         	sd	ra, 0x78(sp)
80004734: f8a2         	sd	s0, 0x70(sp)
80004736: f4a6         	sd	s1, 0x68(sp)
80004738: f0ca         	sd	s2, 0x60(sp)
8000473a: ecce         	sd	s3, 0x58(sp)
8000473c: e8d2         	sd	s4, 0x50(sp)
8000473e: e4d6         	sd	s5, 0x48(sp)
80004740: e0da         	sd	s6, 0x40(sp)
80004742: fc5e         	sd	s7, 0x38(sp)
80004744: f862         	sd	s8, 0x30(sp)
80004746: f466         	sd	s9, 0x28(sp)
80004748: f06a         	sd	s10, 0x20(sp)
8000474a: ec6e         	sd	s11, 0x18(sp)
8000474c: 0100         	addi	s0, sp, 0x80
8000474e: 89be         	mv	s3, a5
80004750: 8d3a         	mv	s10, a4
80004752: 8a36         	mv	s4, a3
80004754: 8ab2         	mv	s5, a2
80004756: 8baa         	mv	s7, a0
80004758: cdbd         	beqz	a1, 0x800047d6 <core::fmt::Formatter::pad_integral::h0745a9fd037e4d44+0xa6>
8000475a: 010bec03     	lwu	s8, 0x10(s7)
8000475e: 00200537     	lui	a0, 0x200
80004762: 00ac7533     	and	a0, s8, a0
80004766: 00110b37     	lui	s6, 0x110
8000476a: c119         	beqz	a0, 0x80004770 <core::fmt::Formatter::pad_integral::h0745a9fd037e4d44+0x40>
8000476c: 02b00b13     	li	s6, 0x2b
80004770: 8155         	srli	a0, a0, 0x15
80004772: 00a98cb3     	add	s9, s3, a0
80004776: 028c1513     	slli	a0, s8, 0x28
8000477a: 06055863     	bgez	a0, 0x800047ea <core::fmt::Formatter::pad_integral::h0745a9fd037e4d44+0xba>
8000477e: 02000513     	li	a0, 0x20
80004782: 0aaa7a63     	bgeu	s4, a0, 0x80004836 <core::fmt::Formatter::pad_integral::h0745a9fd037e4d44+0x106>
80004786: 4501         	li	a0, 0x0
80004788: 000a0f63     	beqz	s4, 0x800047a6 <core::fmt::Formatter::pad_integral::h0745a9fd037e4d44+0x76>
8000478c: 014a85b3     	add	a1, s5, s4
80004790: 8656         	mv	a2, s5
80004792: 00060683     	lb	a3, 0x0(a2)
80004796: 0605         	addi	a2, a2, 0x1
80004798: fc06a693     	slti	a3, a3, -0x40
8000479c: 0016c693     	xori	a3, a3, 0x1
800047a0: 9536         	add	a0, a0, a3
800047a2: feb618e3     	bne	a2, a1, 0x80004792 <core::fmt::Formatter::pad_integral::h0745a9fd037e4d44+0x62>
800047a6: 9caa         	add	s9, s9, a0
800047a8: 014bd903     	lhu	s2, 0x14(s7)
800047ac: 052cf463     	bgeu	s9, s2, 0x800047f4 <core::fmt::Formatter::pad_integral::h0745a9fd037e4d44+0xc4>
800047b0: 027c1513     	slli	a0, s8, 0x27
800047b4: f9a43823     	sd	s10, -0x70(s0)
800047b8: 08054b63     	bltz	a0, 0x8000484e <core::fmt::Formatter::pad_integral::h0745a9fd037e4d44+0x11e>
800047bc: 41990633     	sub	a2, s2, s9
800047c0: 021c1513     	slli	a0, s8, 0x21
800047c4: 9179         	srli	a0, a0, 0x3e
800047c6: 4585         	li	a1, 0x1
800047c8: 1c2e         	slli	s8, s8, 0x2b
800047ca: 0ea5c263     	blt	a1, a0, 0x800048ae <core::fmt::Formatter::pad_integral::h0745a9fd037e4d44+0x17e>
800047ce: 10051563     	bnez	a0, 0x800048d8 <core::fmt::Formatter::pad_integral::h0745a9fd037e4d44+0x1a8>
800047d2: 4d81         	li	s11, 0x0
800047d4: a219         	j	0x800048da <core::fmt::Formatter::pad_integral::h0745a9fd037e4d44+0x1aa>
800047d6: 010bac03     	lw	s8, 0x10(s7)
800047da: 00198c93     	addi	s9, s3, 0x1
800047de: 02d00b13     	li	s6, 0x2d
800047e2: 028c1513     	slli	a0, s8, 0x28
800047e6: f8054ce3     	bltz	a0, 0x8000477e <core::fmt::Formatter::pad_integral::h0745a9fd037e4d44+0x4e>
800047ea: 4a81         	li	s5, 0x0
800047ec: 014bd903     	lhu	s2, 0x14(s7)
800047f0: fd2ce0e3     	bltu	s9, s2, 0x800047b0 <core::fmt::Formatter::pad_integral::h0745a9fd037e4d44+0x80>
800047f4: 000bbc03     	ld	s8, 0x0(s7)
800047f8: 008bb483     	ld	s1, 0x8(s7)
800047fc: 8562         	mv	a0, s8
800047fe: 85a6         	mv	a1, s1
80004800: 865a         	mv	a2, s6
80004802: 86d6         	mv	a3, s5
80004804: 8752         	mv	a4, s4
80004806: 00000097     	auipc	ra, 0x0
8000480a: eca080e7     	jalr	-0x136(ra) <core::fmt::Formatter::pad_integral::write_prefix::hfc34f482b9af976a>
8000480e: ed75         	bnez	a0, 0x8000490a <core::fmt::Formatter::pad_integral::h0745a9fd037e4d44+0x1da>
80004810: 6c9c         	ld	a5, 0x18(s1)
80004812: 8562         	mv	a0, s8
80004814: 85ea         	mv	a1, s10
80004816: 864e         	mv	a2, s3
80004818: 70e6         	ld	ra, 0x78(sp)
8000481a: 7446         	ld	s0, 0x70(sp)
8000481c: 74a6         	ld	s1, 0x68(sp)
8000481e: 7906         	ld	s2, 0x60(sp)
80004820: 69e6         	ld	s3, 0x58(sp)
80004822: 6a46         	ld	s4, 0x50(sp)
80004824: 6aa6         	ld	s5, 0x48(sp)
80004826: 6b06         	ld	s6, 0x40(sp)
80004828: 7be2         	ld	s7, 0x38(sp)
8000482a: 7c42         	ld	s8, 0x30(sp)
8000482c: 7ca2         	ld	s9, 0x28(sp)
8000482e: 7d02         	ld	s10, 0x20(sp)
80004830: 6de2         	ld	s11, 0x18(sp)
80004832: 6109         	addi	sp, sp, 0x80
80004834: 8782         	jr	a5
80004836: 8556         	mv	a0, s5
80004838: 85d2         	mv	a1, s4
8000483a: 00000097     	auipc	ra, 0x0
8000483e: 30c080e7     	jalr	0x30c(ra) <core::str::count::do_count_chars::h6ce55074ab2fe9d1>
80004842: 9caa         	add	s9, s9, a0
80004844: 014bd903     	lhu	s2, 0x14(s7)
80004848: fb2cf6e3     	bgeu	s9, s2, 0x800047f4 <core::fmt::Formatter::pad_integral::h0745a9fd037e4d44+0xc4>
8000484c: b795         	j	0x800047b0 <core::fmt::Formatter::pad_integral::h0745a9fd037e4d44+0x80>
8000484e: 010bbd03     	ld	s10, 0x10(s7)
80004852: 000bbc03     	ld	s8, 0x0(s7)
80004856: 008bbd83     	ld	s11, 0x8(s7)
8000485a: 9fe00537     	lui	a0, 0x9fe00
8000485e: 200005b7     	lui	a1, 0x20000
80004862: 00ad7533     	and	a0, s10, a0
80004866: 03058593     	addi	a1, a1, 0x30
8000486a: 8d4d         	or	a0, a0, a1
8000486c: 00aba823     	sw	a0, 0x10(s7)
80004870: 8562         	mv	a0, s8
80004872: 85ee         	mv	a1, s11
80004874: 865a         	mv	a2, s6
80004876: 86d6         	mv	a3, s5
80004878: 8752         	mv	a4, s4
8000487a: 00000097     	auipc	ra, 0x0
8000487e: e56080e7     	jalr	-0x1aa(ra) <core::fmt::Formatter::pad_integral::write_prefix::hfc34f482b9af976a>
80004882: 4a05         	li	s4, 0x1
80004884: e541         	bnez	a0, 0x8000490c <core::fmt::Formatter::pad_integral::h0745a9fd037e4d44+0x1dc>
80004886: 4481         	li	s1, 0x0
80004888: 41990533     	sub	a0, s2, s9
8000488c: 6941         	lui	s2, 0x10
8000488e: 197d         	addi	s2, s2, -0x1
80004890: 01257ab3     	and	s5, a0, s2
80004894: 0124f533     	and	a0, s1, s2
80004898: 03557463     	bgeu	a0, s5, 0x800048c0 <core::fmt::Formatter::pad_integral::h0745a9fd037e4d44+0x190>
8000489c: 020db603     	ld	a2, 0x20(s11)
800048a0: 0485         	addi	s1, s1, 0x1
800048a2: 03000593     	li	a1, 0x30
800048a6: 8562         	mv	a0, s8
800048a8: 9602         	jalr	a2
800048aa: d56d         	beqz	a0, 0x80004894 <core::fmt::Formatter::pad_integral::h0745a9fd037e4d44+0x164>
800048ac: a085         	j	0x8000490c <core::fmt::Formatter::pad_integral::h0745a9fd037e4d44+0x1dc>
800048ae: 4589         	li	a1, 0x2
800048b0: 8db2         	mv	s11, a2
800048b2: 02b51463     	bne	a0, a1, 0x800048da <core::fmt::Formatter::pad_integral::h0745a9fd037e4d44+0x1aa>
800048b6: 03061513     	slli	a0, a2, 0x30
800048ba: 03155d93     	srli	s11, a0, 0x31
800048be: a831         	j	0x800048da <core::fmt::Formatter::pad_integral::h0745a9fd037e4d44+0x1aa>
800048c0: 018db683     	ld	a3, 0x18(s11)
800048c4: 8562         	mv	a0, s8
800048c6: f9043583     	ld	a1, -0x70(s0)
800048ca: 864e         	mv	a2, s3
800048cc: 9682         	jalr	a3
800048ce: ed1d         	bnez	a0, 0x8000490c <core::fmt::Formatter::pad_integral::h0745a9fd037e4d44+0x1dc>
800048d0: 4a01         	li	s4, 0x0
800048d2: 01abb823     	sd	s10, 0x10(s7)
800048d6: a81d         	j	0x8000490c <core::fmt::Formatter::pad_integral::h0745a9fd037e4d44+0x1dc>
800048d8: 8db2         	mv	s11, a2
800048da: f8c43423     	sd	a2, -0x78(s0)
800048de: 4d01         	li	s10, 0x0
800048e0: 02bc5c13     	srli	s8, s8, 0x2b
800048e4: 000bbc83     	ld	s9, 0x0(s7)
800048e8: 008bbb83     	ld	s7, 0x8(s7)
800048ec: 64c1         	lui	s1, 0x10
800048ee: 14fd         	addi	s1, s1, -0x1
800048f0: 009df933     	and	s2, s11, s1
800048f4: 009d7533     	and	a0, s10, s1
800048f8: 03257a63     	bgeu	a0, s2, 0x8000492c <core::fmt::Formatter::pad_integral::h0745a9fd037e4d44+0x1fc>
800048fc: 020bb603     	ld	a2, 0x20(s7)
80004900: 0d05         	addi	s10, s10, 0x1
80004902: 8566         	mv	a0, s9
80004904: 85e2         	mv	a1, s8
80004906: 9602         	jalr	a2
80004908: d575         	beqz	a0, 0x800048f4 <core::fmt::Formatter::pad_integral::h0745a9fd037e4d44+0x1c4>
8000490a: 4a05         	li	s4, 0x1
8000490c: 8552         	mv	a0, s4
8000490e: 70e6         	ld	ra, 0x78(sp)
80004910: 7446         	ld	s0, 0x70(sp)
80004912: 74a6         	ld	s1, 0x68(sp)
80004914: 7906         	ld	s2, 0x60(sp)
80004916: 69e6         	ld	s3, 0x58(sp)
80004918: 6a46         	ld	s4, 0x50(sp)
8000491a: 6aa6         	ld	s5, 0x48(sp)
8000491c: 6b06         	ld	s6, 0x40(sp)
8000491e: 7be2         	ld	s7, 0x38(sp)
80004920: 7c42         	ld	s8, 0x30(sp)
80004922: 7ca2         	ld	s9, 0x28(sp)
80004924: 7d02         	ld	s10, 0x20(sp)
80004926: 6de2         	ld	s11, 0x18(sp)
80004928: 6109         	addi	sp, sp, 0x80
8000492a: 8082         	ret
8000492c: 8566         	mv	a0, s9
8000492e: 85de         	mv	a1, s7
80004930: 865a         	mv	a2, s6
80004932: 86d6         	mv	a3, s5
80004934: 8752         	mv	a4, s4
80004936: 00000097     	auipc	ra, 0x0
8000493a: d9a080e7     	jalr	-0x266(ra) <core::fmt::Formatter::pad_integral::write_prefix::hfc34f482b9af976a>
8000493e: 4a05         	li	s4, 0x1
80004940: f571         	bnez	a0, 0x8000490c <core::fmt::Formatter::pad_integral::h0745a9fd037e4d44+0x1dc>
80004942: 018bb683     	ld	a3, 0x18(s7)
80004946: 8566         	mv	a0, s9
80004948: f9043583     	ld	a1, -0x70(s0)
8000494c: 864e         	mv	a2, s3
8000494e: 9682         	jalr	a3
80004950: fd55         	bnez	a0, 0x8000490c <core::fmt::Formatter::pad_integral::h0745a9fd037e4d44+0x1dc>
80004952: 4481         	li	s1, 0x0
80004954: f8843503     	ld	a0, -0x78(s0)
80004958: 41b50533     	sub	a0, a0, s11
8000495c: 6941         	lui	s2, 0x10
8000495e: 197d         	addi	s2, s2, -0x1
80004960: 012579b3     	and	s3, a0, s2
80004964: 0124f533     	and	a0, s1, s2
80004968: 01353a33     	sltu	s4, a0, s3
8000496c: fb3570e3     	bgeu	a0, s3, 0x8000490c <core::fmt::Formatter::pad_integral::h0745a9fd037e4d44+0x1dc>
80004970: 020bb603     	ld	a2, 0x20(s7)
80004974: 0485         	addi	s1, s1, 0x1
80004976: 8566         	mv	a0, s9
80004978: 85e2         	mv	a1, s8
8000497a: 9602         	jalr	a2
8000497c: d565         	beqz	a0, 0x80004964 <core::fmt::Formatter::pad_integral::h0745a9fd037e4d44+0x234>
8000497e: b779         	j	0x8000490c <core::fmt::Formatter::pad_integral::h0745a9fd037e4d44+0x1dc>

0000000080004980 <core::fmt::Formatter::pad::h239e525174ab4a17>:
80004980: 711d         	addi	sp, sp, -0x60
80004982: ec86         	sd	ra, 0x58(sp)
80004984: e8a2         	sd	s0, 0x50(sp)
80004986: e4a6         	sd	s1, 0x48(sp)
80004988: e0ca         	sd	s2, 0x40(sp)
8000498a: fc4e         	sd	s3, 0x38(sp)
8000498c: f852         	sd	s4, 0x30(sp)
8000498e: f456         	sd	s5, 0x28(sp)
80004990: f05a         	sd	s6, 0x20(sp)
80004992: ec5e         	sd	s7, 0x18(sp)
80004994: e862         	sd	s8, 0x10(sp)
80004996: e466         	sd	s9, 0x8(sp)
80004998: e06a         	sd	s10, 0x0(sp)
8000499a: 1080         	addi	s0, sp, 0x60
8000499c: 89b2         	mv	s3, a2
8000499e: 01056483     	lwu	s1, 0x10(a0)
800049a2: 18000637     	lui	a2, 0x18000
800049a6: 8e65         	and	a2, a2, s1
800049a8: 892e         	mv	s2, a1
800049aa: ce45         	beqz	a2, 0x80004a62 <core::fmt::Formatter::pad::h239e525174ab4a17+0xe2>
800049ac: 02349593     	slli	a1, s1, 0x23
800049b0: 0405c863     	bltz	a1, 0x80004a00 <core::fmt::Formatter::pad::h239e525174ab4a17+0x80>
800049b4: 02000593     	li	a1, 0x20
800049b8: 0cb9f863     	bgeu	s3, a1, 0x80004a88 <core::fmt::Formatter::pad::h239e525174ab4a17+0x108>
800049bc: 4581         	li	a1, 0x0
800049be: 00098f63     	beqz	s3, 0x800049dc <core::fmt::Formatter::pad::h239e525174ab4a17+0x5c>
800049c2: 01390633     	add	a2, s2, s3
800049c6: 86ca         	mv	a3, s2
800049c8: 00068703     	lb	a4, 0x0(a3)
800049cc: 0685         	addi	a3, a3, 0x1
800049ce: fc072713     	slti	a4, a4, -0x40
800049d2: 00174713     	xori	a4, a4, 0x1
800049d6: 95ba         	add	a1, a1, a4
800049d8: fec698e3     	bne	a3, a2, 0x800049c8 <core::fmt::Formatter::pad::h239e525174ab4a17+0x48>
800049dc: 01455603     	lhu	a2, 0x14(a0)
800049e0: 08c5f163     	bgeu	a1, a2, 0x80004a62 <core::fmt::Formatter::pad::h239e525174ab4a17+0xe2>
800049e4: 4b81         	li	s7, 0x0
800049e6: 40b60b33     	sub	s6, a2, a1
800049ea: 02149613     	slli	a2, s1, 0x21
800049ee: 9279         	srli	a2, a2, 0x3e
800049f0: 4685         	li	a3, 0x1
800049f2: 02b49593     	slli	a1, s1, 0x2b
800049f6: 0ac6c763     	blt	a3, a2, 0x80004aa4 <core::fmt::Formatter::pad::h239e525174ab4a17+0x124>
800049fa: ce45         	beqz	a2, 0x80004ab2 <core::fmt::Formatter::pad::h239e525174ab4a17+0x132>
800049fc: 8bda         	mv	s7, s6
800049fe: a855         	j	0x80004ab2 <core::fmt::Formatter::pad::h239e525174ab4a17+0x132>
80004a00: 01655583     	lhu	a1, 0x16(a0)
80004a04: 10058563     	beqz	a1, 0x80004b0e <core::fmt::Formatter::pad::h239e525174ab4a17+0x18e>
80004a08: 013906b3     	add	a3, s2, s3
80004a0c: 0e000893     	li	a7, 0xe0
80004a10: 0f000813     	li	a6, 0xf0
80004a14: 87ca         	mv	a5, s2
80004a16: 862e         	mv	a2, a1
80004a18: 4981         	li	s3, 0x0
80004a1a: a811         	j	0x80004a2e <core::fmt::Formatter::pad::h239e525174ab4a17+0xae>
80004a1c: 00178713     	addi	a4, a5, 0x1
80004a20: 413787b3     	sub	a5, a5, s3
80004a24: 167d         	addi	a2, a2, -0x1
80004a26: 40f709b3     	sub	s3, a4, a5
80004a2a: 87ba         	mv	a5, a4
80004a2c: c615         	beqz	a2, 0x80004a58 <core::fmt::Formatter::pad::h239e525174ab4a17+0xd8>
80004a2e: 02d78563     	beq	a5, a3, 0x80004a58 <core::fmt::Formatter::pad::h239e525174ab4a17+0xd8>
80004a32: 00078703     	lb	a4, 0x0(a5)
80004a36: fe0753e3     	bgez	a4, 0x80004a1c <core::fmt::Formatter::pad::h239e525174ab4a17+0x9c>
80004a3a: 0ff77713     	zext.b	a4, a4
80004a3e: 01176763     	bltu	a4, a7, 0x80004a4c <core::fmt::Formatter::pad::h239e525174ab4a17+0xcc>
80004a42: 01076863     	bltu	a4, a6, 0x80004a52 <core::fmt::Formatter::pad::h239e525174ab4a17+0xd2>
80004a46: 00478713     	addi	a4, a5, 0x4
80004a4a: bfd9         	j	0x80004a20 <core::fmt::Formatter::pad::h239e525174ab4a17+0xa0>
80004a4c: 00278713     	addi	a4, a5, 0x2
80004a50: bfc1         	j	0x80004a20 <core::fmt::Formatter::pad::h239e525174ab4a17+0xa0>
80004a52: 00378713     	addi	a4, a5, 0x3
80004a56: b7e9         	j	0x80004a20 <core::fmt::Formatter::pad::h239e525174ab4a17+0xa0>
80004a58: 8d91         	sub	a1, a1, a2
80004a5a: 01455603     	lhu	a2, 0x14(a0)
80004a5e: f8c5e3e3     	bltu	a1, a2, 0x800049e4 <core::fmt::Formatter::pad::h239e525174ab4a17+0x64>
80004a62: 650c         	ld	a1, 0x8(a0)
80004a64: 6108         	ld	a0, 0x0(a0)
80004a66: 6d9c         	ld	a5, 0x18(a1)
80004a68: 85ca         	mv	a1, s2
80004a6a: 864e         	mv	a2, s3
80004a6c: 60e6         	ld	ra, 0x58(sp)
80004a6e: 6446         	ld	s0, 0x50(sp)
80004a70: 64a6         	ld	s1, 0x48(sp)
80004a72: 6906         	ld	s2, 0x40(sp)
80004a74: 79e2         	ld	s3, 0x38(sp)
80004a76: 7a42         	ld	s4, 0x30(sp)
80004a78: 7aa2         	ld	s5, 0x28(sp)
80004a7a: 7b02         	ld	s6, 0x20(sp)
80004a7c: 6be2         	ld	s7, 0x18(sp)
80004a7e: 6c42         	ld	s8, 0x10(sp)
80004a80: 6ca2         	ld	s9, 0x8(sp)
80004a82: 6d02         	ld	s10, 0x0(sp)
80004a84: 6125         	addi	sp, sp, 0x60
80004a86: 8782         	jr	a5
80004a88: 8a2a         	mv	s4, a0
80004a8a: 854a         	mv	a0, s2
80004a8c: 85ce         	mv	a1, s3
80004a8e: 00000097     	auipc	ra, 0x0
80004a92: 0b8080e7     	jalr	0xb8(ra) <core::str::count::do_count_chars::h6ce55074ab2fe9d1>
80004a96: 85aa         	mv	a1, a0
80004a98: 8552         	mv	a0, s4
80004a9a: 014a5603     	lhu	a2, 0x14(s4)
80004a9e: fcc5f2e3     	bgeu	a1, a2, 0x80004a62 <core::fmt::Formatter::pad::h239e525174ab4a17+0xe2>
80004aa2: b789         	j	0x800049e4 <core::fmt::Formatter::pad::h239e525174ab4a17+0x64>
80004aa4: 4689         	li	a3, 0x2
80004aa6: 00d61663     	bne	a2, a3, 0x80004ab2 <core::fmt::Formatter::pad::h239e525174ab4a17+0x132>
80004aaa: 030b1613     	slli	a2, s6, 0x30
80004aae: 03165b93     	srli	s7, a2, 0x31
80004ab2: 4481         	li	s1, 0x0
80004ab4: 02b5da13     	srli	s4, a1, 0x2b
80004ab8: 00053a83     	ld	s5, 0x0(a0)
80004abc: 00853c03     	ld	s8, 0x8(a0)
80004ac0: 6cc1         	lui	s9, 0x10
80004ac2: 1cfd         	addi	s9, s9, -0x1
80004ac4: 019bfd33     	and	s10, s7, s9
80004ac8: 0194f533     	and	a0, s1, s9
80004acc: 01a57a63     	bgeu	a0, s10, 0x80004ae0 <core::fmt::Formatter::pad::h239e525174ab4a17+0x160>
80004ad0: 020c3603     	ld	a2, 0x20(s8)
80004ad4: 0485         	addi	s1, s1, 0x1
80004ad6: 8556         	mv	a0, s5
80004ad8: 85d2         	mv	a1, s4
80004ada: 9602         	jalr	a2
80004adc: d575         	beqz	a0, 0x80004ac8 <core::fmt::Formatter::pad::h239e525174ab4a17+0x148>
80004ade: a801         	j	0x80004aee <core::fmt::Formatter::pad::h239e525174ab4a17+0x16e>
80004ae0: 018c3683     	ld	a3, 0x18(s8)
80004ae4: 8556         	mv	a0, s5
80004ae6: 85ca         	mv	a1, s2
80004ae8: 864e         	mv	a2, s3
80004aea: 9682         	jalr	a3
80004aec: c905         	beqz	a0, 0x80004b1c <core::fmt::Formatter::pad::h239e525174ab4a17+0x19c>
80004aee: 4905         	li	s2, 0x1
80004af0: 854a         	mv	a0, s2
80004af2: 60e6         	ld	ra, 0x58(sp)
80004af4: 6446         	ld	s0, 0x50(sp)
80004af6: 64a6         	ld	s1, 0x48(sp)
80004af8: 6906         	ld	s2, 0x40(sp)
80004afa: 79e2         	ld	s3, 0x38(sp)
80004afc: 7a42         	ld	s4, 0x30(sp)
80004afe: 7aa2         	ld	s5, 0x28(sp)
80004b00: 7b02         	ld	s6, 0x20(sp)
80004b02: 6be2         	ld	s7, 0x18(sp)
80004b04: 6c42         	ld	s8, 0x10(sp)
80004b06: 6ca2         	ld	s9, 0x8(sp)
80004b08: 6d02         	ld	s10, 0x0(sp)
80004b0a: 6125         	addi	sp, sp, 0x60
80004b0c: 8082         	ret
80004b0e: 4981         	li	s3, 0x0
80004b10: 85ae         	mv	a1, a1
80004b12: 01455603     	lhu	a2, 0x14(a0)
80004b16: ecc5e7e3     	bltu	a1, a2, 0x800049e4 <core::fmt::Formatter::pad::h239e525174ab4a17+0x64>
80004b1a: b7a1         	j	0x80004a62 <core::fmt::Formatter::pad::h239e525174ab4a17+0xe2>
80004b1c: 4481         	li	s1, 0x0
80004b1e: 417b0533     	sub	a0, s6, s7
80004b22: 69c1         	lui	s3, 0x10
80004b24: 19fd         	addi	s3, s3, -0x1
80004b26: 01357b33     	and	s6, a0, s3
80004b2a: 0134f533     	and	a0, s1, s3
80004b2e: 01653933     	sltu	s2, a0, s6
80004b32: fb657fe3     	bgeu	a0, s6, 0x80004af0 <core::fmt::Formatter::pad::h239e525174ab4a17+0x170>
80004b36: 020c3603     	ld	a2, 0x20(s8)
80004b3a: 0485         	addi	s1, s1, 0x1
80004b3c: 8556         	mv	a0, s5
80004b3e: 85d2         	mv	a1, s4
80004b40: 9602         	jalr	a2
80004b42: d565         	beqz	a0, 0x80004b2a <core::fmt::Formatter::pad::h239e525174ab4a17+0x1aa>
80004b44: b775         	j	0x80004af0 <core::fmt::Formatter::pad::h239e525174ab4a17+0x170>

0000000080004b46 <core::str::count::do_count_chars::h6ce55074ab2fe9d1>:
80004b46: 1141         	addi	sp, sp, -0x10
80004b48: e422         	sd	s0, 0x8(sp)
80004b4a: 862a         	mv	a2, a0
80004b4c: 00750693     	addi	a3, a0, 0x7
80004b50: 9ae1         	andi	a3, a3, -0x8
80004b52: 40a68333     	sub	t1, a3, a0
80004b56: 0265f263     	bgeu	a1, t1, 0x80004b7a <core::str::count::do_count_chars::h6ce55074ab2fe9d1+0x34>
80004b5a: 4501         	li	a0, 0x0
80004b5c: cd81         	beqz	a1, 0x80004b74 <core::str::count::do_count_chars::h6ce55074ab2fe9d1+0x2e>
80004b5e: 95b2         	add	a1, a1, a2
80004b60: 00060683     	lb	a3, 0x0(a2)
80004b64: 0605         	addi	a2, a2, 0x1
80004b66: fc06a693     	slti	a3, a3, -0x40
80004b6a: 0016c693     	xori	a3, a3, 0x1
80004b6e: 9536         	add	a0, a0, a3
80004b70: feb618e3     	bne	a2, a1, 0x80004b60 <core::str::count::do_count_chars::h6ce55074ab2fe9d1+0x1a>
80004b74: 6422         	ld	s0, 0x8(sp)
80004b76: 0141         	addi	sp, sp, 0x10
80004b78: 8082         	ret
80004b7a: 40658733     	sub	a4, a1, t1
80004b7e: 00375393     	srli	t2, a4, 0x3
80004b82: fc038ce3     	beqz	t2, 0x80004b5a <core::str::count::do_count_chars::h6ce55074ab2fe9d1+0x14>
80004b86: 9332         	add	t1, t1, a2
80004b88: 00777813     	andi	a6, a4, 0x7
80004b8c: 4501         	li	a0, 0x0
80004b8e: 00c68c63     	beq	a3, a2, 0x80004ba6 <core::str::count::do_count_chars::h6ce55074ab2fe9d1+0x60>
80004b92: 00060583     	lb	a1, 0x0(a2)
80004b96: 0605         	addi	a2, a2, 0x1
80004b98: fc05a593     	slti	a1, a1, -0x40
80004b9c: 0015c593     	xori	a1, a1, 0x1
80004ba0: 952e         	add	a0, a0, a1
80004ba2: fe6618e3     	bne	a2, t1, 0x80004b92 <core::str::count::do_count_chars::h6ce55074ab2fe9d1+0x4c>
80004ba6: 4581         	li	a1, 0x0
80004ba8: 02080363     	beqz	a6, 0x80004bce <core::str::count::do_count_chars::h6ce55074ab2fe9d1+0x88>
80004bac: 96c2         	add	a3, a3, a6
80004bae: 5645         	li	a2, -0xf
80004bb0: 8205         	srli	a2, a2, 0x1
80004bb2: 8f71         	and	a4, a4, a2
80004bb4: 00e30633     	add	a2, t1, a4
80004bb8: 96ba         	add	a3, a3, a4
80004bba: 00060703     	lb	a4, 0x0(a2)
80004bbe: 0605         	addi	a2, a2, 0x1
80004bc0: fc072713     	slti	a4, a4, -0x40
80004bc4: 00174713     	xori	a4, a4, 0x1
80004bc8: 95ba         	add	a1, a1, a4
80004bca: fed618e3     	bne	a2, a3, 0x80004bba <core::str::count::do_count_chars::h6ce55074ab2fe9d1+0x74>
80004bce: 01010637     	lui	a2, 0x1010
80004bd2: 00ff06b7     	lui	a3, 0xff0
80004bd6: 6741         	lui	a4, 0x10
80004bd8: 10160613     	addi	a2, a2, 0x101
80004bdc: 0ff68893     	addi	a7, a3, 0xff
80004be0: 00170813     	addi	a6, a4, 0x1
80004be4: 02061713     	slli	a4, a2, 0x20
80004be8: 00e60f33     	add	t5, a2, a4
80004bec: 02089613     	slli	a2, a7, 0x20
80004bf0: 98b2         	add	a7, a7, a2
80004bf2: 02081613     	slli	a2, a6, 0x20
80004bf6: 9832         	add	a6, a6, a2
80004bf8: 952e         	add	a0, a0, a1
80004bfa: a015         	j	0x80004c1e <core::str::count::do_count_chars::h6ce55074ab2fe9d1+0xd8>
80004bfc: 9372         	add	t1, t1, t3
80004bfe: 405383b3     	sub	t2, t2, t0
80004c02: 0032f793     	andi	a5, t0, 0x3
80004c06: 011ff5b3     	and	a1, t6, a7
80004c0a: 008fd613     	srli	a2, t6, 0x8
80004c0e: 01167633     	and	a2, a2, a7
80004c12: 95b2         	add	a1, a1, a2
80004c14: 030585b3     	mul	a1, a1, a6
80004c18: 91c1         	srli	a1, a1, 0x30
80004c1a: 952e         	add	a0, a0, a1
80004c1c: efad         	bnez	a5, 0x80004c96 <core::str::count::do_count_chars::h6ce55074ab2fe9d1+0x150>
80004c1e: f4038be3     	beqz	t2, 0x80004b74 <core::str::count::do_count_chars::h6ce55074ab2fe9d1+0x2e>
80004c22: 8e1a         	mv	t3, t1
80004c24: 0c000593     	li	a1, 0xc0
80004c28: 829e         	mv	t0, t2
80004c2a: 00b3e463     	bltu	t2, a1, 0x80004c32 <core::str::count::do_count_chars::h6ce55074ab2fe9d1+0xec>
80004c2e: 0c000293     	li	t0, 0xc0
80004c32: 00329313     	slli	t1, t0, 0x3
80004c36: 4f81         	li	t6, 0x0
80004c38: 7e037793     	andi	a5, t1, 0x7e0
80004c3c: d3e1         	beqz	a5, 0x80004bfc <core::str::count::do_count_chars::h6ce55074ab2fe9d1+0xb6>
80004c3e: 00fe0eb3     	add	t4, t3, a5
80004c42: 85f2         	mv	a1, t3
80004c44: 6194         	ld	a3, 0x0(a1)
80004c46: 659c         	ld	a5, 0x8(a1)
80004c48: 6998         	ld	a4, 0x10(a1)
80004c4a: 6d90         	ld	a2, 0x18(a1)
80004c4c: fff6c413     	not	s0, a3
80004c50: 8299         	srli	a3, a3, 0x6
80004c52: 801d         	srli	s0, s0, 0x7
80004c54: 8ec1         	or	a3, a3, s0
80004c56: fff7c413     	not	s0, a5
80004c5a: 8399         	srli	a5, a5, 0x6
80004c5c: 801d         	srli	s0, s0, 0x7
80004c5e: 8fc1         	or	a5, a5, s0
80004c60: fff74413     	not	s0, a4
80004c64: 8319         	srli	a4, a4, 0x6
80004c66: 801d         	srli	s0, s0, 0x7
80004c68: 8f41         	or	a4, a4, s0
80004c6a: fff64413     	not	s0, a2
80004c6e: 8219         	srli	a2, a2, 0x6
80004c70: 801d         	srli	s0, s0, 0x7
80004c72: 8e41         	or	a2, a2, s0
80004c74: 01e6f6b3     	and	a3, a3, t5
80004c78: 96fe         	add	a3, a3, t6
80004c7a: 01e7f7b3     	and	a5, a5, t5
80004c7e: 01e77733     	and	a4, a4, t5
80004c82: 01e67fb3     	and	t6, a2, t5
80004c86: 973e         	add	a4, a4, a5
80004c88: 96ba         	add	a3, a3, a4
80004c8a: 02058593     	addi	a1, a1, 0x20
80004c8e: 9fb6         	add	t6, t6, a3
80004c90: fbd59ae3     	bne	a1, t4, 0x80004c44 <core::str::count::do_count_chars::h6ce55074ab2fe9d1+0xfe>
80004c94: b7a5         	j	0x80004bfc <core::str::count::do_count_chars::h6ce55074ab2fe9d1+0xb6>
80004c96: 4581         	li	a1, 0x0
80004c98: 0fc2f613     	andi	a2, t0, 0xfc
80004c9c: 060e         	slli	a2, a2, 0x3
80004c9e: 00ce06b3     	add	a3, t3, a2
80004ca2: 00379613     	slli	a2, a5, 0x3
80004ca6: 6298         	ld	a4, 0x0(a3)
80004ca8: 06a1         	addi	a3, a3, 0x8
80004caa: fff74793     	not	a5, a4
80004cae: 8319         	srli	a4, a4, 0x6
80004cb0: 839d         	srli	a5, a5, 0x7
80004cb2: 8f5d         	or	a4, a4, a5
80004cb4: 01e77733     	and	a4, a4, t5
80004cb8: 1661         	addi	a2, a2, -0x8
80004cba: 95ba         	add	a1, a1, a4
80004cbc: f66d         	bnez	a2, 0x80004ca6 <core::str::count::do_count_chars::h6ce55074ab2fe9d1+0x160>
80004cbe: 0115f633     	and	a2, a1, a7
80004cc2: 81a1         	srli	a1, a1, 0x8
80004cc4: 0115f5b3     	and	a1, a1, a7
80004cc8: 95b2         	add	a1, a1, a2
80004cca: 030585b3     	mul	a1, a1, a6
80004cce: 91c1         	srli	a1, a1, 0x30
80004cd0: 952e         	add	a0, a0, a1
80004cd2: 6422         	ld	s0, 0x8(sp)
80004cd4: 0141         	addi	sp, sp, 0x10
80004cd6: 8082         	ret

0000000080004cd8 <core::panicking::panic_const::panic_const_div_by_zero::hcfde4c26e8ecfc4b>:
80004cd8: 1141         	addi	sp, sp, -0x10
80004cda: e406         	sd	ra, 0x8(sp)
80004cdc: e022         	sd	s0, 0x0(sp)
80004cde: 0800         	addi	s0, sp, 0x10
80004ce0: 862a         	mv	a2, a0

0000000080004ce2 <.Lpcrel_hi967>:
80004ce2: 00002517     	auipc	a0, 0x2
80004ce6: 03050513     	addi	a0, a0, 0x30
80004cea: 03300593     	li	a1, 0x33
80004cee: 00000097     	auipc	ra, 0x0
80004cf2: 12e080e7     	jalr	0x12e(ra) <core::panicking::panic_fmt::h767dc8ac4dd44648>

0000000080004cf6 <core::panicking::panic_const::panic_const_add_overflow::h67cba067093910f8>:
80004cf6: 1141         	addi	sp, sp, -0x10
80004cf8: e406         	sd	ra, 0x8(sp)
80004cfa: e022         	sd	s0, 0x0(sp)
80004cfc: 0800         	addi	s0, sp, 0x10
80004cfe: 862a         	mv	a2, a0

0000000080004d00 <.Lpcrel_hi970>:
80004d00: 00002517     	auipc	a0, 0x2
80004d04: fb250513     	addi	a0, a0, -0x4e
80004d08: 03900593     	li	a1, 0x39
80004d0c: 00000097     	auipc	ra, 0x0
80004d10: 110080e7     	jalr	0x110(ra) <core::panicking::panic_fmt::h767dc8ac4dd44648>

0000000080004d14 <core::panicking::panic_const::panic_const_shl_overflow::h801c58e583f44244>:
80004d14: 1141         	addi	sp, sp, -0x10
80004d16: e406         	sd	ra, 0x8(sp)
80004d18: e022         	sd	s0, 0x0(sp)
80004d1a: 0800         	addi	s0, sp, 0x10
80004d1c: 862a         	mv	a2, a0

0000000080004d1e <.Lpcrel_hi975>:
80004d1e: 00002517     	auipc	a0, 0x2
80004d22: fb050513     	addi	a0, a0, -0x50
80004d26: 04700593     	li	a1, 0x47
80004d2a: 00000097     	auipc	ra, 0x0
80004d2e: 0f2080e7     	jalr	0xf2(ra) <core::panicking::panic_fmt::h767dc8ac4dd44648>

0000000080004d32 <core::panicking::panic_const::panic_const_sub_overflow::hccc965ba9198de7c>:
80004d32: 1141         	addi	sp, sp, -0x10
80004d34: e406         	sd	ra, 0x8(sp)
80004d36: e022         	sd	s0, 0x0(sp)
80004d38: 0800         	addi	s0, sp, 0x10
80004d3a: 862a         	mv	a2, a0

0000000080004d3c <.Lpcrel_hi977>:
80004d3c: 00002517     	auipc	a0, 0x2
80004d40: fb550513     	addi	a0, a0, -0x4b
80004d44: 04300593     	li	a1, 0x43
80004d48: 00000097     	auipc	ra, 0x0
80004d4c: 0d4080e7     	jalr	0xd4(ra) <core::panicking::panic_fmt::h767dc8ac4dd44648>

0000000080004d50 <core::panicking::panic_bounds_check::h6aaee0d15e0261eb>:
80004d50: 7139         	addi	sp, sp, -0x40
80004d52: fc06         	sd	ra, 0x38(sp)
80004d54: f822         	sd	s0, 0x30(sp)
80004d56: 0080         	addi	s0, sp, 0x40
80004d58: f0040713     	addi	a4, s0, -0x100
80004d5c: e368         	sd	a0, 0xc0(a4)
80004d5e: e76c         	sd	a1, 0xc8(a4)
80004d60: fc840513     	addi	a0, s0, -0x38

0000000080004d64 <.Lpcrel_hi997>:
80004d64: fffff597     	auipc	a1, 0xfffff
80004d68: fc040693     	addi	a3, s0, -0x40
80004d6c: 69a58593     	addi	a1, a1, 0x69a
80004d70: eb68         	sd	a0, 0xd0(a4)
80004d72: ef6c         	sd	a1, 0xd8(a4)
80004d74: f374         	sd	a3, 0xe0(a4)
80004d76: f76c         	sd	a1, 0xe8(a4)

0000000080004d78 <.Lpcrel_hi998>:
80004d78: 00000517     	auipc	a0, 0x0
80004d7c: 56250513     	addi	a0, a0, 0x562
80004d80: fd040593     	addi	a1, s0, -0x30
80004d84: 00000097     	auipc	ra, 0x0
80004d88: 098080e7     	jalr	0x98(ra) <core::panicking::panic_fmt::h767dc8ac4dd44648>

0000000080004d8c <core::panicking::panic_nounwind_fmt::h2e018e50a8d3bc73>:
80004d8c: 7139         	addi	sp, sp, -0x40
80004d8e: fc06         	sd	ra, 0x38(sp)
80004d90: f822         	sd	s0, 0x30(sp)
80004d92: 0080         	addi	s0, sp, 0x40
80004d94: fca43423     	sd	a0, -0x38(s0)
80004d98: fcb43823     	sd	a1, -0x30(s0)
80004d9c: fc840513     	addi	a0, s0, -0x38
80004da0: fca43c23     	sd	a0, -0x28(s0)
80004da4: fed43023     	sd	a3, -0x20(s0)
80004da8: fe040423     	sb	zero, -0x18(s0)
80004dac: fec404a3     	sb	a2, -0x17(s0)
80004db0: fd840513     	addi	a0, s0, -0x28
80004db4: ffffc097     	auipc	ra, 0xffffc
80004db8: a96080e7     	jalr	-0x56a(ra) <__rustc::rust_begin_unwind>

0000000080004dbc <core::panicking::panic_null_pointer_dereference::hbac6411af4f2e916>:
80004dbc: 1141         	addi	sp, sp, -0x10
80004dbe: e406         	sd	ra, 0x8(sp)
80004dc0: e022         	sd	s0, 0x0(sp)
80004dc2: 0800         	addi	s0, sp, 0x10
80004dc4: 86aa         	mv	a3, a0

0000000080004dc6 <.Lpcrel_hi1010>:
80004dc6: 00002517     	auipc	a0, 0x2
80004dca: f6550513     	addi	a0, a0, -0x9b
80004dce: 04300593     	li	a1, 0x43
80004dd2: 4601         	li	a2, 0x0
80004dd4: 00000097     	auipc	ra, 0x0
80004dd8: fb8080e7     	jalr	-0x48(ra) <core::panicking::panic_nounwind_fmt::h2e018e50a8d3bc73>

0000000080004ddc <core::panicking::panic_misaligned_pointer_dereference::hda85f7fb51d959f0>:
80004ddc: 7139         	addi	sp, sp, -0x40
80004dde: fc06         	sd	ra, 0x38(sp)
80004de0: f822         	sd	s0, 0x30(sp)
80004de2: 0080         	addi	s0, sp, 0x40
80004de4: 86b2         	mv	a3, a2
80004de6: f0040713     	addi	a4, s0, -0x100
80004dea: e368         	sd	a0, 0xc0(a4)
80004dec: e76c         	sd	a1, 0xc8(a4)
80004dee: fc040513     	addi	a0, s0, -0x40

0000000080004df2 <.Lpcrel_hi1013>:
80004df2: fffff597     	auipc	a1, 0xfffff
80004df6: fc840613     	addi	a2, s0, -0x38
80004dfa: 65858593     	addi	a1, a1, 0x658
80004dfe: eb68         	sd	a0, 0xd0(a4)
80004e00: ef6c         	sd	a1, 0xd8(a4)
80004e02: f370         	sd	a2, 0xe0(a4)
80004e04: f76c         	sd	a1, 0xe8(a4)

0000000080004e06 <.Lpcrel_hi1014>:
80004e06: 00002517     	auipc	a0, 0x2
80004e0a: f4650513     	addi	a0, a0, -0xba
80004e0e: fd040593     	addi	a1, s0, -0x30
80004e12: 4601         	li	a2, 0x0
80004e14: 00000097     	auipc	ra, 0x0
80004e18: f78080e7     	jalr	-0x88(ra) <core::panicking::panic_nounwind_fmt::h2e018e50a8d3bc73>

0000000080004e1c <core::panicking::panic_fmt::h767dc8ac4dd44648>:
80004e1c: 7139         	addi	sp, sp, -0x40
80004e1e: fc06         	sd	ra, 0x38(sp)
80004e20: f822         	sd	s0, 0x30(sp)
80004e22: 0080         	addi	s0, sp, 0x40
80004e24: fca43423     	sd	a0, -0x38(s0)
80004e28: fcb43823     	sd	a1, -0x30(s0)
80004e2c: fc840513     	addi	a0, s0, -0x38
80004e30: 4585         	li	a1, 0x1
80004e32: fca43c23     	sd	a0, -0x28(s0)
80004e36: fec43023     	sd	a2, -0x20(s0)
80004e3a: feb41423     	sh	a1, -0x18(s0)
80004e3e: fd840513     	addi	a0, s0, -0x28
80004e42: ffffc097     	auipc	ra, 0xffffc
80004e46: a08080e7     	jalr	-0x5f8(ra) <__rustc::rust_begin_unwind>

0000000080004e4a <_$LT$core..panic..panic_info..PanicInfo$u20$as$u20$core..fmt..Display$GT$::fmt::hcccb3fed5b673506>:
80004e4a: 7119         	addi	sp, sp, -0x80
80004e4c: fc86         	sd	ra, 0x78(sp)
80004e4e: f8a2         	sd	s0, 0x70(sp)
80004e50: f4a6         	sd	s1, 0x68(sp)
80004e52: f0ca         	sd	s2, 0x60(sp)
80004e54: ecce         	sd	s3, 0x58(sp)
80004e56: e8d2         	sd	s4, 0x50(sp)
80004e58: e4d6         	sd	s5, 0x48(sp)
80004e5a: 0100         	addi	s0, sp, 0x80
80004e5c: 0085b903     	ld	s2, 0x8(a1)
80004e60: 6184         	ld	s1, 0x0(a1)
80004e62: 01893a83     	ld	s5, 0x18(s2)
80004e66: 89aa         	mv	s3, a0

0000000080004e68 <.Lpcrel_hi1258>:
80004e68: 00002517     	auipc	a0, 0x2
80004e6c: f3750593     	addi	a1, a0, -0xc9
80004e70: 4631         	li	a2, 0xc
80004e72: 8526         	mv	a0, s1
80004e74: 9a82         	jalr	s5
80004e76: 4a05         	li	s4, 0x1
80004e78: e151         	bnez	a0, 0x80004efc <.Lpcrel_hi1262+0x26>
80004e7a: 0089b503     	ld	a0, 0x8(s3)
80004e7e: f8840813     	addi	a6, s0, -0x78

0000000080004e82 <.Lpcrel_hi1259>:
80004e82: fffff617     	auipc	a2, 0xfffff

0000000080004e86 <.Lpcrel_hi1260>:
80004e86: fffff697     	auipc	a3, 0xfffff
80004e8a: 11060613     	addi	a2, a2, 0x110
80004e8e: 52c68693     	addi	a3, a3, 0x52c
80004e92: 6118         	ld	a4, 0x0(a0)
80004e94: 651c         	ld	a5, 0x8(a0)
80004e96: 01050593     	addi	a1, a0, 0x10
80004e9a: 0551         	addi	a0, a0, 0x14
80004e9c: f9043c23     	sd	a6, -0x68(s0)
80004ea0: fac43023     	sd	a2, -0x60(s0)
80004ea4: fab43423     	sd	a1, -0x58(s0)
80004ea8: fad43823     	sd	a3, -0x50(s0)
80004eac: f8e43423     	sd	a4, -0x78(s0)
80004eb0: f8f43823     	sd	a5, -0x70(s0)
80004eb4: faa43c23     	sd	a0, -0x48(s0)
80004eb8: fcd43023     	sd	a3, -0x40(s0)

0000000080004ebc <.Lpcrel_hi1261>:
80004ebc: 00000517     	auipc	a0, 0x0
80004ec0: 6f250613     	addi	a2, a0, 0x6f2
80004ec4: f9840693     	addi	a3, s0, -0x68
80004ec8: 8526         	mv	a0, s1
80004eca: 85ca         	mv	a1, s2
80004ecc: fffff097     	auipc	ra, 0xfffff
80004ed0: 632080e7     	jalr	0x632(ra) <core::fmt::write::hfd17e9e8e823b619>
80004ed4: e505         	bnez	a0, 0x80004efc <.Lpcrel_hi1262+0x26>

0000000080004ed6 <.Lpcrel_hi1262>:
80004ed6: 00002517     	auipc	a0, 0x2
80004eda: ed550593     	addi	a1, a0, -0x12b
80004ede: 4609         	li	a2, 0x2
80004ee0: 8526         	mv	a0, s1
80004ee2: 9a82         	jalr	s5
80004ee4: ed01         	bnez	a0, 0x80004efc <.Lpcrel_hi1262+0x26>
80004ee6: 0009b503     	ld	a0, 0x0(s3)
80004eea: 6110         	ld	a2, 0x0(a0)
80004eec: 6514         	ld	a3, 0x8(a0)
80004eee: 8526         	mv	a0, s1
80004ef0: 85ca         	mv	a1, s2
80004ef2: fffff097     	auipc	ra, 0xfffff
80004ef6: 60c080e7     	jalr	0x60c(ra) <core::fmt::write::hfd17e9e8e823b619>
80004efa: 8a2a         	mv	s4, a0
80004efc: 8552         	mv	a0, s4
80004efe: 70e6         	ld	ra, 0x78(sp)
80004f00: 7446         	ld	s0, 0x70(sp)
80004f02: 74a6         	ld	s1, 0x68(sp)
80004f04: 7906         	ld	s2, 0x60(sp)
80004f06: 69e6         	ld	s3, 0x58(sp)
80004f08: 6a46         	ld	s4, 0x50(sp)
80004f0a: 6aa6         	ld	s5, 0x48(sp)
80004f0c: 6109         	addi	sp, sp, 0x80
80004f0e: 8082         	ret

0000000080004f10 <memset>:
80004f10: 46c1         	li	a3, 0x10
80004f12: 06d66463     	bltu	a2, a3, 0x80004f7a <memset+0x6a>
80004f16: 40a006bb     	negw	a3, a0
80004f1a: 0076f813     	andi	a6, a3, 0x7
80004f1e: 01050733     	add	a4, a0, a6
80004f22: 00e57963     	bgeu	a0, a4, 0x80004f34 <memset+0x24>
80004f26: 87c2         	mv	a5, a6
80004f28: 86aa         	mv	a3, a0
80004f2a: 00b68023     	sb	a1, 0x0(a3)
80004f2e: 17fd         	addi	a5, a5, -0x1
80004f30: 0685         	addi	a3, a3, 0x1
80004f32: ffe5         	bnez	a5, 0x80004f2a <memset+0x1a>
80004f34: 41060633     	sub	a2, a2, a6
80004f38: ff867693     	andi	a3, a2, -0x8
80004f3c: 96ba         	add	a3, a3, a4
80004f3e: 02d77363     	bgeu	a4, a3, 0x80004f64 <memset+0x54>
80004f42: 03859813     	slli	a6, a1, 0x38
80004f46: 101017b7     	lui	a5, 0x10101
80004f4a: 0792         	slli	a5, a5, 0x4
80004f4c: 10078793     	addi	a5, a5, 0x100
80004f50: 02f83833     	mulhu	a6, a6, a5
80004f54: 02081793     	slli	a5, a6, 0x20
80004f58: 0107e7b3     	or	a5, a5, a6
80004f5c: e31c         	sd	a5, 0x0(a4)
80004f5e: 0721         	addi	a4, a4, 0x8
80004f60: fed76ee3     	bltu	a4, a3, 0x80004f5c <memset+0x4c>
80004f64: 8a1d         	andi	a2, a2, 0x7
80004f66: 00c68733     	add	a4, a3, a2
80004f6a: 00e6f763     	bgeu	a3, a4, 0x80004f78 <memset+0x68>
80004f6e: 00b68023     	sb	a1, 0x0(a3)
80004f72: 167d         	addi	a2, a2, -0x1
80004f74: 0685         	addi	a3, a3, 0x1
80004f76: fe65         	bnez	a2, 0x80004f6e <memset+0x5e>
80004f78: 8082         	ret
80004f7a: 86aa         	mv	a3, a0
80004f7c: 00c50733     	add	a4, a0, a2
80004f80: fee567e3     	bltu	a0, a4, 0x80004f6e <memset+0x5e>
80004f84: bfd5         	j	0x80004f78 <memset+0x68>
80004f86: 5b05         	li	s6, -0x1f
80004f88: 6168         	ld	a0, 0xc0(a0)
80004f8a: 7472         	ld	s0, 0x138(sp)
80004f8c: 1fc0         	addi	s0, sp, 0x3f4
80004f8e: 205d         	<unknown>
80004f90: 65686373     	csrrsi	t1, 0x656, 0x10
80004f94: 7564         	ld	s1, 0xe8(a0)
80004f96: 656c         	ld	a1, 0xc8(a0)
80004f98: 2072         	fld	ft0, 0x118(sp)
80004f9a: 7264         	ld	s1, 0xe0(a2)
80004f9c: 6961         	lui	s2, 0x18
80004f9e: 656e         	ld	a0, 0xd8(sp)
80004fa0: 3a64         	fld	fs1, 0xf0(a2)
80004fa2: 6a20         	ld	s0, 0x50(a2)
80004fa4: 5f73626f     	jal	tp, 0x8003bd9a <__image_end+0x4e1a>
80004fa8: 6f64         	ld	s1, 0xd8(a4)
80004faa: 656e         	ld	a0, 0xd8(sp)
80004fac: c03d         	beqz	s0, 0x80005012 <memset+0x102>
80004fae: 2010         	fld	fa2, 0x0(s0)
80004fb0: 6966         	ld	s2, 0x58(sp)
80004fb2: 696e         	ld	s2, 0xd8(sp)
80004fb4: 64656873     	csrrsi	a6, hviprio1, 0xa
80004fb8: 685f 7261 7374       	<unknown>
80004fbe: c03d         	beqz	s0, 0x80005024 <memset+0x114>
80004fc0: 2f01         	sext.w	t5, t5
80004fc2: 01c0         	addi	s0, sp, 0xc4
80004fc4: 000a         	c.slli	zero, 0x2
80004fc6: 656b5b4f     	<unknown>
80004fca: 6e72         	ld	t3, 0x118(sp)
80004fcc: 6c65         	lui	s8, 0x19
80004fce: 205d         	<unknown>
80004fd0: 6361         	lui	t1, 0x18
80004fd2: 74706563     	bltu	zero, t2, 0x8000571c <.Lanon.53b88685c8e62fe49b99cc9577a56053.2+0x24>
80004fd6: 6e61         	lui	t3, 0x18
80004fd8: 61206563     	bltu	zero, s2, 0x800055e2 <memset+0x6d2>
80004fdc: 6c6c         	ld	a1, 0xd8(s0)
80004fde: 6320         	ld	s0, 0x40(a4)
80004fe0: 69666e6f     	jal	t3, 0x8006b676 <__image_end+0x346f6>
80004fe4: 65727567     	<unknown>
80004fe8: 2064         	fld	fs1, 0xc0(s0)
80004fea: 6168         	ld	a0, 0xc0(a0)
80004fec: 7472         	ld	s0, 0x138(sp)
80004fee: 6f632073     	csrs	0x6f6, t1
80004ff2: 706d         	c.lui	zero, 0xffffb
80004ff4: 656c         	ld	a1, 0xc8(a0)
80004ff6: 6574         	ld	a3, 0xc8(a0)
80004ff8: 2064         	fld	fs1, 0xc0(s0)
80004ffa: 6e69         	lui	t3, 0x1a
80004ffc: 6564         	ld	s1, 0xc8(a0)
80004ffe: 6570         	ld	a2, 0xc8(a0)
80005000: 646e         	ld	s0, 0xd8(sp)
80005002: 6e65         	lui	t3, 0x19
80005004: 2074         	fld	fa3, 0xc0(s0)
80005006: 6e69         	lui	t3, 0x1a
80005008: 7469         	lui	s0, 0xffffa
8000500a: 6169         	addi	sp, sp, 0xd0
8000500c: 696c         	ld	a1, 0xd0(a0)
8000500e: 617a         	ld	sp, 0x198(sp)
80005010: 6974         	ld	a3, 0xd0(a0)
80005012: 203a6e6f     	jal	t3, 0x800aba14 <__image_end+0x74a94>
80005016: 01c0         	addi	s0, sp, 0xc4
80005018: 000a         	c.slli	zero, 0x2
8000501a: 5b05         	li	s6, -0x1f
8000501c: 6168         	ld	a0, 0xc0(a0)
8000501e: 7472         	ld	s0, 0x138(sp)
80005020: 34c0         	fld	fs0, 0xa8(s1)
80005022: 205d         	<unknown>
80005024: 6170         	ld	a2, 0xc0(a0)
80005026: 6b72         	ld	s6, 0x118(sp)
80005028: 6465         	lui	s0, 0x19
8000502a: 203a         	fld	ft0, 0x188(sp)
8000502c: 616c         	ld	a1, 0xc0(a0)
8000502e: 6e75         	lui	t3, 0x1d
80005030: 64656863     	bltu	a0, t1, 0x80005680 <memset+0x770>
80005034: 6220         	ld	s0, 0x40(a2)
80005036: 7965         	lui	s2, 0xffff9
80005038: 20646e6f     	jal	t3, 0x8004b23e <__image_end+0x142be>
8000503c: 666e6f63     	bltu	t3, t1, 0x800056ba <memset+0x7aa>
80005040: 6769         	lui	a4, 0x1a
80005042: 7275         	lui	tp, 0xffffd
80005044: 6465         	lui	s0, 0x19
80005046: 6520         	ld	s0, 0x48(a0)
80005048: 7078         	ld	a4, 0xe0(s0)
8000504a: 6365         	lui	t1, 0x19
8000504c: 6574         	ld	a3, 0xc8(a0)
8000504e: 5f64         	lw	s1, 0x7c(a4)
80005050: 6168         	ld	a0, 0xc0(a0)
80005052: 7472         	ld	s0, 0x138(sp)
80005054: 01c03d73     	csrrc	s10, 0x1c, zero
80005058: 000a         	c.slli	zero, 0x2
8000505a: 5b05         	li	s6, -0x1f
8000505c: 6168         	ld	a0, 0xc0(a0)
8000505e: 7472         	ld	s0, 0x138(sp)
80005060: 1bc0         	addi	s0, sp, 0x1f4
80005062: 205d         	<unknown>
80005064: 6c61         	lui	s8, 0x18
80005066: 6f6c         	ld	a1, 0xd8(a4)
80005068: 6f746163     	bltu	s0, s7, 0x8000574a <.Lanon.abb307c815860a7d36d7d25f1160e68a.1+0xa>
8000506c: 2072         	fld	ft0, 0x118(sp)
8000506e: 7865         	lui	a6, 0xffff9
80005070: 6168         	ld	a0, 0xc0(a0)
80005072: 7375         	lui	t1, 0xffffd
80005074: 6574         	ld	a3, 0xc8(a0)
80005076: 3a64         	fld	fs1, 0xf0(a2)
80005078: 6a20         	ld	s0, 0x50(a2)
8000507a: c03d626f     	jal	tp, 0x7ffdbc7c <.Lline_table_start0+0x7ffbb7db>
8000507e: 6572200b     	<unknown>
80005082: 7571         	lui	a0, 0xffffc
80005084: 7365         	lui	t1, 0xffff9
80005086: 6574         	ld	a3, 0xc8(a0)
80005088: 3d64         	fld	fs1, 0xf8(a0)
8000508a: 0bc0         	addi	s0, sp, 0x1d4
8000508c: 6820         	ld	s0, 0x50(s0)
8000508e: 6165         	addi	sp, sp, 0x70
80005090: 5f70         	lw	a2, 0x7c(a4)
80005092: 657a6973     	csrrsi	s2, 0x657, 0x14
80005096: c03d         	beqz	s0, 0x800050fc <memset+0x1ec>
80005098: 0a01         	c.addi	s4, 0x0
8000509a: 7300         	ld	s0, 0x20(a4)
8000509c: 6372         	ld	t1, 0x118(sp)
8000509e: 69616d2f     	<unknown>
800050a2: 2e6e         	fld	ft8, 0xd8(sp)
800050a4: 7372         	ld	t1, 0x138(sp)
800050a6: 2f00         	fld	fs0, 0x18(a4)
800050a8: 7572         	ld	a0, 0x138(sp)
800050aa: 2f637473     	csrrci	s0, 0x2f6, 0x6
800050ae: 3465         	addiw	s0, s0, -0x7
800050b0: 3830         	fld	fa2, 0x70(s0)
800050b2: 3439         	addiw	s0, s0, -0x12
800050b4: 64666237     	lui	tp, 0x64666
800050b8: 3032         	fld	ft0, 0x128(sp)
800050ba: 6130         	ld	a2, 0x40(a0)
800050bc: 3466         	fld	fs0, 0x78(sp)
800050be: 6432         	ld	s0, 0x108(sp)
800050c0: 3362         	fld	ft6, 0x38(sp)
800050c2: 3232         	fld	ft4, 0x128(sp)
800050c4: 6164         	ld	s1, 0xc0(a0)
800050c6: 3066         	fld	ft0, 0x78(sp)
800050c8: 6166         	ld	sp, 0x58(sp)
800050ca: 6664         	ld	s1, 0xc8(a2)
800050cc: 3765         	addiw	a4, a4, -0x7
800050ce: 3265         	addiw	tp, tp, -0x7
800050d0: 6436         	ld	s0, 0x148(sp)
800050d2: 31646233     	<unknown>
800050d6: 62696c2f     	<unknown>
800050da: 6172         	ld	sp, 0x118(sp)
800050dc: 7972         	ld	s2, 0x138(sp)
800050de: 726f632f     	<unknown>
800050e2: 2f65         	addiw	t5, t5, 0x19
800050e4: 2f637273     	csrrci	tp, 0x2f6, 0x6
800050e8: 7470         	ld	a2, 0xe8(s0)
800050ea: 2f72         	fld	ft10, 0x118(sp)
800050ec: 6f6d         	lui	t5, 0x1b
800050ee: 2e64         	fld	fs1, 0xd8(a2)
800050f0: 7372         	ld	t1, 0x138(sp)
800050f2: 0500         	addi	s0, sp, 0x280
800050f4: 7261685b     	<unknown>
800050f8: c074         	sw	a3, 0x44(s0)
800050fa: 5d15         	li	s10, -0x1b
800050fc: 7320         	ld	s0, 0x60(a4)
800050fe: 64656863     	bltu	a0, t1, 0x8000574e <.Lanon.abb307c815860a7d36d7d25f1160e68a.1+0xe>
80005102: 6c75         	lui	s8, 0x1d
80005104: 2065         	<unknown>
80005106: 6970         	ld	a2, 0xd0(a0)
80005108: 203a6b63     	bltu	s4, gp, 0x8000531e <memset+0x40e>
8000510c: 6f6a         	ld	t5, 0x98(sp)
8000510e: 3d62         	fld	fs10, 0x38(sp)
80005110: 06c0         	addi	s0, sp, 0x344
80005112: 6e20         	ld	s0, 0x58(a2)
80005114: 6d61         	lui	s10, 0x18
80005116: 3d65         	addiw	s10, s10, -0x7
80005118: 07c0         	addi	s0, sp, 0x3c4
8000511a: 6320         	ld	s0, 0x40(a4)
8000511c: 616c         	ld	a1, 0xc0(a0)
8000511e: c03d7373     	csrrci	t1, hpmcounter3, 0x1a
80005122: 2011         	<unknown>
80005124: 7571         	lui	a0, 0xffffc
80005126: 7565         	lui	a0, 0xffff9
80005128: 5f65         	li	t5, -0x7
8000512a: 6572         	ld	a0, 0x118(sp)
8000512c: 616d         	addi	sp, sp, 0xf0
8000512e: 6e69         	lui	t3, 0x1a
80005130: 6e69         	lui	t3, 0x1a
80005132: 01c03d67     	<unknown>
80005136: 000a         	c.slli	zero, 0x2
80005138: 5b05         	li	s6, -0x1f
8000513a: 6168         	ld	a0, 0xc0(a0)
8000513c: 7472         	ld	s0, 0x138(sp)
8000513e: 10c0         	addi	s0, sp, 0x64
80005140: 205d         	<unknown>
80005142: 6f6a         	ld	t5, 0x98(sp)
80005144: 2062         	fld	ft0, 0x18(sp)
80005146: 72617473     	csrrci	s0, 0x726, 0x2
8000514a: 3a74         	fld	fa3, 0xf0(a2)
8000514c: 6920         	ld	s0, 0x50(a0)
8000514e: 3d64         	fld	fs1, 0xf8(a0)
80005150: 06c0         	addi	s0, sp, 0x344
80005152: 6e20         	ld	s0, 0x58(a2)
80005154: 6d61         	lui	s10, 0x18
80005156: 3d65         	addiw	s10, s10, -0x7
80005158: 07c0         	addi	s0, sp, 0x3c4
8000515a: 6320         	ld	s0, 0x40(a4)
8000515c: 616c         	ld	a1, 0xc0(a0)
8000515e: c03d7373     	csrrci	t1, hpmcounter3, 0x1a
80005162: 200e         	fld	ft0, 0xc0(sp)
80005164: 6c61         	lui	s8, 0x18
80005166: 6f6c         	ld	a1, 0xd8(a4)
80005168: 666f5f63     	bge	t5, t1, 0x800057e6 <.Lanon.abb307c815860a7d36d7d25f1160e68a.1+0xa6>
8000516c: 7366         	ld	t1, 0x78(sp)
8000516e: 7465         	lui	s0, 0xffff9
80005170: c03d         	beqz	s0, 0x800051d6 <memset+0x2c6>
80005172: 200d         	<unknown>
80005174: 6c61         	lui	s8, 0x18
80005176: 6f6c         	ld	a1, 0xd8(a4)
80005178: 79625f63     	bge	tp, s6, 0x80005916 <.Lanon.beb1e01ad3117df0df911a9560ca8dd1.1+0x38>
8000517c: 6574         	ld	a3, 0xc8(a0)
8000517e: 0ec03d73     	csrrc	s10, 0xec, zero
80005182: 7220         	ld	s0, 0x60(a2)
80005184: 6e75         	lui	t3, 0x1d
80005186: 696e         	ld	s2, 0xd8(sp)
80005188: 676e         	ld	a4, 0xd8(sp)
8000518a: 6a5f 626f 3d73       	<unknown>
80005190: 01c0         	addi	s0, sp, 0xc4
80005192: 000a         	c.slli	zero, 0x2
80005194: 5b11         	li	s6, -0x1c
80005196: 6e72656b     	<unknown>
8000519a: 6c65         	lui	s8, 0x19
8000519c: 205d         	<unknown>
8000519e: 6f6a         	ld	t5, 0x98(sp)
800051a0: 5f62         	lw	t5, 0x38(sp)
800051a2: 6564         	ld	s1, 0xc8(a0)
800051a4: 5b66         	lw	s6, 0x78(sp)
800051a6: 06c0         	addi	s0, sp, 0x344
800051a8: 3a5d         	addiw	s4, s4, -0x9
800051aa: 6920         	ld	s0, 0x50(a0)
800051ac: 3d64         	fld	fs1, 0xf8(a0)
800051ae: 06c0         	addi	s0, sp, 0x344
800051b0: 6e20         	ld	s0, 0x58(a2)
800051b2: 6d61         	lui	s10, 0x18
800051b4: 3d65         	addiw	s10, s10, -0x7
800051b6: 07c0         	addi	s0, sp, 0x3c4
800051b8: 6320         	ld	s0, 0x40(a4)
800051ba: 616c         	ld	a1, 0xc0(a0)
800051bc: c03d7373     	csrrci	t1, hpmcounter3, 0x1a
800051c0: 200d         	<unknown>
800051c2: 6c61         	lui	s8, 0x18
800051c4: 6f6c         	ld	a1, 0xd8(a4)
800051c6: 79625f63     	bge	tp, s6, 0x80005964 <.Lanon.beb1e01ad3117df0df911a9560ca8dd1.1+0x86>
800051ca: 6574         	ld	a3, 0xc8(a0)
800051cc: 08c03d73     	csrrc	s10, 0x8c, zero
800051d0: 6220         	ld	s0, 0x40(a2)
800051d2: 7275         	lui	tp, 0xffffd
800051d4: 3d737473     	csrrci	s0, pmpaddr39, 0x6
800051d8: 0cc0         	addi	s0, sp, 0x254
800051da: 6920         	ld	s0, 0x50(a0)
800051dc: 6574         	ld	a3, 0xc8(a0)
800051de: 6172         	ld	sp, 0x118(sp)
800051e0: 6974         	ld	a3, 0xd0(a0)
800051e2: 3d736e6f     	jal	t3, 0x8003bdb8 <__image_end+0x4e38>
800051e6: 01c0         	addi	s0, sp, 0xc4
800051e8: 000a         	c.slli	zero, 0x2
800051ea: 5b05         	li	s6, -0x1f
800051ec: 6168         	ld	a0, 0xc0(a0)
800051ee: 7472         	ld	s0, 0x138(sp)
800051f0: 0dc0         	addi	s0, sp, 0x2d4
800051f2: 205d         	<unknown>
800051f4: 6c61         	lui	s8, 0x18
800051f6: 6f6c         	ld	a1, 0xd8(a4)
800051f8: 6a203a63     	<unknown>
800051fc: c03d626f     	jal	tp, 0x7ffdbdfe <.Lline_table_start0+0x7ffbb95d>
80005200: 79622007     	flw	ft0, 0x796(tp)
80005204: 6574         	ld	a3, 0xc8(a0)
80005206: 08c03d73     	csrrc	s10, 0x8c, zero
8000520a: 6f20         	ld	s0, 0x58(a4)
8000520c: 6666         	ld	a2, 0x58(sp)
8000520e: 3d746573     	csrrsi	a0, pmpaddr39, 0x8
80005212: 0cc0         	addi	s0, sp, 0x254
80005214: 6820         	ld	s0, 0x50(s0)
80005216: 6769         	lui	a4, 0x1a
80005218: 5f68         	lw	a0, 0x7c(a4)
8000521a: 65746177     	<unknown>
8000521e: 3d72         	fld	fs10, 0x138(sp)
80005220: 01c0         	addi	s0, sp, 0xc4
80005222: 000a         	c.slli	zero, 0x2
80005224: 2f637273     	csrrci	tp, 0x2f6, 0x6
80005228: 6e697073     	csrci	0x6e6, 0x12
8000522c: 6f6c         	ld	a1, 0xd8(a4)
8000522e: 722e6b63     	bltu	t3, sp, 0x80005964 <.Lanon.beb1e01ad3117df0df911a9560ca8dd1.1+0x86>
80005232: 722f0073     	<unknown>
80005236: 7375         	lui	t1, 0xffffd
80005238: 6374         	ld	a3, 0xc0(a4)
8000523a: 3034652f     	<unknown>
8000523e: 3938         	fld	fa4, 0x70(a0)
80005240: 3734         	fld	fa3, 0x68(a4)
80005242: 6662         	ld	a2, 0x18(sp)
80005244: 3264         	fld	fs1, 0xe0(a2)
80005246: 3030         	fld	fa2, 0x60(s0)
80005248: 6661         	lui	a2, 0x18
8000524a: 3234         	fld	fa3, 0x60(a2)
8000524c: 6264         	ld	s1, 0xc0(a2)
8000524e: 64323233     	<unknown>
80005252: 6661         	lui	a2, 0x18
80005254: 6630         	ld	a2, 0x48(a2)
80005256: 6461         	lui	s0, 0x18
80005258: 6566         	ld	a0, 0x58(sp)
8000525a: 36326537     	lui	a0, 0x36326
8000525e: 3364         	fld	fs1, 0xe0(a4)
80005260: 6462         	ld	s0, 0x18(sp)
80005262: 2f31         	addiw	t5, t5, 0xc
80005264: 696c         	ld	a1, 0xd0(a0)
80005266: 7262         	ld	tp, 0x38(sp)
80005268: 7261         	lui	tp, 0xffff8
8000526a: 2f79         	addiw	t5, t5, 0x1e
8000526c: 65726f63     	bltu	tp, s7, 0x800058ca <.Lanon.beb1e01ad3117df0df911a9560ca8dd1.0+0xd0>
80005270: 6372732f     	<unknown>
80005274: 6168632f     	<unknown>
80005278: 2f72         	fld	ft10, 0x118(sp)
8000527a: 656d         	lui	a0, 0x1b
8000527c: 6874         	ld	a3, 0xd0(s0)
8000527e: 2e73646f     	jal	s0, 0x8003bd64 <__image_end+0x4de4>
80005282: 7372         	ld	t1, 0x138(sp)
80005284: 5000         	lw	s0, 0x20(s0)
80005286: 72656b5b     	<unknown>
8000528a: 656e         	ld	a0, 0xd8(sp)
8000528c: 5d6c         	lw	a1, 0x7c(a0)
8000528e: 6120         	ld	s0, 0x40(a0)
80005290: 70656363     	bltu	a0, t1, 0x80005996 <.Lanon.beb1e01ad3117df0df911a9560ca8dd1.1+0xb8>
80005294: 6174         	ld	a3, 0xc0(a0)
80005296: 636e         	ld	t1, 0xd8(sp)
80005298: 2065         	<unknown>
8000529a: 626f6c67     	<unknown>
8000529e: 6c61         	lui	s8, 0x18
800052a0: 7220         	ld	s0, 0x60(a2)
800052a2: 6e75         	lui	t3, 0x1d
800052a4: 7120         	ld	s0, 0x60(a0)
800052a6: 6575         	lui	a0, 0x1d
800052a8: 6575         	lui	a0, 0x1d
800052aa: 6120         	ld	s0, 0x40(a0)
800052ac: 646e         	ld	s0, 0xd8(sp)
800052ae: 6120         	ld	s0, 0x40(a0)
800052b0: 6c6c         	ld	a1, 0xd8(s0)
800052b2: 7461636f     	jal	t1, 0x8001b9f8 <__boot_stack_bottom+0x4a78>
800052b6: 7720726f     	jal	tp, 0x8000ca28 <lab5_kernel_task3::HEAP::hc987e9ebc34352f5+0x5c10>
800052ba: 7265         	lui	tp, 0xffff9
800052bc: 2065         	<unknown>
800052be: 7270         	ld	a2, 0xe0(a2)
800052c0: 6365746f     	jal	s0, 0x8005c8f6 <__image_end+0x25976>
800052c4: 6574         	ld	a3, 0xc8(a0)
800052c6: 2064         	fld	fs1, 0xc0(s0)
800052c8: 7962         	ld	s2, 0x38(sp)
800052ca: 7320         	ld	s0, 0x60(a4)
800052cc: 6970         	ld	a2, 0xd0(a0)
800052ce: 6c6e         	ld	s8, 0xd8(sp)
800052d0: 736b636f     	jal	t1, 0x800bba06 <__image_end+0x84a86>
800052d4: 203a         	fld	ft0, 0x188(sp)
800052d6: 01c0         	addi	s0, sp, 0xc4
800052d8: 000a         	c.slli	zero, 0x2
800052da: 6920         	ld	s0, 0x50(a0)
800052dc: 646e         	ld	s0, 0xd8(sp)
800052de: 7865         	lui	a6, 0xffff9
800052e0: 6f20         	ld	s0, 0x58(a4)
800052e2: 7475         	lui	s0, 0xffffd
800052e4: 6f20         	ld	s0, 0x58(a4)
800052e6: 2066         	fld	ft0, 0x58(sp)
800052e8: 6f62         	ld	t5, 0x18(sp)
800052ea: 6e75         	lui	t3, 0x1d
800052ec: 7364         	ld	s1, 0xe0(a4)
800052ee: 203a         	fld	ft0, 0x188(sp)
800052f0: 6874         	ld	a3, 0xd0(s0)
800052f2: 2065         	<unknown>
800052f4: 656c         	ld	a1, 0xc8(a0)
800052f6: 206e         	fld	ft0, 0xd8(sp)
800052f8: 7369         	lui	t1, 0xffffa
800052fa: c020         	sw	s0, 0x40(s0)
800052fc: 2012         	fld	ft0, 0x100(sp)
800052fe: 7562         	ld	a0, 0x38(sp)
80005300: 2074         	fld	fa3, 0xc0(s0)
80005302: 6874         	ld	a3, 0xd0(s0)
80005304: 2065         	<unknown>
80005306: 6e69         	lui	t3, 0x1a
80005308: 6564         	ld	s1, 0xc8(a0)
8000530a: 2078         	fld	fa4, 0xc0(s0)
8000530c: 7369         	lui	t1, 0xffffa
8000530e: c020         	sw	s0, 0x40(s0)
80005310: 2f00         	fld	fs0, 0x18(a4)
80005312: 7572         	ld	a0, 0x138(sp)
80005314: 2f637473     	csrrci	s0, 0x2f6, 0x6
80005318: 3465         	addiw	s0, s0, -0x7
8000531a: 3830         	fld	fa2, 0x70(s0)
8000531c: 3439         	addiw	s0, s0, -0x12
8000531e: 64666237     	lui	tp, 0x64666
80005322: 3032         	fld	ft0, 0x128(sp)
80005324: 6130         	ld	a2, 0x40(a0)
80005326: 3466         	fld	fs0, 0x78(sp)
80005328: 6432         	ld	s0, 0x108(sp)
8000532a: 3362         	fld	ft6, 0x38(sp)
8000532c: 3232         	fld	ft4, 0x128(sp)
8000532e: 6164         	ld	s1, 0xc0(a0)
80005330: 3066         	fld	ft0, 0x78(sp)
80005332: 6166         	ld	sp, 0x58(sp)
80005334: 6664         	ld	s1, 0xc8(a2)
80005336: 3765         	addiw	a4, a4, -0x7
80005338: 3265         	addiw	tp, tp, -0x7
8000533a: 6436         	ld	s0, 0x148(sp)
8000533c: 31646233     	<unknown>
80005340: 62696c2f     	<unknown>
80005344: 6172         	ld	sp, 0x118(sp)
80005346: 7972         	ld	s2, 0x138(sp)
80005348: 726f632f     	<unknown>
8000534c: 2f65         	addiw	t5, t5, 0x19
8000534e: 2f637273     	csrrci	tp, 0x2f6, 0x6
80005352: 6d66         	ld	s10, 0x58(sp)
80005354: 2f74         	fld	fa3, 0xd8(a4)
80005356: 6f6d         	lui	t5, 0x1b
80005358: 2e64         	fld	fs1, 0xd8(a2)
8000535a: 7372         	ld	t1, 0x138(sp)
8000535c: 7300         	ld	s0, 0x20(a4)
8000535e: 6372         	ld	t1, 0x118(sp)
80005360: 6e6f632f     	<unknown>
80005364: 656c6f73     	csrrsi	t5, 0x656, 0x18
80005368: 722e         	ld	tp, 0xe8(sp)
8000536a: 5b260073     	<unknown>
8000536e: 6e72656b     	<unknown>
80005372: 6c65         	lui	s8, 0x19
80005374: 205d         	<unknown>
80005376: 6c61         	lui	s8, 0x18
80005378: 6f6c         	ld	a1, 0xd8(a4)
8000537a: 6f746163     	bltu	s0, s7, 0x80005a5c <.Lanon.beb1e01ad3117df0df911a9560ca8dd1.2+0xa8>
8000537e: 5f72         	lw	t5, 0x3c(sp)
80005380: 6f6c         	ld	a1, 0xd8(a4)
80005382: 203a6b63     	bltu	s4, gp, 0x80005598 <memset+0x688>
80005386: 6361         	lui	t1, 0x18
80005388: 7571         	lui	a0, 0xffffc
8000538a: 7369         	lui	t1, 0xffffa
8000538c: 7469         	lui	s0, 0xffffa
8000538e: 6f69         	lui	t5, 0x1a
80005390: 736e         	ld	t1, 0xf8(sp)
80005392: c03d         	beqz	s0, 0x800053f8 <memset+0x4e8>
80005394: 2012         	fld	ft0, 0x100(sp)
80005396: 746e6f63     	bltu	t3, t1, 0x80005af4 <.Lanon.9d77193faba5895f0e62280f53014577.2+0x34>
8000539a: 6e65         	lui	t3, 0x19
8000539c: 6974         	ld	a3, 0xd0(a0)
8000539e: 735f6e6f     	jal	t3, 0x800fc2d2 <__image_end+0xc5352>
800053a2: 6970         	ld	a2, 0xd0(a0)
800053a4: 736e         	ld	t1, 0xf8(sp)
800053a6: c03d         	beqz	s0, 0x8000540c <memset+0x4fc>
800053a8: 200d         	<unknown>
800053aa: 6c61         	lui	s8, 0x18
800053ac: 6f6c         	ld	a1, 0xd8(a4)
800053ae: 69746163     	bltu	s0, s7, 0x80005a30 <.Lanon.beb1e01ad3117df0df911a9560ca8dd1.2+0x7c>
800053b2: 3d736e6f     	jal	t3, 0x8003bf88 <__image_end+0x5008>
800053b6: 0cc0         	addi	s0, sp, 0x254
800053b8: 6820         	ld	s0, 0x50(s0)
800053ba: 6769         	lui	a4, 0x1a
800053bc: 5f68         	lw	a0, 0x7c(a4)
800053be: 65746177     	<unknown>
800053c2: 3d72         	fld	fs10, 0x138(sp)
800053c4: 07c0         	addi	s0, sp, 0x3c4
800053c6: 6220         	ld	s0, 0x40(a2)
800053c8: 7479         	lui	s0, 0xffffe
800053ca: 7365         	lui	t1, 0xffff9
800053cc: 000a         	c.slli	zero, 0x2
800053ce: 5b16         	lw	s6, 0x64(sp)
800053d0: 6e72656b     	<unknown>
800053d4: 6c65         	lui	s8, 0x19
800053d6: 205d         	<unknown>
800053d8: 6170         	ld	a2, 0xc0(a0)
800053da: 696e         	ld	s2, 0xd8(sp)
800053dc: 6e6f2063     	<unknown>
800053e0: 6820         	ld	s0, 0x50(s0)
800053e2: 7261         	lui	tp, 0xffff8
800053e4: c074         	sw	a3, 0x44(s0)
800053e6: 3a02         	fld	fs4, 0x20(sp)
800053e8: c020         	sw	s0, 0x40(s0)
800053ea: 0a01         	c.addi	s4, 0x0
800053ec: 0e00         	addi	s0, sp, 0x310
800053ee: 72656b5b     	<unknown>
800053f2: 656e         	ld	a0, 0xd8(sp)
800053f4: 5d6c         	lw	a1, 0x7c(a0)
800053f6: 6820         	ld	s0, 0x50(s0)
800053f8: 7261         	lui	tp, 0xffff8
800053fa: 5b74         	lw	a3, 0x74(a4)
800053fc: 0dc0         	addi	s0, sp, 0x2d4
800053fe: 3a5d         	addiw	s4, s4, -0x9
80005400: 6920         	ld	s0, 0x50(a0)
80005402: 696e         	ld	s2, 0xd8(sp)
80005404: 5f74         	lw	a3, 0x7c(a4)
80005406: 6f64         	ld	s1, 0xd8(a4)
80005408: 656e         	ld	a0, 0xd8(sp)
8000540a: c03d         	beqz	s0, 0x80005470 <memset+0x560>
8000540c: 6f6a200b     	<unknown>
80005410: 7362         	ld	t1, 0x38(sp)
80005412: 645f 6e6f 3d65       	<unknown>
80005418: 0dc0         	addi	s0, sp, 0x2d4
8000541a: 6120         	ld	s0, 0x40(a0)
8000541c: 6c6c         	ld	a1, 0xd8(s0)
8000541e: 625f636f     	jal	t1, 0x800fc242 <__image_end+0xc52c2>
80005422: 7479         	lui	s0, 0xffffe
80005424: 7365         	lui	t1, 0xffff9
80005426: c03d         	beqz	s0, 0x8000548c <memset+0x57c>
80005428: 0a01         	c.addi	s4, 0x0
8000542a: 1900         	addi	s0, sp, 0xb0
8000542c: 72656b5b     	<unknown>
80005430: 656e         	ld	a0, 0xd8(sp)
80005432: 5d6c         	lw	a1, 0x7c(a0)
80005434: 6120         	ld	s0, 0x40(a0)
80005436: 70656363     	bltu	a0, t1, 0x80005b3c <.Lanon.a11090c9c1adbee74f138c13592358a0.5+0x4>
8000543a: 6174         	ld	a3, 0xc0(a0)
8000543c: 636e         	ld	t1, 0xd8(sp)
8000543e: 2065         	<unknown>
80005440: 732d         	lui	t1, 0xfffeb
80005442: 706d         	c.lui	zero, 0xffffb
80005444: c020         	sw	s0, 0x40(s0)
80005446: 202a         	fld	ft0, 0x88(sp)
80005448: 7572         	ld	a0, 0x138(sp)
8000544a: 206e         	fld	ft0, 0xd8(sp)
8000544c: 706d6f63     	bltu	s10, t1, 0x80005b6a <.Lanon.a11090c9c1adbee74f138c13592358a0.8+0x2>
80005450: 656c         	ld	a1, 0xc8(a0)
80005452: 6574         	ld	a3, 0xc8(a0)
80005454: 2064         	fld	fs1, 0xc0(s0)
80005456: 68746977     	<unknown>
8000545a: 2074756f     	jal	a0, 0x8004ce60 <__image_end+0x15ee0>
8000545e: 6564         	ld	s1, 0xc8(a0)
80005460: 6461         	lui	s0, 0x18
80005462: 6f6c         	ld	a1, 0xd8(a4)
80005464: 6f206b63     	bltu	zero, s2, 0x80005b5a <.Lanon.a11090c9c1adbee74f138c13592358a0.6+0xa>
80005468: 2072         	fld	ft0, 0x118(sp)
8000546a: 73617263     	bgeu	sp, s6, 0x80005b8e <.Lanon.a11090c9c1adbee74f138c13592358a0.9+0xe>
8000546e: 3a68         	fld	fa0, 0xf0(a2)
80005470: c020         	sw	s0, 0x40(s0)
80005472: 0a01         	c.addi	s4, 0x0
80005474: 2f00         	fld	fs0, 0x18(a4)
80005476: 7572         	ld	a0, 0x138(sp)
80005478: 2f637473     	csrrci	s0, 0x2f6, 0x6
8000547c: 3465         	addiw	s0, s0, -0x7
8000547e: 3830         	fld	fa2, 0x70(s0)
80005480: 3439         	addiw	s0, s0, -0x12
80005482: 64666237     	lui	tp, 0x64666
80005486: 3032         	fld	ft0, 0x128(sp)
80005488: 6130         	ld	a2, 0x40(a0)
8000548a: 3466         	fld	fs0, 0x78(sp)
8000548c: 6432         	ld	s0, 0x108(sp)
8000548e: 3362         	fld	ft6, 0x38(sp)
80005490: 3232         	fld	ft4, 0x128(sp)
80005492: 6164         	ld	s1, 0xc0(a0)
80005494: 3066         	fld	ft0, 0x78(sp)
80005496: 6166         	ld	sp, 0x58(sp)
80005498: 6664         	ld	s1, 0xc8(a2)
8000549a: 3765         	addiw	a4, a4, -0x7
8000549c: 3265         	addiw	tp, tp, -0x7
8000549e: 6436         	ld	s0, 0x148(sp)
800054a0: 31646233     	<unknown>
800054a4: 62696c2f     	<unknown>
800054a8: 6172         	ld	sp, 0x118(sp)
800054aa: 7972         	ld	s2, 0x138(sp)
800054ac: 726f632f     	<unknown>
800054b0: 2f65         	addiw	t5, t5, 0x19
800054b2: 2f637273     	csrrci	tp, 0x2f6, 0x6
800054b6: 7469         	lui	s0, 0xffffa
800054b8: 7265         	lui	tp, 0xffff9
800054ba: 6e61722f     	<unknown>
800054be: 722e6567     	<unknown>
800054c2: 722f0073     	<unknown>
800054c6: 7375         	lui	t1, 0xffffd
800054c8: 6374         	ld	a3, 0xc0(a4)
800054ca: 3034652f     	<unknown>
800054ce: 3938         	fld	fa4, 0x70(a0)
800054d0: 3734         	fld	fa3, 0x68(a4)
800054d2: 6662         	ld	a2, 0x18(sp)
800054d4: 3264         	fld	fs1, 0xe0(a2)
800054d6: 3030         	fld	fa2, 0x60(s0)
800054d8: 6661         	lui	a2, 0x18
800054da: 3234         	fld	fa3, 0x60(a2)
800054dc: 6264         	ld	s1, 0xc0(a2)
800054de: 64323233     	<unknown>
800054e2: 6661         	lui	a2, 0x18
800054e4: 6630         	ld	a2, 0x48(a2)
800054e6: 6461         	lui	s0, 0x18
800054e8: 6566         	ld	a0, 0x58(sp)
800054ea: 36326537     	lui	a0, 0x36326
800054ee: 3364         	fld	fs1, 0xe0(a4)
800054f0: 6462         	ld	s0, 0x18(sp)
800054f2: 2f31         	addiw	t5, t5, 0xc
800054f4: 696c         	ld	a1, 0xd0(a0)
800054f6: 7262         	ld	tp, 0x38(sp)
800054f8: 7261         	lui	tp, 0xffff8
800054fa: 2f79         	addiw	t5, t5, 0x1e
800054fc: 65726f63     	bltu	tp, s7, 0x80005b5a <.Lanon.a11090c9c1adbee74f138c13592358a0.6+0xa>
80005500: 6372732f     	<unknown>
80005504: 746d662f     	<unknown>
80005508: 6d756e2f     	<unknown>
8000550c: 722e         	ld	tp, 0xe8(sp)
8000550e: 722f0073     	<unknown>
80005512: 7375         	lui	t1, 0xffffd
80005514: 6374         	ld	a3, 0xc0(a4)
80005516: 3034652f     	<unknown>
8000551a: 3938         	fld	fa4, 0x70(a0)
8000551c: 3734         	fld	fa3, 0x68(a4)
8000551e: 6662         	ld	a2, 0x18(sp)
80005520: 3264         	fld	fs1, 0xe0(a2)
80005522: 3030         	fld	fa2, 0x60(s0)
80005524: 6661         	lui	a2, 0x18
80005526: 3234         	fld	fa3, 0x60(a2)
80005528: 6264         	ld	s1, 0xc0(a2)
8000552a: 64323233     	<unknown>
8000552e: 6661         	lui	a2, 0x18
80005530: 6630         	ld	a2, 0x48(a2)
80005532: 6461         	lui	s0, 0x18
80005534: 6566         	ld	a0, 0x58(sp)
80005536: 36326537     	lui	a0, 0x36326
8000553a: 3364         	fld	fs1, 0xe0(a4)
8000553c: 6462         	ld	s0, 0x18(sp)
8000553e: 2f31         	addiw	t5, t5, 0xc
80005540: 696c         	ld	a1, 0xd0(a0)
80005542: 7262         	ld	tp, 0x38(sp)
80005544: 7261         	lui	tp, 0xffff8
80005546: 2f79         	addiw	t5, t5, 0x1e
80005548: 65726f63     	bltu	tp, s7, 0x80005ba6 <.Lanon.a11090c9c1adbee74f138c13592358a0.10+0xe>
8000554c: 6372732f     	<unknown>
80005550: 5f62752f     	<unknown>
80005554: 63656863     	bltu	a0, s6, 0x80005b84 <.Lanon.a11090c9c1adbee74f138c13592358a0.9+0x4>
80005558: 722e736b     	<unknown>
8000555c: 722f0073     	<unknown>
80005560: 7375         	lui	t1, 0xffffd
80005562: 6374         	ld	a3, 0xc0(a4)
80005564: 3034652f     	<unknown>
80005568: 3938         	fld	fa4, 0x70(a0)
8000556a: 3734         	fld	fa3, 0x68(a4)
8000556c: 6662         	ld	a2, 0x18(sp)
8000556e: 3264         	fld	fs1, 0xe0(a2)
80005570: 3030         	fld	fa2, 0x60(s0)
80005572: 6661         	lui	a2, 0x18
80005574: 3234         	fld	fa3, 0x60(a2)
80005576: 6264         	ld	s1, 0xc0(a2)
80005578: 64323233     	<unknown>
8000557c: 6661         	lui	a2, 0x18
8000557e: 6630         	ld	a2, 0x48(a2)
80005580: 6461         	lui	s0, 0x18
80005582: 6566         	ld	a0, 0x58(sp)
80005584: 36326537     	lui	a0, 0x36326
80005588: 3364         	fld	fs1, 0xe0(a4)
8000558a: 6462         	ld	s0, 0x18(sp)
8000558c: 2f31         	addiw	t5, t5, 0xc
8000558e: 696c         	ld	a1, 0xd0(a0)
80005590: 7262         	ld	tp, 0x38(sp)
80005592: 7261         	lui	tp, 0xffff8
80005594: 2f79         	addiw	t5, t5, 0x1e
80005596: 65726f63     	bltu	tp, s7, 0x80005bf4 <.Lanon.a11090c9c1adbee74f138c13592358a0.14+0x14>
8000559a: 6372732f     	<unknown>
8000559e: 6e79732f     	<unknown>
800055a2: 74612f63     	<unknown>
800055a6: 63696d6f     	jal	s10, 0x8009bbdc <__image_end+0x64c5c>
800055aa: 722e         	ld	tp, 0xe8(sp)
800055ac: 01c00073     	<unknown>
800055b0: c03a         	sw	a4, 0x0(sp)
800055b2: 3a01         	addiw	s4, s4, -0x20
800055b4: 00c0         	addi	s0, sp, 0x44
800055b6: 5b05         	li	s6, -0x1f
800055b8: 6168         	ld	a0, 0xc0(a0)
800055ba: 7472         	ld	s0, 0x138(sp)
800055bc: 19c0         	addi	s0, sp, 0xf4
800055be: 205d         	<unknown>
800055c0: 72617473     	csrrci	s0, 0x726, 0x2
800055c4: 2074         	fld	fa3, 0xc0(s0)
800055c6: 6162         	ld	sp, 0x18(sp)
800055c8: 7272         	ld	tp, 0x138(sp)
800055ca: 6569         	lui	a0, 0x1a
800055cc: 2072         	fld	ft0, 0x118(sp)
800055ce: 6573626f     	jal	tp, 0x8003c424 <__image_end+0x54a4>
800055d2: 7672         	ld	a2, 0x138(sp)
800055d4: 6465         	lui	s0, 0x19
800055d6: 000a         	c.slli	zero, 0x2
800055d8: 5b1d         	li	s6, -0x19
800055da: 6e72656b     	<unknown>
800055de: 6c65         	lui	s8, 0x19
800055e0: 205d         	<unknown>
800055e2: 6571         	lui	a0, 0x1c
800055e4: 756d         	lui	a0, 0xffffb
800055e6: 6520         	ld	s0, 0x48(a0)
800055e8: 7078         	ld	a4, 0xe0(s0)
800055ea: 6365         	lui	t1, 0x19
800055ec: 6574         	ld	a3, 0xc8(a0)
800055ee: 5f64         	lw	s1, 0x7c(a4)
800055f0: 6168         	ld	a0, 0xc0(a0)
800055f2: 7472         	ld	s0, 0x138(sp)
800055f4: 0bc03d73     	csrrc	s10, 0xbc, zero
800055f8: 6a20         	ld	s0, 0x50(a2)
800055fa: 635f626f     	jal	tp, 0x800fc42e <__image_end+0xc54ae>
800055fe: 746e756f     	jal	a0, 0x800ecd44 <__image_end+0xb5dc4>
80005602: c03d         	beqz	s0, 0x80005668 <memset+0x758>
80005604: 6568200b     	<unknown>
80005608: 7061         	c.lui	zero, 0xffff8
8000560a: 735f 7a69 3d65       	<unknown>
80005610: 13c0         	addi	s0, sp, 0x1e4
80005612: 6220         	ld	s0, 0x40(a2)
80005614: 7479         	lui	s0, 0xffffe
80005616: 7365         	lui	t1, 0xffff9
80005618: 6120         	ld	s0, 0x40(a0)
8000561a: 6c6c         	ld	a1, 0xd8(s0)
8000561c: 615f636f     	jal	t1, 0x800fc430 <__image_end+0xc54b0>
80005620: 696c         	ld	a1, 0xd0(a0)
80005622: c03d6e67     	<unknown>
80005626: 79622007     	flw	ft0, 0x796(tp)
8000562a: 6574         	ld	a3, 0xc8(a0)
8000562c: 2f000a73     	<unknown>
80005630: 7572         	ld	a0, 0x138(sp)
80005632: 2f637473     	csrrci	s0, 0x2f6, 0x6
80005636: 3465         	addiw	s0, s0, -0x7
80005638: 3830         	fld	fa2, 0x70(s0)
8000563a: 3439         	addiw	s0, s0, -0x12
8000563c: 64666237     	lui	tp, 0x64666
80005640: 3032         	fld	ft0, 0x128(sp)
80005642: 6130         	ld	a2, 0x40(a0)
80005644: 3466         	fld	fs0, 0x78(sp)
80005646: 6432         	ld	s0, 0x108(sp)
80005648: 3362         	fld	ft6, 0x38(sp)
8000564a: 3232         	fld	ft4, 0x128(sp)
8000564c: 6164         	ld	s1, 0xc0(a0)
8000564e: 3066         	fld	ft0, 0x78(sp)
80005650: 6166         	ld	sp, 0x58(sp)
80005652: 6664         	ld	s1, 0xc8(a2)
80005654: 3765         	addiw	a4, a4, -0x7
80005656: 3265         	addiw	tp, tp, -0x7
80005658: 6436         	ld	s0, 0x148(sp)
8000565a: 31646233     	<unknown>
8000565e: 62696c2f     	<unknown>
80005662: 6172         	ld	sp, 0x118(sp)
80005664: 7972         	ld	s2, 0x138(sp)
80005666: 726f632f     	<unknown>
8000566a: 2f65         	addiw	t5, t5, 0x19
8000566c: 2f637273     	csrrci	tp, 0x2f6, 0x6
80005670: 7470         	ld	a2, 0xe8(s0)
80005672: 2f72         	fld	ft10, 0x118(sp)
80005674: 736e6f63     	bltu	t3, s6, 0x80005db2 <.Lanon.a11090c9c1adbee74f138c13592358a0.38+0x3a>
80005678: 5f74         	lw	a3, 0x7c(a4)
8000567a: 7470         	ld	a2, 0xe8(s0)
8000567c: 2e72         	fld	ft8, 0x118(sp)
8000567e: 7372         	ld	t1, 0x138(sp)
80005680: 2600         	fld	fs0, 0x8(a2)
80005682: 72656b5b     	<unknown>
80005686: 656e         	ld	a0, 0xd8(sp)
80005688: 5d6c         	lw	a1, 0x7c(a0)
8000568a: 7220         	ld	s0, 0x60(a2)
8000568c: 6e75         	lui	t3, 0x1d
8000568e: 715f 6575 6575       	<unknown>
80005694: 6c5f 636f 3a6b       	<unknown>
8000569a: 6120         	ld	s0, 0x40(a0)
8000569c: 69757163     	bgeu	a0, s7, 0x80005d1e <.Lanon.a11090c9c1adbee74f138c13592358a0.34+0x6>
800056a0: 69746973     	csrrsi	s2, 0x697, 0x8
800056a4: 3d736e6f     	jal	t3, 0x8003c27a <__image_end+0x52fa>
800056a8: 12c0         	addi	s0, sp, 0x164
800056aa: 6320         	ld	s0, 0x40(a4)
800056ac: 65746e6f     	jal	t3, 0x8004c502 <__image_end+0x15582>
800056b0: 746e         	ld	s0, 0xf8(sp)
800056b2: 6f69         	lui	t5, 0x1a
800056b4: 5f6e         	lw	t5, 0xf8(sp)
800056b6: 6e697073     	csrci	0x6e6, 0x12
800056ba: 0bc03d73     	csrrc	s10, 0xbc, zero
800056be: 7020         	ld	s0, 0x60(s0)
800056c0: 635f706f     	j	0x800fd4f4 <__image_end+0xc6574>
800056c4: 746e756f     	jal	a0, 0x800ece0a <__image_end+0xb5e8a>
800056c8: c03d         	beqz	s0, 0x8000572e <.Lanon.53b88685c8e62fe49b99cc9577a56053.2+0x36>
800056ca: 6572200b     	<unknown>
800056ce: 616d         	addi	sp, sp, 0xf0
800056d0: 6e69         	lui	t3, 0x1a
800056d2: 6e69         	lui	t3, 0x1a
800056d4: 01c03d67     	<unknown>
800056d8: 000a         	c.slli	zero, 0x2
800056da: 0000         	unimp
800056dc: 0000         	unimp
800056de: 0000         	unimp

00000000800056e0 <.Lanon.53b88685c8e62fe49b99cc9577a56053.1>:
800056e0: 5d 53 00 80 00 00 00 00         ]S......
800056e8: 0e 00 00 00 00 00 00 00         ........
800056f0: 0c 00 00 00 0d 00 00 00         ........

00000000800056f8 <.Lanon.53b88685c8e62fe49b99cc9577a56053.2>:
800056f8: 5d 53 00 80 00 00 00 00         ]S......
80005700: 0e 00 00 00 00 00 00 00         ........
80005708: 0e 00 00 00 09 00 00 00         ........
80005710: 30 31 32 33 34 35 36 37         01234567
80005718: 38 39 41 42 43 44 45 46         89ABCDEF
80005720: 00 00 00 00 00 00 00 00         ........
80005728: 00 00 00 00 00 00 00 00         ........
80005730: 30 31 32 33 34 35 36 37         01234567
80005738: 38 39 61 62 63 64 65 66         89abcdef

0000000080005740 <.Lanon.abb307c815860a7d36d7d25f1160e68a.1>:
80005740: 75 6e 73 61 66 65 20 70         unsafe p
80005748: 72 65 63 6f 6e 64 69 74         recondit
80005750: 69 6f 6e 28 73 29 20 76         ion(s) v
80005758: 69 6f 6c 61 74 65 64 3a         iolated:
80005760: 20 75 73 69 7a 65 3a 3a          usize::
80005768: 75 6e 63 68 65 63 6b 65         unchecke
80005770: 64 5f 61 64 64 20 63 61         d_add ca
80005778: 6e 6e 6f 74 20 6f 76 65         nnot ove
80005780: 72 66 6c 6f 77 0a 0a 54         rflow..T
80005788: 68 69 73 20 69 6e 64 69         his indi
80005790: 63 61 74 65 73 20 61 20         cates a 
80005798: 62 75 67 20 69 6e 20 74         bug in t
800057a0: 68 65 20 70 72 6f 67 72         he progr
800057a8: 61 6d 2e 20 54 68 69 73         am. This
800057b0: 20 55 6e 64 65 66 69 6e          Undefin
800057b8: 65 64 20 42 65 68 61 76         ed Behav
800057c0: 69 6f 72 20 63 68 65 63         ior chec
800057c8: 6b 20 69 73 20 6f 70 74         k is opt
800057d0: 69 6f 6e 61 6c 2c 20 61         ional, a
800057d8: 6e 64 20 63 61 6e 6e 6f         nd canno
800057e0: 74 20 62 65 20 72 65 6c         t be rel
800057e8: 69 65 64 20 6f 6e 20 66         ied on f
800057f0: 6f 72 20 73 61 66 65 74         or safet
800057f8: 79 2e                           y.

00000000800057fa <.Lanon.beb1e01ad3117df0df911a9560ca8dd1.0>:
800057fa: 75 6e 73 61 66 65 20 70         unsafe p
80005802: 72 65 63 6f 6e 64 69 74         recondit
8000580a: 69 6f 6e 28 73 29 20 76         ion(s) v
80005812: 69 6f 6c 61 74 65 64 3a         iolated:
8000581a: 20 70 74 72 3a 3a 77 72          ptr::wr
80005822: 69 74 65 5f 62 79 74 65         ite_byte
8000582a: 73 20 72 65 71 75 69 72         s requir
80005832: 65 73 20 74 68 61 74 20         es that 
8000583a: 74 68 65 20 64 65 73 74         the dest
80005842: 69 6e 61 74 69 6f 6e 20         ination 
8000584a: 70 6f 69 6e 74 65 72 20         pointer 
80005852: 69 73 20 61 6c 69 67 6e         is align
8000585a: 65 64 20 61 6e 64 20 6e         ed and n
80005862: 6f 6e 2d 6e 75 6c 6c 0a         on-null.
8000586a: 0a 54 68 69 73 20 69 6e         .This in
80005872: 64 69 63 61 74 65 73 20         dicates 
8000587a: 61 20 62 75 67 20 69 6e         a bug in
80005882: 20 74 68 65 20 70 72 6f          the pro
8000588a: 67 72 61 6d 2e 20 54 68         gram. Th
80005892: 69 73 20 55 6e 64 65 66         is Undef
8000589a: 69 6e 65 64 20 42 65 68         ined Beh
800058a2: 61 76 69 6f 72 20 63 68         avior ch
800058aa: 65 63 6b 20 69 73 20 6f         eck is o
800058b2: 70 74 69 6f 6e 61 6c 2c         ptional,
800058ba: 20 61 6e 64 20 63 61 6e          and can
800058c2: 6e 6f 74 20 62 65 20 72         not be r
800058ca: 65 6c 69 65 64 20 6f 6e         elied on
800058d2: 20 66 6f 72 20 73 61 66          for saf
800058da: 65 74 79 2e                     ety.

00000000800058de <.Lanon.beb1e01ad3117df0df911a9560ca8dd1.1>:
800058de: 75 6e 73 61 66 65 20 70         unsafe p
800058e6: 72 65 63 6f 6e 64 69 74         recondit
800058ee: 69 6f 6e 28 73 29 20 76         ion(s) v
800058f6: 69 6f 6c 61 74 65 64 3a         iolated:
800058fe: 20 70 74 72 3a 3a 72 65          ptr::re
80005906: 61 64 5f 76 6f 6c 61 74         ad_volat
8000590e: 69 6c 65 20 72 65 71 75         ile requ
80005916: 69 72 65 73 20 74 68 61         ires tha
8000591e: 74 20 74 68 65 20 70 6f         t the po
80005926: 69 6e 74 65 72 20 61 72         inter ar
8000592e: 67 75 6d 65 6e 74 20 69         gument i
80005936: 73 20 61 6c 69 67 6e 65         s aligne
8000593e: 64 0a 0a 54 68 69 73 20         d..This 
80005946: 69 6e 64 69 63 61 74 65         indicate
8000594e: 73 20 61 20 62 75 67 20         s a bug 
80005956: 69 6e 20 74 68 65 20 70         in the p
8000595e: 72 6f 67 72 61 6d 2e 20         rogram. 
80005966: 54 68 69 73 20 55 6e 64         This Und
8000596e: 65 66 69 6e 65 64 20 42         efined B
80005976: 65 68 61 76 69 6f 72 20         ehavior 
8000597e: 63 68 65 63 6b 20 69 73         check is
80005986: 20 6f 70 74 69 6f 6e 61          optiona
8000598e: 6c 2c 20 61 6e 64 20 63         l, and c
80005996: 61 6e 6e 6f 74 20 62 65         annot be
8000599e: 20 72 65 6c 69 65 64 20          relied 
800059a6: 6f 6e 20 66 6f 72 20 73         on for s
800059ae: 61 66 65 74 79 2e               afety.

00000000800059b4 <.Lanon.beb1e01ad3117df0df911a9560ca8dd1.2>:
800059b4: 75 6e 73 61 66 65 20 70         unsafe p
800059bc: 72 65 63 6f 6e 64 69 74         recondit
800059c4: 69 6f 6e 28 73 29 20 76         ion(s) v
800059cc: 69 6f 6c 61 74 65 64 3a         iolated:
800059d4: 20 70 74 72 3a 3a 77 72          ptr::wr
800059dc: 69 74 65 5f 76 6f 6c 61         ite_vola
800059e4: 74 69 6c 65 20 72 65 71         tile req
800059ec: 75 69 72 65 73 20 74 68         uires th
800059f4: 61 74 20 74 68 65 20 70         at the p
800059fc: 6f 69 6e 74 65 72 20 61         ointer a
80005a04: 72 67 75 6d 65 6e 74 20         rgument 
80005a0c: 69 73 20 61 6c 69 67 6e         is align
80005a14: 65 64 0a 0a 54 68 69 73         ed..This
80005a1c: 20 69 6e 64 69 63 61 74          indicat
80005a24: 65 73 20 61 20 62 75 67         es a bug
80005a2c: 20 69 6e 20 74 68 65 20          in the 
80005a34: 70 72 6f 67 72 61 6d 2e         program.
80005a3c: 20 54 68 69 73 20 55 6e          This Un
80005a44: 64 65 66 69 6e 65 64 20         defined 
80005a4c: 42 65 68 61 76 69 6f 72         Behavior
80005a54: 20 63 68 65 63 6b 20 69          check i
80005a5c: 73 20 6f 70 74 69 6f 6e         s option
80005a64: 61 6c 2c 20 61 6e 64 20         al, and 
80005a6c: 63 61 6e 6e 6f 74 20 62         cannot b
80005a74: 65 20 72 65 6c 69 65 64         e relied
80005a7c: 20 6f 6e 20 66 6f 72 20          on for 
80005a84: 73 61 66 65 74 79 2e            safety.

0000000080005a8b <.Lanon.4ce6d07d7894640cf91911fc78718a64.0>:
80005a8b: 00 00 00 00 00                  .....

0000000080005a90 <.Lanon.311b6cb4f2c3bd93e9a7cff8fd55ef29.1>:
80005a90: 11 53 00 80 00 00 00 00         .S......
80005a98: 4b 00 00 00 00 00 00 00         K.......
80005aa0: 71 03 00 00 2a 00 00 00         q...*...

0000000080005aa8 <.Lanon.9d77193faba5895f0e62280f53014577.1>:
80005aa8: 24 52 00 80 00 00 00 00         $R......
80005ab0: 0f 00 00 00 00 00 00 00         ........
80005ab8: 43 00 00 00 12 00 00 00         C.......

0000000080005ac0 <.Lanon.9d77193faba5895f0e62280f53014577.2>:
80005ac0: 24 52 00 80 00 00 00 00         $R......
80005ac8: 0f 00 00 00 00 00 00 00         ........
80005ad0: 49 00 00 00 12 00 00 00         I.......
80005ad8: 08 00 00 00 00 00 00 00         ........
80005ae0: 74 74 79 5f 65 63 68 6f         tty_echo
80005ae8: 2d 7f 95 4c 2d f4 51 58         -..L-.QX
80005af0: 4b 59 86 38 d6 c5 6d 34         KY.8..m4
80005af8: 4f 81 67 f7 7e 7b 05 14         O.g.~{..
80005b00: 15 7c 4a 7f b9 79 37 9e         .|J..y7.
80005b08: 00 00 01 00 00 00 00 00         ........
80005b10: 04 00 00 00 00 00 00 00         ........
80005b18: 40 00 00 00 00 00 00 00         @.......

0000000080005b20 <.Lanon.a11090c9c1adbee74f138c13592358a0.4>:
80005b20: 9b 50 00 80 00 00 00 00         .P......
80005b28: 0b 00 00 00 00 00 00 00         ........
80005b30: eb 01 00 00 1e 00 00 00         ........

0000000080005b38 <.Lanon.a11090c9c1adbee74f138c13592358a0.5>:
80005b38: 9b 50 00 80 00 00 00 00         .P......
80005b40: 0b 00 00 00 00 00 00 00         ........
80005b48: ec 01 00 00 15 00 00 00         ........

0000000080005b50 <.Lanon.a11090c9c1adbee74f138c13592358a0.6>:
80005b50: 9b 50 00 80 00 00 00 00         .P......
80005b58: 0b 00 00 00 00 00 00 00         ........
80005b60: ed 01 00 00 09 00 00 00         ........

0000000080005b68 <.Lanon.a11090c9c1adbee74f138c13592358a0.8>:
80005b68: 9b 50 00 80 00 00 00 00         .P......
80005b70: 0b 00 00 00 00 00 00 00         ........
80005b78: e2 01 00 00 0d 00 00 00         ........

0000000080005b80 <.Lanon.a11090c9c1adbee74f138c13592358a0.9>:
80005b80: 9b 50 00 80 00 00 00 00         .P......
80005b88: 0b 00 00 00 00 00 00 00         ........
80005b90: e6 01 00 00 09 00 00 00         ........

0000000080005b98 <.Lanon.a11090c9c1adbee74f138c13592358a0.10>:
80005b98: 9b 50 00 80 00 00 00 00         .P......
80005ba0: 0b 00 00 00 00 00 00 00         ........
80005ba8: d0 01 00 00 09 00 00 00         ........

0000000080005bb0 <.Lanon.a11090c9c1adbee74f138c13592358a0.11>:
80005bb0: 9b 50 00 80 00 00 00 00         .P......
80005bb8: 0b 00 00 00 00 00 00 00         ........
80005bc0: 73 01 00 00 13 00 00 00         s.......

0000000080005bc8 <.Lanon.a11090c9c1adbee74f138c13592358a0.13>:
80005bc8: 9b 50 00 80 00 00 00 00         .P......
80005bd0: 0b 00 00 00 00 00 00 00         ........
80005bd8: 84 00 00 00 09 00 00 00         ........

0000000080005be0 <.Lanon.a11090c9c1adbee74f138c13592358a0.14>:
80005be0: 9b 50 00 80 00 00 00 00         .P......
80005be8: 0b 00 00 00 00 00 00 00         ........
80005bf0: 52 01 00 00 1a 00 00 00         R.......

0000000080005bf8 <.Lanon.a11090c9c1adbee74f138c13592358a0.15>:
80005bf8: 9b 50 00 80 00 00 00 00         .P......
80005c00: 0b 00 00 00 00 00 00 00         ........
80005c08: 56 01 00 00 09 00 00 00         V.......

0000000080005c10 <.Lanon.a11090c9c1adbee74f138c13592358a0.18>:
80005c10: 9b 50 00 80 00 00 00 00         .P......
80005c18: 0b 00 00 00 00 00 00 00         ........
80005c20: b4 01 00 00 0d 00 00 00         ........

0000000080005c28 <.Lanon.a11090c9c1adbee74f138c13592358a0.20>:
80005c28: 9b 50 00 80 00 00 00 00         .P......
80005c30: 0b 00 00 00 00 00 00 00         ........
80005c38: be 01 00 00 0d 00 00 00         ........

0000000080005c40 <.Lanon.a11090c9c1adbee74f138c13592358a0.23>:
80005c40: 9b 50 00 80 00 00 00 00         .P......
80005c48: 0b 00 00 00 00 00 00 00         ........
80005c50: 85 02 00 00 09 00 00 00         ........

0000000080005c58 <.Lanon.a11090c9c1adbee74f138c13592358a0.24>:
80005c58: 9b 50 00 80 00 00 00 00         .P......
80005c60: 0b 00 00 00 00 00 00 00         ........
80005c68: 74 02 00 00 05 00 00 00         t.......

0000000080005c70 <.Lanon.a11090c9c1adbee74f138c13592358a0.25>:
80005c70: 9b 50 00 80 00 00 00 00         .P......
80005c78: 0b 00 00 00 00 00 00 00         ........
80005c80: 75 02 00 00 1a 00 00 00         u.......

0000000080005c88 <.Lanon.a11090c9c1adbee74f138c13592358a0.26>:
80005c88: 9b 50 00 80 00 00 00 00         .P......
80005c90: 0b 00 00 00 00 00 00 00         ........
80005c98: 76 02 00 00 05 00 00 00         v.......

0000000080005ca0 <.Lanon.a11090c9c1adbee74f138c13592358a0.28>:
80005ca0: 1e 5b 6b 65 72 6e 65 6c         .[kernel
80005ca8: 5d 20 73 75 6d 6d 61 72         ] summar
80005cb0: 79 3a 20 72 65 61 64 79         y: ready
80005cb8: 5f 68 61 72 74 73 3d c0         _harts=.
80005cc0: 0d 20 62 6f 6f 74 65 64         . booted
80005cc8: 5f 6d 61 73 6b 3d c1 20         _mask=. 
80005cd0: 00 80 60 10 20 66 69 6e         ..`. fin
80005cd8: 69 73 68 65 64 5f 68 61         ished_ha
80005ce0: 72 74 73 3d c0 10 20 63         rts=.. c
80005ce8: 6f 6d 70 6c 65 74 65 64         ompleted
80005cf0: 5f 6a 6f 62 73 3d c0 01         _jobs=..
80005cf8: 2f c0 13 20 6d 61 78 5f         /.. max_
80005d00: 70 61 72 61 6c 6c 65 6c         parallel
80005d08: 5f 6a 6f 62 73 3d c0 01         _jobs=..
80005d10: 0a 00 00 00 00 00 00 00         ........

0000000080005d18 <.Lanon.a11090c9c1adbee74f138c13592358a0.34>:
80005d18: 9b 50 00 80 00 00 00 00         .P......
80005d20: 0b 00 00 00 00 00 00 00         ........
80005d28: 36 02 00 00 17 00 00 00         6.......

0000000080005d30 <.Lanon.a11090c9c1adbee74f138c13592358a0.35>:
80005d30: 9b 50 00 80 00 00 00 00         .P......
80005d38: 0b 00 00 00 00 00 00 00         ........
80005d40: 3a 02 00 00 0d 00 00 00         :.......

0000000080005d48 <.Lanon.a11090c9c1adbee74f138c13592358a0.36>:
80005d48: 9b 50 00 80 00 00 00 00         .P......
80005d50: 0b 00 00 00 00 00 00 00         ........
80005d58: 3b 02 00 00 0d 00 00 00         ;.......

0000000080005d60 <.Lanon.a11090c9c1adbee74f138c13592358a0.37>:
80005d60: 9b 50 00 80 00 00 00 00         .P......
80005d68: 0b 00 00 00 00 00 00 00         ........
80005d70: 3d 02 00 00 0d 00 00 00         =.......

0000000080005d78 <.Lanon.a11090c9c1adbee74f138c13592358a0.38>:
80005d78: 0d 5b 6b 65 72 6e 65 6c         .[kernel
80005d80: 5d 20 6a 6f 62 5b c0 06         ] job[..
80005d88: 5d 3a 20 69 64 3d c0 07         ]: id=..
80005d90: 20 63 6c 61 73 73 3d c0          class=.
80005d98: 13 20 63 6f 6d 70 6c 65         . comple
80005da0: 74 65 64 5f 62 79 5f 68         ted_by_h
80005da8: 61 72 74 3d c0 0a 20 63         art=.. c
80005db0: 68 65 63 6b 73 75 6d 3d         hecksum=
80005db8: c1 20 00 80 60 01 0a 00         . ..`...

0000000080005dc0 <.Lanon.a11090c9c1adbee74f138c13592358a0.39>:
80005dc0: 9b 50 00 80 00 00 00 00         .P......
80005dc8: 0b 00 00 00 00 00 00 00         ........
80005dd0: 2f 02 00 00 19 00 00 00         /.......

0000000080005dd8 <.Lanon.a11090c9c1adbee74f138c13592358a0.40>:
80005dd8: 9b 50 00 80 00 00 00 00         .P......
80005de0: 0b 00 00 00 00 00 00 00         ........
80005de8: 30 02 00 00 0d 00 00 00         0.......

0000000080005df0 <.Lanon.a11090c9c1adbee74f138c13592358a0.41>:
80005df0: 9b 50 00 80 00 00 00 00         .P......
80005df8: 0b 00 00 00 00 00 00 00         ........
80005e00: 31 02 00 00 0d 00 00 00         1.......

0000000080005e08 <.Lanon.a11090c9c1adbee74f138c13592358a0.43>:
80005e08: 9b 50 00 80 00 00 00 00         .P......
80005e10: 0b 00 00 00 00 00 00 00         ........
80005e18: 7c 02 00 00 09 00 00 00         |.......

0000000080005e20 <.Lanon.a11090c9c1adbee74f138c13592358a0.44>:
80005e20: 9b 50 00 80 00 00 00 00         .P......
80005e28: 0b 00 00 00 00 00 00 00         ........
80005e30: 82 01 00 00 0f 00 00 00         ........

0000000080005e38 <.Lanon.a11090c9c1adbee74f138c13592358a0.45>:
80005e38: 9b 50 00 80 00 00 00 00         .P......
80005e40: 0b 00 00 00 00 00 00 00         ........
80005e48: 83 01 00 00 17 00 00 00         ........

0000000080005e50 <.Lanon.a11090c9c1adbee74f138c13592358a0.47>:
80005e50: 9b 50 00 80 00 00 00 00         .P......
80005e58: 0b 00 00 00 00 00 00 00         ........
80005e60: 94 01 00 00 1a 00 00 00         ........

0000000080005e68 <.Lanon.a11090c9c1adbee74f138c13592358a0.48>:
80005e68: 9b 50 00 80 00 00 00 00         .P......
80005e70: 0b 00 00 00 00 00 00 00         ........
80005e78: 95 01 00 00 19 00 00 00         ........

0000000080005e80 <.Lanon.a11090c9c1adbee74f138c13592358a0.49>:
80005e80: 9b 50 00 80 00 00 00 00         .P......
80005e88: 0b 00 00 00 00 00 00 00         ........
80005e90: 97 01 00 00 05 00 00 00         ........

0000000080005e98 <.Lanon.a11090c9c1adbee74f138c13592358a0.50>:
80005e98: 9b 50 00 80 00 00 00 00         .P......
80005ea0: 0b 00 00 00 00 00 00 00         ........
80005ea8: 98 01 00 00 05 00 00 00         ........

0000000080005eb0 <.Lanon.a11090c9c1adbee74f138c13592358a0.51>:
80005eb0: 9b 50 00 80 00 00 00 00         .P......
80005eb8: 0b 00 00 00 00 00 00 00         ........
80005ec0: 99 01 00 00 05 00 00 00         ........

0000000080005ec8 <.Lanon.a11090c9c1adbee74f138c13592358a0.52>:
80005ec8: 9b 50 00 80 00 00 00 00         .P......
80005ed0: 0b 00 00 00 00 00 00 00         ........
80005ed8: 9a 01 00 00 05 00 00 00         ........

0000000080005ee0 <.Lanon.a11090c9c1adbee74f138c13592358a0.53>:
80005ee0: 05 5b 68 61 72 74 c0 0f         .[hart..
80005ee8: 5d 20 6a 6f 62 20 64 6f         ] job do
80005ef0: 6e 65 3a 20 69 64 3d c0         ne: id=.
80005ef8: 0a 20 63 68 65 63 6b 73         . checks
80005f00: 75 6d 3d c1 20 00 80 60         um=. ..`
80005f08: 10 20 63 6f 6d 70 6c 65         . comple
80005f10: 74 65 64 5f 6a 6f 62 73         ted_jobs
80005f18: 3d c0 01 2f c0 0f 20 72         =../.. r
80005f20: 75 6e 6e 69 6e 67 5f 61         unning_a
80005f28: 66 74 65 72 3d c0 01 0a         fter=...
80005f30: 00                              .

0000000080005f31 <.Lanon.a11090c9c1adbee74f138c13592358a0.55>:
80005f31: 62 61 74 63 68 5f 63 72         batch_cr
80005f39: 63 5f 61                        c_a

0000000080005f3c <.Lanon.a11090c9c1adbee74f138c13592358a0.56>:
80005f3c: 75 69 5f 72 65 66 72 65         ui_refre
80005f44: 73 68                           sh

0000000080005f46 <.Lanon.a11090c9c1adbee74f138c13592358a0.57>:
80005f46: 62 61 74 63 68 5f 63 72         batch_cr
80005f4e: 63 5f 62                        c_b

0000000080005f51 <.Lanon.a11090c9c1adbee74f138c13592358a0.58>:
80005f51: 70 69 70 65 5f 73 68 65         pipe_she
80005f59: 6c 6c                           ll

0000000080005f5b <.Lanon.a11090c9c1adbee74f138c13592358a0.59>:
80005f5b: 6d 61 74 72 69 78 5f 6d         matrix_m
80005f63: 75 6c                           ul

0000000080005f65 <.Lanon.a11090c9c1adbee74f138c13592358a0.60>:
80005f65: 69 6e 70 75 74 5f 6d 75         input_mu
80005f6d: 78                              x

0000000080005f6e <.Lanon.a11090c9c1adbee74f138c13592358a0.61>:
80005f6e: 6c 6f 67 5f 63 6f 6d 70         log_comp
80005f76: 61 63 74 00 00 00 00 00         act.....
80005f7e: 00 00                           ..

0000000080005f80 <lab5_kernel_task3::JOB_DEFS::h1d20ff2e84994b31>:
80005f80: e0 5a 00 80 00 00 00 00         .Z......
80005f88: 08 00 00 00 00 00 00 00         ........
80005f90: 01 00 00 00 00 00 00 00         ........
80005f98: 00 02 00 00 00 00 00 00         ........
80005fa0: 06 00 00 00 00 00 00 00         ........
80005fa8: 60 6d 00 00 00 00 00 00         `m......
80005fb0: 00 00 00 00 00 00 00 00         ........
80005fb8: 31 5f 00 80 00 00 00 00         1_......
80005fc0: 0b 00 00 00 00 00 00 00         ........
80005fc8: 02 00 00 00 00 00 00 00         ........
80005fd0: 00 10 00 00 00 00 00 00         ........
80005fd8: 01 00 00 00 00 00 00 00         ........
80005fe0: 20 83 0c 00 00 00 00 00          .......
80005fe8: 01 00 00 00 00 00 00 00         ........
80005ff0: 3c 5f 00 80 00 00 00 00         <_......
80005ff8: 0a 00 00 00 00 00 00 00         ........
80006000: 03 00 00 00 00 00 00 00         ........
80006008: 00 03 00 00 00 00 00 00         ........
80006010: 05 00 00 00 00 00 00 00         ........
80006018: d0 84 00 00 00 00 00 00         ........
80006020: 00 00 00 00 00 00 00 00         ........
80006028: 46 5f 00 80 00 00 00 00         F_......
80006030: 0b 00 00 00 00 00 00 00         ........
80006038: 04 00 00 00 00 00 00 00         ........
80006040: 00 0c 00 00 00 00 00 00         ........
80006048: 01 00 00 00 00 00 00 00         ........
80006050: c0 98 0b 00 00 00 00 00         ........
80006058: 01 00 00 00 00 00 00 00         ........
80006060: 51 5f 00 80 00 00 00 00         Q_......
80006068: 0a 00 00 00 00 00 00 00         ........
80006070: 05 00 00 00 00 00 00 00         ........
80006078: 80 02 00 00 00 00 00 00         ........
80006080: 07 00 00 00 00 00 00 00         ........
80006088: 90 65 00 00 00 00 00 00         .e......
80006090: 00 00 00 00 00 00 00 00         ........
80006098: 5b 5f 00 80 00 00 00 00         [_......
800060a0: 0a 00 00 00 00 00 00 00         ........
800060a8: 06 00 00 00 00 00 00 00         ........
800060b0: 00 10 00 00 00 00 00 00         ........
800060b8: 01 00 00 00 00 00 00 00         ........
800060c0: a0 bb 0d 00 00 00 00 00         ........
800060c8: 01 00 00 00 00 00 00 00         ........
800060d0: 65 5f 00 80 00 00 00 00         e_......
800060d8: 09 00 00 00 00 00 00 00         ........
800060e0: 07 00 00 00 00 00 00 00         ........
800060e8: 80 03 00 00 00 00 00 00         ........
800060f0: 06 00 00 00 00 00 00 00         ........
800060f8: 30 75 00 00 00 00 00 00         0u......
80006100: 00 00 00 00 00 00 00 00         ........
80006108: 6e 5f 00 80 00 00 00 00         n_......
80006110: 0b 00 00 00 00 00 00 00         ........
80006118: 08 00 00 00 00 00 00 00         ........
80006120: 00 0e 00 00 00 00 00 00         ........
80006128: 01 00 00 00 00 00 00 00         ........
80006130: 80 6d 0d 00 00 00 00 00         .m......
80006138: 01 00 00 00 00 00 00 00         ........

0000000080006140 <.Lanon.a11090c9c1adbee74f138c13592358a0.62>:
80006140: 69 6e 74 65 72 61 63 74         interact
80006148: 69 76 65                        ive

000000008000614b <.Lanon.a11090c9c1adbee74f138c13592358a0.63>:
8000614b: 63 6f 6d 70 75 74 65 00         compute.
80006153: 00 00 00 00 00                  .....

0000000080006158 <.Lanon.a11090c9c1adbee74f138c13592358a0.64>:
80006158: 9b 50 00 80 00 00 00 00         .P......
80006160: 0b 00 00 00 00 00 00 00         ........
80006168: 4a 00 00 00 0d 00 00 00         J.......

0000000080006170 <.Lanon.a11090c9c1adbee74f138c13592358a0.65>:
80006170: 9b 50 00 80 00 00 00 00         .P......
80006178: 0b 00 00 00 00 00 00 00         ........
80006180: 4b 00 00 00 0d 00 00 00         K.......

0000000080006188 <.Lanon.a11090c9c1adbee74f138c13592358a0.66>:
80006188: 9b 50 00 80 00 00 00 00         .P......
80006190: 0b 00 00 00 00 00 00 00         ........
80006198: 56 00 00 00 1d 00 00 00         V.......

00000000800061a0 <.Lanon.a11090c9c1adbee74f138c13592358a0.67>:
800061a0: 9b 50 00 80 00 00 00 00         .P......
800061a8: 0b 00 00 00 00 00 00 00         ........
800061b0: 57 00 00 00 0d 00 00 00         W.......

00000000800061b8 <.Lanon.a11090c9c1adbee74f138c13592358a0.68>:
800061b8: 9b 50 00 80 00 00 00 00         .P......
800061c0: 0b 00 00 00 00 00 00 00         ........
800061c8: 58 00 00 00 0d 00 00 00         X.......

00000000800061d0 <.Lanon.a11090c9c1adbee74f138c13592358a0.69>:
800061d0: 9b 50 00 80 00 00 00 00         .P......
800061d8: 0b 00 00 00 00 00 00 00         ........
800061e0: fc 01 00 00 09 00 00 00         ........

00000000800061e8 <.Lanon.a11090c9c1adbee74f138c13592358a0.70>:
800061e8: 9b 50 00 80 00 00 00 00         .P......
800061f0: 0b 00 00 00 00 00 00 00         ........
800061f8: a1 02 00 00 24 00 00 00         ....$...

0000000080006200 <.Lanon.a11090c9c1adbee74f138c13592358a0.71>:
80006200: 73 65 63 6f 6e 64 61 72         secondar
80006208: 79                              y

0000000080006209 <.Lanon.a11090c9c1adbee74f138c13592358a0.72>:
80006209: 70 72 69 6d 61 72 79            primary

0000000080006210 <.Lanon.a11090c9c1adbee74f138c13592358a0.73>:
80006210: 05 5b 68 61 72 74 c0 16         .[hart..
80006218: 5d 20 69 6e 69 74 20 63         ] init c
80006220: 6f 6d 70 6c 65 74 65 3a         omplete:
80006228: 20 72 6f 6c 65 3d c0 04          role=..
80006230: 20 73 70 3d c1 20 00 80          sp=. ..
80006238: 60 0d 20 72 65 61 64 79         `. ready
80006240: 5f 68 61 72 74 73 3d c0         _harts=.
80006248: 01 2f c0 01 0a 00               ./....

000000008000624e <.Lanon.a11090c9c1adbee74f138c13592358a0.75>:
8000624e: 05 5b 68 61 72 74 c0 26         .[hart.&
80006256: 5d 20 73 74 61 72 74 20         ] start 
8000625e: 62 61 72 72 69 65 72 20         barrier 
80006266: 72 65 6c 65 61 73 65 64         released
8000626e: 3a 20 72 65 61 64 79 5f         : ready_
80006276: 68 61 72 74 73 3d c0 0d         harts=..
8000627e: 20 62 6f 6f 74 65 64 5f          booted_
80006286: 6d 61 73 6b 3d c1 20 00         mask=. .
8000628e: 80 60 01 0a 00 46 41 49         .`...FAI
80006296: 4c 50 41 53 53 00 00 00         LPASS...
8000629e: 00 00                           ..

00000000800062a0 <.Lanon.a11090c9c1adbee74f138c13592358a0.78>:
800062a0: 9b 50 00 80 00 00 00 00         .P......
800062a8: 0b 00 00 00 00 00 00 00         ........
800062b0: d8 02 00 00 09 00 00 00         ........

00000000800062b8 <.Lanon.a11090c9c1adbee74f138c13592358a0.80>:
800062b8: a7 50 00 80 00 00 00 00         .P......
800062c0: 4b 00 00 00 00 00 00 00         K.......
800062c8: bc 02 00 00 09 00 00 00         ........

00000000800062d0 <.Lanon.a11090c9c1adbee74f138c13592358a0.81>:
800062d0: 5b 6b 65 72 6e 65 6c 5d         [kernel]
800062d8: 20 62 6f 6f 74 65 64 20          booted 
800062e0: 69 6e 20 4d 2d 6d 6f 64         in M-mod
800062e8: 65 0a                           e.

00000000800062ea <.Lanon.a11090c9c1adbee74f138c13592358a0.82>:
800062ea: 5b 6b 65 72 6e 65 6c 5d         [kernel]
800062f2: 20 4c 41 42 35 20 6b 65          LAB5 ke
800062fa: 72 6e 65 6c 20 74 61 73         rnel tas
80006302: 6b 33 20 53 4d 50 20 77         k3 SMP w
8000630a: 6f 72 6b 2d 71 75 65 75         ork-queu
80006312: 65 20 73 63 68 65 64 75         e schedu
8000631a: 6c 65 72 0a                     ler.

000000008000631e <.Lanon.a11090c9c1adbee74f138c13592358a0.85>:
8000631e: 5b 6b 65 72 6e 65 6c 5d         [kernel]
80006326: 20 73 79 6e 63 68 72 6f          synchro
8000632e: 6e 69 7a 61 74 69 6f 6e         nization
80006336: 3a 20 72 75 6e 5f 71 75         : run_qu
8000633e: 65 75 65 20 61 6e 64 20         eue and 
80006346: 62 75 6d 70 5f 61 6c 6c         bump_all
8000634e: 6f 63 61 74 6f 72 20 61         ocator a
80006356: 72 65 20 70 72 6f 74 65         re prote
8000635e: 63 74 65 64 20 62 79 20         cted by 
80006366: 73 70 69 6e 6c 6f 63 6b         spinlock
8000636e: 73 0a                           s.

0000000080006370 <.Lanon.a11090c9c1adbee74f138c13592358a0.86>:
80006370: 9b 50 00 80 00 00 00 00         .P......
80006378: 0b 00 00 00 00 00 00 00         ........
80006380: ff 00 00 00 13 00 00 00         ........

0000000080006388 <.Lanon.6014aacb2ce78aef3668d948b5ac55d3.1>:
80006388: 10 55 00 80 00 00 00 00         .U......
80006390: 4d 00 00 00 00 00 00 00         M.......
80006398: 94 00 00 00 36 00 00 00         ....6...

00000000800063a0 <.Lanon.6014aacb2ce78aef3668d948b5ac55d3.2>:
800063a0: 75 6e 73 61 66 65 20 70         unsafe p
800063a8: 72 65 63 6f 6e 64 69 74         recondit
800063b0: 69 6f 6e 28 73 29 20 76         ion(s) v
800063b8: 69 6f 6c 61 74 65 64 3a         iolated:
800063c0: 20 73 6c 69 63 65 3a 3a          slice::
800063c8: 66 72 6f 6d 5f 72 61 77         from_raw
800063d0: 5f 70 61 72 74 73 20 72         _parts r
800063d8: 65 71 75 69 72 65 73 20         equires 
800063e0: 74 68 65 20 70 6f 69 6e         the poin
800063e8: 74 65 72 20 74 6f 20 62         ter to b
800063f0: 65 20 61 6c 69 67 6e 65         e aligne
800063f8: 64 20 61 6e 64 20 6e 6f         d and no
80006400: 6e 2d 6e 75 6c 6c 2c 20         n-null, 
80006408: 61 6e 64 20 74 68 65 20         and the 
80006410: 74 6f 74 61 6c 20 73 69         total si
80006418: 7a 65 20 6f 66 20 74 68         ze of th
80006420: 65 20 73 6c 69 63 65 20         e slice 
80006428: 6e 6f 74 20 74 6f 20 65         not to e
80006430: 78 63 65 65 64 20 60 69         xceed `i
80006438: 73 69 7a 65 3a 3a 4d 41         size::MA
80006440: 58 60 0a 0a 54 68 69 73         X`..This
80006448: 20 69 6e 64 69 63 61 74          indicat
80006450: 65 73 20 61 20 62 75 67         es a bug
80006458: 20 69 6e 20 74 68 65 20          in the 
80006460: 70 72 6f 67 72 61 6d 2e         program.
80006468: 20 54 68 69 73 20 55 6e          This Un
80006470: 64 65 66 69 6e 65 64 20         defined 
80006478: 42 65 68 61 76 69 6f 72         Behavior
80006480: 20 63 68 65 63 6b 20 69          check i
80006488: 73 20 6f 70 74 69 6f 6e         s option
80006490: 61 6c 2c 20 61 6e 64 20         al, and 
80006498: 63 61 6e 6e 6f 74 20 62         cannot b
800064a0: 65 20 72 65 6c 69 65 64         e relied
800064a8: 20 6f 6e 20 66 6f 72 20          on for 
800064b0: 73 61 66 65 74 79 2e            safety.

00000000800064b7 <.Lanon.6014aacb2ce78aef3668d948b5ac55d3.3>:
800064b7: 75 6e 73 61 66 65 20 70         unsafe p
800064bf: 72 65 63 6f 6e 64 69 74         recondit
800064c7: 69 6f 6e 28 73 29 20 76         ion(s) v
800064cf: 69 6f 6c 61 74 65 64 3a         iolated:
800064d7: 20 73 6c 69 63 65 3a 3a          slice::
800064df: 66 72 6f 6d 5f 72 61 77         from_raw
800064e7: 5f 70 61 72 74 73 5f 6d         _parts_m
800064ef: 75 74 20 72 65 71 75 69         ut requi
800064f7: 72 65 73 20 74 68 65 20         res the 
800064ff: 70 6f 69 6e 74 65 72 20         pointer 
80006507: 74 6f 20 62 65 20 61 6c         to be al
8000650f: 69 67 6e 65 64 20 61 6e         igned an
80006517: 64 20 6e 6f 6e 2d 6e 75         d non-nu
8000651f: 6c 6c 2c 20 61 6e 64 20         ll, and 
80006527: 74 68 65 20 74 6f 74 61         the tota
8000652f: 6c 20 73 69 7a 65 20 6f         l size o
80006537: 66 20 74 68 65 20 73 6c         f the sl
8000653f: 69 63 65 20 6e 6f 74 20         ice not 
80006547: 74 6f 20 65 78 63 65 65         to excee
8000654f: 64 20 60 69 73 69 7a 65         d `isize
80006557: 3a 3a 4d 41 58 60 0a 0a         ::MAX`..
8000655f: 54 68 69 73 20 69 6e 64         This ind
80006567: 69 63 61 74 65 73 20 61         icates a
8000656f: 20 62 75 67 20 69 6e 20          bug in 
80006577: 74 68 65 20 70 72 6f 67         the prog
8000657f: 72 61 6d 2e 20 54 68 69         ram. Thi
80006587: 73 20 55 6e 64 65 66 69         s Undefi
8000658f: 6e 65 64 20 42 65 68 61         ned Beha
80006597: 76 69 6f 72 20 63 68 65         vior che
8000659f: 63 6b 20 69 73 20 6f 70         ck is op
800065a7: 74 69 6f 6e 61 6c 2c 20         tional, 
800065af: 61 6e 64 20 63 61 6e 6e         and cann
800065b7: 6f 74 20 62 65 20 72 65         ot be re
800065bf: 6c 69 65 64 20 6f 6e 20         lied on 
800065c7: 66 6f 72 20 73 61 66 65         for safe
800065cf: 74 79 2e 00 00 00 00 00         ty......
800065d7: 00                              .

00000000800065d8 <.Lanon.65b62b9f5c6fd5213360537833951764.1>:
800065d8: 75 54 00 80 00 00 00 00         uT......
800065e0: 4e 00 00 00 00 00 00 00         N.......
800065e8: b2 01 00 00 01 00 00 00         ........

00000000800065f0 <.Lanon.a0ba4ce11808d3abc21e05aedc87738f.0>:
800065f0: 69 73 5f 61 6c 69 67 6e         is_align
800065f8: 65 64 5f 74 6f 3a 20 61         ed_to: a
80006600: 6c 69 67 6e 20 69 73 20         lign is 
80006608: 6e 6f 74 20 61 20 70 6f         not a po
80006610: 77 65 72 2d 6f 66 2d 74         wer-of-t
80006618: 77 6f 00 00 00 00 00 00         wo......

0000000080006620 <.Lanon.a0ba4ce11808d3abc21e05aedc87738f.2>:
80006620: 2f 56 00 80 00 00 00 00         /V......
80006628: 51 00 00 00 00 00 00 00         Q.......
80006630: 5e 05 00 00 0d 00 00 00         ^.......

0000000080006638 <.Lanon.4f618180d43e7078016c5d8f188b5fed.1>:
80006638: 34 52 00 80 00 00 00 00         4R......
80006640: 50 00 00 00 00 00 00 00         P.......
80006648: 62 07 00 00 0e 00 00 00         b.......

0000000080006650 <.Lanon.4f618180d43e7078016c5d8f188b5fed.2>:
80006650: 34 52 00 80 00 00 00 00         4R......
80006658: 50 00 00 00 00 00 00 00         P.......
80006660: 55 07 00 00 09 00 00 00         U.......

0000000080006668 <.Lanon.4f618180d43e7078016c5d8f188b5fed.3>:
80006668: 12 65 6e 63 6f 64 65 5f         .encode_
80006670: 75 74 66 38 3a 20 6e 65         utf8: ne
80006678: 65 64 20 c0 13 20 62 79         ed .. by
80006680: 74 65 73 20 74 6f 20 65         tes to e
80006688: 6e 63 6f 64 65 20 55 2b         ncode U+
80006690: c3 20 00 00 69 04 00 15         . ..i...
80006698: 20 62 75 74 20 62 75 66          but buf
800066a0: 66 65 72 20 68 61 73 20         fer has 
800066a8: 6a 75 73 74 20 c0 00 00         just ...

00000000800066b0 <.LJTI3_0>:
800066b0: 326c         	fld	fa1, 0xe0(a2)
800066b2: 8000         	<unknown>
800066b4: 0000         	unimp
800066b6: 0000         	unimp
800066b8: 3290         	fld	fa2, 0x20(a3)
800066ba: 8000         	<unknown>
800066bc: 0000         	unimp
800066be: 0000         	unimp
800066c0: 32b4         	fld	fa3, 0x60(a3)
800066c2: 8000         	<unknown>
800066c4: 0000         	unimp
800066c6: 0000         	unimp
800066c8: 32d8         	fld	fa4, 0xa0(a3)
800066ca: 8000         	<unknown>
800066cc: 0000         	unimp
800066ce: 0000         	unimp
800066d0: 32fc         	fld	fa5, 0xe0(a3)
800066d2: 8000         	<unknown>
800066d4: 0000         	unimp
800066d6: 0000         	unimp

00000000800066d8 <.LJTI3_1>:
800066d8: 3336         	fld	ft6, 0x168(sp)
800066da: 8000         	<unknown>
800066dc: 0000         	unimp
800066de: 0000         	unimp
800066e0: 3354         	fld	fa3, 0xa0(a4)
800066e2: 8000         	<unknown>
800066e4: 0000         	unimp
800066e6: 0000         	unimp
800066e8: 3372         	fld	ft6, 0x138(sp)
800066ea: 8000         	<unknown>
800066ec: 0000         	unimp
800066ee: 0000         	unimp
800066f0: 3390         	fld	fa2, 0x20(a5)
800066f2: 8000         	<unknown>
800066f4: 0000         	unimp
800066f6: 0000         	unimp
800066f8: 33ae         	fld	ft7, 0xe8(sp)
800066fa: 8000         	<unknown>
800066fc: 0000         	unimp
800066fe: 0000         	unimp

0000000080006700 <.LJTI7_0>:
80006700: 3450         	fld	fa2, 0xa8(s0)
80006702: 8000         	<unknown>
80006704: 0000         	unimp
80006706: 0000         	unimp
80006708: 345c         	fld	fa5, 0xa8(s0)
8000670a: 8000         	<unknown>
8000670c: 0000         	unimp
8000670e: 0000         	unimp
80006710: 3468         	fld	fa0, 0xe8(s0)
80006712: 8000         	<unknown>
80006714: 0000         	unimp
80006716: 0000         	unimp
80006718: 3474         	fld	fa3, 0xe8(s0)
8000671a: 8000         	<unknown>
8000671c: 0000         	unimp
8000671e: 0000         	unimp
80006720: 3480         	fld	fs0, 0x28(s1)
80006722: 8000         	<unknown>
80006724: 0000         	unimp
80006726: 0000         	unimp

0000000080006728 <.LJTI8_0>:
80006728: 34ba         	fld	fs1, 0x1a8(sp)
8000672a: 8000         	<unknown>
8000672c: 0000         	unimp
8000672e: 0000         	unimp
80006730: 34c6         	fld	fs1, 0x70(sp)
80006732: 8000         	<unknown>
80006734: 0000         	unimp
80006736: 0000         	unimp
80006738: 34d2         	fld	fs1, 0x130(sp)
8000673a: 8000         	<unknown>
8000673c: 0000         	unimp
8000673e: 0000         	unimp
80006740: 34de         	fld	fs1, 0x1f0(sp)
80006742: 8000         	<unknown>
80006744: 0000         	unimp
80006746: 0000         	unimp
80006748: 34ea         	fld	fs1, 0xb8(sp)
8000674a: 8000         	<unknown>
8000674c: 0000         	unimp
8000674e: 0000         	unimp

0000000080006750 <.LJTI9_0>:
80006750: 351a         	fld	fa0, 0x1a0(sp)
80006752: 8000         	<unknown>
80006754: 0000         	unimp
80006756: 0000         	unimp
80006758: 353e         	fld	fa0, 0x1e8(sp)
8000675a: 8000         	<unknown>
8000675c: 0000         	unimp
8000675e: 0000         	unimp
80006760: 3544         	fld	fs1, 0xa8(a0)
80006762: 8000         	<unknown>
80006764: 0000         	unimp
80006766: 0000         	unimp
80006768: 354a         	fld	fa0, 0xb0(sp)
8000676a: 8000         	<unknown>
8000676c: 0000         	unimp
8000676e: 0000         	unimp
80006770: 3550         	fld	fa2, 0xa8(a0)
80006772: 8000         	<unknown>
80006774: 0000         	unimp
80006776: 0000         	unimp

0000000080006778 <.LJTI13_0>:
80006778: 35d4         	fld	fa3, 0xa8(a1)
8000677a: 8000         	<unknown>
8000677c: 0000         	unimp
8000677e: 0000         	unimp
80006780: 35e0         	fld	fs0, 0xe8(a1)
80006782: 8000         	<unknown>
80006784: 0000         	unimp
80006786: 0000         	unimp
80006788: 35ec         	fld	fa1, 0xe8(a1)
8000678a: 8000         	<unknown>
8000678c: 0000         	unimp
8000678e: 0000         	unimp
80006790: 35f8         	fld	fa4, 0xe8(a1)
80006792: 8000         	<unknown>
80006794: 0000         	unimp
80006796: 0000         	unimp
80006798: 3604         	fld	fs1, 0x28(a2)
8000679a: 8000         	<unknown>
8000679c: 0000         	unimp
8000679e: 0000         	unimp

00000000800067a0 <.LJTI14_0>:
800067a0: 363e         	fld	fa2, 0x1e8(sp)
800067a2: 8000         	<unknown>
800067a4: 0000         	unimp
800067a6: 0000         	unimp
800067a8: 364e         	fld	fa2, 0xf0(sp)
800067aa: 8000         	<unknown>
800067ac: 0000         	unimp
800067ae: 0000         	unimp
800067b0: 365e         	fld	fa2, 0x1f0(sp)
800067b2: 8000         	<unknown>
800067b4: 0000         	unimp
800067b6: 0000         	unimp
800067b8: 366e         	fld	fa2, 0xf8(sp)
800067ba: 8000         	<unknown>
800067bc: 0000         	unimp
800067be: 0000         	unimp
800067c0: 367e         	fld	fa2, 0x1f8(sp)
800067c2: 8000         	<unknown>
800067c4: 0000         	unimp
800067c6: 0000         	unimp

00000000800067c8 <.Lanon.dc6b901af1efed800d3b60f5f4400190.0>:
800067c8: 74 68 65 72 65 20 69 73         there is
800067d0: 20 6e 6f 20 73 75 63 68          no such
800067d8: 20 74 68 69 6e 67 20 61          thing a
800067e0: 73 20 61 6e 20 61 63 71         s an acq
800067e8: 75 69 72 65 2d 72 65 6c         uire-rel
800067f0: 65 61 73 65 20 66 61 69         ease fai
800067f8: 6c 75 72 65 20 6f 72 64         lure ord
80006800: 65 72 69 6e 67 00 00 00         ering...

0000000080006808 <.Lanon.dc6b901af1efed800d3b60f5f4400190.2>:
80006808: 5e 55 00 80 00 00 00 00         ^U......
80006810: 4f 00 00 00 00 00 00 00         O.......
80006818: a4 03 00 00 15 00 00 00         ........

0000000080006820 <.Lanon.dc6b901af1efed800d3b60f5f4400190.3>:
80006820: 74 68 65 72 65 20 69 73         there is
80006828: 20 6e 6f 20 73 75 63 68          no such
80006830: 20 74 68 69 6e 67 20 61          thing a
80006838: 73 20 61 20 72 65 6c 65         s a rele
80006840: 61 73 65 20 66 61 69 6c         ase fail
80006848: 75 72 65 20 6f 72 64 65         ure orde
80006850: 72 69 6e 67 00 00 00 00         ring....

0000000080006858 <.Lanon.dc6b901af1efed800d3b60f5f4400190.4>:
80006858: 5e 55 00 80 00 00 00 00         ^U......
80006860: 4f 00 00 00 00 00 00 00         O.......
80006868: aa 03 00 00 21 00 00 00         ....!...

0000000080006870 <.Lanon.dc6b901af1efed800d3b60f5f4400190.5>:
80006870: 74 68 65 72 65 20 69 73         there is
80006878: 20 6e 6f 20 73 75 63 68          no such
80006880: 20 74 68 69 6e 67 20 61          thing a
80006888: 73 20 61 20 72 65 6c 61         s a rela
80006890: 78 65 64 20 66 65 6e 63         xed fenc
80006898: 65 00 00 00 00 00 00 00         e.......

00000000800068a0 <.Lanon.dc6b901af1efed800d3b60f5f4400190.6>:
800068a0: 5e 55 00 80 00 00 00 00         ^U......
800068a8: 4f 00 00 00 00 00 00 00         O.......
800068b0: a2 11 00 00 18 00 00 00         ........

00000000800068b8 <.LJTI0_0>:
800068b8: 36b6         	fld	fa3, 0x168(sp)
800068ba: 8000         	<unknown>
800068bc: 0000         	unimp
800068be: 0000         	unimp
800068c0: 36c2         	fld	fa3, 0x30(sp)
800068c2: 8000         	<unknown>
800068c4: 0000         	unimp
800068c6: 0000         	unimp
800068c8: 36e6         	fld	fa3, 0x78(sp)
800068ca: 8000         	<unknown>
800068cc: 0000         	unimp
800068ce: 0000         	unimp
800068d0: 36f6         	fld	fa3, 0x178(sp)
800068d2: 8000         	<unknown>
800068d4: 0000         	unimp
800068d6: 0000         	unimp
800068d8: 371a         	fld	fa4, 0x1a0(sp)
800068da: 8000         	<unknown>
800068dc: 0000         	unimp
800068de: 0000         	unimp

00000000800068e0 <.LJTI1_0>:
800068e0: 3758         	fld	fa4, 0xa8(a4)
800068e2: 8000         	<unknown>
800068e4: 0000         	unimp
800068e6: 0000         	unimp
800068e8: 3760         	fld	fs0, 0xe8(a4)
800068ea: 8000         	<unknown>
800068ec: 0000         	unimp
800068ee: 0000         	unimp
800068f0: 3784         	fld	fs1, 0x28(a5)
800068f2: 8000         	<unknown>
800068f4: 0000         	unimp
800068f6: 0000         	unimp
800068f8: 3790         	fld	fa2, 0x28(a5)
800068fa: 8000         	<unknown>
800068fc: 0000         	unimp
800068fe: 0000         	unimp
80006900: 37b4         	fld	fa3, 0x68(a5)
80006902: 8000         	<unknown>
80006904: 0000         	unimp
80006906: 0000         	unimp

0000000080006908 <.LJTI2_0>:
80006908: 37ec         	fld	fa1, 0xe8(a5)
8000690a: 8000         	<unknown>
8000690c: 0000         	unimp
8000690e: 0000         	unimp
80006910: 37f4         	fld	fa3, 0xe8(a5)
80006912: 8000         	<unknown>
80006914: 0000         	unimp
80006916: 0000         	unimp
80006918: 3818         	fld	fa4, 0x30(s0)
8000691a: 8000         	<unknown>
8000691c: 0000         	unimp
8000691e: 0000         	unimp
80006920: 3824         	fld	fs1, 0x70(s0)
80006922: 8000         	<unknown>
80006924: 0000         	unimp
80006926: 0000         	unimp
80006928: 3848         	fld	fa0, 0xb0(s0)
8000692a: 8000         	<unknown>
8000692c: 0000         	unimp
8000692e: 0000         	unimp

0000000080006930 <.LJTI3_0>:
80006930: 3888         	fld	fa0, 0x30(s1)
80006932: 8000         	<unknown>
80006934: 0000         	unimp
80006936: 0000         	unimp
80006938: 3892         	fld	fa7, 0x120(sp)
8000693a: 8000         	<unknown>
8000693c: 0000         	unimp
8000693e: 0000         	unimp
80006940: 38a0         	fld	fs0, 0x70(s1)
80006942: 8000         	<unknown>
80006944: 0000         	unimp
80006946: 0000         	unimp
80006948: 38c4         	fld	fs1, 0xb0(s1)
8000694a: 8000         	<unknown>
8000694c: 0000         	unimp
8000694e: 0000         	unimp
80006950: 38e8         	fld	fa0, 0xf0(s1)
80006952: 8000         	<unknown>
80006954: 0000         	unimp
80006956: 0000         	unimp

0000000080006958 <.LJTI4_0>:
80006958: 3924         	fld	fs1, 0x70(a0)
8000695a: 8000         	<unknown>
8000695c: 0000         	unimp
8000695e: 0000         	unimp
80006960: 392c         	fld	fa1, 0x70(a0)
80006962: 8000         	<unknown>
80006964: 0000         	unimp
80006966: 0000         	unimp
80006968: 3938         	fld	fa4, 0x70(a0)
8000696a: 8000         	<unknown>
8000696c: 0000         	unimp
8000696e: 0000         	unimp
80006970: 395c         	fld	fa5, 0xb0(a0)
80006972: 8000         	<unknown>
80006974: 0000         	unimp
80006976: 0000         	unimp
80006978: 3980         	fld	fs0, 0x30(a1)
8000697a: 8000         	<unknown>
8000697c: 0000         	unimp
8000697e: 0000         	unimp

0000000080006980 <.LJTI5_0>:
80006980: 39ba         	fld	fs3, 0x1a8(sp)
80006982: 8000         	<unknown>
80006984: 0000         	unimp
80006986: 0000         	unimp
80006988: 39c2         	fld	fs3, 0x30(sp)
8000698a: 8000         	<unknown>
8000698c: 0000         	unimp
8000698e: 0000         	unimp
80006990: 39ce         	fld	fs3, 0xf0(sp)
80006992: 8000         	<unknown>
80006994: 0000         	unimp
80006996: 0000         	unimp
80006998: 39f2         	fld	fs3, 0x138(sp)
8000699a: 8000         	<unknown>
8000699c: 0000         	unimp
8000699e: 0000         	unimp
800069a0: 3a16         	fld	fs4, 0x160(sp)
800069a2: 8000         	<unknown>
800069a4: 0000         	unimp
800069a6: 0000         	unimp

00000000800069a8 <.LJTI6_0>:
800069a8: 3a5c         	fld	fa5, 0xb0(a2)
800069aa: 8000         	<unknown>
800069ac: 0000         	unimp
800069ae: 0000         	unimp
800069b0: 3a7c         	fld	fa5, 0xf0(a2)
800069b2: 8000         	<unknown>
800069b4: 0000         	unimp
800069b6: 0000         	unimp
800069b8: 3a9e         	fld	fs5, 0x1e0(sp)
800069ba: 8000         	<unknown>
800069bc: 0000         	unimp
800069be: 0000         	unimp
800069c0: 3ac0         	fld	fs0, 0xb0(a3)
800069c2: 8000         	<unknown>
800069c4: 0000         	unimp
800069c6: 0000         	unimp
800069c8: 3ae2         	fld	fs5, 0x38(sp)
800069ca: 8000         	<unknown>
800069cc: 0000         	unimp
800069ce: 0000         	unimp

00000000800069d0 <.Lanon.3519e852b2e4c11b9d027a7cdb725722.0>:
800069d0: 74 68 65 72 65 20 69 73         there is
800069d8: 20 6e 6f 20 73 75 63 68          no such
800069e0: 20 74 68 69 6e 67 20 61          thing a
800069e8: 73 20 61 20 72 65 6c 65         s a rele
800069f0: 61 73 65 20 6c 6f 61 64         ase load

00000000800069f8 <.Lanon.3519e852b2e4c11b9d027a7cdb725722.2>:
800069f8: 5e 55 00 80 00 00 00 00         ^U......
80006a00: 4f 00 00 00 00 00 00 00         O.......
80006a08: be 0f 00 00 18 00 00 00         ........

0000000080006a10 <.Lanon.3519e852b2e4c11b9d027a7cdb725722.3>:
80006a10: 74 68 65 72 65 20 69 73         there is
80006a18: 20 6e 6f 20 73 75 63 68          no such
80006a20: 20 74 68 69 6e 67 20 61          thing a
80006a28: 73 20 61 6e 20 61 63 71         s an acq
80006a30: 75 69 72 65 2d 72 65 6c         uire-rel
80006a38: 65 61 73 65 20 6c 6f 61         ease loa
80006a40: 64 00 00 00 00 00 00 00         d.......

0000000080006a48 <.Lanon.3519e852b2e4c11b9d027a7cdb725722.4>:
80006a48: 5e 55 00 80 00 00 00 00         ^U......
80006a50: 4f 00 00 00 00 00 00 00         O.......
80006a58: bf 0f 00 00 17 00 00 00         ........

0000000080006a60 <.Lanon.3519e852b2e4c11b9d027a7cdb725722.5>:
80006a60: 74 68 65 72 65 20 69 73         there is
80006a68: 20 6e 6f 20 73 75 63 68          no such
80006a70: 20 74 68 69 6e 67 20 61          thing a
80006a78: 73 20 61 6e 20 61 63 71         s an acq
80006a80: 75 69 72 65 20 73 74 6f         uire sto
80006a88: 72 65 00 00 00 00 00 00         re......

0000000080006a90 <.Lanon.3519e852b2e4c11b9d027a7cdb725722.6>:
80006a90: 5e 55 00 80 00 00 00 00         ^U......
80006a98: 4f 00 00 00 00 00 00 00         O.......
80006aa0: af 0f 00 00 18 00 00 00         ........

0000000080006aa8 <.Lanon.3519e852b2e4c11b9d027a7cdb725722.7>:
80006aa8: 74 68 65 72 65 20 69 73         there is
80006ab0: 20 6e 6f 20 73 75 63 68          no such
80006ab8: 20 74 68 69 6e 67 20 61          thing a
80006ac0: 73 20 61 6e 20 61 63 71         s an acq
80006ac8: 75 69 72 65 2d 72 65 6c         uire-rel
80006ad0: 65 61 73 65 20 73 74 6f         ease sto
80006ad8: 72 65 00 00 00 00 00 00         re......

0000000080006ae0 <.Lanon.3519e852b2e4c11b9d027a7cdb725722.8>:
80006ae0: 5e 55 00 80 00 00 00 00         ^U......
80006ae8: 4f 00 00 00 00 00 00 00         O.......
80006af0: b0 0f 00 00 17 00 00 00         ........

0000000080006af8 <.Lanon.3519e852b2e4c11b9d027a7cdb725722.9>:
80006af8: 74 68 65 72 65 20 69 73         there is
80006b00: 20 6e 6f 20 73 75 63 68          no such
80006b08: 20 74 68 69 6e 67 20 61          thing a
80006b10: 73 20 61 20 72 65 6c 65         s a rele
80006b18: 61 73 65 20 66 61 69 6c         ase fail
80006b20: 75 72 65 20 6f 72 64 65         ure orde
80006b28: 72 69 6e 67 00 00 00 00         ring....

0000000080006b30 <.Lanon.3519e852b2e4c11b9d027a7cdb725722.10>:
80006b30: 5e 55 00 80 00 00 00 00         ^U......
80006b38: 4f 00 00 00 00 00 00 00         O.......
80006b40: 75 10 00 00 1d 00 00 00         u.......

0000000080006b48 <.Lanon.3519e852b2e4c11b9d027a7cdb725722.11>:
80006b48: 74 68 65 72 65 20 69 73         there is
80006b50: 20 6e 6f 20 73 75 63 68          no such
80006b58: 20 74 68 69 6e 67 20 61          thing a
80006b60: 73 20 61 6e 20 61 63 71         s an acq
80006b68: 75 69 72 65 2d 72 65 6c         uire-rel
80006b70: 65 61 73 65 20 66 61 69         ease fai
80006b78: 6c 75 72 65 20 6f 72 64         lure ord
80006b80: 65 72 69 6e 67 00 00 00         ering...

0000000080006b88 <.Lanon.3519e852b2e4c11b9d027a7cdb725722.12>:
80006b88: 5e 55 00 80 00 00 00 00         ^U......
80006b90: 4f 00 00 00 00 00 00 00         O.......
80006b98: 74 10 00 00 1c 00 00 00         t.......

0000000080006ba0 <.Lanon.b2f0af0b8959e1b84e061c568608d11f.0>:
80006ba0: 00 00 00 00 00 00 00 00         ........
80006ba8: 00 00 00 00 00 00 00 00         ........
80006bb0: 01 00 00 00 00 00 00 00         ........
80006bb8: c6 00 00 80 00 00 00 00         ........
80006bc0: 60 3e 00 80 00 00 00 00         `>......
80006bc8: a0 3e 00 80 00 00 00 00         .>......

0000000080006bd0 <.Lanon.536f2323b683c81b361b85010efd6979.10>:
80006bd0: 30 30 30 31 30 32 30 33         00010203
80006bd8: 30 34 30 35 30 36 30 37         04050607
80006be0: 30 38 30 39 31 30 31 31         08091011
80006be8: 31 32 31 33 31 34 31 35         12131415
80006bf0: 31 36 31 37 31 38 31 39         16171819
80006bf8: 32 30 32 31 32 32 32 33         20212223
80006c00: 32 34 32 35 32 36 32 37         24252627
80006c08: 32 38 32 39 33 30 33 31         28293031
80006c10: 33 32 33 33 33 34 33 35         32333435
80006c18: 33 36 33 37 33 38 33 39         36373839
80006c20: 34 30 34 31 34 32 34 33         40414243
80006c28: 34 34 34 35 34 36 34 37         44454647
80006c30: 34 38 34 39 35 30 35 31         48495051
80006c38: 35 32 35 33 35 34 35 35         52535455
80006c40: 35 36 35 37 35 38 35 39         56575859
80006c48: 36 30 36 31 36 32 36 33         60616263
80006c50: 36 34 36 35 36 36 36 37         64656667
80006c58: 36 38 36 39 37 30 37 31         68697071
80006c60: 37 32 37 33 37 34 37 35         72737475
80006c68: 37 36 37 37 37 38 37 39         76777879
80006c70: 38 30 38 31 38 32 38 33         80818283
80006c78: 38 34 38 35 38 36 38 37         84858687
80006c80: 38 38 38 39 39 30 39 31         88899091
80006c88: 39 32 39 33 39 34 39 35         92939495
80006c90: 39 36 39 37 39 38 39 39         96979899

0000000080006c98 <.Lanon.536f2323b683c81b361b85010efd6979.22>:
80006c98: c4 54 00 80 00 00 00 00         .T......
80006ca0: 4b 00 00 00 00 00 00 00         K.......
80006ca8: 57 02 00 00 05 00 00 00         W.......

0000000080006cb0 <.Lanon.536f2323b683c81b361b85010efd6979.31>:
80006cb0: 30 78                           0x

0000000080006cb2 <.Lanon.536f2323b683c81b361b85010efd6979.80>:
80006cb2: 61 74 74 65 6d 70 74 20         attempt 
80006cba: 74 6f 20 61 64 64 20 77         to add w
80006cc2: 69 74 68 20 6f 76 65 72         ith over
80006cca: 66 6c 6f 77                     flow

0000000080006cce <.Lanon.536f2323b683c81b361b85010efd6979.85>:
80006cce: 61 74 74 65 6d 70 74 20         attempt 
80006cd6: 74 6f 20 73 68 69 66 74         to shift
80006cde: 20 6c 65 66 74 20 77 69          left wi
80006ce6: 74 68 20 6f 76 65 72 66         th overf
80006cee: 6c 6f 77                        low

0000000080006cf1 <.Lanon.536f2323b683c81b361b85010efd6979.87>:
80006cf1: 61 74 74 65 6d 70 74 20         attempt 
80006cf9: 74 6f 20 73 75 62 74 72         to subtr
80006d01: 61 63 74 20 77 69 74 68         act with
80006d09: 20 6f 76 65 72 66 6c 6f          overflo
80006d11: 77                              w

0000000080006d12 <.Lanon.536f2323b683c81b361b85010efd6979.259>:
80006d12: 61 74 74 65 6d 70 74 20         attempt 
80006d1a: 74 6f 20 64 69 76 69 64         to divid
80006d22: 65 20 62 79 20 7a 65 72         e by zer
80006d2a: 6f                              o

0000000080006d2b <.Lanon.536f2323b683c81b361b85010efd6979.288>:
80006d2b: 6e 75 6c 6c 20 70 6f 69         null poi
80006d33: 6e 74 65 72 20 64 65 72         nter der
80006d3b: 65 66 65 72 65 6e 63 65         eference
80006d43: 20 6f 63 63 75 72 72 65          occurre
80006d4b: 64                              d

0000000080006d4c <.Lanon.536f2323b683c81b361b85010efd6979.290>:
80006d4c: 3e 6d 69 73 61 6c 69 67         >misalig
80006d54: 6e 65 64 20 70 6f 69 6e         ned poin
80006d5c: 74 65 72 20 64 65 72 65         ter dere
80006d64: 66 65 72 65 6e 63 65 3a         ference:
80006d6c: 20 61 64 64 72 65 73 73          address
80006d74: 20 6d 75 73 74 20 62 65          must be
80006d7c: 20 61 20 6d 75 6c 74 69          a multi
80006d84: 70 6c 65 20 6f 66 20 c1         ple of .
80006d8c: 20 00 80 60 08 20 62 75          ..`. bu
80006d94: 74 20 69 73 20 c1 20 00         t is . .
80006d9c: 80 60 00                        .`.

0000000080006d9f <.Lanon.536f2323b683c81b361b85010efd6979.399>:
80006d9f: 70 61 6e 69 63 6b 65 64         panicked
80006da7: 20 61 74 20                      at 

0000000080006dab <.Lanon.536f2323b683c81b361b85010efd6979.400>:
80006dab: 3a 0a                           :.
