    Finished `dev` profile [unoptimized + debuginfo] target(s) in 0.01s

lab4_kernel_task3:	file format elf64-littleriscv

Disassembly of section .text:

0000000080000000 <_start>:
80000000: 00023117     	auipc	sp, 0x23
80000004: 05010113     	addi	sp, sp, 0x50
80000008: 00005097     	auipc	ra, 0x5
8000000c: 5dc080e7     	jalr	0x5dc(ra) <start_machine>
80000010: a001         	j	0x80000010 <_start+0x10>

0000000080000012 <_$LT$usize$u20$as$u20$core..iter..range..Step$GT$::forward_unchecked::h8746f9d20fad25ba>:
80000012: 7179         	addi	sp, sp, -0x30
80000014: f406         	sd	ra, 0x28(sp)
80000016: e42e         	sd	a1, 0x8(sp)
80000018: e82a         	sd	a0, 0x10(sp)
8000001a: ec2a         	sd	a0, 0x18(sp)
8000001c: f02e         	sd	a1, 0x20(sp)
8000001e: a009         	j	0x80000020 <_$LT$usize$u20$as$u20$core..iter..range..Step$GT$::forward_unchecked::h8746f9d20fad25ba+0xe>
80000020: 65a2         	ld	a1, 0x8(sp)
80000022: 6542         	ld	a0, 0x10(sp)

0000000080000024 <.Lpcrel_hi0>:
80000024: 00007617     	auipc	a2, 0x7
80000028: 4bc60613     	addi	a2, a2, 0x4bc
8000002c: 00000097     	auipc	ra, 0x0
80000030: 39c080e7     	jalr	0x39c(ra) <core::num::_$LT$impl$u20$usize$GT$::unchecked_add::precondition_check::h576648fa36372982>
80000034: a009         	j	0x80000036 <.Lpcrel_hi0+0x12>
80000036: 6542         	ld	a0, 0x10(sp)
80000038: 65a2         	ld	a1, 0x8(sp)
8000003a: 952e         	add	a0, a0, a1
8000003c: 70a2         	ld	ra, 0x28(sp)
8000003e: 6145         	addi	sp, sp, 0x30
80000040: 8082         	ret

0000000080000042 <lab4_kernel_task3::trap::init_machine_trap_vector::h6ef413766500199f>:
80000042: 00001517     	auipc	a0, 0x1
80000046: a7e50513     	addi	a0, a0, -0x582
8000004a: 30551073     	csrw	mtvec, a0
8000004e: 8082         	ret

0000000080000050 <lab4_kernel_task3::trap::init_supervisor_trap_vector::ha0bdf179e93b9cf3>:
80000050: 00001517     	auipc	a0, 0x1
80000054: b2050513     	addi	a0, a0, -0x4e0
80000058: 10551073     	csrw	stvec, a0
8000005c: 8082         	ret

000000008000005e <lab4_kernel_task3::trap::TrapFrame::zeroed::h871957064e3b6017>:
8000005e: 85aa         	mv	a1, a0
80000060: 4501         	li	a0, 0x0
80000062: e188         	sd	a0, 0x0(a1)
80000064: e588         	sd	a0, 0x8(a1)
80000066: e988         	sd	a0, 0x10(a1)
80000068: ed88         	sd	a0, 0x18(a1)
8000006a: f188         	sd	a0, 0x20(a1)
8000006c: f588         	sd	a0, 0x28(a1)
8000006e: f988         	sd	a0, 0x30(a1)
80000070: fd88         	sd	a0, 0x38(a1)
80000072: e1a8         	sd	a0, 0x40(a1)
80000074: e5a8         	sd	a0, 0x48(a1)
80000076: e9a8         	sd	a0, 0x50(a1)
80000078: eda8         	sd	a0, 0x58(a1)
8000007a: f1a8         	sd	a0, 0x60(a1)
8000007c: f5a8         	sd	a0, 0x68(a1)
8000007e: f9a8         	sd	a0, 0x70(a1)
80000080: fda8         	sd	a0, 0x78(a1)
80000082: e1c8         	sd	a0, 0x80(a1)
80000084: e5c8         	sd	a0, 0x88(a1)
80000086: e9c8         	sd	a0, 0x90(a1)
80000088: edc8         	sd	a0, 0x98(a1)
8000008a: f1c8         	sd	a0, 0xa0(a1)
8000008c: f5c8         	sd	a0, 0xa8(a1)
8000008e: f9c8         	sd	a0, 0xb0(a1)
80000090: fdc8         	sd	a0, 0xb8(a1)
80000092: e1e8         	sd	a0, 0xc0(a1)
80000094: e5e8         	sd	a0, 0xc8(a1)
80000096: e9e8         	sd	a0, 0xd0(a1)
80000098: ede8         	sd	a0, 0xd8(a1)
8000009a: f1e8         	sd	a0, 0xe0(a1)
8000009c: f5e8         	sd	a0, 0xe8(a1)
8000009e: f9e8         	sd	a0, 0xf0(a1)
800000a0: fde8         	sd	a0, 0xf8(a1)
800000a2: 8082         	ret

00000000800000a4 <core::ptr::const_ptr::_$LT$impl$u20$$BP$const$u20$T$GT$::is_aligned_to::h3f6d5aba8dfd4ef3>:
800000a4: 7139         	addi	sp, sp, -0x40
800000a6: e42e         	sd	a1, 0x8(sp)
800000a8: e82a         	sd	a0, 0x10(sp)
800000aa: ec2a         	sd	a0, 0x18(sp)
800000ac: f02e         	sd	a1, 0x20(sp)
800000ae: 0015d513     	srli	a0, a1, 0x1
800000b2: 55555637     	lui	a2, 0x55555
800000b6: 55560613     	addi	a2, a2, 0x555
800000ba: 02061693     	slli	a3, a2, 0x20
800000be: 9636         	add	a2, a2, a3
800000c0: 8d71         	and	a0, a0, a2
800000c2: 8d89         	sub	a1, a1, a0
800000c4: 33333537     	lui	a0, 0x33333
800000c8: 33350513     	addi	a0, a0, 0x333
800000cc: 02051613     	slli	a2, a0, 0x20
800000d0: 962a         	add	a2, a2, a0
800000d2: 00c5f533     	and	a0, a1, a2
800000d6: 8189         	srli	a1, a1, 0x2
800000d8: 8df1         	and	a1, a1, a2
800000da: 952e         	add	a0, a0, a1
800000dc: 00455593     	srli	a1, a0, 0x4
800000e0: 952e         	add	a0, a0, a1
800000e2: 0f0f15b7     	lui	a1, 0xf0f1
800000e6: f0f58593     	addi	a1, a1, -0xf1
800000ea: 02059613     	slli	a2, a1, 0x20
800000ee: 95b2         	add	a1, a1, a2
800000f0: 8d6d         	and	a0, a0, a1
800000f2: 010105b7     	lui	a1, 0x1010
800000f6: 10158593     	addi	a1, a1, 0x101
800000fa: 02059613     	slli	a2, a1, 0x20
800000fe: 95b2         	add	a1, a1, a2
80000100: 02b50533     	mul	a0, a0, a1
80000104: 9161         	srli	a0, a0, 0x38
80000106: d62a         	sw	a0, 0x2c(sp)
80000108: 5532         	lw	a0, 0x2c(sp)
8000010a: 4585         	li	a1, 0x1
8000010c: 00b51b63     	bne	a0, a1, 0x80000122 <.Lpcrel_hi0>
80000110: a009         	j	0x80000112 <core::ptr::const_ptr::_$LT$impl$u20$$BP$const$u20$T$GT$::is_aligned_to::h3f6d5aba8dfd4ef3+0x6e>
80000112: 6542         	ld	a0, 0x10(sp)
80000114: 65a2         	ld	a1, 0x8(sp)
80000116: 15fd         	addi	a1, a1, -0x1
80000118: 8d6d         	and	a0, a0, a1
8000011a: 00153513     	seqz	a0, a0
8000011e: 6121         	addi	sp, sp, 0x40
80000120: 8082         	ret

0000000080000122 <.Lpcrel_hi0>:
80000122: 00007517     	auipc	a0, 0x7
80000126: 3d650513     	addi	a0, a0, 0x3d6
8000012a: f82a         	sd	a0, 0x30(sp)
8000012c: 02a00593     	li	a1, 0x2a
80000130: fc2e         	sd	a1, 0x38(sp)

0000000080000132 <.Lpcrel_hi1>:
80000132: 00007597     	auipc	a1, 0x7
80000136: 3f658613     	addi	a2, a1, 0x3f6
8000013a: 05500593     	li	a1, 0x55
8000013e: 00007097     	auipc	ra, 0x7
80000142: bda080e7     	jalr	-0x426(ra) <core::panicking::panic_fmt::h767dc8ac4dd44648>

0000000080000146 <lab4_kernel_task3::console::write_byte::h48094f7d361ba930>:
80000146: 1101         	addi	sp, sp, -0x20
80000148: ec06         	sd	ra, 0x18(sp)
8000014a: 85aa         	mv	a1, a0
8000014c: e42e         	sd	a1, 0x8(sp)
8000014e: 00a10ba3     	sb	a0, 0x17(sp)
80000152: 45a9         	li	a1, 0xa
80000154: 02b50363     	beq	a0, a1, 0x8000017a <.Lpcrel_hi1>
80000158: a009         	j	0x8000015a <lab4_kernel_task3::console::write_byte::h48094f7d361ba930+0x14>
8000015a: 6522         	ld	a0, 0x8(sp)
8000015c: 0ff57593     	zext.b	a1, a0

0000000080000160 <.Lpcrel_hi0>:
80000160: 00007517     	auipc	a0, 0x7
80000164: 3f850613     	addi	a2, a0, 0x3f8
80000168: 10000537     	lui	a0, 0x10000
8000016c: 00006097     	auipc	ra, 0x6
80000170: 850080e7     	jalr	-0x7b0(ra) <core::ptr::write_volatile::h1b15b7f648f18a44>
80000174: 60e2         	ld	ra, 0x18(sp)
80000176: 6105         	addi	sp, sp, 0x20
80000178: 8082         	ret

000000008000017a <.Lpcrel_hi1>:
8000017a: 00007517     	auipc	a0, 0x7
8000017e: 3c650613     	addi	a2, a0, 0x3c6
80000182: 10000537     	lui	a0, 0x10000
80000186: 45b5         	li	a1, 0xd
80000188: 00006097     	auipc	ra, 0x6
8000018c: 834080e7     	jalr	-0x7cc(ra) <core::ptr::write_volatile::h1b15b7f648f18a44>
80000190: b7e9         	j	0x8000015a <lab4_kernel_task3::console::write_byte::h48094f7d361ba930+0x14>

0000000080000192 <lab4_kernel_task3::console::print::h3e60aa2d39f23b20>:
80000192: 7179         	addi	sp, sp, -0x30
80000194: f406         	sd	ra, 0x28(sp)
80000196: 862e         	mv	a2, a1
80000198: 85aa         	mv	a1, a0
8000019a: e82e         	sd	a1, 0x10(sp)
8000019c: ec32         	sd	a2, 0x18(sp)
8000019e: 00f10513     	addi	a0, sp, 0xf
800001a2: 00000097     	auipc	ra, 0x0
800001a6: 0b2080e7     	jalr	0xb2(ra) <core::fmt::Write::write_fmt::hac1a50019d0028a8>
800001aa: 70a2         	ld	ra, 0x28(sp)
800001ac: 6145         	addi	sp, sp, 0x30
800001ae: 8082         	ret

00000000800001b0 <_$LT$lab4_kernel_task3..console..KernelConsole$u20$as$u20$core..fmt..Write$GT$::write_str::h9ab0e6328b5d321a>:
800001b0: 715d         	addi	sp, sp, -0x50
800001b2: e486         	sd	ra, 0x48(sp)
800001b4: e032         	sd	a2, 0x0(sp)
800001b6: 862e         	mv	a2, a1
800001b8: 6582         	ld	a1, 0x0(sp)
800001ba: e432         	sd	a2, 0x8(sp)
800001bc: 862a         	mv	a2, a0
800001be: 6522         	ld	a0, 0x8(sp)
800001c0: f432         	sd	a2, 0x28(sp)
800001c2: f82a         	sd	a0, 0x30(sp)
800001c4: fc2e         	sd	a1, 0x38(sp)
800001c6: 00001097     	auipc	ra, 0x1
800001ca: 814080e7     	jalr	-0x7ec(ra) <core::str::_$LT$impl$u20$str$GT$::bytes::h9e591696dde50f97>
800001ce: 00000097     	auipc	ra, 0x0
800001d2: 544080e7     	jalr	0x544(ra) <_$LT$I$u20$as$u20$core..iter..traits..collect..IntoIterator$GT$::into_iter::h0b90a53ba649df72>
800001d6: e82a         	sd	a0, 0x10(sp)
800001d8: ec2e         	sd	a1, 0x18(sp)
800001da: a009         	j	0x800001dc <_$LT$lab4_kernel_task3..console..KernelConsole$u20$as$u20$core..fmt..Write$GT$::write_str::h9ab0e6328b5d321a+0x2c>
800001dc: 0808         	addi	a0, sp, 0x10
800001de: 00000097     	auipc	ra, 0x0
800001e2: 698080e7     	jalr	0x698(ra) <_$LT$core..str..iter..Bytes$u20$as$u20$core..iter..traits..iterator..Iterator$GT$::next::h0a55c9da049d671b>
800001e6: 8905         	andi	a0, a0, 0x1
800001e8: 02a10323     	sb	a0, 0x26(sp)
800001ec: 02b103a3     	sb	a1, 0x27(sp)
800001f0: 02614503     	lbu	a0, 0x26(sp)
800001f4: 8905         	andi	a0, a0, 0x1
800001f6: c919         	beqz	a0, 0x8000020c <_$LT$lab4_kernel_task3..console..KernelConsole$u20$as$u20$core..fmt..Write$GT$::write_str::h9ab0e6328b5d321a+0x5c>
800001f8: a009         	j	0x800001fa <_$LT$lab4_kernel_task3..console..KernelConsole$u20$as$u20$core..fmt..Write$GT$::write_str::h9ab0e6328b5d321a+0x4a>
800001fa: 02714503     	lbu	a0, 0x27(sp)
800001fe: 04a103a3     	sb	a0, 0x47(sp)
80000202: 00000097     	auipc	ra, 0x0
80000206: f44080e7     	jalr	-0xbc(ra) <lab4_kernel_task3::console::write_byte::h48094f7d361ba930>
8000020a: bfc9         	j	0x800001dc <_$LT$lab4_kernel_task3..console..KernelConsole$u20$as$u20$core..fmt..Write$GT$::write_str::h9ab0e6328b5d321a+0x2c>
8000020c: 4501         	li	a0, 0x0
8000020e: 60a6         	ld	ra, 0x48(sp)
80000210: 6161         	addi	sp, sp, 0x50
80000212: 8082         	ret

0000000080000214 <core::fmt::Write::write_char::h59a80c3d88fc33df>:
80000214: 711d         	addi	sp, sp, -0x60
80000216: ec86         	sd	ra, 0x58(sp)
80000218: e42e         	sd	a1, 0x8(sp)
8000021a: 85aa         	mv	a1, a0
8000021c: 6522         	ld	a0, 0x8(sp)
8000021e: e82e         	sd	a1, 0x10(sp)
80000220: f42e         	sd	a1, 0x28(sp)
80000222: da2a         	sw	a0, 0x34(sp)
80000224: 4581         	li	a1, 0x0
80000226: d22e         	sw	a1, 0x24(sp)
80000228: 104c         	addi	a1, sp, 0x24
8000022a: fc2e         	sd	a1, 0x38(sp)
8000022c: 4611         	li	a2, 0x4
8000022e: e0b2         	sd	a2, 0x40(sp)
80000230: 00000097     	auipc	ra, 0x0
80000234: 2c0080e7     	jalr	0x2c0(ra) <core::char::methods::encode_utf8_raw::hea77608d5c31cba1>
80000238: 862a         	mv	a2, a0
8000023a: 6542         	ld	a0, 0x10(sp)
8000023c: ec32         	sd	a2, 0x18(sp)
8000023e: 862e         	mv	a2, a1
80000240: 65e2         	ld	a1, 0x18(sp)
80000242: e4ae         	sd	a1, 0x48(sp)
80000244: e8b2         	sd	a2, 0x50(sp)
80000246: 00000097     	auipc	ra, 0x0
8000024a: f6a080e7     	jalr	-0x96(ra) <_$LT$lab4_kernel_task3..console..KernelConsole$u20$as$u20$core..fmt..Write$GT$::write_str::h9ab0e6328b5d321a>
8000024e: 60e6         	ld	ra, 0x58(sp)
80000250: 6125         	addi	sp, sp, 0x60
80000252: 8082         	ret

0000000080000254 <core::fmt::Write::write_fmt::hac1a50019d0028a8>:
80000254: 1101         	addi	sp, sp, -0x20
80000256: ec06         	sd	ra, 0x18(sp)
80000258: e02a         	sd	a0, 0x0(sp)
8000025a: e42e         	sd	a1, 0x8(sp)
8000025c: e832         	sd	a2, 0x10(sp)
8000025e: 00000097     	auipc	ra, 0x0
80000262: 00e080e7     	jalr	0xe(ra) <_$LT$$RF$mut$u20$W$u20$as$u20$core..fmt..Write..write_fmt..SpecWriteFmt$GT$::spec_write_fmt::h082ae61795064eab>
80000266: 60e2         	ld	ra, 0x18(sp)
80000268: 6105         	addi	sp, sp, 0x20
8000026a: 8082         	ret

000000008000026c <_$LT$$RF$mut$u20$W$u20$as$u20$core..fmt..Write..write_fmt..SpecWriteFmt$GT$::spec_write_fmt::h082ae61795064eab>:
8000026c: 715d         	addi	sp, sp, -0x50
8000026e: e486         	sd	ra, 0x48(sp)
80000270: e02a         	sd	a0, 0x0(sp)
80000272: e42e         	sd	a1, 0x8(sp)
80000274: e832         	sd	a2, 0x10(sp)
80000276: f82a         	sd	a0, 0x30(sp)
80000278: 0028         	addi	a0, sp, 0x8
8000027a: 00000097     	auipc	ra, 0x0
8000027e: 668080e7     	jalr	0x668(ra) <core::fmt::Arguments::as_statically_known_str::hc068f296c9fb8ad9>
80000282: f02a         	sd	a0, 0x20(sp)
80000284: f42e         	sd	a1, 0x28(sp)
80000286: 7502         	ld	a0, 0x20(sp)
80000288: cd11         	beqz	a0, 0x800002a4 <_$LT$$RF$mut$u20$W$u20$as$u20$core..fmt..Write..write_fmt..SpecWriteFmt$GT$::spec_write_fmt::h082ae61795064eab+0x38>
8000028a: a009         	j	0x8000028c <_$LT$$RF$mut$u20$W$u20$as$u20$core..fmt..Write..write_fmt..SpecWriteFmt$GT$::spec_write_fmt::h082ae61795064eab+0x20>
8000028c: 6502         	ld	a0, 0x0(sp)
8000028e: 7582         	ld	a1, 0x20(sp)
80000290: 7622         	ld	a2, 0x28(sp)
80000292: fc2e         	sd	a1, 0x38(sp)
80000294: e0b2         	sd	a2, 0x40(sp)
80000296: 00000097     	auipc	ra, 0x0
8000029a: f1a080e7     	jalr	-0xe6(ra) <_$LT$lab4_kernel_task3..console..KernelConsole$u20$as$u20$core..fmt..Write$GT$::write_str::h9ab0e6328b5d321a>
8000029e: 00a10fa3     	sb	a0, 0x1f(sp)
800002a2: a839         	j	0x800002c0 <.Lpcrel_hi0+0x16>
800002a4: 6502         	ld	a0, 0x0(sp)
800002a6: 6622         	ld	a2, 0x8(sp)
800002a8: 66c2         	ld	a3, 0x10(sp)

00000000800002aa <.Lpcrel_hi0>:
800002aa: 00007597     	auipc	a1, 0x7
800002ae: 2c658593     	addi	a1, a1, 0x2c6
800002b2: 00006097     	auipc	ra, 0x6
800002b6: 12a080e7     	jalr	0x12a(ra) <core::fmt::write::hfd17e9e8e823b619>
800002ba: 00a10fa3     	sb	a0, 0x1f(sp)
800002be: a009         	j	0x800002c0 <.Lpcrel_hi0+0x16>
800002c0: 01f14503     	lbu	a0, 0x1f(sp)
800002c4: 60a6         	ld	ra, 0x48(sp)
800002c6: 6161         	addi	sp, sp, 0x50
800002c8: 8082         	ret

00000000800002ca <_$LT$core..result..Result$LT$T$C$F$GT$$u20$as$u20$core..ops..try_trait..FromResidual$LT$core..result..Result$LT$core..convert..Infallible$C$E$GT$$GT$$GT$::from_residual::h71d8eba1a2ab293f>:
800002ca: 1141         	addi	sp, sp, -0x10
800002cc: 4505         	li	a0, 0x1
800002ce: 0141         	addi	sp, sp, 0x10
800002d0: 8082         	ret

00000000800002d2 <_$LT$core..result..Result$LT$T$C$E$GT$$u20$as$u20$core..ops..try_trait..Try$GT$::branch::hbfd69c7e43480f6b>:
800002d2: 1141         	addi	sp, sp, -0x10
800002d4: 00a10623     	sb	a0, 0xc(sp)
800002d8: 00c14503     	lbu	a0, 0xc(sp)
800002dc: 8905         	andi	a0, a0, 0x1
800002de: c511         	beqz	a0, 0x800002ea <_$LT$core..result..Result$LT$T$C$E$GT$$u20$as$u20$core..ops..try_trait..Try$GT$::branch::hbfd69c7e43480f6b+0x18>
800002e0: a009         	j	0x800002e2 <_$LT$core..result..Result$LT$T$C$E$GT$$u20$as$u20$core..ops..try_trait..Try$GT$::branch::hbfd69c7e43480f6b+0x10>
800002e2: 4505         	li	a0, 0x1
800002e4: 00a106a3     	sb	a0, 0xd(sp)
800002e8: a029         	j	0x800002f2 <_$LT$core..result..Result$LT$T$C$E$GT$$u20$as$u20$core..ops..try_trait..Try$GT$::branch::hbfd69c7e43480f6b+0x20>
800002ea: 4501         	li	a0, 0x0
800002ec: 00a106a3     	sb	a0, 0xd(sp)
800002f0: a009         	j	0x800002f2 <_$LT$core..result..Result$LT$T$C$E$GT$$u20$as$u20$core..ops..try_trait..Try$GT$::branch::hbfd69c7e43480f6b+0x20>
800002f2: 00d14503     	lbu	a0, 0xd(sp)
800002f6: 0141         	addi	sp, sp, 0x10
800002f8: 8082         	ret

00000000800002fa <_$LT$core..slice..iter..Iter$LT$T$GT$$u20$as$u20$core..iter..traits..iterator..Iterator$GT$::next::h6a66d343971ff494>:
800002fa: 715d         	addi	sp, sp, -0x50
800002fc: e42a         	sd	a0, 0x8(sp)
800002fe: f42a         	sd	a0, 0x28(sp)
80000300: 4585         	li	a1, 0x1
80000302: f82e         	sd	a1, 0x30(sp)
80000304: fc2e         	sd	a1, 0x38(sp)
80000306: 610c         	ld	a1, 0x0(a0)
80000308: e82e         	sd	a1, 0x10(sp)
8000030a: e0ae         	sd	a1, 0x40(sp)
8000030c: 6508         	ld	a0, 0x8(a0)
8000030e: ec2a         	sd	a0, 0x18(sp)
80000310: e4aa         	sd	a0, 0x48(sp)
80000312: a009         	j	0x80000314 <_$LT$core..slice..iter..Iter$LT$T$GT$$u20$as$u20$core..iter..traits..iterator..Iterator$GT$::next::h6a66d343971ff494+0x1a>
80000314: 6542         	ld	a0, 0x10(sp)
80000316: 65e2         	ld	a1, 0x18(sp)
80000318: 00b50863     	beq	a0, a1, 0x80000328 <_$LT$core..slice..iter..Iter$LT$T$GT$$u20$as$u20$core..iter..traits..iterator..Iterator$GT$::next::h6a66d343971ff494+0x2e>
8000031c: a009         	j	0x8000031e <_$LT$core..slice..iter..Iter$LT$T$GT$$u20$as$u20$core..iter..traits..iterator..Iterator$GT$::next::h6a66d343971ff494+0x24>
8000031e: 65a2         	ld	a1, 0x8(sp)
80000320: 6542         	ld	a0, 0x10(sp)
80000322: 0505         	addi	a0, a0, 0x1
80000324: e188         	sd	a0, 0x0(a1)
80000326: a021         	j	0x8000032e <_$LT$core..slice..iter..Iter$LT$T$GT$$u20$as$u20$core..iter..traits..iterator..Iterator$GT$::next::h6a66d343971ff494+0x34>
80000328: 4501         	li	a0, 0x0
8000032a: f02a         	sd	a0, 0x20(sp)
8000032c: a039         	j	0x8000033a <_$LT$core..slice..iter..Iter$LT$T$GT$$u20$as$u20$core..iter..traits..iterator..Iterator$GT$::next::h6a66d343971ff494+0x40>
8000032e: 6542         	ld	a0, 0x10(sp)
80000330: f02a         	sd	a0, 0x20(sp)
80000332: a009         	j	0x80000334 <_$LT$core..slice..iter..Iter$LT$T$GT$$u20$as$u20$core..iter..traits..iterator..Iterator$GT$::next::h6a66d343971ff494+0x3a>
80000334: 7502         	ld	a0, 0x20(sp)
80000336: 6161         	addi	sp, sp, 0x50
80000338: 8082         	ret
8000033a: bfed         	j	0x80000334 <_$LT$core..slice..iter..Iter$LT$T$GT$$u20$as$u20$core..iter..traits..iterator..Iterator$GT$::next::h6a66d343971ff494+0x3a>

000000008000033c <core::ptr::drop_in_place$LT$core..array..iter..IntoIter$LT$char$C$9_usize$GT$$GT$::h3164e7b4d4c6c638>:
8000033c: 1141         	addi	sp, sp, -0x10
8000033e: e406         	sd	ra, 0x8(sp)
80000340: e02a         	sd	a0, 0x0(sp)
80000342: 00000097     	auipc	ra, 0x0
80000346: 00e080e7     	jalr	0xe(ra) <_$LT$core..array..iter..IntoIter$LT$T$C$_$GT$$u20$as$u20$core..ops..drop..Drop$GT$::drop::h6e2e3822833662ff>
8000034a: 60a2         	ld	ra, 0x8(sp)
8000034c: 0141         	addi	sp, sp, 0x10
8000034e: 8082         	ret

0000000080000350 <_$LT$core..array..iter..IntoIter$LT$T$C$_$GT$$u20$as$u20$core..ops..drop..Drop$GT$::drop::h6e2e3822833662ff>:
80000350: 1141         	addi	sp, sp, -0x10
80000352: e42a         	sd	a0, 0x8(sp)
80000354: a009         	j	0x80000356 <_$LT$core..array..iter..IntoIter$LT$T$C$_$GT$$u20$as$u20$core..ops..drop..Drop$GT$::drop::h6e2e3822833662ff+0x6>
80000356: 0141         	addi	sp, sp, 0x10
80000358: 8082         	ret

000000008000035a <core::iter::range::_$LT$impl$u20$core..iter..traits..iterator..Iterator$u20$for$u20$core..ops..range..Range$LT$A$GT$$GT$::next::h9ea1a7ea3eb8baf8>:
8000035a: 1141         	addi	sp, sp, -0x10
8000035c: e406         	sd	ra, 0x8(sp)
8000035e: e02a         	sd	a0, 0x0(sp)
80000360: 00000097     	auipc	ra, 0x0
80000364: 018080e7     	jalr	0x18(ra) <_$LT$core..ops..range..Range$LT$T$GT$$u20$as$u20$core..iter..range..RangeIteratorImpl$GT$::spec_next::h49d56a0895156076>
80000368: 60a2         	ld	ra, 0x8(sp)
8000036a: 0141         	addi	sp, sp, 0x10
8000036c: 8082         	ret

000000008000036e <_$LT$I$u20$as$u20$core..iter..traits..collect..IntoIterator$GT$::into_iter::h9e4e361be1e05134>:
8000036e: 1141         	addi	sp, sp, -0x10
80000370: e02a         	sd	a0, 0x0(sp)
80000372: e42e         	sd	a1, 0x8(sp)
80000374: 0141         	addi	sp, sp, 0x10
80000376: 8082         	ret

0000000080000378 <_$LT$core..ops..range..Range$LT$T$GT$$u20$as$u20$core..iter..range..RangeIteratorImpl$GT$::spec_next::h49d56a0895156076>:
80000378: 715d         	addi	sp, sp, -0x50
8000037a: e486         	sd	ra, 0x48(sp)
8000037c: 85aa         	mv	a1, a0
8000037e: e82e         	sd	a1, 0x10(sp)
80000380: f42e         	sd	a1, 0x28(sp)
80000382: 00858513     	addi	a0, a1, 0x8
80000386: fc2e         	sd	a1, 0x38(sp)
80000388: e0aa         	sd	a0, 0x40(sp)
8000038a: 6188         	ld	a0, 0x0(a1)
8000038c: 658c         	ld	a1, 0x8(a1)
8000038e: 00b56663     	bltu	a0, a1, 0x8000039a <_$LT$core..ops..range..Range$LT$T$GT$$u20$as$u20$core..iter..range..RangeIteratorImpl$GT$::spec_next::h49d56a0895156076+0x22>
80000392: a009         	j	0x80000394 <_$LT$core..ops..range..Range$LT$T$GT$$u20$as$u20$core..iter..range..RangeIteratorImpl$GT$::spec_next::h49d56a0895156076+0x1c>
80000394: 4501         	li	a0, 0x0
80000396: ec2a         	sd	a0, 0x18(sp)
80000398: a01d         	j	0x800003be <_$LT$core..ops..range..Range$LT$T$GT$$u20$as$u20$core..iter..range..RangeIteratorImpl$GT$::spec_next::h49d56a0895156076+0x46>
8000039a: 6542         	ld	a0, 0x10(sp)
8000039c: 6108         	ld	a0, 0x0(a0)
8000039e: e02a         	sd	a0, 0x0(sp)
800003a0: f82a         	sd	a0, 0x30(sp)
800003a2: 4585         	li	a1, 0x1
800003a4: e42e         	sd	a1, 0x8(sp)
800003a6: 00000097     	auipc	ra, 0x0
800003aa: c6c080e7     	jalr	-0x394(ra) <_$LT$usize$u20$as$u20$core..iter..range..Step$GT$::forward_unchecked::h8746f9d20fad25ba>
800003ae: 66c2         	ld	a3, 0x10(sp)
800003b0: 6582         	ld	a1, 0x0(sp)
800003b2: 862a         	mv	a2, a0
800003b4: 6522         	ld	a0, 0x8(sp)
800003b6: e290         	sd	a2, 0x0(a3)
800003b8: f02e         	sd	a1, 0x20(sp)
800003ba: ec2a         	sd	a0, 0x18(sp)
800003bc: a009         	j	0x800003be <_$LT$core..ops..range..Range$LT$T$GT$$u20$as$u20$core..iter..range..RangeIteratorImpl$GT$::spec_next::h49d56a0895156076+0x46>
800003be: 6562         	ld	a0, 0x18(sp)
800003c0: 7582         	ld	a1, 0x20(sp)
800003c2: 60a6         	ld	ra, 0x48(sp)
800003c4: 6161         	addi	sp, sp, 0x50
800003c6: 8082         	ret

00000000800003c8 <core::num::_$LT$impl$u20$usize$GT$::unchecked_add::precondition_check::h576648fa36372982>:
800003c8: 7179         	addi	sp, sp, -0x30
800003ca: e032         	sd	a2, 0x0(sp)
800003cc: e42e         	sd	a1, 0x8(sp)
800003ce: 85aa         	mv	a1, a0
800003d0: 6522         	ld	a0, 0x8(sp)
800003d2: e82e         	sd	a1, 0x10(sp)
800003d4: ec2a         	sd	a0, 0x18(sp)
800003d6: 952e         	add	a0, a0, a1
800003d8: 00b56563     	bltu	a0, a1, 0x800003e2 <core::num::_$LT$impl$u20$usize$GT$::unchecked_add::precondition_check::h576648fa36372982+0x1a>
800003dc: a009         	j	0x800003de <core::num::_$LT$impl$u20$usize$GT$::unchecked_add::precondition_check::h576648fa36372982+0x16>
800003de: 6145         	addi	sp, sp, 0x30
800003e0: 8082         	ret
800003e2: 6682         	ld	a3, 0x0(sp)

00000000800003e4 <.Lpcrel_hi0>:
800003e4: 00007517     	auipc	a0, 0x7
800003e8: 1bc50513     	addi	a0, a0, 0x1bc
800003ec: f02a         	sd	a0, 0x20(sp)
800003ee: 0ba00593     	li	a1, 0xba
800003f2: f42e         	sd	a1, 0x28(sp)
800003f4: 17500593     	li	a1, 0x175
800003f8: 4601         	li	a2, 0x0
800003fa: 00007097     	auipc	ra, 0x7
800003fe: 88e080e7     	jalr	-0x772(ra) <core::panicking::panic_nounwind_fmt::h2e018e50a8d3bc73>

0000000080000402 <core::fmt::rt::Argument::new_display::h07b89be142c07e02>:
80000402: 1101         	addi	sp, sp, -0x20
80000404: e02e         	sd	a1, 0x0(sp)
80000406: 85aa         	mv	a1, a0
80000408: 6502         	ld	a0, 0x0(sp)
8000040a: ec2a         	sd	a0, 0x18(sp)
8000040c: e42a         	sd	a0, 0x8(sp)

000000008000040e <.Lpcrel_hi0>:
8000040e: 00006517     	auipc	a0, 0x6
80000412: 9b450513     	addi	a0, a0, -0x64c
80000416: e82a         	sd	a0, 0x10(sp)
80000418: 6542         	ld	a0, 0x10(sp)
8000041a: e588         	sd	a0, 0x8(a1)
8000041c: 6522         	ld	a0, 0x8(sp)
8000041e: e188         	sd	a0, 0x0(a1)
80000420: 6105         	addi	sp, sp, 0x20
80000422: 8082         	ret

0000000080000424 <core::fmt::rt::Argument::new_display::h2a194c625b616a7c>:
80000424: 1101         	addi	sp, sp, -0x20
80000426: e02e         	sd	a1, 0x0(sp)
80000428: 85aa         	mv	a1, a0
8000042a: 6502         	ld	a0, 0x0(sp)
8000042c: ec2a         	sd	a0, 0x18(sp)
8000042e: e42a         	sd	a0, 0x8(sp)

0000000080000430 <.Lpcrel_hi1>:
80000430: 00006517     	auipc	a0, 0x6
80000434: eac50513     	addi	a0, a0, -0x154
80000438: e82a         	sd	a0, 0x10(sp)
8000043a: 6542         	ld	a0, 0x10(sp)
8000043c: e588         	sd	a0, 0x8(a1)
8000043e: 6522         	ld	a0, 0x8(sp)
80000440: e188         	sd	a0, 0x0(a1)
80000442: 6105         	addi	sp, sp, 0x20
80000444: 8082         	ret

0000000080000446 <core::fmt::rt::Argument::new_display::h644e73051090fe85>:
80000446: 1101         	addi	sp, sp, -0x20
80000448: e02e         	sd	a1, 0x0(sp)
8000044a: 85aa         	mv	a1, a0
8000044c: 6502         	ld	a0, 0x0(sp)
8000044e: ec2a         	sd	a0, 0x18(sp)
80000450: e42a         	sd	a0, 0x8(sp)

0000000080000452 <.Lpcrel_hi2>:
80000452: 00005517     	auipc	a0, 0x5
80000456: c1050513     	addi	a0, a0, -0x3f0
8000045a: e82a         	sd	a0, 0x10(sp)
8000045c: 6542         	ld	a0, 0x10(sp)
8000045e: e588         	sd	a0, 0x8(a1)
80000460: 6522         	ld	a0, 0x8(sp)
80000462: e188         	sd	a0, 0x0(a1)
80000464: 6105         	addi	sp, sp, 0x20
80000466: 8082         	ret

0000000080000468 <core::fmt::rt::Argument::new_display::h9f9b427687f4ac37>:
80000468: 1101         	addi	sp, sp, -0x20
8000046a: e02e         	sd	a1, 0x0(sp)
8000046c: 85aa         	mv	a1, a0
8000046e: 6502         	ld	a0, 0x0(sp)
80000470: ec2a         	sd	a0, 0x18(sp)
80000472: e42a         	sd	a0, 0x8(sp)

0000000080000474 <.Lpcrel_hi3>:
80000474: 00005517     	auipc	a0, 0x5
80000478: 41650513     	addi	a0, a0, 0x416
8000047c: e82a         	sd	a0, 0x10(sp)
8000047e: 6542         	ld	a0, 0x10(sp)
80000480: e588         	sd	a0, 0x8(a1)
80000482: 6522         	ld	a0, 0x8(sp)
80000484: e188         	sd	a0, 0x0(a1)
80000486: 6105         	addi	sp, sp, 0x20
80000488: 8082         	ret

000000008000048a <core::fmt::rt::Argument::new_display::ha2ba89c9c0ea3f22>:
8000048a: 1101         	addi	sp, sp, -0x20
8000048c: e02e         	sd	a1, 0x0(sp)
8000048e: 85aa         	mv	a1, a0
80000490: 6502         	ld	a0, 0x0(sp)
80000492: ec2a         	sd	a0, 0x18(sp)
80000494: e42a         	sd	a0, 0x8(sp)

0000000080000496 <.Lpcrel_hi4>:
80000496: 00000517     	auipc	a0, 0x0
8000049a: 43450513     	addi	a0, a0, 0x434
8000049e: e82a         	sd	a0, 0x10(sp)
800004a0: 6542         	ld	a0, 0x10(sp)
800004a2: e588         	sd	a0, 0x8(a1)
800004a4: 6522         	ld	a0, 0x8(sp)
800004a6: e188         	sd	a0, 0x0(a1)
800004a8: 6105         	addi	sp, sp, 0x20
800004aa: 8082         	ret

00000000800004ac <core::fmt::rt::Argument::new_lower_hex::hc3d6cd349d9eaed3>:
800004ac: 1101         	addi	sp, sp, -0x20
800004ae: e02e         	sd	a1, 0x0(sp)
800004b0: 85aa         	mv	a1, a0
800004b2: 6502         	ld	a0, 0x0(sp)
800004b4: ec2a         	sd	a0, 0x18(sp)
800004b6: e42a         	sd	a0, 0x8(sp)

00000000800004b8 <.Lpcrel_hi5>:
800004b8: 00006517     	auipc	a0, 0x6
800004bc: e7050513     	addi	a0, a0, -0x190
800004c0: e82a         	sd	a0, 0x10(sp)
800004c2: 6542         	ld	a0, 0x10(sp)
800004c4: e588         	sd	a0, 0x8(a1)
800004c6: 6522         	ld	a0, 0x8(sp)
800004c8: e188         	sd	a0, 0x0(a1)
800004ca: 6105         	addi	sp, sp, 0x20
800004cc: 8082         	ret

00000000800004ce <core::fmt::rt::Argument::new_lower_hex::hfcf8be588603c455>:
800004ce: 1101         	addi	sp, sp, -0x20
800004d0: e02e         	sd	a1, 0x0(sp)
800004d2: 85aa         	mv	a1, a0
800004d4: 6502         	ld	a0, 0x0(sp)
800004d6: ec2a         	sd	a0, 0x18(sp)
800004d8: e42a         	sd	a0, 0x8(sp)

00000000800004da <.Lpcrel_hi6>:
800004da: 00006517     	auipc	a0, 0x6
800004de: e4e50513     	addi	a0, a0, -0x1b2
800004e2: e82a         	sd	a0, 0x10(sp)
800004e4: 6542         	ld	a0, 0x10(sp)
800004e6: e588         	sd	a0, 0x8(a1)
800004e8: 6522         	ld	a0, 0x8(sp)
800004ea: e188         	sd	a0, 0x0(a1)
800004ec: 6105         	addi	sp, sp, 0x20
800004ee: 8082         	ret

00000000800004f0 <core::char::methods::encode_utf8_raw::hea77608d5c31cba1>:
800004f0: 715d         	addi	sp, sp, -0x50
800004f2: e486         	sd	ra, 0x48(sp)
800004f4: e032         	sd	a2, 0x0(sp)
800004f6: e42e         	sd	a1, 0x8(sp)
800004f8: 86aa         	mv	a3, a0
800004fa: e836         	sd	a3, 0x10(sp)
800004fc: d22a         	sw	a0, 0x24(sp)
800004fe: f42e         	sd	a1, 0x28(sp)
80000500: f832         	sd	a2, 0x30(sp)
80000502: 08000593     	li	a1, 0x80
80000506: 00b56863     	bltu	a0, a1, 0x80000516 <core::char::methods::encode_utf8_raw::hea77608d5c31cba1+0x26>
8000050a: a009         	j	0x8000050c <core::char::methods::encode_utf8_raw::hea77608d5c31cba1+0x1c>
8000050c: 6542         	ld	a0, 0x10(sp)
8000050e: 00b5551b     	srliw	a0, a0, 0xb
80000512: c911         	beqz	a0, 0x80000526 <core::char::methods::encode_utf8_raw::hea77608d5c31cba1+0x36>
80000514: a021         	j	0x8000051c <core::char::methods::encode_utf8_raw::hea77608d5c31cba1+0x2c>
80000516: 4505         	li	a0, 0x1
80000518: ec2a         	sd	a0, 0x18(sp)
8000051a: a839         	j	0x80000538 <core::char::methods::encode_utf8_raw::hea77608d5c31cba1+0x48>
8000051c: 6542         	ld	a0, 0x10(sp)
8000051e: 0105551b     	srliw	a0, a0, 0x10
80000522: c901         	beqz	a0, 0x80000532 <core::char::methods::encode_utf8_raw::hea77608d5c31cba1+0x42>
80000524: a021         	j	0x8000052c <core::char::methods::encode_utf8_raw::hea77608d5c31cba1+0x3c>
80000526: 4509         	li	a0, 0x2
80000528: ec2a         	sd	a0, 0x18(sp)
8000052a: a039         	j	0x80000538 <core::char::methods::encode_utf8_raw::hea77608d5c31cba1+0x48>
8000052c: 4511         	li	a0, 0x4
8000052e: ec2a         	sd	a0, 0x18(sp)
80000530: a021         	j	0x80000538 <core::char::methods::encode_utf8_raw::hea77608d5c31cba1+0x48>
80000532: 450d         	li	a0, 0x3
80000534: ec2a         	sd	a0, 0x18(sp)
80000536: a009         	j	0x80000538 <core::char::methods::encode_utf8_raw::hea77608d5c31cba1+0x48>
80000538: 6502         	ld	a0, 0x0(sp)
8000053a: fc2a         	sd	a0, 0x38(sp)
8000053c: 65e2         	ld	a1, 0x18(sp)
8000053e: 00b56d63     	bltu	a0, a1, 0x80000558 <core::char::methods::encode_utf8_raw::hea77608d5c31cba1+0x68>
80000542: a009         	j	0x80000544 <core::char::methods::encode_utf8_raw::hea77608d5c31cba1+0x54>
80000544: 65a2         	ld	a1, 0x8(sp)
80000546: 6542         	ld	a0, 0x10(sp)
80000548: 2501         	sext.w	a0, a0
8000054a: 00000097     	auipc	ra, 0x0
8000054e: 0cc080e7     	jalr	0xcc(ra) <core::char::methods::encode_utf8_raw_unchecked::h0b409d3e40039282>
80000552: 6522         	ld	a0, 0x8(sp)
80000554: e0aa         	sd	a0, 0x40(sp)
80000556: a829         	j	0x80000570 <.Lpcrel_hi0+0x10>
80000558: 6602         	ld	a2, 0x0(sp)
8000055a: 6542         	ld	a0, 0x10(sp)
8000055c: 65e2         	ld	a1, 0x18(sp)
8000055e: 2501         	sext.w	a0, a0

0000000080000560 <.Lpcrel_hi0>:
80000560: 00007697     	auipc	a3, 0x7
80000564: 11868693     	addi	a3, a3, 0x118
80000568: 00000097     	auipc	ra, 0x0
8000056c: 02c080e7     	jalr	0x2c(ra) <core::char::methods::encode_utf8_raw::do_panic::runtime::h5b63147f94c6b85c>
80000570: 6522         	ld	a0, 0x8(sp)
80000572: 66e2         	ld	a3, 0x18(sp)

0000000080000574 <.Lpcrel_hi1>:
80000574: 00007597     	auipc	a1, 0x7
80000578: 0ec58713     	addi	a4, a1, 0xec
8000057c: 4605         	li	a2, 0x1
8000057e: 85b2         	mv	a1, a2
80000580: 00005097     	auipc	ra, 0x5
80000584: 53e080e7     	jalr	0x53e(ra) <core::slice::raw::from_raw_parts_mut::precondition_check::h3ede3b90495541e7>
80000588: a009         	j	0x8000058a <.Lpcrel_hi1+0x16>
8000058a: 6522         	ld	a0, 0x8(sp)
8000058c: 65e2         	ld	a1, 0x18(sp)
8000058e: 60a6         	ld	ra, 0x48(sp)
80000590: 6161         	addi	sp, sp, 0x50
80000592: 8082         	ret

0000000080000594 <core::char::methods::encode_utf8_raw::do_panic::runtime::h5b63147f94c6b85c>:
80000594: 7115         	addi	sp, sp, -0xe0
80000596: e036         	sd	a3, 0x0(sp)
80000598: 86b2         	mv	a3, a2
8000059a: 6602         	ld	a2, 0x0(sp)
8000059c: e436         	sd	a3, 0x8(sp)
8000059e: 86aa         	mv	a3, a0
800005a0: 6522         	ld	a0, 0x8(sp)
800005a2: ca36         	sw	a3, 0x14(sp)
800005a4: ec2e         	sd	a1, 0x18(sp)
800005a6: f02a         	sd	a0, 0x20(sp)

00000000800005a8 <.Lpcrel_hi2>:
800005a8: 00007517     	auipc	a0, 0x7
800005ac: 0e850513     	addi	a0, a0, 0xe8
800005b0: fd2a         	sd	a0, 0xb8(sp)
800005b2: 082c         	addi	a1, sp, 0x18
800005b4: e1ae         	sd	a1, 0xc0(sp)
800005b6: 0858         	addi	a4, sp, 0x14
800005b8: e5ba         	sd	a4, 0xc8(sp)
800005ba: 1014         	addi	a3, sp, 0x20
800005bc: e9b6         	sd	a3, 0xd0(sp)
800005be: e52e         	sd	a1, 0x88(sp)

00000000800005c0 <.Lpcrel_hi3>:
800005c0: 00006597     	auipc	a1, 0x6
800005c4: d1c58593     	addi	a1, a1, -0x2e4
800005c8: e92e         	sd	a1, 0x90(sp)
800005ca: 67ca         	ld	a5, 0x90(sp)
800005cc: f0be         	sd	a5, 0x60(sp)
800005ce: 67aa         	ld	a5, 0x88(sp)
800005d0: ecbe         	sd	a5, 0x58(sp)
800005d2: ed3a         	sd	a4, 0x98(sp)

00000000800005d4 <.Lpcrel_hi4>:
800005d4: 00006717     	auipc	a4, 0x6
800005d8: dac70713     	addi	a4, a4, -0x254
800005dc: f13a         	sd	a4, 0xa0(sp)
800005de: 770a         	ld	a4, 0xa0(sp)
800005e0: f8ba         	sd	a4, 0x70(sp)
800005e2: 676a         	ld	a4, 0x98(sp)
800005e4: f4ba         	sd	a4, 0x68(sp)
800005e6: f536         	sd	a3, 0xa8(sp)
800005e8: f92e         	sd	a1, 0xb0(sp)
800005ea: 75ca         	ld	a1, 0xb0(sp)
800005ec: e12e         	sd	a1, 0x80(sp)
800005ee: 75aa         	ld	a1, 0xa8(sp)
800005f0: fcae         	sd	a1, 0x78(sp)
800005f2: 7586         	ld	a1, 0x60(sp)
800005f4: f82e         	sd	a1, 0x30(sp)
800005f6: 65e6         	ld	a1, 0x58(sp)
800005f8: f42e         	sd	a1, 0x28(sp)
800005fa: 75c6         	ld	a1, 0x70(sp)
800005fc: e0ae         	sd	a1, 0x40(sp)
800005fe: 75a6         	ld	a1, 0x68(sp)
80000600: fc2e         	sd	a1, 0x38(sp)
80000602: 658a         	ld	a1, 0x80(sp)
80000604: e8ae         	sd	a1, 0x50(sp)
80000606: 75e6         	ld	a1, 0x78(sp)
80000608: e4ae         	sd	a1, 0x48(sp)
8000060a: 102c         	addi	a1, sp, 0x28
8000060c: edae         	sd	a1, 0xd8(sp)
8000060e: 00006097     	auipc	ra, 0x6
80000612: 70a080e7     	jalr	0x70a(ra) <core::panicking::panic_fmt::h767dc8ac4dd44648>

0000000080000616 <core::char::methods::encode_utf8_raw_unchecked::h0b409d3e40039282>:
80000616: 7119         	addi	sp, sp, -0x80
80000618: f02e         	sd	a1, 0x20(sp)
8000061a: 862a         	mv	a2, a0
8000061c: f432         	sd	a2, 0x28(sp)
8000061e: de2a         	sw	a0, 0x3c(sp)
80000620: e0ae         	sd	a1, 0x40(sp)
80000622: 4585         	li	a1, 0x1
80000624: e4ae         	sd	a1, 0x48(sp)
80000626: e8ae         	sd	a1, 0x50(sp)
80000628: ecae         	sd	a1, 0x58(sp)
8000062a: 4589         	li	a1, 0x2
8000062c: f0ae         	sd	a1, 0x60(sp)
8000062e: f4ae         	sd	a1, 0x68(sp)
80000630: 458d         	li	a1, 0x3
80000632: f8ae         	sd	a1, 0x70(sp)
80000634: 08000593     	li	a1, 0x80
80000638: 00b56863     	bltu	a0, a1, 0x80000648 <core::char::methods::encode_utf8_raw_unchecked::h0b409d3e40039282+0x32>
8000063c: a009         	j	0x8000063e <core::char::methods::encode_utf8_raw_unchecked::h0b409d3e40039282+0x28>
8000063e: 7522         	ld	a0, 0x28(sp)
80000640: 00b5551b     	srliw	a0, a0, 0xb
80000644: cd11         	beqz	a0, 0x80000660 <core::char::methods::encode_utf8_raw_unchecked::h0b409d3e40039282+0x4a>
80000646: a801         	j	0x80000656 <core::char::methods::encode_utf8_raw_unchecked::h0b409d3e40039282+0x40>
80000648: 7522         	ld	a0, 0x28(sp)
8000064a: 7582         	ld	a1, 0x20(sp)
8000064c: 4605         	li	a2, 0x1
8000064e: f832         	sd	a2, 0x30(sp)
80000650: 00a58023     	sb	a0, 0x0(a1)
80000654: a049         	j	0x800006d6 <core::char::methods::encode_utf8_raw_unchecked::h0b409d3e40039282+0xc0>
80000656: 7522         	ld	a0, 0x28(sp)
80000658: 0105551b     	srliw	a0, a0, 0x10
8000065c: c901         	beqz	a0, 0x8000066c <core::char::methods::encode_utf8_raw_unchecked::h0b409d3e40039282+0x56>
8000065e: a021         	j	0x80000666 <core::char::methods::encode_utf8_raw_unchecked::h0b409d3e40039282+0x50>
80000660: 4509         	li	a0, 0x2
80000662: f82a         	sd	a0, 0x30(sp)
80000664: a039         	j	0x80000672 <core::char::methods::encode_utf8_raw_unchecked::h0b409d3e40039282+0x5c>
80000666: 4511         	li	a0, 0x4
80000668: f82a         	sd	a0, 0x30(sp)
8000066a: a021         	j	0x80000672 <core::char::methods::encode_utf8_raw_unchecked::h0b409d3e40039282+0x5c>
8000066c: 450d         	li	a0, 0x3
8000066e: f82a         	sd	a0, 0x30(sp)
80000670: a009         	j	0x80000672 <core::char::methods::encode_utf8_raw_unchecked::h0b409d3e40039282+0x5c>
80000672: 7522         	ld	a0, 0x28(sp)
80000674: 03f57593     	andi	a1, a0, 0x3f
80000678: f805859b     	addiw	a1, a1, -0x80
8000067c: e02e         	sd	a1, 0x0(sp)
8000067e: 06b10e23     	sb	a1, 0x7c(sp)
80000682: 03451593     	slli	a1, a0, 0x34
80000686: 91e9         	srli	a1, a1, 0x3a
80000688: f805859b     	addiw	a1, a1, -0x80
8000068c: e42e         	sd	a1, 0x8(sp)
8000068e: 06b10ea3     	sb	a1, 0x7d(sp)
80000692: 02e51593     	slli	a1, a0, 0x2e
80000696: 91e9         	srli	a1, a1, 0x3a
80000698: f805859b     	addiw	a1, a1, -0x80
8000069c: e82e         	sd	a1, 0x10(sp)
8000069e: 06b10f23     	sb	a1, 0x7e(sp)
800006a2: 8149         	srli	a0, a0, 0x12
800006a4: ff056513     	ori	a0, a0, -0x10
800006a8: ec2a         	sd	a0, 0x18(sp)
800006aa: 06a10fa3     	sb	a0, 0x7f(sp)
800006ae: 7542         	ld	a0, 0x30(sp)
800006b0: 4589         	li	a1, 0x2
800006b2: 00b51d63     	bne	a0, a1, 0x800006cc <core::char::methods::encode_utf8_raw_unchecked::h0b409d3e40039282+0xb6>
800006b6: a009         	j	0x800006b8 <core::char::methods::encode_utf8_raw_unchecked::h0b409d3e40039282+0xa2>
800006b8: 6502         	ld	a0, 0x0(sp)
800006ba: 7582         	ld	a1, 0x20(sp)
800006bc: 6622         	ld	a2, 0x8(sp)
800006be: 0c066613     	ori	a2, a2, 0xc0
800006c2: 00c58023     	sb	a2, 0x0(a1)
800006c6: 00a580a3     	sb	a0, 0x1(a1)
800006ca: a031         	j	0x800006d6 <core::char::methods::encode_utf8_raw_unchecked::h0b409d3e40039282+0xc0>
800006cc: 7542         	ld	a0, 0x30(sp)
800006ce: 458d         	li	a1, 0x3
800006d0: 00b50463     	beq	a0, a1, 0x800006d8 <core::char::methods::encode_utf8_raw_unchecked::h0b409d3e40039282+0xc2>
800006d4: a839         	j	0x800006f2 <core::char::methods::encode_utf8_raw_unchecked::h0b409d3e40039282+0xdc>
800006d6: a825         	j	0x8000070e <core::char::methods::encode_utf8_raw_unchecked::h0b409d3e40039282+0xf8>
800006d8: 6502         	ld	a0, 0x0(sp)
800006da: 7582         	ld	a1, 0x20(sp)
800006dc: 6622         	ld	a2, 0x8(sp)
800006de: 66c2         	ld	a3, 0x10(sp)
800006e0: 0e06e693     	ori	a3, a3, 0xe0
800006e4: 00d58023     	sb	a3, 0x0(a1)
800006e8: 00c580a3     	sb	a2, 0x1(a1)
800006ec: 00a58123     	sb	a0, 0x2(a1)
800006f0: b7dd         	j	0x800006d6 <core::char::methods::encode_utf8_raw_unchecked::h0b409d3e40039282+0xc0>
800006f2: 6502         	ld	a0, 0x0(sp)
800006f4: 7582         	ld	a1, 0x20(sp)
800006f6: 6622         	ld	a2, 0x8(sp)
800006f8: 66c2         	ld	a3, 0x10(sp)
800006fa: 6762         	ld	a4, 0x18(sp)
800006fc: 00e58023     	sb	a4, 0x0(a1)
80000700: 00d580a3     	sb	a3, 0x1(a1)
80000704: 00c58123     	sb	a2, 0x2(a1)
80000708: 00a581a3     	sb	a0, 0x3(a1)
8000070c: a009         	j	0x8000070e <core::char::methods::encode_utf8_raw_unchecked::h0b409d3e40039282+0xf8>
8000070e: 6109         	addi	sp, sp, 0x80
80000710: 8082         	ret

0000000080000712 <_$LT$I$u20$as$u20$core..iter..traits..collect..IntoIterator$GT$::into_iter::h0b90a53ba649df72>:
80000712: 1141         	addi	sp, sp, -0x10
80000714: e02a         	sd	a0, 0x0(sp)
80000716: e42e         	sd	a1, 0x8(sp)
80000718: 0141         	addi	sp, sp, 0x10
8000071a: 8082         	ret

000000008000071c <core::ptr::write_bytes::precondition_check::he6f35d0c38b6c5de>:
8000071c: 715d         	addi	sp, sp, -0x50
8000071e: e486         	sd	ra, 0x48(sp)
80000720: e436         	sd	a3, 0x8(sp)
80000722: e82a         	sd	a0, 0x10(sp)
80000724: 86b2         	mv	a3, a2
80000726: ec36         	sd	a3, 0x18(sp)
80000728: f02a         	sd	a0, 0x20(sp)
8000072a: f42e         	sd	a1, 0x28(sp)
8000072c: 02c10ba3     	sb	a2, 0x37(sp)
80000730: 00000097     	auipc	ra, 0x0
80000734: 974080e7     	jalr	-0x68c(ra) <core::ptr::const_ptr::_$LT$impl$u20$$BP$const$u20$T$GT$::is_aligned_to::h3f6d5aba8dfd4ef3>
80000738: e119         	bnez	a0, 0x8000073e <core::ptr::write_bytes::precondition_check::he6f35d0c38b6c5de+0x22>
8000073a: a009         	j	0x8000073c <core::ptr::write_bytes::precondition_check::he6f35d0c38b6c5de+0x20>
8000073c: a029         	j	0x80000746 <core::ptr::write_bytes::precondition_check::he6f35d0c38b6c5de+0x2a>
8000073e: 6562         	ld	a0, 0x18(sp)
80000740: 8905         	andi	a0, a0, 0x1
80000742: e50d         	bnez	a0, 0x8000076c <.Lpcrel_hi0+0x24>
80000744: a00d         	j	0x80000766 <.Lpcrel_hi0+0x1e>
80000746: 66a2         	ld	a3, 0x8(sp)

0000000080000748 <.Lpcrel_hi0>:
80000748: 00007517     	auipc	a0, 0x7
8000074c: f8f50513     	addi	a0, a0, -0x71
80000750: fc2a         	sd	a0, 0x38(sp)
80000752: 0e400593     	li	a1, 0xe4
80000756: e0ae         	sd	a1, 0x40(sp)
80000758: 1c900593     	li	a1, 0x1c9
8000075c: 4601         	li	a2, 0x0
8000075e: 00006097     	auipc	ra, 0x6
80000762: 52a080e7     	jalr	0x52a(ra) <core::panicking::panic_nounwind_fmt::h2e018e50a8d3bc73>
80000766: 6542         	ld	a0, 0x10(sp)
80000768: e119         	bnez	a0, 0x8000076e <.Lpcrel_hi0+0x26>
8000076a: bff1         	j	0x80000746 <core::ptr::write_bytes::precondition_check::he6f35d0c38b6c5de+0x2a>
8000076c: a009         	j	0x8000076e <.Lpcrel_hi0+0x26>
8000076e: 60a6         	ld	ra, 0x48(sp)
80000770: 6161         	addi	sp, sp, 0x50
80000772: 8082         	ret

0000000080000774 <core::ptr::write_volatile::precondition_check::hd51c1f69e242d9d4>:
80000774: 7139         	addi	sp, sp, -0x40
80000776: fc06         	sd	ra, 0x38(sp)
80000778: e432         	sd	a2, 0x8(sp)
8000077a: e82a         	sd	a0, 0x10(sp)
8000077c: ec2e         	sd	a1, 0x18(sp)
8000077e: f02a         	sd	a0, 0x20(sp)
80000780: 00000097     	auipc	ra, 0x0
80000784: 924080e7     	jalr	-0x6dc(ra) <core::ptr::const_ptr::_$LT$impl$u20$$BP$const$u20$T$GT$::is_aligned_to::h3f6d5aba8dfd4ef3>
80000788: e115         	bnez	a0, 0x800007ac <.Lpcrel_hi1+0x1e>
8000078a: a009         	j	0x8000078c <core::ptr::write_volatile::precondition_check::hd51c1f69e242d9d4+0x18>
8000078c: 66a2         	ld	a3, 0x8(sp)

000000008000078e <.Lpcrel_hi1>:
8000078e: 00007517     	auipc	a0, 0x7
80000792: 02d50513     	addi	a0, a0, 0x2d
80000796: f42a         	sd	a0, 0x28(sp)
80000798: 0d700593     	li	a1, 0xd7
8000079c: f82e         	sd	a1, 0x30(sp)
8000079e: 1af00593     	li	a1, 0x1af
800007a2: 4601         	li	a2, 0x0
800007a4: 00006097     	auipc	ra, 0x6
800007a8: 4e4080e7     	jalr	0x4e4(ra) <core::panicking::panic_nounwind_fmt::h2e018e50a8d3bc73>
800007ac: 70e2         	ld	ra, 0x38(sp)
800007ae: 6121         	addi	sp, sp, 0x40
800007b0: 8082         	ret

00000000800007b2 <core::ptr::copy_nonoverlapping::precondition_check::h7f6ab36a3c1120d9>:
800007b2: 7175         	addi	sp, sp, -0x90
800007b4: e506         	sd	ra, 0x88(sp)
800007b6: e43e         	sd	a5, 0x8(sp)
800007b8: e83a         	sd	a4, 0x10(sp)
800007ba: ec36         	sd	a3, 0x18(sp)
800007bc: f032         	sd	a2, 0x20(sp)
800007be: f42e         	sd	a1, 0x28(sp)
800007c0: f82a         	sd	a0, 0x30(sp)
800007c2: e0aa         	sd	a0, 0x40(sp)
800007c4: e4ae         	sd	a1, 0x48(sp)
800007c6: e8b2         	sd	a2, 0x50(sp)
800007c8: ecb6         	sd	a3, 0x58(sp)
800007ca: f0ba         	sd	a4, 0x60(sp)
800007cc: e711         	bnez	a4, 0x800007d8 <core::ptr::copy_nonoverlapping::precondition_check::h7f6ab36a3c1120d9+0x26>
800007ce: a009         	j	0x800007d0 <core::ptr::copy_nonoverlapping::precondition_check::h7f6ab36a3c1120d9+0x1e>
800007d0: 4505         	li	a0, 0x1
800007d2: 02a10fa3     	sb	a0, 0x3f(sp)
800007d6: a039         	j	0x800007e4 <core::ptr::copy_nonoverlapping::precondition_check::h7f6ab36a3c1120d9+0x32>
800007d8: 7502         	ld	a0, 0x20(sp)
800007da: 00153513     	seqz	a0, a0
800007de: 02a10fa3     	sb	a0, 0x3f(sp)
800007e2: a009         	j	0x800007e4 <core::ptr::copy_nonoverlapping::precondition_check::h7f6ab36a3c1120d9+0x32>
800007e4: 65e2         	ld	a1, 0x18(sp)
800007e6: 7542         	ld	a0, 0x30(sp)
800007e8: 03f14603     	lbu	a2, 0x3f(sp)
800007ec: e032         	sd	a2, 0x0(sp)
800007ee: 06c107a3     	sb	a2, 0x6f(sp)
800007f2: 00000097     	auipc	ra, 0x0
800007f6: 8b2080e7     	jalr	-0x74e(ra) <core::ptr::const_ptr::_$LT$impl$u20$$BP$const$u20$T$GT$::is_aligned_to::h3f6d5aba8dfd4ef3>
800007fa: e119         	bnez	a0, 0x80000800 <core::ptr::copy_nonoverlapping::precondition_check::h7f6ab36a3c1120d9+0x4e>
800007fc: a009         	j	0x800007fe <core::ptr::copy_nonoverlapping::precondition_check::h7f6ab36a3c1120d9+0x4c>
800007fe: a029         	j	0x80000808 <core::ptr::copy_nonoverlapping::precondition_check::h7f6ab36a3c1120d9+0x56>
80000800: 6502         	ld	a0, 0x0(sp)
80000802: 8905         	andi	a0, a0, 0x1
80000804: e511         	bnez	a0, 0x80000810 <core::ptr::copy_nonoverlapping::precondition_check::h7f6ab36a3c1120d9+0x5e>
80000806: a011         	j	0x8000080a <core::ptr::copy_nonoverlapping::precondition_check::h7f6ab36a3c1120d9+0x58>
80000808: a831         	j	0x80000824 <core::ptr::copy_nonoverlapping::precondition_check::h7f6ab36a3c1120d9+0x72>
8000080a: 7542         	ld	a0, 0x30(sp)
8000080c: e119         	bnez	a0, 0x80000812 <core::ptr::copy_nonoverlapping::precondition_check::h7f6ab36a3c1120d9+0x60>
8000080e: bfed         	j	0x80000808 <core::ptr::copy_nonoverlapping::precondition_check::h7f6ab36a3c1120d9+0x56>
80000810: a009         	j	0x80000812 <core::ptr::copy_nonoverlapping::precondition_check::h7f6ab36a3c1120d9+0x60>
80000812: 65e2         	ld	a1, 0x18(sp)
80000814: 7522         	ld	a0, 0x28(sp)
80000816: f8aa         	sd	a0, 0x70(sp)
80000818: 00000097     	auipc	ra, 0x0
8000081c: 88c080e7     	jalr	-0x774(ra) <core::ptr::const_ptr::_$LT$impl$u20$$BP$const$u20$T$GT$::is_aligned_to::h3f6d5aba8dfd4ef3>
80000820: e501         	bnez	a0, 0x80000828 <core::ptr::copy_nonoverlapping::precondition_check::h7f6ab36a3c1120d9+0x76>
80000822: a011         	j	0x80000826 <core::ptr::copy_nonoverlapping::precondition_check::h7f6ab36a3c1120d9+0x74>
80000824: a035         	j	0x80000850 <core::ptr::copy_nonoverlapping::precondition_check::h7f6ab36a3c1120d9+0x9e>
80000826: a031         	j	0x80000832 <core::ptr::copy_nonoverlapping::precondition_check::h7f6ab36a3c1120d9+0x80>
80000828: 03f14503     	lbu	a0, 0x3f(sp)
8000082c: 8905         	andi	a0, a0, 0x1
8000082e: e511         	bnez	a0, 0x8000083a <core::ptr::copy_nonoverlapping::precondition_check::h7f6ab36a3c1120d9+0x88>
80000830: a011         	j	0x80000834 <core::ptr::copy_nonoverlapping::precondition_check::h7f6ab36a3c1120d9+0x82>
80000832: bfcd         	j	0x80000824 <core::ptr::copy_nonoverlapping::precondition_check::h7f6ab36a3c1120d9+0x72>
80000834: 7522         	ld	a0, 0x28(sp)
80000836: e119         	bnez	a0, 0x8000083c <core::ptr::copy_nonoverlapping::precondition_check::h7f6ab36a3c1120d9+0x8a>
80000838: bfed         	j	0x80000832 <core::ptr::copy_nonoverlapping::precondition_check::h7f6ab36a3c1120d9+0x80>
8000083a: a009         	j	0x8000083c <core::ptr::copy_nonoverlapping::precondition_check::h7f6ab36a3c1120d9+0x8a>
8000083c: 66c2         	ld	a3, 0x10(sp)
8000083e: 7602         	ld	a2, 0x20(sp)
80000840: 75a2         	ld	a1, 0x28(sp)
80000842: 7542         	ld	a0, 0x30(sp)
80000844: 00005097     	auipc	ra, 0x5
80000848: 31c080e7     	jalr	0x31c(ra) <core::ub_checks::maybe_is_nonoverlapping::runtime::hc724af281c56b913>
8000084c: e115         	bnez	a0, 0x80000870 <.Lpcrel_hi2+0x1e>
8000084e: a009         	j	0x80000850 <core::ptr::copy_nonoverlapping::precondition_check::h7f6ab36a3c1120d9+0x9e>
80000850: 66a2         	ld	a3, 0x8(sp)

0000000080000852 <.Lpcrel_hi2>:
80000852: 00007517     	auipc	a0, 0x7
80000856: 04050513     	addi	a0, a0, 0x40
8000085a: fcaa         	sd	a0, 0x78(sp)
8000085c: 11b00593     	li	a1, 0x11b
80000860: e12e         	sd	a1, 0x80(sp)
80000862: 23700593     	li	a1, 0x237
80000866: 4601         	li	a2, 0x0
80000868: 00006097     	auipc	ra, 0x6
8000086c: 420080e7     	jalr	0x420(ra) <core::panicking::panic_nounwind_fmt::h2e018e50a8d3bc73>
80000870: 60aa         	ld	ra, 0x88(sp)
80000872: 6149         	addi	sp, sp, 0x90
80000874: 8082         	ret

0000000080000876 <_$LT$core..str..iter..Bytes$u20$as$u20$core..iter..traits..iterator..Iterator$GT$::next::h0a55c9da049d671b>:
80000876: 7179         	addi	sp, sp, -0x30
80000878: f406         	sd	ra, 0x28(sp)
8000087a: ec2a         	sd	a0, 0x18(sp)
8000087c: 00000097     	auipc	ra, 0x0
80000880: a7e080e7     	jalr	-0x582(ra) <_$LT$core..slice..iter..Iter$LT$T$GT$$u20$as$u20$core..iter..traits..iterator..Iterator$GT$::next::h6a66d343971ff494>
80000884: e82a         	sd	a0, 0x10(sp)
80000886: 6542         	ld	a0, 0x10(sp)
80000888: cd09         	beqz	a0, 0x800008a2 <.Lpcrel_hi0>
8000088a: a009         	j	0x8000088c <_$LT$core..str..iter..Bytes$u20$as$u20$core..iter..traits..iterator..Iterator$GT$::next::h0a55c9da049d671b+0x16>
8000088c: 6542         	ld	a0, 0x10(sp)
8000088e: 00054503     	lbu	a0, 0x0(a0)
80000892: 02a103a3     	sb	a0, 0x27(sp)
80000896: 00a107a3     	sb	a0, 0xf(sp)
8000089a: 4505         	li	a0, 0x1
8000089c: 00a10723     	sb	a0, 0xe(sp)
800008a0: a831         	j	0x800008bc <.Lpcrel_hi0+0x1a>

00000000800008a2 <.Lpcrel_hi0>:
800008a2: 00007517     	auipc	a0, 0x7
800008a6: 10b50513     	addi	a0, a0, 0x10b
800008aa: 00054583     	lbu	a1, 0x0(a0)
800008ae: 00154503     	lbu	a0, 0x1(a0)
800008b2: 00b10723     	sb	a1, 0xe(sp)
800008b6: 00a107a3     	sb	a0, 0xf(sp)
800008ba: a009         	j	0x800008bc <.Lpcrel_hi0+0x1a>
800008bc: 00e14503     	lbu	a0, 0xe(sp)
800008c0: 00f14583     	lbu	a1, 0xf(sp)
800008c4: 70a2         	ld	ra, 0x28(sp)
800008c6: 6145         	addi	sp, sp, 0x30
800008c8: 8082         	ret

00000000800008ca <_$LT$$RF$T$u20$as$u20$core..fmt..Display$GT$::fmt::h50ebcd9cabeb4d1e>:
800008ca: 1101         	addi	sp, sp, -0x20
800008cc: ec06         	sd	ra, 0x18(sp)
800008ce: e42a         	sd	a0, 0x8(sp)
800008d0: e82e         	sd	a1, 0x10(sp)
800008d2: 6108         	ld	a0, 0x0(a0)
800008d4: 00006097     	auipc	ra, 0x6
800008d8: 472080e7     	jalr	0x472(ra) <_$LT$core..panic..panic_info..PanicInfo$u20$as$u20$core..fmt..Display$GT$::fmt::hcccb3fed5b673506>
800008dc: 60e2         	ld	ra, 0x18(sp)
800008de: 6105         	addi	sp, sp, 0x20
800008e0: 8082         	ret

00000000800008e2 <core::fmt::Arguments::as_statically_known_str::hc068f296c9fb8ad9>:
800008e2: 7119         	addi	sp, sp, -0x80
800008e4: fc86         	sd	ra, 0x78(sp)
800008e6: ec2a         	sd	a0, 0x18(sp)
800008e8: fc2a         	sd	a0, 0x38(sp)
800008ea: 6508         	ld	a0, 0x8(a0)
800008ec: f02a         	sd	a0, 0x20(sp)
800008ee: e0aa         	sd	a0, 0x40(sp)
800008f0: 8905         	andi	a0, a0, 0x1
800008f2: cd01         	beqz	a0, 0x8000090a <.Lpcrel_hi0>
800008f4: a009         	j	0x800008f6 <core::fmt::Arguments::as_statically_known_str::hc068f296c9fb8ad9+0x14>
800008f6: 7502         	ld	a0, 0x20(sp)
800008f8: 65e2         	ld	a1, 0x18(sp)
800008fa: 618c         	ld	a1, 0x0(a1)
800008fc: e42e         	sd	a1, 0x8(sp)
800008fe: e4ae         	sd	a1, 0x48(sp)
80000900: e8ae         	sd	a1, 0x50(sp)
80000902: 8105         	srli	a0, a0, 0x1
80000904: e82a         	sd	a0, 0x10(sp)
80000906: ecaa         	sd	a0, 0x58(sp)
80000908: a811         	j	0x8000091c <.Lpcrel_hi0+0x12>

000000008000090a <.Lpcrel_hi0>:
8000090a: 00007517     	auipc	a0, 0x7
8000090e: 0ee50513     	addi	a0, a0, 0xee
80000912: 610c         	ld	a1, 0x0(a0)
80000914: 6508         	ld	a0, 0x8(a0)
80000916: f42e         	sd	a1, 0x28(sp)
80000918: f82a         	sd	a0, 0x30(sp)
8000091a: a02d         	j	0x80000944 <.Lpcrel_hi1+0x24>
8000091c: 66c2         	ld	a3, 0x10(sp)
8000091e: 6522         	ld	a0, 0x8(sp)

0000000080000920 <.Lpcrel_hi1>:
80000920: 00007597     	auipc	a1, 0x7
80000924: 09058713     	addi	a4, a1, 0x90
80000928: 4605         	li	a2, 0x1
8000092a: 85b2         	mv	a1, a2
8000092c: 00005097     	auipc	ra, 0x5
80000930: 0f0080e7     	jalr	0xf0(ra) <core::slice::raw::from_raw_parts::precondition_check::hefd6e2a553250e17>
80000934: a009         	j	0x80000936 <.Lpcrel_hi1+0x16>
80000936: 6542         	ld	a0, 0x10(sp)
80000938: 65a2         	ld	a1, 0x8(sp)
8000093a: f0ae         	sd	a1, 0x60(sp)
8000093c: f4aa         	sd	a0, 0x68(sp)
8000093e: f42e         	sd	a1, 0x28(sp)
80000940: f82a         	sd	a0, 0x30(sp)
80000942: a009         	j	0x80000944 <.Lpcrel_hi1+0x24>
80000944: 4501         	li	a0, 0x0
80000946: 06a10ba3     	sb	a0, 0x77(sp)
8000094a: 07714503     	lbu	a0, 0x77(sp)
8000094e: 8905         	andi	a0, a0, 0x1
80000950: e919         	bnez	a0, 0x80000966 <.Lpcrel_hi2+0x12>
80000952: a009         	j	0x80000954 <.Lpcrel_hi2>

0000000080000954 <.Lpcrel_hi2>:
80000954: 00007517     	auipc	a0, 0x7
80000958: 0a450513     	addi	a0, a0, 0xa4
8000095c: 610c         	ld	a1, 0x0(a0)
8000095e: 6508         	ld	a0, 0x8(a0)
80000960: f42e         	sd	a1, 0x28(sp)
80000962: f82a         	sd	a0, 0x30(sp)
80000964: a011         	j	0x80000968 <.Lpcrel_hi2+0x14>
80000966: a009         	j	0x80000968 <.Lpcrel_hi2+0x14>
80000968: 7522         	ld	a0, 0x28(sp)
8000096a: 75c2         	ld	a1, 0x30(sp)
8000096c: 70e6         	ld	ra, 0x78(sp)
8000096e: 6109         	addi	sp, sp, 0x80
80000970: 8082         	ret

0000000080000972 <core::fmt::Arguments::from_str::h68cb319195cd7286>:
80000972: 1141         	addi	sp, sp, -0x10
80000974: e02a         	sd	a0, 0x0(sp)
80000976: e42e         	sd	a1, 0x8(sp)
80000978: 0586         	slli	a1, a1, 0x1
8000097a: 0585         	addi	a1, a1, 0x1
8000097c: 0141         	addi	sp, sp, 0x10
8000097e: 8082         	ret

0000000080000980 <core::fmt::Formatter::write_fmt::h4c92294faa6210ea>:
80000980: 715d         	addi	sp, sp, -0x50
80000982: e486         	sd	ra, 0x48(sp)
80000984: e02a         	sd	a0, 0x0(sp)
80000986: e42e         	sd	a1, 0x8(sp)
80000988: e832         	sd	a2, 0x10(sp)
8000098a: f82a         	sd	a0, 0x30(sp)
8000098c: 0028         	addi	a0, sp, 0x8
8000098e: 00000097     	auipc	ra, 0x0
80000992: f54080e7     	jalr	-0xac(ra) <core::fmt::Arguments::as_statically_known_str::hc068f296c9fb8ad9>
80000996: f02a         	sd	a0, 0x20(sp)
80000998: f42e         	sd	a1, 0x28(sp)
8000099a: 7502         	ld	a0, 0x20(sp)
8000099c: cd11         	beqz	a0, 0x800009b8 <core::fmt::Formatter::write_fmt::h4c92294faa6210ea+0x38>
8000099e: a009         	j	0x800009a0 <core::fmt::Formatter::write_fmt::h4c92294faa6210ea+0x20>
800009a0: 6682         	ld	a3, 0x0(sp)
800009a2: 7582         	ld	a1, 0x20(sp)
800009a4: 7622         	ld	a2, 0x28(sp)
800009a6: fc2e         	sd	a1, 0x38(sp)
800009a8: e0b2         	sd	a2, 0x40(sp)
800009aa: 6288         	ld	a0, 0x0(a3)
800009ac: 6694         	ld	a3, 0x8(a3)
800009ae: 6e94         	ld	a3, 0x18(a3)
800009b0: 9682         	jalr	a3
800009b2: 00a10fa3     	sb	a0, 0x1f(sp)
800009b6: a829         	j	0x800009d0 <core::fmt::Formatter::write_fmt::h4c92294faa6210ea+0x50>
800009b8: 6582         	ld	a1, 0x0(sp)
800009ba: 6188         	ld	a0, 0x0(a1)
800009bc: 658c         	ld	a1, 0x8(a1)
800009be: 6622         	ld	a2, 0x8(sp)
800009c0: 66c2         	ld	a3, 0x10(sp)
800009c2: 00006097     	auipc	ra, 0x6
800009c6: a1a080e7     	jalr	-0x5e6(ra) <core::fmt::write::hfd17e9e8e823b619>
800009ca: 00a10fa3     	sb	a0, 0x1f(sp)
800009ce: a009         	j	0x800009d0 <core::fmt::Formatter::write_fmt::h4c92294faa6210ea+0x50>
800009d0: 01f14503     	lbu	a0, 0x1f(sp)
800009d4: 60a6         	ld	ra, 0x48(sp)
800009d6: 6161         	addi	sp, sp, 0x50
800009d8: 8082         	ret

00000000800009da <core::str::_$LT$impl$u20$str$GT$::bytes::h9e591696dde50f97>:
800009da: 1141         	addi	sp, sp, -0x10
800009dc: e02a         	sd	a0, 0x0(sp)
800009de: e42e         	sd	a1, 0x8(sp)
800009e0: 95aa         	add	a1, a1, a0
800009e2: 0141         	addi	sp, sp, 0x10
800009e4: 8082         	ret
		...
800009ee: 0000         	unimp

00000000800009f0 <enter_supervisor>:
800009f0: 34151073     	csrw	mepc, a0
800009f4: 300022f3     	csrr	t0, mstatus
800009f8: 430d         	li	t1, 0x3
800009fa: 032e         	slli	t1, t1, 0xb
800009fc: fff34313     	not	t1, t1
80000a00: 0062f2b3     	and	t0, t0, t1
80000a04: 4305         	li	t1, 0x1
80000a06: 032e         	slli	t1, t1, 0xb
80000a08: 0062e2b3     	or	t0, t0, t1
80000a0c: 30029073     	csrw	mstatus, t0
80000a10: 812e         	mv	sp, a1
80000a12: 30200073     	mret

0000000080000a16 <enter_user_task>:
80000a16: 8faa         	mv	t6, a0
80000a18: 14059073     	csrw	sscratch, a1
80000a1c: 0f8fb283     	ld	t0, 0xf8(t6)
80000a20: 14129073     	csrw	sepc, t0
80000a24: 100022f3     	csrr	t0, sstatus
80000a28: 12200313     	li	t1, 0x122
80000a2c: fff34313     	not	t1, t1
80000a30: 0062f2b3     	and	t0, t0, t1
80000a34: 02000313     	li	t1, 0x20
80000a38: 0062e2b3     	or	t0, t0, t1
80000a3c: 10029073     	csrw	sstatus, t0
80000a40: 000fb083     	ld	ra, 0x0(t6)
80000a44: 008fb183     	ld	gp, 0x8(t6)
80000a48: 010fb203     	ld	tp, 0x10(t6)
80000a4c: 018fb283     	ld	t0, 0x18(t6)
80000a50: 020fb303     	ld	t1, 0x20(t6)
80000a54: 028fb383     	ld	t2, 0x28(t6)
80000a58: 030fb403     	ld	s0, 0x30(t6)
80000a5c: 038fb483     	ld	s1, 0x38(t6)
80000a60: 040fb503     	ld	a0, 0x40(t6)
80000a64: 048fb583     	ld	a1, 0x48(t6)
80000a68: 050fb603     	ld	a2, 0x50(t6)
80000a6c: 058fb683     	ld	a3, 0x58(t6)
80000a70: 060fb703     	ld	a4, 0x60(t6)
80000a74: 068fb783     	ld	a5, 0x68(t6)
80000a78: 070fb803     	ld	a6, 0x70(t6)
80000a7c: 078fb883     	ld	a7, 0x78(t6)
80000a80: 080fb903     	ld	s2, 0x80(t6)
80000a84: 088fb983     	ld	s3, 0x88(t6)
80000a88: 090fba03     	ld	s4, 0x90(t6)
80000a8c: 098fba83     	ld	s5, 0x98(t6)
80000a90: 0a0fbb03     	ld	s6, 0xa0(t6)
80000a94: 0a8fbb83     	ld	s7, 0xa8(t6)
80000a98: 0b0fbc03     	ld	s8, 0xb0(t6)
80000a9c: 0b8fbc83     	ld	s9, 0xb8(t6)
80000aa0: 0c0fbd03     	ld	s10, 0xc0(t6)
80000aa4: 0c8fbd83     	ld	s11, 0xc8(t6)
80000aa8: 0d0fbe03     	ld	t3, 0xd0(t6)
80000aac: 0d8fbe83     	ld	t4, 0xd8(t6)
80000ab0: 0e0fbf03     	ld	t5, 0xe0(t6)
80000ab4: 0f0fb103     	ld	sp, 0xf0(t6)
80000ab8: 0e8fbf83     	ld	t6, 0xe8(t6)
80000abc: 10200073     	sret

0000000080000ac0 <machine_trap_entry>:
80000ac0: 34011173     	csrrw	sp, mscratch, sp
80000ac4: 7111         	addi	sp, sp, -0x100
80000ac6: e006         	sd	ra, 0x0(sp)
80000ac8: e40e         	sd	gp, 0x8(sp)
80000aca: e812         	sd	tp, 0x10(sp)
80000acc: ec16         	sd	t0, 0x18(sp)
80000ace: f01a         	sd	t1, 0x20(sp)
80000ad0: f41e         	sd	t2, 0x28(sp)
80000ad2: f822         	sd	s0, 0x30(sp)
80000ad4: fc26         	sd	s1, 0x38(sp)
80000ad6: e0aa         	sd	a0, 0x40(sp)
80000ad8: e4ae         	sd	a1, 0x48(sp)
80000ada: e8b2         	sd	a2, 0x50(sp)
80000adc: ecb6         	sd	a3, 0x58(sp)
80000ade: f0ba         	sd	a4, 0x60(sp)
80000ae0: f4be         	sd	a5, 0x68(sp)
80000ae2: f8c2         	sd	a6, 0x70(sp)
80000ae4: fcc6         	sd	a7, 0x78(sp)
80000ae6: e14a         	sd	s2, 0x80(sp)
80000ae8: e54e         	sd	s3, 0x88(sp)
80000aea: e952         	sd	s4, 0x90(sp)
80000aec: ed56         	sd	s5, 0x98(sp)
80000aee: f15a         	sd	s6, 0xa0(sp)
80000af0: f55e         	sd	s7, 0xa8(sp)
80000af2: f962         	sd	s8, 0xb0(sp)
80000af4: fd66         	sd	s9, 0xb8(sp)
80000af6: e1ea         	sd	s10, 0xc0(sp)
80000af8: e5ee         	sd	s11, 0xc8(sp)
80000afa: e9f2         	sd	t3, 0xd0(sp)
80000afc: edf6         	sd	t4, 0xd8(sp)
80000afe: f1fa         	sd	t5, 0xe0(sp)
80000b00: f5fe         	sd	t6, 0xe8(sp)
80000b02: 340022f3     	csrr	t0, mscratch
80000b06: f996         	sd	t0, 0xf0(sp)
80000b08: 341022f3     	csrr	t0, mepc
80000b0c: fd96         	sd	t0, 0xf8(sp)
80000b0e: 850a         	mv	a0, sp
80000b10: 00004097     	auipc	ra, 0x4
80000b14: 77e080e7     	jalr	0x77e(ra) <handle_machine_trap>
80000b18: 72ee         	ld	t0, 0xf8(sp)
80000b1a: 34129073     	csrw	mepc, t0
80000b1e: 72ce         	ld	t0, 0xf0(sp)
80000b20: 34029073     	csrw	mscratch, t0
80000b24: 6082         	ld	ra, 0x0(sp)
80000b26: 61a2         	ld	gp, 0x8(sp)
80000b28: 6242         	ld	tp, 0x10(sp)
80000b2a: 62e2         	ld	t0, 0x18(sp)
80000b2c: 7302         	ld	t1, 0x20(sp)
80000b2e: 73a2         	ld	t2, 0x28(sp)
80000b30: 7442         	ld	s0, 0x30(sp)
80000b32: 74e2         	ld	s1, 0x38(sp)
80000b34: 6506         	ld	a0, 0x40(sp)
80000b36: 65a6         	ld	a1, 0x48(sp)
80000b38: 6646         	ld	a2, 0x50(sp)
80000b3a: 66e6         	ld	a3, 0x58(sp)
80000b3c: 7706         	ld	a4, 0x60(sp)
80000b3e: 77a6         	ld	a5, 0x68(sp)
80000b40: 7846         	ld	a6, 0x70(sp)
80000b42: 78e6         	ld	a7, 0x78(sp)
80000b44: 690a         	ld	s2, 0x80(sp)
80000b46: 69aa         	ld	s3, 0x88(sp)
80000b48: 6a4a         	ld	s4, 0x90(sp)
80000b4a: 6aea         	ld	s5, 0x98(sp)
80000b4c: 7b0a         	ld	s6, 0xa0(sp)
80000b4e: 7baa         	ld	s7, 0xa8(sp)
80000b50: 7c4a         	ld	s8, 0xb0(sp)
80000b52: 7cea         	ld	s9, 0xb8(sp)
80000b54: 6d0e         	ld	s10, 0xc0(sp)
80000b56: 6dae         	ld	s11, 0xc8(sp)
80000b58: 6e4e         	ld	t3, 0xd0(sp)
80000b5a: 6eee         	ld	t4, 0xd8(sp)
80000b5c: 7f0e         	ld	t5, 0xe0(sp)
80000b5e: 7fae         	ld	t6, 0xe8(sp)
80000b60: 6111         	addi	sp, sp, 0x100
80000b62: 34011173     	csrrw	sp, mscratch, sp
80000b66: 30200073     	mret
80000b6a: 0001         	nop
80000b6c: 00000013     	nop

0000000080000b70 <supervisor_trap_entry>:
80000b70: 14011173     	csrrw	sp, sscratch, sp
80000b74: 7111         	addi	sp, sp, -0x100
80000b76: e006         	sd	ra, 0x0(sp)
80000b78: e40e         	sd	gp, 0x8(sp)
80000b7a: e812         	sd	tp, 0x10(sp)
80000b7c: ec16         	sd	t0, 0x18(sp)
80000b7e: f01a         	sd	t1, 0x20(sp)
80000b80: f41e         	sd	t2, 0x28(sp)
80000b82: f822         	sd	s0, 0x30(sp)
80000b84: fc26         	sd	s1, 0x38(sp)
80000b86: e0aa         	sd	a0, 0x40(sp)
80000b88: e4ae         	sd	a1, 0x48(sp)
80000b8a: e8b2         	sd	a2, 0x50(sp)
80000b8c: ecb6         	sd	a3, 0x58(sp)
80000b8e: f0ba         	sd	a4, 0x60(sp)
80000b90: f4be         	sd	a5, 0x68(sp)
80000b92: f8c2         	sd	a6, 0x70(sp)
80000b94: fcc6         	sd	a7, 0x78(sp)
80000b96: e14a         	sd	s2, 0x80(sp)
80000b98: e54e         	sd	s3, 0x88(sp)
80000b9a: e952         	sd	s4, 0x90(sp)
80000b9c: ed56         	sd	s5, 0x98(sp)
80000b9e: f15a         	sd	s6, 0xa0(sp)
80000ba0: f55e         	sd	s7, 0xa8(sp)
80000ba2: f962         	sd	s8, 0xb0(sp)
80000ba4: fd66         	sd	s9, 0xb8(sp)
80000ba6: e1ea         	sd	s10, 0xc0(sp)
80000ba8: e5ee         	sd	s11, 0xc8(sp)
80000baa: e9f2         	sd	t3, 0xd0(sp)
80000bac: edf6         	sd	t4, 0xd8(sp)
80000bae: f1fa         	sd	t5, 0xe0(sp)
80000bb0: f5fe         	sd	t6, 0xe8(sp)
80000bb2: 140022f3     	csrr	t0, sscratch
80000bb6: f996         	sd	t0, 0xf0(sp)
80000bb8: 141022f3     	csrr	t0, sepc
80000bbc: fd96         	sd	t0, 0xf8(sp)
80000bbe: 850a         	mv	a0, sp
80000bc0: 00004097     	auipc	ra, 0x4
80000bc4: 762080e7     	jalr	0x762(ra) <handle_supervisor_trap>
80000bc8: 72ee         	ld	t0, 0xf8(sp)
80000bca: 14129073     	csrw	sepc, t0
80000bce: 72ce         	ld	t0, 0xf0(sp)
80000bd0: 14029073     	csrw	sscratch, t0
80000bd4: 6082         	ld	ra, 0x0(sp)
80000bd6: 61a2         	ld	gp, 0x8(sp)
80000bd8: 6242         	ld	tp, 0x10(sp)
80000bda: 62e2         	ld	t0, 0x18(sp)
80000bdc: 7302         	ld	t1, 0x20(sp)
80000bde: 73a2         	ld	t2, 0x28(sp)
80000be0: 7442         	ld	s0, 0x30(sp)
80000be2: 74e2         	ld	s1, 0x38(sp)
80000be4: 6506         	ld	a0, 0x40(sp)
80000be6: 65a6         	ld	a1, 0x48(sp)
80000be8: 6646         	ld	a2, 0x50(sp)
80000bea: 66e6         	ld	a3, 0x58(sp)
80000bec: 7706         	ld	a4, 0x60(sp)
80000bee: 77a6         	ld	a5, 0x68(sp)
80000bf0: 7846         	ld	a6, 0x70(sp)
80000bf2: 78e6         	ld	a7, 0x78(sp)
80000bf4: 690a         	ld	s2, 0x80(sp)
80000bf6: 69aa         	ld	s3, 0x88(sp)
80000bf8: 6a4a         	ld	s4, 0x90(sp)
80000bfa: 6aea         	ld	s5, 0x98(sp)
80000bfc: 7b0a         	ld	s6, 0xa0(sp)
80000bfe: 7baa         	ld	s7, 0xa8(sp)
80000c00: 7c4a         	ld	s8, 0xb0(sp)
80000c02: 7cea         	ld	s9, 0xb8(sp)
80000c04: 6d0e         	ld	s10, 0xc0(sp)
80000c06: 6dae         	ld	s11, 0xc8(sp)
80000c08: 6e4e         	ld	t3, 0xd0(sp)
80000c0a: 6eee         	ld	t4, 0xd8(sp)
80000c0c: 7f0e         	ld	t5, 0xe0(sp)
80000c0e: 7fae         	ld	t6, 0xe8(sp)
80000c10: 6111         	addi	sp, sp, 0x100
80000c12: 14011173     	csrrw	sp, sscratch, sp
80000c16: 10200073     	sret
80000c1a: 0001         	nop
80000c1c: 00000013     	nop

0000000080000c20 <__user_program_start>:
80000c20: 00401437     	lui	s0, 0x401
80000c24: 4885         	li	a7, 0x1
80000c26: 00000073     	ecall
80000c2a: c915         	beqz	a0, 0x80000c5e <__user_program_start+0x3e>
80000c2c: 6004         	ld	s1, 0x0(s0)
80000c2e: 4889         	li	a7, 0x2
80000c30: 00000073     	ecall
80000c34: 00043903     	ld	s2, 0x0(s0)
80000c38: d08e72b7     	lui	t0, 0xd08e7
80000c3c: 1286         	slli	t0, t0, 0x21
80000c3e: 0289         	addi	t0, t0, 0x2
80000c40: 00543023     	sd	t0, 0x0(s0)
80000c44: 00043983     	ld	s3, 0x0(s0)
80000c48: 85a6         	mv	a1, s1
80000c4a: 864a         	mv	a2, s2
80000c4c: 86ce         	mv	a3, s3
80000c4e: 488d         	li	a7, 0x3
80000c50: 00000073     	ecall
80000c54: 4501         	li	a0, 0x0
80000c56: 4891         	li	a7, 0x4
80000c58: 00000073     	ecall
80000c5c: a02d         	j	0x80000c86 <__user_program_start+0x66>
80000c5e: 6004         	ld	s1, 0x0(s0)
80000c60: ffe082b7     	lui	t0, 0xffe08
80000c64: 12dd         	addi	t0, t0, -0x9
80000c66: 12a6         	slli	t0, t0, 0x29
80000c68: 0285         	addi	t0, t0, 0x1
80000c6a: 00543023     	sd	t0, 0x0(s0)
80000c6e: 00043903     	ld	s2, 0x0(s0)
80000c72: 85a6         	mv	a1, s1
80000c74: 864a         	mv	a2, s2
80000c76: 4681         	li	a3, 0x0
80000c78: 488d         	li	a7, 0x3
80000c7a: 00000073     	ecall
80000c7e: 4501         	li	a0, 0x0
80000c80: 4891         	li	a7, 0x4
80000c82: 00000073     	ecall
80000c86: a001         	j	0x80000c86 <__user_program_start+0x66>

0000000080000c88 <__user_program_end>:
80000c88: 7139         	addi	sp, sp, -0x40
80000c8a: fc06         	sd	ra, 0x38(sp)
80000c8c: e42a         	sd	a0, 0x8(sp)
80000c8e: 002c         	addi	a1, sp, 0x8
80000c90: f82e         	sd	a1, 0x30(sp)
80000c92: 1008         	addi	a0, sp, 0x20
80000c94: fffff097     	auipc	ra, 0xfffff
80000c98: 7f6080e7     	jalr	0x7f6(ra) <core::fmt::rt::Argument::new_display::ha2ba89c9c0ea3f22>
80000c9c: 7522         	ld	a0, 0x28(sp)
80000c9e: ec2a         	sd	a0, 0x18(sp)
80000ca0: 7502         	ld	a0, 0x20(sp)
80000ca2: e82a         	sd	a0, 0x10(sp)

0000000080000ca4 <.Lpcrel_hi1>:
80000ca4: 00006517     	auipc	a0, 0x6
80000ca8: 41350513     	addi	a0, a0, 0x413
80000cac: 080c         	addi	a1, sp, 0x10
80000cae: 00005097     	auipc	ra, 0x5
80000cb2: c72080e7     	jalr	-0x38e(ra) <core::fmt::Arguments::new::h7ec3e27f361148b5>
80000cb6: fffff097     	auipc	ra, 0xfffff
80000cba: 4dc080e7     	jalr	0x4dc(ra) <lab4_kernel_task3::console::print::h3e60aa2d39f23b20>
80000cbe: 4505         	li	a0, 0x1
80000cc0: 00004097     	auipc	ra, 0x4
80000cc4: 2ec080e7     	jalr	0x2ec(ra) <lab4_kernel_task3::qemu_exit::hbc34671da0810e27>

0000000080000cc8 <lab4_kernel_task3::WalkResult::zeroed::h33bf2513843f2edb>:
80000cc8: 85aa         	mv	a1, a0
80000cca: 4501         	li	a0, 0x0
80000ccc: e188         	sd	a0, 0x0(a1)
80000cce: e588         	sd	a0, 0x8(a1)
80000cd0: e988         	sd	a0, 0x10(a1)
80000cd2: ed88         	sd	a0, 0x18(a1)
80000cd4: f188         	sd	a0, 0x20(a1)
80000cd6: f588         	sd	a0, 0x28(a1)
80000cd8: 567d         	li	a2, -0x1
80000cda: f990         	sd	a2, 0x30(a1)
80000cdc: fd88         	sd	a0, 0x38(a1)
80000cde: 8082         	ret

0000000080000ce0 <lab4_kernel_task3::align_down::ha358e04d69f573b1>:
80000ce0: 1101         	addi	sp, sp, -0x20
80000ce2: e02a         	sd	a0, 0x0(sp)
80000ce4: e82a         	sd	a0, 0x10(sp)
80000ce6: ec2e         	sd	a1, 0x18(sp)
80000ce8: fff58513     	addi	a0, a1, -0x1
80000cec: e42a         	sd	a0, 0x8(sp)
80000cee: c989         	beqz	a1, 0x80000d00 <.Lpcrel_hi2>
80000cf0: a009         	j	0x80000cf2 <lab4_kernel_task3::align_down::ha358e04d69f573b1+0x12>
80000cf2: 6502         	ld	a0, 0x0(sp)
80000cf4: 65a2         	ld	a1, 0x8(sp)
80000cf6: fff5c593     	not	a1, a1
80000cfa: 8d6d         	and	a0, a0, a1
80000cfc: 6105         	addi	sp, sp, 0x20
80000cfe: 8082         	ret

0000000080000d00 <.Lpcrel_hi2>:
80000d00: 00007517     	auipc	a0, 0x7
80000d04: d2850513     	addi	a0, a0, -0x2d8
80000d08: 00006097     	auipc	ra, 0x6
80000d0c: f08080e7     	jalr	-0xf8(ra) <core::panicking::panic_const::panic_const_sub_overflow::hccc965ba9198de7c>

0000000080000d10 <lab4_kernel_task3::print_walk::h2184069fbc37da8e>:
80000d10: 7175         	addi	sp, sp, -0x90
80000d12: e506         	sd	ra, 0x88(sp)
80000d14: ec36         	sd	a3, 0x18(sp)
80000d16: 86b2         	mv	a3, a2
80000d18: 6662         	ld	a2, 0x18(sp)
80000d1a: e836         	sd	a3, 0x10(sp)
80000d1c: 86ae         	mv	a3, a1
80000d1e: 65c2         	ld	a1, 0x10(sp)
80000d20: e436         	sd	a3, 0x8(sp)
80000d22: 86aa         	mv	a3, a0
80000d24: 6522         	ld	a0, 0x8(sp)
80000d26: e036         	sd	a3, 0x0(sp)
80000d28: f4b6         	sd	a3, 0x68(sp)
80000d2a: f8aa         	sd	a0, 0x70(sp)
80000d2c: fcae         	sd	a1, 0x78(sp)
80000d2e: e132         	sd	a2, 0x80(sp)
80000d30: 1028         	addi	a0, sp, 0x28
80000d32: f02a         	sd	a0, 0x20(sp)
80000d34: 00002097     	auipc	ra, 0x2
80000d38: a8a080e7     	jalr	-0x576(ra) <lab4_kernel_task3::walk_proc_virtual::h08c829cfb27276f9>
80000d3c: 6502         	ld	a0, 0x0(sp)
80000d3e: 65a2         	ld	a1, 0x8(sp)
80000d40: 6642         	ld	a2, 0x10(sp)
80000d42: 66e2         	ld	a3, 0x18(sp)
80000d44: 7702         	ld	a4, 0x20(sp)
80000d46: 00002097     	auipc	ra, 0x2
80000d4a: 890080e7     	jalr	-0x770(ra) <lab4_kernel_task3::print_walk_result::hcf69bf9dcb7f322d>
80000d4e: 60aa         	ld	ra, 0x88(sp)
80000d50: 6149         	addi	sp, sp, 0x90
80000d52: 8082         	ret

0000000080000d54 <lab4_kernel_task3::read_mtval::h7cf39aac5c03fe8c>:
80000d54: 1141         	addi	sp, sp, -0x10
80000d56: 34302573     	csrr	a0, mtval
80000d5a: e42a         	sd	a0, 0x8(sp)
80000d5c: 6522         	ld	a0, 0x8(sp)
80000d5e: 0141         	addi	sp, sp, 0x10
80000d60: 8082         	ret

0000000080000d62 <lab4_kernel_task3::read_stval::h464f0e4ae3eb10b9>:
80000d62: 1141         	addi	sp, sp, -0x10
80000d64: 14302573     	csrr	a0, stval
80000d68: e42a         	sd	a0, 0x8(sp)
80000d6a: 6522         	ld	a0, 0x8(sp)
80000d6c: 0141         	addi	sp, sp, 0x10
80000d6e: 8082         	ret

0000000080000d70 <lab4_kernel_task3::vpn0_index::hb3d9a13406bd3e5b>:
80000d70: 1141         	addi	sp, sp, -0x10
80000d72: e42a         	sd	a0, 0x8(sp)
80000d74: 152e         	slli	a0, a0, 0x2b
80000d76: 915d         	srli	a0, a0, 0x37
80000d78: 0141         	addi	sp, sp, 0x10
80000d7a: 8082         	ret

0000000080000d7c <lab4_kernel_task3::vpn1_index::h600273506eb14c53>:
80000d7c: 1141         	addi	sp, sp, -0x10
80000d7e: e42a         	sd	a0, 0x8(sp)
80000d80: 150a         	slli	a0, a0, 0x22
80000d82: 915d         	srli	a0, a0, 0x37
80000d84: 0141         	addi	sp, sp, 0x10
80000d86: 8082         	ret

0000000080000d88 <lab4_kernel_task3::vpn2_index::hd344ee0f6277009a>:
80000d88: 1141         	addi	sp, sp, -0x10
80000d8a: e42a         	sd	a0, 0x8(sp)
80000d8c: 0566         	slli	a0, a0, 0x19
80000d8e: 915d         	srli	a0, a0, 0x37
80000d90: 0141         	addi	sp, sp, 0x10
80000d92: 8082         	ret

0000000080000d94 <lab4_kernel_task3::kernel_fail::h7f3f223a61b29f30>:
80000d94: 7139         	addi	sp, sp, -0x40
80000d96: fc06         	sd	ra, 0x38(sp)
80000d98: e02a         	sd	a0, 0x0(sp)
80000d9a: e42e         	sd	a1, 0x8(sp)
80000d9c: 858a         	mv	a1, sp
80000d9e: f82e         	sd	a1, 0x30(sp)
80000da0: 1008         	addi	a0, sp, 0x20
80000da2: fffff097     	auipc	ra, 0xfffff
80000da6: 6c6080e7     	jalr	0x6c6(ra) <core::fmt::rt::Argument::new_display::h9f9b427687f4ac37>
80000daa: 7522         	ld	a0, 0x28(sp)
80000dac: ec2a         	sd	a0, 0x18(sp)
80000dae: 7502         	ld	a0, 0x20(sp)
80000db0: e82a         	sd	a0, 0x10(sp)

0000000080000db2 <.Lpcrel_hi3>:
80000db2: 00006517     	auipc	a0, 0x6
80000db6: 29650513     	addi	a0, a0, 0x296
80000dba: 080c         	addi	a1, sp, 0x10
80000dbc: 00005097     	auipc	ra, 0x5
80000dc0: bc8080e7     	jalr	-0x438(ra) <core::fmt::Arguments::new::hf4580589943d78b2>
80000dc4: fffff097     	auipc	ra, 0xfffff
80000dc8: 3ce080e7     	jalr	0x3ce(ra) <lab4_kernel_task3::console::print::h3e60aa2d39f23b20>
80000dcc: 4505         	li	a0, 0x1
80000dce: 00004097     	auipc	ra, 0x4
80000dd2: 1de080e7     	jalr	0x1de(ra) <lab4_kernel_task3::qemu_exit::hbc34671da0810e27>

0000000080000dd6 <lab4_kernel_task3::pte_has_cow::h30f20c31b6a93a62>:
80000dd6: 1141         	addi	sp, sp, -0x10
80000dd8: e42a         	sd	a0, 0x8(sp)
80000dda: 155e         	slli	a0, a0, 0x37
80000ddc: 917d         	srli	a0, a0, 0x3f
80000dde: 0141         	addi	sp, sp, 0x10
80000de0: 8082         	ret

0000000080000de2 <lab4_kernel_task3::pte_is_leaf::he6b02b3111dc6c8a>:
80000de2: 1141         	addi	sp, sp, -0x10
80000de4: e42a         	sd	a0, 0x8(sp)
80000de6: 8939         	andi	a0, a0, 0xe
80000de8: 00a03533     	snez	a0, a0
80000dec: 0141         	addi	sp, sp, 0x10
80000dee: 8082         	ret

0000000080000df0 <lab4_kernel_task3::read_mcause::h6cb2e13ca52b85a5>:
80000df0: 1141         	addi	sp, sp, -0x10
80000df2: 34202573     	csrr	a0, mcause
80000df6: e42a         	sd	a0, 0x8(sp)
80000df8: 6522         	ld	a0, 0x8(sp)
80000dfa: 0141         	addi	sp, sp, 0x10
80000dfc: 8082         	ret

0000000080000dfe <lab4_kernel_task3::read_scause::hdc6ffe1885d90ca2>:
80000dfe: 1141         	addi	sp, sp, -0x10
80000e00: 14202573     	csrr	a0, scause
80000e04: e42a         	sd	a0, 0x8(sp)
80000e06: 6522         	ld	a0, 0x8(sp)
80000e08: 0141         	addi	sp, sp, 0x10
80000e0a: 8082         	ret

0000000080000e0c <lab4_kernel_task3::make_cow_pte::ha691fdab8e7447f8>:
80000e0c: 1141         	addi	sp, sp, -0x10
80000e0e: e406         	sd	ra, 0x8(sp)
80000e10: e02a         	sd	a0, 0x0(sp)
80000e12: 15200593     	li	a1, 0x152
80000e16: 00004097     	auipc	ra, 0x4
80000e1a: 046080e7     	jalr	0x46(ra) <lab4_kernel_task3::leaf_pte::h8fee59baeede6e06>
80000e1e: 60a2         	ld	ra, 0x8(sp)
80000e20: 0141         	addi	sp, sp, 0x10
80000e22: 8082         	ret

0000000080000e24 <lab4_kernel_task3::pte_is_valid::hc73f6723d9ce6bbc>:
80000e24: 1141         	addi	sp, sp, -0x10
80000e26: e42a         	sd	a0, 0x8(sp)
80000e28: 8905         	andi	a0, a0, 0x1
80000e2a: 0141         	addi	sp, sp, 0x10
80000e2c: 8082         	ret

0000000080000e2e <lab4_kernel_task3::ProcessReport::empty::h3eb203d13d09d34c>:
80000e2e: 85aa         	mv	a1, a0
80000e30: 4501         	li	a0, 0x0
80000e32: 00a58c23     	sb	a0, 0x18(a1)
80000e36: e188         	sd	a0, 0x0(a1)
80000e38: e588         	sd	a0, 0x8(a1)
80000e3a: e988         	sd	a0, 0x10(a1)
80000e3c: 8082         	ret

0000000080000e3e <lab4_kernel_task3::build_process::heda97c6c0013b29d>:
80000e3e: 7131         	addi	sp, sp, -0xc0
80000e40: fd06         	sd	ra, 0xb8(sp)
80000e42: f8ae         	sd	a1, 0x70(sp)
80000e44: fcaa         	sd	a0, 0x78(sp)
80000e46: f52a         	sd	a0, 0xa8(sp)
80000e48: f92e         	sd	a1, 0xb0(sp)
80000e4a: 00002097     	auipc	ra, 0x2
80000e4e: 326080e7     	jalr	0x326(ra) <lab4_kernel_task3::proc_root_table_ptr::ha2542f84bb5e9772>
80000e52: 00001097     	auipc	ra, 0x1
80000e56: 8a8080e7     	jalr	-0x758(ra) <lab4_kernel_task3::clear_page_table::h4f5c9fc58ff8e20c>
80000e5a: 7566         	ld	a0, 0x78(sp)
80000e5c: 00002097     	auipc	ra, 0x2
80000e60: 780080e7     	jalr	0x780(ra) <lab4_kernel_task3::proc_low_l1_table_ptr::h5b1c7dc9ac863b8c>
80000e64: 00001097     	auipc	ra, 0x1
80000e68: 896080e7     	jalr	-0x76a(ra) <lab4_kernel_task3::clear_page_table::h4f5c9fc58ff8e20c>
80000e6c: 7566         	ld	a0, 0x78(sp)
80000e6e: 00003097     	auipc	ra, 0x3
80000e72: f68080e7     	jalr	-0x98(ra) <lab4_kernel_task3::proc_user_l0_table_ptr::h38b1b6507094906b>
80000e76: 00001097     	auipc	ra, 0x1
80000e7a: 884080e7     	jalr	-0x77c(ra) <lab4_kernel_task3::clear_page_table::h4f5c9fc58ff8e20c>
80000e7e: 00002097     	auipc	ra, 0x2
80000e82: 2b0080e7     	jalr	0x2b0(ra) <lab4_kernel_task3::kernel_l1_table_pa::hb0faec3a585ab7e0>
80000e86: 00004097     	auipc	ra, 0x4
80000e8a: 16e080e7     	jalr	0x16e(ra) <lab4_kernel_task3::table_pte::h0bc0e32cb79463bf>
80000e8e: 75e6         	ld	a1, 0x78(sp)
80000e90: e12a         	sd	a0, 0x80(sp)
80000e92: 4505         	li	a0, 0x1
80000e94: 02b56063     	bltu	a0, a1, 0x80000eb4 <lab4_kernel_task3::build_process::heda97c6c0013b29d+0x76>
80000e98: a009         	j	0x80000e9a <lab4_kernel_task3::build_process::heda97c6c0013b29d+0x5c>
80000e9a: 4505         	li	a0, 0x1
80000e9c: 057e         	slli	a0, a0, 0x1f
80000e9e: 00000097     	auipc	ra, 0x0
80000ea2: eea080e7     	jalr	-0x116(ra) <lab4_kernel_task3::vpn2_index::hd344ee0f6277009a>
80000ea6: 85aa         	mv	a1, a0
80000ea8: f4ae         	sd	a1, 0x68(sp)
80000eaa: 20000593     	li	a1, 0x200
80000eae: 00b56d63     	bltu	a0, a1, 0x80000ec8 <.Lpcrel_hi5>
80000eb2: a015         	j	0x80000ed6 <.Lpcrel_hi5+0xe>
80000eb4: 7566         	ld	a0, 0x78(sp)

0000000080000eb6 <.Lpcrel_hi4>:
80000eb6: 00007597     	auipc	a1, 0x7
80000eba: b8a58613     	addi	a2, a1, -0x476
80000ebe: 4589         	li	a1, 0x2
80000ec0: 00006097     	auipc	ra, 0x6
80000ec4: d8c080e7     	jalr	-0x274(ra) <core::panicking::panic_bounds_check::h6aaee0d15e0261eb>

0000000080000ec8 <.Lpcrel_hi5>:
80000ec8: 00011517     	auipc	a0, 0x11
80000ecc: 13850513     	addi	a0, a0, 0x138
80000ed0: 1552         	slli	a0, a0, 0x34
80000ed2: cd09         	beqz	a0, 0x80000eec <.Lpcrel_hi7>
80000ed4: a015         	j	0x80000ef8 <.Lpcrel_hi8>
80000ed6: 7526         	ld	a0, 0x68(sp)

0000000080000ed8 <.Lpcrel_hi6>:
80000ed8: 00007597     	auipc	a1, 0x7
80000edc: b6858613     	addi	a2, a1, -0x498
80000ee0: 20000593     	li	a1, 0x200
80000ee4: 00006097     	auipc	ra, 0x6
80000ee8: d68080e7     	jalr	-0x298(ra) <core::panicking::panic_bounds_check::h6aaee0d15e0261eb>

0000000080000eec <.Lpcrel_hi7>:
80000eec: 00011517     	auipc	a0, 0x11
80000ef0: 11450513     	addi	a0, a0, 0x114
80000ef4: ed19         	bnez	a0, 0x80000f12 <.Lpcrel_hi9+0x12>
80000ef6: a891         	j	0x80000f4a <.Lpcrel_hi11>

0000000080000ef8 <.Lpcrel_hi8>:
80000ef8: 00011517     	auipc	a0, 0x11
80000efc: 10850593     	addi	a1, a0, 0x108

0000000080000f00 <.Lpcrel_hi9>:
80000f00: 00007517     	auipc	a0, 0x7
80000f04: b4050613     	addi	a2, a0, -0x4c0
80000f08: 6505         	lui	a0, 0x1
80000f0a: 00006097     	auipc	ra, 0x6
80000f0e: dce080e7     	jalr	-0x232(ra) <core::panicking::panic_misaligned_pointer_dereference::hda85f7fb51d959f0>
80000f12: 7566         	ld	a0, 0x78(sp)
80000f14: 658a         	ld	a1, 0x80(sp)
80000f16: 76a6         	ld	a3, 0x68(sp)
80000f18: 00c51713     	slli	a4, a0, 0xc

0000000080000f1c <.Lpcrel_hi10>:
80000f1c: 00011617     	auipc	a2, 0x11
80000f20: 0e460613     	addi	a2, a2, 0xe4
80000f24: 963a         	add	a2, a2, a4
80000f26: 068e         	slli	a3, a3, 0x3
80000f28: 9636         	add	a2, a2, a3
80000f2a: e20c         	sd	a1, 0x0(a2)
80000f2c: 00002097     	auipc	ra, 0x2
80000f30: 2ea080e7     	jalr	0x2ea(ra) <lab4_kernel_task3::proc_low_l1_table_pa::h31199dd75bf7b0ca>
80000f34: 00004097     	auipc	ra, 0x4
80000f38: 0c0080e7     	jalr	0xc0(ra) <lab4_kernel_task3::table_pte::h0bc0e32cb79463bf>
80000f3c: 85aa         	mv	a1, a0
80000f3e: 7566         	ld	a0, 0x78(sp)
80000f40: f0ae         	sd	a1, 0x60(sp)
80000f42: 4589         	li	a1, 0x2
80000f44: 00b56b63     	bltu	a0, a1, 0x80000f5a <.Lpcrel_hi11+0x10>
80000f48: a035         	j	0x80000f74 <.Lpcrel_hi11+0x2a>

0000000080000f4a <.Lpcrel_hi11>:
80000f4a: 00007517     	auipc	a0, 0x7
80000f4e: af650513     	addi	a0, a0, -0x50a
80000f52: 00006097     	auipc	ra, 0x6
80000f56: d66080e7     	jalr	-0x29a(ra) <core::panicking::panic_null_pointer_dereference::hbac6411af4f2e916>
80000f5a: 00400537     	lui	a0, 0x400
80000f5e: 00000097     	auipc	ra, 0x0
80000f62: e2a080e7     	jalr	-0x1d6(ra) <lab4_kernel_task3::vpn2_index::hd344ee0f6277009a>
80000f66: 85aa         	mv	a1, a0
80000f68: ecae         	sd	a1, 0x58(sp)
80000f6a: 20000593     	li	a1, 0x200
80000f6e: 00b56d63     	bltu	a0, a1, 0x80000f88 <.Lpcrel_hi13>
80000f72: a015         	j	0x80000f96 <.Lpcrel_hi13+0xe>
80000f74: 7566         	ld	a0, 0x78(sp)

0000000080000f76 <.Lpcrel_hi12>:
80000f76: 00007597     	auipc	a1, 0x7
80000f7a: ae258613     	addi	a2, a1, -0x51e
80000f7e: 4589         	li	a1, 0x2
80000f80: 00006097     	auipc	ra, 0x6
80000f84: ccc080e7     	jalr	-0x334(ra) <core::panicking::panic_bounds_check::h6aaee0d15e0261eb>

0000000080000f88 <.Lpcrel_hi13>:
80000f88: 00011517     	auipc	a0, 0x11
80000f8c: 07850513     	addi	a0, a0, 0x78
80000f90: 1552         	slli	a0, a0, 0x34
80000f92: cd09         	beqz	a0, 0x80000fac <.Lpcrel_hi15>
80000f94: a015         	j	0x80000fb8 <.Lpcrel_hi16>
80000f96: 6566         	ld	a0, 0x58(sp)

0000000080000f98 <.Lpcrel_hi14>:
80000f98: 00007597     	auipc	a1, 0x7
80000f9c: ac058613     	addi	a2, a1, -0x540
80000fa0: 20000593     	li	a1, 0x200
80000fa4: 00006097     	auipc	ra, 0x6
80000fa8: ca8080e7     	jalr	-0x358(ra) <core::panicking::panic_bounds_check::h6aaee0d15e0261eb>

0000000080000fac <.Lpcrel_hi15>:
80000fac: 00011517     	auipc	a0, 0x11
80000fb0: 05450513     	addi	a0, a0, 0x54
80000fb4: ed19         	bnez	a0, 0x80000fd2 <.Lpcrel_hi17+0x12>
80000fb6: a891         	j	0x8000100a <.Lpcrel_hi19>

0000000080000fb8 <.Lpcrel_hi16>:
80000fb8: 00011517     	auipc	a0, 0x11
80000fbc: 04850593     	addi	a1, a0, 0x48

0000000080000fc0 <.Lpcrel_hi17>:
80000fc0: 00007517     	auipc	a0, 0x7
80000fc4: a9850613     	addi	a2, a0, -0x568
80000fc8: 6505         	lui	a0, 0x1
80000fca: 00006097     	auipc	ra, 0x6
80000fce: d0e080e7     	jalr	-0x2f2(ra) <core::panicking::panic_misaligned_pointer_dereference::hda85f7fb51d959f0>
80000fd2: 75e6         	ld	a1, 0x78(sp)
80000fd4: 7506         	ld	a0, 0x60(sp)
80000fd6: 6666         	ld	a2, 0x58(sp)
80000fd8: 00c59693     	slli	a3, a1, 0xc

0000000080000fdc <.Lpcrel_hi18>:
80000fdc: 00011597     	auipc	a1, 0x11
80000fe0: 02458593     	addi	a1, a1, 0x24
80000fe4: 95b6         	add	a1, a1, a3
80000fe6: 060e         	slli	a2, a2, 0x3
80000fe8: 95b2         	add	a1, a1, a2
80000fea: e188         	sd	a0, 0x0(a1)
80000fec: 00000097     	auipc	ra, 0x0
80000ff0: 638080e7     	jalr	0x638(ra) <lab4_kernel_task3::dev_l0_table_pa::h637b560e1405332a>
80000ff4: 00004097     	auipc	ra, 0x4
80000ff8: 000080e7     	jalr	ra <lab4_kernel_task3::table_pte::h0bc0e32cb79463bf>
80000ffc: 85aa         	mv	a1, a0
80000ffe: 7566         	ld	a0, 0x78(sp)
80001000: e8ae         	sd	a1, 0x50(sp)
80001002: 4589         	li	a1, 0x2
80001004: 00b56b63     	bltu	a0, a1, 0x8000101a <.Lpcrel_hi19+0x10>
80001008: a035         	j	0x80001034 <.Lpcrel_hi19+0x2a>

000000008000100a <.Lpcrel_hi19>:
8000100a: 00007517     	auipc	a0, 0x7
8000100e: a4e50513     	addi	a0, a0, -0x5b2
80001012: 00006097     	auipc	ra, 0x6
80001016: ca6080e7     	jalr	-0x35a(ra) <core::panicking::panic_null_pointer_dereference::hbac6411af4f2e916>
8000101a: 00100537     	lui	a0, 0x100
8000101e: 00000097     	auipc	ra, 0x0
80001022: d5e080e7     	jalr	-0x2a2(ra) <lab4_kernel_task3::vpn1_index::h600273506eb14c53>
80001026: 85aa         	mv	a1, a0
80001028: e4ae         	sd	a1, 0x48(sp)
8000102a: 20000593     	li	a1, 0x200
8000102e: 00b56d63     	bltu	a0, a1, 0x80001048 <.Lpcrel_hi21>
80001032: a015         	j	0x80001056 <.Lpcrel_hi21+0xe>
80001034: 7566         	ld	a0, 0x78(sp)

0000000080001036 <.Lpcrel_hi20>:
80001036: 00007597     	auipc	a1, 0x7
8000103a: a3a58613     	addi	a2, a1, -0x5c6
8000103e: 4589         	li	a1, 0x2
80001040: 00006097     	auipc	ra, 0x6
80001044: c0c080e7     	jalr	-0x3f4(ra) <core::panicking::panic_bounds_check::h6aaee0d15e0261eb>

0000000080001048 <.Lpcrel_hi21>:
80001048: 00014517     	auipc	a0, 0x14
8000104c: fb850513     	addi	a0, a0, -0x48
80001050: 1552         	slli	a0, a0, 0x34
80001052: cd09         	beqz	a0, 0x8000106c <.Lpcrel_hi23>
80001054: a015         	j	0x80001078 <.Lpcrel_hi24>
80001056: 6526         	ld	a0, 0x48(sp)

0000000080001058 <.Lpcrel_hi22>:
80001058: 00007597     	auipc	a1, 0x7
8000105c: a1858613     	addi	a2, a1, -0x5e8
80001060: 20000593     	li	a1, 0x200
80001064: 00006097     	auipc	ra, 0x6
80001068: be8080e7     	jalr	-0x418(ra) <core::panicking::panic_bounds_check::h6aaee0d15e0261eb>

000000008000106c <.Lpcrel_hi23>:
8000106c: 00014517     	auipc	a0, 0x14
80001070: f9450513     	addi	a0, a0, -0x6c
80001074: ed19         	bnez	a0, 0x80001092 <.Lpcrel_hi25+0x12>
80001076: a891         	j	0x800010ca <.Lpcrel_hi27>

0000000080001078 <.Lpcrel_hi24>:
80001078: 00014517     	auipc	a0, 0x14
8000107c: f8850593     	addi	a1, a0, -0x78

0000000080001080 <.Lpcrel_hi25>:
80001080: 00007517     	auipc	a0, 0x7
80001084: 9f050613     	addi	a2, a0, -0x610
80001088: 6505         	lui	a0, 0x1
8000108a: 00006097     	auipc	ra, 0x6
8000108e: c4e080e7     	jalr	-0x3b2(ra) <core::panicking::panic_misaligned_pointer_dereference::hda85f7fb51d959f0>
80001092: 75e6         	ld	a1, 0x78(sp)
80001094: 6546         	ld	a0, 0x50(sp)
80001096: 6626         	ld	a2, 0x48(sp)
80001098: 00c59693     	slli	a3, a1, 0xc

000000008000109c <.Lpcrel_hi26>:
8000109c: 00014597     	auipc	a1, 0x14
800010a0: f6458593     	addi	a1, a1, -0x9c
800010a4: 95b6         	add	a1, a1, a3
800010a6: 060e         	slli	a2, a2, 0x3
800010a8: 95b2         	add	a1, a1, a2
800010aa: e188         	sd	a0, 0x0(a1)
800010ac: 10000537     	lui	a0, 0x10000
800010b0: 0c600593     	li	a1, 0xc6
800010b4: 00004097     	auipc	ra, 0x4
800010b8: da8080e7     	jalr	-0x258(ra) <lab4_kernel_task3::leaf_pte::h8fee59baeede6e06>
800010bc: 85aa         	mv	a1, a0
800010be: 7566         	ld	a0, 0x78(sp)
800010c0: e0ae         	sd	a1, 0x40(sp)
800010c2: 4589         	li	a1, 0x2
800010c4: 00b56b63     	bltu	a0, a1, 0x800010da <.Lpcrel_hi27+0x10>
800010c8: a035         	j	0x800010f4 <.Lpcrel_hi27+0x2a>

00000000800010ca <.Lpcrel_hi27>:
800010ca: 00007517     	auipc	a0, 0x7
800010ce: 9a650513     	addi	a0, a0, -0x65a
800010d2: 00006097     	auipc	ra, 0x6
800010d6: be6080e7     	jalr	-0x41a(ra) <core::panicking::panic_null_pointer_dereference::hbac6411af4f2e916>
800010da: 10000537     	lui	a0, 0x10000
800010de: 00000097     	auipc	ra, 0x0
800010e2: c9e080e7     	jalr	-0x362(ra) <lab4_kernel_task3::vpn1_index::h600273506eb14c53>
800010e6: 85aa         	mv	a1, a0
800010e8: fc2e         	sd	a1, 0x38(sp)
800010ea: 20000593     	li	a1, 0x200
800010ee: 00b56d63     	bltu	a0, a1, 0x80001108 <.Lpcrel_hi29>
800010f2: a015         	j	0x80001116 <.Lpcrel_hi29+0xe>
800010f4: 7566         	ld	a0, 0x78(sp)

00000000800010f6 <.Lpcrel_hi28>:
800010f6: 00007597     	auipc	a1, 0x7
800010fa: 99258613     	addi	a2, a1, -0x66e
800010fe: 4589         	li	a1, 0x2
80001100: 00006097     	auipc	ra, 0x6
80001104: b4c080e7     	jalr	-0x4b4(ra) <core::panicking::panic_bounds_check::h6aaee0d15e0261eb>

0000000080001108 <.Lpcrel_hi29>:
80001108: 00014517     	auipc	a0, 0x14
8000110c: ef850513     	addi	a0, a0, -0x108
80001110: 1552         	slli	a0, a0, 0x34
80001112: cd09         	beqz	a0, 0x8000112c <.Lpcrel_hi31>
80001114: a015         	j	0x80001138 <.Lpcrel_hi32>
80001116: 7562         	ld	a0, 0x38(sp)

0000000080001118 <.Lpcrel_hi30>:
80001118: 00007597     	auipc	a1, 0x7
8000111c: 97058613     	addi	a2, a1, -0x690
80001120: 20000593     	li	a1, 0x200
80001124: 00006097     	auipc	ra, 0x6
80001128: b28080e7     	jalr	-0x4d8(ra) <core::panicking::panic_bounds_check::h6aaee0d15e0261eb>

000000008000112c <.Lpcrel_hi31>:
8000112c: 00014517     	auipc	a0, 0x14
80001130: ed450513     	addi	a0, a0, -0x12c
80001134: ed19         	bnez	a0, 0x80001152 <.Lpcrel_hi33+0x12>
80001136: a891         	j	0x8000118a <.Lpcrel_hi35>

0000000080001138 <.Lpcrel_hi32>:
80001138: 00014517     	auipc	a0, 0x14
8000113c: ec850593     	addi	a1, a0, -0x138

0000000080001140 <.Lpcrel_hi33>:
80001140: 00007517     	auipc	a0, 0x7
80001144: 94850613     	addi	a2, a0, -0x6b8
80001148: 6505         	lui	a0, 0x1
8000114a: 00006097     	auipc	ra, 0x6
8000114e: b8e080e7     	jalr	-0x472(ra) <core::panicking::panic_misaligned_pointer_dereference::hda85f7fb51d959f0>
80001152: 7566         	ld	a0, 0x78(sp)
80001154: 6586         	ld	a1, 0x40(sp)
80001156: 76e2         	ld	a3, 0x38(sp)
80001158: 00c51713     	slli	a4, a0, 0xc

000000008000115c <.Lpcrel_hi34>:
8000115c: 00014617     	auipc	a2, 0x14
80001160: ea460613     	addi	a2, a2, -0x15c
80001164: 963a         	add	a2, a2, a4
80001166: 068e         	slli	a3, a3, 0x3
80001168: 9636         	add	a2, a2, a3
8000116a: e20c         	sd	a1, 0x0(a2)
8000116c: 00002097     	auipc	ra, 0x2
80001170: 4a8080e7     	jalr	0x4a8(ra) <lab4_kernel_task3::proc_user_l0_table_pa::h071b0a3ca5404136>
80001174: 00004097     	auipc	ra, 0x4
80001178: e80080e7     	jalr	-0x180(ra) <lab4_kernel_task3::table_pte::h0bc0e32cb79463bf>
8000117c: 85aa         	mv	a1, a0
8000117e: 7566         	ld	a0, 0x78(sp)
80001180: f82e         	sd	a1, 0x30(sp)
80001182: 4589         	li	a1, 0x2
80001184: 00b56b63     	bltu	a0, a1, 0x8000119a <.Lpcrel_hi35+0x10>
80001188: a035         	j	0x800011b4 <.Lpcrel_hi35+0x2a>

000000008000118a <.Lpcrel_hi35>:
8000118a: 00007517     	auipc	a0, 0x7
8000118e: 8fe50513     	addi	a0, a0, -0x702
80001192: 00006097     	auipc	ra, 0x6
80001196: b26080e7     	jalr	-0x4da(ra) <core::panicking::panic_null_pointer_dereference::hbac6411af4f2e916>
8000119a: 00400537     	lui	a0, 0x400
8000119e: 00000097     	auipc	ra, 0x0
800011a2: bde080e7     	jalr	-0x422(ra) <lab4_kernel_task3::vpn1_index::h600273506eb14c53>
800011a6: 85aa         	mv	a1, a0
800011a8: f42e         	sd	a1, 0x28(sp)
800011aa: 20000593     	li	a1, 0x200
800011ae: 00b56d63     	bltu	a0, a1, 0x800011c8 <.Lpcrel_hi37>
800011b2: a015         	j	0x800011d6 <.Lpcrel_hi37+0xe>
800011b4: 7566         	ld	a0, 0x78(sp)

00000000800011b6 <.Lpcrel_hi36>:
800011b6: 00007597     	auipc	a1, 0x7
800011ba: 8ea58613     	addi	a2, a1, -0x716
800011be: 4589         	li	a1, 0x2
800011c0: 00006097     	auipc	ra, 0x6
800011c4: a8c080e7     	jalr	-0x574(ra) <core::panicking::panic_bounds_check::h6aaee0d15e0261eb>

00000000800011c8 <.Lpcrel_hi37>:
800011c8: 00014517     	auipc	a0, 0x14
800011cc: e3850513     	addi	a0, a0, -0x1c8
800011d0: 1552         	slli	a0, a0, 0x34
800011d2: cd09         	beqz	a0, 0x800011ec <.Lpcrel_hi39>
800011d4: a015         	j	0x800011f8 <.Lpcrel_hi40>
800011d6: 7522         	ld	a0, 0x28(sp)

00000000800011d8 <.Lpcrel_hi38>:
800011d8: 00007597     	auipc	a1, 0x7
800011dc: 8c858613     	addi	a2, a1, -0x738
800011e0: 20000593     	li	a1, 0x200
800011e4: 00006097     	auipc	ra, 0x6
800011e8: a68080e7     	jalr	-0x598(ra) <core::panicking::panic_bounds_check::h6aaee0d15e0261eb>

00000000800011ec <.Lpcrel_hi39>:
800011ec: 00014517     	auipc	a0, 0x14
800011f0: e1450513     	addi	a0, a0, -0x1ec
800011f4: ed19         	bnez	a0, 0x80001212 <.Lpcrel_hi41+0x12>
800011f6: a8a1         	j	0x8000124e <.Lpcrel_hi43>

00000000800011f8 <.Lpcrel_hi40>:
800011f8: 00014517     	auipc	a0, 0x14
800011fc: e0850593     	addi	a1, a0, -0x1f8

0000000080001200 <.Lpcrel_hi41>:
80001200: 00007517     	auipc	a0, 0x7
80001204: 8a050613     	addi	a2, a0, -0x760
80001208: 6505         	lui	a0, 0x1
8000120a: 00006097     	auipc	ra, 0x6
8000120e: ace080e7     	jalr	-0x532(ra) <core::panicking::panic_misaligned_pointer_dereference::hda85f7fb51d959f0>
80001212: 75e6         	ld	a1, 0x78(sp)
80001214: 7542         	ld	a0, 0x30(sp)
80001216: 7622         	ld	a2, 0x28(sp)
80001218: 00c59693     	slli	a3, a1, 0xc

000000008000121c <.Lpcrel_hi42>:
8000121c: 00014597     	auipc	a1, 0x14
80001220: de458593     	addi	a1, a1, -0x21c
80001224: 95b6         	add	a1, a1, a3
80001226: 060e         	slli	a2, a2, 0x3
80001228: 95b2         	add	a1, a1, a2
8000122a: e188         	sd	a0, 0x0(a1)
8000122c: 00001097     	auipc	ra, 0x1
80001230: 588080e7     	jalr	0x588(ra) <lab4_kernel_task3::user_code_page_pa::h73b08479d23d4b4b>
80001234: 05a00593     	li	a1, 0x5a
80001238: 00004097     	auipc	ra, 0x4
8000123c: c24080e7     	jalr	-0x3dc(ra) <lab4_kernel_task3::leaf_pte::h8fee59baeede6e06>
80001240: 85aa         	mv	a1, a0
80001242: 7566         	ld	a0, 0x78(sp)
80001244: f02e         	sd	a1, 0x20(sp)
80001246: 4589         	li	a1, 0x2
80001248: 00b56b63     	bltu	a0, a1, 0x8000125e <.Lpcrel_hi43+0x10>
8000124c: a035         	j	0x80001278 <.Lpcrel_hi43+0x2a>

000000008000124e <.Lpcrel_hi43>:
8000124e: 00007517     	auipc	a0, 0x7
80001252: 85250513     	addi	a0, a0, -0x7ae
80001256: 00006097     	auipc	ra, 0x6
8000125a: a62080e7     	jalr	-0x59e(ra) <core::panicking::panic_null_pointer_dereference::hbac6411af4f2e916>
8000125e: 00400537     	lui	a0, 0x400
80001262: 00000097     	auipc	ra, 0x0
80001266: b0e080e7     	jalr	-0x4f2(ra) <lab4_kernel_task3::vpn0_index::hb3d9a13406bd3e5b>
8000126a: 85aa         	mv	a1, a0
8000126c: ec2e         	sd	a1, 0x18(sp)
8000126e: 20000593     	li	a1, 0x200
80001272: 00b56d63     	bltu	a0, a1, 0x8000128c <.Lpcrel_hi45>
80001276: a015         	j	0x8000129a <.Lpcrel_hi45+0xe>
80001278: 7566         	ld	a0, 0x78(sp)

000000008000127a <.Lpcrel_hi44>:
8000127a: 00007597     	auipc	a1, 0x7
8000127e: 83e58613     	addi	a2, a1, -0x7c2
80001282: 4589         	li	a1, 0x2
80001284: 00006097     	auipc	ra, 0x6
80001288: 9c8080e7     	jalr	-0x638(ra) <core::panicking::panic_bounds_check::h6aaee0d15e0261eb>

000000008000128c <.Lpcrel_hi45>:
8000128c: 00017517     	auipc	a0, 0x17
80001290: d7450513     	addi	a0, a0, -0x28c
80001294: 1552         	slli	a0, a0, 0x34
80001296: cd09         	beqz	a0, 0x800012b0 <.Lpcrel_hi47>
80001298: a015         	j	0x800012bc <.Lpcrel_hi48>
8000129a: 6562         	ld	a0, 0x18(sp)

000000008000129c <.Lpcrel_hi46>:
8000129c: 00007597     	auipc	a1, 0x7
800012a0: 81c58613     	addi	a2, a1, -0x7e4
800012a4: 20000593     	li	a1, 0x200
800012a8: 00006097     	auipc	ra, 0x6
800012ac: 9a4080e7     	jalr	-0x65c(ra) <core::panicking::panic_bounds_check::h6aaee0d15e0261eb>

00000000800012b0 <.Lpcrel_hi47>:
800012b0: 00017517     	auipc	a0, 0x17
800012b4: d5050513     	addi	a0, a0, -0x2b0
800012b8: ed19         	bnez	a0, 0x800012d6 <.Lpcrel_hi49+0x12>
800012ba: a83d         	j	0x800012f8 <.Lpcrel_hi51>

00000000800012bc <.Lpcrel_hi48>:
800012bc: 00017517     	auipc	a0, 0x17
800012c0: d4450593     	addi	a1, a0, -0x2bc

00000000800012c4 <.Lpcrel_hi49>:
800012c4: 00006517     	auipc	a0, 0x6
800012c8: 7f450613     	addi	a2, a0, 0x7f4
800012cc: 6505         	lui	a0, 0x1
800012ce: 00006097     	auipc	ra, 0x6
800012d2: a0a080e7     	jalr	-0x5f6(ra) <core::panicking::panic_misaligned_pointer_dereference::hda85f7fb51d959f0>
800012d6: 7566         	ld	a0, 0x78(sp)
800012d8: 7582         	ld	a1, 0x20(sp)
800012da: 66e2         	ld	a3, 0x18(sp)
800012dc: 00c51713     	slli	a4, a0, 0xc

00000000800012e0 <.Lpcrel_hi50>:
800012e0: 00017617     	auipc	a2, 0x17
800012e4: d2060613     	addi	a2, a2, -0x2e0
800012e8: 963a         	add	a2, a2, a4
800012ea: 068e         	slli	a3, a3, 0x3
800012ec: 9636         	add	a2, a2, a3
800012ee: e20c         	sd	a1, 0x0(a2)
800012f0: 4589         	li	a1, 0x2
800012f2: 00b56b63     	bltu	a0, a1, 0x80001308 <.Lpcrel_hi51+0x10>
800012f6: a035         	j	0x80001322 <.Lpcrel_hi51+0x2a>

00000000800012f8 <.Lpcrel_hi51>:
800012f8: 00006517     	auipc	a0, 0x6
800012fc: 7c050513     	addi	a0, a0, 0x7c0
80001300: 00006097     	auipc	ra, 0x6
80001304: 9b8080e7     	jalr	-0x648(ra) <core::panicking::panic_null_pointer_dereference::hbac6411af4f2e916>
80001308: 00401537     	lui	a0, 0x401
8000130c: 00000097     	auipc	ra, 0x0
80001310: a64080e7     	jalr	-0x59c(ra) <lab4_kernel_task3::vpn0_index::hb3d9a13406bd3e5b>
80001314: 85aa         	mv	a1, a0
80001316: e82e         	sd	a1, 0x10(sp)
80001318: 20000593     	li	a1, 0x200
8000131c: 00b56d63     	bltu	a0, a1, 0x80001336 <.Lpcrel_hi53>
80001320: a015         	j	0x80001344 <.Lpcrel_hi53+0xe>
80001322: 7566         	ld	a0, 0x78(sp)

0000000080001324 <.Lpcrel_hi52>:
80001324: 00006597     	auipc	a1, 0x6
80001328: 7ac58613     	addi	a2, a1, 0x7ac
8000132c: 4589         	li	a1, 0x2
8000132e: 00006097     	auipc	ra, 0x6
80001332: 91e080e7     	jalr	-0x6e2(ra) <core::panicking::panic_bounds_check::h6aaee0d15e0261eb>

0000000080001336 <.Lpcrel_hi53>:
80001336: 00017517     	auipc	a0, 0x17
8000133a: cca50513     	addi	a0, a0, -0x336
8000133e: 1552         	slli	a0, a0, 0x34
80001340: cd09         	beqz	a0, 0x8000135a <.Lpcrel_hi55>
80001342: a015         	j	0x80001366 <.Lpcrel_hi56>
80001344: 6542         	ld	a0, 0x10(sp)

0000000080001346 <.Lpcrel_hi54>:
80001346: 00006597     	auipc	a1, 0x6
8000134a: 78a58613     	addi	a2, a1, 0x78a
8000134e: 20000593     	li	a1, 0x200
80001352: 00006097     	auipc	ra, 0x6
80001356: 8fa080e7     	jalr	-0x706(ra) <core::panicking::panic_bounds_check::h6aaee0d15e0261eb>

000000008000135a <.Lpcrel_hi55>:
8000135a: 00017517     	auipc	a0, 0x17
8000135e: ca650513     	addi	a0, a0, -0x35a
80001362: ed19         	bnez	a0, 0x80001380 <.Lpcrel_hi57+0x12>
80001364: a891         	j	0x800013b8 <.Lpcrel_hi59>

0000000080001366 <.Lpcrel_hi56>:
80001366: 00017517     	auipc	a0, 0x17
8000136a: c9a50593     	addi	a1, a0, -0x366

000000008000136e <.Lpcrel_hi57>:
8000136e: 00006517     	auipc	a0, 0x6
80001372: 76250613     	addi	a2, a0, 0x762
80001376: 6505         	lui	a0, 0x1
80001378: 00006097     	auipc	ra, 0x6
8000137c: 960080e7     	jalr	-0x6a0(ra) <core::panicking::panic_misaligned_pointer_dereference::hda85f7fb51d959f0>
80001380: 7566         	ld	a0, 0x78(sp)
80001382: 75c6         	ld	a1, 0x70(sp)
80001384: 66c2         	ld	a3, 0x10(sp)
80001386: 00c51713     	slli	a4, a0, 0xc

000000008000138a <.Lpcrel_hi58>:
8000138a: 00017617     	auipc	a2, 0x17
8000138e: c7660613     	addi	a2, a2, -0x38a
80001392: 963a         	add	a2, a2, a4
80001394: 068e         	slli	a3, a3, 0x3
80001396: 9636         	add	a2, a2, a3
80001398: e20c         	sd	a1, 0x0(a2)
8000139a: 00002097     	auipc	ra, 0x2
8000139e: d9e080e7     	jalr	-0x262(ra) <lab4_kernel_task3::proc_root_table_pa::h28443d1d2818f10a>
800013a2: 00000097     	auipc	ra, 0x0
800013a6: 19e080e7     	jalr	0x19e(ra) <lab4_kernel_task3::satp_for_root::h1e790bb499ccb8c3>
800013aa: 85aa         	mv	a1, a0
800013ac: 7566         	ld	a0, 0x78(sp)
800013ae: e42e         	sd	a1, 0x8(sp)
800013b0: 4589         	li	a1, 0x2
800013b2: 00b56b63     	bltu	a0, a1, 0x800013c8 <.Lpcrel_hi60>
800013b6: a839         	j	0x800013d4 <.Lpcrel_hi60+0xc>

00000000800013b8 <.Lpcrel_hi59>:
800013b8: 00006517     	auipc	a0, 0x6
800013bc: 71850513     	addi	a0, a0, 0x718
800013c0: 00006097     	auipc	ra, 0x6
800013c4: 8f8080e7     	jalr	-0x708(ra) <core::panicking::panic_null_pointer_dereference::hbac6411af4f2e916>

00000000800013c8 <.Lpcrel_hi60>:
800013c8: 00009517     	auipc	a0, 0x9
800013cc: c8050513     	addi	a0, a0, -0x380
800013d0: ed01         	bnez	a0, 0x800013e8 <.Lpcrel_hi61+0x12>
800013d2: a82d         	j	0x8000140c <.Lpcrel_hi63>
800013d4: 7566         	ld	a0, 0x78(sp)

00000000800013d6 <.Lpcrel_hi61>:
800013d6: 00006597     	auipc	a1, 0x6
800013da: 71258613     	addi	a2, a1, 0x712
800013de: 4589         	li	a1, 0x2
800013e0: 00006097     	auipc	ra, 0x6
800013e4: 86c080e7     	jalr	-0x794(ra) <core::panicking::panic_bounds_check::h6aaee0d15e0261eb>
800013e8: 7566         	ld	a0, 0x78(sp)
800013ea: 65a2         	ld	a1, 0x8(sp)
800013ec: 00351693     	slli	a3, a0, 0x3
800013f0: 00551613     	slli	a2, a0, 0x5
800013f4: 40d606b3     	sub	a3, a2, a3

00000000800013f8 <.Lpcrel_hi62>:
800013f8: 00009617     	auipc	a2, 0x9
800013fc: c5060613     	addi	a2, a2, -0x3b0
80001400: 9636         	add	a2, a2, a3
80001402: e60c         	sd	a1, 0x8(a2)
80001404: 4589         	li	a1, 0x2
80001406: 00b56b63     	bltu	a0, a1, 0x8000141c <.Lpcrel_hi64>
8000140a: a839         	j	0x80001428 <.Lpcrel_hi64+0xc>

000000008000140c <.Lpcrel_hi63>:
8000140c: 00006517     	auipc	a0, 0x6
80001410: 6dc50513     	addi	a0, a0, 0x6dc
80001414: 00006097     	auipc	ra, 0x6
80001418: 8a4080e7     	jalr	-0x75c(ra) <core::panicking::panic_null_pointer_dereference::hbac6411af4f2e916>

000000008000141c <.Lpcrel_hi64>:
8000141c: 00009517     	auipc	a0, 0x9
80001420: c2c50513     	addi	a0, a0, -0x3d4
80001424: ed01         	bnez	a0, 0x8000143c <.Lpcrel_hi65+0x12>
80001426: a82d         	j	0x80001460 <.Lpcrel_hi67>
80001428: 7566         	ld	a0, 0x78(sp)

000000008000142a <.Lpcrel_hi65>:
8000142a: 00006597     	auipc	a1, 0x6
8000142e: 6d658613     	addi	a2, a1, 0x6d6
80001432: 4589         	li	a1, 0x2
80001434: 00006097     	auipc	ra, 0x6
80001438: 818080e7     	jalr	-0x7e8(ra) <core::panicking::panic_bounds_check::h6aaee0d15e0261eb>
8000143c: 7566         	ld	a0, 0x78(sp)
8000143e: 00351613     	slli	a2, a0, 0x3
80001442: 00551593     	slli	a1, a0, 0x5
80001446: 40c58633     	sub	a2, a1, a2

000000008000144a <.Lpcrel_hi66>:
8000144a: 00009597     	auipc	a1, 0x9
8000144e: bfe58593     	addi	a1, a1, -0x402
80001452: 962e         	add	a2, a2, a1
80001454: 4585         	li	a1, 0x1
80001456: e20c         	sd	a1, 0x0(a2)
80001458: 4589         	li	a1, 0x2
8000145a: 00b56b63     	bltu	a0, a1, 0x80001470 <.Lpcrel_hi68>
8000145e: a839         	j	0x8000147c <.Lpcrel_hi68+0xc>

0000000080001460 <.Lpcrel_hi67>:
80001460: 00006517     	auipc	a0, 0x6
80001464: 6a050513     	addi	a0, a0, 0x6a0
80001468: 00006097     	auipc	ra, 0x6
8000146c: 850080e7     	jalr	-0x7b0(ra) <core::panicking::panic_null_pointer_dereference::hbac6411af4f2e916>

0000000080001470 <.Lpcrel_hi68>:
80001470: 00009517     	auipc	a0, 0x9
80001474: bd850513     	addi	a0, a0, -0x428
80001478: ed01         	bnez	a0, 0x80001490 <.Lpcrel_hi69+0x12>
8000147a: a091         	j	0x800014be <.Lpcrel_hi71>
8000147c: 7566         	ld	a0, 0x78(sp)

000000008000147e <.Lpcrel_hi69>:
8000147e: 00006597     	auipc	a1, 0x6
80001482: 69a58613     	addi	a2, a1, 0x69a
80001486: 4589         	li	a1, 0x2
80001488: 00005097     	auipc	ra, 0x5
8000148c: 7c4080e7     	jalr	0x7c4(ra) <core::panicking::panic_bounds_check::h6aaee0d15e0261eb>
80001490: 7566         	ld	a0, 0x78(sp)
80001492: 00351593     	slli	a1, a0, 0x3
80001496: 0516         	slli	a0, a0, 0x5
80001498: 40b505b3     	sub	a1, a0, a1

000000008000149c <.Lpcrel_hi70>:
8000149c: 00009517     	auipc	a0, 0x9
800014a0: bac50513     	addi	a0, a0, -0x454
800014a4: 95aa         	add	a1, a1, a0
800014a6: 4501         	li	a0, 0x0
800014a8: e988         	sd	a0, 0x10(a1)
800014aa: 0128         	addi	a0, sp, 0x88
800014ac: 00000097     	auipc	ra, 0x0
800014b0: 982080e7     	jalr	-0x67e(ra) <lab4_kernel_task3::ProcessReport::empty::h3eb203d13d09d34c>
800014b4: 7566         	ld	a0, 0x78(sp)
800014b6: 4589         	li	a1, 0x2
800014b8: 00b56b63     	bltu	a0, a1, 0x800014ce <.Lpcrel_hi72>
800014bc: a839         	j	0x800014da <.Lpcrel_hi72+0xc>

00000000800014be <.Lpcrel_hi71>:
800014be: 00006517     	auipc	a0, 0x6
800014c2: 65a50513     	addi	a0, a0, 0x65a
800014c6: 00005097     	auipc	ra, 0x5
800014ca: 7f2080e7     	jalr	0x7f2(ra) <core::panicking::panic_null_pointer_dereference::hbac6411af4f2e916>

00000000800014ce <.Lpcrel_hi72>:
800014ce: 00010517     	auipc	a0, 0x10
800014d2: b3250513     	addi	a0, a0, -0x4ce
800014d6: ed01         	bnez	a0, 0x800014ee <.Lpcrel_hi73+0x12>
800014d8: a835         	j	0x80001514 <.Lpcrel_hi75>
800014da: 7566         	ld	a0, 0x78(sp)

00000000800014dc <.Lpcrel_hi73>:
800014dc: 00006597     	auipc	a1, 0x6
800014e0: 65458613     	addi	a2, a1, 0x654
800014e4: 4589         	li	a1, 0x2
800014e6: 00005097     	auipc	ra, 0x5
800014ea: 766080e7     	jalr	0x766(ra) <core::panicking::panic_bounds_check::h6aaee0d15e0261eb>
800014ee: 7566         	ld	a0, 0x78(sp)
800014f0: 00551593     	slli	a1, a0, 0x5

00000000800014f4 <.Lpcrel_hi74>:
800014f4: 00010517     	auipc	a0, 0x10
800014f8: b0c50513     	addi	a0, a0, -0x4f4
800014fc: 95aa         	add	a1, a1, a0
800014fe: 750a         	ld	a0, 0xa0(sp)
80001500: ed88         	sd	a0, 0x18(a1)
80001502: 656a         	ld	a0, 0x98(sp)
80001504: e988         	sd	a0, 0x10(a1)
80001506: 654a         	ld	a0, 0x90(sp)
80001508: e588         	sd	a0, 0x8(a1)
8000150a: 652a         	ld	a0, 0x88(sp)
8000150c: e188         	sd	a0, 0x0(a1)
8000150e: 70ea         	ld	ra, 0xb8(sp)
80001510: 6129         	addi	sp, sp, 0xc0
80001512: 8082         	ret

0000000080001514 <.Lpcrel_hi75>:
80001514: 00006517     	auipc	a0, 0x6
80001518: 61c50513     	addi	a0, a0, 0x61c
8000151c: 00005097     	auipc	ra, 0x5
80001520: 79c080e7     	jalr	0x79c(ra) <core::panicking::panic_null_pointer_dereference::hbac6411af4f2e916>

0000000080001524 <lab4_kernel_task3::configure_pmp::h172c794fb11a74e4>:
80001524: 557d         	li	a0, -0x1
80001526: 8109         	srli	a0, a0, 0x2
80001528: 3b051073     	csrw	pmpaddr0, a0
8000152c: 457d         	li	a0, 0x1f
8000152e: 3a051073     	csrw	pmpcfg0, a0
80001532: 8082         	ret

0000000080001534 <lab4_kernel_task3::pte_has_write::h63d6736861570b1c>:
80001534: 1141         	addi	sp, sp, -0x10
80001536: e42a         	sd	a0, 0x8(sp)
80001538: 1576         	slli	a0, a0, 0x3d
8000153a: 917d         	srli	a0, a0, 0x3f
8000153c: 0141         	addi	sp, sp, 0x10
8000153e: 8082         	ret

0000000080001540 <lab4_kernel_task3::satp_for_root::h1e790bb499ccb8c3>:
80001540: 1141         	addi	sp, sp, -0x10
80001542: e42a         	sd	a0, 0x8(sp)
80001544: 8131         	srli	a0, a0, 0xc
80001546: 55fd         	li	a1, -0x1
80001548: 15fe         	slli	a1, a1, 0x3f
8000154a: 8d4d         	or	a0, a0, a1
8000154c: 0141         	addi	sp, sp, 0x10
8000154e: 8082         	ret

0000000080001550 <lab4_kernel_task3::ProcessControl::empty::h6e0da2b9df8a231a>:
80001550: 85aa         	mv	a1, a0
80001552: 4501         	li	a0, 0x0
80001554: e188         	sd	a0, 0x0(a1)
80001556: e588         	sd	a0, 0x8(a1)
80001558: e988         	sd	a0, 0x10(a1)
8000155a: 8082         	ret

000000008000155c <lab4_kernel_task3::data_page_index::hb2374e4a66488e35>:
8000155c: 715d         	addi	sp, sp, -0x50
8000155e: e486         	sd	ra, 0x48(sp)
80001560: f42a         	sd	a0, 0x28(sp)
80001562: fc2a         	sd	a0, 0x38(sp)
80001564: 00000097     	auipc	ra, 0x0
80001568: 3b6080e7     	jalr	0x3b6(ra) <lab4_kernel_task3::data_page_pool_pa::h9c68d81b7fc35bfd>
8000156c: 85aa         	mv	a1, a0
8000156e: 7522         	ld	a0, 0x28(sp)
80001570: 862e         	mv	a2, a1
80001572: f832         	sd	a2, 0x30(sp)
80001574: e0ae         	sd	a1, 0x40(sp)
80001576: 00b56863     	bltu	a0, a1, 0x80001586 <.Lpcrel_hi76>
8000157a: a009         	j	0x8000157c <lab4_kernel_task3::data_page_index::hb2374e4a66488e35+0x20>
8000157c: 6511         	lui	a0, 0x4
8000157e: f02a         	sd	a0, 0x20(sp)
80001580: 4501         	li	a0, 0x0
80001582: e11d         	bnez	a0, 0x800015a8 <.Lpcrel_hi77>
80001584: a819         	j	0x8000159a <.Lpcrel_hi76+0x14>

0000000080001586 <.Lpcrel_hi76>:
80001586: 00006517     	auipc	a0, 0x6
8000158a: 62250513     	addi	a0, a0, 0x622
8000158e: 02f00593     	li	a1, 0x2f
80001592: 00000097     	auipc	ra, 0x0
80001596: 802080e7     	jalr	-0x7fe(ra) <lab4_kernel_task3::kernel_fail::h7f3f223a61b29f30>
8000159a: 75c2         	ld	a1, 0x30(sp)
8000159c: 7502         	ld	a0, 0x20(sp)
8000159e: 952e         	add	a0, a0, a1
800015a0: ec2a         	sd	a0, 0x18(sp)
800015a2: 02b56063     	bltu	a0, a1, 0x800015c2 <.Lpcrel_hi78>
800015a6: a809         	j	0x800015b8 <.Lpcrel_hi77+0x10>

00000000800015a8 <.Lpcrel_hi77>:
800015a8: 00006517     	auipc	a0, 0x6
800015ac: 5a050513     	addi	a0, a0, 0x5a0
800015b0: 00005097     	auipc	ra, 0x5
800015b4: 642080e7     	jalr	0x642(ra) <core::panicking::panic_const::panic_const_mul_overflow::h67897feae7531d51>
800015b8: 7522         	ld	a0, 0x28(sp)
800015ba: 65e2         	ld	a1, 0x18(sp)
800015bc: fcb575e3     	bgeu	a0, a1, 0x80001586 <.Lpcrel_hi76>
800015c0: a809         	j	0x800015d2 <.Lpcrel_hi78+0x10>

00000000800015c2 <.Lpcrel_hi78>:
800015c2: 00006517     	auipc	a0, 0x6
800015c6: 59e50513     	addi	a0, a0, 0x59e
800015ca: 00005097     	auipc	ra, 0x5
800015ce: 60a080e7     	jalr	0x60a(ra) <core::panicking::panic_const::panic_const_add_overflow::h67cba067093910f8>
800015d2: 7522         	ld	a0, 0x28(sp)
800015d4: 75c2         	ld	a1, 0x30(sp)
800015d6: 40b50633     	sub	a2, a0, a1
800015da: e832         	sd	a2, 0x10(sp)
800015dc: 00b56763     	bltu	a0, a1, 0x800015ea <.Lpcrel_hi79>
800015e0: a009         	j	0x800015e2 <.Lpcrel_hi78+0x20>
800015e2: 6542         	ld	a0, 0x10(sp)
800015e4: 1552         	slli	a0, a0, 0x34
800015e6: f145         	bnez	a0, 0x80001586 <.Lpcrel_hi76>
800015e8: a809         	j	0x800015fa <.Lpcrel_hi79+0x10>

00000000800015ea <.Lpcrel_hi79>:
800015ea: 00006517     	auipc	a0, 0x6
800015ee: 58e50513     	addi	a0, a0, 0x58e
800015f2: 00005097     	auipc	ra, 0x5
800015f6: 61e080e7     	jalr	0x61e(ra) <core::panicking::panic_const::panic_const_sub_overflow::hccc965ba9198de7c>
800015fa: 7522         	ld	a0, 0x28(sp)
800015fc: 75c2         	ld	a1, 0x30(sp)
800015fe: 40b50633     	sub	a2, a0, a1
80001602: e432         	sd	a2, 0x8(sp)
80001604: 00b56863     	bltu	a0, a1, 0x80001614 <.Lpcrel_hi80>
80001608: a009         	j	0x8000160a <.Lpcrel_hi79+0x20>
8000160a: 6522         	ld	a0, 0x8(sp)
8000160c: 8131         	srli	a0, a0, 0xc
8000160e: 60a6         	ld	ra, 0x48(sp)
80001610: 6161         	addi	sp, sp, 0x50
80001612: 8082         	ret

0000000080001614 <.Lpcrel_hi80>:
80001614: 00006517     	auipc	a0, 0x6
80001618: 57c50513     	addi	a0, a0, 0x57c
8000161c: 00005097     	auipc	ra, 0x5
80001620: 5f4080e7     	jalr	0x5f4(ra) <core::panicking::panic_const::panic_const_sub_overflow::hccc965ba9198de7c>

0000000080001624 <lab4_kernel_task3::dev_l0_table_pa::h637b560e1405332a>:
80001624: 00013517     	auipc	a0, 0x13
80001628: 9dc50513     	addi	a0, a0, -0x624
8000162c: 8082         	ret

000000008000162e <lab4_kernel_task3::leaf_level_name::h2aff5def58b3ebd0>:
8000162e: 1101         	addi	sp, sp, -0x20
80001630: e02a         	sd	a0, 0x0(sp)
80001632: ec2a         	sd	a0, 0x18(sp)
80001634: c505         	beqz	a0, 0x8000165c <.Lpcrel_hi83>
80001636: a009         	j	0x80001638 <lab4_kernel_task3::leaf_level_name::h2aff5def58b3ebd0+0xa>
80001638: 6502         	ld	a0, 0x0(sp)
8000163a: 4585         	li	a1, 0x1
8000163c: 02b50863     	beq	a0, a1, 0x8000166c <.Lpcrel_hi84>
80001640: a009         	j	0x80001642 <lab4_kernel_task3::leaf_level_name::h2aff5def58b3ebd0+0x14>
80001642: 6502         	ld	a0, 0x0(sp)
80001644: 4589         	li	a1, 0x2
80001646: 02b50b63     	beq	a0, a1, 0x8000167c <.Lpcrel_hi85>
8000164a: a009         	j	0x8000164c <.Lpcrel_hi82>

000000008000164c <.Lpcrel_hi82>:
8000164c: 00006517     	auipc	a0, 0x6
80001650: 59a50513     	addi	a0, a0, 0x59a
80001654: e42a         	sd	a0, 0x8(sp)
80001656: 451d         	li	a0, 0x7
80001658: e82a         	sd	a0, 0x10(sp)
8000165a: a80d         	j	0x8000168c <.Lpcrel_hi85+0x10>

000000008000165c <.Lpcrel_hi83>:
8000165c: 00006517     	auipc	a0, 0x6
80001660: 57b50513     	addi	a0, a0, 0x57b
80001664: e42a         	sd	a0, 0x8(sp)
80001666: 4515         	li	a0, 0x5
80001668: e82a         	sd	a0, 0x10(sp)
8000166a: a00d         	j	0x8000168c <.Lpcrel_hi85+0x10>

000000008000166c <.Lpcrel_hi84>:
8000166c: 00006517     	auipc	a0, 0x6
80001670: 57050513     	addi	a0, a0, 0x570
80001674: e42a         	sd	a0, 0x8(sp)
80001676: 4515         	li	a0, 0x5
80001678: e82a         	sd	a0, 0x10(sp)
8000167a: a809         	j	0x8000168c <.Lpcrel_hi85+0x10>

000000008000167c <.Lpcrel_hi85>:
8000167c: 00006517     	auipc	a0, 0x6
80001680: 56550513     	addi	a0, a0, 0x565
80001684: e42a         	sd	a0, 0x8(sp)
80001686: 4515         	li	a0, 0x5
80001688: e82a         	sd	a0, 0x10(sp)
8000168a: a009         	j	0x8000168c <.Lpcrel_hi85+0x10>
8000168c: 6522         	ld	a0, 0x8(sp)
8000168e: 65c2         	ld	a1, 0x10(sp)
80001690: 6105         	addi	sp, sp, 0x20
80001692: 8082         	ret

0000000080001694 <lab4_kernel_task3::activate_process::h9562f7948e77505c>:
80001694: 1101         	addi	sp, sp, -0x20
80001696: 85aa         	mv	a1, a0
80001698: e42e         	sd	a1, 0x8(sp)
8000169a: e82e         	sd	a1, 0x10(sp)
8000169c: 4505         	li	a0, 0x1
8000169e: 00b56963     	bltu	a0, a1, 0x800016b0 <.Lpcrel_hi86+0xc>
800016a2: a009         	j	0x800016a4 <.Lpcrel_hi86>

00000000800016a4 <.Lpcrel_hi86>:
800016a4: 00009517     	auipc	a0, 0x9
800016a8: 9a450513     	addi	a0, a0, -0x65c
800016ac: ed01         	bnez	a0, 0x800016c4 <.Lpcrel_hi87+0x12>
800016ae: a835         	j	0x800016ea <.Lpcrel_hi89>
800016b0: 6522         	ld	a0, 0x8(sp)

00000000800016b2 <.Lpcrel_hi87>:
800016b2: 00006597     	auipc	a1, 0x6
800016b6: 53e58613     	addi	a2, a1, 0x53e
800016ba: 4589         	li	a1, 0x2
800016bc: 00005097     	auipc	ra, 0x5
800016c0: 590080e7     	jalr	0x590(ra) <core::panicking::panic_bounds_check::h6aaee0d15e0261eb>
800016c4: 6522         	ld	a0, 0x8(sp)
800016c6: 00351593     	slli	a1, a0, 0x3
800016ca: 0516         	slli	a0, a0, 0x5
800016cc: 40b505b3     	sub	a1, a0, a1

00000000800016d0 <.Lpcrel_hi88>:
800016d0: 00009517     	auipc	a0, 0x9
800016d4: 97850513     	addi	a0, a0, -0x688
800016d8: 952e         	add	a0, a0, a1
800016da: 6508         	ld	a0, 0x8(a0)
800016dc: ec2a         	sd	a0, 0x18(sp)
800016de: 18051073     	csrw	satp, a0
800016e2: 12000073     	sfence.vma
800016e6: 6105         	addi	sp, sp, 0x20
800016e8: 8082         	ret

00000000800016ea <.Lpcrel_hi89>:
800016ea: 00006517     	auipc	a0, 0x6
800016ee: 50650513     	addi	a0, a0, 0x506
800016f2: 00005097     	auipc	ra, 0x5
800016f6: 5c6080e7     	jalr	0x5c6(ra) <core::panicking::panic_null_pointer_dereference::hbac6411af4f2e916>

00000000800016fa <lab4_kernel_task3::clear_page_table::h4f5c9fc58ff8e20c>:
800016fa: 711d         	addi	sp, sp, -0x60
800016fc: ec86         	sd	ra, 0x58(sp)
800016fe: f02a         	sd	a0, 0x20(sp)
80001700: e4aa         	sd	a0, 0x48(sp)
80001702: 4501         	li	a0, 0x0
80001704: 20000593     	li	a1, 0x200
80001708: fffff097     	auipc	ra, 0xfffff
8000170c: c66080e7     	jalr	-0x39a(ra) <_$LT$I$u20$as$u20$core..iter..traits..collect..IntoIterator$GT$::into_iter::h9e4e361be1e05134>
80001710: f42a         	sd	a0, 0x28(sp)
80001712: f82e         	sd	a1, 0x30(sp)
80001714: a009         	j	0x80001716 <lab4_kernel_task3::clear_page_table::h4f5c9fc58ff8e20c+0x1c>
80001716: 1028         	addi	a0, sp, 0x28
80001718: fffff097     	auipc	ra, 0xfffff
8000171c: c42080e7     	jalr	-0x3be(ra) <core::iter::range::_$LT$impl$u20$core..iter..traits..iterator..Iterator$u20$for$u20$core..ops..range..Range$LT$A$GT$$GT$::next::h9ea1a7ea3eb8baf8>
80001720: fc2a         	sd	a0, 0x38(sp)
80001722: e0ae         	sd	a1, 0x40(sp)
80001724: 7562         	ld	a0, 0x38(sp)
80001726: 8905         	andi	a0, a0, 0x1
80001728: cd01         	beqz	a0, 0x80001740 <lab4_kernel_task3::clear_page_table::h4f5c9fc58ff8e20c+0x46>
8000172a: a009         	j	0x8000172c <lab4_kernel_task3::clear_page_table::h4f5c9fc58ff8e20c+0x32>
8000172c: 6506         	ld	a0, 0x40(sp)
8000172e: e82a         	sd	a0, 0x10(sp)
80001730: e8aa         	sd	a0, 0x50(sp)
80001732: 20000593     	li	a1, 0x200
80001736: 862a         	mv	a2, a0
80001738: ec32         	sd	a2, 0x18(sp)
8000173a: 00b56663     	bltu	a0, a1, 0x80001746 <lab4_kernel_task3::clear_page_table::h4f5c9fc58ff8e20c+0x4c>
8000173e: a811         	j	0x80001752 <lab4_kernel_task3::clear_page_table::h4f5c9fc58ff8e20c+0x58>
80001740: 60e6         	ld	ra, 0x58(sp)
80001742: 6125         	addi	sp, sp, 0x60
80001744: 8082         	ret
80001746: 7502         	ld	a0, 0x20(sp)
80001748: 85aa         	mv	a1, a0
8000174a: 1552         	slli	a0, a0, 0x34
8000174c: e42e         	sd	a1, 0x8(sp)
8000174e: cd09         	beqz	a0, 0x80001768 <.Lpcrel_hi90+0x14>
80001750: a839         	j	0x8000176e <.Lpcrel_hi90+0x1a>
80001752: 6562         	ld	a0, 0x18(sp)

0000000080001754 <.Lpcrel_hi90>:
80001754: 00006597     	auipc	a1, 0x6
80001758: 4b458613     	addi	a2, a1, 0x4b4
8000175c: 20000593     	li	a1, 0x200
80001760: 00005097     	auipc	ra, 0x5
80001764: 4ec080e7     	jalr	0x4ec(ra) <core::panicking::panic_bounds_check::h6aaee0d15e0261eb>
80001768: 7502         	ld	a0, 0x20(sp)
8000176a: ed01         	bnez	a0, 0x80001782 <.Lpcrel_hi91+0x12>
8000176c: a015         	j	0x80001790 <.Lpcrel_hi92>
8000176e: 65a2         	ld	a1, 0x8(sp)

0000000080001770 <.Lpcrel_hi91>:
80001770: 00006517     	auipc	a0, 0x6
80001774: 49850613     	addi	a2, a0, 0x498
80001778: 6505         	lui	a0, 0x1
8000177a: 00005097     	auipc	ra, 0x5
8000177e: 55e080e7     	jalr	0x55e(ra) <core::panicking::panic_misaligned_pointer_dereference::hda85f7fb51d959f0>
80001782: 7502         	ld	a0, 0x20(sp)
80001784: 65c2         	ld	a1, 0x10(sp)
80001786: 058e         	slli	a1, a1, 0x3
80001788: 95aa         	add	a1, a1, a0
8000178a: 4501         	li	a0, 0x0
8000178c: e188         	sd	a0, 0x0(a1)
8000178e: b761         	j	0x80001716 <lab4_kernel_task3::clear_page_table::h4f5c9fc58ff8e20c+0x1c>

0000000080001790 <.Lpcrel_hi92>:
80001790: 00006517     	auipc	a0, 0x6
80001794: 47850513     	addi	a0, a0, 0x478
80001798: 00005097     	auipc	ra, 0x5
8000179c: 520080e7     	jalr	0x520(ra) <core::panicking::panic_null_pointer_dereference::hbac6411af4f2e916>

00000000800017a0 <lab4_kernel_task3::install_data_pte::h73217dbd5c0aff42>:
800017a0: 7179         	addi	sp, sp, -0x30
800017a2: f406         	sd	ra, 0x28(sp)
800017a4: e42e         	sd	a1, 0x8(sp)
800017a6: 85aa         	mv	a1, a0
800017a8: 6522         	ld	a0, 0x8(sp)
800017aa: e82e         	sd	a1, 0x10(sp)
800017ac: ec2e         	sd	a1, 0x18(sp)
800017ae: f02a         	sd	a0, 0x20(sp)
800017b0: 4505         	li	a0, 0x1
800017b2: 02b56063     	bltu	a0, a1, 0x800017d2 <lab4_kernel_task3::install_data_pte::h73217dbd5c0aff42+0x32>
800017b6: a009         	j	0x800017b8 <lab4_kernel_task3::install_data_pte::h73217dbd5c0aff42+0x18>
800017b8: 00401537     	lui	a0, 0x401
800017bc: fffff097     	auipc	ra, 0xfffff
800017c0: 5b4080e7     	jalr	0x5b4(ra) <lab4_kernel_task3::vpn0_index::hb3d9a13406bd3e5b>
800017c4: 85aa         	mv	a1, a0
800017c6: e02e         	sd	a1, 0x0(sp)
800017c8: 20000593     	li	a1, 0x200
800017cc: 00b56d63     	bltu	a0, a1, 0x800017e6 <.Lpcrel_hi94>
800017d0: a015         	j	0x800017f4 <.Lpcrel_hi94+0xe>
800017d2: 6542         	ld	a0, 0x10(sp)

00000000800017d4 <.Lpcrel_hi93>:
800017d4: 00006597     	auipc	a1, 0x6
800017d8: 44c58613     	addi	a2, a1, 0x44c
800017dc: 4589         	li	a1, 0x2
800017de: 00005097     	auipc	ra, 0x5
800017e2: 46e080e7     	jalr	0x46e(ra) <core::panicking::panic_bounds_check::h6aaee0d15e0261eb>

00000000800017e6 <.Lpcrel_hi94>:
800017e6: 00017517     	auipc	a0, 0x17
800017ea: 81a50513     	addi	a0, a0, -0x7e6
800017ee: 1552         	slli	a0, a0, 0x34
800017f0: cd09         	beqz	a0, 0x8000180a <.Lpcrel_hi96>
800017f2: a015         	j	0x80001816 <.Lpcrel_hi97>
800017f4: 6502         	ld	a0, 0x0(sp)

00000000800017f6 <.Lpcrel_hi95>:
800017f6: 00006597     	auipc	a1, 0x6
800017fa: 42a58613     	addi	a2, a1, 0x42a
800017fe: 20000593     	li	a1, 0x200
80001802: 00005097     	auipc	ra, 0x5
80001806: 44a080e7     	jalr	0x44a(ra) <core::panicking::panic_bounds_check::h6aaee0d15e0261eb>

000000008000180a <.Lpcrel_hi96>:
8000180a: 00016517     	auipc	a0, 0x16
8000180e: 7f650513     	addi	a0, a0, 0x7f6
80001812: ed19         	bnez	a0, 0x80001830 <.Lpcrel_hi98+0x12>
80001814: a091         	j	0x80001858 <.Lpcrel_hi100>

0000000080001816 <.Lpcrel_hi97>:
80001816: 00016517     	auipc	a0, 0x16
8000181a: 7ea50593     	addi	a1, a0, 0x7ea

000000008000181e <.Lpcrel_hi98>:
8000181e: 00006517     	auipc	a0, 0x6
80001822: 40250613     	addi	a2, a0, 0x402
80001826: 6505         	lui	a0, 0x1
80001828: 00005097     	auipc	ra, 0x5
8000182c: 4b0080e7     	jalr	0x4b0(ra) <core::panicking::panic_misaligned_pointer_dereference::hda85f7fb51d959f0>
80001830: 6522         	ld	a0, 0x8(sp)
80001832: 6602         	ld	a2, 0x0(sp)
80001834: 65c2         	ld	a1, 0x10(sp)
80001836: 00c59693     	slli	a3, a1, 0xc

000000008000183a <.Lpcrel_hi99>:
8000183a: 00016597     	auipc	a1, 0x16
8000183e: 7c658593     	addi	a1, a1, 0x7c6
80001842: 95b6         	add	a1, a1, a3
80001844: 060e         	slli	a2, a2, 0x3
80001846: 95b2         	add	a1, a1, a2
80001848: e188         	sd	a0, 0x0(a1)
8000184a: 00401537     	lui	a0, 0x401
8000184e: 12050073     	sfence.vma	a0
80001852: 70a2         	ld	ra, 0x28(sp)
80001854: 6145         	addi	sp, sp, 0x30
80001856: 8082         	ret

0000000080001858 <.Lpcrel_hi100>:
80001858: 00006517     	auipc	a0, 0x6
8000185c: 3c850513     	addi	a0, a0, 0x3c8
80001860: 00005097     	auipc	ra, 0x5
80001864: 458080e7     	jalr	0x458(ra) <core::panicking::panic_null_pointer_dereference::hbac6411af4f2e916>

0000000080001868 <lab4_kernel_task3::kernel_stack_top::hbb75d91c6e884453>:
80001868: 00021517     	auipc	a0, 0x21
8000186c: 7e850513     	addi	a0, a0, 0x7e8
80001870: 8082         	ret

0000000080001872 <lab4_kernel_task3::user_program_len::h2de5f3c2913ef8aa>:
80001872: fffff517     	auipc	a0, 0xfffff
80001876: 3ae50593     	addi	a1, a0, 0x3ae

000000008000187a <.Lpcrel_hi103>:
8000187a: fffff517     	auipc	a0, 0xfffff
8000187e: 40e50513     	addi	a0, a0, 0x40e
80001882: 00b56d63     	bltu	a0, a1, 0x8000189c <.Lpcrel_hi106>
80001886: a009         	j	0x80001888 <.Lpcrel_hi104>

0000000080001888 <.Lpcrel_hi104>:
80001888: fffff517     	auipc	a0, 0xfffff
8000188c: 39850593     	addi	a1, a0, 0x398

0000000080001890 <.Lpcrel_hi105>:
80001890: fffff517     	auipc	a0, 0xfffff
80001894: 3f850513     	addi	a0, a0, 0x3f8
80001898: 8d0d         	sub	a0, a0, a1
8000189a: 8082         	ret

000000008000189c <.Lpcrel_hi106>:
8000189c: 00006517     	auipc	a0, 0x6
800018a0: 39c50513     	addi	a0, a0, 0x39c
800018a4: 00005097     	auipc	ra, 0x5
800018a8: 36c080e7     	jalr	0x36c(ra) <core::panicking::panic_const::panic_const_sub_overflow::hccc965ba9198de7c>

00000000800018ac <lab4_kernel_task3::copy_user_program::he38aade1d7e7c609>:
800018ac: 711d         	addi	sp, sp, -0x60
800018ae: ec86         	sd	ra, 0x58(sp)
800018b0: 00000097     	auipc	ra, 0x0
800018b4: fc2080e7     	jalr	-0x3e(ra) <lab4_kernel_task3::user_program_len::h2de5f3c2913ef8aa>
800018b8: 85aa         	mv	a1, a0

00000000800018ba <.Lpcrel_hi107>:
800018ba: fffff517     	auipc	a0, 0xfffff
800018be: 36650513     	addi	a0, a0, 0x366

00000000800018c2 <.Lpcrel_hi108>:
800018c2: 00006617     	auipc	a2, 0x6
800018c6: 38e60613     	addi	a2, a2, 0x38e
800018ca: 00004097     	auipc	ra, 0x4
800018ce: 0c4080e7     	jalr	0xc4(ra) <core::slice::raw::from_raw_parts::h7d46cb51b76edcd6>
800018d2: e42a         	sd	a0, 0x8(sp)
800018d4: 872e         	mv	a4, a1
800018d6: e83a         	sd	a4, 0x10(sp)
800018d8: ec2a         	sd	a0, 0x18(sp)
800018da: f03a         	sd	a4, 0x20(sp)
800018dc: e4aa         	sd	a0, 0x48(sp)
800018de: e8ba         	sd	a4, 0x50(sp)

00000000800018e0 <.Lpcrel_hi109>:
800018e0: 0000e597     	auipc	a1, 0xe
800018e4: 72058593     	addi	a1, a1, 0x720
800018e8: e02e         	sd	a1, 0x0(sp)
800018ea: e0ae         	sd	a1, 0x40(sp)
800018ec: f42a         	sd	a0, 0x28(sp)
800018ee: f82e         	sd	a1, 0x30(sp)
800018f0: fc3a         	sd	a4, 0x38(sp)

00000000800018f2 <.Lpcrel_hi110>:
800018f2: 00007617     	auipc	a2, 0x7
800018f6: 37660793     	addi	a5, a2, 0x376
800018fa: 4685         	li	a3, 0x1
800018fc: 8636         	mv	a2, a3
800018fe: fffff097     	auipc	ra, 0xfffff
80001902: eb4080e7     	jalr	-0x14c(ra) <core::ptr::copy_nonoverlapping::precondition_check::h7f6ab36a3c1120d9>
80001906: 6502         	ld	a0, 0x0(sp)
80001908: 65a2         	ld	a1, 0x8(sp)
8000190a: 6642         	ld	a2, 0x10(sp)
8000190c: 00005097     	auipc	ra, 0x5
80001910: 576080e7     	jalr	0x576(ra) <memcpy>
80001914: 60e6         	ld	ra, 0x58(sp)
80001916: 6125         	addi	sp, sp, 0x60
80001918: 8082         	ret

000000008000191a <lab4_kernel_task3::data_page_pool_pa::h9c68d81b7fc35bfd>:
8000191a: 00009517     	auipc	a0, 0x9
8000191e: 6e650513     	addi	a0, a0, 0x6e6
80001922: 8082         	ret

0000000080001924 <lab4_kernel_task3::finish_experiment::h3f9c2f6d12b943e3>:
80001924: 92010113     	addi	sp, sp, -0x6e0
80001928: 6c113c23     	sd	ra, 0x6d8(sp)
8000192c: 10a8         	addi	a0, sp, 0x68
8000192e: 4581         	li	a1, 0x0
80001930: 00401637     	lui	a2, 0x401
80001934: fc32         	sd	a2, 0x38(sp)
80001936: 00001097     	auipc	ra, 0x1
8000193a: e88080e7     	jalr	-0x178(ra) <lab4_kernel_task3::walk_proc_virtual::h08c829cfb27276f9>
8000193e: 7662         	ld	a2, 0x38(sp)
80001940: 1128         	addi	a0, sp, 0xa8
80001942: 4585         	li	a1, 0x1
80001944: 00001097     	auipc	ra, 0x1
80001948: e7a080e7     	jalr	-0x186(ra) <lab4_kernel_task3::walk_proc_virtual::h08c829cfb27276f9>
8000194c: 750a         	ld	a0, 0xa0(sp)
8000194e: 00003097     	auipc	ra, 0x3
80001952: 652080e7     	jalr	0x652(ra) <lab4_kernel_task3::pte_to_pa::h5acd02dcfb8b5338>
80001956: e4aa         	sd	a0, 0x48(sp)
80001958: 85aa         	mv	a1, a0
8000195a: e0ae         	sd	a1, 0x40(sp)
8000195c: 62a13823     	sd	a0, 0x630(sp)
80001960: 750e         	ld	a0, 0xe0(sp)
80001962: 00003097     	auipc	ra, 0x3
80001966: 63e080e7     	jalr	0x63e(ra) <lab4_kernel_task3::pte_to_pa::h5acd02dcfb8b5338>
8000196a: 85aa         	mv	a1, a0
8000196c: 6526         	ld	a0, 0x48(sp)
8000196e: 862e         	mv	a2, a1
80001970: e8b2         	sd	a2, 0x50(sp)
80001972: 62b13c23     	sd	a1, 0x638(sp)
80001976: 85aa         	mv	a1, a0
80001978: ecae         	sd	a1, 0x58(sp)
8000197a: 85aa         	mv	a1, a0
8000197c: f0ae         	sd	a1, 0x60(sp)
8000197e: 891d         	andi	a0, a0, 0x7
80001980: e509         	bnez	a0, 0x8000198a <lab4_kernel_task3::finish_experiment::h3f9c2f6d12b943e3+0x66>
80001982: a009         	j	0x80001984 <lab4_kernel_task3::finish_experiment::h3f9c2f6d12b943e3+0x60>
80001984: 6566         	ld	a0, 0x58(sp)
80001986: ed01         	bnez	a0, 0x8000199e <.Lpcrel_hi112+0x12>
80001988: a035         	j	0x800019b4 <.Lpcrel_hi113>
8000198a: 7586         	ld	a1, 0x60(sp)

000000008000198c <.Lpcrel_hi112>:
8000198c: 00006517     	auipc	a0, 0x6
80001990: 2dc50613     	addi	a2, a0, 0x2dc
80001994: 4521         	li	a0, 0x8
80001996: 00005097     	auipc	ra, 0x5
8000199a: 342080e7     	jalr	0x342(ra) <core::panicking::panic_misaligned_pointer_dereference::hda85f7fb51d959f0>
8000199e: 6546         	ld	a0, 0x50(sp)
800019a0: 65e6         	ld	a1, 0x58(sp)
800019a2: 618c         	ld	a1, 0x0(a1)
800019a4: f5ae         	sd	a1, 0xe8(sp)
800019a6: 85aa         	mv	a1, a0
800019a8: f42e         	sd	a1, 0x28(sp)
800019aa: 85aa         	mv	a1, a0
800019ac: f82e         	sd	a1, 0x30(sp)
800019ae: 891d         	andi	a0, a0, 0x7
800019b0: c911         	beqz	a0, 0x800019c4 <.Lpcrel_hi113+0x10>
800019b2: a821         	j	0x800019ca <.Lpcrel_hi113+0x16>

00000000800019b4 <.Lpcrel_hi113>:
800019b4: 00006517     	auipc	a0, 0x6
800019b8: 2b450513     	addi	a0, a0, 0x2b4
800019bc: 00005097     	auipc	ra, 0x5
800019c0: 2fc080e7     	jalr	0x2fc(ra) <core::panicking::panic_null_pointer_dereference::hbac6411af4f2e916>
800019c4: 7522         	ld	a0, 0x28(sp)
800019c6: ed01         	bnez	a0, 0x800019de <.Lpcrel_hi114+0x12>
800019c8: a025         	j	0x800019f0 <.Lpcrel_hi116>
800019ca: 75c2         	ld	a1, 0x30(sp)

00000000800019cc <.Lpcrel_hi114>:
800019cc: 00006517     	auipc	a0, 0x6
800019d0: 2b450613     	addi	a2, a0, 0x2b4
800019d4: 4521         	li	a0, 0x8
800019d6: 00005097     	auipc	ra, 0x5
800019da: 302080e7     	jalr	0x302(ra) <core::panicking::panic_misaligned_pointer_dereference::hda85f7fb51d959f0>
800019de: 7522         	ld	a0, 0x28(sp)
800019e0: 6108         	ld	a0, 0x0(a0)
800019e2: f9aa         	sd	a0, 0xf0(sp)

00000000800019e4 <.Lpcrel_hi115>:
800019e4: 0000f517     	auipc	a0, 0xf
800019e8: 61c50513     	addi	a0, a0, 0x61c
800019ec: e911         	bnez	a0, 0x80001a00 <.Lpcrel_hi117>
800019ee: a03d         	j	0x80001a1c <.Lpcrel_hi118>

00000000800019f0 <.Lpcrel_hi116>:
800019f0: 00006517     	auipc	a0, 0x6
800019f4: 29050513     	addi	a0, a0, 0x290
800019f8: 00005097     	auipc	ra, 0x5
800019fc: 2c0080e7     	jalr	0x2c0(ra) <core::panicking::panic_null_pointer_dereference::hbac6411af4f2e916>

0000000080001a00 <.Lpcrel_hi117>:
80001a00: 0000f517     	auipc	a0, 0xf
80001a04: 60050513     	addi	a0, a0, 0x600
80001a08: 6d0c         	ld	a1, 0x18(a0)
80001a0a: ea2e         	sd	a1, 0x110(sp)
80001a0c: 690c         	ld	a1, 0x10(a0)
80001a0e: e62e         	sd	a1, 0x108(sp)
80001a10: 650c         	ld	a1, 0x8(a0)
80001a12: e22e         	sd	a1, 0x100(sp)
80001a14: 610c         	ld	a1, 0x0(a0)
80001a16: fdae         	sd	a1, 0xf8(sp)
80001a18: e911         	bnez	a0, 0x80001a2c <.Lpcrel_hi119>
80001a1a: a81d         	j	0x80001a50 <.Lpcrel_hi121>

0000000080001a1c <.Lpcrel_hi118>:
80001a1c: 00006517     	auipc	a0, 0x6
80001a20: 27c50513     	addi	a0, a0, 0x27c
80001a24: 00005097     	auipc	ra, 0x5
80001a28: 294080e7     	jalr	0x294(ra) <core::panicking::panic_null_pointer_dereference::hbac6411af4f2e916>

0000000080001a2c <.Lpcrel_hi119>:
80001a2c: 0000f517     	auipc	a0, 0xf
80001a30: 5d450513     	addi	a0, a0, 0x5d4
80001a34: 7d0c         	ld	a1, 0x38(a0)
80001a36: fa2e         	sd	a1, 0x130(sp)
80001a38: 790c         	ld	a1, 0x30(a0)
80001a3a: f62e         	sd	a1, 0x128(sp)
80001a3c: 750c         	ld	a1, 0x28(a0)
80001a3e: f22e         	sd	a1, 0x120(sp)
80001a40: 7108         	ld	a0, 0x20(a0)
80001a42: ee2a         	sd	a0, 0x118(sp)

0000000080001a44 <.Lpcrel_hi120>:
80001a44: 00008517     	auipc	a0, 0x8
80001a48: 5bc50513     	addi	a0, a0, 0x5bc
80001a4c: e911         	bnez	a0, 0x80001a60 <.Lpcrel_hi122>
80001a4e: a0a1         	j	0x80001a96 <.Lpcrel_hi124>

0000000080001a50 <.Lpcrel_hi121>:
80001a50: 00006517     	auipc	a0, 0x6
80001a54: 26050513     	addi	a0, a0, 0x260
80001a58: 00005097     	auipc	ra, 0x5
80001a5c: 260080e7     	jalr	0x260(ra) <core::panicking::panic_null_pointer_dereference::hbac6411af4f2e916>

0000000080001a60 <.Lpcrel_hi122>:
80001a60: 00008517     	auipc	a0, 0x8
80001a64: 5a050513     	addi	a0, a0, 0x5a0
80001a68: f02a         	sd	a0, 0x20(sp)
80001a6a: 7d0c         	ld	a1, 0x38(a0)
80001a6c: faae         	sd	a1, 0x170(sp)
80001a6e: 790c         	ld	a1, 0x30(a0)
80001a70: f6ae         	sd	a1, 0x168(sp)
80001a72: 750c         	ld	a1, 0x28(a0)
80001a74: f2ae         	sd	a1, 0x160(sp)
80001a76: 710c         	ld	a1, 0x20(a0)
80001a78: eeae         	sd	a1, 0x158(sp)
80001a7a: 6d0c         	ld	a1, 0x18(a0)
80001a7c: eaae         	sd	a1, 0x150(sp)
80001a7e: 690c         	ld	a1, 0x10(a0)
80001a80: e6ae         	sd	a1, 0x148(sp)
80001a82: 650c         	ld	a1, 0x8(a0)
80001a84: e2ae         	sd	a1, 0x140(sp)
80001a86: 6108         	ld	a0, 0x0(a0)
80001a88: fe2a         	sd	a0, 0x138(sp)

0000000080001a8a <.Lpcrel_hi123>:
80001a8a: 00019517     	auipc	a0, 0x19
80001a8e: 57e50513     	addi	a0, a0, 0x57e
80001a92: e911         	bnez	a0, 0x80001aa6 <.Lpcrel_hi125>
80001a94: a965         	j	0x80001f4c <.Lpcrel_hi132>

0000000080001a96 <.Lpcrel_hi124>:
80001a96: 00006517     	auipc	a0, 0x6
80001a9a: 23250513     	addi	a0, a0, 0x232
80001a9e: 00005097     	auipc	ra, 0x5
80001aa2: 21a080e7     	jalr	0x21a(ra) <core::panicking::panic_null_pointer_dereference::hbac6411af4f2e916>

0000000080001aa6 <.Lpcrel_hi125>:
80001aa6: 00019517     	auipc	a0, 0x19
80001aaa: 56250593     	addi	a1, a0, 0x562
80001aae: 1aa8         	addi	a0, sp, 0x178
80001ab0: e42a         	sd	a0, 0x8(sp)
80001ab2: 04800613     	li	a2, 0x48
80001ab6: 00005097     	auipc	ra, 0x5
80001aba: 3cc080e7     	jalr	0x3cc(ra) <memcpy>
80001abe: 02b8         	addi	a4, sp, 0x148
80001ac0: 0a94         	addi	a3, sp, 0x150
80001ac2: 0290         	addi	a2, sp, 0x140
80001ac4: 0aac         	addi	a1, sp, 0x158
80001ac6: 1288         	addi	a0, sp, 0x160
80001ac8: 1a3c         	addi	a5, sp, 0x138
80001aca: e3be         	sd	a5, 0x1c0(sp)
80001acc: e7ba         	sd	a4, 0x1c8(sp)
80001ace: ebb6         	sd	a3, 0x1d0(sp)
80001ad0: efb2         	sd	a2, 0x1d8(sp)
80001ad2: f3ae         	sd	a1, 0x1e0(sp)
80001ad4: f7aa         	sd	a0, 0x1e8(sp)
80001ad6: 659e         	ld	a1, 0x1c0(sp)
80001ad8: 0c88         	addi	a0, sp, 0x250
80001ada: fffff097     	auipc	ra, 0xfffff
80001ade: 94a080e7     	jalr	-0x6b6(ra) <core::fmt::rt::Argument::new_display::h2a194c625b616a7c>
80001ae2: 65be         	ld	a1, 0x1c8(sp)
80001ae4: 1488         	addi	a0, sp, 0x260
80001ae6: fffff097     	auipc	ra, 0xfffff
80001aea: 93e080e7     	jalr	-0x6c2(ra) <core::fmt::rt::Argument::new_display::h2a194c625b616a7c>
80001aee: 65de         	ld	a1, 0x1d0(sp)
80001af0: 1c88         	addi	a0, sp, 0x270
80001af2: fffff097     	auipc	ra, 0xfffff
80001af6: 932080e7     	jalr	-0x6ce(ra) <core::fmt::rt::Argument::new_display::h2a194c625b616a7c>
80001afa: 65fe         	ld	a1, 0x1d8(sp)
80001afc: 0508         	addi	a0, sp, 0x280
80001afe: fffff097     	auipc	ra, 0xfffff
80001b02: 9d0080e7     	jalr	-0x630(ra) <core::fmt::rt::Argument::new_lower_hex::hfcf8be588603c455>
80001b06: 759e         	ld	a1, 0x1e0(sp)
80001b08: 0d08         	addi	a0, sp, 0x290
80001b0a: fffff097     	auipc	ra, 0xfffff
80001b0e: 91a080e7     	jalr	-0x6e6(ra) <core::fmt::rt::Argument::new_display::h2a194c625b616a7c>
80001b12: 75be         	ld	a1, 0x1e8(sp)
80001b14: 1508         	addi	a0, sp, 0x2a0
80001b16: fffff097     	auipc	ra, 0xfffff
80001b1a: 90e080e7     	jalr	-0x6f2(ra) <core::fmt::rt::Argument::new_display::h2a194c625b616a7c>
80001b1e: 25813503     	ld	a0, 0x258(sp)
80001b22: ffaa         	sd	a0, 0x1f8(sp)
80001b24: 25013503     	ld	a0, 0x250(sp)
80001b28: fbaa         	sd	a0, 0x1f0(sp)
80001b2a: 26813503     	ld	a0, 0x268(sp)
80001b2e: 20a13423     	sd	a0, 0x208(sp)
80001b32: 26013503     	ld	a0, 0x260(sp)
80001b36: 20a13023     	sd	a0, 0x200(sp)
80001b3a: 27813503     	ld	a0, 0x278(sp)
80001b3e: 20a13c23     	sd	a0, 0x218(sp)
80001b42: 27013503     	ld	a0, 0x270(sp)
80001b46: 20a13823     	sd	a0, 0x210(sp)
80001b4a: 28813503     	ld	a0, 0x288(sp)
80001b4e: 22a13423     	sd	a0, 0x228(sp)
80001b52: 28013503     	ld	a0, 0x280(sp)
80001b56: 22a13023     	sd	a0, 0x220(sp)
80001b5a: 29813503     	ld	a0, 0x298(sp)
80001b5e: 22a13c23     	sd	a0, 0x238(sp)
80001b62: 29013503     	ld	a0, 0x290(sp)
80001b66: 22a13823     	sd	a0, 0x230(sp)
80001b6a: 2a813503     	ld	a0, 0x2a8(sp)
80001b6e: 24a13423     	sd	a0, 0x248(sp)
80001b72: 2a013503     	ld	a0, 0x2a0(sp)
80001b76: 24a13023     	sd	a0, 0x240(sp)

0000000080001b7a <.Lpcrel_hi126>:
80001b7a: 00006517     	auipc	a0, 0x6
80001b7e: 17e50513     	addi	a0, a0, 0x17e
80001b82: 1b8c         	addi	a1, sp, 0x1f0
80001b84: 00004097     	auipc	ra, 0x4
80001b88: d60080e7     	jalr	-0x2a0(ra) <core::fmt::Arguments::new::h2480394a9cf89832>
80001b8c: ffffe097     	auipc	ra, 0xffffe
80001b90: 606080e7     	jalr	0x606(ra) <lab4_kernel_task3::console::print::h3e60aa2d39f23b20>
80001b94: 62a2         	ld	t0, 0x8(sp)
80001b96: 18010893     	addi	a7, sp, 0x180
80001b9a: 18810813     	addi	a6, sp, 0x188
80001b9e: 0b1c         	addi	a5, sp, 0x190
80001ba0: 0b38         	addi	a4, sp, 0x198
80001ba2: 1314         	addi	a3, sp, 0x1a0
80001ba4: 1330         	addi	a2, sp, 0x1a8
80001ba6: 1b0c         	addi	a1, sp, 0x1b0
80001ba8: 1b28         	addi	a0, sp, 0x1b8
80001baa: 2a513823     	sd	t0, 0x2b0(sp)
80001bae: 2b113c23     	sd	a7, 0x2b8(sp)
80001bb2: 2d013023     	sd	a6, 0x2c0(sp)
80001bb6: 2cf13423     	sd	a5, 0x2c8(sp)
80001bba: 2ce13823     	sd	a4, 0x2d0(sp)
80001bbe: 2cd13c23     	sd	a3, 0x2d8(sp)
80001bc2: 2ec13023     	sd	a2, 0x2e0(sp)
80001bc6: 2eb13423     	sd	a1, 0x2e8(sp)
80001bca: 2ea13823     	sd	a0, 0x2f0(sp)
80001bce: 2b013583     	ld	a1, 0x2b0(sp)
80001bd2: 0728         	addi	a0, sp, 0x388
80001bd4: fffff097     	auipc	ra, 0xfffff
80001bd8: 850080e7     	jalr	-0x7b0(ra) <core::fmt::rt::Argument::new_display::h2a194c625b616a7c>
80001bdc: 2b813583     	ld	a1, 0x2b8(sp)
80001be0: 0f28         	addi	a0, sp, 0x398
80001be2: fffff097     	auipc	ra, 0xfffff
80001be6: 842080e7     	jalr	-0x7be(ra) <core::fmt::rt::Argument::new_display::h2a194c625b616a7c>
80001bea: 2c013583     	ld	a1, 0x2c0(sp)
80001bee: 1728         	addi	a0, sp, 0x3a8
80001bf0: fffff097     	auipc	ra, 0xfffff
80001bf4: 834080e7     	jalr	-0x7cc(ra) <core::fmt::rt::Argument::new_display::h2a194c625b616a7c>
80001bf8: 2c813583     	ld	a1, 0x2c8(sp)
80001bfc: 1f28         	addi	a0, sp, 0x3b8
80001bfe: fffff097     	auipc	ra, 0xfffff
80001c02: 826080e7     	jalr	-0x7da(ra) <core::fmt::rt::Argument::new_display::h2a194c625b616a7c>
80001c06: 2d013583     	ld	a1, 0x2d0(sp)
80001c0a: 07a8         	addi	a0, sp, 0x3c8
80001c0c: fffff097     	auipc	ra, 0xfffff
80001c10: 8c2080e7     	jalr	-0x73e(ra) <core::fmt::rt::Argument::new_lower_hex::hfcf8be588603c455>
80001c14: 2d813583     	ld	a1, 0x2d8(sp)
80001c18: 0fa8         	addi	a0, sp, 0x3d8
80001c1a: fffff097     	auipc	ra, 0xfffff
80001c1e: 8b4080e7     	jalr	-0x74c(ra) <core::fmt::rt::Argument::new_lower_hex::hfcf8be588603c455>
80001c22: 2e013583     	ld	a1, 0x2e0(sp)
80001c26: 17a8         	addi	a0, sp, 0x3e8
80001c28: ffffe097     	auipc	ra, 0xffffe
80001c2c: 7fc080e7     	jalr	0x7fc(ra) <core::fmt::rt::Argument::new_display::h2a194c625b616a7c>
80001c30: 2e813583     	ld	a1, 0x2e8(sp)
80001c34: 1fa8         	addi	a0, sp, 0x3f8
80001c36: fffff097     	auipc	ra, 0xfffff
80001c3a: 898080e7     	jalr	-0x768(ra) <core::fmt::rt::Argument::new_lower_hex::hfcf8be588603c455>
80001c3e: 2f013583     	ld	a1, 0x2f0(sp)
80001c42: 40810513     	addi	a0, sp, 0x408
80001c46: fffff097     	auipc	ra, 0xfffff
80001c4a: 888080e7     	jalr	-0x778(ra) <core::fmt::rt::Argument::new_lower_hex::hfcf8be588603c455>
80001c4e: 39013503     	ld	a0, 0x390(sp)
80001c52: 30a13023     	sd	a0, 0x300(sp)
80001c56: 38813503     	ld	a0, 0x388(sp)
80001c5a: 2ea13c23     	sd	a0, 0x2f8(sp)
80001c5e: 3a013503     	ld	a0, 0x3a0(sp)
80001c62: 30a13823     	sd	a0, 0x310(sp)
80001c66: 39813503     	ld	a0, 0x398(sp)
80001c6a: 30a13423     	sd	a0, 0x308(sp)
80001c6e: 3b013503     	ld	a0, 0x3b0(sp)
80001c72: 32a13023     	sd	a0, 0x320(sp)
80001c76: 3a813503     	ld	a0, 0x3a8(sp)
80001c7a: 30a13c23     	sd	a0, 0x318(sp)
80001c7e: 3c013503     	ld	a0, 0x3c0(sp)
80001c82: 32a13823     	sd	a0, 0x330(sp)
80001c86: 3b813503     	ld	a0, 0x3b8(sp)
80001c8a: 32a13423     	sd	a0, 0x328(sp)
80001c8e: 3d013503     	ld	a0, 0x3d0(sp)
80001c92: 34a13023     	sd	a0, 0x340(sp)
80001c96: 3c813503     	ld	a0, 0x3c8(sp)
80001c9a: 32a13c23     	sd	a0, 0x338(sp)
80001c9e: 3e013503     	ld	a0, 0x3e0(sp)
80001ca2: 34a13823     	sd	a0, 0x350(sp)
80001ca6: 3d813503     	ld	a0, 0x3d8(sp)
80001caa: 34a13423     	sd	a0, 0x348(sp)
80001cae: 3f013503     	ld	a0, 0x3f0(sp)
80001cb2: 36a13023     	sd	a0, 0x360(sp)
80001cb6: 3e813503     	ld	a0, 0x3e8(sp)
80001cba: 34a13c23     	sd	a0, 0x358(sp)
80001cbe: 40013503     	ld	a0, 0x400(sp)
80001cc2: 36a13823     	sd	a0, 0x370(sp)
80001cc6: 3f813503     	ld	a0, 0x3f8(sp)
80001cca: 36a13423     	sd	a0, 0x368(sp)
80001cce: 41013503     	ld	a0, 0x410(sp)
80001cd2: 38a13023     	sd	a0, 0x380(sp)
80001cd6: 40813503     	ld	a0, 0x408(sp)
80001cda: 36a13c23     	sd	a0, 0x378(sp)

0000000080001cde <.Lpcrel_hi127>:
80001cde: 00006517     	auipc	a0, 0x6
80001ce2: 08b50513     	addi	a0, a0, 0x8b
80001ce6: 1dac         	addi	a1, sp, 0x2f8
80001ce8: 00004097     	auipc	ra, 0x4
80001cec: bd4080e7     	jalr	-0x42c(ra) <core::fmt::Arguments::new::h068db72f8c8acc24>
80001cf0: ffffe097     	auipc	ra, 0xffffe
80001cf4: 4a2080e7     	jalr	0x4a2(ra) <lab4_kernel_task3::console::print::h3e60aa2d39f23b20>
80001cf8: 0210         	addi	a2, sp, 0x100
80001cfa: 022c         	addi	a1, sp, 0x108
80001cfc: 1208         	addi	a0, sp, 0x120
80001cfe: 19b4         	addi	a3, sp, 0xf8
80001d00: 40d13c23     	sd	a3, 0x418(sp)
80001d04: 42c13023     	sd	a2, 0x420(sp)
80001d08: 42b13423     	sd	a1, 0x428(sp)
80001d0c: 0a2c         	addi	a1, sp, 0x118
80001d0e: 42b13823     	sd	a1, 0x430(sp)
80001d12: 42a13c23     	sd	a0, 0x438(sp)
80001d16: 41813583     	ld	a1, 0x418(sp)
80001d1a: 49010513     	addi	a0, sp, 0x490
80001d1e: ffffe097     	auipc	ra, 0xffffe
80001d22: 78e080e7     	jalr	0x78e(ra) <core::fmt::rt::Argument::new_lower_hex::hc3d6cd349d9eaed3>
80001d26: 42013583     	ld	a1, 0x420(sp)
80001d2a: 4a010513     	addi	a0, sp, 0x4a0
80001d2e: ffffe097     	auipc	ra, 0xffffe
80001d32: 77e080e7     	jalr	0x77e(ra) <core::fmt::rt::Argument::new_lower_hex::hc3d6cd349d9eaed3>
80001d36: 42813583     	ld	a1, 0x428(sp)
80001d3a: 4b010513     	addi	a0, sp, 0x4b0
80001d3e: ffffe097     	auipc	ra, 0xffffe
80001d42: 76e080e7     	jalr	0x76e(ra) <core::fmt::rt::Argument::new_lower_hex::hc3d6cd349d9eaed3>
80001d46: 43013583     	ld	a1, 0x430(sp)
80001d4a: 4c010513     	addi	a0, sp, 0x4c0
80001d4e: ffffe097     	auipc	ra, 0xffffe
80001d52: 75e080e7     	jalr	0x75e(ra) <core::fmt::rt::Argument::new_lower_hex::hc3d6cd349d9eaed3>
80001d56: 43813583     	ld	a1, 0x438(sp)
80001d5a: 4d010513     	addi	a0, sp, 0x4d0
80001d5e: ffffe097     	auipc	ra, 0xffffe
80001d62: 74e080e7     	jalr	0x74e(ra) <core::fmt::rt::Argument::new_lower_hex::hc3d6cd349d9eaed3>
80001d66: 49813503     	ld	a0, 0x498(sp)
80001d6a: 44a13423     	sd	a0, 0x448(sp)
80001d6e: 49013503     	ld	a0, 0x490(sp)
80001d72: 44a13023     	sd	a0, 0x440(sp)
80001d76: 4a813503     	ld	a0, 0x4a8(sp)
80001d7a: 44a13c23     	sd	a0, 0x458(sp)
80001d7e: 4a013503     	ld	a0, 0x4a0(sp)
80001d82: 44a13823     	sd	a0, 0x450(sp)
80001d86: 4b813503     	ld	a0, 0x4b8(sp)
80001d8a: 46a13423     	sd	a0, 0x468(sp)
80001d8e: 4b013503     	ld	a0, 0x4b0(sp)
80001d92: 46a13023     	sd	a0, 0x460(sp)
80001d96: 4c813503     	ld	a0, 0x4c8(sp)
80001d9a: 46a13c23     	sd	a0, 0x478(sp)
80001d9e: 4c013503     	ld	a0, 0x4c0(sp)
80001da2: 46a13823     	sd	a0, 0x470(sp)
80001da6: 4d813503     	ld	a0, 0x4d8(sp)
80001daa: 48a13423     	sd	a0, 0x488(sp)
80001dae: 4d013503     	ld	a0, 0x4d0(sp)
80001db2: 48a13023     	sd	a0, 0x480(sp)

0000000080001db6 <.Lpcrel_hi128>:
80001db6: 00006517     	auipc	a0, 0x6
80001dba: 07950513     	addi	a0, a0, 0x79
80001dbe: 44010593     	addi	a1, sp, 0x440
80001dc2: 00004097     	auipc	ra, 0x4
80001dc6: b90080e7     	jalr	-0x470(ra) <core::fmt::Arguments::new::hd92b9cc1483412c6>
80001dca: ffffe097     	auipc	ra, 0xffffe
80001dce: 3c8080e7     	jalr	0x3c8(ra) <lab4_kernel_task3::console::print::h3e60aa2d39f23b20>
80001dd2: 6506         	ld	a0, 0x40(sp)
80001dd4: 00001097     	auipc	ra, 0x1
80001dd8: e46080e7     	jalr	-0x1ba(ra) <lab4_kernel_task3::data_page_refcount::hb6e760d9cb0a8983>
80001ddc: 85aa         	mv	a1, a0
80001dde: 6546         	ld	a0, 0x50(sp)
80001de0: 50b13023     	sd	a1, 0x500(sp)
80001de4: 00001097     	auipc	ra, 0x1
80001de8: e36080e7     	jalr	-0x1ca(ra) <lab4_kernel_task3::data_page_refcount::hb6e760d9cb0a8983>
80001dec: 50a13423     	sd	a0, 0x508(sp)
80001df0: 11a8         	addi	a0, sp, 0xe8
80001df2: 4ea13023     	sd	a0, 0x4e0(sp)
80001df6: 1988         	addi	a0, sp, 0xf0
80001df8: 4ea13423     	sd	a0, 0x4e8(sp)
80001dfc: 50010513     	addi	a0, sp, 0x500
80001e00: 4ea13823     	sd	a0, 0x4f0(sp)
80001e04: 50810513     	addi	a0, sp, 0x508
80001e08: 4ea13c23     	sd	a0, 0x4f8(sp)
80001e0c: 4e013583     	ld	a1, 0x4e0(sp)
80001e10: 55010513     	addi	a0, sp, 0x550
80001e14: ffffe097     	auipc	ra, 0xffffe
80001e18: 698080e7     	jalr	0x698(ra) <core::fmt::rt::Argument::new_lower_hex::hc3d6cd349d9eaed3>
80001e1c: 4e813583     	ld	a1, 0x4e8(sp)
80001e20: 56010513     	addi	a0, sp, 0x560
80001e24: ffffe097     	auipc	ra, 0xffffe
80001e28: 688080e7     	jalr	0x688(ra) <core::fmt::rt::Argument::new_lower_hex::hc3d6cd349d9eaed3>
80001e2c: 4f013583     	ld	a1, 0x4f0(sp)
80001e30: 57010513     	addi	a0, sp, 0x570
80001e34: ffffe097     	auipc	ra, 0xffffe
80001e38: 5f0080e7     	jalr	0x5f0(ra) <core::fmt::rt::Argument::new_display::h2a194c625b616a7c>
80001e3c: 4f813583     	ld	a1, 0x4f8(sp)
80001e40: 58010513     	addi	a0, sp, 0x580
80001e44: ffffe097     	auipc	ra, 0xffffe
80001e48: 5e0080e7     	jalr	0x5e0(ra) <core::fmt::rt::Argument::new_display::h2a194c625b616a7c>
80001e4c: 55813503     	ld	a0, 0x558(sp)
80001e50: 50a13c23     	sd	a0, 0x518(sp)
80001e54: 55013503     	ld	a0, 0x550(sp)
80001e58: 50a13823     	sd	a0, 0x510(sp)
80001e5c: 56813503     	ld	a0, 0x568(sp)
80001e60: 52a13423     	sd	a0, 0x528(sp)
80001e64: 56013503     	ld	a0, 0x560(sp)
80001e68: 52a13023     	sd	a0, 0x520(sp)
80001e6c: 57813503     	ld	a0, 0x578(sp)
80001e70: 52a13c23     	sd	a0, 0x538(sp)
80001e74: 57013503     	ld	a0, 0x570(sp)
80001e78: 52a13823     	sd	a0, 0x530(sp)
80001e7c: 58813503     	ld	a0, 0x588(sp)
80001e80: 54a13423     	sd	a0, 0x548(sp)
80001e84: 58013503     	ld	a0, 0x580(sp)
80001e88: 54a13023     	sd	a0, 0x540(sp)

0000000080001e8c <.Lpcrel_hi129>:
80001e8c: 00006517     	auipc	a0, 0x6
80001e90: 02350513     	addi	a0, a0, 0x23
80001e94: 51010593     	addi	a1, sp, 0x510
80001e98: 00004097     	auipc	ra, 0x4
80001e9c: a7e080e7     	jalr	-0x582(ra) <core::fmt::Arguments::new::h642938835a2db26b>
80001ea0: ffffe097     	auipc	ra, 0xffffe
80001ea4: 2f2080e7     	jalr	0x2f2(ra) <lab4_kernel_task3::console::print::h3e60aa2d39f23b20>
80001ea8: 750a         	ld	a0, 0xa0(sp)
80001eaa: 66a13c23     	sd	a0, 0x678(sp)
80001eae: 656a         	ld	a0, 0x98(sp)
80001eb0: 66a13823     	sd	a0, 0x670(sp)
80001eb4: 654a         	ld	a0, 0x90(sp)
80001eb6: 66a13423     	sd	a0, 0x668(sp)
80001eba: 652a         	ld	a0, 0x88(sp)
80001ebc: 66a13023     	sd	a0, 0x660(sp)
80001ec0: 650a         	ld	a0, 0x80(sp)
80001ec2: 64a13c23     	sd	a0, 0x658(sp)
80001ec6: 7566         	ld	a0, 0x78(sp)
80001ec8: 64a13823     	sd	a0, 0x650(sp)
80001ecc: 7546         	ld	a0, 0x70(sp)
80001ece: 64a13423     	sd	a0, 0x648(sp)
80001ed2: 7526         	ld	a0, 0x68(sp)
80001ed4: 64a13023     	sd	a0, 0x640(sp)

0000000080001ed8 <.Lpcrel_hi130>:
80001ed8: 00006517     	auipc	a0, 0x6
80001edc: 03350513     	addi	a0, a0, 0x33
80001ee0: 45b1         	li	a1, 0xc
80001ee2: 4601         	li	a2, 0x0
80001ee4: 004016b7     	lui	a3, 0x401
80001ee8: e836         	sd	a3, 0x10(sp)
80001eea: 64010713     	addi	a4, sp, 0x640
80001eee: 00000097     	auipc	ra, 0x0
80001ef2: 6e8080e7     	jalr	0x6e8(ra) <lab4_kernel_task3::print_walk_result::hcf69bf9dcb7f322d>
80001ef6: 66c2         	ld	a3, 0x10(sp)
80001ef8: 750e         	ld	a0, 0xe0(sp)
80001efa: 6aa13c23     	sd	a0, 0x6b8(sp)
80001efe: 656e         	ld	a0, 0xd8(sp)
80001f00: 6aa13823     	sd	a0, 0x6b0(sp)
80001f04: 654e         	ld	a0, 0xd0(sp)
80001f06: 6aa13423     	sd	a0, 0x6a8(sp)
80001f0a: 652e         	ld	a0, 0xc8(sp)
80001f0c: 6aa13023     	sd	a0, 0x6a0(sp)
80001f10: 650e         	ld	a0, 0xc0(sp)
80001f12: 68a13c23     	sd	a0, 0x698(sp)
80001f16: 756a         	ld	a0, 0xb8(sp)
80001f18: 68a13823     	sd	a0, 0x690(sp)
80001f1c: 754a         	ld	a0, 0xb0(sp)
80001f1e: 68a13423     	sd	a0, 0x688(sp)
80001f22: 752a         	ld	a0, 0xa8(sp)
80001f24: 68a13023     	sd	a0, 0x680(sp)

0000000080001f28 <.Lpcrel_hi131>:
80001f28: 00006517     	auipc	a0, 0x6
80001f2c: fef50513     	addi	a0, a0, -0x11
80001f30: 45ad         	li	a1, 0xb
80001f32: 4605         	li	a2, 0x1
80001f34: ec32         	sd	a2, 0x18(sp)
80001f36: 68010713     	addi	a4, sp, 0x680
80001f3a: 00000097     	auipc	ra, 0x0
80001f3e: 69c080e7     	jalr	0x69c(ra) <lab4_kernel_task3::print_walk_result::hcf69bf9dcb7f322d>
80001f42: 65e2         	ld	a1, 0x18(sp)
80001f44: 7572         	ld	a0, 0x138(sp)
80001f46: 00b50f63     	beq	a0, a1, 0x80001f64 <.Lpcrel_hi132+0x18>
80001f4a: a809         	j	0x80001f5c <.Lpcrel_hi132+0x10>

0000000080001f4c <.Lpcrel_hi132>:
80001f4c: 00006517     	auipc	a0, 0x6
80001f50: d9450513     	addi	a0, a0, -0x26c
80001f54: 00005097     	auipc	ra, 0x5
80001f58: d64080e7     	jalr	-0x29c(ra) <core::panicking::panic_null_pointer_dereference::hbac6411af4f2e916>
80001f5c: 4501         	li	a0, 0x0
80001f5e: 58a10aa3     	sb	a0, 0x595(sp)
80001f62: a8bd         	j	0x80001fe0 <.Lpcrel_hi132+0x94>
80001f64: 6556         	ld	a0, 0x150(sp)
80001f66: 65b6         	ld	a1, 0x148(sp)
80001f68: feb51ae3     	bne	a0, a1, 0x80001f5c <.Lpcrel_hi132+0x10>
80001f6c: a009         	j	0x80001f6e <.Lpcrel_hi132+0x22>
80001f6e: 6576         	ld	a0, 0x158(sp)
80001f70: 4585         	li	a1, 0x1
80001f72: feb515e3     	bne	a0, a1, 0x80001f5c <.Lpcrel_hi132+0x10>
80001f76: a009         	j	0x80001f78 <.Lpcrel_hi132+0x2c>
80001f78: 7516         	ld	a0, 0x160(sp)
80001f7a: 4589         	li	a1, 0x2
80001f7c: feb510e3     	bne	a0, a1, 0x80001f5c <.Lpcrel_hi132+0x10>
80001f80: a009         	j	0x80001f82 <.Lpcrel_hi132+0x36>
80001f82: 7536         	ld	a0, 0x168(sp)
80001f84: 00003097     	auipc	ra, 0x3
80001f88: 01c080e7     	jalr	0x1c(ra) <lab4_kernel_task3::pte_to_pa::h5acd02dcfb8b5338>
80001f8c: 6596         	ld	a1, 0x140(sp)
80001f8e: fcb517e3     	bne	a0, a1, 0x80001f5c <.Lpcrel_hi132+0x10>
80001f92: a009         	j	0x80001f94 <.Lpcrel_hi132+0x48>
80001f94: 7556         	ld	a0, 0x170(sp)
80001f96: 00003097     	auipc	ra, 0x3
80001f9a: 00a080e7     	jalr	0xa(ra) <lab4_kernel_task3::pte_to_pa::h5acd02dcfb8b5338>
80001f9e: 6596         	ld	a1, 0x140(sp)
80001fa0: fab51ee3     	bne	a0, a1, 0x80001f5c <.Lpcrel_hi132+0x10>
80001fa4: a009         	j	0x80001fa6 <.Lpcrel_hi132+0x5a>
80001fa6: 7536         	ld	a0, 0x168(sp)
80001fa8: fffff097     	auipc	ra, 0xfffff
80001fac: 58c080e7     	jalr	0x58c(ra) <lab4_kernel_task3::pte_has_write::h63d6736861570b1c>
80001fb0: f555         	bnez	a0, 0x80001f5c <.Lpcrel_hi132+0x10>
80001fb2: a009         	j	0x80001fb4 <.Lpcrel_hi132+0x68>
80001fb4: 7556         	ld	a0, 0x170(sp)
80001fb6: fffff097     	auipc	ra, 0xfffff
80001fba: 57e080e7     	jalr	0x57e(ra) <lab4_kernel_task3::pte_has_write::h63d6736861570b1c>
80001fbe: fd59         	bnez	a0, 0x80001f5c <.Lpcrel_hi132+0x10>
80001fc0: a009         	j	0x80001fc2 <.Lpcrel_hi132+0x76>
80001fc2: 7536         	ld	a0, 0x168(sp)
80001fc4: fffff097     	auipc	ra, 0xfffff
80001fc8: e12080e7     	jalr	-0x1ee(ra) <lab4_kernel_task3::pte_has_cow::h30f20c31b6a93a62>
80001fcc: d941         	beqz	a0, 0x80001f5c <.Lpcrel_hi132+0x10>
80001fce: a009         	j	0x80001fd0 <.Lpcrel_hi132+0x84>
80001fd0: 7556         	ld	a0, 0x170(sp)
80001fd2: fffff097     	auipc	ra, 0xfffff
80001fd6: e04080e7     	jalr	-0x1fc(ra) <lab4_kernel_task3::pte_has_cow::h30f20c31b6a93a62>
80001fda: 58a10aa3     	sb	a0, 0x595(sp)
80001fde: a009         	j	0x80001fe0 <.Lpcrel_hi132+0x94>
80001fe0: 7576         	ld	a0, 0x178(sp)
80001fe2: 4589         	li	a1, 0x2
80001fe4: 00b50763     	beq	a0, a1, 0x80001ff2 <.Lpcrel_hi132+0xa6>
80001fe8: a009         	j	0x80001fea <.Lpcrel_hi132+0x9e>
80001fea: 4501         	li	a0, 0x0
80001fec: 58a10b23     	sb	a0, 0x596(sp)
80001ff0: a049         	j	0x80002072 <.Lpcrel_hi133>
80001ff2: 651a         	ld	a0, 0x180(sp)
80001ff4: 4585         	li	a1, 0x1
80001ff6: feb51ae3     	bne	a0, a1, 0x80001fea <.Lpcrel_hi132+0x9e>
80001ffa: a009         	j	0x80001ffc <.Lpcrel_hi132+0xb0>
80001ffc: 653a         	ld	a0, 0x188(sp)
80001ffe: 4585         	li	a1, 0x1
80002000: feb515e3     	bne	a0, a1, 0x80001fea <.Lpcrel_hi132+0x9e>
80002004: a009         	j	0x80002006 <.Lpcrel_hi132+0xba>
80002006: 655a         	ld	a0, 0x190(sp)
80002008: 4589         	li	a1, 0x2
8000200a: feb510e3     	bne	a0, a1, 0x80001fea <.Lpcrel_hi132+0x9e>
8000200e: a009         	j	0x80002010 <.Lpcrel_hi132+0xc4>
80002010: 657a         	ld	a0, 0x198(sp)
80002012: dd61         	beqz	a0, 0x80001fea <.Lpcrel_hi132+0x9e>
80002014: a009         	j	0x80002016 <.Lpcrel_hi132+0xca>
80002016: 657a         	ld	a0, 0x198(sp)
80002018: 759a         	ld	a1, 0x1a0(sp)
8000201a: fcb508e3     	beq	a0, a1, 0x80001fea <.Lpcrel_hi132+0x9e>
8000201e: a009         	j	0x80002020 <.Lpcrel_hi132+0xd4>
80002020: 753a         	ld	a0, 0x1a8(sp)
80002022: 4585         	li	a1, 0x1
80002024: fcb513e3     	bne	a0, a1, 0x80001fea <.Lpcrel_hi132+0x9e>
80002028: a009         	j	0x8000202a <.Lpcrel_hi132+0xde>
8000202a: 755a         	ld	a0, 0x1b0(sp)
8000202c: 75fa         	ld	a1, 0x1b8(sp)
8000202e: fab51ee3     	bne	a0, a1, 0x80001fea <.Lpcrel_hi132+0x9e>
80002032: a009         	j	0x80002034 <.Lpcrel_hi132+0xe8>
80002034: 750a         	ld	a0, 0xa0(sp)
80002036: fffff097     	auipc	ra, 0xfffff
8000203a: 4fe080e7     	jalr	0x4fe(ra) <lab4_kernel_task3::pte_has_write::h63d6736861570b1c>
8000203e: d555         	beqz	a0, 0x80001fea <.Lpcrel_hi132+0x9e>
80002040: a009         	j	0x80002042 <.Lpcrel_hi132+0xf6>
80002042: 750e         	ld	a0, 0xe0(sp)
80002044: fffff097     	auipc	ra, 0xfffff
80002048: 4f0080e7     	jalr	0x4f0(ra) <lab4_kernel_task3::pte_has_write::h63d6736861570b1c>
8000204c: dd59         	beqz	a0, 0x80001fea <.Lpcrel_hi132+0x9e>
8000204e: a009         	j	0x80002050 <.Lpcrel_hi132+0x104>
80002050: 750a         	ld	a0, 0xa0(sp)
80002052: fffff097     	auipc	ra, 0xfffff
80002056: d84080e7     	jalr	-0x27c(ra) <lab4_kernel_task3::pte_has_cow::h30f20c31b6a93a62>
8000205a: f941         	bnez	a0, 0x80001fea <.Lpcrel_hi132+0x9e>
8000205c: a009         	j	0x8000205e <.Lpcrel_hi132+0x112>
8000205e: 750e         	ld	a0, 0xe0(sp)
80002060: fffff097     	auipc	ra, 0xfffff
80002064: d76080e7     	jalr	-0x28a(ra) <lab4_kernel_task3::pte_has_cow::h30f20c31b6a93a62>
80002068: 00154513     	xori	a0, a0, 0x1
8000206c: 58a10b23     	sb	a0, 0x596(sp)
80002070: a009         	j	0x80002072 <.Lpcrel_hi133>

0000000080002072 <.Lpcrel_hi133>:
80002072: 00008517     	auipc	a0, 0x8
80002076: fd650513     	addi	a0, a0, -0x2a
8000207a: c909         	beqz	a0, 0x8000208c <.Lpcrel_hi135>
8000207c: a009         	j	0x8000207e <.Lpcrel_hi134>

000000008000207e <.Lpcrel_hi134>:
8000207e: 00008517     	auipc	a0, 0x8
80002082: fca50513     	addi	a0, a0, -0x36
80002086: 6908         	ld	a0, 0x10(a0)
80002088: cd11         	beqz	a0, 0x800020a4 <.Lpcrel_hi136>
8000208a: a809         	j	0x8000209c <.Lpcrel_hi135+0x10>

000000008000208c <.Lpcrel_hi135>:
8000208c: 00006517     	auipc	a0, 0x6
80002090: e9c50513     	addi	a0, a0, -0x164
80002094: 00005097     	auipc	ra, 0x5
80002098: c24080e7     	jalr	-0x3dc(ra) <core::panicking::panic_null_pointer_dereference::hbac6411af4f2e916>
8000209c: 4501         	li	a0, 0x0
8000209e: 58a10ba3     	sb	a0, 0x597(sp)
800020a2: a0f5         	j	0x8000218e <.Lpcrel_hi141+0x86>

00000000800020a4 <.Lpcrel_hi136>:
800020a4: 00008517     	auipc	a0, 0x8
800020a8: fa450513     	addi	a0, a0, -0x5c
800020ac: c909         	beqz	a0, 0x800020be <.Lpcrel_hi138>
800020ae: a009         	j	0x800020b0 <.Lpcrel_hi137>

00000000800020b0 <.Lpcrel_hi137>:
800020b0: 00008517     	auipc	a0, 0x8
800020b4: f9850513     	addi	a0, a0, -0x68
800020b8: 7508         	ld	a0, 0x28(a0)
800020ba: c911         	beqz	a0, 0x800020ce <.Lpcrel_hi138+0x10>
800020bc: b7c5         	j	0x8000209c <.Lpcrel_hi135+0x10>

00000000800020be <.Lpcrel_hi138>:
800020be: 00006517     	auipc	a0, 0x6
800020c2: e8250513     	addi	a0, a0, -0x17e
800020c6: 00005097     	auipc	ra, 0x5
800020ca: bf2080e7     	jalr	-0x40e(ra) <core::panicking::panic_null_pointer_dereference::hbac6411af4f2e916>
800020ce: 11014503     	lbu	a0, 0x110(sp)
800020d2: 8905         	andi	a0, a0, 0x1
800020d4: d561         	beqz	a0, 0x8000209c <.Lpcrel_hi135+0x10>
800020d6: a009         	j	0x800020d8 <.Lpcrel_hi138+0x1a>
800020d8: 13014503     	lbu	a0, 0x130(sp)
800020dc: 8905         	andi	a0, a0, 0x1
800020de: dd5d         	beqz	a0, 0x8000209c <.Lpcrel_hi135+0x10>
800020e0: a009         	j	0x800020e2 <.Lpcrel_hi138+0x24>
800020e2: 756e         	ld	a0, 0xf8(sp)

00000000800020e4 <.Lpcrel_hi139>:
800020e4: 00006597     	auipc	a1, 0x6
800020e8: 93458593     	addi	a1, a1, -0x6cc
800020ec: 618c         	ld	a1, 0x0(a1)
800020ee: fab517e3     	bne	a0, a1, 0x8000209c <.Lpcrel_hi135+0x10>
800020f2: a009         	j	0x800020f4 <.Lpcrel_hi139+0x10>
800020f4: 6572         	ld	a0, 0x118(sp)

00000000800020f6 <.Lpcrel_hi140>:
800020f6: 00006597     	auipc	a1, 0x6
800020fa: 92258593     	addi	a1, a1, -0x6de
800020fe: 618c         	ld	a1, 0x0(a1)
80002100: f8b51ee3     	bne	a0, a1, 0x8000209c <.Lpcrel_hi135+0x10>
80002104: a009         	j	0x80002106 <.Lpcrel_hi140+0x10>
80002106: 6512         	ld	a0, 0x100(sp)

0000000080002108 <.Lpcrel_hi141>:
80002108: 00006597     	auipc	a1, 0x6
8000210c: 91058593     	addi	a1, a1, -0x6f0
80002110: 618c         	ld	a1, 0x0(a1)
80002112: f8b515e3     	bne	a0, a1, 0x8000209c <.Lpcrel_hi135+0x10>
80002116: a009         	j	0x80002118 <.Lpcrel_hi141+0x10>
80002118: 7512         	ld	a0, 0x120(sp)
8000211a: ffe085b7     	lui	a1, 0xffe08
8000211e: 15dd         	addi	a1, a1, -0x9
80002120: 15a6         	slli	a1, a1, 0x29
80002122: 0585         	addi	a1, a1, 0x1
80002124: f6b51ce3     	bne	a0, a1, 0x8000209c <.Lpcrel_hi135+0x10>
80002128: a009         	j	0x8000212a <.Lpcrel_hi141+0x22>
8000212a: 6532         	ld	a0, 0x108(sp)
8000212c: d08e75b7     	lui	a1, 0xd08e7
80002130: 1586         	slli	a1, a1, 0x21
80002132: 0589         	addi	a1, a1, 0x2
80002134: f6b514e3     	bne	a0, a1, 0x8000209c <.Lpcrel_hi135+0x10>
80002138: a009         	j	0x8000213a <.Lpcrel_hi141+0x32>
8000213a: 752e         	ld	a0, 0xe8(sp)
8000213c: d08e75b7     	lui	a1, 0xd08e7
80002140: 1586         	slli	a1, a1, 0x21
80002142: 0589         	addi	a1, a1, 0x2
80002144: f4b51ce3     	bne	a0, a1, 0x8000209c <.Lpcrel_hi135+0x10>
80002148: a009         	j	0x8000214a <.Lpcrel_hi141+0x42>
8000214a: 754e         	ld	a0, 0xf0(sp)
8000214c: ffe085b7     	lui	a1, 0xffe08
80002150: 15dd         	addi	a1, a1, -0x9
80002152: 15a6         	slli	a1, a1, 0x29
80002154: 0585         	addi	a1, a1, 0x1
80002156: f4b513e3     	bne	a0, a1, 0x8000209c <.Lpcrel_hi135+0x10>
8000215a: a009         	j	0x8000215c <.Lpcrel_hi141+0x54>
8000215c: 6506         	ld	a0, 0x40(sp)
8000215e: 65c6         	ld	a1, 0x50(sp)
80002160: f2b50ee3     	beq	a0, a1, 0x8000209c <.Lpcrel_hi135+0x10>
80002164: a009         	j	0x80002166 <.Lpcrel_hi141+0x5e>
80002166: 6506         	ld	a0, 0x40(sp)
80002168: 00001097     	auipc	ra, 0x1
8000216c: ab2080e7     	jalr	-0x54e(ra) <lab4_kernel_task3::data_page_refcount::hb6e760d9cb0a8983>
80002170: 4585         	li	a1, 0x1
80002172: f2b515e3     	bne	a0, a1, 0x8000209c <.Lpcrel_hi135+0x10>
80002176: a009         	j	0x80002178 <.Lpcrel_hi141+0x70>
80002178: 6546         	ld	a0, 0x50(sp)
8000217a: 00001097     	auipc	ra, 0x1
8000217e: aa0080e7     	jalr	-0x560(ra) <lab4_kernel_task3::data_page_refcount::hb6e760d9cb0a8983>
80002182: 157d         	addi	a0, a0, -0x1
80002184: 00153513     	seqz	a0, a0
80002188: 58a10ba3     	sb	a0, 0x597(sp)
8000218c: a009         	j	0x8000218e <.Lpcrel_hi141+0x86>
8000218e: 59514503     	lbu	a0, 0x595(sp)
80002192: 00003097     	auipc	ra, 0x3
80002196: ddc080e7     	jalr	-0x224(ra) <lab4_kernel_task3::pass_fail::hb315366d426f37ed>
8000219a: 58a13c23     	sd	a0, 0x598(sp)
8000219e: 5ab13023     	sd	a1, 0x5a0(sp)
800021a2: 59810593     	addi	a1, sp, 0x598
800021a6: 6cb13023     	sd	a1, 0x6c0(sp)
800021aa: 5b810513     	addi	a0, sp, 0x5b8
800021ae: ffffe097     	auipc	ra, 0xffffe
800021b2: 2ba080e7     	jalr	0x2ba(ra) <core::fmt::rt::Argument::new_display::h9f9b427687f4ac37>
800021b6: 5c013503     	ld	a0, 0x5c0(sp)
800021ba: 5aa13823     	sd	a0, 0x5b0(sp)
800021be: 5b813503     	ld	a0, 0x5b8(sp)
800021c2: 5aa13423     	sd	a0, 0x5a8(sp)

00000000800021c6 <.Lpcrel_hi142>:
800021c6: 00005517     	auipc	a0, 0x5
800021ca: 07550513     	addi	a0, a0, 0x75
800021ce: 5a810593     	addi	a1, sp, 0x5a8
800021d2: 00003097     	auipc	ra, 0x3
800021d6: 794080e7     	jalr	0x794(ra) <core::fmt::Arguments::new::hdfcb82c6ed86294c>
800021da: ffffe097     	auipc	ra, 0xffffe
800021de: fb8080e7     	jalr	-0x48(ra) <lab4_kernel_task3::console::print::h3e60aa2d39f23b20>
800021e2: 59614503     	lbu	a0, 0x596(sp)
800021e6: 00003097     	auipc	ra, 0x3
800021ea: d88080e7     	jalr	-0x278(ra) <lab4_kernel_task3::pass_fail::hb315366d426f37ed>
800021ee: 5ca13423     	sd	a0, 0x5c8(sp)
800021f2: 5cb13823     	sd	a1, 0x5d0(sp)
800021f6: 5c810593     	addi	a1, sp, 0x5c8
800021fa: 6cb13423     	sd	a1, 0x6c8(sp)
800021fe: 5e810513     	addi	a0, sp, 0x5e8
80002202: ffffe097     	auipc	ra, 0xffffe
80002206: 266080e7     	jalr	0x266(ra) <core::fmt::rt::Argument::new_display::h9f9b427687f4ac37>
8000220a: 5f013503     	ld	a0, 0x5f0(sp)
8000220e: 5ea13023     	sd	a0, 0x5e0(sp)
80002212: 5e813503     	ld	a0, 0x5e8(sp)
80002216: 5ca13c23     	sd	a0, 0x5d8(sp)

000000008000221a <.Lpcrel_hi143>:
8000221a: 00005517     	auipc	a0, 0x5
8000221e: 07e50513     	addi	a0, a0, 0x7e
80002222: 5d810593     	addi	a1, sp, 0x5d8
80002226: 00003097     	auipc	ra, 0x3
8000222a: 736080e7     	jalr	0x736(ra) <core::fmt::Arguments::new::hdb56987c4114aff0>
8000222e: ffffe097     	auipc	ra, 0xffffe
80002232: f64080e7     	jalr	-0x9c(ra) <lab4_kernel_task3::console::print::h3e60aa2d39f23b20>
80002236: 59714503     	lbu	a0, 0x597(sp)
8000223a: 00003097     	auipc	ra, 0x3
8000223e: d34080e7     	jalr	-0x2cc(ra) <lab4_kernel_task3::pass_fail::hb315366d426f37ed>
80002242: 5ea13c23     	sd	a0, 0x5f8(sp)
80002246: 60b13023     	sd	a1, 0x600(sp)
8000224a: 5f810593     	addi	a1, sp, 0x5f8
8000224e: 6cb13823     	sd	a1, 0x6d0(sp)
80002252: 61810513     	addi	a0, sp, 0x618
80002256: ffffe097     	auipc	ra, 0xffffe
8000225a: 212080e7     	jalr	0x212(ra) <core::fmt::rt::Argument::new_display::h9f9b427687f4ac37>
8000225e: 62013503     	ld	a0, 0x620(sp)
80002262: 60a13823     	sd	a0, 0x610(sp)
80002266: 61813503     	ld	a0, 0x618(sp)
8000226a: 60a13423     	sd	a0, 0x608(sp)

000000008000226e <.Lpcrel_hi144>:
8000226e: 00005517     	auipc	a0, 0x5
80002272: eb250513     	addi	a0, a0, -0x14e
80002276: 60810593     	addi	a1, sp, 0x608
8000227a: 00003097     	auipc	ra, 0x3
8000227e: 6c4080e7     	jalr	0x6c4(ra) <core::fmt::Arguments::new::hb50ff9ae643d09a6>
80002282: ffffe097     	auipc	ra, 0xffffe
80002286: f10080e7     	jalr	-0xf0(ra) <lab4_kernel_task3::console::print::h3e60aa2d39f23b20>
8000228a: 59514503     	lbu	a0, 0x595(sp)
8000228e: 8905         	andi	a0, a0, 0x1
80002290: e511         	bnez	a0, 0x8000229c <.Lpcrel_hi144+0x2e>
80002292: a009         	j	0x80002294 <.Lpcrel_hi144+0x26>
80002294: 4505         	li	a0, 0x1
80002296: 62a12623     	sw	a0, 0x62c(sp)
8000229a: a839         	j	0x800022b8 <.Lpcrel_hi144+0x4a>
8000229c: 59614503     	lbu	a0, 0x596(sp)
800022a0: 8905         	andi	a0, a0, 0x1
800022a2: d96d         	beqz	a0, 0x80002294 <.Lpcrel_hi144+0x26>
800022a4: a009         	j	0x800022a6 <.Lpcrel_hi144+0x38>
800022a6: 59714503     	lbu	a0, 0x597(sp)
800022aa: 8905         	andi	a0, a0, 0x1
800022ac: d565         	beqz	a0, 0x80002294 <.Lpcrel_hi144+0x26>
800022ae: a009         	j	0x800022b0 <.Lpcrel_hi144+0x42>
800022b0: 4501         	li	a0, 0x0
800022b2: 62a12623     	sw	a0, 0x62c(sp)
800022b6: a009         	j	0x800022b8 <.Lpcrel_hi144+0x4a>
800022b8: 62c12503     	lw	a0, 0x62c(sp)
800022bc: 00003097     	auipc	ra, 0x3
800022c0: cf0080e7     	jalr	-0x310(ra) <lab4_kernel_task3::qemu_exit::hbc34671da0810e27>

00000000800022c4 <lab4_kernel_task3::handle_user_ecall::hac1e41fa7ba28f89>:
800022c4: 7131         	addi	sp, sp, -0xc0
800022c6: fd06         	sd	ra, 0xb8(sp)
800022c8: ec2a         	sd	a0, 0x18(sp)
800022ca: 65e2         	ld	a1, 0x18(sp)
800022cc: 4505         	li	a0, 0x1
800022ce: 00b56963     	bltu	a0, a1, 0x800022e0 <.Lpcrel_hi145+0xc>
800022d2: a009         	j	0x800022d4 <.Lpcrel_hi145>

00000000800022d4 <.Lpcrel_hi145>:
800022d4: 0000d517     	auipc	a0, 0xd
800022d8: d4c50513     	addi	a0, a0, -0x2b4
800022dc: ed01         	bnez	a0, 0x800022f4 <.Lpcrel_hi146+0x12>
800022de: a815         	j	0x80002312 <.Lpcrel_hi148>
800022e0: 6562         	ld	a0, 0x18(sp)

00000000800022e2 <.Lpcrel_hi146>:
800022e2: 00006597     	auipc	a1, 0x6
800022e6: c7658613     	addi	a2, a1, -0x38a
800022ea: 4589         	li	a1, 0x2
800022ec: 00005097     	auipc	ra, 0x5
800022f0: 960080e7     	jalr	-0x6a0(ra) <core::panicking::panic_bounds_check::h6aaee0d15e0261eb>
800022f4: 6562         	ld	a0, 0x18(sp)
800022f6: 00851593     	slli	a1, a0, 0x8

00000000800022fa <.Lpcrel_hi147>:
800022fa: 0000d517     	auipc	a0, 0xd
800022fe: d2650513     	addi	a0, a0, -0x2da
80002302: 952e         	add	a0, a0, a1
80002304: 7d28         	ld	a0, 0x78(a0)
80002306: f82a         	sd	a0, 0x30(sp)
80002308: 6562         	ld	a0, 0x18(sp)
8000230a: 4589         	li	a1, 0x2
8000230c: 00b56b63     	bltu	a0, a1, 0x80002322 <.Lpcrel_hi149>
80002310: a839         	j	0x8000232e <.Lpcrel_hi149+0xc>

0000000080002312 <.Lpcrel_hi148>:
80002312: 00006517     	auipc	a0, 0x6
80002316: c4650513     	addi	a0, a0, -0x3ba
8000231a: 00005097     	auipc	ra, 0x5
8000231e: 99e080e7     	jalr	-0x662(ra) <core::panicking::panic_null_pointer_dereference::hbac6411af4f2e916>

0000000080002322 <.Lpcrel_hi149>:
80002322: 0000d517     	auipc	a0, 0xd
80002326: cfe50513     	addi	a0, a0, -0x302
8000232a: ed01         	bnez	a0, 0x80002342 <.Lpcrel_hi150+0x12>
8000232c: a815         	j	0x80002360 <.Lpcrel_hi152>
8000232e: 6562         	ld	a0, 0x18(sp)

0000000080002330 <.Lpcrel_hi150>:
80002330: 00006597     	auipc	a1, 0x6
80002334: c4058613     	addi	a2, a1, -0x3c0
80002338: 4589         	li	a1, 0x2
8000233a: 00005097     	auipc	ra, 0x5
8000233e: 912080e7     	jalr	-0x6ee(ra) <core::panicking::panic_bounds_check::h6aaee0d15e0261eb>
80002342: 6562         	ld	a0, 0x18(sp)
80002344: 00851593     	slli	a1, a0, 0x8

0000000080002348 <.Lpcrel_hi151>:
80002348: 0000d517     	auipc	a0, 0xd
8000234c: cd850513     	addi	a0, a0, -0x328
80002350: 952e         	add	a0, a0, a1
80002352: 7d6c         	ld	a1, 0xf8(a0)
80002354: 00458513     	addi	a0, a1, 0x4
80002358: e82a         	sd	a0, 0x10(sp)
8000235a: 02b56163     	bltu	a0, a1, 0x8000237c <.Lpcrel_hi154>
8000235e: a809         	j	0x80002370 <.Lpcrel_hi153>

0000000080002360 <.Lpcrel_hi152>:
80002360: 00006517     	auipc	a0, 0x6
80002364: c1050513     	addi	a0, a0, -0x3f0
80002368: 00005097     	auipc	ra, 0x5
8000236c: 950080e7     	jalr	-0x6b0(ra) <core::panicking::panic_null_pointer_dereference::hbac6411af4f2e916>

0000000080002370 <.Lpcrel_hi153>:
80002370: 0000d517     	auipc	a0, 0xd
80002374: cb050513     	addi	a0, a0, -0x350
80002378: e911         	bnez	a0, 0x8000238c <.Lpcrel_hi154+0x10>
8000237a: a881         	j	0x800023ca <.Lpcrel_hi156>

000000008000237c <.Lpcrel_hi154>:
8000237c: 00006517     	auipc	a0, 0x6
80002380: bf450513     	addi	a0, a0, -0x40c
80002384: 00005097     	auipc	ra, 0x5
80002388: 850080e7     	jalr	-0x7b0(ra) <core::panicking::panic_const::panic_const_add_overflow::h67cba067093910f8>
8000238c: 6542         	ld	a0, 0x10(sp)
8000238e: 65e2         	ld	a1, 0x18(sp)
80002390: 00859613     	slli	a2, a1, 0x8

0000000080002394 <.Lpcrel_hi155>:
80002394: 0000d597     	auipc	a1, 0xd
80002398: c8c58593     	addi	a1, a1, -0x374
8000239c: 95b2         	add	a1, a1, a2
8000239e: fde8         	sd	a0, 0xf8(a1)
800023a0: 7542         	ld	a0, 0x30(sp)
800023a2: e42a         	sd	a0, 0x8(sp)
800023a4: 4585         	li	a1, 0x1
800023a6: 02b50f63     	beq	a0, a1, 0x800023e4 <.Lpcrel_hi156+0x1a>
800023aa: a009         	j	0x800023ac <.Lpcrel_hi155+0x18>
800023ac: 6522         	ld	a0, 0x8(sp)
800023ae: 4589         	li	a1, 0x2
800023b0: 04b50363     	beq	a0, a1, 0x800023f6 <.Lpcrel_hi156+0x2c>
800023b4: a009         	j	0x800023b6 <.Lpcrel_hi155+0x22>
800023b6: 6522         	ld	a0, 0x8(sp)
800023b8: 458d         	li	a1, 0x3
800023ba: 04b50763     	beq	a0, a1, 0x80002408 <.Lpcrel_hi156+0x3e>
800023be: a009         	j	0x800023c0 <.Lpcrel_hi155+0x2c>
800023c0: 6522         	ld	a0, 0x8(sp)
800023c2: 4591         	li	a1, 0x4
800023c4: 04b50c63     	beq	a0, a1, 0x8000241c <.Lpcrel_hi156+0x52>
800023c8: a809         	j	0x800023da <.Lpcrel_hi156+0x10>

00000000800023ca <.Lpcrel_hi156>:
800023ca: 00006517     	auipc	a0, 0x6
800023ce: ba650513     	addi	a0, a0, -0x45a
800023d2: 00005097     	auipc	ra, 0x5
800023d6: 8e6080e7     	jalr	-0x71a(ra) <core::panicking::panic_null_pointer_dereference::hbac6411af4f2e916>
800023da: 6562         	ld	a0, 0x18(sp)
800023dc: 4589         	li	a1, 0x2
800023de: 14b56463     	bltu	a0, a1, 0x80002526 <.Lpcrel_hi169>
800023e2: aa81         	j	0x80002532 <.Lpcrel_hi169+0xc>
800023e4: 00002097     	auipc	ra, 0x2
800023e8: e78080e7     	jalr	-0x188(ra) <lab4_kernel_task3::do_fork::h42a5eee9779c0394>
800023ec: 6562         	ld	a0, 0x18(sp)
800023ee: f42a         	sd	a0, 0x28(sp)
800023f0: 4505         	li	a0, 0x1
800023f2: f02a         	sd	a0, 0x20(sp)
800023f4: a80d         	j	0x80002426 <.Lpcrel_hi156+0x5c>
800023f6: 6562         	ld	a0, 0x18(sp)
800023f8: 00002097     	auipc	ra, 0x2
800023fc: 95a080e7     	jalr	-0x6a6(ra) <lab4_kernel_task3::other_runnable_or_self::hdfd023054bd579bf>
80002400: f42a         	sd	a0, 0x28(sp)
80002402: 4505         	li	a0, 0x1
80002404: f02a         	sd	a0, 0x20(sp)
80002406: a005         	j	0x80002426 <.Lpcrel_hi156+0x5c>
80002408: 6562         	ld	a0, 0x18(sp)
8000240a: 00001097     	auipc	ra, 0x1
8000240e: e44080e7     	jalr	-0x1bc(ra) <lab4_kernel_task3::store_process_report::hae5d98fddfcb9646>
80002412: 6562         	ld	a0, 0x18(sp)
80002414: f42a         	sd	a0, 0x28(sp)
80002416: 4505         	li	a0, 0x1
80002418: f02a         	sd	a0, 0x20(sp)
8000241a: a031         	j	0x80002426 <.Lpcrel_hi156+0x5c>
8000241c: 6562         	ld	a0, 0x18(sp)
8000241e: 4589         	li	a1, 0x2
80002420: 00b56863     	bltu	a0, a1, 0x80002430 <.Lpcrel_hi157>
80002424: a821         	j	0x8000243c <.Lpcrel_hi157+0xc>
80002426: 7502         	ld	a0, 0x20(sp)
80002428: 75a2         	ld	a1, 0x28(sp)
8000242a: 70ea         	ld	ra, 0xb8(sp)
8000242c: 6129         	addi	sp, sp, 0xc0
8000242e: 8082         	ret

0000000080002430 <.Lpcrel_hi157>:
80002430: 00008517     	auipc	a0, 0x8
80002434: c1850513     	addi	a0, a0, -0x3e8
80002438: ed01         	bnez	a0, 0x80002450 <.Lpcrel_hi158+0x12>
8000243a: a825         	j	0x80002472 <.Lpcrel_hi160>
8000243c: 6562         	ld	a0, 0x18(sp)

000000008000243e <.Lpcrel_hi158>:
8000243e: 00006597     	auipc	a1, 0x6
80002442: b4a58613     	addi	a2, a1, -0x4b6
80002446: 4589         	li	a1, 0x2
80002448: 00005097     	auipc	ra, 0x5
8000244c: 804080e7     	jalr	-0x7fc(ra) <core::panicking::panic_bounds_check::h6aaee0d15e0261eb>
80002450: 6562         	ld	a0, 0x18(sp)
80002452: 00351593     	slli	a1, a0, 0x3
80002456: 0516         	slli	a0, a0, 0x5
80002458: 40b505b3     	sub	a1, a0, a1

000000008000245c <.Lpcrel_hi159>:
8000245c: 00008517     	auipc	a0, 0x8
80002460: bec50513     	addi	a0, a0, -0x414
80002464: 952e         	add	a0, a0, a1
80002466: 4589         	li	a1, 0x2
80002468: e10c         	sd	a1, 0x0(a0)
8000246a: 6562         	ld	a0, 0x18(sp)
8000246c: 00b56b63     	bltu	a0, a1, 0x80002482 <.Lpcrel_hi161>
80002470: a839         	j	0x8000248e <.Lpcrel_hi161+0xc>

0000000080002472 <.Lpcrel_hi160>:
80002472: 00006517     	auipc	a0, 0x6
80002476: b1650513     	addi	a0, a0, -0x4ea
8000247a: 00005097     	auipc	ra, 0x5
8000247e: 83e080e7     	jalr	-0x7c2(ra) <core::panicking::panic_null_pointer_dereference::hbac6411af4f2e916>

0000000080002482 <.Lpcrel_hi161>:
80002482: 0000d517     	auipc	a0, 0xd
80002486: b9e50513     	addi	a0, a0, -0x462
8000248a: ed01         	bnez	a0, 0x800024a2 <.Lpcrel_hi162+0x12>
8000248c: a80d         	j	0x800024be <.Lpcrel_hi164>
8000248e: 6562         	ld	a0, 0x18(sp)

0000000080002490 <.Lpcrel_hi162>:
80002490: 00006597     	auipc	a1, 0x6
80002494: b1058613     	addi	a2, a1, -0x4f0
80002498: 4589         	li	a1, 0x2
8000249a: 00004097     	auipc	ra, 0x4
8000249e: 7b2080e7     	jalr	0x7b2(ra) <core::panicking::panic_bounds_check::h6aaee0d15e0261eb>
800024a2: 6562         	ld	a0, 0x18(sp)
800024a4: 00851613     	slli	a2, a0, 0x8

00000000800024a8 <.Lpcrel_hi163>:
800024a8: 0000d597     	auipc	a1, 0xd
800024ac: b7858593     	addi	a1, a1, -0x488
800024b0: 95b2         	add	a1, a1, a2
800024b2: 61ac         	ld	a1, 0x40(a1)
800024b4: e02e         	sd	a1, 0x0(sp)
800024b6: 4589         	li	a1, 0x2
800024b8: 00b56b63     	bltu	a0, a1, 0x800024ce <.Lpcrel_hi165>
800024bc: a839         	j	0x800024da <.Lpcrel_hi165+0xc>

00000000800024be <.Lpcrel_hi164>:
800024be: 00006517     	auipc	a0, 0x6
800024c2: ae250513     	addi	a0, a0, -0x51e
800024c6: 00004097     	auipc	ra, 0x4
800024ca: 7f2080e7     	jalr	0x7f2(ra) <core::panicking::panic_null_pointer_dereference::hbac6411af4f2e916>

00000000800024ce <.Lpcrel_hi165>:
800024ce: 00008517     	auipc	a0, 0x8
800024d2: b7a50513     	addi	a0, a0, -0x486
800024d6: ed01         	bnez	a0, 0x800024ee <.Lpcrel_hi166+0x12>
800024d8: a83d         	j	0x80002516 <.Lpcrel_hi168>
800024da: 6562         	ld	a0, 0x18(sp)

00000000800024dc <.Lpcrel_hi166>:
800024dc: 00006597     	auipc	a1, 0x6
800024e0: adc58613     	addi	a2, a1, -0x524
800024e4: 4589         	li	a1, 0x2
800024e6: 00004097     	auipc	ra, 0x4
800024ea: 766080e7     	jalr	0x766(ra) <core::panicking::panic_bounds_check::h6aaee0d15e0261eb>
800024ee: 6502         	ld	a0, 0x0(sp)
800024f0: 65e2         	ld	a1, 0x18(sp)
800024f2: 00359613     	slli	a2, a1, 0x3
800024f6: 0596         	slli	a1, a1, 0x5
800024f8: 40c58633     	sub	a2, a1, a2

00000000800024fc <.Lpcrel_hi167>:
800024fc: 00008597     	auipc	a1, 0x8
80002500: b4c58593     	addi	a1, a1, -0x4b4
80002504: 95b2         	add	a1, a1, a2
80002506: e988         	sd	a0, 0x10(a1)
80002508: 00002097     	auipc	ra, 0x2
8000250c: 906080e7     	jalr	-0x6fa(ra) <lab4_kernel_task3::next_runnable_after_exit::h374c48200b0d8122>
80002510: f02a         	sd	a0, 0x20(sp)
80002512: f42e         	sd	a1, 0x28(sp)
80002514: bf09         	j	0x80002426 <.Lpcrel_hi156+0x5c>

0000000080002516 <.Lpcrel_hi168>:
80002516: 00006517     	auipc	a0, 0x6
8000251a: aa250513     	addi	a0, a0, -0x55e
8000251e: 00004097     	auipc	ra, 0x4
80002522: 79a080e7     	jalr	0x79a(ra) <core::panicking::panic_null_pointer_dereference::hbac6411af4f2e916>

0000000080002526 <.Lpcrel_hi169>:
80002526: 0000d517     	auipc	a0, 0xd
8000252a: afa50513     	addi	a0, a0, -0x506
8000252e: ed01         	bnez	a0, 0x80002546 <.Lpcrel_hi170+0x12>
80002530: a859         	j	0x800025c6 <.Lpcrel_hi173>
80002532: 6562         	ld	a0, 0x18(sp)

0000000080002534 <.Lpcrel_hi170>:
80002534: 00006597     	auipc	a1, 0x6
80002538: a9c58613     	addi	a2, a1, -0x564
8000253c: 4589         	li	a1, 0x2
8000253e: 00004097     	auipc	ra, 0x4
80002542: 70e080e7     	jalr	0x70e(ra) <core::panicking::panic_bounds_check::h6aaee0d15e0261eb>
80002546: 6562         	ld	a0, 0x18(sp)
80002548: 00851593     	slli	a1, a0, 0x8

000000008000254c <.Lpcrel_hi171>:
8000254c: 0000d517     	auipc	a0, 0xd
80002550: ad450513     	addi	a0, a0, -0x52c
80002554: 952e         	add	a0, a0, a1
80002556: 6128         	ld	a0, 0x40(a0)
80002558: e8aa         	sd	a0, 0x50(sp)
8000255a: 0828         	addi	a0, sp, 0x18
8000255c: fc2a         	sd	a0, 0x38(sp)
8000255e: 1808         	addi	a0, sp, 0x30
80002560: e0aa         	sd	a0, 0x40(sp)
80002562: 0888         	addi	a0, sp, 0x50
80002564: e4aa         	sd	a0, 0x48(sp)
80002566: 75e2         	ld	a1, 0x38(sp)
80002568: 0128         	addi	a0, sp, 0x88
8000256a: ffffe097     	auipc	ra, 0xffffe
8000256e: eba080e7     	jalr	-0x146(ra) <core::fmt::rt::Argument::new_display::h2a194c625b616a7c>
80002572: 6586         	ld	a1, 0x40(sp)
80002574: 0928         	addi	a0, sp, 0x98
80002576: ffffe097     	auipc	ra, 0xffffe
8000257a: eae080e7     	jalr	-0x152(ra) <core::fmt::rt::Argument::new_display::h2a194c625b616a7c>
8000257e: 65a6         	ld	a1, 0x48(sp)
80002580: 1128         	addi	a0, sp, 0xa8
80002582: ffffe097     	auipc	ra, 0xffffe
80002586: f4c080e7     	jalr	-0xb4(ra) <core::fmt::rt::Argument::new_lower_hex::hfcf8be588603c455>
8000258a: 654a         	ld	a0, 0x90(sp)
8000258c: f0aa         	sd	a0, 0x60(sp)
8000258e: 652a         	ld	a0, 0x88(sp)
80002590: ecaa         	sd	a0, 0x58(sp)
80002592: 750a         	ld	a0, 0xa0(sp)
80002594: f8aa         	sd	a0, 0x70(sp)
80002596: 656a         	ld	a0, 0x98(sp)
80002598: f4aa         	sd	a0, 0x68(sp)
8000259a: 754a         	ld	a0, 0xb0(sp)
8000259c: e12a         	sd	a0, 0x80(sp)
8000259e: 752a         	ld	a0, 0xa8(sp)
800025a0: fcaa         	sd	a0, 0x78(sp)

00000000800025a2 <.Lpcrel_hi172>:
800025a2: 00006517     	auipc	a0, 0x6
800025a6: a4650513     	addi	a0, a0, -0x5ba
800025aa: 08ac         	addi	a1, sp, 0x58
800025ac: 00003097     	auipc	ra, 0x3
800025b0: 2fc080e7     	jalr	0x2fc(ra) <core::fmt::Arguments::new::h007d18c3612116ac>
800025b4: ffffe097     	auipc	ra, 0xffffe
800025b8: bde080e7     	jalr	-0x422(ra) <lab4_kernel_task3::console::print::h3e60aa2d39f23b20>
800025bc: 4505         	li	a0, 0x1
800025be: 00003097     	auipc	ra, 0x3
800025c2: 9ee080e7     	jalr	-0x612(ra) <lab4_kernel_task3::qemu_exit::hbc34671da0810e27>

00000000800025c6 <.Lpcrel_hi173>:
800025c6: 00006517     	auipc	a0, 0x6
800025ca: a0a50513     	addi	a0, a0, -0x5f6
800025ce: 00004097     	auipc	ra, 0x4
800025d2: 6ea080e7     	jalr	0x6ea(ra) <core::panicking::panic_null_pointer_dereference::hbac6411af4f2e916>

00000000800025d6 <lab4_kernel_task3::print_walk_result::hcf69bf9dcb7f322d>:
800025d6: d7010113     	addi	sp, sp, -0x290
800025da: 28113423     	sd	ra, 0x288(sp)
800025de: e43a         	sd	a4, 0x8(sp)
800025e0: e0aa         	sd	a0, 0x40(sp)
800025e2: e4ae         	sd	a1, 0x48(sp)
800025e4: e8b2         	sd	a2, 0x50(sp)
800025e6: ecb6         	sd	a3, 0x58(sp)
800025e8: 00870513     	addi	a0, a4, 0x8
800025ec: e82a         	sd	a0, 0x10(sp)
800025ee: 01070513     	addi	a0, a4, 0x10
800025f2: ec2a         	sd	a0, 0x18(sp)
800025f4: 7b08         	ld	a0, 0x30(a4)
800025f6: fffff097     	auipc	ra, 0xfffff
800025fa: 038080e7     	jalr	0x38(ra) <lab4_kernel_task3::leaf_level_name::h2aff5def58b3ebd0>
800025fe: 6722         	ld	a4, 0x8(sp)
80002600: e5aa         	sd	a0, 0xc8(sp)
80002602: e9ae         	sd	a1, 0xd0(sp)
80002604: 01870513     	addi	a0, a4, 0x18
80002608: f02a         	sd	a0, 0x20(sp)
8000260a: 02070513     	addi	a0, a4, 0x20
8000260e: f42a         	sd	a0, 0x28(sp)
80002610: 02870513     	addi	a0, a4, 0x28
80002614: f82a         	sd	a0, 0x30(sp)
80002616: 03870513     	addi	a0, a4, 0x38
8000261a: fc2a         	sd	a0, 0x38(sp)
8000261c: 7f08         	ld	a0, 0x38(a4)
8000261e: 00003097     	auipc	ra, 0x3
80002622: 982080e7     	jalr	-0x67e(ra) <lab4_kernel_task3::pte_to_pa::h5acd02dcfb8b5338>
80002626: 6822         	ld	a6, 0x8(sp)
80002628: 67c2         	ld	a5, 0x10(sp)
8000262a: 6762         	ld	a4, 0x18(sp)
8000262c: 7682         	ld	a3, 0x20(sp)
8000262e: 7622         	ld	a2, 0x28(sp)
80002630: 75c2         	ld	a1, 0x30(sp)
80002632: 88aa         	mv	a7, a0
80002634: 7562         	ld	a0, 0x38(sp)
80002636: edc6         	sd	a7, 0xd8(sp)
80002638: 03883883     	ld	a7, 0x38(a6)
8000263c: f1c6         	sd	a7, 0xe0(sp)
8000263e: 04010893     	addi	a7, sp, 0x40
80002642: f0c6         	sd	a7, 0x60(sp)
80002644: 05010893     	addi	a7, sp, 0x50
80002648: f4c6         	sd	a7, 0x68(sp)
8000264a: 05810893     	addi	a7, sp, 0x58
8000264e: f8c6         	sd	a7, 0x70(sp)
80002650: fcc2         	sd	a6, 0x78(sp)
80002652: e13e         	sd	a5, 0x80(sp)
80002654: e53a         	sd	a4, 0x88(sp)
80002656: 01b8         	addi	a4, sp, 0xc8
80002658: e93a         	sd	a4, 0x90(sp)
8000265a: ed36         	sd	a3, 0x98(sp)
8000265c: f132         	sd	a2, 0xa0(sp)
8000265e: f52e         	sd	a1, 0xa8(sp)
80002660: f92a         	sd	a0, 0xb0(sp)
80002662: 09a8         	addi	a0, sp, 0xd8
80002664: fd2a         	sd	a0, 0xb8(sp)
80002666: 1188         	addi	a0, sp, 0xe0
80002668: e1aa         	sd	a0, 0xc0(sp)
8000266a: 7586         	ld	a1, 0x60(sp)
8000266c: 1b28         	addi	a0, sp, 0x1b8
8000266e: ffffe097     	auipc	ra, 0xffffe
80002672: dfa080e7     	jalr	-0x206(ra) <core::fmt::rt::Argument::new_display::h9f9b427687f4ac37>
80002676: 75a6         	ld	a1, 0x68(sp)
80002678: 03a8         	addi	a0, sp, 0x1c8
8000267a: ffffe097     	auipc	ra, 0xffffe
8000267e: daa080e7     	jalr	-0x256(ra) <core::fmt::rt::Argument::new_display::h2a194c625b616a7c>
80002682: 75c6         	ld	a1, 0x70(sp)
80002684: 0ba8         	addi	a0, sp, 0x1d8
80002686: ffffe097     	auipc	ra, 0xffffe
8000268a: e48080e7     	jalr	-0x1b8(ra) <core::fmt::rt::Argument::new_lower_hex::hfcf8be588603c455>
8000268e: 75e6         	ld	a1, 0x78(sp)
80002690: 13a8         	addi	a0, sp, 0x1e8
80002692: ffffe097     	auipc	ra, 0xffffe
80002696: d92080e7     	jalr	-0x26e(ra) <core::fmt::rt::Argument::new_display::h2a194c625b616a7c>
8000269a: 658a         	ld	a1, 0x80(sp)
8000269c: 1ba8         	addi	a0, sp, 0x1f8
8000269e: ffffe097     	auipc	ra, 0xffffe
800026a2: d86080e7     	jalr	-0x27a(ra) <core::fmt::rt::Argument::new_display::h2a194c625b616a7c>
800026a6: 65aa         	ld	a1, 0x88(sp)
800026a8: 0428         	addi	a0, sp, 0x208
800026aa: ffffe097     	auipc	ra, 0xffffe
800026ae: d7a080e7     	jalr	-0x286(ra) <core::fmt::rt::Argument::new_display::h2a194c625b616a7c>
800026b2: 65ca         	ld	a1, 0x90(sp)
800026b4: 0c28         	addi	a0, sp, 0x218
800026b6: ffffe097     	auipc	ra, 0xffffe
800026ba: db2080e7     	jalr	-0x24e(ra) <core::fmt::rt::Argument::new_display::h9f9b427687f4ac37>
800026be: 65ea         	ld	a1, 0x98(sp)
800026c0: 1428         	addi	a0, sp, 0x228
800026c2: ffffe097     	auipc	ra, 0xffffe
800026c6: e0c080e7     	jalr	-0x1f4(ra) <core::fmt::rt::Argument::new_lower_hex::hfcf8be588603c455>
800026ca: 758a         	ld	a1, 0xa0(sp)
800026cc: 1c28         	addi	a0, sp, 0x238
800026ce: ffffe097     	auipc	ra, 0xffffe
800026d2: e00080e7     	jalr	-0x200(ra) <core::fmt::rt::Argument::new_lower_hex::hfcf8be588603c455>
800026d6: 75aa         	ld	a1, 0xa8(sp)
800026d8: 04a8         	addi	a0, sp, 0x248
800026da: ffffe097     	auipc	ra, 0xffffe
800026de: df4080e7     	jalr	-0x20c(ra) <core::fmt::rt::Argument::new_lower_hex::hfcf8be588603c455>
800026e2: 75ca         	ld	a1, 0xb0(sp)
800026e4: 0ca8         	addi	a0, sp, 0x258
800026e6: ffffe097     	auipc	ra, 0xffffe
800026ea: de8080e7     	jalr	-0x218(ra) <core::fmt::rt::Argument::new_lower_hex::hfcf8be588603c455>
800026ee: 75ea         	ld	a1, 0xb8(sp)
800026f0: 14a8         	addi	a0, sp, 0x268
800026f2: ffffe097     	auipc	ra, 0xffffe
800026f6: ddc080e7     	jalr	-0x224(ra) <core::fmt::rt::Argument::new_lower_hex::hfcf8be588603c455>
800026fa: 658e         	ld	a1, 0xc0(sp)
800026fc: 1ca8         	addi	a0, sp, 0x278
800026fe: ffffe097     	auipc	ra, 0xffffe
80002702: d48080e7     	jalr	-0x2b8(ra) <core::fmt::rt::Argument::new_display::h644e73051090fe85>
80002706: 651e         	ld	a0, 0x1c0(sp)
80002708: f9aa         	sd	a0, 0xf0(sp)
8000270a: 757a         	ld	a0, 0x1b8(sp)
8000270c: f5aa         	sd	a0, 0xe8(sp)
8000270e: 655e         	ld	a0, 0x1d0(sp)
80002710: e22a         	sd	a0, 0x100(sp)
80002712: 653e         	ld	a0, 0x1c8(sp)
80002714: fdaa         	sd	a0, 0xf8(sp)
80002716: 751e         	ld	a0, 0x1e0(sp)
80002718: ea2a         	sd	a0, 0x110(sp)
8000271a: 657e         	ld	a0, 0x1d8(sp)
8000271c: e62a         	sd	a0, 0x108(sp)
8000271e: 755e         	ld	a0, 0x1f0(sp)
80002720: f22a         	sd	a0, 0x120(sp)
80002722: 753e         	ld	a0, 0x1e8(sp)
80002724: ee2a         	sd	a0, 0x118(sp)
80002726: 20013503     	ld	a0, 0x200(sp)
8000272a: fa2a         	sd	a0, 0x130(sp)
8000272c: 757e         	ld	a0, 0x1f8(sp)
8000272e: f62a         	sd	a0, 0x128(sp)
80002730: 21013503     	ld	a0, 0x210(sp)
80002734: e2aa         	sd	a0, 0x140(sp)
80002736: 20813503     	ld	a0, 0x208(sp)
8000273a: fe2a         	sd	a0, 0x138(sp)
8000273c: 22013503     	ld	a0, 0x220(sp)
80002740: eaaa         	sd	a0, 0x150(sp)
80002742: 21813503     	ld	a0, 0x218(sp)
80002746: e6aa         	sd	a0, 0x148(sp)
80002748: 23013503     	ld	a0, 0x230(sp)
8000274c: f2aa         	sd	a0, 0x160(sp)
8000274e: 22813503     	ld	a0, 0x228(sp)
80002752: eeaa         	sd	a0, 0x158(sp)
80002754: 24013503     	ld	a0, 0x240(sp)
80002758: faaa         	sd	a0, 0x170(sp)
8000275a: 23813503     	ld	a0, 0x238(sp)
8000275e: f6aa         	sd	a0, 0x168(sp)
80002760: 25013503     	ld	a0, 0x250(sp)
80002764: e32a         	sd	a0, 0x180(sp)
80002766: 24813503     	ld	a0, 0x248(sp)
8000276a: feaa         	sd	a0, 0x178(sp)
8000276c: 26013503     	ld	a0, 0x260(sp)
80002770: eb2a         	sd	a0, 0x190(sp)
80002772: 25813503     	ld	a0, 0x258(sp)
80002776: e72a         	sd	a0, 0x188(sp)
80002778: 27013503     	ld	a0, 0x270(sp)
8000277c: f32a         	sd	a0, 0x1a0(sp)
8000277e: 26813503     	ld	a0, 0x268(sp)
80002782: ef2a         	sd	a0, 0x198(sp)
80002784: 28013503     	ld	a0, 0x280(sp)
80002788: fb2a         	sd	a0, 0x1b0(sp)
8000278a: 27813503     	ld	a0, 0x278(sp)
8000278e: f72a         	sd	a0, 0x1a8(sp)

0000000080002790 <.Lpcrel_hi174>:
80002790: 00006517     	auipc	a0, 0x6
80002794: 88e50513     	addi	a0, a0, -0x772
80002798: 11ac         	addi	a1, sp, 0xe8
8000279a: 00003097     	auipc	ra, 0x3
8000279e: 136080e7     	jalr	0x136(ra) <core::fmt::Arguments::new::h1279a08116ab2e05>
800027a2: ffffe097     	auipc	ra, 0xffffe
800027a6: 9f0080e7     	jalr	-0x610(ra) <lab4_kernel_task3::console::print::h3e60aa2d39f23b20>
800027aa: 28813083     	ld	ra, 0x288(sp)
800027ae: 29010113     	addi	sp, sp, 0x290
800027b2: 8082         	ret

00000000800027b4 <lab4_kernel_task3::user_code_page_pa::h73b08479d23d4b4b>:
800027b4: 0000e517     	auipc	a0, 0xe
800027b8: 84c50513     	addi	a0, a0, -0x7b4
800027bc: 8082         	ret

00000000800027be <lab4_kernel_task3::walk_proc_virtual::h08c829cfb27276f9>:
800027be: 7155         	addi	sp, sp, -0xd0
800027c0: e586         	sd	ra, 0xc8(sp)
800027c2: e8b2         	sd	a2, 0x50(sp)
800027c4: e0ae         	sd	a1, 0x40(sp)
800027c6: fc2a         	sd	a0, 0x38(sp)
800027c8: f12e         	sd	a1, 0xa0(sp)
800027ca: f532         	sd	a2, 0xa8(sp)
800027cc: 1088         	addi	a0, sp, 0x60
800027ce: ffffe097     	auipc	ra, 0xffffe
800027d2: 4fa080e7     	jalr	0x4fa(ra) <lab4_kernel_task3::WalkResult::zeroed::h33bf2513843f2edb>
800027d6: 6506         	ld	a0, 0x40(sp)
800027d8: 00001097     	auipc	ra, 0x1
800027dc: 998080e7     	jalr	-0x668(ra) <lab4_kernel_task3::proc_root_table_ptr::ha2542f84bb5e9772>
800027e0: 85aa         	mv	a1, a0
800027e2: 6546         	ld	a0, 0x50(sp)
800027e4: 862e         	mv	a2, a1
800027e6: e4b2         	sd	a2, 0x48(sp)
800027e8: f92e         	sd	a1, 0xb0(sp)
800027ea: ffffe097     	auipc	ra, 0xffffe
800027ee: 59e080e7     	jalr	0x59e(ra) <lab4_kernel_task3::vpn2_index::hd344ee0f6277009a>
800027f2: 85aa         	mv	a1, a0
800027f4: 6546         	ld	a0, 0x50(sp)
800027f6: f0ae         	sd	a1, 0x60(sp)
800027f8: ffffe097     	auipc	ra, 0xffffe
800027fc: 584080e7     	jalr	0x584(ra) <lab4_kernel_task3::vpn1_index::h600273506eb14c53>
80002800: 85aa         	mv	a1, a0
80002802: 6546         	ld	a0, 0x50(sp)
80002804: f4ae         	sd	a1, 0x68(sp)
80002806: ffffe097     	auipc	ra, 0xffffe
8000280a: 56a080e7     	jalr	0x56a(ra) <lab4_kernel_task3::vpn0_index::hb3d9a13406bd3e5b>
8000280e: f8aa         	sd	a0, 0x70(sp)
80002810: 7586         	ld	a1, 0x60(sp)
80002812: ecae         	sd	a1, 0x58(sp)
80002814: 1ff00513     	li	a0, 0x1ff
80002818: 00b56963     	bltu	a0, a1, 0x8000282a <lab4_kernel_task3::walk_proc_virtual::h08c829cfb27276f9+0x6c>
8000281c: a009         	j	0x8000281e <lab4_kernel_task3::walk_proc_virtual::h08c829cfb27276f9+0x60>
8000281e: 6526         	ld	a0, 0x48(sp)
80002820: 85aa         	mv	a1, a0
80002822: f82e         	sd	a1, 0x30(sp)
80002824: 1552         	slli	a0, a0, 0x34
80002826: cd09         	beqz	a0, 0x80002840 <.Lpcrel_hi176+0x14>
80002828: a839         	j	0x80002846 <.Lpcrel_hi176+0x1a>
8000282a: 6566         	ld	a0, 0x58(sp)

000000008000282c <.Lpcrel_hi176>:
8000282c: 00006597     	auipc	a1, 0x6
80002830: 88458613     	addi	a2, a1, -0x77c
80002834: 20000593     	li	a1, 0x200
80002838: 00004097     	auipc	ra, 0x4
8000283c: 414080e7     	jalr	0x414(ra) <core::panicking::panic_bounds_check::h6aaee0d15e0261eb>
80002840: 6526         	ld	a0, 0x48(sp)
80002842: ed01         	bnez	a0, 0x8000285a <.Lpcrel_hi177+0x12>
80002844: a805         	j	0x80002874 <.Lpcrel_hi178>
80002846: 75c2         	ld	a1, 0x30(sp)

0000000080002848 <.Lpcrel_hi177>:
80002848: 00006517     	auipc	a0, 0x6
8000284c: 86850613     	addi	a2, a0, -0x798
80002850: 6505         	lui	a0, 0x1
80002852: 00004097     	auipc	ra, 0x4
80002856: 486080e7     	jalr	0x486(ra) <core::panicking::panic_misaligned_pointer_dereference::hda85f7fb51d959f0>
8000285a: 6526         	ld	a0, 0x48(sp)
8000285c: 65e6         	ld	a1, 0x58(sp)
8000285e: 058e         	slli	a1, a1, 0x3
80002860: 952e         	add	a0, a0, a1
80002862: 6108         	ld	a0, 0x0(a0)
80002864: fcaa         	sd	a0, 0x78(sp)
80002866: 7566         	ld	a0, 0x78(sp)
80002868: ffffe097     	auipc	ra, 0xffffe
8000286c: 5bc080e7     	jalr	0x5bc(ra) <lab4_kernel_task3::pte_is_valid::hc73f6723d9ce6bbc>
80002870: e121         	bnez	a0, 0x800028b0 <.Lpcrel_hi178+0x3c>
80002872: a809         	j	0x80002884 <.Lpcrel_hi178+0x10>

0000000080002874 <.Lpcrel_hi178>:
80002874: 00006517     	auipc	a0, 0x6
80002878: 83c50513     	addi	a0, a0, -0x7c4
8000287c: 00004097     	auipc	ra, 0x4
80002880: 43c080e7     	jalr	0x43c(ra) <core::panicking::panic_null_pointer_dereference::hbac6411af4f2e916>
80002884: 75e2         	ld	a1, 0x38(sp)
80002886: 4509         	li	a0, 0x2
80002888: e92a         	sd	a0, 0x90(sp)
8000288a: 7566         	ld	a0, 0x78(sp)
8000288c: ed2a         	sd	a0, 0x98(sp)
8000288e: 656a         	ld	a0, 0x98(sp)
80002890: fd88         	sd	a0, 0x38(a1)
80002892: 654a         	ld	a0, 0x90(sp)
80002894: f988         	sd	a0, 0x30(a1)
80002896: 652a         	ld	a0, 0x88(sp)
80002898: f588         	sd	a0, 0x28(a1)
8000289a: 650a         	ld	a0, 0x80(sp)
8000289c: f188         	sd	a0, 0x20(a1)
8000289e: 7566         	ld	a0, 0x78(sp)
800028a0: ed88         	sd	a0, 0x18(a1)
800028a2: 7546         	ld	a0, 0x70(sp)
800028a4: e988         	sd	a0, 0x10(a1)
800028a6: 7526         	ld	a0, 0x68(sp)
800028a8: e588         	sd	a0, 0x8(a1)
800028aa: 7506         	ld	a0, 0x60(sp)
800028ac: e188         	sd	a0, 0x0(a1)
800028ae: aa85         	j	0x80002a1e <.Lpcrel_hi184+0x14>
800028b0: 7566         	ld	a0, 0x78(sp)
800028b2: ffffe097     	auipc	ra, 0xffffe
800028b6: 530080e7     	jalr	0x530(ra) <lab4_kernel_task3::pte_is_leaf::he6b02b3111dc6c8a>
800028ba: f569         	bnez	a0, 0x80002884 <.Lpcrel_hi178+0x10>
800028bc: a009         	j	0x800028be <.Lpcrel_hi178+0x4a>
800028be: 7566         	ld	a0, 0x78(sp)
800028c0: 00002097     	auipc	ra, 0x2
800028c4: 6e0080e7     	jalr	0x6e0(ra) <lab4_kernel_task3::pte_to_pa::h5acd02dcfb8b5338>
800028c8: 85aa         	mv	a1, a0
800028ca: f02e         	sd	a1, 0x20(sp)
800028cc: 85aa         	mv	a1, a0
800028ce: f42e         	sd	a1, 0x28(sp)
800028d0: 1552         	slli	a0, a0, 0x34
800028d2: e509         	bnez	a0, 0x800028dc <.Lpcrel_hi178+0x68>
800028d4: a009         	j	0x800028d6 <.Lpcrel_hi178+0x62>
800028d6: 7502         	ld	a0, 0x20(sp)
800028d8: ed01         	bnez	a0, 0x800028f0 <.Lpcrel_hi179+0x12>
800028da: a025         	j	0x80002902 <.Lpcrel_hi180>
800028dc: 75a2         	ld	a1, 0x28(sp)

00000000800028de <.Lpcrel_hi179>:
800028de: 00005517     	auipc	a0, 0x5
800028e2: 7ea50613     	addi	a2, a0, 0x7ea
800028e6: 6505         	lui	a0, 0x1
800028e8: 00004097     	auipc	ra, 0x4
800028ec: 3f0080e7     	jalr	0x3f0(ra) <core::panicking::panic_misaligned_pointer_dereference::hda85f7fb51d959f0>
800028f0: 7502         	ld	a0, 0x20(sp)
800028f2: fd2a         	sd	a0, 0xb8(sp)
800028f4: 7526         	ld	a0, 0x68(sp)
800028f6: ec2a         	sd	a0, 0x18(sp)
800028f8: 20000593     	li	a1, 0x200
800028fc: 00b56b63     	bltu	a0, a1, 0x80002912 <.Lpcrel_hi180+0x10>
80002900: a035         	j	0x8000292c <.Lpcrel_hi180+0x2a>

0000000080002902 <.Lpcrel_hi180>:
80002902: 00005517     	auipc	a0, 0x5
80002906: 7c650513     	addi	a0, a0, 0x7c6
8000290a: 00004097     	auipc	ra, 0x4
8000290e: 3ae080e7     	jalr	0x3ae(ra) <core::panicking::panic_null_pointer_dereference::hbac6411af4f2e916>
80002912: 7502         	ld	a0, 0x20(sp)
80002914: 65e2         	ld	a1, 0x18(sp)
80002916: 058e         	slli	a1, a1, 0x3
80002918: 952e         	add	a0, a0, a1
8000291a: 6108         	ld	a0, 0x0(a0)
8000291c: e12a         	sd	a0, 0x80(sp)
8000291e: 650a         	ld	a0, 0x80(sp)
80002920: ffffe097     	auipc	ra, 0xffffe
80002924: 504080e7     	jalr	0x504(ra) <lab4_kernel_task3::pte_is_valid::hc73f6723d9ce6bbc>
80002928: e139         	bnez	a0, 0x8000296e <.Lpcrel_hi181+0x40>
8000292a: a821         	j	0x80002942 <.Lpcrel_hi181+0x14>
8000292c: 6562         	ld	a0, 0x18(sp)

000000008000292e <.Lpcrel_hi181>:
8000292e: 00005597     	auipc	a1, 0x5
80002932: 7b258613     	addi	a2, a1, 0x7b2
80002936: 20000593     	li	a1, 0x200
8000293a: 00004097     	auipc	ra, 0x4
8000293e: 312080e7     	jalr	0x312(ra) <core::panicking::panic_bounds_check::h6aaee0d15e0261eb>
80002942: 75e2         	ld	a1, 0x38(sp)
80002944: 4505         	li	a0, 0x1
80002946: e92a         	sd	a0, 0x90(sp)
80002948: 650a         	ld	a0, 0x80(sp)
8000294a: ed2a         	sd	a0, 0x98(sp)
8000294c: 656a         	ld	a0, 0x98(sp)
8000294e: fd88         	sd	a0, 0x38(a1)
80002950: 654a         	ld	a0, 0x90(sp)
80002952: f988         	sd	a0, 0x30(a1)
80002954: 652a         	ld	a0, 0x88(sp)
80002956: f588         	sd	a0, 0x28(a1)
80002958: 650a         	ld	a0, 0x80(sp)
8000295a: f188         	sd	a0, 0x20(a1)
8000295c: 7566         	ld	a0, 0x78(sp)
8000295e: ed88         	sd	a0, 0x18(a1)
80002960: 7546         	ld	a0, 0x70(sp)
80002962: e988         	sd	a0, 0x10(a1)
80002964: 7526         	ld	a0, 0x68(sp)
80002966: e588         	sd	a0, 0x8(a1)
80002968: 7506         	ld	a0, 0x60(sp)
8000296a: e188         	sd	a0, 0x0(a1)
8000296c: a84d         	j	0x80002a1e <.Lpcrel_hi184+0x14>
8000296e: 650a         	ld	a0, 0x80(sp)
80002970: ffffe097     	auipc	ra, 0xffffe
80002974: 472080e7     	jalr	0x472(ra) <lab4_kernel_task3::pte_is_leaf::he6b02b3111dc6c8a>
80002978: f569         	bnez	a0, 0x80002942 <.Lpcrel_hi181+0x14>
8000297a: a009         	j	0x8000297c <.Lpcrel_hi181+0x4e>
8000297c: 650a         	ld	a0, 0x80(sp)
8000297e: 00002097     	auipc	ra, 0x2
80002982: 622080e7     	jalr	0x622(ra) <lab4_kernel_task3::pte_to_pa::h5acd02dcfb8b5338>
80002986: 85aa         	mv	a1, a0
80002988: e42e         	sd	a1, 0x8(sp)
8000298a: 85aa         	mv	a1, a0
8000298c: e82e         	sd	a1, 0x10(sp)
8000298e: 1552         	slli	a0, a0, 0x34
80002990: e509         	bnez	a0, 0x8000299a <.Lpcrel_hi181+0x6c>
80002992: a009         	j	0x80002994 <.Lpcrel_hi181+0x66>
80002994: 6522         	ld	a0, 0x8(sp)
80002996: ed01         	bnez	a0, 0x800029ae <.Lpcrel_hi182+0x12>
80002998: a025         	j	0x800029c0 <.Lpcrel_hi183>
8000299a: 65c2         	ld	a1, 0x10(sp)

000000008000299c <.Lpcrel_hi182>:
8000299c: 00005517     	auipc	a0, 0x5
800029a0: 75c50613     	addi	a2, a0, 0x75c
800029a4: 6505         	lui	a0, 0x1
800029a6: 00004097     	auipc	ra, 0x4
800029aa: 332080e7     	jalr	0x332(ra) <core::panicking::panic_misaligned_pointer_dereference::hda85f7fb51d959f0>
800029ae: 6522         	ld	a0, 0x8(sp)
800029b0: e1aa         	sd	a0, 0xc0(sp)
800029b2: 7546         	ld	a0, 0x70(sp)
800029b4: e02a         	sd	a0, 0x0(sp)
800029b6: 20000593     	li	a1, 0x200
800029ba: 00b56b63     	bltu	a0, a1, 0x800029d0 <.Lpcrel_hi183+0x10>
800029be: a0a9         	j	0x80002a08 <.Lpcrel_hi183+0x48>

00000000800029c0 <.Lpcrel_hi183>:
800029c0: 00005517     	auipc	a0, 0x5
800029c4: 73850513     	addi	a0, a0, 0x738
800029c8: 00004097     	auipc	ra, 0x4
800029cc: 2f0080e7     	jalr	0x2f0(ra) <core::panicking::panic_null_pointer_dereference::hbac6411af4f2e916>
800029d0: 75e2         	ld	a1, 0x38(sp)
800029d2: 6522         	ld	a0, 0x8(sp)
800029d4: 6602         	ld	a2, 0x0(sp)
800029d6: 060e         	slli	a2, a2, 0x3
800029d8: 9532         	add	a0, a0, a2
800029da: 6108         	ld	a0, 0x0(a0)
800029dc: e52a         	sd	a0, 0x88(sp)
800029de: 4501         	li	a0, 0x0
800029e0: e92a         	sd	a0, 0x90(sp)
800029e2: 652a         	ld	a0, 0x88(sp)
800029e4: ed2a         	sd	a0, 0x98(sp)
800029e6: 656a         	ld	a0, 0x98(sp)
800029e8: fd88         	sd	a0, 0x38(a1)
800029ea: 654a         	ld	a0, 0x90(sp)
800029ec: f988         	sd	a0, 0x30(a1)
800029ee: 652a         	ld	a0, 0x88(sp)
800029f0: f588         	sd	a0, 0x28(a1)
800029f2: 650a         	ld	a0, 0x80(sp)
800029f4: f188         	sd	a0, 0x20(a1)
800029f6: 7566         	ld	a0, 0x78(sp)
800029f8: ed88         	sd	a0, 0x18(a1)
800029fa: 7546         	ld	a0, 0x70(sp)
800029fc: e988         	sd	a0, 0x10(a1)
800029fe: 7526         	ld	a0, 0x68(sp)
80002a00: e588         	sd	a0, 0x8(a1)
80002a02: 7506         	ld	a0, 0x60(sp)
80002a04: e188         	sd	a0, 0x0(a1)
80002a06: a821         	j	0x80002a1e <.Lpcrel_hi184+0x14>
80002a08: 6502         	ld	a0, 0x0(sp)

0000000080002a0a <.Lpcrel_hi184>:
80002a0a: 00005597     	auipc	a1, 0x5
80002a0e: 70658613     	addi	a2, a1, 0x706
80002a12: 20000593     	li	a1, 0x200
80002a16: 00004097     	auipc	ra, 0x4
80002a1a: 236080e7     	jalr	0x236(ra) <core::panicking::panic_bounds_check::h6aaee0d15e0261eb>
80002a1e: 60ae         	ld	ra, 0xc8(sp)
80002a20: 6169         	addi	sp, sp, 0xd0
80002a22: 8082         	ret

0000000080002a24 <lab4_kernel_task3::allocate_data_page::h6ee688327ab32e89>:
80002a24: 7119         	addi	sp, sp, -0x80
80002a26: fc86         	sd	ra, 0x78(sp)

0000000080002a28 <.Lpcrel_hi185>:
80002a28: 00014517     	auipc	a0, 0x14
80002a2c: 5d850513     	addi	a0, a0, 0x5d8
80002a30: cd09         	beqz	a0, 0x80002a4a <.Lpcrel_hi187>
80002a32: a009         	j	0x80002a34 <.Lpcrel_hi186>

0000000080002a34 <.Lpcrel_hi186>:
80002a34: 00014517     	auipc	a0, 0x14
80002a38: 5cc50513     	addi	a0, a0, 0x5cc
80002a3c: 610c         	ld	a1, 0x0(a0)
80002a3e: e0ae         	sd	a1, 0x40(sp)
80002a40: e4ae         	sd	a1, 0x48(sp)
80002a42: 450d         	li	a0, 0x3
80002a44: 02b56863     	bltu	a0, a1, 0x80002a74 <.Lpcrel_hi188>
80002a48: a809         	j	0x80002a5a <.Lpcrel_hi187+0x10>

0000000080002a4a <.Lpcrel_hi187>:
80002a4a: 00005517     	auipc	a0, 0x5
80002a4e: 6de50513     	addi	a0, a0, 0x6de
80002a52: 00004097     	auipc	ra, 0x4
80002a56: 266080e7     	jalr	0x266(ra) <core::panicking::panic_null_pointer_dereference::hbac6411af4f2e916>
80002a5a: fffff097     	auipc	ra, 0xfffff
80002a5e: ec0080e7     	jalr	-0x140(ra) <lab4_kernel_task3::data_page_pool_pa::h9c68d81b7fc35bfd>
80002a62: 6586         	ld	a1, 0x40(sp)
80002a64: f82a         	sd	a0, 0x30(sp)
80002a66: 00c59513     	slli	a0, a1, 0xc
80002a6a: fc2a         	sd	a0, 0x38(sp)
80002a6c: 8131         	srli	a0, a0, 0xc
80002a6e: 02b51363     	bne	a0, a1, 0x80002a94 <.Lpcrel_hi189>
80002a72: a811         	j	0x80002a86 <.Lpcrel_hi188+0x12>

0000000080002a74 <.Lpcrel_hi188>:
80002a74: 00005517     	auipc	a0, 0x5
80002a78: 74450513     	addi	a0, a0, 0x744
80002a7c: 45e1         	li	a1, 0x18
80002a7e: ffffe097     	auipc	ra, 0xffffe
80002a82: 316080e7     	jalr	0x316(ra) <lab4_kernel_task3::kernel_fail::h7f3f223a61b29f30>
80002a86: 75c2         	ld	a1, 0x30(sp)
80002a88: 7562         	ld	a0, 0x38(sp)
80002a8a: 952e         	add	a0, a0, a1
80002a8c: f42a         	sd	a0, 0x28(sp)
80002a8e: 04b56e63     	bltu	a0, a1, 0x80002aea <.Lpcrel_hi191>
80002a92: a809         	j	0x80002aa4 <.Lpcrel_hi189+0x10>

0000000080002a94 <.Lpcrel_hi189>:
80002a94: 00005517     	auipc	a0, 0x5
80002a98: 6ac50513     	addi	a0, a0, 0x6ac
80002a9c: 00004097     	auipc	ra, 0x4
80002aa0: 156080e7     	jalr	0x156(ra) <core::panicking::panic_const::panic_const_mul_overflow::h67897feae7531d51>
80002aa4: 7522         	ld	a0, 0x28(sp)
80002aa6: e8aa         	sd	a0, 0x50(sp)
80002aa8: f0aa         	sd	a0, 0x60(sp)
80002aaa: 4581         	li	a1, 0x0
80002aac: ec2e         	sd	a1, 0x18(sp)
80002aae: 06b107a3     	sb	a1, 0x6f(sp)
80002ab2: 6605         	lui	a2, 0x1
80002ab4: f032         	sd	a2, 0x20(sp)
80002ab6: f8b2         	sd	a2, 0x70(sp)
80002ab8: 04b10fa3     	sb	a1, 0x5f(sp)
80002abc: 05f14603     	lbu	a2, 0x5f(sp)

0000000080002ac0 <.Lpcrel_hi190>:
80002ac0: 00006597     	auipc	a1, 0x6
80002ac4: 19058693     	addi	a3, a1, 0x190
80002ac8: 4585         	li	a1, 0x1
80002aca: ffffe097     	auipc	ra, 0xffffe
80002ace: c52080e7     	jalr	-0x3ae(ra) <core::ptr::write_bytes::precondition_check::he6f35d0c38b6c5de>
80002ad2: 7522         	ld	a0, 0x28(sp)
80002ad4: 65e2         	ld	a1, 0x18(sp)
80002ad6: 7602         	ld	a2, 0x20(sp)
80002ad8: 00004097     	auipc	ra, 0x4
80002adc: 334080e7     	jalr	0x334(ra) <memset>
80002ae0: 6506         	ld	a0, 0x40(sp)
80002ae2: 4591         	li	a1, 0x4
80002ae4: 00b56b63     	bltu	a0, a1, 0x80002afa <.Lpcrel_hi192>
80002ae8: a839         	j	0x80002b06 <.Lpcrel_hi192+0xc>

0000000080002aea <.Lpcrel_hi191>:
80002aea: 00005517     	auipc	a0, 0x5
80002aee: 66e50513     	addi	a0, a0, 0x66e
80002af2: 00004097     	auipc	ra, 0x4
80002af6: 0e2080e7     	jalr	0xe2(ra) <core::panicking::panic_const::panic_const_add_overflow::h67cba067093910f8>

0000000080002afa <.Lpcrel_hi192>:
80002afa: 0000c517     	auipc	a0, 0xc
80002afe: 50650513     	addi	a0, a0, 0x506
80002b02: ed01         	bnez	a0, 0x80002b1a <.Lpcrel_hi193+0x12>
80002b04: a81d         	j	0x80002b3a <.Lpcrel_hi196>
80002b06: 6506         	ld	a0, 0x40(sp)

0000000080002b08 <.Lpcrel_hi193>:
80002b08: 00005597     	auipc	a1, 0x5
80002b0c: 66858613     	addi	a2, a1, 0x668
80002b10: 4591         	li	a1, 0x4
80002b12: 00004097     	auipc	ra, 0x4
80002b16: 13a080e7     	jalr	0x13a(ra) <core::panicking::panic_bounds_check::h6aaee0d15e0261eb>
80002b1a: 6506         	ld	a0, 0x40(sp)
80002b1c: 00351593     	slli	a1, a0, 0x3

0000000080002b20 <.Lpcrel_hi194>:
80002b20: 0000c517     	auipc	a0, 0xc
80002b24: 4e050513     	addi	a0, a0, 0x4e0
80002b28: 95aa         	add	a1, a1, a0
80002b2a: 4505         	li	a0, 0x1
80002b2c: e188         	sd	a0, 0x0(a1)

0000000080002b2e <.Lpcrel_hi195>:
80002b2e: 00014517     	auipc	a0, 0x14
80002b32: 4d250513     	addi	a0, a0, 0x4d2
80002b36: e911         	bnez	a0, 0x80002b4a <.Lpcrel_hi197>
80002b38: a025         	j	0x80002b60 <.Lpcrel_hi198>

0000000080002b3a <.Lpcrel_hi196>:
80002b3a: 00005517     	auipc	a0, 0x5
80002b3e: 63650513     	addi	a0, a0, 0x636
80002b42: 00004097     	auipc	ra, 0x4
80002b46: 176080e7     	jalr	0x176(ra) <core::panicking::panic_null_pointer_dereference::hbac6411af4f2e916>

0000000080002b4a <.Lpcrel_hi197>:
80002b4a: 00014517     	auipc	a0, 0x14
80002b4e: 4b650513     	addi	a0, a0, 0x4b6
80002b52: 610c         	ld	a1, 0x0(a0)
80002b54: 00158513     	addi	a0, a1, 0x1
80002b58: e82a         	sd	a0, 0x10(sp)
80002b5a: 02b56163     	bltu	a0, a1, 0x80002b7c <.Lpcrel_hi200>
80002b5e: a809         	j	0x80002b70 <.Lpcrel_hi199>

0000000080002b60 <.Lpcrel_hi198>:
80002b60: 00005517     	auipc	a0, 0x5
80002b64: 62850513     	addi	a0, a0, 0x628
80002b68: 00004097     	auipc	ra, 0x4
80002b6c: 150080e7     	jalr	0x150(ra) <core::panicking::panic_null_pointer_dereference::hbac6411af4f2e916>

0000000080002b70 <.Lpcrel_hi199>:
80002b70: 00014517     	auipc	a0, 0x14
80002b74: 49050513     	addi	a0, a0, 0x490
80002b78: e911         	bnez	a0, 0x80002b8c <.Lpcrel_hi200+0x10>
80002b7a: a02d         	j	0x80002ba4 <.Lpcrel_hi203>

0000000080002b7c <.Lpcrel_hi200>:
80002b7c: 00005517     	auipc	a0, 0x5
80002b80: 60c50513     	addi	a0, a0, 0x60c
80002b84: 00004097     	auipc	ra, 0x4
80002b88: 050080e7     	jalr	0x50(ra) <core::panicking::panic_const::panic_const_add_overflow::h67cba067093910f8>
80002b8c: 6542         	ld	a0, 0x10(sp)

0000000080002b8e <.Lpcrel_hi201>:
80002b8e: 00014597     	auipc	a1, 0x14
80002b92: 47258593     	addi	a1, a1, 0x472
80002b96: e188         	sd	a0, 0x0(a1)

0000000080002b98 <.Lpcrel_hi202>:
80002b98: 00018517     	auipc	a0, 0x18
80002b9c: 46850513     	addi	a0, a0, 0x468
80002ba0: e911         	bnez	a0, 0x80002bb4 <.Lpcrel_hi204>
80002ba2: a025         	j	0x80002bca <.Lpcrel_hi205>

0000000080002ba4 <.Lpcrel_hi203>:
80002ba4: 00005517     	auipc	a0, 0x5
80002ba8: 5e450513     	addi	a0, a0, 0x5e4
80002bac: 00004097     	auipc	ra, 0x4
80002bb0: 10c080e7     	jalr	0x10c(ra) <core::panicking::panic_null_pointer_dereference::hbac6411af4f2e916>

0000000080002bb4 <.Lpcrel_hi204>:
80002bb4: 00018517     	auipc	a0, 0x18
80002bb8: 44c50513     	addi	a0, a0, 0x44c
80002bbc: 610c         	ld	a1, 0x0(a0)
80002bbe: 00158513     	addi	a0, a1, 0x1
80002bc2: e42a         	sd	a0, 0x8(sp)
80002bc4: 02b56163     	bltu	a0, a1, 0x80002be6 <.Lpcrel_hi207>
80002bc8: a809         	j	0x80002bda <.Lpcrel_hi206>

0000000080002bca <.Lpcrel_hi205>:
80002bca: 00005517     	auipc	a0, 0x5
80002bce: 5d650513     	addi	a0, a0, 0x5d6
80002bd2: 00004097     	auipc	ra, 0x4
80002bd6: 0e6080e7     	jalr	0xe6(ra) <core::panicking::panic_null_pointer_dereference::hbac6411af4f2e916>

0000000080002bda <.Lpcrel_hi206>:
80002bda: 00018517     	auipc	a0, 0x18
80002bde: 42650513     	addi	a0, a0, 0x426
80002be2: e911         	bnez	a0, 0x80002bf6 <.Lpcrel_hi207+0x10>
80002be4: a01d         	j	0x80002c0a <.Lpcrel_hi209>

0000000080002be6 <.Lpcrel_hi207>:
80002be6: 00005517     	auipc	a0, 0x5
80002bea: 5ba50513     	addi	a0, a0, 0x5ba
80002bee: 00004097     	auipc	ra, 0x4
80002bf2: fe6080e7     	jalr	-0x1a(ra) <core::panicking::panic_const::panic_const_add_overflow::h67cba067093910f8>
80002bf6: 7522         	ld	a0, 0x28(sp)
80002bf8: 65a2         	ld	a1, 0x8(sp)

0000000080002bfa <.Lpcrel_hi208>:
80002bfa: 00018617     	auipc	a2, 0x18
80002bfe: 40660613     	addi	a2, a2, 0x406
80002c02: e20c         	sd	a1, 0x0(a2)
80002c04: 70e6         	ld	ra, 0x78(sp)
80002c06: 6109         	addi	sp, sp, 0x80
80002c08: 8082         	ret

0000000080002c0a <.Lpcrel_hi209>:
80002c0a: 00005517     	auipc	a0, 0x5
80002c0e: 59650513     	addi	a0, a0, 0x596
80002c12: 00004097     	auipc	ra, 0x4
80002c16: 0a6080e7     	jalr	0xa6(ra) <core::panicking::panic_null_pointer_dereference::hbac6411af4f2e916>

0000000080002c1a <lab4_kernel_task3::data_page_refcount::hb6e760d9cb0a8983>:
80002c1a: 1101         	addi	sp, sp, -0x20
80002c1c: ec06         	sd	ra, 0x18(sp)
80002c1e: e82a         	sd	a0, 0x10(sp)
80002c20: fffff097     	auipc	ra, 0xfffff
80002c24: 93c080e7     	jalr	-0x6c4(ra) <lab4_kernel_task3::data_page_index::hb2374e4a66488e35>
80002c28: 85aa         	mv	a1, a0
80002c2a: 852e         	mv	a0, a1
80002c2c: e42a         	sd	a0, 0x8(sp)
80002c2e: 450d         	li	a0, 0x3
80002c30: 00b56963     	bltu	a0, a1, 0x80002c42 <.Lpcrel_hi210+0xc>
80002c34: a009         	j	0x80002c36 <.Lpcrel_hi210>

0000000080002c36 <.Lpcrel_hi210>:
80002c36: 0000c517     	auipc	a0, 0xc
80002c3a: 3ca50513     	addi	a0, a0, 0x3ca
80002c3e: ed01         	bnez	a0, 0x80002c56 <.Lpcrel_hi211+0x12>
80002c40: a03d         	j	0x80002c6e <.Lpcrel_hi213>
80002c42: 6522         	ld	a0, 0x8(sp)

0000000080002c44 <.Lpcrel_hi211>:
80002c44: 00005597     	auipc	a1, 0x5
80002c48: 58c58613     	addi	a2, a1, 0x58c
80002c4c: 4591         	li	a1, 0x4
80002c4e: 00004097     	auipc	ra, 0x4
80002c52: ffe080e7     	jalr	-0x2(ra) <core::panicking::panic_bounds_check::h6aaee0d15e0261eb>
80002c56: 6522         	ld	a0, 0x8(sp)
80002c58: 00351593     	slli	a1, a0, 0x3

0000000080002c5c <.Lpcrel_hi212>:
80002c5c: 0000c517     	auipc	a0, 0xc
80002c60: 3a450513     	addi	a0, a0, 0x3a4
80002c64: 952e         	add	a0, a0, a1
80002c66: 6108         	ld	a0, 0x0(a0)
80002c68: 60e2         	ld	ra, 0x18(sp)
80002c6a: 6105         	addi	sp, sp, 0x20
80002c6c: 8082         	ret

0000000080002c6e <.Lpcrel_hi213>:
80002c6e: 00005517     	auipc	a0, 0x5
80002c72: 56250513     	addi	a0, a0, 0x562
80002c76: 00004097     	auipc	ra, 0x4
80002c7a: 042080e7     	jalr	0x42(ra) <core::panicking::panic_null_pointer_dereference::hbac6411af4f2e916>

0000000080002c7e <lab4_kernel_task3::initialize_runtime::h979ab3d37d54f8df>:
80002c7e: c8010113     	addi	sp, sp, -0x380
80002c82: 36113c23     	sd	ra, 0x378(sp)

0000000080002c86 <.Lpcrel_hi214>:
80002c86: 00014517     	auipc	a0, 0x14
80002c8a: 37a50513     	addi	a0, a0, 0x37a
80002c8e: cd11         	beqz	a0, 0x80002caa <.Lpcrel_hi217>
80002c90: a009         	j	0x80002c92 <.Lpcrel_hi215>

0000000080002c92 <.Lpcrel_hi215>:
80002c92: 00014517     	auipc	a0, 0x14
80002c96: 36e50593     	addi	a1, a0, 0x36e
80002c9a: 4501         	li	a0, 0x0
80002c9c: e188         	sd	a0, 0x0(a1)

0000000080002c9e <.Lpcrel_hi216>:
80002c9e: 00018517     	auipc	a0, 0x18
80002ca2: 36250513     	addi	a0, a0, 0x362
80002ca6: e911         	bnez	a0, 0x80002cba <.Lpcrel_hi218>
80002ca8: a02d         	j	0x80002cd2 <.Lpcrel_hi220>

0000000080002caa <.Lpcrel_hi217>:
80002caa: 00005517     	auipc	a0, 0x5
80002cae: 53e50513     	addi	a0, a0, 0x53e
80002cb2: 00004097     	auipc	ra, 0x4
80002cb6: 006080e7     	jalr	0x6(ra) <core::panicking::panic_null_pointer_dereference::hbac6411af4f2e916>

0000000080002cba <.Lpcrel_hi218>:
80002cba: 00018517     	auipc	a0, 0x18
80002cbe: 34650593     	addi	a1, a0, 0x346
80002cc2: 4501         	li	a0, 0x0
80002cc4: e188         	sd	a0, 0x0(a1)

0000000080002cc6 <.Lpcrel_hi219>:
80002cc6: 00007517     	auipc	a0, 0x7
80002cca: 37a50513     	addi	a0, a0, 0x37a
80002cce: e911         	bnez	a0, 0x80002ce2 <.Lpcrel_hi221>
80002cd0: a815         	j	0x80002d04 <.Lpcrel_hi223>

0000000080002cd2 <.Lpcrel_hi220>:
80002cd2: 00005517     	auipc	a0, 0x5
80002cd6: 52e50513     	addi	a0, a0, 0x52e
80002cda: 00004097     	auipc	ra, 0x4
80002cde: fde080e7     	jalr	-0x22(ra) <core::panicking::panic_null_pointer_dereference::hbac6411af4f2e916>

0000000080002ce2 <.Lpcrel_hi221>:
80002ce2: 00007517     	auipc	a0, 0x7
80002ce6: 35e50593     	addi	a1, a0, 0x35e
80002cea: 4501         	li	a0, 0x0
80002cec: e188         	sd	a0, 0x0(a1)
80002cee: 1088         	addi	a0, sp, 0x60
80002cf0: 00002097     	auipc	ra, 0x2
80002cf4: 180080e7     	jalr	0x180(ra) <lab4_kernel_task3::ForkStats::zeroed::hcdd4894927fedeb1>

0000000080002cf8 <.Lpcrel_hi222>:
80002cf8: 00007517     	auipc	a0, 0x7
80002cfc: 30850513     	addi	a0, a0, 0x308
80002d00: e911         	bnez	a0, 0x80002d14 <.Lpcrel_hi224>
80002d02: a889         	j	0x80002d54 <.Lpcrel_hi226>

0000000080002d04 <.Lpcrel_hi223>:
80002d04: 00005517     	auipc	a0, 0x5
80002d08: 51450513     	addi	a0, a0, 0x514
80002d0c: 00004097     	auipc	ra, 0x4
80002d10: fac080e7     	jalr	-0x54(ra) <core::panicking::panic_null_pointer_dereference::hbac6411af4f2e916>

0000000080002d14 <.Lpcrel_hi224>:
80002d14: 00007517     	auipc	a0, 0x7
80002d18: 2ec50593     	addi	a1, a0, 0x2ec
80002d1c: ecae         	sd	a1, 0x58(sp)
80002d1e: 656a         	ld	a0, 0x98(sp)
80002d20: fd88         	sd	a0, 0x38(a1)
80002d22: 654a         	ld	a0, 0x90(sp)
80002d24: f988         	sd	a0, 0x30(a1)
80002d26: 652a         	ld	a0, 0x88(sp)
80002d28: f588         	sd	a0, 0x28(a1)
80002d2a: 650a         	ld	a0, 0x80(sp)
80002d2c: f188         	sd	a0, 0x20(a1)
80002d2e: 7566         	ld	a0, 0x78(sp)
80002d30: ed88         	sd	a0, 0x18(a1)
80002d32: 7546         	ld	a0, 0x70(sp)
80002d34: e988         	sd	a0, 0x10(a1)
80002d36: 7526         	ld	a0, 0x68(sp)
80002d38: e588         	sd	a0, 0x8(a1)
80002d3a: 7506         	ld	a0, 0x60(sp)
80002d3c: e188         	sd	a0, 0x0(a1)
80002d3e: 1108         	addi	a0, sp, 0xa0
80002d40: 00002097     	auipc	ra, 0x2
80002d44: 104080e7     	jalr	0x104(ra) <lab4_kernel_task3::CowStats::zeroed::h7242b41f3e6176c9>

0000000080002d48 <.Lpcrel_hi225>:
80002d48: 00018517     	auipc	a0, 0x18
80002d4c: 2c050513     	addi	a0, a0, 0x2c0
80002d50: e911         	bnez	a0, 0x80002d64 <.Lpcrel_hi227>
80002d52: a88d         	j	0x80002dc4 <.Lpcrel_hi231>

0000000080002d54 <.Lpcrel_hi226>:
80002d54: 00005517     	auipc	a0, 0x5
80002d58: 4dc50513     	addi	a0, a0, 0x4dc
80002d5c: 00004097     	auipc	ra, 0x4
80002d60: f5c080e7     	jalr	-0xa4(ra) <core::panicking::panic_null_pointer_dereference::hbac6411af4f2e916>

0000000080002d64 <.Lpcrel_hi227>:
80002d64: 00018517     	auipc	a0, 0x18
80002d68: 2a450513     	addi	a0, a0, 0x2a4
80002d6c: 110c         	addi	a1, sp, 0xa0
80002d6e: 04800613     	li	a2, 0x48
80002d72: 00004097     	auipc	ra, 0x4
80002d76: 110080e7     	jalr	0x110(ra) <memcpy>

0000000080002d7a <.Lpcrel_hi228>:
80002d7a: 00011517     	auipc	a0, 0x11
80002d7e: 28650513     	addi	a0, a0, 0x286
80002d82: fffff097     	auipc	ra, 0xfffff
80002d86: 978080e7     	jalr	-0x688(ra) <lab4_kernel_task3::clear_page_table::h4f5c9fc58ff8e20c>

0000000080002d8a <.Lpcrel_hi229>:
80002d8a: 00017517     	auipc	a0, 0x17
80002d8e: 27650513     	addi	a0, a0, 0x276
80002d92: fffff097     	auipc	ra, 0xfffff
80002d96: 968080e7     	jalr	-0x698(ra) <lab4_kernel_task3::clear_page_table::h4f5c9fc58ff8e20c>

0000000080002d9a <.Lpcrel_hi230>:
80002d9a: 0000d517     	auipc	a0, 0xd
80002d9e: 26650513     	addi	a0, a0, 0x266
80002da2: 00002097     	auipc	ra, 0x2
80002da6: 260080e7     	jalr	0x260(ra) <lab4_kernel_task3::zero_page::h301b717a8e4cf87f>
80002daa: 00000097     	auipc	ra, 0x0
80002dae: 3fe080e7     	jalr	0x3fe(ra) <lab4_kernel_task3::zero_data_page_pool::h4681639cc084104a>
80002db2: 4501         	li	a0, 0x0
80002db4: 4589         	li	a1, 0x2
80002db6: ffffd097     	auipc	ra, 0xffffd
80002dba: 5b8080e7     	jalr	0x5b8(ra) <_$LT$I$u20$as$u20$core..iter..traits..collect..IntoIterator$GT$::into_iter::h9e4e361be1e05134>
80002dbe: f5aa         	sd	a0, 0xe8(sp)
80002dc0: f9ae         	sd	a1, 0xf0(sp)
80002dc2: a809         	j	0x80002dd4 <.Lpcrel_hi231+0x10>

0000000080002dc4 <.Lpcrel_hi231>:
80002dc4: 00005517     	auipc	a0, 0x5
80002dc8: 48450513     	addi	a0, a0, 0x484
80002dcc: 00004097     	auipc	ra, 0x4
80002dd0: eec080e7     	jalr	-0x114(ra) <core::panicking::panic_null_pointer_dereference::hbac6411af4f2e916>
80002dd4: 11a8         	addi	a0, sp, 0xe8
80002dd6: ffffd097     	auipc	ra, 0xffffd
80002dda: 584080e7     	jalr	0x584(ra) <core::iter::range::_$LT$impl$u20$core..iter..traits..iterator..Iterator$u20$for$u20$core..ops..range..Range$LT$A$GT$$GT$::next::h9ea1a7ea3eb8baf8>
80002dde: fdaa         	sd	a0, 0xf8(sp)
80002de0: e22e         	sd	a1, 0x100(sp)
80002de2: 756e         	ld	a0, 0xf8(sp)
80002de4: 8905         	andi	a0, a0, 0x1
80002de6: cd21         	beqz	a0, 0x80002e3e <.Lpcrel_hi231+0x7a>
80002de8: a009         	j	0x80002dea <.Lpcrel_hi231+0x26>
80002dea: 6512         	ld	a0, 0x100(sp)
80002dec: e4aa         	sd	a0, 0x48(sp)
80002dee: 36a13823     	sd	a0, 0x370(sp)
80002df2: 00000097     	auipc	ra, 0x0
80002df6: 37e080e7     	jalr	0x37e(ra) <lab4_kernel_task3::proc_root_table_ptr::ha2542f84bb5e9772>
80002dfa: fffff097     	auipc	ra, 0xfffff
80002dfe: 900080e7     	jalr	-0x700(ra) <lab4_kernel_task3::clear_page_table::h4f5c9fc58ff8e20c>
80002e02: 6526         	ld	a0, 0x48(sp)
80002e04: 00000097     	auipc	ra, 0x0
80002e08: 7d8080e7     	jalr	0x7d8(ra) <lab4_kernel_task3::proc_low_l1_table_ptr::h5b1c7dc9ac863b8c>
80002e0c: fffff097     	auipc	ra, 0xfffff
80002e10: 8ee080e7     	jalr	-0x712(ra) <lab4_kernel_task3::clear_page_table::h4f5c9fc58ff8e20c>
80002e14: 6526         	ld	a0, 0x48(sp)
80002e16: 00001097     	auipc	ra, 0x1
80002e1a: fc0080e7     	jalr	-0x40(ra) <lab4_kernel_task3::proc_user_l0_table_ptr::h38b1b6507094906b>
80002e1e: fffff097     	auipc	ra, 0xfffff
80002e22: 8dc080e7     	jalr	-0x724(ra) <lab4_kernel_task3::clear_page_table::h4f5c9fc58ff8e20c>
80002e26: 0228         	addi	a0, sp, 0x108
80002e28: ffffd097     	auipc	ra, 0xffffd
80002e2c: 236080e7     	jalr	0x236(ra) <lab4_kernel_task3::trap::TrapFrame::zeroed::h871957064e3b6017>
80002e30: 6526         	ld	a0, 0x48(sp)
80002e32: 4589         	li	a1, 0x2
80002e34: 862a         	mv	a2, a0
80002e36: e8b2         	sd	a2, 0x50(sp)
80002e38: 1cb56363     	bltu	a0, a1, 0x80002ffe <.Lpcrel_hi249>
80002e3c: a2f9         	j	0x8000300a <.Lpcrel_hi249+0xc>
80002e3e: 4501         	li	a0, 0x0
80002e40: 4591         	li	a1, 0x4
80002e42: ffffd097     	auipc	ra, 0xffffd
80002e46: 52c080e7     	jalr	0x52c(ra) <_$LT$I$u20$as$u20$core..iter..traits..collect..IntoIterator$GT$::into_iter::h9e4e361be1e05134>
80002e4a: 24a13023     	sd	a0, 0x240(sp)
80002e4e: 24b13423     	sd	a1, 0x248(sp)
80002e52: a009         	j	0x80002e54 <.Lpcrel_hi231+0x90>
80002e54: 0488         	addi	a0, sp, 0x240
80002e56: ffffd097     	auipc	ra, 0xffffd
80002e5a: 504080e7     	jalr	0x504(ra) <core::iter::range::_$LT$impl$u20$core..iter..traits..iterator..Iterator$u20$for$u20$core..ops..range..Range$LT$A$GT$$GT$::next::h9ea1a7ea3eb8baf8>
80002e5e: 24a13823     	sd	a0, 0x250(sp)
80002e62: 24b13c23     	sd	a1, 0x258(sp)
80002e66: 25013503     	ld	a0, 0x250(sp)
80002e6a: 8905         	andi	a0, a0, 0x1
80002e6c: cd09         	beqz	a0, 0x80002e86 <.Lpcrel_hi231+0xc2>
80002e6e: a009         	j	0x80002e70 <.Lpcrel_hi231+0xac>
80002e70: 25813503     	ld	a0, 0x258(sp)
80002e74: fc2a         	sd	a0, 0x38(sp)
80002e76: 36a13423     	sd	a0, 0x368(sp)
80002e7a: 4591         	li	a1, 0x4
80002e7c: 862a         	mv	a2, a0
80002e7e: e0b2         	sd	a2, 0x40(sp)
80002e80: 12b56c63     	bltu	a0, a1, 0x80002fb8 <.Lpcrel_hi245>
80002e84: a281         	j	0x80002fc4 <.Lpcrel_hi245+0xc>
80002e86: fffff097     	auipc	ra, 0xfffff
80002e8a: a26080e7     	jalr	-0x5da(ra) <lab4_kernel_task3::copy_user_program::he38aade1d7e7c609>
80002e8e: 00001097     	auipc	ra, 0x1
80002e92: 036080e7     	jalr	0x36(ra) <lab4_kernel_task3::build_global_kernel_tables::hdf4f012cf8d1bdd8>
80002e96: 00000097     	auipc	ra, 0x0
80002e9a: b8e080e7     	jalr	-0x472(ra) <lab4_kernel_task3::allocate_data_page::h6ee688327ab32e89>
80002e9e: 85aa         	mv	a1, a0
80002ea0: f02e         	sd	a1, 0x20(sp)
80002ea2: 36a13023     	sd	a0, 0x360(sp)
80002ea6: 85aa         	mv	a1, a0
80002ea8: f42e         	sd	a1, 0x28(sp)
80002eaa: 85aa         	mv	a1, a0
80002eac: f82e         	sd	a1, 0x30(sp)
80002eae: 891d         	andi	a0, a0, 0x7
80002eb0: e509         	bnez	a0, 0x80002eba <.Lpcrel_hi231+0xf6>
80002eb2: a009         	j	0x80002eb4 <.Lpcrel_hi231+0xf0>
80002eb4: 7522         	ld	a0, 0x28(sp)
80002eb6: ed01         	bnez	a0, 0x80002ece <.Lpcrel_hi232+0x12>
80002eb8: a099         	j	0x80002efe <.Lpcrel_hi235>
80002eba: 75c2         	ld	a1, 0x30(sp)

0000000080002ebc <.Lpcrel_hi232>:
80002ebc: 00005517     	auipc	a0, 0x5
80002ec0: 3a450613     	addi	a2, a0, 0x3a4
80002ec4: 4521         	li	a0, 0x8
80002ec6: 00004097     	auipc	ra, 0x4
80002eca: e12080e7     	jalr	-0x1ee(ra) <core::panicking::panic_misaligned_pointer_dereference::hda85f7fb51d959f0>
80002ece: 7502         	ld	a0, 0x20(sp)
80002ed0: 7622         	ld	a2, 0x28(sp)

0000000080002ed2 <.Lpcrel_hi233>:
80002ed2: 00005597     	auipc	a1, 0x5
80002ed6: b4658593     	addi	a1, a1, -0x4ba
80002eda: 618c         	ld	a1, 0x0(a1)
80002edc: e20c         	sd	a1, 0x0(a2)
80002ede: 00001097     	auipc	ra, 0x1
80002ee2: e5c080e7     	jalr	-0x1a4(ra) <lab4_kernel_task3::make_writable_data_pte::hc8e9d3c6652bf42e>
80002ee6: 85aa         	mv	a1, a0
80002ee8: 4501         	li	a0, 0x0
80002eea: ffffe097     	auipc	ra, 0xffffe
80002eee: f54080e7     	jalr	-0xac(ra) <lab4_kernel_task3::build_process::heda97c6c0013b29d>

0000000080002ef2 <.Lpcrel_hi234>:
80002ef2: 00007517     	auipc	a0, 0x7
80002ef6: 15650513     	addi	a0, a0, 0x156
80002efa: e911         	bnez	a0, 0x80002f0e <.Lpcrel_hi236>
80002efc: a815         	j	0x80002f30 <.Lpcrel_hi238>

0000000080002efe <.Lpcrel_hi235>:
80002efe: 00005517     	auipc	a0, 0x5
80002f02: 36250513     	addi	a0, a0, 0x362
80002f06: 00004097     	auipc	ra, 0x4
80002f0a: db2080e7     	jalr	-0x24e(ra) <core::panicking::panic_null_pointer_dereference::hbac6411af4f2e916>

0000000080002f0e <.Lpcrel_hi236>:
80002f0e: 00007517     	auipc	a0, 0x7
80002f12: 13a50593     	addi	a1, a0, 0x13a
80002f16: 4505         	li	a0, 0x1
80002f18: e188         	sd	a0, 0x0(a1)
80002f1a: 1488         	addi	a0, sp, 0x260
80002f1c: ffffd097     	auipc	ra, 0xffffd
80002f20: 142080e7     	jalr	0x142(ra) <lab4_kernel_task3::trap::TrapFrame::zeroed::h871957064e3b6017>

0000000080002f24 <.Lpcrel_hi237>:
80002f24: 0000c517     	auipc	a0, 0xc
80002f28: 0fc50513     	addi	a0, a0, 0xfc
80002f2c: e911         	bnez	a0, 0x80002f40 <.Lpcrel_hi239>
80002f2e: a805         	j	0x80002f5e <.Lpcrel_hi240>

0000000080002f30 <.Lpcrel_hi238>:
80002f30: 00005517     	auipc	a0, 0x5
80002f34: 34850513     	addi	a0, a0, 0x348
80002f38: 00004097     	auipc	ra, 0x4
80002f3c: d80080e7     	jalr	-0x280(ra) <core::panicking::panic_null_pointer_dereference::hbac6411af4f2e916>

0000000080002f40 <.Lpcrel_hi239>:
80002f40: 0000c517     	auipc	a0, 0xc
80002f44: 0e050513     	addi	a0, a0, 0xe0
80002f48: ec2a         	sd	a0, 0x18(sp)
80002f4a: 148c         	addi	a1, sp, 0x260
80002f4c: 10000613     	li	a2, 0x100
80002f50: 00004097     	auipc	ra, 0x4
80002f54: f32080e7     	jalr	-0xce(ra) <memcpy>
80002f58: 6562         	ld	a0, 0x18(sp)
80002f5a: e911         	bnez	a0, 0x80002f6e <.Lpcrel_hi241>
80002f5c: a015         	j	0x80002f80 <.Lpcrel_hi242>

0000000080002f5e <.Lpcrel_hi240>:
80002f5e: 00005517     	auipc	a0, 0x5
80002f62: 33250513     	addi	a0, a0, 0x332
80002f66: 00004097     	auipc	ra, 0x4
80002f6a: d52080e7     	jalr	-0x2ae(ra) <core::panicking::panic_null_pointer_dereference::hbac6411af4f2e916>

0000000080002f6e <.Lpcrel_hi241>:
80002f6e: 0000c517     	auipc	a0, 0xc
80002f72: 0b250513     	addi	a0, a0, 0xb2
80002f76: 004005b7     	lui	a1, 0x400
80002f7a: fd6c         	sd	a1, 0xf8(a0)
80002f7c: e911         	bnez	a0, 0x80002f90 <.Lpcrel_hi243>
80002f7e: a02d         	j	0x80002fa8 <.Lpcrel_hi244>

0000000080002f80 <.Lpcrel_hi242>:
80002f80: 00005517     	auipc	a0, 0x5
80002f84: 32850513     	addi	a0, a0, 0x328
80002f88: 00004097     	auipc	ra, 0x4
80002f8c: d30080e7     	jalr	-0x2d0(ra) <core::panicking::panic_null_pointer_dereference::hbac6411af4f2e916>

0000000080002f90 <.Lpcrel_hi243>:
80002f90: 0000c517     	auipc	a0, 0xc
80002f94: 09050593     	addi	a1, a0, 0x90
80002f98: 00404537     	lui	a0, 0x404
80002f9c: f9e8         	sd	a0, 0xf0(a1)
80002f9e: 37813083     	ld	ra, 0x378(sp)
80002fa2: 38010113     	addi	sp, sp, 0x380
80002fa6: 8082         	ret

0000000080002fa8 <.Lpcrel_hi244>:
80002fa8: 00005517     	auipc	a0, 0x5
80002fac: 31850513     	addi	a0, a0, 0x318
80002fb0: 00004097     	auipc	ra, 0x4
80002fb4: d08080e7     	jalr	-0x2f8(ra) <core::panicking::panic_null_pointer_dereference::hbac6411af4f2e916>

0000000080002fb8 <.Lpcrel_hi245>:
80002fb8: 0000c517     	auipc	a0, 0xc
80002fbc: 04850513     	addi	a0, a0, 0x48
80002fc0: ed01         	bnez	a0, 0x80002fd8 <.Lpcrel_hi246+0x12>
80002fc2: a035         	j	0x80002fee <.Lpcrel_hi248>
80002fc4: 6506         	ld	a0, 0x40(sp)

0000000080002fc6 <.Lpcrel_hi246>:
80002fc6: 00005597     	auipc	a1, 0x5
80002fca: 31258613     	addi	a2, a1, 0x312
80002fce: 4591         	li	a1, 0x4
80002fd0: 00004097     	auipc	ra, 0x4
80002fd4: c7c080e7     	jalr	-0x384(ra) <core::panicking::panic_bounds_check::h6aaee0d15e0261eb>
80002fd8: 7562         	ld	a0, 0x38(sp)
80002fda: 00351593     	slli	a1, a0, 0x3

0000000080002fde <.Lpcrel_hi247>:
80002fde: 0000c517     	auipc	a0, 0xc
80002fe2: 02250513     	addi	a0, a0, 0x22
80002fe6: 95aa         	add	a1, a1, a0
80002fe8: 4501         	li	a0, 0x0
80002fea: e188         	sd	a0, 0x0(a1)
80002fec: b5a5         	j	0x80002e54 <.Lpcrel_hi231+0x90>

0000000080002fee <.Lpcrel_hi248>:
80002fee: 00005517     	auipc	a0, 0x5
80002ff2: 2ea50513     	addi	a0, a0, 0x2ea
80002ff6: 00004097     	auipc	ra, 0x4
80002ffa: cc2080e7     	jalr	-0x33e(ra) <core::panicking::panic_null_pointer_dereference::hbac6411af4f2e916>

0000000080002ffe <.Lpcrel_hi249>:
80002ffe: 0000c517     	auipc	a0, 0xc
80003002: 02250513     	addi	a0, a0, 0x22
80003006: ed01         	bnez	a0, 0x8000301e <.Lpcrel_hi250+0x12>
80003008: a0b1         	j	0x80003054 <.Lpcrel_hi252>
8000300a: 6546         	ld	a0, 0x50(sp)

000000008000300c <.Lpcrel_hi250>:
8000300c: 00005597     	auipc	a1, 0x5
80003010: 2e458613     	addi	a2, a1, 0x2e4
80003014: 4589         	li	a1, 0x2
80003016: 00004097     	auipc	ra, 0x4
8000301a: c36080e7     	jalr	-0x3ca(ra) <core::panicking::panic_bounds_check::h6aaee0d15e0261eb>
8000301e: 6526         	ld	a0, 0x48(sp)
80003020: 00851593     	slli	a1, a0, 0x8

0000000080003024 <.Lpcrel_hi251>:
80003024: 0000c517     	auipc	a0, 0xc
80003028: ffc50513     	addi	a0, a0, -0x4
8000302c: 952e         	add	a0, a0, a1
8000302e: 022c         	addi	a1, sp, 0x108
80003030: 10000613     	li	a2, 0x100
80003034: 00004097     	auipc	ra, 0x4
80003038: e4e080e7     	jalr	-0x1b2(ra) <memcpy>
8000303c: 0428         	addi	a0, sp, 0x208
8000303e: ffffe097     	auipc	ra, 0xffffe
80003042: 512080e7     	jalr	0x512(ra) <lab4_kernel_task3::ProcessControl::empty::h6e0da2b9df8a231a>
80003046: 6526         	ld	a0, 0x48(sp)
80003048: 4589         	li	a1, 0x2
8000304a: 862a         	mv	a2, a0
8000304c: e832         	sd	a2, 0x10(sp)
8000304e: 00b56b63     	bltu	a0, a1, 0x80003064 <.Lpcrel_hi253>
80003052: a839         	j	0x80003070 <.Lpcrel_hi253+0xc>

0000000080003054 <.Lpcrel_hi252>:
80003054: 00005517     	auipc	a0, 0x5
80003058: 29c50513     	addi	a0, a0, 0x29c
8000305c: 00004097     	auipc	ra, 0x4
80003060: c5c080e7     	jalr	-0x3a4(ra) <core::panicking::panic_null_pointer_dereference::hbac6411af4f2e916>

0000000080003064 <.Lpcrel_hi253>:
80003064: 00007517     	auipc	a0, 0x7
80003068: fe450513     	addi	a0, a0, -0x1c
8000306c: ed01         	bnez	a0, 0x80003084 <.Lpcrel_hi254+0x12>
8000306e: a899         	j	0x800030c4 <.Lpcrel_hi256>
80003070: 6542         	ld	a0, 0x10(sp)

0000000080003072 <.Lpcrel_hi254>:
80003072: 00005597     	auipc	a1, 0x5
80003076: 29658613     	addi	a2, a1, 0x296
8000307a: 4589         	li	a1, 0x2
8000307c: 00004097     	auipc	ra, 0x4
80003080: bd0080e7     	jalr	-0x430(ra) <core::panicking::panic_bounds_check::h6aaee0d15e0261eb>
80003084: 6526         	ld	a0, 0x48(sp)
80003086: 00351593     	slli	a1, a0, 0x3
8000308a: 0516         	slli	a0, a0, 0x5
8000308c: 40b505b3     	sub	a1, a0, a1

0000000080003090 <.Lpcrel_hi255>:
80003090: 00007517     	auipc	a0, 0x7
80003094: fb850513     	addi	a0, a0, -0x48
80003098: 95aa         	add	a1, a1, a0
8000309a: 21813503     	ld	a0, 0x218(sp)
8000309e: e988         	sd	a0, 0x10(a1)
800030a0: 21013503     	ld	a0, 0x210(sp)
800030a4: e588         	sd	a0, 0x8(a1)
800030a6: 20813503     	ld	a0, 0x208(sp)
800030aa: e188         	sd	a0, 0x0(a1)
800030ac: 1408         	addi	a0, sp, 0x220
800030ae: ffffe097     	auipc	ra, 0xffffe
800030b2: d80080e7     	jalr	-0x280(ra) <lab4_kernel_task3::ProcessReport::empty::h3eb203d13d09d34c>
800030b6: 6526         	ld	a0, 0x48(sp)
800030b8: 4589         	li	a1, 0x2
800030ba: 862a         	mv	a2, a0
800030bc: e432         	sd	a2, 0x8(sp)
800030be: 00b56b63     	bltu	a0, a1, 0x800030d4 <.Lpcrel_hi257>
800030c2: a839         	j	0x800030e0 <.Lpcrel_hi257+0xc>

00000000800030c4 <.Lpcrel_hi256>:
800030c4: 00005517     	auipc	a0, 0x5
800030c8: 24450513     	addi	a0, a0, 0x244
800030cc: 00004097     	auipc	ra, 0x4
800030d0: bec080e7     	jalr	-0x414(ra) <core::panicking::panic_null_pointer_dereference::hbac6411af4f2e916>

00000000800030d4 <.Lpcrel_hi257>:
800030d4: 0000e517     	auipc	a0, 0xe
800030d8: f2c50513     	addi	a0, a0, -0xd4
800030dc: ed01         	bnez	a0, 0x800030f4 <.Lpcrel_hi258+0x12>
800030de: a081         	j	0x8000311e <.Lpcrel_hi260>
800030e0: 6522         	ld	a0, 0x8(sp)

00000000800030e2 <.Lpcrel_hi258>:
800030e2: 00005597     	auipc	a1, 0x5
800030e6: 23e58613     	addi	a2, a1, 0x23e
800030ea: 4589         	li	a1, 0x2
800030ec: 00004097     	auipc	ra, 0x4
800030f0: b60080e7     	jalr	-0x4a0(ra) <core::panicking::panic_bounds_check::h6aaee0d15e0261eb>
800030f4: 6526         	ld	a0, 0x48(sp)
800030f6: 00551593     	slli	a1, a0, 0x5

00000000800030fa <.Lpcrel_hi259>:
800030fa: 0000e517     	auipc	a0, 0xe
800030fe: f0650513     	addi	a0, a0, -0xfa
80003102: 95aa         	add	a1, a1, a0
80003104: 23813503     	ld	a0, 0x238(sp)
80003108: ed88         	sd	a0, 0x18(a1)
8000310a: 23013503     	ld	a0, 0x230(sp)
8000310e: e988         	sd	a0, 0x10(a1)
80003110: 22813503     	ld	a0, 0x228(sp)
80003114: e588         	sd	a0, 0x8(a1)
80003116: 22013503     	ld	a0, 0x220(sp)
8000311a: e188         	sd	a0, 0x0(a1)
8000311c: b965         	j	0x80002dd4 <.Lpcrel_hi231+0x10>

000000008000311e <.Lpcrel_hi260>:
8000311e: 00005517     	auipc	a0, 0x5
80003122: 20250513     	addi	a0, a0, 0x202
80003126: 00004097     	auipc	ra, 0x4
8000312a: b92080e7     	jalr	-0x46e(ra) <core::panicking::panic_null_pointer_dereference::hbac6411af4f2e916>

000000008000312e <lab4_kernel_task3::kernel_l1_table_pa::hb0faec3a585ab7e0>:
8000312e: 00017517     	auipc	a0, 0x17
80003132: ed250513     	addi	a0, a0, -0x12e
80003136: 8082         	ret

0000000080003138 <lab4_kernel_task3::proc_root_table_pa::h28443d1d2818f10a>:
80003138: 1141         	addi	sp, sp, -0x10
8000313a: 85aa         	mv	a1, a0
8000313c: e02e         	sd	a1, 0x0(sp)
8000313e: e42e         	sd	a1, 0x8(sp)
80003140: 4505         	li	a0, 0x1
80003142: 00b56d63     	bltu	a0, a1, 0x8000315c <.Lpcrel_hi262+0xe>
80003146: a009         	j	0x80003148 <lab4_kernel_task3::proc_root_table_pa::h28443d1d2818f10a+0x10>
80003148: 6502         	ld	a0, 0x0(sp)
8000314a: 00c51593     	slli	a1, a0, 0xc

000000008000314e <.Lpcrel_hi262>:
8000314e: 0000f517     	auipc	a0, 0xf
80003152: eb250513     	addi	a0, a0, -0x14e
80003156: 952e         	add	a0, a0, a1
80003158: 0141         	addi	sp, sp, 0x10
8000315a: 8082         	ret
8000315c: 6502         	ld	a0, 0x0(sp)

000000008000315e <.Lpcrel_hi263>:
8000315e: 00005597     	auipc	a1, 0x5
80003162: 1da58613     	addi	a2, a1, 0x1da
80003166: 4589         	li	a1, 0x2
80003168: 00004097     	auipc	ra, 0x4
8000316c: ae4080e7     	jalr	-0x51c(ra) <core::panicking::panic_bounds_check::h6aaee0d15e0261eb>

0000000080003170 <lab4_kernel_task3::proc_root_table_ptr::ha2542f84bb5e9772>:
80003170: 1141         	addi	sp, sp, -0x10
80003172: 85aa         	mv	a1, a0
80003174: e02e         	sd	a1, 0x0(sp)
80003176: e42e         	sd	a1, 0x8(sp)
80003178: 4505         	li	a0, 0x1
8000317a: 00b56d63     	bltu	a0, a1, 0x80003194 <.Lpcrel_hi264+0xe>
8000317e: a009         	j	0x80003180 <lab4_kernel_task3::proc_root_table_ptr::ha2542f84bb5e9772+0x10>
80003180: 6502         	ld	a0, 0x0(sp)
80003182: 00c51593     	slli	a1, a0, 0xc

0000000080003186 <.Lpcrel_hi264>:
80003186: 0000f517     	auipc	a0, 0xf
8000318a: e7a50513     	addi	a0, a0, -0x186
8000318e: 952e         	add	a0, a0, a1
80003190: 0141         	addi	sp, sp, 0x10
80003192: 8082         	ret
80003194: 6502         	ld	a0, 0x0(sp)

0000000080003196 <.Lpcrel_hi265>:
80003196: 00005597     	auipc	a1, 0x5
8000319a: 1ba58613     	addi	a2, a1, 0x1ba
8000319e: 4589         	li	a1, 0x2
800031a0: 00004097     	auipc	ra, 0x4
800031a4: aac080e7     	jalr	-0x554(ra) <core::panicking::panic_bounds_check::h6aaee0d15e0261eb>

00000000800031a8 <lab4_kernel_task3::zero_data_page_pool::h4681639cc084104a>:
800031a8: 715d         	addi	sp, sp, -0x50
800031aa: e486         	sd	ra, 0x48(sp)

00000000800031ac <.Lpcrel_hi266>:
800031ac: 00008517     	auipc	a0, 0x8
800031b0: e5450513     	addi	a0, a0, -0x1ac
800031b4: e0aa         	sd	a0, 0x40(sp)
800031b6: 6511         	lui	a0, 0x4
800031b8: ec2a         	sd	a0, 0x18(sp)
800031ba: 4501         	li	a0, 0x0
800031bc: e529         	bnez	a0, 0x80003206 <.Lpcrel_hi269>
800031be: a009         	j	0x800031c0 <.Lpcrel_hi266+0x14>
800031c0: 6662         	ld	a2, 0x18(sp)

00000000800031c2 <.Lpcrel_hi267>:
800031c2: 00008517     	auipc	a0, 0x8
800031c6: e3e50513     	addi	a0, a0, -0x1c2
800031ca: e42a         	sd	a0, 0x8(sp)
800031cc: f42a         	sd	a0, 0x28(sp)
800031ce: 4581         	li	a1, 0x0
800031d0: e82e         	sd	a1, 0x10(sp)
800031d2: 02b10ba3     	sb	a1, 0x37(sp)
800031d6: fc32         	sd	a2, 0x38(sp)
800031d8: 02b103a3     	sb	a1, 0x27(sp)
800031dc: 02714603     	lbu	a2, 0x27(sp)

00000000800031e0 <.Lpcrel_hi268>:
800031e0: 00006597     	auipc	a1, 0x6
800031e4: a7058693     	addi	a3, a1, -0x590
800031e8: 4585         	li	a1, 0x1
800031ea: ffffd097     	auipc	ra, 0xffffd
800031ee: 532080e7     	jalr	0x532(ra) <core::ptr::write_bytes::precondition_check::he6f35d0c38b6c5de>
800031f2: 6522         	ld	a0, 0x8(sp)
800031f4: 65c2         	ld	a1, 0x10(sp)
800031f6: 6662         	ld	a2, 0x18(sp)
800031f8: 00004097     	auipc	ra, 0x4
800031fc: c14080e7     	jalr	-0x3ec(ra) <memset>
80003200: 60a6         	ld	ra, 0x48(sp)
80003202: 6161         	addi	sp, sp, 0x50
80003204: 8082         	ret

0000000080003206 <.Lpcrel_hi269>:
80003206: 00005517     	auipc	a0, 0x5
8000320a: 16250513     	addi	a0, a0, 0x162
8000320e: 00004097     	auipc	ra, 0x4
80003212: 9e4080e7     	jalr	-0x61c(ra) <core::panicking::panic_const::panic_const_mul_overflow::h67897feae7531d51>

0000000080003216 <lab4_kernel_task3::proc_low_l1_table_pa::h31199dd75bf7b0ca>:
80003216: 1141         	addi	sp, sp, -0x10
80003218: 85aa         	mv	a1, a0
8000321a: e02e         	sd	a1, 0x0(sp)
8000321c: e42e         	sd	a1, 0x8(sp)
8000321e: 4505         	li	a0, 0x1
80003220: 00b56d63     	bltu	a0, a1, 0x8000323a <.Lpcrel_hi270+0xe>
80003224: a009         	j	0x80003226 <lab4_kernel_task3::proc_low_l1_table_pa::h31199dd75bf7b0ca+0x10>
80003226: 6502         	ld	a0, 0x0(sp)
80003228: 00c51593     	slli	a1, a0, 0xc

000000008000322c <.Lpcrel_hi270>:
8000322c: 00012517     	auipc	a0, 0x12
80003230: dd450513     	addi	a0, a0, -0x22c
80003234: 952e         	add	a0, a0, a1
80003236: 0141         	addi	sp, sp, 0x10
80003238: 8082         	ret
8000323a: 6502         	ld	a0, 0x0(sp)

000000008000323c <.Lpcrel_hi271>:
8000323c: 00005597     	auipc	a1, 0x5
80003240: 14458613     	addi	a2, a1, 0x144
80003244: 4589         	li	a1, 0x2
80003246: 00004097     	auipc	ra, 0x4
8000324a: a06080e7     	jalr	-0x5fa(ra) <core::panicking::panic_bounds_check::h6aaee0d15e0261eb>

000000008000324e <lab4_kernel_task3::store_process_report::hae5d98fddfcb9646>:
8000324e: 7115         	addi	sp, sp, -0xe0
80003250: ed86         	sd	ra, 0xd8(sp)
80003252: ec2a         	sd	a0, 0x18(sp)
80003254: 65e2         	ld	a1, 0x18(sp)
80003256: 4505         	li	a0, 0x1
80003258: 00b56963     	bltu	a0, a1, 0x8000326a <.Lpcrel_hi272+0xc>
8000325c: a009         	j	0x8000325e <.Lpcrel_hi272>

000000008000325e <.Lpcrel_hi272>:
8000325e: 0000e517     	auipc	a0, 0xe
80003262: da250513     	addi	a0, a0, -0x25e
80003266: ed01         	bnez	a0, 0x8000327e <.Lpcrel_hi273+0x12>
80003268: a81d         	j	0x8000329e <.Lpcrel_hi275>
8000326a: 6562         	ld	a0, 0x18(sp)

000000008000326c <.Lpcrel_hi273>:
8000326c: 00005597     	auipc	a1, 0x5
80003270: 12c58613     	addi	a2, a1, 0x12c
80003274: 4589         	li	a1, 0x2
80003276: 00004097     	auipc	ra, 0x4
8000327a: 9d6080e7     	jalr	-0x62a(ra) <core::panicking::panic_bounds_check::h6aaee0d15e0261eb>
8000327e: 6562         	ld	a0, 0x18(sp)
80003280: 00551593     	slli	a1, a0, 0x5

0000000080003284 <.Lpcrel_hi274>:
80003284: 0000e517     	auipc	a0, 0xe
80003288: d7c50513     	addi	a0, a0, -0x284
8000328c: 95aa         	add	a1, a1, a0
8000328e: 4505         	li	a0, 0x1
80003290: 00a58c23     	sb	a0, 0x18(a1)
80003294: 6562         	ld	a0, 0x18(sp)
80003296: 4589         	li	a1, 0x2
80003298: 00b56b63     	bltu	a0, a1, 0x800032ae <.Lpcrel_hi276>
8000329c: a839         	j	0x800032ba <.Lpcrel_hi276+0xc>

000000008000329e <.Lpcrel_hi275>:
8000329e: 00005517     	auipc	a0, 0x5
800032a2: 0fa50513     	addi	a0, a0, 0xfa
800032a6: 00004097     	auipc	ra, 0x4
800032aa: a12080e7     	jalr	-0x5ee(ra) <core::panicking::panic_null_pointer_dereference::hbac6411af4f2e916>

00000000800032ae <.Lpcrel_hi276>:
800032ae: 0000c517     	auipc	a0, 0xc
800032b2: d7250513     	addi	a0, a0, -0x28e
800032b6: ed01         	bnez	a0, 0x800032ce <.Lpcrel_hi277+0x12>
800032b8: a80d         	j	0x800032ea <.Lpcrel_hi279>
800032ba: 6562         	ld	a0, 0x18(sp)

00000000800032bc <.Lpcrel_hi277>:
800032bc: 00005597     	auipc	a1, 0x5
800032c0: 0f458613     	addi	a2, a1, 0xf4
800032c4: 4589         	li	a1, 0x2
800032c6: 00004097     	auipc	ra, 0x4
800032ca: 986080e7     	jalr	-0x67a(ra) <core::panicking::panic_bounds_check::h6aaee0d15e0261eb>
800032ce: 6562         	ld	a0, 0x18(sp)
800032d0: 00851613     	slli	a2, a0, 0x8

00000000800032d4 <.Lpcrel_hi278>:
800032d4: 0000c597     	auipc	a1, 0xc
800032d8: d4c58593     	addi	a1, a1, -0x2b4
800032dc: 95b2         	add	a1, a1, a2
800032de: 65ac         	ld	a1, 0x48(a1)
800032e0: e82e         	sd	a1, 0x10(sp)
800032e2: 4589         	li	a1, 0x2
800032e4: 00b56b63     	bltu	a0, a1, 0x800032fa <.Lpcrel_hi280>
800032e8: a839         	j	0x80003306 <.Lpcrel_hi280+0xc>

00000000800032ea <.Lpcrel_hi279>:
800032ea: 00005517     	auipc	a0, 0x5
800032ee: 0c650513     	addi	a0, a0, 0xc6
800032f2: 00004097     	auipc	ra, 0x4
800032f6: 9c6080e7     	jalr	-0x63a(ra) <core::panicking::panic_null_pointer_dereference::hbac6411af4f2e916>

00000000800032fa <.Lpcrel_hi280>:
800032fa: 0000e517     	auipc	a0, 0xe
800032fe: d0650513     	addi	a0, a0, -0x2fa
80003302: ed01         	bnez	a0, 0x8000331a <.Lpcrel_hi281+0x12>
80003304: a815         	j	0x80003338 <.Lpcrel_hi283>
80003306: 6562         	ld	a0, 0x18(sp)

0000000080003308 <.Lpcrel_hi281>:
80003308: 00005597     	auipc	a1, 0x5
8000330c: 0c058613     	addi	a2, a1, 0xc0
80003310: 4589         	li	a1, 0x2
80003312: 00004097     	auipc	ra, 0x4
80003316: 93a080e7     	jalr	-0x6c6(ra) <core::panicking::panic_bounds_check::h6aaee0d15e0261eb>
8000331a: 6542         	ld	a0, 0x10(sp)
8000331c: 65e2         	ld	a1, 0x18(sp)
8000331e: 00559613     	slli	a2, a1, 0x5

0000000080003322 <.Lpcrel_hi282>:
80003322: 0000e597     	auipc	a1, 0xe
80003326: cde58593     	addi	a1, a1, -0x322
8000332a: 95b2         	add	a1, a1, a2
8000332c: e188         	sd	a0, 0x0(a1)
8000332e: 6562         	ld	a0, 0x18(sp)
80003330: 4589         	li	a1, 0x2
80003332: 00b56b63     	bltu	a0, a1, 0x80003348 <.Lpcrel_hi284>
80003336: a839         	j	0x80003354 <.Lpcrel_hi284+0xc>

0000000080003338 <.Lpcrel_hi283>:
80003338: 00005517     	auipc	a0, 0x5
8000333c: 09050513     	addi	a0, a0, 0x90
80003340: 00004097     	auipc	ra, 0x4
80003344: 978080e7     	jalr	-0x688(ra) <core::panicking::panic_null_pointer_dereference::hbac6411af4f2e916>

0000000080003348 <.Lpcrel_hi284>:
80003348: 0000c517     	auipc	a0, 0xc
8000334c: cd850513     	addi	a0, a0, -0x328
80003350: ed01         	bnez	a0, 0x80003368 <.Lpcrel_hi285+0x12>
80003352: a80d         	j	0x80003384 <.Lpcrel_hi287>
80003354: 6562         	ld	a0, 0x18(sp)

0000000080003356 <.Lpcrel_hi285>:
80003356: 00005597     	auipc	a1, 0x5
8000335a: 08a58613     	addi	a2, a1, 0x8a
8000335e: 4589         	li	a1, 0x2
80003360: 00004097     	auipc	ra, 0x4
80003364: 8ec080e7     	jalr	-0x714(ra) <core::panicking::panic_bounds_check::h6aaee0d15e0261eb>
80003368: 6562         	ld	a0, 0x18(sp)
8000336a: 00851613     	slli	a2, a0, 0x8

000000008000336e <.Lpcrel_hi286>:
8000336e: 0000c597     	auipc	a1, 0xc
80003372: cb258593     	addi	a1, a1, -0x34e
80003376: 95b2         	add	a1, a1, a2
80003378: 69ac         	ld	a1, 0x50(a1)
8000337a: e42e         	sd	a1, 0x8(sp)
8000337c: 4589         	li	a1, 0x2
8000337e: 00b56b63     	bltu	a0, a1, 0x80003394 <.Lpcrel_hi288>
80003382: a839         	j	0x800033a0 <.Lpcrel_hi288+0xc>

0000000080003384 <.Lpcrel_hi287>:
80003384: 00005517     	auipc	a0, 0x5
80003388: 05c50513     	addi	a0, a0, 0x5c
8000338c: 00004097     	auipc	ra, 0x4
80003390: 92c080e7     	jalr	-0x6d4(ra) <core::panicking::panic_null_pointer_dereference::hbac6411af4f2e916>

0000000080003394 <.Lpcrel_hi288>:
80003394: 0000e517     	auipc	a0, 0xe
80003398: c6c50513     	addi	a0, a0, -0x394
8000339c: ed01         	bnez	a0, 0x800033b4 <.Lpcrel_hi289+0x12>
8000339e: a815         	j	0x800033d2 <.Lpcrel_hi291>
800033a0: 6562         	ld	a0, 0x18(sp)

00000000800033a2 <.Lpcrel_hi289>:
800033a2: 00005597     	auipc	a1, 0x5
800033a6: 05658613     	addi	a2, a1, 0x56
800033aa: 4589         	li	a1, 0x2
800033ac: 00004097     	auipc	ra, 0x4
800033b0: 8a0080e7     	jalr	-0x760(ra) <core::panicking::panic_bounds_check::h6aaee0d15e0261eb>
800033b4: 6522         	ld	a0, 0x8(sp)
800033b6: 65e2         	ld	a1, 0x18(sp)
800033b8: 00559613     	slli	a2, a1, 0x5

00000000800033bc <.Lpcrel_hi290>:
800033bc: 0000e597     	auipc	a1, 0xe
800033c0: c4458593     	addi	a1, a1, -0x3bc
800033c4: 95b2         	add	a1, a1, a2
800033c6: e588         	sd	a0, 0x8(a1)
800033c8: 6562         	ld	a0, 0x18(sp)
800033ca: 4589         	li	a1, 0x2
800033cc: 00b56b63     	bltu	a0, a1, 0x800033e2 <.Lpcrel_hi292>
800033d0: a839         	j	0x800033ee <.Lpcrel_hi292+0xc>

00000000800033d2 <.Lpcrel_hi291>:
800033d2: 00005517     	auipc	a0, 0x5
800033d6: 02650513     	addi	a0, a0, 0x26
800033da: 00004097     	auipc	ra, 0x4
800033de: 8de080e7     	jalr	-0x722(ra) <core::panicking::panic_null_pointer_dereference::hbac6411af4f2e916>

00000000800033e2 <.Lpcrel_hi292>:
800033e2: 0000c517     	auipc	a0, 0xc
800033e6: c3e50513     	addi	a0, a0, -0x3c2
800033ea: ed01         	bnez	a0, 0x80003402 <.Lpcrel_hi293+0x12>
800033ec: a80d         	j	0x8000341e <.Lpcrel_hi295>
800033ee: 6562         	ld	a0, 0x18(sp)

00000000800033f0 <.Lpcrel_hi293>:
800033f0: 00005597     	auipc	a1, 0x5
800033f4: 02058613     	addi	a2, a1, 0x20
800033f8: 4589         	li	a1, 0x2
800033fa: 00004097     	auipc	ra, 0x4
800033fe: 852080e7     	jalr	-0x7ae(ra) <core::panicking::panic_bounds_check::h6aaee0d15e0261eb>
80003402: 6562         	ld	a0, 0x18(sp)
80003404: 00851613     	slli	a2, a0, 0x8

0000000080003408 <.Lpcrel_hi294>:
80003408: 0000c597     	auipc	a1, 0xc
8000340c: c1858593     	addi	a1, a1, -0x3e8
80003410: 95b2         	add	a1, a1, a2
80003412: 6dac         	ld	a1, 0x58(a1)
80003414: e02e         	sd	a1, 0x0(sp)
80003416: 4589         	li	a1, 0x2
80003418: 00b56b63     	bltu	a0, a1, 0x8000342e <.Lpcrel_hi296>
8000341c: a839         	j	0x8000343a <.Lpcrel_hi296+0xc>

000000008000341e <.Lpcrel_hi295>:
8000341e: 00005517     	auipc	a0, 0x5
80003422: ff250513     	addi	a0, a0, -0xe
80003426: 00004097     	auipc	ra, 0x4
8000342a: 892080e7     	jalr	-0x76e(ra) <core::panicking::panic_null_pointer_dereference::hbac6411af4f2e916>

000000008000342e <.Lpcrel_hi296>:
8000342e: 0000e517     	auipc	a0, 0xe
80003432: bd250513     	addi	a0, a0, -0x42e
80003436: ed01         	bnez	a0, 0x8000344e <.Lpcrel_hi297+0x12>
80003438: a815         	j	0x8000346c <.Lpcrel_hi299>
8000343a: 6562         	ld	a0, 0x18(sp)

000000008000343c <.Lpcrel_hi297>:
8000343c: 00005597     	auipc	a1, 0x5
80003440: fec58613     	addi	a2, a1, -0x14
80003444: 4589         	li	a1, 0x2
80003446: 00004097     	auipc	ra, 0x4
8000344a: 806080e7     	jalr	-0x7fa(ra) <core::panicking::panic_bounds_check::h6aaee0d15e0261eb>
8000344e: 6502         	ld	a0, 0x0(sp)
80003450: 65e2         	ld	a1, 0x18(sp)
80003452: 00559613     	slli	a2, a1, 0x5

0000000080003456 <.Lpcrel_hi298>:
80003456: 0000e597     	auipc	a1, 0xe
8000345a: baa58593     	addi	a1, a1, -0x456
8000345e: 95b2         	add	a1, a1, a2
80003460: e988         	sd	a0, 0x10(a1)
80003462: 6562         	ld	a0, 0x18(sp)
80003464: 4589         	li	a1, 0x2
80003466: 00b56b63     	bltu	a0, a1, 0x8000347c <.Lpcrel_hi300>
8000346a: a839         	j	0x80003488 <.Lpcrel_hi300+0xc>

000000008000346c <.Lpcrel_hi299>:
8000346c: 00005517     	auipc	a0, 0x5
80003470: fbc50513     	addi	a0, a0, -0x44
80003474: 00004097     	auipc	ra, 0x4
80003478: 844080e7     	jalr	-0x7bc(ra) <core::panicking::panic_null_pointer_dereference::hbac6411af4f2e916>

000000008000347c <.Lpcrel_hi300>:
8000347c: 0000e517     	auipc	a0, 0xe
80003480: b8450513     	addi	a0, a0, -0x47c
80003484: ed01         	bnez	a0, 0x8000349c <.Lpcrel_hi301+0x12>
80003486: a815         	j	0x800034ba <.Lpcrel_hi303>
80003488: 6562         	ld	a0, 0x18(sp)

000000008000348a <.Lpcrel_hi301>:
8000348a: 00005597     	auipc	a1, 0x5
8000348e: fb658613     	addi	a2, a1, -0x4a
80003492: 4589         	li	a1, 0x2
80003494: 00003097     	auipc	ra, 0x3
80003498: 7b8080e7     	jalr	0x7b8(ra) <core::panicking::panic_bounds_check::h6aaee0d15e0261eb>
8000349c: 6562         	ld	a0, 0x18(sp)
8000349e: 00551593     	slli	a1, a0, 0x5

00000000800034a2 <.Lpcrel_hi302>:
800034a2: 0000e517     	auipc	a0, 0xe
800034a6: b5e50513     	addi	a0, a0, -0x4a2
800034aa: 952e         	add	a0, a0, a1
800034ac: 6108         	ld	a0, 0x0(a0)
800034ae: e0aa         	sd	a0, 0x40(sp)
800034b0: 6562         	ld	a0, 0x18(sp)
800034b2: 4589         	li	a1, 0x2
800034b4: 00b56b63     	bltu	a0, a1, 0x800034ca <.Lpcrel_hi304>
800034b8: a839         	j	0x800034d6 <.Lpcrel_hi304+0xc>

00000000800034ba <.Lpcrel_hi303>:
800034ba: 00005517     	auipc	a0, 0x5
800034be: f8650513     	addi	a0, a0, -0x7a
800034c2: 00003097     	auipc	ra, 0x3
800034c6: 7f6080e7     	jalr	0x7f6(ra) <core::panicking::panic_null_pointer_dereference::hbac6411af4f2e916>

00000000800034ca <.Lpcrel_hi304>:
800034ca: 0000e517     	auipc	a0, 0xe
800034ce: b3650513     	addi	a0, a0, -0x4ca
800034d2: ed01         	bnez	a0, 0x800034ea <.Lpcrel_hi305+0x12>
800034d4: a815         	j	0x80003508 <.Lpcrel_hi307>
800034d6: 6562         	ld	a0, 0x18(sp)

00000000800034d8 <.Lpcrel_hi305>:
800034d8: 00005597     	auipc	a1, 0x5
800034dc: f8058613     	addi	a2, a1, -0x80
800034e0: 4589         	li	a1, 0x2
800034e2: 00003097     	auipc	ra, 0x3
800034e6: 76a080e7     	jalr	0x76a(ra) <core::panicking::panic_bounds_check::h6aaee0d15e0261eb>
800034ea: 6562         	ld	a0, 0x18(sp)
800034ec: 00551593     	slli	a1, a0, 0x5

00000000800034f0 <.Lpcrel_hi306>:
800034f0: 0000e517     	auipc	a0, 0xe
800034f4: b1050513     	addi	a0, a0, -0x4f0
800034f8: 952e         	add	a0, a0, a1
800034fa: 6508         	ld	a0, 0x8(a0)
800034fc: e4aa         	sd	a0, 0x48(sp)
800034fe: 6562         	ld	a0, 0x18(sp)
80003500: 4589         	li	a1, 0x2
80003502: 00b56b63     	bltu	a0, a1, 0x80003518 <.Lpcrel_hi308>
80003506: a839         	j	0x80003524 <.Lpcrel_hi308+0xc>

0000000080003508 <.Lpcrel_hi307>:
80003508: 00005517     	auipc	a0, 0x5
8000350c: f5050513     	addi	a0, a0, -0xb0
80003510: 00003097     	auipc	ra, 0x3
80003514: 7a8080e7     	jalr	0x7a8(ra) <core::panicking::panic_null_pointer_dereference::hbac6411af4f2e916>

0000000080003518 <.Lpcrel_hi308>:
80003518: 0000e517     	auipc	a0, 0xe
8000351c: ae850513     	addi	a0, a0, -0x518
80003520: ed01         	bnez	a0, 0x80003538 <.Lpcrel_hi309+0x12>
80003522: a06d         	j	0x800035cc <.Lpcrel_hi312>
80003524: 6562         	ld	a0, 0x18(sp)

0000000080003526 <.Lpcrel_hi309>:
80003526: 00005597     	auipc	a1, 0x5
8000352a: f4a58613     	addi	a2, a1, -0xb6
8000352e: 4589         	li	a1, 0x2
80003530: 00003097     	auipc	ra, 0x3
80003534: 71c080e7     	jalr	0x71c(ra) <core::panicking::panic_bounds_check::h6aaee0d15e0261eb>
80003538: 6562         	ld	a0, 0x18(sp)
8000353a: 00551593     	slli	a1, a0, 0x5

000000008000353e <.Lpcrel_hi310>:
8000353e: 0000e517     	auipc	a0, 0xe
80003542: ac250513     	addi	a0, a0, -0x53e
80003546: 952e         	add	a0, a0, a1
80003548: 6908         	ld	a0, 0x10(a0)
8000354a: e8aa         	sd	a0, 0x50(sp)
8000354c: 0828         	addi	a0, sp, 0x18
8000354e: f02a         	sd	a0, 0x20(sp)
80003550: 0088         	addi	a0, sp, 0x40
80003552: f42a         	sd	a0, 0x28(sp)
80003554: 00a8         	addi	a0, sp, 0x48
80003556: f82a         	sd	a0, 0x30(sp)
80003558: 0888         	addi	a0, sp, 0x50
8000355a: fc2a         	sd	a0, 0x38(sp)
8000355c: 7582         	ld	a1, 0x20(sp)
8000355e: 0928         	addi	a0, sp, 0x98
80003560: ffffd097     	auipc	ra, 0xffffd
80003564: ec4080e7     	jalr	-0x13c(ra) <core::fmt::rt::Argument::new_display::h2a194c625b616a7c>
80003568: 75a2         	ld	a1, 0x28(sp)
8000356a: 1128         	addi	a0, sp, 0xa8
8000356c: ffffd097     	auipc	ra, 0xffffd
80003570: f40080e7     	jalr	-0xc0(ra) <core::fmt::rt::Argument::new_lower_hex::hc3d6cd349d9eaed3>
80003574: 75c2         	ld	a1, 0x30(sp)
80003576: 1928         	addi	a0, sp, 0xb8
80003578: ffffd097     	auipc	ra, 0xffffd
8000357c: f34080e7     	jalr	-0xcc(ra) <core::fmt::rt::Argument::new_lower_hex::hc3d6cd349d9eaed3>
80003580: 75e2         	ld	a1, 0x38(sp)
80003582: 01a8         	addi	a0, sp, 0xc8
80003584: ffffd097     	auipc	ra, 0xffffd
80003588: f28080e7     	jalr	-0xd8(ra) <core::fmt::rt::Argument::new_lower_hex::hc3d6cd349d9eaed3>
8000358c: 750a         	ld	a0, 0xa0(sp)
8000358e: f0aa         	sd	a0, 0x60(sp)
80003590: 656a         	ld	a0, 0x98(sp)
80003592: ecaa         	sd	a0, 0x58(sp)
80003594: 754a         	ld	a0, 0xb0(sp)
80003596: f8aa         	sd	a0, 0x70(sp)
80003598: 752a         	ld	a0, 0xa8(sp)
8000359a: f4aa         	sd	a0, 0x68(sp)
8000359c: 650e         	ld	a0, 0xc0(sp)
8000359e: e12a         	sd	a0, 0x80(sp)
800035a0: 756a         	ld	a0, 0xb8(sp)
800035a2: fcaa         	sd	a0, 0x78(sp)
800035a4: 654e         	ld	a0, 0xd0(sp)
800035a6: e92a         	sd	a0, 0x90(sp)
800035a8: 652e         	ld	a0, 0xc8(sp)
800035aa: e52a         	sd	a0, 0x88(sp)

00000000800035ac <.Lpcrel_hi311>:
800035ac: 00005517     	auipc	a0, 0x5
800035b0: edc50513     	addi	a0, a0, -0x124
800035b4: 08ac         	addi	a1, sp, 0x58
800035b6: 00002097     	auipc	ra, 0x2
800035ba: 34c080e7     	jalr	0x34c(ra) <core::fmt::Arguments::new::h419264148e77065f>
800035be: ffffd097     	auipc	ra, 0xffffd
800035c2: bd4080e7     	jalr	-0x42c(ra) <lab4_kernel_task3::console::print::h3e60aa2d39f23b20>
800035c6: 60ee         	ld	ra, 0xd8(sp)
800035c8: 612d         	addi	sp, sp, 0xe0
800035ca: 8082         	ret

00000000800035cc <.Lpcrel_hi312>:
800035cc: 00005517     	auipc	a0, 0x5
800035d0: ea450513     	addi	a0, a0, -0x15c
800035d4: 00003097     	auipc	ra, 0x3
800035d8: 6e4080e7     	jalr	0x6e4(ra) <core::panicking::panic_null_pointer_dereference::hbac6411af4f2e916>

00000000800035dc <lab4_kernel_task3::proc_low_l1_table_ptr::h5b1c7dc9ac863b8c>:
800035dc: 1141         	addi	sp, sp, -0x10
800035de: 85aa         	mv	a1, a0
800035e0: e02e         	sd	a1, 0x0(sp)
800035e2: e42e         	sd	a1, 0x8(sp)
800035e4: 4505         	li	a0, 0x1
800035e6: 00b56d63     	bltu	a0, a1, 0x80003600 <.Lpcrel_hi313+0xe>
800035ea: a009         	j	0x800035ec <lab4_kernel_task3::proc_low_l1_table_ptr::h5b1c7dc9ac863b8c+0x10>
800035ec: 6502         	ld	a0, 0x0(sp)
800035ee: 00c51593     	slli	a1, a0, 0xc

00000000800035f2 <.Lpcrel_hi313>:
800035f2: 00012517     	auipc	a0, 0x12
800035f6: a0e50513     	addi	a0, a0, -0x5f2
800035fa: 952e         	add	a0, a0, a1
800035fc: 0141         	addi	sp, sp, 0x10
800035fe: 8082         	ret
80003600: 6502         	ld	a0, 0x0(sp)

0000000080003602 <.Lpcrel_hi314>:
80003602: 00005597     	auipc	a1, 0x5
80003606: ece58613     	addi	a2, a1, -0x132
8000360a: 4589         	li	a1, 0x2
8000360c: 00003097     	auipc	ra, 0x3
80003610: 640080e7     	jalr	0x640(ra) <core::panicking::panic_bounds_check::h6aaee0d15e0261eb>

0000000080003614 <lab4_kernel_task3::proc_user_l0_table_pa::h071b0a3ca5404136>:
80003614: 1141         	addi	sp, sp, -0x10
80003616: 85aa         	mv	a1, a0
80003618: e02e         	sd	a1, 0x0(sp)
8000361a: e42e         	sd	a1, 0x8(sp)
8000361c: 4505         	li	a0, 0x1
8000361e: 00b56d63     	bltu	a0, a1, 0x80003638 <.Lpcrel_hi315+0xe>
80003622: a009         	j	0x80003624 <lab4_kernel_task3::proc_user_l0_table_pa::h071b0a3ca5404136+0x10>
80003624: 6502         	ld	a0, 0x0(sp)
80003626: 00c51593     	slli	a1, a0, 0xc

000000008000362a <.Lpcrel_hi315>:
8000362a: 00015517     	auipc	a0, 0x15
8000362e: 9d650513     	addi	a0, a0, -0x62a
80003632: 952e         	add	a0, a0, a1
80003634: 0141         	addi	sp, sp, 0x10
80003636: 8082         	ret
80003638: 6502         	ld	a0, 0x0(sp)

000000008000363a <.Lpcrel_hi316>:
8000363a: 00005597     	auipc	a1, 0x5
8000363e: eae58613     	addi	a2, a1, -0x152
80003642: 4589         	li	a1, 0x2
80003644: 00003097     	auipc	ra, 0x3
80003648: 608080e7     	jalr	0x608(ra) <core::panicking::panic_bounds_check::h6aaee0d15e0261eb>

000000008000364c <lab4_kernel_task3::handle_cow_store_fault::h56ad1cb9858a6aa7>:
8000364c: bd010113     	addi	sp, sp, -0x430
80003650: 42113423     	sd	ra, 0x428(sp)
80003654: fc2a         	sd	a0, 0x38(sp)
80003656: e0ae         	sd	a1, 0x40(sp)
80003658: 6506         	ld	a0, 0x40(sp)
8000365a: 6585         	lui	a1, 0x1
8000365c: ffffd097     	auipc	ra, 0xffffd
80003660: 684080e7     	jalr	0x684(ra) <lab4_kernel_task3::align_down::ha358e04d69f573b1>
80003664: 38a13823     	sd	a0, 0x390(sp)
80003668: 004015b7     	lui	a1, 0x401
8000366c: 02b51263     	bne	a0, a1, 0x80003690 <lab4_kernel_task3::handle_cow_store_fault::h56ad1cb9858a6aa7+0x44>
80003670: a009         	j	0x80003672 <lab4_kernel_task3::handle_cow_store_fault::h56ad1cb9858a6aa7+0x26>
80003672: 75e2         	ld	a1, 0x38(sp)
80003674: 01a8         	addi	a0, sp, 0xc8
80003676: 00401637     	lui	a2, 0x401
8000367a: fffff097     	auipc	ra, 0xfffff
8000367e: 144080e7     	jalr	0x144(ra) <lab4_kernel_task3::walk_proc_virtual::h08c829cfb27276f9>
80003682: 6512         	ld	a0, 0x100(sp)
80003684: ffffd097     	auipc	ra, 0xffffd
80003688: 7a0080e7     	jalr	0x7a0(ra) <lab4_kernel_task3::pte_is_valid::hc73f6723d9ce6bbc>
8000368c: e13d         	bnez	a0, 0x800036f2 <.Lpcrel_hi317+0x24>
8000368e: a031         	j	0x8000369a <lab4_kernel_task3::handle_cow_store_fault::h56ad1cb9858a6aa7+0x4e>
80003690: 7562         	ld	a0, 0x38(sp)
80003692: 4589         	li	a1, 0x2
80003694: 5eb56663     	bltu	a0, a1, 0x80003c80 <.Lpcrel_hi362>
80003698: abd5         	j	0x80003c8c <.Lpcrel_hi362+0xc>
8000369a: 0208         	addi	a0, sp, 0x100
8000369c: f82a         	sd	a0, 0x30(sp)
8000369e: 182c         	addi	a1, sp, 0x38
800036a0: 38b13c23     	sd	a1, 0x398(sp)
800036a4: 3aa13023     	sd	a0, 0x3a0(sp)
800036a8: 1228         	addi	a0, sp, 0x128
800036aa: ffffd097     	auipc	ra, 0xffffd
800036ae: d7a080e7     	jalr	-0x286(ra) <core::fmt::rt::Argument::new_display::h2a194c625b616a7c>
800036b2: 75c2         	ld	a1, 0x30(sp)
800036b4: 1a28         	addi	a0, sp, 0x138
800036b6: ffffd097     	auipc	ra, 0xffffd
800036ba: e18080e7     	jalr	-0x1e8(ra) <core::fmt::rt::Argument::new_lower_hex::hfcf8be588603c455>
800036be: 7552         	ld	a0, 0x130(sp)
800036c0: ea2a         	sd	a0, 0x110(sp)
800036c2: 7532         	ld	a0, 0x128(sp)
800036c4: e62a         	sd	a0, 0x108(sp)
800036c6: 6516         	ld	a0, 0x140(sp)
800036c8: f22a         	sd	a0, 0x120(sp)
800036ca: 7572         	ld	a0, 0x138(sp)
800036cc: ee2a         	sd	a0, 0x118(sp)

00000000800036ce <.Lpcrel_hi317>:
800036ce: 00005517     	auipc	a0, 0x5
800036d2: e3250513     	addi	a0, a0, -0x1ce
800036d6: 022c         	addi	a1, sp, 0x108
800036d8: 00002097     	auipc	ra, 0x2
800036dc: 270080e7     	jalr	0x270(ra) <core::fmt::Arguments::new::hd13ed8d58b0ddb31>
800036e0: ffffd097     	auipc	ra, 0xffffd
800036e4: ab2080e7     	jalr	-0x54e(ra) <lab4_kernel_task3::console::print::h3e60aa2d39f23b20>
800036e8: 4505         	li	a0, 0x1
800036ea: 00002097     	auipc	ra, 0x2
800036ee: 8c2080e7     	jalr	-0x73e(ra) <lab4_kernel_task3::qemu_exit::hbc34671da0810e27>
800036f2: 6512         	ld	a0, 0x100(sp)
800036f4: ffffd097     	auipc	ra, 0xffffd
800036f8: 6e2080e7     	jalr	0x6e2(ra) <lab4_kernel_task3::pte_has_cow::h30f20c31b6a93a62>
800036fc: dd59         	beqz	a0, 0x8000369a <lab4_kernel_task3::handle_cow_store_fault::h56ad1cb9858a6aa7+0x4e>
800036fe: a009         	j	0x80003700 <.Lpcrel_hi317+0x32>
80003700: 6512         	ld	a0, 0x100(sp)
80003702: 00002097     	auipc	ra, 0x2
80003706: 89e080e7     	jalr	-0x762(ra) <lab4_kernel_task3::pte_to_pa::h5acd02dcfb8b5338>
8000370a: e6aa         	sd	a0, 0x148(sp)
8000370c: 6536         	ld	a0, 0x148(sp)
8000370e: fffff097     	auipc	ra, 0xfffff
80003712: 50c080e7     	jalr	0x50c(ra) <lab4_kernel_task3::data_page_refcount::hb6e760d9cb0a8983>
80003716: eaaa         	sd	a0, 0x150(sp)

0000000080003718 <.Lpcrel_hi318>:
80003718: 00018517     	auipc	a0, 0x18
8000371c: 8f050513     	addi	a0, a0, -0x710
80003720: cd09         	beqz	a0, 0x8000373a <.Lpcrel_hi320>
80003722: a009         	j	0x80003724 <.Lpcrel_hi319>

0000000080003724 <.Lpcrel_hi319>:
80003724: 00018517     	auipc	a0, 0x18
80003728: 8e450513     	addi	a0, a0, -0x71c
8000372c: 610c         	ld	a1, 0x0(a0)
8000372e: 00158513     	addi	a0, a1, 0x1
80003732: f42a         	sd	a0, 0x28(sp)
80003734: 02b56163     	bltu	a0, a1, 0x80003756 <.Lpcrel_hi322>
80003738: a809         	j	0x8000374a <.Lpcrel_hi321>

000000008000373a <.Lpcrel_hi320>:
8000373a: 00005517     	auipc	a0, 0x5
8000373e: e0650513     	addi	a0, a0, -0x1fa
80003742: 00003097     	auipc	ra, 0x3
80003746: 576080e7     	jalr	0x576(ra) <core::panicking::panic_null_pointer_dereference::hbac6411af4f2e916>

000000008000374a <.Lpcrel_hi321>:
8000374a: 00018517     	auipc	a0, 0x18
8000374e: 8be50513     	addi	a0, a0, -0x742
80003752: e911         	bnez	a0, 0x80003766 <.Lpcrel_hi322+0x10>
80003754: a025         	j	0x8000377c <.Lpcrel_hi324>

0000000080003756 <.Lpcrel_hi322>:
80003756: 00005517     	auipc	a0, 0x5
8000375a: dea50513     	addi	a0, a0, -0x216
8000375e: 00003097     	auipc	ra, 0x3
80003762: 476080e7     	jalr	0x476(ra) <core::panicking::panic_const::panic_const_add_overflow::h67cba067093910f8>
80003766: 7522         	ld	a0, 0x28(sp)

0000000080003768 <.Lpcrel_hi323>:
80003768: 00018597     	auipc	a1, 0x18
8000376c: 8a058593     	addi	a1, a1, -0x760
80003770: e188         	sd	a0, 0x0(a1)
80003772: 65d6         	ld	a1, 0x150(sp)
80003774: 4505         	li	a0, 0x1
80003776: 02b56c63     	bltu	a0, a1, 0x800037ae <.Lpcrel_hi325+0xc>
8000377a: a809         	j	0x8000378c <.Lpcrel_hi324+0x10>

000000008000377c <.Lpcrel_hi324>:
8000377c: 00005517     	auipc	a0, 0x5
80003780: dc450513     	addi	a0, a0, -0x23c
80003784: 00003097     	auipc	ra, 0x3
80003788: 534080e7     	jalr	0x534(ra) <core::panicking::panic_null_pointer_dereference::hbac6411af4f2e916>
8000378c: 6536         	ld	a0, 0x148(sp)
8000378e: 00000097     	auipc	ra, 0x0
80003792: 5ac080e7     	jalr	0x5ac(ra) <lab4_kernel_task3::make_writable_data_pte::hc8e9d3c6652bf42e>
80003796: 85aa         	mv	a1, a0
80003798: 7562         	ld	a0, 0x38(sp)
8000379a: ffffe097     	auipc	ra, 0xffffe
8000379e: 006080e7     	jalr	0x6(ra) <lab4_kernel_task3::install_data_pte::h73217dbd5c0aff42>

00000000800037a2 <.Lpcrel_hi325>:
800037a2: 00018517     	auipc	a0, 0x18
800037a6: 86650513     	addi	a0, a0, -0x79a
800037aa: e521         	bnez	a0, 0x800037f2 <.Lpcrel_hi327>
800037ac: a8b1         	j	0x80003808 <.Lpcrel_hi328>
800037ae: fffff097     	auipc	ra, 0xfffff
800037b2: 276080e7     	jalr	0x276(ra) <lab4_kernel_task3::allocate_data_page::h6ee688327ab32e89>
800037b6: f2aa         	sd	a0, 0x160(sp)
800037b8: 7516         	ld	a0, 0x160(sp)
800037ba: 65b6         	ld	a1, 0x148(sp)
800037bc: 00001097     	auipc	ra, 0x1
800037c0: 756080e7     	jalr	0x756(ra) <lab4_kernel_task3::copy_page::h46df678f5d7b9744>
800037c4: 6536         	ld	a0, 0x148(sp)
800037c6: 00001097     	auipc	ra, 0x1
800037ca: 8c6080e7     	jalr	-0x73a(ra) <lab4_kernel_task3::decrement_data_page_refcount::h4c5253a83e898d6b>
800037ce: 7516         	ld	a0, 0x160(sp)
800037d0: 00000097     	auipc	ra, 0x0
800037d4: 56a080e7     	jalr	0x56a(ra) <lab4_kernel_task3::make_writable_data_pte::hc8e9d3c6652bf42e>
800037d8: 85aa         	mv	a1, a0
800037da: 7562         	ld	a0, 0x38(sp)
800037dc: ffffe097     	auipc	ra, 0xffffe
800037e0: fc4080e7     	jalr	-0x3c(ra) <lab4_kernel_task3::install_data_pte::h73217dbd5c0aff42>

00000000800037e4 <.Lpcrel_hi326>:
800037e4: 00018517     	auipc	a0, 0x18
800037e8: 82450513     	addi	a0, a0, -0x7dc
800037ec: 16051d63     	bnez	a0, 0x80003966 <.Lpcrel_hi341>
800037f0: a271         	j	0x8000397c <.Lpcrel_hi342>

00000000800037f2 <.Lpcrel_hi327>:
800037f2: 00018517     	auipc	a0, 0x18
800037f6: 81650513     	addi	a0, a0, -0x7ea
800037fa: 690c         	ld	a1, 0x10(a0)
800037fc: 00158513     	addi	a0, a1, 0x1
80003800: f02a         	sd	a0, 0x20(sp)
80003802: 02b56163     	bltu	a0, a1, 0x80003824 <.Lpcrel_hi330>
80003806: a809         	j	0x80003818 <.Lpcrel_hi329>

0000000080003808 <.Lpcrel_hi328>:
80003808: 00005517     	auipc	a0, 0x5
8000380c: d5050513     	addi	a0, a0, -0x2b0
80003810: 00003097     	auipc	ra, 0x3
80003814: 4a8080e7     	jalr	0x4a8(ra) <core::panicking::panic_null_pointer_dereference::hbac6411af4f2e916>

0000000080003818 <.Lpcrel_hi329>:
80003818: 00017517     	auipc	a0, 0x17
8000381c: 7f050513     	addi	a0, a0, 0x7f0
80003820: e911         	bnez	a0, 0x80003834 <.Lpcrel_hi330+0x10>
80003822: a015         	j	0x80003846 <.Lpcrel_hi332>

0000000080003824 <.Lpcrel_hi330>:
80003824: 00005517     	auipc	a0, 0x5
80003828: d3450513     	addi	a0, a0, -0x2cc
8000382c: 00003097     	auipc	ra, 0x3
80003830: 3a8080e7     	jalr	0x3a8(ra) <core::panicking::panic_const::panic_const_add_overflow::h67cba067093910f8>
80003834: 7502         	ld	a0, 0x20(sp)

0000000080003836 <.Lpcrel_hi331>:
80003836: 00017597     	auipc	a1, 0x17
8000383a: 7d258593     	addi	a1, a1, 0x7d2
8000383e: e988         	sd	a0, 0x10(a1)
80003840: 7562         	ld	a0, 0x38(sp)
80003842: c145         	beqz	a0, 0x800038e2 <.Lpcrel_hi334>
80003844: a809         	j	0x80003856 <.Lpcrel_hi332+0x10>

0000000080003846 <.Lpcrel_hi332>:
80003846: 00005517     	auipc	a0, 0x5
8000384a: d1250513     	addi	a0, a0, -0x2ee
8000384e: 00003097     	auipc	ra, 0x3
80003852: 46a080e7     	jalr	0x46a(ra) <core::panicking::panic_null_pointer_dereference::hbac6411af4f2e916>
80003856: 1828         	addi	a0, sp, 0x38
80003858: 20a13423     	sd	a0, 0x208(sp)
8000385c: 0a88         	addi	a0, sp, 0x150
8000385e: 20a13823     	sd	a0, 0x210(sp)
80003862: 02a8         	addi	a0, sp, 0x148
80003864: 20a13c23     	sd	a0, 0x218(sp)
80003868: 20813583     	ld	a1, 0x208(sp)
8000386c: 0c88         	addi	a0, sp, 0x250
8000386e: ffffd097     	auipc	ra, 0xffffd
80003872: bb6080e7     	jalr	-0x44a(ra) <core::fmt::rt::Argument::new_display::h2a194c625b616a7c>
80003876: 21013583     	ld	a1, 0x210(sp)
8000387a: 1488         	addi	a0, sp, 0x260
8000387c: ffffd097     	auipc	ra, 0xffffd
80003880: ba8080e7     	jalr	-0x458(ra) <core::fmt::rt::Argument::new_display::h2a194c625b616a7c>
80003884: 21813583     	ld	a1, 0x218(sp)
80003888: 1c88         	addi	a0, sp, 0x270
8000388a: ffffd097     	auipc	ra, 0xffffd
8000388e: c44080e7     	jalr	-0x3bc(ra) <core::fmt::rt::Argument::new_lower_hex::hfcf8be588603c455>
80003892: 25813503     	ld	a0, 0x258(sp)
80003896: 22a13423     	sd	a0, 0x228(sp)
8000389a: 25013503     	ld	a0, 0x250(sp)
8000389e: 22a13023     	sd	a0, 0x220(sp)
800038a2: 26813503     	ld	a0, 0x268(sp)
800038a6: 22a13c23     	sd	a0, 0x238(sp)
800038aa: 26013503     	ld	a0, 0x260(sp)
800038ae: 22a13823     	sd	a0, 0x230(sp)
800038b2: 27813503     	ld	a0, 0x278(sp)
800038b6: 24a13423     	sd	a0, 0x248(sp)
800038ba: 27013503     	ld	a0, 0x270(sp)
800038be: 24a13023     	sd	a0, 0x240(sp)

00000000800038c2 <.Lpcrel_hi333>:
800038c2: 00005517     	auipc	a0, 0x5
800038c6: cf650513     	addi	a0, a0, -0x30a
800038ca: 140c         	addi	a1, sp, 0x220
800038cc: 00002097     	auipc	ra, 0x2
800038d0: 040080e7     	jalr	0x40(ra) <core::fmt::Arguments::new::h5720a0953a35f9c3>
800038d4: ffffd097     	auipc	ra, 0xffffd
800038d8: 8be080e7     	jalr	-0x742(ra) <lab4_kernel_task3::console::print::h3e60aa2d39f23b20>
800038dc: 6536         	ld	a0, 0x148(sp)
800038de: eeaa         	sd	a0, 0x158(sp)
800038e0: a0b5         	j	0x8000394c <.Lpcrel_hi340+0x10>

00000000800038e2 <.Lpcrel_hi334>:
800038e2: 00017517     	auipc	a0, 0x17
800038e6: 72650513     	addi	a0, a0, 0x726
800038ea: c911         	beqz	a0, 0x800038fe <.Lpcrel_hi336>
800038ec: a009         	j	0x800038ee <.Lpcrel_hi334+0xc>
800038ee: 65d6         	ld	a1, 0x150(sp)

00000000800038f0 <.Lpcrel_hi335>:
800038f0: 00017517     	auipc	a0, 0x17
800038f4: 71850513     	addi	a0, a0, 0x718
800038f8: f90c         	sd	a1, 0x30(a0)
800038fa: e911         	bnez	a0, 0x8000390e <.Lpcrel_hi336+0x10>
800038fc: a00d         	j	0x8000391e <.Lpcrel_hi338>

00000000800038fe <.Lpcrel_hi336>:
800038fe: 00005517     	auipc	a0, 0x5
80003902: c7250513     	addi	a0, a0, -0x38e
80003906: 00003097     	auipc	ra, 0x3
8000390a: 3b2080e7     	jalr	0x3b2(ra) <core::panicking::panic_null_pointer_dereference::hbac6411af4f2e916>
8000390e: 65b6         	ld	a1, 0x148(sp)

0000000080003910 <.Lpcrel_hi337>:
80003910: 00017517     	auipc	a0, 0x17
80003914: 6f850513     	addi	a0, a0, 0x6f8
80003918: fd0c         	sd	a1, 0x38(a0)
8000391a: e911         	bnez	a0, 0x8000392e <.Lpcrel_hi338+0x10>
8000391c: a005         	j	0x8000393c <.Lpcrel_hi340>

000000008000391e <.Lpcrel_hi338>:
8000391e: 00005517     	auipc	a0, 0x5
80003922: c6a50513     	addi	a0, a0, -0x396
80003926: 00003097     	auipc	ra, 0x3
8000392a: 392080e7     	jalr	0x392(ra) <core::panicking::panic_null_pointer_dereference::hbac6411af4f2e916>
8000392e: 6536         	ld	a0, 0x148(sp)

0000000080003930 <.Lpcrel_hi339>:
80003930: 00017597     	auipc	a1, 0x17
80003934: 6d858593     	addi	a1, a1, 0x6d8
80003938: e1a8         	sd	a0, 0x40(a1)
8000393a: bf31         	j	0x80003856 <.Lpcrel_hi332+0x10>

000000008000393c <.Lpcrel_hi340>:
8000393c: 00005517     	auipc	a0, 0x5
80003940: c6450513     	addi	a0, a0, -0x39c
80003944: 00003097     	auipc	ra, 0x3
80003948: 374080e7     	jalr	0x374(ra) <core::panicking::panic_null_pointer_dereference::hbac6411af4f2e916>
8000394c: 75e2         	ld	a1, 0x38(sp)
8000394e: 0508         	addi	a0, sp, 0x280
80003950: 00401637     	lui	a2, 0x401
80003954: fffff097     	auipc	ra, 0xfffff
80003958: e6a080e7     	jalr	-0x196(ra) <lab4_kernel_task3::walk_proc_virtual::h08c829cfb27276f9>
8000395c: 7562         	ld	a0, 0x38(sp)
8000395e: 4589         	li	a1, 0x2
80003960: 14b56d63     	bltu	a0, a1, 0x80003aba <.Lpcrel_hi355>
80003964: a28d         	j	0x80003ac6 <.Lpcrel_hi355+0xc>

0000000080003966 <.Lpcrel_hi341>:
80003966: 00017517     	auipc	a0, 0x17
8000396a: 6a250513     	addi	a0, a0, 0x6a2
8000396e: 650c         	ld	a1, 0x8(a0)
80003970: 00158513     	addi	a0, a1, 0x1
80003974: ec2a         	sd	a0, 0x18(sp)
80003976: 02b56163     	bltu	a0, a1, 0x80003998 <.Lpcrel_hi344>
8000397a: a809         	j	0x8000398c <.Lpcrel_hi343>

000000008000397c <.Lpcrel_hi342>:
8000397c: 00005517     	auipc	a0, 0x5
80003980: c8c50513     	addi	a0, a0, -0x374
80003984: 00003097     	auipc	ra, 0x3
80003988: 334080e7     	jalr	0x334(ra) <core::panicking::panic_null_pointer_dereference::hbac6411af4f2e916>

000000008000398c <.Lpcrel_hi343>:
8000398c: 00017517     	auipc	a0, 0x17
80003990: 67c50513     	addi	a0, a0, 0x67c
80003994: e911         	bnez	a0, 0x800039a8 <.Lpcrel_hi344+0x10>
80003996: a025         	j	0x800039be <.Lpcrel_hi346>

0000000080003998 <.Lpcrel_hi344>:
80003998: 00005517     	auipc	a0, 0x5
8000399c: c7050513     	addi	a0, a0, -0x390
800039a0: 00003097     	auipc	ra, 0x3
800039a4: 234080e7     	jalr	0x234(ra) <core::panicking::panic_const::panic_const_add_overflow::h67cba067093910f8>
800039a8: 6562         	ld	a0, 0x18(sp)

00000000800039aa <.Lpcrel_hi345>:
800039aa: 00017597     	auipc	a1, 0x17
800039ae: 65e58593     	addi	a1, a1, 0x65e
800039b2: e588         	sd	a0, 0x8(a1)
800039b4: 7562         	ld	a0, 0x38(sp)
800039b6: 4585         	li	a1, 0x1
800039b8: 08b50c63     	beq	a0, a1, 0x80003a50 <.Lpcrel_hi348>
800039bc: a809         	j	0x800039ce <.Lpcrel_hi346+0x10>

00000000800039be <.Lpcrel_hi346>:
800039be: 00005517     	auipc	a0, 0x5
800039c2: c4a50513     	addi	a0, a0, -0x3b6
800039c6: 00003097     	auipc	ra, 0x3
800039ca: 2f2080e7     	jalr	0x2f2(ra) <core::panicking::panic_null_pointer_dereference::hbac6411af4f2e916>
800039ce: 1828         	addi	a0, sp, 0x38
800039d0: f6aa         	sd	a0, 0x168(sp)
800039d2: 0a88         	addi	a0, sp, 0x150
800039d4: faaa         	sd	a0, 0x170(sp)
800039d6: 02a8         	addi	a0, sp, 0x148
800039d8: feaa         	sd	a0, 0x178(sp)
800039da: 1288         	addi	a0, sp, 0x160
800039dc: e32a         	sd	a0, 0x180(sp)
800039de: 75b6         	ld	a1, 0x168(sp)
800039e0: 03a8         	addi	a0, sp, 0x1c8
800039e2: ffffd097     	auipc	ra, 0xffffd
800039e6: a42080e7     	jalr	-0x5be(ra) <core::fmt::rt::Argument::new_display::h2a194c625b616a7c>
800039ea: 75d6         	ld	a1, 0x170(sp)
800039ec: 0ba8         	addi	a0, sp, 0x1d8
800039ee: ffffd097     	auipc	ra, 0xffffd
800039f2: a36080e7     	jalr	-0x5ca(ra) <core::fmt::rt::Argument::new_display::h2a194c625b616a7c>
800039f6: 75f6         	ld	a1, 0x178(sp)
800039f8: 13a8         	addi	a0, sp, 0x1e8
800039fa: ffffd097     	auipc	ra, 0xffffd
800039fe: ad4080e7     	jalr	-0x52c(ra) <core::fmt::rt::Argument::new_lower_hex::hfcf8be588603c455>
80003a02: 659a         	ld	a1, 0x180(sp)
80003a04: 1ba8         	addi	a0, sp, 0x1f8
80003a06: ffffd097     	auipc	ra, 0xffffd
80003a0a: ac8080e7     	jalr	-0x538(ra) <core::fmt::rt::Argument::new_lower_hex::hfcf8be588603c455>
80003a0e: 655e         	ld	a0, 0x1d0(sp)
80003a10: eb2a         	sd	a0, 0x190(sp)
80003a12: 653e         	ld	a0, 0x1c8(sp)
80003a14: e72a         	sd	a0, 0x188(sp)
80003a16: 751e         	ld	a0, 0x1e0(sp)
80003a18: f32a         	sd	a0, 0x1a0(sp)
80003a1a: 657e         	ld	a0, 0x1d8(sp)
80003a1c: ef2a         	sd	a0, 0x198(sp)
80003a1e: 755e         	ld	a0, 0x1f0(sp)
80003a20: fb2a         	sd	a0, 0x1b0(sp)
80003a22: 753e         	ld	a0, 0x1e8(sp)
80003a24: f72a         	sd	a0, 0x1a8(sp)
80003a26: 20013503     	ld	a0, 0x200(sp)
80003a2a: e3aa         	sd	a0, 0x1c0(sp)
80003a2c: 757e         	ld	a0, 0x1f8(sp)
80003a2e: ff2a         	sd	a0, 0x1b8(sp)

0000000080003a30 <.Lpcrel_hi347>:
80003a30: 00005517     	auipc	a0, 0x5
80003a34: c3850513     	addi	a0, a0, -0x3c8
80003a38: 032c         	addi	a1, sp, 0x188
80003a3a: 00002097     	auipc	ra, 0x2
80003a3e: e78080e7     	jalr	-0x188(ra) <core::fmt::Arguments::new::h0237316099f5c63c>
80003a42: ffffc097     	auipc	ra, 0xffffc
80003a46: 750080e7     	jalr	0x750(ra) <lab4_kernel_task3::console::print::h3e60aa2d39f23b20>
80003a4a: 7516         	ld	a0, 0x160(sp)
80003a4c: eeaa         	sd	a0, 0x158(sp)
80003a4e: bdfd         	j	0x8000394c <.Lpcrel_hi340+0x10>

0000000080003a50 <.Lpcrel_hi348>:
80003a50: 00017517     	auipc	a0, 0x17
80003a54: 5b850513     	addi	a0, a0, 0x5b8
80003a58: c911         	beqz	a0, 0x80003a6c <.Lpcrel_hi350>
80003a5a: a009         	j	0x80003a5c <.Lpcrel_hi348+0xc>
80003a5c: 65d6         	ld	a1, 0x150(sp)

0000000080003a5e <.Lpcrel_hi349>:
80003a5e: 00017517     	auipc	a0, 0x17
80003a62: 5aa50513     	addi	a0, a0, 0x5aa
80003a66: ed0c         	sd	a1, 0x18(a0)
80003a68: e911         	bnez	a0, 0x80003a7c <.Lpcrel_hi350+0x10>
80003a6a: a00d         	j	0x80003a8c <.Lpcrel_hi352>

0000000080003a6c <.Lpcrel_hi350>:
80003a6c: 00005517     	auipc	a0, 0x5
80003a70: bb450513     	addi	a0, a0, -0x44c
80003a74: 00003097     	auipc	ra, 0x3
80003a78: 244080e7     	jalr	0x244(ra) <core::panicking::panic_null_pointer_dereference::hbac6411af4f2e916>
80003a7c: 65b6         	ld	a1, 0x148(sp)

0000000080003a7e <.Lpcrel_hi351>:
80003a7e: 00017517     	auipc	a0, 0x17
80003a82: 58a50513     	addi	a0, a0, 0x58a
80003a86: f10c         	sd	a1, 0x20(a0)
80003a88: e911         	bnez	a0, 0x80003a9c <.Lpcrel_hi352+0x10>
80003a8a: a005         	j	0x80003aaa <.Lpcrel_hi354>

0000000080003a8c <.Lpcrel_hi352>:
80003a8c: 00005517     	auipc	a0, 0x5
80003a90: bac50513     	addi	a0, a0, -0x454
80003a94: 00003097     	auipc	ra, 0x3
80003a98: 224080e7     	jalr	0x224(ra) <core::panicking::panic_null_pointer_dereference::hbac6411af4f2e916>
80003a9c: 7516         	ld	a0, 0x160(sp)

0000000080003a9e <.Lpcrel_hi353>:
80003a9e: 00017597     	auipc	a1, 0x17
80003aa2: 56a58593     	addi	a1, a1, 0x56a
80003aa6: f588         	sd	a0, 0x28(a1)
80003aa8: b71d         	j	0x800039ce <.Lpcrel_hi346+0x10>

0000000080003aaa <.Lpcrel_hi354>:
80003aaa: 00005517     	auipc	a0, 0x5
80003aae: ba650513     	addi	a0, a0, -0x45a
80003ab2: 00003097     	auipc	ra, 0x3
80003ab6: 206080e7     	jalr	0x206(ra) <core::panicking::panic_null_pointer_dereference::hbac6411af4f2e916>

0000000080003aba <.Lpcrel_hi355>:
80003aba: 0000b517     	auipc	a0, 0xb
80003abe: 56650513     	addi	a0, a0, 0x566
80003ac2: ed01         	bnez	a0, 0x80003ada <.Lpcrel_hi356+0x12>
80003ac4: a275         	j	0x80003c70 <.Lpcrel_hi361>
80003ac6: 7562         	ld	a0, 0x38(sp)

0000000080003ac8 <.Lpcrel_hi356>:
80003ac8: 00005597     	auipc	a1, 0x5
80003acc: c0058613     	addi	a2, a1, -0x400
80003ad0: 4589         	li	a1, 0x2
80003ad2: 00003097     	auipc	ra, 0x3
80003ad6: 17a080e7     	jalr	0x17a(ra) <core::panicking::panic_bounds_check::h6aaee0d15e0261eb>
80003ada: 7562         	ld	a0, 0x38(sp)
80003adc: 00851593     	slli	a1, a0, 0x8

0000000080003ae0 <.Lpcrel_hi357>:
80003ae0: 0000b517     	auipc	a0, 0xb
80003ae4: 54050513     	addi	a0, a0, 0x540
80003ae8: 952e         	add	a0, a0, a1
80003aea: 7d68         	ld	a0, 0xf8(a0)
80003aec: 2ea13423     	sd	a0, 0x2e8(sp)
80003af0: 1828         	addi	a0, sp, 0x38
80003af2: 2ca13023     	sd	a0, 0x2c0(sp)
80003af6: 15a8         	addi	a0, sp, 0x2e8
80003af8: 2ca13423     	sd	a0, 0x2c8(sp)
80003afc: 0088         	addi	a0, sp, 0x40
80003afe: 2ca13823     	sd	a0, 0x2d0(sp)
80003b02: 02a8         	addi	a0, sp, 0x148
80003b04: 2ca13c23     	sd	a0, 0x2d8(sp)
80003b08: 0aa8         	addi	a0, sp, 0x158
80003b0a: 2ea13023     	sd	a0, 0x2e0(sp)
80003b0e: 2c013583     	ld	a1, 0x2c0(sp)
80003b12: 0688         	addi	a0, sp, 0x340
80003b14: ffffd097     	auipc	ra, 0xffffd
80003b18: 910080e7     	jalr	-0x6f0(ra) <core::fmt::rt::Argument::new_display::h2a194c625b616a7c>
80003b1c: 2c813583     	ld	a1, 0x2c8(sp)
80003b20: 0e88         	addi	a0, sp, 0x350
80003b22: ffffd097     	auipc	ra, 0xffffd
80003b26: 9ac080e7     	jalr	-0x654(ra) <core::fmt::rt::Argument::new_lower_hex::hfcf8be588603c455>
80003b2a: 2d013583     	ld	a1, 0x2d0(sp)
80003b2e: 1688         	addi	a0, sp, 0x360
80003b30: ffffd097     	auipc	ra, 0xffffd
80003b34: 99e080e7     	jalr	-0x662(ra) <core::fmt::rt::Argument::new_lower_hex::hfcf8be588603c455>
80003b38: 2d813583     	ld	a1, 0x2d8(sp)
80003b3c: 1e88         	addi	a0, sp, 0x370
80003b3e: ffffd097     	auipc	ra, 0xffffd
80003b42: 990080e7     	jalr	-0x670(ra) <core::fmt::rt::Argument::new_lower_hex::hfcf8be588603c455>
80003b46: 2e013583     	ld	a1, 0x2e0(sp)
80003b4a: 0708         	addi	a0, sp, 0x380
80003b4c: ffffd097     	auipc	ra, 0xffffd
80003b50: 982080e7     	jalr	-0x67e(ra) <core::fmt::rt::Argument::new_lower_hex::hfcf8be588603c455>
80003b54: 34813503     	ld	a0, 0x348(sp)
80003b58: 2ea13c23     	sd	a0, 0x2f8(sp)
80003b5c: 34013503     	ld	a0, 0x340(sp)
80003b60: 2ea13823     	sd	a0, 0x2f0(sp)
80003b64: 35813503     	ld	a0, 0x358(sp)
80003b68: 30a13423     	sd	a0, 0x308(sp)
80003b6c: 35013503     	ld	a0, 0x350(sp)
80003b70: 30a13023     	sd	a0, 0x300(sp)
80003b74: 36813503     	ld	a0, 0x368(sp)
80003b78: 30a13c23     	sd	a0, 0x318(sp)
80003b7c: 36013503     	ld	a0, 0x360(sp)
80003b80: 30a13823     	sd	a0, 0x310(sp)
80003b84: 37813503     	ld	a0, 0x378(sp)
80003b88: 32a13423     	sd	a0, 0x328(sp)
80003b8c: 37013503     	ld	a0, 0x370(sp)
80003b90: 32a13023     	sd	a0, 0x320(sp)
80003b94: 38813503     	ld	a0, 0x388(sp)
80003b98: 32a13c23     	sd	a0, 0x338(sp)
80003b9c: 38013503     	ld	a0, 0x380(sp)
80003ba0: 32a13823     	sd	a0, 0x330(sp)

0000000080003ba4 <.Lpcrel_hi358>:
80003ba4: 00005517     	auipc	a0, 0x5
80003ba8: b3c50513     	addi	a0, a0, -0x4c4
80003bac: 1d8c         	addi	a1, sp, 0x2f0
80003bae: 00002097     	auipc	ra, 0x2
80003bb2: d2c080e7     	jalr	-0x2d4(ra) <core::fmt::Arguments::new::h2307f0b39accd34b>
80003bb6: ffffc097     	auipc	ra, 0xffffc
80003bba: 5dc080e7     	jalr	0x5dc(ra) <lab4_kernel_task3::console::print::h3e60aa2d39f23b20>
80003bbe: 7662         	ld	a2, 0x38(sp)
80003bc0: 6512         	ld	a0, 0x100(sp)
80003bc2: 3ea13023     	sd	a0, 0x3e0(sp)
80003bc6: 756e         	ld	a0, 0xf8(sp)
80003bc8: 3ca13c23     	sd	a0, 0x3d8(sp)
80003bcc: 754e         	ld	a0, 0xf0(sp)
80003bce: 3ca13823     	sd	a0, 0x3d0(sp)
80003bd2: 752e         	ld	a0, 0xe8(sp)
80003bd4: 3ca13423     	sd	a0, 0x3c8(sp)
80003bd8: 750e         	ld	a0, 0xe0(sp)
80003bda: 3ca13023     	sd	a0, 0x3c0(sp)
80003bde: 656e         	ld	a0, 0xd8(sp)
80003be0: 3aa13c23     	sd	a0, 0x3b8(sp)
80003be4: 654e         	ld	a0, 0xd0(sp)
80003be6: 3aa13823     	sd	a0, 0x3b0(sp)
80003bea: 652e         	ld	a0, 0xc8(sp)
80003bec: 3aa13423     	sd	a0, 0x3a8(sp)

0000000080003bf0 <.Lpcrel_hi359>:
80003bf0: 00004517     	auipc	a0, 0x4
80003bf4: df850513     	addi	a0, a0, -0x208
80003bf8: 45c1         	li	a1, 0x10
80003bfa: 004016b7     	lui	a3, 0x401
80003bfe: e836         	sd	a3, 0x10(sp)
80003c00: 1738         	addi	a4, sp, 0x3a8
80003c02: fffff097     	auipc	ra, 0xfffff
80003c06: 9d4080e7     	jalr	-0x62c(ra) <lab4_kernel_task3::print_walk_result::hcf69bf9dcb7f322d>
80003c0a: 66c2         	ld	a3, 0x10(sp)
80003c0c: 7662         	ld	a2, 0x38(sp)
80003c0e: 2b813503     	ld	a0, 0x2b8(sp)
80003c12: 42a13023     	sd	a0, 0x420(sp)
80003c16: 2b013503     	ld	a0, 0x2b0(sp)
80003c1a: 40a13c23     	sd	a0, 0x418(sp)
80003c1e: 2a813503     	ld	a0, 0x2a8(sp)
80003c22: 40a13823     	sd	a0, 0x410(sp)
80003c26: 2a013503     	ld	a0, 0x2a0(sp)
80003c2a: 40a13423     	sd	a0, 0x408(sp)
80003c2e: 29813503     	ld	a0, 0x298(sp)
80003c32: 40a13023     	sd	a0, 0x400(sp)
80003c36: 29013503     	ld	a0, 0x290(sp)
80003c3a: 3ea13c23     	sd	a0, 0x3f8(sp)
80003c3e: 28813503     	ld	a0, 0x288(sp)
80003c42: 3ea13823     	sd	a0, 0x3f0(sp)
80003c46: 28013503     	ld	a0, 0x280(sp)
80003c4a: 3ea13423     	sd	a0, 0x3e8(sp)

0000000080003c4e <.Lpcrel_hi360>:
80003c4e: 00005517     	auipc	a0, 0x5
80003c52: aea50513     	addi	a0, a0, -0x516
80003c56: 45bd         	li	a1, 0xf
80003c58: 17b8         	addi	a4, sp, 0x3e8
80003c5a: fffff097     	auipc	ra, 0xfffff
80003c5e: 97c080e7     	jalr	-0x684(ra) <lab4_kernel_task3::print_walk_result::hcf69bf9dcb7f322d>
80003c62: 75e2         	ld	a1, 0x38(sp)
80003c64: 4505         	li	a0, 0x1
80003c66: 42813083     	ld	ra, 0x428(sp)
80003c6a: 43010113     	addi	sp, sp, 0x430
80003c6e: 8082         	ret

0000000080003c70 <.Lpcrel_hi361>:
80003c70: 00005517     	auipc	a0, 0x5
80003c74: a5850513     	addi	a0, a0, -0x5a8
80003c78: 00003097     	auipc	ra, 0x3
80003c7c: 040080e7     	jalr	0x40(ra) <core::panicking::panic_null_pointer_dereference::hbac6411af4f2e916>

0000000080003c80 <.Lpcrel_hi362>:
80003c80: 0000b517     	auipc	a0, 0xb
80003c84: 3a050513     	addi	a0, a0, 0x3a0
80003c88: ed01         	bnez	a0, 0x80003ca0 <.Lpcrel_hi363+0x12>
80003c8a: a859         	j	0x80003d20 <.Lpcrel_hi366>
80003c8c: 7562         	ld	a0, 0x38(sp)

0000000080003c8e <.Lpcrel_hi363>:
80003c8e: 00005597     	auipc	a1, 0x5
80003c92: aba58613     	addi	a2, a1, -0x546
80003c96: 4589         	li	a1, 0x2
80003c98: 00003097     	auipc	ra, 0x3
80003c9c: fb4080e7     	jalr	-0x4c(ra) <core::panicking::panic_bounds_check::h6aaee0d15e0261eb>
80003ca0: 7562         	ld	a0, 0x38(sp)
80003ca2: 00851593     	slli	a1, a0, 0x8

0000000080003ca6 <.Lpcrel_hi364>:
80003ca6: 0000b517     	auipc	a0, 0xb
80003caa: 37a50513     	addi	a0, a0, 0x37a
80003cae: 952e         	add	a0, a0, a1
80003cb0: 7d68         	ld	a0, 0xf8(a0)
80003cb2: f0aa         	sd	a0, 0x60(sp)
80003cb4: 1828         	addi	a0, sp, 0x38
80003cb6: e4aa         	sd	a0, 0x48(sp)
80003cb8: 1088         	addi	a0, sp, 0x60
80003cba: e8aa         	sd	a0, 0x50(sp)
80003cbc: 0088         	addi	a0, sp, 0x40
80003cbe: ecaa         	sd	a0, 0x58(sp)
80003cc0: 65a6         	ld	a1, 0x48(sp)
80003cc2: 0928         	addi	a0, sp, 0x98
80003cc4: ffffc097     	auipc	ra, 0xffffc
80003cc8: 760080e7     	jalr	0x760(ra) <core::fmt::rt::Argument::new_display::h2a194c625b616a7c>
80003ccc: 65c6         	ld	a1, 0x50(sp)
80003cce: 1128         	addi	a0, sp, 0xa8
80003cd0: ffffc097     	auipc	ra, 0xffffc
80003cd4: 7fe080e7     	jalr	0x7fe(ra) <core::fmt::rt::Argument::new_lower_hex::hfcf8be588603c455>
80003cd8: 65e6         	ld	a1, 0x58(sp)
80003cda: 1928         	addi	a0, sp, 0xb8
80003cdc: ffffc097     	auipc	ra, 0xffffc
80003ce0: 7f2080e7     	jalr	0x7f2(ra) <core::fmt::rt::Argument::new_lower_hex::hfcf8be588603c455>
80003ce4: 750a         	ld	a0, 0xa0(sp)
80003ce6: f8aa         	sd	a0, 0x70(sp)
80003ce8: 656a         	ld	a0, 0x98(sp)
80003cea: f4aa         	sd	a0, 0x68(sp)
80003cec: 754a         	ld	a0, 0xb0(sp)
80003cee: e12a         	sd	a0, 0x80(sp)
80003cf0: 752a         	ld	a0, 0xa8(sp)
80003cf2: fcaa         	sd	a0, 0x78(sp)
80003cf4: 650e         	ld	a0, 0xc0(sp)
80003cf6: e92a         	sd	a0, 0x90(sp)
80003cf8: 756a         	ld	a0, 0xb8(sp)
80003cfa: e52a         	sd	a0, 0x88(sp)

0000000080003cfc <.Lpcrel_hi365>:
80003cfc: 00005517     	auipc	a0, 0x5
80003d00: a6450513     	addi	a0, a0, -0x59c
80003d04: 10ac         	addi	a1, sp, 0x68
80003d06: 00002097     	auipc	ra, 0x2
80003d0a: c2e080e7     	jalr	-0x3d2(ra) <core::fmt::Arguments::new::ha63d7435c25a79f8>
80003d0e: ffffc097     	auipc	ra, 0xffffc
80003d12: 484080e7     	jalr	0x484(ra) <lab4_kernel_task3::console::print::h3e60aa2d39f23b20>
80003d16: 4505         	li	a0, 0x1
80003d18: 00001097     	auipc	ra, 0x1
80003d1c: 294080e7     	jalr	0x294(ra) <lab4_kernel_task3::qemu_exit::hbc34671da0810e27>

0000000080003d20 <.Lpcrel_hi366>:
80003d20: 00005517     	auipc	a0, 0x5
80003d24: a2850513     	addi	a0, a0, -0x5d8
80003d28: 00003097     	auipc	ra, 0x3
80003d2c: f90080e7     	jalr	-0x70(ra) <core::panicking::panic_null_pointer_dereference::hbac6411af4f2e916>

0000000080003d30 <lab4_kernel_task3::machine_trap_stack_top::h49af9bedde830a37>:
80003d30: 0002b517     	auipc	a0, 0x2b
80003d34: 32050513     	addi	a0, a0, 0x320
80003d38: 8082         	ret

0000000080003d3a <lab4_kernel_task3::make_writable_data_pte::hc8e9d3c6652bf42e>:
80003d3a: 1141         	addi	sp, sp, -0x10
80003d3c: e406         	sd	ra, 0x8(sp)
80003d3e: e02a         	sd	a0, 0x0(sp)
80003d40: 0d600593     	li	a1, 0xd6
80003d44: 00001097     	auipc	ra, 0x1
80003d48: 118080e7     	jalr	0x118(ra) <lab4_kernel_task3::leaf_pte::h8fee59baeede6e06>
80003d4c: 60a2         	ld	ra, 0x8(sp)
80003d4e: 0141         	addi	sp, sp, 0x10
80003d50: 8082         	ret

0000000080003d52 <lab4_kernel_task3::other_runnable_or_self::hdfd023054bd579bf>:
80003d52: 7179         	addi	sp, sp, -0x30
80003d54: f406         	sd	ra, 0x28(sp)
80003d56: e02a         	sd	a0, 0x0(sp)
80003d58: ec2a         	sd	a0, 0x18(sp)
80003d5a: 00001097     	auipc	ra, 0x1
80003d5e: 1fa080e7     	jalr	0x1fa(ra) <lab4_kernel_task3::other_pid::h44af82a9b30f4ed0>
80003d62: 85aa         	mv	a1, a0
80003d64: 852e         	mv	a0, a1
80003d66: e42a         	sd	a0, 0x8(sp)
80003d68: f02e         	sd	a1, 0x20(sp)
80003d6a: 4505         	li	a0, 0x1
80003d6c: 00b56963     	bltu	a0, a1, 0x80003d7e <.Lpcrel_hi368+0xc>
80003d70: a009         	j	0x80003d72 <.Lpcrel_hi368>

0000000080003d72 <.Lpcrel_hi368>:
80003d72: 00006517     	auipc	a0, 0x6
80003d76: 2d650513     	addi	a0, a0, 0x2d6
80003d7a: ed01         	bnez	a0, 0x80003d92 <.Lpcrel_hi369+0x12>
80003d7c: a81d         	j	0x80003db2 <.Lpcrel_hi371>
80003d7e: 6522         	ld	a0, 0x8(sp)

0000000080003d80 <.Lpcrel_hi369>:
80003d80: 00005597     	auipc	a1, 0x5
80003d84: a2858613     	addi	a2, a1, -0x5d8
80003d88: 4589         	li	a1, 0x2
80003d8a: 00003097     	auipc	ra, 0x3
80003d8e: ec2080e7     	jalr	-0x13e(ra) <core::panicking::panic_bounds_check::h6aaee0d15e0261eb>
80003d92: 6522         	ld	a0, 0x8(sp)
80003d94: 00351593     	slli	a1, a0, 0x3
80003d98: 0516         	slli	a0, a0, 0x5
80003d9a: 40b505b3     	sub	a1, a0, a1

0000000080003d9e <.Lpcrel_hi370>:
80003d9e: 00006517     	auipc	a0, 0x6
80003da2: 2aa50513     	addi	a0, a0, 0x2aa
80003da6: 952e         	add	a0, a0, a1
80003da8: 6108         	ld	a0, 0x0(a0)
80003daa: 4585         	li	a1, 0x1
80003dac: 00b50e63     	beq	a0, a1, 0x80003dc8 <.Lpcrel_hi371+0x16>
80003db0: a809         	j	0x80003dc2 <.Lpcrel_hi371+0x10>

0000000080003db2 <.Lpcrel_hi371>:
80003db2: 00005517     	auipc	a0, 0x5
80003db6: 9f650513     	addi	a0, a0, -0x60a
80003dba: 00003097     	auipc	ra, 0x3
80003dbe: efe080e7     	jalr	-0x102(ra) <core::panicking::panic_null_pointer_dereference::hbac6411af4f2e916>
80003dc2: 6502         	ld	a0, 0x0(sp)
80003dc4: e82a         	sd	a0, 0x10(sp)
80003dc6: a021         	j	0x80003dce <.Lpcrel_hi371+0x1c>
80003dc8: 6522         	ld	a0, 0x8(sp)
80003dca: e82a         	sd	a0, 0x10(sp)
80003dcc: a009         	j	0x80003dce <.Lpcrel_hi371+0x1c>
80003dce: 6542         	ld	a0, 0x10(sp)
80003dd0: 70a2         	ld	ra, 0x28(sp)
80003dd2: 6145         	addi	sp, sp, 0x30
80003dd4: 8082         	ret

0000000080003dd6 <lab4_kernel_task3::proc_user_l0_table_ptr::h38b1b6507094906b>:
80003dd6: 1141         	addi	sp, sp, -0x10
80003dd8: 85aa         	mv	a1, a0
80003dda: e02e         	sd	a1, 0x0(sp)
80003ddc: e42e         	sd	a1, 0x8(sp)
80003dde: 4505         	li	a0, 0x1
80003de0: 00b56d63     	bltu	a0, a1, 0x80003dfa <.Lpcrel_hi372+0xe>
80003de4: a009         	j	0x80003de6 <lab4_kernel_task3::proc_user_l0_table_ptr::h38b1b6507094906b+0x10>
80003de6: 6502         	ld	a0, 0x0(sp)
80003de8: 00c51593     	slli	a1, a0, 0xc

0000000080003dec <.Lpcrel_hi372>:
80003dec: 00014517     	auipc	a0, 0x14
80003df0: 21450513     	addi	a0, a0, 0x214
80003df4: 952e         	add	a0, a0, a1
80003df6: 0141         	addi	sp, sp, 0x10
80003df8: 8082         	ret
80003dfa: 6502         	ld	a0, 0x0(sp)

0000000080003dfc <.Lpcrel_hi373>:
80003dfc: 00005597     	auipc	a1, 0x5
80003e00: 9c458613     	addi	a2, a1, -0x63c
80003e04: 4589         	li	a1, 0x2
80003e06: 00003097     	auipc	ra, 0x3
80003e0a: e46080e7     	jalr	-0x1ba(ra) <core::panicking::panic_bounds_check::h6aaee0d15e0261eb>

0000000080003e0e <lab4_kernel_task3::next_runnable_after_exit::h374c48200b0d8122>:
80003e0e: 711d         	addi	sp, sp, -0x60
80003e10: ec86         	sd	ra, 0x58(sp)
80003e12: 4501         	li	a0, 0x0
80003e14: 4589         	li	a1, 0x2
80003e16: ffffc097     	auipc	ra, 0xffffc
80003e1a: 558080e7     	jalr	0x558(ra) <_$LT$I$u20$as$u20$core..iter..traits..collect..IntoIterator$GT$::into_iter::h9e4e361be1e05134>
80003e1e: f82a         	sd	a0, 0x30(sp)
80003e20: fc2e         	sd	a1, 0x38(sp)
80003e22: a009         	j	0x80003e24 <lab4_kernel_task3::next_runnable_after_exit::h374c48200b0d8122+0x16>
80003e24: 1808         	addi	a0, sp, 0x30
80003e26: ffffc097     	auipc	ra, 0xffffc
80003e2a: 534080e7     	jalr	0x534(ra) <core::iter::range::_$LT$impl$u20$core..iter..traits..iterator..Iterator$u20$for$u20$core..ops..range..Range$LT$A$GT$$GT$::next::h9ea1a7ea3eb8baf8>
80003e2e: e0aa         	sd	a0, 0x40(sp)
80003e30: e4ae         	sd	a1, 0x48(sp)
80003e32: 6506         	ld	a0, 0x40(sp)
80003e34: 8905         	andi	a0, a0, 0x1
80003e36: c919         	beqz	a0, 0x80003e4c <lab4_kernel_task3::next_runnable_after_exit::h374c48200b0d8122+0x3e>
80003e38: a009         	j	0x80003e3a <lab4_kernel_task3::next_runnable_after_exit::h374c48200b0d8122+0x2c>
80003e3a: 6526         	ld	a0, 0x48(sp)
80003e3c: e82a         	sd	a0, 0x10(sp)
80003e3e: e8aa         	sd	a0, 0x50(sp)
80003e40: 4589         	li	a1, 0x2
80003e42: 862a         	mv	a2, a0
80003e44: ec32         	sd	a2, 0x18(sp)
80003e46: 00b56b63     	bltu	a0, a1, 0x80003e5c <.Lpcrel_hi374>
80003e4a: a839         	j	0x80003e68 <.Lpcrel_hi374+0xc>
80003e4c: 4501         	li	a0, 0x0
80003e4e: f02a         	sd	a0, 0x20(sp)
80003e50: a009         	j	0x80003e52 <lab4_kernel_task3::next_runnable_after_exit::h374c48200b0d8122+0x44>
80003e52: 7502         	ld	a0, 0x20(sp)
80003e54: 75a2         	ld	a1, 0x28(sp)
80003e56: 60e6         	ld	ra, 0x58(sp)
80003e58: 6125         	addi	sp, sp, 0x60
80003e5a: 8082         	ret

0000000080003e5c <.Lpcrel_hi374>:
80003e5c: 00006517     	auipc	a0, 0x6
80003e60: 1ec50513     	addi	a0, a0, 0x1ec
80003e64: ed01         	bnez	a0, 0x80003e7c <.Lpcrel_hi375+0x12>
80003e66: a82d         	j	0x80003ea0 <.Lpcrel_hi377>
80003e68: 6562         	ld	a0, 0x18(sp)

0000000080003e6a <.Lpcrel_hi375>:
80003e6a: 00005597     	auipc	a1, 0x5
80003e6e: 96e58613     	addi	a2, a1, -0x692
80003e72: 4589         	li	a1, 0x2
80003e74: 00003097     	auipc	ra, 0x3
80003e78: dd8080e7     	jalr	-0x228(ra) <core::panicking::panic_bounds_check::h6aaee0d15e0261eb>
80003e7c: 6642         	ld	a2, 0x10(sp)
80003e7e: 00361593     	slli	a1, a2, 0x3
80003e82: 00561513     	slli	a0, a2, 0x5
80003e86: 40b505b3     	sub	a1, a0, a1

0000000080003e8a <.Lpcrel_hi376>:
80003e8a: 00006517     	auipc	a0, 0x6
80003e8e: 1be50513     	addi	a0, a0, 0x1be
80003e92: 952e         	add	a0, a0, a1
80003e94: 6108         	ld	a0, 0x0(a0)
80003e96: 4585         	li	a1, 0x1
80003e98: e432         	sd	a2, 0x8(sp)
80003e9a: 00b50b63     	beq	a0, a1, 0x80003eb0 <.Lpcrel_hi377+0x10>
80003e9e: b759         	j	0x80003e24 <lab4_kernel_task3::next_runnable_after_exit::h374c48200b0d8122+0x16>

0000000080003ea0 <.Lpcrel_hi377>:
80003ea0: 00005517     	auipc	a0, 0x5
80003ea4: 93850513     	addi	a0, a0, -0x6c8
80003ea8: 00003097     	auipc	ra, 0x3
80003eac: e10080e7     	jalr	-0x1f0(ra) <core::panicking::panic_null_pointer_dereference::hbac6411af4f2e916>
80003eb0: 6522         	ld	a0, 0x8(sp)
80003eb2: f42a         	sd	a0, 0x28(sp)
80003eb4: 4505         	li	a0, 0x1
80003eb6: f02a         	sd	a0, 0x20(sp)
80003eb8: bf69         	j	0x80003e52 <lab4_kernel_task3::next_runnable_after_exit::h374c48200b0d8122+0x44>

0000000080003eba <lab4_kernel_task3::supervisor_trap_stack_top::h07df21977182b0fc>:
80003eba: 00027517     	auipc	a0, 0x27
80003ebe: 19650513     	addi	a0, a0, 0x196
80003ec2: 8082         	ret

0000000080003ec4 <lab4_kernel_task3::build_global_kernel_tables::hdf4f012cf8d1bdd8>:
80003ec4: 7119         	addi	sp, sp, -0x80
80003ec6: fc86         	sd	ra, 0x78(sp)

0000000080003ec8 <.Lpcrel_hi379>:
80003ec8: 00010517     	auipc	a0, 0x10
80003ecc: 13850513     	addi	a0, a0, 0x138
80003ed0: ffffe097     	auipc	ra, 0xffffe
80003ed4: 82a080e7     	jalr	-0x7d6(ra) <lab4_kernel_task3::clear_page_table::h4f5c9fc58ff8e20c>

0000000080003ed8 <.Lpcrel_hi380>:
80003ed8: 00016517     	auipc	a0, 0x16
80003edc: 12850513     	addi	a0, a0, 0x128
80003ee0: ffffe097     	auipc	ra, 0xffffe
80003ee4: 81a080e7     	jalr	-0x7e6(ra) <lab4_kernel_task3::clear_page_table::h4f5c9fc58ff8e20c>
80003ee8: 00100537     	lui	a0, 0x100
80003eec: f82a         	sd	a0, 0x30(sp)
80003eee: 0c600593     	li	a1, 0xc6
80003ef2: 00001097     	auipc	ra, 0x1
80003ef6: f6a080e7     	jalr	-0x96(ra) <lab4_kernel_task3::leaf_pte::h8fee59baeede6e06>
80003efa: 85aa         	mv	a1, a0
80003efc: 7542         	ld	a0, 0x30(sp)
80003efe: fc2e         	sd	a1, 0x38(sp)
80003f00: ffffd097     	auipc	ra, 0xffffd
80003f04: e70080e7     	jalr	-0x190(ra) <lab4_kernel_task3::vpn0_index::hb3d9a13406bd3e5b>
80003f08: 85aa         	mv	a1, a0
80003f0a: 852e         	mv	a0, a1
80003f0c: e0aa         	sd	a0, 0x40(sp)
80003f0e: 1ff00513     	li	a0, 0x1ff
80003f12: 00b56a63     	bltu	a0, a1, 0x80003f26 <.Lpcrel_hi381+0xe>
80003f16: a009         	j	0x80003f18 <.Lpcrel_hi381>

0000000080003f18 <.Lpcrel_hi381>:
80003f18: 00010517     	auipc	a0, 0x10
80003f1c: 0e850513     	addi	a0, a0, 0xe8
80003f20: 1552         	slli	a0, a0, 0x34
80003f22: cd09         	beqz	a0, 0x80003f3c <.Lpcrel_hi383>
80003f24: a015         	j	0x80003f48 <.Lpcrel_hi384>
80003f26: 6506         	ld	a0, 0x40(sp)

0000000080003f28 <.Lpcrel_hi382>:
80003f28: 00005597     	auipc	a1, 0x5
80003f2c: 8c858613     	addi	a2, a1, -0x738
80003f30: 20000593     	li	a1, 0x200
80003f34: 00003097     	auipc	ra, 0x3
80003f38: d18080e7     	jalr	-0x2e8(ra) <core::panicking::panic_bounds_check::h6aaee0d15e0261eb>

0000000080003f3c <.Lpcrel_hi383>:
80003f3c: 00010517     	auipc	a0, 0x10
80003f40: 0c450513     	addi	a0, a0, 0xc4
80003f44: ed19         	bnez	a0, 0x80003f62 <.Lpcrel_hi385+0x12>
80003f46: a089         	j	0x80003f88 <.Lpcrel_hi387>

0000000080003f48 <.Lpcrel_hi384>:
80003f48: 00010517     	auipc	a0, 0x10
80003f4c: 0b850593     	addi	a1, a0, 0xb8

0000000080003f50 <.Lpcrel_hi385>:
80003f50: 00005517     	auipc	a0, 0x5
80003f54: 8a050613     	addi	a2, a0, -0x760
80003f58: 6505         	lui	a0, 0x1
80003f5a: 00003097     	auipc	ra, 0x3
80003f5e: d7e080e7     	jalr	-0x282(ra) <core::panicking::panic_misaligned_pointer_dereference::hda85f7fb51d959f0>
80003f62: 7562         	ld	a0, 0x38(sp)
80003f64: 6586         	ld	a1, 0x40(sp)
80003f66: 00359613     	slli	a2, a1, 0x3

0000000080003f6a <.Lpcrel_hi386>:
80003f6a: 00010597     	auipc	a1, 0x10
80003f6e: 09658593     	addi	a1, a1, 0x96
80003f72: 95b2         	add	a1, a1, a2
80003f74: e188         	sd	a0, 0x0(a1)
80003f76: 4501         	li	a0, 0x0
80003f78: 45a1         	li	a1, 0x8
80003f7a: ffffc097     	auipc	ra, 0xffffc
80003f7e: 3f4080e7     	jalr	0x3f4(ra) <_$LT$I$u20$as$u20$core..iter..traits..collect..IntoIterator$GT$::into_iter::h9e4e361be1e05134>
80003f82: e4aa         	sd	a0, 0x48(sp)
80003f84: e8ae         	sd	a1, 0x50(sp)
80003f86: a809         	j	0x80003f98 <.Lpcrel_hi387+0x10>

0000000080003f88 <.Lpcrel_hi387>:
80003f88: 00005517     	auipc	a0, 0x5
80003f8c: 86850513     	addi	a0, a0, -0x798
80003f90: 00003097     	auipc	ra, 0x3
80003f94: d28080e7     	jalr	-0x2d8(ra) <core::panicking::panic_null_pointer_dereference::hbac6411af4f2e916>
80003f98: 00a8         	addi	a0, sp, 0x48
80003f9a: ffffc097     	auipc	ra, 0xffffc
80003f9e: 3c0080e7     	jalr	0x3c0(ra) <core::iter::range::_$LT$impl$u20$core..iter..traits..iterator..Iterator$u20$for$u20$core..ops..range..Range$LT$A$GT$$GT$::next::h9ea1a7ea3eb8baf8>
80003fa2: ecaa         	sd	a0, 0x58(sp)
80003fa4: f0ae         	sd	a1, 0x60(sp)
80003fa6: 6566         	ld	a0, 0x58(sp)
80003fa8: 8905         	andi	a0, a0, 0x1
80003faa: cd01         	beqz	a0, 0x80003fc2 <.Lpcrel_hi387+0x3a>
80003fac: a009         	j	0x80003fae <.Lpcrel_hi387+0x26>
80003fae: 7586         	ld	a1, 0x60(sp)
80003fb0: f02e         	sd	a1, 0x20(sp)
80003fb2: f4ae         	sd	a1, 0x68(sp)
80003fb4: 01559513     	slli	a0, a1, 0x15
80003fb8: f42a         	sd	a0, 0x28(sp)
80003fba: 8155         	srli	a0, a0, 0x15
80003fbc: 00b51e63     	bne	a0, a1, 0x80003fd8 <.Lpcrel_hi388>
80003fc0: a021         	j	0x80003fc8 <.Lpcrel_hi387+0x40>
80003fc2: 70e6         	ld	ra, 0x78(sp)
80003fc4: 6109         	addi	sp, sp, 0x80
80003fc6: 8082         	ret
80003fc8: 7522         	ld	a0, 0x28(sp)
80003fca: 800005b7     	lui	a1, 0x80000
80003fce: 8d0d         	sub	a0, a0, a1
80003fd0: ec2a         	sd	a0, 0x18(sp)
80003fd2: 817d         	srli	a0, a0, 0x1f
80003fd4: cd05         	beqz	a0, 0x8000400c <.Lpcrel_hi389>
80003fd6: a809         	j	0x80003fe8 <.Lpcrel_hi388+0x10>

0000000080003fd8 <.Lpcrel_hi388>:
80003fd8: 00005517     	auipc	a0, 0x5
80003fdc: 83050513     	addi	a0, a0, -0x7d0
80003fe0: 00003097     	auipc	ra, 0x3
80003fe4: c12080e7     	jalr	-0x3ee(ra) <core::panicking::panic_const::panic_const_mul_overflow::h67897feae7531d51>
80003fe8: 6562         	ld	a0, 0x18(sp)
80003fea: f8aa         	sd	a0, 0x70(sp)
80003fec: 0ce00593     	li	a1, 0xce
80003ff0: 00001097     	auipc	ra, 0x1
80003ff4: e6c080e7     	jalr	-0x194(ra) <lab4_kernel_task3::leaf_pte::h8fee59baeede6e06>
80003ff8: 85aa         	mv	a1, a0
80003ffa: 7502         	ld	a0, 0x20(sp)
80003ffc: e42e         	sd	a1, 0x8(sp)
80003ffe: 20000593     	li	a1, 0x200
80004002: 862a         	mv	a2, a0
80004004: e832         	sd	a2, 0x10(sp)
80004006: 00b56b63     	bltu	a0, a1, 0x8000401c <.Lpcrel_hi390>
8000400a: a005         	j	0x8000402a <.Lpcrel_hi390+0xe>

000000008000400c <.Lpcrel_hi389>:
8000400c: 00005517     	auipc	a0, 0x5
80004010: 81450513     	addi	a0, a0, -0x7ec
80004014: 00003097     	auipc	ra, 0x3
80004018: bc0080e7     	jalr	-0x440(ra) <core::panicking::panic_const::panic_const_add_overflow::h67cba067093910f8>

000000008000401c <.Lpcrel_hi390>:
8000401c: 00016517     	auipc	a0, 0x16
80004020: fe450513     	addi	a0, a0, -0x1c
80004024: 1552         	slli	a0, a0, 0x34
80004026: cd09         	beqz	a0, 0x80004040 <.Lpcrel_hi392>
80004028: a015         	j	0x8000404c <.Lpcrel_hi393>
8000402a: 6542         	ld	a0, 0x10(sp)

000000008000402c <.Lpcrel_hi391>:
8000402c: 00005597     	auipc	a1, 0x5
80004030: 80c58613     	addi	a2, a1, -0x7f4
80004034: 20000593     	li	a1, 0x200
80004038: 00003097     	auipc	ra, 0x3
8000403c: c14080e7     	jalr	-0x3ec(ra) <core::panicking::panic_bounds_check::h6aaee0d15e0261eb>

0000000080004040 <.Lpcrel_hi392>:
80004040: 00016517     	auipc	a0, 0x16
80004044: fc050513     	addi	a0, a0, -0x40
80004048: ed19         	bnez	a0, 0x80004066 <.Lpcrel_hi394+0x12>
8000404a: a80d         	j	0x8000407c <.Lpcrel_hi396>

000000008000404c <.Lpcrel_hi393>:
8000404c: 00016517     	auipc	a0, 0x16
80004050: fb450593     	addi	a1, a0, -0x4c

0000000080004054 <.Lpcrel_hi394>:
80004054: 00004517     	auipc	a0, 0x4
80004058: 7e450613     	addi	a2, a0, 0x7e4
8000405c: 6505         	lui	a0, 0x1
8000405e: 00003097     	auipc	ra, 0x3
80004062: c7a080e7     	jalr	-0x386(ra) <core::panicking::panic_misaligned_pointer_dereference::hda85f7fb51d959f0>
80004066: 6522         	ld	a0, 0x8(sp)
80004068: 7582         	ld	a1, 0x20(sp)
8000406a: 00359613     	slli	a2, a1, 0x3

000000008000406e <.Lpcrel_hi395>:
8000406e: 00016597     	auipc	a1, 0x16
80004072: f9258593     	addi	a1, a1, -0x6e
80004076: 95b2         	add	a1, a1, a2
80004078: e188         	sd	a0, 0x0(a1)
8000407a: bf39         	j	0x80003f98 <.Lpcrel_hi387+0x10>

000000008000407c <.Lpcrel_hi396>:
8000407c: 00004517     	auipc	a0, 0x4
80004080: 7bc50513     	addi	a0, a0, 0x7bc
80004084: 00003097     	auipc	ra, 0x3
80004088: c34080e7     	jalr	-0x3cc(ra) <core::panicking::panic_null_pointer_dereference::hbac6411af4f2e916>

000000008000408c <lab4_kernel_task3::decrement_data_page_refcount::h4c5253a83e898d6b>:
8000408c: 7179         	addi	sp, sp, -0x30
8000408e: f406         	sd	ra, 0x28(sp)
80004090: ec2a         	sd	a0, 0x18(sp)
80004092: ffffd097     	auipc	ra, 0xffffd
80004096: 4ca080e7     	jalr	0x4ca(ra) <lab4_kernel_task3::data_page_index::hb2374e4a66488e35>
8000409a: 85aa         	mv	a1, a0
8000409c: 852e         	mv	a0, a1
8000409e: e82a         	sd	a0, 0x10(sp)
800040a0: f02e         	sd	a1, 0x20(sp)
800040a2: 450d         	li	a0, 0x3
800040a4: 00b56963     	bltu	a0, a1, 0x800040b6 <.Lpcrel_hi397+0xc>
800040a8: a009         	j	0x800040aa <.Lpcrel_hi397>

00000000800040aa <.Lpcrel_hi397>:
800040aa: 0000b517     	auipc	a0, 0xb
800040ae: f5650513     	addi	a0, a0, -0xaa
800040b2: ed01         	bnez	a0, 0x800040ca <.Lpcrel_hi398+0x12>
800040b4: a035         	j	0x800040e0 <.Lpcrel_hi400>
800040b6: 6542         	ld	a0, 0x10(sp)

00000000800040b8 <.Lpcrel_hi398>:
800040b8: 00004597     	auipc	a1, 0x4
800040bc: 79858613     	addi	a2, a1, 0x798
800040c0: 4591         	li	a1, 0x4
800040c2: 00003097     	auipc	ra, 0x3
800040c6: b8a080e7     	jalr	-0x476(ra) <core::panicking::panic_bounds_check::h6aaee0d15e0261eb>
800040ca: 6542         	ld	a0, 0x10(sp)
800040cc: 00351593     	slli	a1, a0, 0x3

00000000800040d0 <.Lpcrel_hi399>:
800040d0: 0000b517     	auipc	a0, 0xb
800040d4: f3050513     	addi	a0, a0, -0xd0
800040d8: 952e         	add	a0, a0, a1
800040da: 6108         	ld	a0, 0x0(a0)
800040dc: cd19         	beqz	a0, 0x800040fa <.Lpcrel_hi401>
800040de: a809         	j	0x800040f0 <.Lpcrel_hi400+0x10>

00000000800040e0 <.Lpcrel_hi400>:
800040e0: 00004517     	auipc	a0, 0x4
800040e4: 77050513     	addi	a0, a0, 0x770
800040e8: 00003097     	auipc	ra, 0x3
800040ec: bd0080e7     	jalr	-0x430(ra) <core::panicking::panic_null_pointer_dereference::hbac6411af4f2e916>
800040f0: 6542         	ld	a0, 0x10(sp)
800040f2: 4591         	li	a1, 0x4
800040f4: 00b56c63     	bltu	a0, a1, 0x8000410c <.Lpcrel_hi402>
800040f8: a005         	j	0x80004118 <.Lpcrel_hi402+0xc>

00000000800040fa <.Lpcrel_hi401>:
800040fa: 00004517     	auipc	a0, 0x4
800040fe: 78650513     	addi	a0, a0, 0x786
80004102: 45e9         	li	a1, 0x1a
80004104: ffffd097     	auipc	ra, 0xffffd
80004108: c90080e7     	jalr	-0x370(ra) <lab4_kernel_task3::kernel_fail::h7f3f223a61b29f30>

000000008000410c <.Lpcrel_hi402>:
8000410c: 0000b517     	auipc	a0, 0xb
80004110: ef450513     	addi	a0, a0, -0x10c
80004114: ed01         	bnez	a0, 0x8000412c <.Lpcrel_hi403+0x12>
80004116: a80d         	j	0x80004148 <.Lpcrel_hi405>
80004118: 6542         	ld	a0, 0x10(sp)

000000008000411a <.Lpcrel_hi403>:
8000411a: 00004597     	auipc	a1, 0x4
8000411e: 74e58613     	addi	a2, a1, 0x74e
80004122: 4591         	li	a1, 0x4
80004124: 00003097     	auipc	ra, 0x3
80004128: b28080e7     	jalr	-0x4d8(ra) <core::panicking::panic_bounds_check::h6aaee0d15e0261eb>
8000412c: 6542         	ld	a0, 0x10(sp)
8000412e: 00351593     	slli	a1, a0, 0x3

0000000080004132 <.Lpcrel_hi404>:
80004132: 0000b517     	auipc	a0, 0xb
80004136: ece50513     	addi	a0, a0, -0x132
8000413a: 952e         	add	a0, a0, a1
8000413c: 6108         	ld	a0, 0x0(a0)
8000413e: fff50593     	addi	a1, a0, -0x1
80004142: e42e         	sd	a1, 0x8(sp)
80004144: c105         	beqz	a0, 0x80004164 <.Lpcrel_hi407>
80004146: a809         	j	0x80004158 <.Lpcrel_hi406>

0000000080004148 <.Lpcrel_hi405>:
80004148: 00004517     	auipc	a0, 0x4
8000414c: 72050513     	addi	a0, a0, 0x720
80004150: 00003097     	auipc	ra, 0x3
80004154: b68080e7     	jalr	-0x498(ra) <core::panicking::panic_null_pointer_dereference::hbac6411af4f2e916>

0000000080004158 <.Lpcrel_hi406>:
80004158: 0000b517     	auipc	a0, 0xb
8000415c: ea850513     	addi	a0, a0, -0x158
80004160: e911         	bnez	a0, 0x80004174 <.Lpcrel_hi407+0x10>
80004162: a035         	j	0x8000418e <.Lpcrel_hi409>

0000000080004164 <.Lpcrel_hi407>:
80004164: 00004517     	auipc	a0, 0x4
80004168: 70450513     	addi	a0, a0, 0x704
8000416c: 00003097     	auipc	ra, 0x3
80004170: aa4080e7     	jalr	-0x55c(ra) <core::panicking::panic_const::panic_const_sub_overflow::hccc965ba9198de7c>
80004174: 6522         	ld	a0, 0x8(sp)
80004176: 65c2         	ld	a1, 0x10(sp)
80004178: 00359613     	slli	a2, a1, 0x3

000000008000417c <.Lpcrel_hi408>:
8000417c: 0000b597     	auipc	a1, 0xb
80004180: e8458593     	addi	a1, a1, -0x17c
80004184: 95b2         	add	a1, a1, a2
80004186: e188         	sd	a0, 0x0(a1)
80004188: 70a2         	ld	ra, 0x28(sp)
8000418a: 6145         	addi	sp, sp, 0x30
8000418c: 8082         	ret

000000008000418e <.Lpcrel_hi409>:
8000418e: 00004517     	auipc	a0, 0x4
80004192: 6da50513     	addi	a0, a0, 0x6da
80004196: 00003097     	auipc	ra, 0x3
8000419a: b22080e7     	jalr	-0x4de(ra) <core::panicking::panic_null_pointer_dereference::hbac6411af4f2e916>

000000008000419e <lab4_kernel_task3::increment_data_page_refcount::h7b20a991961923a1>:
8000419e: 7179         	addi	sp, sp, -0x30
800041a0: f406         	sd	ra, 0x28(sp)
800041a2: ec2a         	sd	a0, 0x18(sp)
800041a4: ffffd097     	auipc	ra, 0xffffd
800041a8: 3b8080e7     	jalr	0x3b8(ra) <lab4_kernel_task3::data_page_index::hb2374e4a66488e35>
800041ac: 85aa         	mv	a1, a0
800041ae: 852e         	mv	a0, a1
800041b0: e82a         	sd	a0, 0x10(sp)
800041b2: f02e         	sd	a1, 0x20(sp)
800041b4: 450d         	li	a0, 0x3
800041b6: 00b56963     	bltu	a0, a1, 0x800041c8 <.Lpcrel_hi410+0xc>
800041ba: a009         	j	0x800041bc <.Lpcrel_hi410>

00000000800041bc <.Lpcrel_hi410>:
800041bc: 0000b517     	auipc	a0, 0xb
800041c0: e4450513     	addi	a0, a0, -0x1bc
800041c4: ed01         	bnez	a0, 0x800041dc <.Lpcrel_hi411+0x12>
800041c6: a815         	j	0x800041fa <.Lpcrel_hi413>
800041c8: 6542         	ld	a0, 0x10(sp)

00000000800041ca <.Lpcrel_hi411>:
800041ca: 00004597     	auipc	a1, 0x4
800041ce: 6d658613     	addi	a2, a1, 0x6d6
800041d2: 4591         	li	a1, 0x4
800041d4: 00003097     	auipc	ra, 0x3
800041d8: a78080e7     	jalr	-0x588(ra) <core::panicking::panic_bounds_check::h6aaee0d15e0261eb>
800041dc: 6542         	ld	a0, 0x10(sp)
800041de: 00351593     	slli	a1, a0, 0x3

00000000800041e2 <.Lpcrel_hi412>:
800041e2: 0000b517     	auipc	a0, 0xb
800041e6: e1e50513     	addi	a0, a0, -0x1e2
800041ea: 952e         	add	a0, a0, a1
800041ec: 610c         	ld	a1, 0x0(a0)
800041ee: 00158513     	addi	a0, a1, 0x1
800041f2: e42a         	sd	a0, 0x8(sp)
800041f4: 02b56163     	bltu	a0, a1, 0x80004216 <.Lpcrel_hi415>
800041f8: a809         	j	0x8000420a <.Lpcrel_hi414>

00000000800041fa <.Lpcrel_hi413>:
800041fa: 00004517     	auipc	a0, 0x4
800041fe: 6a650513     	addi	a0, a0, 0x6a6
80004202: 00003097     	auipc	ra, 0x3
80004206: ab6080e7     	jalr	-0x54a(ra) <core::panicking::panic_null_pointer_dereference::hbac6411af4f2e916>

000000008000420a <.Lpcrel_hi414>:
8000420a: 0000b517     	auipc	a0, 0xb
8000420e: df650513     	addi	a0, a0, -0x20a
80004212: e911         	bnez	a0, 0x80004226 <.Lpcrel_hi415+0x10>
80004214: a035         	j	0x80004240 <.Lpcrel_hi417>

0000000080004216 <.Lpcrel_hi415>:
80004216: 00004517     	auipc	a0, 0x4
8000421a: 68a50513     	addi	a0, a0, 0x68a
8000421e: 00003097     	auipc	ra, 0x3
80004222: 9b6080e7     	jalr	-0x64a(ra) <core::panicking::panic_const::panic_const_add_overflow::h67cba067093910f8>
80004226: 6522         	ld	a0, 0x8(sp)
80004228: 65c2         	ld	a1, 0x10(sp)
8000422a: 00359613     	slli	a2, a1, 0x3

000000008000422e <.Lpcrel_hi416>:
8000422e: 0000b597     	auipc	a1, 0xb
80004232: dd258593     	addi	a1, a1, -0x22e
80004236: 95b2         	add	a1, a1, a2
80004238: e188         	sd	a0, 0x0(a1)
8000423a: 70a2         	ld	ra, 0x28(sp)
8000423c: 6145         	addi	sp, sp, 0x30
8000423e: 8082         	ret

0000000080004240 <.Lpcrel_hi417>:
80004240: 00004517     	auipc	a0, 0x4
80004244: 66050513     	addi	a0, a0, 0x660
80004248: 00003097     	auipc	ra, 0x3
8000424c: a70080e7     	jalr	-0x590(ra) <core::panicking::panic_null_pointer_dereference::hbac6411af4f2e916>

0000000080004250 <lab4_kernel_task3::delegate_user_exceptions_to_supervisor::hefc9fa7fe3ef041b>:
80004250: 6529         	lui	a0, 0xa
80004252: 10050513     	addi	a0, a0, 0x100
80004256: 30251073     	csrw	medeleg, a0
8000425a: 8082         	ret

000000008000425c <lab4_kernel_task3::do_fork::h42a5eee9779c0394>:
8000425c: 7141         	addi	sp, sp, -0x1f0
8000425e: f786         	sd	ra, 0x1e8(sp)
80004260: f3a2         	sd	s0, 0x1e0(sp)
80004262: 1b80         	addi	s0, sp, 0x1f0
80004264: 6519         	lui	a0, 0x6
80004266: e1050513     	addi	a0, a0, -0x1f0
8000426a: 40a10133     	sub	sp, sp, a0
8000426e: 00c15513     	srli	a0, sp, 0xc
80004272: 00c51113     	slli	sp, a0, 0xc
80004276: 6515         	lui	a0, 0x5
80004278: e1050513     	addi	a0, a0, -0x1f0
8000427c: 950a         	add	a0, a0, sp
8000427e: 6585         	lui	a1, 0x1
80004280: 958a         	add	a1, a1, sp
80004282: fca5bc23     	sd	a0, -0x28(a1)
80004286: 00401537     	lui	a0, 0x401
8000428a: ffffd097     	auipc	ra, 0xffffd
8000428e: ae6080e7     	jalr	-0x51a(ra) <lab4_kernel_task3::vpn0_index::hb3d9a13406bd3e5b>
80004292: 85aa         	mv	a1, a0
80004294: 852e         	mv	a0, a1
80004296: 6605         	lui	a2, 0x1
80004298: 960a         	add	a2, a2, sp
8000429a: fea63023     	sd	a0, -0x20(a2)
8000429e: 1ff00513     	li	a0, 0x1ff
800042a2: 00b56a63     	bltu	a0, a1, 0x800042b6 <.Lpcrel_hi418+0xe>
800042a6: a009         	j	0x800042a8 <.Lpcrel_hi418>

00000000800042a8 <.Lpcrel_hi418>:
800042a8: 00014517     	auipc	a0, 0x14
800042ac: d5850513     	addi	a0, a0, -0x2a8
800042b0: 1552         	slli	a0, a0, 0x34
800042b2: c105         	beqz	a0, 0x800042d2 <.Lpcrel_hi420>
800042b4: a02d         	j	0x800042de <.Lpcrel_hi421>
800042b6: 6505         	lui	a0, 0x1
800042b8: 950a         	add	a0, a0, sp
800042ba: fe053503     	ld	a0, -0x20(a0)

00000000800042be <.Lpcrel_hi419>:
800042be: 00004597     	auipc	a1, 0x4
800042c2: 5fa58613     	addi	a2, a1, 0x5fa
800042c6: 20000593     	li	a1, 0x200
800042ca: 00003097     	auipc	ra, 0x3
800042ce: 982080e7     	jalr	-0x67e(ra) <core::panicking::panic_bounds_check::h6aaee0d15e0261eb>

00000000800042d2 <.Lpcrel_hi420>:
800042d2: 00014517     	auipc	a0, 0x14
800042d6: d2e50513     	addi	a0, a0, -0x2d2
800042da: ed19         	bnez	a0, 0x800042f8 <.Lpcrel_hi422+0x12>
800042dc: a8b1         	j	0x80004338 <.Lpcrel_hi425>

00000000800042de <.Lpcrel_hi421>:
800042de: 00014517     	auipc	a0, 0x14
800042e2: d2250593     	addi	a1, a0, -0x2de

00000000800042e6 <.Lpcrel_hi422>:
800042e6: 00004517     	auipc	a0, 0x4
800042ea: 5d250613     	addi	a2, a0, 0x5d2
800042ee: 6505         	lui	a0, 0x1
800042f0: 00003097     	auipc	ra, 0x3
800042f4: 9e8080e7     	jalr	-0x618(ra) <core::panicking::panic_misaligned_pointer_dereference::hda85f7fb51d959f0>
800042f8: 6505         	lui	a0, 0x1
800042fa: 950a         	add	a0, a0, sp
800042fc: fd853583     	ld	a1, -0x28(a0)
80004300: 6505         	lui	a0, 0x1
80004302: 950a         	add	a0, a0, sp
80004304: fe053503     	ld	a0, -0x20(a0)
80004308: 00351613     	slli	a2, a0, 0x3

000000008000430c <.Lpcrel_hi423>:
8000430c: 00014517     	auipc	a0, 0x14
80004310: cf450513     	addi	a0, a0, -0x30c
80004314: 9532         	add	a0, a0, a2
80004316: 6108         	ld	a0, 0x0(a0)
80004318: 1ea5b023     	sd	a0, 0x1e0(a1)
8000431c: 00001097     	auipc	ra, 0x1
80004320: c84080e7     	jalr	-0x37c(ra) <lab4_kernel_task3::pte_to_pa::h5acd02dcfb8b5338>
80004324: 6585         	lui	a1, 0x1
80004326: 958a         	add	a1, a1, sp
80004328: fea5b423     	sd	a0, -0x18(a1)

000000008000432c <.Lpcrel_hi424>:
8000432c: 00017517     	auipc	a0, 0x17
80004330: cd450513     	addi	a0, a0, -0x32c
80004334: e911         	bnez	a0, 0x80004348 <.Lpcrel_hi426>
80004336: a0a9         	j	0x80004380 <.Lpcrel_hi428>

0000000080004338 <.Lpcrel_hi425>:
80004338: 00004517     	auipc	a0, 0x4
8000433c: 58050513     	addi	a0, a0, 0x580
80004340: 00003097     	auipc	ra, 0x3
80004344: 978080e7     	jalr	-0x688(ra) <core::panicking::panic_null_pointer_dereference::hbac6411af4f2e916>

0000000080004348 <.Lpcrel_hi426>:
80004348: 00017517     	auipc	a0, 0x17
8000434c: cb850513     	addi	a0, a0, -0x348
80004350: 6108         	ld	a0, 0x0(a0)
80004352: 6585         	lui	a1, 0x1
80004354: 958a         	add	a1, a1, sp
80004356: fea5b823     	sd	a0, -0x10(a1)
8000435a: 6505         	lui	a0, 0x1
8000435c: 950a         	add	a0, a0, sp
8000435e: fe853503     	ld	a0, -0x18(a0)
80004362: fffff097     	auipc	ra, 0xfffff
80004366: 8b8080e7     	jalr	-0x748(ra) <lab4_kernel_task3::data_page_refcount::hb6e760d9cb0a8983>
8000436a: 6585         	lui	a1, 0x1
8000436c: 958a         	add	a1, a1, sp
8000436e: fea5bc23     	sd	a0, -0x8(a1)

0000000080004372 <.Lpcrel_hi427>:
80004372: 0000e517     	auipc	a0, 0xe
80004376: c8e50513     	addi	a0, a0, -0x372
8000437a: 1552         	slli	a0, a0, 0x34
8000437c: c911         	beqz	a0, 0x80004390 <.Lpcrel_hi429>
8000437e: a839         	j	0x8000439c <.Lpcrel_hi430>

0000000080004380 <.Lpcrel_hi428>:
80004380: 00004517     	auipc	a0, 0x4
80004384: 55050513     	addi	a0, a0, 0x550
80004388: 00003097     	auipc	ra, 0x3
8000438c: 930080e7     	jalr	-0x6d0(ra) <core::panicking::panic_null_pointer_dereference::hbac6411af4f2e916>

0000000080004390 <.Lpcrel_hi429>:
80004390: 0000e517     	auipc	a0, 0xe
80004394: c7050513     	addi	a0, a0, -0x390
80004398: ed19         	bnez	a0, 0x800043b6 <.Lpcrel_hi432>
8000439a: a0a1         	j	0x800043e2 <.Lpcrel_hi433>

000000008000439c <.Lpcrel_hi430>:
8000439c: 0000e517     	auipc	a0, 0xe
800043a0: c6450593     	addi	a1, a0, -0x39c

00000000800043a4 <.Lpcrel_hi431>:
800043a4: 00004517     	auipc	a0, 0x4
800043a8: 54450613     	addi	a2, a0, 0x544
800043ac: 6505         	lui	a0, 0x1
800043ae: 00003097     	auipc	ra, 0x3
800043b2: 92a080e7     	jalr	-0x6d6(ra) <core::panicking::panic_misaligned_pointer_dereference::hda85f7fb51d959f0>

00000000800043b6 <.Lpcrel_hi432>:
800043b6: 0000e517     	auipc	a0, 0xe
800043ba: c4a50593     	addi	a1, a0, -0x3b6
800043be: 6505         	lui	a0, 0x1
800043c0: 950a         	add	a0, a0, sp
800043c2: fcb53823     	sd	a1, -0x30(a0)
800043c6: 6505         	lui	a0, 0x1
800043c8: 950a         	add	a0, a0, sp
800043ca: 6605         	lui	a2, 0x1
800043cc: 00003097     	auipc	ra, 0x3
800043d0: ab6080e7     	jalr	-0x54a(ra) <memcpy>
800043d4: 6505         	lui	a0, 0x1
800043d6: 950a         	add	a0, a0, sp
800043d8: fd053503     	ld	a0, -0x30(a0)
800043dc: 1552         	slli	a0, a0, 0x34
800043de: c911         	beqz	a0, 0x800043f2 <.Lpcrel_hi434>
800043e0: a839         	j	0x800043fe <.Lpcrel_hi435>

00000000800043e2 <.Lpcrel_hi433>:
800043e2: 00004517     	auipc	a0, 0x4
800043e6: 50650513     	addi	a0, a0, 0x506
800043ea: 00003097     	auipc	ra, 0x3
800043ee: 8ce080e7     	jalr	-0x732(ra) <core::panicking::panic_null_pointer_dereference::hbac6411af4f2e916>

00000000800043f2 <.Lpcrel_hi434>:
800043f2: 0000e517     	auipc	a0, 0xe
800043f6: c0e50513     	addi	a0, a0, -0x3f2
800043fa: ed19         	bnez	a0, 0x80004418 <.Lpcrel_hi437>
800043fc: a089         	j	0x8000443e <.Lpcrel_hi439>

00000000800043fe <.Lpcrel_hi435>:
800043fe: 0000e517     	auipc	a0, 0xe
80004402: c0250593     	addi	a1, a0, -0x3fe

0000000080004406 <.Lpcrel_hi436>:
80004406: 00004517     	auipc	a0, 0x4
8000440a: 4fa50613     	addi	a2, a0, 0x4fa
8000440e: 6505         	lui	a0, 0x1
80004410: 00003097     	auipc	ra, 0x3
80004414: 8c8080e7     	jalr	-0x738(ra) <core::panicking::panic_misaligned_pointer_dereference::hda85f7fb51d959f0>

0000000080004418 <.Lpcrel_hi437>:
80004418: 0000e517     	auipc	a0, 0xe
8000441c: be850513     	addi	a0, a0, -0x418
80004420: 6605         	lui	a2, 0x1
80004422: 9532         	add	a0, a0, a2
80004424: 6585         	lui	a1, 0x1
80004426: 958a         	add	a1, a1, sp
80004428: 00003097     	auipc	ra, 0x3
8000442c: a5a080e7     	jalr	-0x5a6(ra) <memcpy>

0000000080004430 <.Lpcrel_hi438>:
80004430: 00011517     	auipc	a0, 0x11
80004434: bd050513     	addi	a0, a0, -0x430
80004438: 1552         	slli	a0, a0, 0x34
8000443a: c911         	beqz	a0, 0x8000444e <.Lpcrel_hi440>
8000443c: a839         	j	0x8000445a <.Lpcrel_hi441>

000000008000443e <.Lpcrel_hi439>:
8000443e: 00004517     	auipc	a0, 0x4
80004442: 4c250513     	addi	a0, a0, 0x4c2
80004446: 00003097     	auipc	ra, 0x3
8000444a: 872080e7     	jalr	-0x78e(ra) <core::panicking::panic_null_pointer_dereference::hbac6411af4f2e916>

000000008000444e <.Lpcrel_hi440>:
8000444e: 00011517     	auipc	a0, 0x11
80004452: bb250513     	addi	a0, a0, -0x44e
80004456: ed19         	bnez	a0, 0x80004474 <.Lpcrel_hi443>
80004458: a0a1         	j	0x800044a0 <.Lpcrel_hi444>

000000008000445a <.Lpcrel_hi441>:
8000445a: 00011517     	auipc	a0, 0x11
8000445e: ba650593     	addi	a1, a0, -0x45a

0000000080004462 <.Lpcrel_hi442>:
80004462: 00004517     	auipc	a0, 0x4
80004466: 4b650613     	addi	a2, a0, 0x4b6
8000446a: 6505         	lui	a0, 0x1
8000446c: 00003097     	auipc	ra, 0x3
80004470: 86c080e7     	jalr	-0x794(ra) <core::panicking::panic_misaligned_pointer_dereference::hda85f7fb51d959f0>

0000000080004474 <.Lpcrel_hi443>:
80004474: 00011517     	auipc	a0, 0x11
80004478: b8c50593     	addi	a1, a0, -0x474
8000447c: 6505         	lui	a0, 0x1
8000447e: 950a         	add	a0, a0, sp
80004480: fcb53423     	sd	a1, -0x38(a0)
80004484: 6509         	lui	a0, 0x2
80004486: 950a         	add	a0, a0, sp
80004488: 6605         	lui	a2, 0x1
8000448a: 00003097     	auipc	ra, 0x3
8000448e: 9f8080e7     	jalr	-0x608(ra) <memcpy>
80004492: 6505         	lui	a0, 0x1
80004494: 950a         	add	a0, a0, sp
80004496: fc853503     	ld	a0, -0x38(a0)
8000449a: 1552         	slli	a0, a0, 0x34
8000449c: c911         	beqz	a0, 0x800044b0 <.Lpcrel_hi445>
8000449e: a839         	j	0x800044bc <.Lpcrel_hi446>

00000000800044a0 <.Lpcrel_hi444>:
800044a0: 00004517     	auipc	a0, 0x4
800044a4: 47850513     	addi	a0, a0, 0x478
800044a8: 00003097     	auipc	ra, 0x3
800044ac: 810080e7     	jalr	-0x7f0(ra) <core::panicking::panic_null_pointer_dereference::hbac6411af4f2e916>

00000000800044b0 <.Lpcrel_hi445>:
800044b0: 00011517     	auipc	a0, 0x11
800044b4: b5050513     	addi	a0, a0, -0x4b0
800044b8: ed19         	bnez	a0, 0x800044d6 <.Lpcrel_hi448>
800044ba: a089         	j	0x800044fc <.Lpcrel_hi450>

00000000800044bc <.Lpcrel_hi446>:
800044bc: 00011517     	auipc	a0, 0x11
800044c0: b4450593     	addi	a1, a0, -0x4bc

00000000800044c4 <.Lpcrel_hi447>:
800044c4: 00004517     	auipc	a0, 0x4
800044c8: 46c50613     	addi	a2, a0, 0x46c
800044cc: 6505         	lui	a0, 0x1
800044ce: 00003097     	auipc	ra, 0x3
800044d2: 80a080e7     	jalr	-0x7f6(ra) <core::panicking::panic_misaligned_pointer_dereference::hda85f7fb51d959f0>

00000000800044d6 <.Lpcrel_hi448>:
800044d6: 00011517     	auipc	a0, 0x11
800044da: b2a50513     	addi	a0, a0, -0x4d6
800044de: 6605         	lui	a2, 0x1
800044e0: 9532         	add	a0, a0, a2
800044e2: 6589         	lui	a1, 0x2
800044e4: 958a         	add	a1, a1, sp
800044e6: 00003097     	auipc	ra, 0x3
800044ea: 99c080e7     	jalr	-0x664(ra) <memcpy>

00000000800044ee <.Lpcrel_hi449>:
800044ee: 00014517     	auipc	a0, 0x14
800044f2: b1250513     	addi	a0, a0, -0x4ee
800044f6: 1552         	slli	a0, a0, 0x34
800044f8: c911         	beqz	a0, 0x8000450c <.Lpcrel_hi451>
800044fa: a839         	j	0x80004518 <.Lpcrel_hi452>

00000000800044fc <.Lpcrel_hi450>:
800044fc: 00004517     	auipc	a0, 0x4
80004500: 43450513     	addi	a0, a0, 0x434
80004504: 00002097     	auipc	ra, 0x2
80004508: 7b4080e7     	jalr	0x7b4(ra) <core::panicking::panic_null_pointer_dereference::hbac6411af4f2e916>

000000008000450c <.Lpcrel_hi451>:
8000450c: 00014517     	auipc	a0, 0x14
80004510: af450513     	addi	a0, a0, -0x50c
80004514: ed19         	bnez	a0, 0x80004532 <.Lpcrel_hi454>
80004516: a0a1         	j	0x8000455e <.Lpcrel_hi455>

0000000080004518 <.Lpcrel_hi452>:
80004518: 00014517     	auipc	a0, 0x14
8000451c: ae850593     	addi	a1, a0, -0x518

0000000080004520 <.Lpcrel_hi453>:
80004520: 00004517     	auipc	a0, 0x4
80004524: 42850613     	addi	a2, a0, 0x428
80004528: 6505         	lui	a0, 0x1
8000452a: 00002097     	auipc	ra, 0x2
8000452e: 7ae080e7     	jalr	0x7ae(ra) <core::panicking::panic_misaligned_pointer_dereference::hda85f7fb51d959f0>

0000000080004532 <.Lpcrel_hi454>:
80004532: 00014517     	auipc	a0, 0x14
80004536: ace50593     	addi	a1, a0, -0x532
8000453a: 6505         	lui	a0, 0x1
8000453c: 950a         	add	a0, a0, sp
8000453e: fcb53023     	sd	a1, -0x40(a0)
80004542: 650d         	lui	a0, 0x3
80004544: 950a         	add	a0, a0, sp
80004546: 6605         	lui	a2, 0x1
80004548: 00003097     	auipc	ra, 0x3
8000454c: 93a080e7     	jalr	-0x6c6(ra) <memcpy>
80004550: 6505         	lui	a0, 0x1
80004552: 950a         	add	a0, a0, sp
80004554: fc053503     	ld	a0, -0x40(a0)
80004558: 1552         	slli	a0, a0, 0x34
8000455a: c911         	beqz	a0, 0x8000456e <.Lpcrel_hi456>
8000455c: a839         	j	0x8000457a <.Lpcrel_hi457>

000000008000455e <.Lpcrel_hi455>:
8000455e: 00004517     	auipc	a0, 0x4
80004562: 3ea50513     	addi	a0, a0, 0x3ea
80004566: 00002097     	auipc	ra, 0x2
8000456a: 752080e7     	jalr	0x752(ra) <core::panicking::panic_null_pointer_dereference::hbac6411af4f2e916>

000000008000456e <.Lpcrel_hi456>:
8000456e: 00014517     	auipc	a0, 0x14
80004572: a9250513     	addi	a0, a0, -0x56e
80004576: ed19         	bnez	a0, 0x80004594 <.Lpcrel_hi459>
80004578: a0bd         	j	0x800045e6 <.Lpcrel_hi460>

000000008000457a <.Lpcrel_hi457>:
8000457a: 00014517     	auipc	a0, 0x14
8000457e: a8650593     	addi	a1, a0, -0x57a

0000000080004582 <.Lpcrel_hi458>:
80004582: 00004517     	auipc	a0, 0x4
80004586: 3de50613     	addi	a2, a0, 0x3de
8000458a: 6505         	lui	a0, 0x1
8000458c: 00002097     	auipc	ra, 0x2
80004590: 74c080e7     	jalr	0x74c(ra) <core::panicking::panic_misaligned_pointer_dereference::hda85f7fb51d959f0>

0000000080004594 <.Lpcrel_hi459>:
80004594: 00014517     	auipc	a0, 0x14
80004598: a6c50513     	addi	a0, a0, -0x594
8000459c: 6605         	lui	a2, 0x1
8000459e: 9532         	add	a0, a0, a2
800045a0: 658d         	lui	a1, 0x3
800045a2: 958a         	add	a1, a1, sp
800045a4: 00003097     	auipc	ra, 0x3
800045a8: 8de080e7     	jalr	-0x722(ra) <memcpy>
800045ac: 4505         	li	a0, 0x1
800045ae: fffff097     	auipc	ra, 0xfffff
800045b2: c68080e7     	jalr	-0x398(ra) <lab4_kernel_task3::proc_low_l1_table_pa::h31199dd75bf7b0ca>
800045b6: 00001097     	auipc	ra, 0x1
800045ba: a3e080e7     	jalr	-0x5c2(ra) <lab4_kernel_task3::table_pte::h0bc0e32cb79463bf>
800045be: 6585         	lui	a1, 0x1
800045c0: 958a         	add	a1, a1, sp
800045c2: faa5b823     	sd	a0, -0x50(a1)
800045c6: 00400537     	lui	a0, 0x400
800045ca: ffffc097     	auipc	ra, 0xffffc
800045ce: 7be080e7     	jalr	0x7be(ra) <lab4_kernel_task3::vpn2_index::hd344ee0f6277009a>
800045d2: 85aa         	mv	a1, a0
800045d4: 6605         	lui	a2, 0x1
800045d6: 960a         	add	a2, a2, sp
800045d8: fab63c23     	sd	a1, -0x48(a2)
800045dc: 20000593     	li	a1, 0x200
800045e0: 00b56b63     	bltu	a0, a1, 0x800045f6 <.Lpcrel_hi461>
800045e4: a005         	j	0x80004604 <.Lpcrel_hi461+0xe>

00000000800045e6 <.Lpcrel_hi460>:
800045e6: 00004517     	auipc	a0, 0x4
800045ea: 37a50513     	addi	a0, a0, 0x37a
800045ee: 00002097     	auipc	ra, 0x2
800045f2: 6ca080e7     	jalr	0x6ca(ra) <core::panicking::panic_null_pointer_dereference::hbac6411af4f2e916>

00000000800045f6 <.Lpcrel_hi461>:
800045f6: 0000e517     	auipc	a0, 0xe
800045fa: a0a50513     	addi	a0, a0, -0x5f6
800045fe: 1552         	slli	a0, a0, 0x34
80004600: c105         	beqz	a0, 0x80004620 <.Lpcrel_hi463>
80004602: a02d         	j	0x8000462c <.Lpcrel_hi464>
80004604: 6505         	lui	a0, 0x1
80004606: 950a         	add	a0, a0, sp
80004608: fb853503     	ld	a0, -0x48(a0)

000000008000460c <.Lpcrel_hi462>:
8000460c: 00004597     	auipc	a1, 0x4
80004610: 36c58613     	addi	a2, a1, 0x36c
80004614: 20000593     	li	a1, 0x200
80004618: 00002097     	auipc	ra, 0x2
8000461c: 634080e7     	jalr	0x634(ra) <core::panicking::panic_bounds_check::h6aaee0d15e0261eb>

0000000080004620 <.Lpcrel_hi463>:
80004620: 0000e517     	auipc	a0, 0xe
80004624: 9e050513     	addi	a0, a0, -0x620
80004628: ed19         	bnez	a0, 0x80004646 <.Lpcrel_hi465+0x12>
8000462a: a8ad         	j	0x800046a4 <.Lpcrel_hi467>

000000008000462c <.Lpcrel_hi464>:
8000462c: 0000e517     	auipc	a0, 0xe
80004630: 9d450593     	addi	a1, a0, -0x62c

0000000080004634 <.Lpcrel_hi465>:
80004634: 00004517     	auipc	a0, 0x4
80004638: 34450613     	addi	a2, a0, 0x344
8000463c: 6505         	lui	a0, 0x1
8000463e: 00002097     	auipc	ra, 0x2
80004642: 69a080e7     	jalr	0x69a(ra) <core::panicking::panic_misaligned_pointer_dereference::hda85f7fb51d959f0>
80004646: 6505         	lui	a0, 0x1
80004648: 950a         	add	a0, a0, sp
8000464a: fb053503     	ld	a0, -0x50(a0)
8000464e: 6585         	lui	a1, 0x1
80004650: 958a         	add	a1, a1, sp
80004652: fb85b583     	ld	a1, -0x48(a1)
80004656: 00359613     	slli	a2, a1, 0x3

000000008000465a <.Lpcrel_hi466>:
8000465a: 0000e597     	auipc	a1, 0xe
8000465e: 9a658593     	addi	a1, a1, -0x65a
80004662: 95b2         	add	a1, a1, a2
80004664: 6605         	lui	a2, 0x1
80004666: 95b2         	add	a1, a1, a2
80004668: e188         	sd	a0, 0x0(a1)
8000466a: 4505         	li	a0, 0x1
8000466c: fffff097     	auipc	ra, 0xfffff
80004670: fa8080e7     	jalr	-0x58(ra) <lab4_kernel_task3::proc_user_l0_table_pa::h071b0a3ca5404136>
80004674: 00001097     	auipc	ra, 0x1
80004678: 980080e7     	jalr	-0x680(ra) <lab4_kernel_task3::table_pte::h0bc0e32cb79463bf>
8000467c: 6585         	lui	a1, 0x1
8000467e: 958a         	add	a1, a1, sp
80004680: faa5b023     	sd	a0, -0x60(a1)
80004684: 00400537     	lui	a0, 0x400
80004688: ffffc097     	auipc	ra, 0xffffc
8000468c: 6f4080e7     	jalr	0x6f4(ra) <lab4_kernel_task3::vpn1_index::h600273506eb14c53>
80004690: 85aa         	mv	a1, a0
80004692: 6605         	lui	a2, 0x1
80004694: 960a         	add	a2, a2, sp
80004696: fab63423     	sd	a1, -0x58(a2)
8000469a: 20000593     	li	a1, 0x200
8000469e: 00b56b63     	bltu	a0, a1, 0x800046b4 <.Lpcrel_hi468>
800046a2: a005         	j	0x800046c2 <.Lpcrel_hi468+0xe>

00000000800046a4 <.Lpcrel_hi467>:
800046a4: 00004517     	auipc	a0, 0x4
800046a8: 2d450513     	addi	a0, a0, 0x2d4
800046ac: 00002097     	auipc	ra, 0x2
800046b0: 60c080e7     	jalr	0x60c(ra) <core::panicking::panic_null_pointer_dereference::hbac6411af4f2e916>

00000000800046b4 <.Lpcrel_hi468>:
800046b4: 00011517     	auipc	a0, 0x11
800046b8: 94c50513     	addi	a0, a0, -0x6b4
800046bc: 1552         	slli	a0, a0, 0x34
800046be: c105         	beqz	a0, 0x800046de <.Lpcrel_hi470>
800046c0: a02d         	j	0x800046ea <.Lpcrel_hi471>
800046c2: 6505         	lui	a0, 0x1
800046c4: 950a         	add	a0, a0, sp
800046c6: fa853503     	ld	a0, -0x58(a0)

00000000800046ca <.Lpcrel_hi469>:
800046ca: 00004597     	auipc	a1, 0x4
800046ce: 2c658613     	addi	a2, a1, 0x2c6
800046d2: 20000593     	li	a1, 0x200
800046d6: 00002097     	auipc	ra, 0x2
800046da: 576080e7     	jalr	0x576(ra) <core::panicking::panic_bounds_check::h6aaee0d15e0261eb>

00000000800046de <.Lpcrel_hi470>:
800046de: 00011517     	auipc	a0, 0x11
800046e2: 92250513     	addi	a0, a0, -0x6de
800046e6: ed19         	bnez	a0, 0x80004704 <.Lpcrel_hi472+0x12>
800046e8: a879         	j	0x80004786 <.Lpcrel_hi475>

00000000800046ea <.Lpcrel_hi471>:
800046ea: 00011517     	auipc	a0, 0x11
800046ee: 91650593     	addi	a1, a0, -0x6ea

00000000800046f2 <.Lpcrel_hi472>:
800046f2: 00004517     	auipc	a0, 0x4
800046f6: 29e50613     	addi	a2, a0, 0x29e
800046fa: 6505         	lui	a0, 0x1
800046fc: 00002097     	auipc	ra, 0x2
80004700: 5dc080e7     	jalr	0x5dc(ra) <core::panicking::panic_misaligned_pointer_dereference::hda85f7fb51d959f0>
80004704: 6505         	lui	a0, 0x1
80004706: 950a         	add	a0, a0, sp
80004708: fa053503     	ld	a0, -0x60(a0)
8000470c: 6585         	lui	a1, 0x1
8000470e: 958a         	add	a1, a1, sp
80004710: fa85b583     	ld	a1, -0x58(a1)
80004714: 00359613     	slli	a2, a1, 0x3

0000000080004718 <.Lpcrel_hi473>:
80004718: 00011597     	auipc	a1, 0x11
8000471c: 8e858593     	addi	a1, a1, -0x718
80004720: 95b2         	add	a1, a1, a2
80004722: 6605         	lui	a2, 0x1
80004724: 95b2         	add	a1, a1, a2
80004726: e188         	sd	a0, 0x0(a1)
80004728: 6505         	lui	a0, 0x1
8000472a: 950a         	add	a0, a0, sp
8000472c: fe853503     	ld	a0, -0x18(a0)
80004730: ffffc097     	auipc	ra, 0xffffc
80004734: 6dc080e7     	jalr	0x6dc(ra) <lab4_kernel_task3::make_cow_pte::ha691fdab8e7447f8>
80004738: 85aa         	mv	a1, a0
8000473a: 6505         	lui	a0, 0x1
8000473c: 950a         	add	a0, a0, sp
8000473e: fd853503     	ld	a0, -0x28(a0)
80004742: 6605         	lui	a2, 0x1
80004744: 960a         	add	a2, a2, sp
80004746: f8b63c23     	sd	a1, -0x68(a2)
8000474a: 1eb53423     	sd	a1, 0x1e8(a0)
8000474e: 4501         	li	a0, 0x0
80004750: ffffd097     	auipc	ra, 0xffffd
80004754: 050080e7     	jalr	0x50(ra) <lab4_kernel_task3::install_data_pte::h73217dbd5c0aff42>
80004758: 6505         	lui	a0, 0x1
8000475a: 950a         	add	a0, a0, sp
8000475c: f9853583     	ld	a1, -0x68(a0)
80004760: 4505         	li	a0, 0x1
80004762: ffffd097     	auipc	ra, 0xffffd
80004766: 03e080e7     	jalr	0x3e(ra) <lab4_kernel_task3::install_data_pte::h73217dbd5c0aff42>
8000476a: 6505         	lui	a0, 0x1
8000476c: 950a         	add	a0, a0, sp
8000476e: fe853503     	ld	a0, -0x18(a0)
80004772: 00000097     	auipc	ra, 0x0
80004776: a2c080e7     	jalr	-0x5d4(ra) <lab4_kernel_task3::increment_data_page_refcount::h7b20a991961923a1>

000000008000477a <.Lpcrel_hi474>:
8000477a: 00006517     	auipc	a0, 0x6
8000477e: 8ce50513     	addi	a0, a0, -0x732
80004782: e911         	bnez	a0, 0x80004796 <.Lpcrel_hi476>
80004784: a0b1         	j	0x800047d0 <.Lpcrel_hi477>

0000000080004786 <.Lpcrel_hi475>:
80004786: 00004517     	auipc	a0, 0x4
8000478a: 20a50513     	addi	a0, a0, 0x20a
8000478e: 00002097     	auipc	ra, 0x2
80004792: 52a080e7     	jalr	0x52a(ra) <core::panicking::panic_null_pointer_dereference::hbac6411af4f2e916>

0000000080004796 <.Lpcrel_hi476>:
80004796: 00006517     	auipc	a0, 0x6
8000479a: 8b250593     	addi	a1, a0, -0x74e
8000479e: 6505         	lui	a0, 0x1
800047a0: 950a         	add	a0, a0, sp
800047a2: f8b53423     	sd	a1, -0x78(a0)
800047a6: 4505         	li	a0, 0x1
800047a8: ed88         	sd	a0, 0x18(a1)
800047aa: fffff097     	auipc	ra, 0xfffff
800047ae: 98e080e7     	jalr	-0x672(ra) <lab4_kernel_task3::proc_root_table_pa::h28443d1d2818f10a>
800047b2: ffffd097     	auipc	ra, 0xffffd
800047b6: d8e080e7     	jalr	-0x272(ra) <lab4_kernel_task3::satp_for_root::h1e790bb499ccb8c3>
800047ba: 85aa         	mv	a1, a0
800047bc: 6505         	lui	a0, 0x1
800047be: 950a         	add	a0, a0, sp
800047c0: f8853503     	ld	a0, -0x78(a0)
800047c4: 6605         	lui	a2, 0x1
800047c6: 960a         	add	a2, a2, sp
800047c8: f8b63823     	sd	a1, -0x70(a2)
800047cc: e911         	bnez	a0, 0x800047e0 <.Lpcrel_hi477+0x10>
800047ce: a025         	j	0x800047f6 <.Lpcrel_hi479>

00000000800047d0 <.Lpcrel_hi477>:
800047d0: 00004517     	auipc	a0, 0x4
800047d4: 1d850513     	addi	a0, a0, 0x1d8
800047d8: 00002097     	auipc	ra, 0x2
800047dc: 4e0080e7     	jalr	0x4e0(ra) <core::panicking::panic_null_pointer_dereference::hbac6411af4f2e916>
800047e0: 6505         	lui	a0, 0x1
800047e2: 950a         	add	a0, a0, sp
800047e4: f9053583     	ld	a1, -0x70(a0)

00000000800047e8 <.Lpcrel_hi478>:
800047e8: 00006517     	auipc	a0, 0x6
800047ec: 86050513     	addi	a0, a0, -0x7a0
800047f0: f10c         	sd	a1, 0x20(a0)
800047f2: e911         	bnez	a0, 0x80004806 <.Lpcrel_hi480>
800047f4: a82d         	j	0x8000482e <.Lpcrel_hi482>

00000000800047f6 <.Lpcrel_hi479>:
800047f6: 00004517     	auipc	a0, 0x4
800047fa: 1ca50513     	addi	a0, a0, 0x1ca
800047fe: 00002097     	auipc	ra, 0x2
80004802: 4ba080e7     	jalr	0x4ba(ra) <core::panicking::panic_null_pointer_dereference::hbac6411af4f2e916>

0000000080004806 <.Lpcrel_hi480>:
80004806: 00006517     	auipc	a0, 0x6
8000480a: 84250593     	addi	a1, a0, -0x7be
8000480e: 4501         	li	a0, 0x0
80004810: f588         	sd	a0, 0x28(a1)
80004812: 6515         	lui	a0, 0x5
80004814: df850513     	addi	a0, a0, -0x208
80004818: 950a         	add	a0, a0, sp
8000481a: ffffc097     	auipc	ra, 0xffffc
8000481e: 614080e7     	jalr	0x614(ra) <lab4_kernel_task3::ProcessReport::empty::h3eb203d13d09d34c>

0000000080004822 <.Lpcrel_hi481>:
80004822: 0000c517     	auipc	a0, 0xc
80004826: 7de50513     	addi	a0, a0, 0x7de
8000482a: e911         	bnez	a0, 0x8000483e <.Lpcrel_hi482+0x10>
8000482c: a091         	j	0x80004870 <.Lpcrel_hi485>

000000008000482e <.Lpcrel_hi482>:
8000482e: 00004517     	auipc	a0, 0x4
80004832: 1aa50513     	addi	a0, a0, 0x1aa
80004836: 00002097     	auipc	ra, 0x2
8000483a: 482080e7     	jalr	0x482(ra) <core::panicking::panic_null_pointer_dereference::hbac6411af4f2e916>
8000483e: 6505         	lui	a0, 0x1
80004840: 950a         	add	a0, a0, sp
80004842: fd853503     	ld	a0, -0x28(a0)

0000000080004846 <.Lpcrel_hi483>:
80004846: 0000c597     	auipc	a1, 0xc
8000484a: 7ba58593     	addi	a1, a1, 0x7ba
8000484e: 6110         	ld	a2, 0x0(a0)
80004850: fd90         	sd	a2, 0x38(a1)
80004852: ff853603     	ld	a2, -0x8(a0)
80004856: f990         	sd	a2, 0x30(a1)
80004858: ff053603     	ld	a2, -0x10(a0)
8000485c: f590         	sd	a2, 0x28(a1)
8000485e: fe853503     	ld	a0, -0x18(a0)
80004862: f188         	sd	a0, 0x20(a1)

0000000080004864 <.Lpcrel_hi484>:
80004864: 0000a517     	auipc	a0, 0xa
80004868: 7bc50513     	addi	a0, a0, 0x7bc
8000486c: e911         	bnez	a0, 0x80004880 <.Lpcrel_hi486>
8000486e: a089         	j	0x800048b0 <.Lpcrel_hi487>

0000000080004870 <.Lpcrel_hi485>:
80004870: 00004517     	auipc	a0, 0x4
80004874: 18050513     	addi	a0, a0, 0x180
80004878: 00002097     	auipc	ra, 0x2
8000487c: 440080e7     	jalr	0x440(ra) <core::panicking::panic_null_pointer_dereference::hbac6411af4f2e916>

0000000080004880 <.Lpcrel_hi486>:
80004880: 0000a517     	auipc	a0, 0xa
80004884: 7a050593     	addi	a1, a0, 0x7a0
80004888: 6505         	lui	a0, 0x1
8000488a: 950a         	add	a0, a0, sp
8000488c: f8b53023     	sd	a1, -0x80(a0)
80004890: 6515         	lui	a0, 0x5
80004892: e1850513     	addi	a0, a0, -0x1e8
80004896: 950a         	add	a0, a0, sp
80004898: 10000613     	li	a2, 0x100
8000489c: 00002097     	auipc	ra, 0x2
800048a0: 5e6080e7     	jalr	0x5e6(ra) <memcpy>
800048a4: 6505         	lui	a0, 0x1
800048a6: 950a         	add	a0, a0, sp
800048a8: f8053503     	ld	a0, -0x80(a0)
800048ac: e911         	bnez	a0, 0x800048c0 <.Lpcrel_hi488>
800048ae: a099         	j	0x800048f4 <.Lpcrel_hi489>

00000000800048b0 <.Lpcrel_hi487>:
800048b0: 00004517     	auipc	a0, 0x4
800048b4: 15850513     	addi	a0, a0, 0x158
800048b8: 00002097     	auipc	ra, 0x2
800048bc: 400080e7     	jalr	0x400(ra) <core::panicking::panic_null_pointer_dereference::hbac6411af4f2e916>

00000000800048c0 <.Lpcrel_hi488>:
800048c0: 0000a517     	auipc	a0, 0xa
800048c4: 76050513     	addi	a0, a0, 0x760
800048c8: 6585         	lui	a1, 0x1
800048ca: 958a         	add	a1, a1, sp
800048cc: f6a5bc23     	sd	a0, -0x88(a1)
800048d0: 10050513     	addi	a0, a0, 0x100
800048d4: 6595         	lui	a1, 0x5
800048d6: e1858593     	addi	a1, a1, -0x1e8
800048da: 958a         	add	a1, a1, sp
800048dc: 10000613     	li	a2, 0x100
800048e0: 00002097     	auipc	ra, 0x2
800048e4: 5a2080e7     	jalr	0x5a2(ra) <memcpy>
800048e8: 6505         	lui	a0, 0x1
800048ea: 950a         	add	a0, a0, sp
800048ec: f7853503     	ld	a0, -0x88(a0)
800048f0: e911         	bnez	a0, 0x80004904 <.Lpcrel_hi490>
800048f2: a015         	j	0x80004916 <.Lpcrel_hi491>

00000000800048f4 <.Lpcrel_hi489>:
800048f4: 00004517     	auipc	a0, 0x4
800048f8: 12c50513     	addi	a0, a0, 0x12c
800048fc: 00002097     	auipc	ra, 0x2
80004900: 3bc080e7     	jalr	0x3bc(ra) <core::panicking::panic_null_pointer_dereference::hbac6411af4f2e916>

0000000080004904 <.Lpcrel_hi490>:
80004904: 0000a517     	auipc	a0, 0xa
80004908: 71c50513     	addi	a0, a0, 0x71c
8000490c: 4581         	li	a1, 0x0
8000490e: 14b53023     	sd	a1, 0x140(a0)
80004912: e911         	bnez	a0, 0x80004926 <.Lpcrel_hi492>
80004914: a02d         	j	0x8000493e <.Lpcrel_hi494>

0000000080004916 <.Lpcrel_hi491>:
80004916: 00004517     	auipc	a0, 0x4
8000491a: 12250513     	addi	a0, a0, 0x122
8000491e: 00002097     	auipc	ra, 0x2
80004922: 39a080e7     	jalr	0x39a(ra) <core::panicking::panic_null_pointer_dereference::hbac6411af4f2e916>

0000000080004926 <.Lpcrel_hi492>:
80004926: 0000a517     	auipc	a0, 0xa
8000492a: 6fa50593     	addi	a1, a0, 0x6fa
8000492e: 4505         	li	a0, 0x1
80004930: e1a8         	sd	a0, 0x40(a1)

0000000080004932 <.Lpcrel_hi493>:
80004932: 00005517     	auipc	a0, 0x5
80004936: 6ce50513     	addi	a0, a0, 0x6ce
8000493a: e911         	bnez	a0, 0x8000494e <.Lpcrel_hi495>
8000493c: a03d         	j	0x8000496a <.Lpcrel_hi496>

000000008000493e <.Lpcrel_hi494>:
8000493e: 00004517     	auipc	a0, 0x4
80004942: 11250513     	addi	a0, a0, 0x112
80004946: 00002097     	auipc	ra, 0x2
8000494a: 372080e7     	jalr	0x372(ra) <core::panicking::panic_null_pointer_dereference::hbac6411af4f2e916>

000000008000494e <.Lpcrel_hi495>:
8000494e: 00005517     	auipc	a0, 0x5
80004952: 6b250513     	addi	a0, a0, 0x6b2
80004956: 610c         	ld	a1, 0x0(a0)
80004958: 00158513     	addi	a0, a1, 0x1
8000495c: 6605         	lui	a2, 0x1
8000495e: 960a         	add	a2, a2, sp
80004960: f6a63823     	sd	a0, -0x90(a2)
80004964: 02b56163     	bltu	a0, a1, 0x80004986 <.Lpcrel_hi498>
80004968: a809         	j	0x8000497a <.Lpcrel_hi497>

000000008000496a <.Lpcrel_hi496>:
8000496a: 00004517     	auipc	a0, 0x4
8000496e: 0fe50513     	addi	a0, a0, 0xfe
80004972: 00002097     	auipc	ra, 0x2
80004976: 346080e7     	jalr	0x346(ra) <core::panicking::panic_null_pointer_dereference::hbac6411af4f2e916>

000000008000497a <.Lpcrel_hi497>:
8000497a: 00005517     	auipc	a0, 0x5
8000497e: 68650513     	addi	a0, a0, 0x686
80004982: e911         	bnez	a0, 0x80004996 <.Lpcrel_hi498+0x10>
80004984: a025         	j	0x800049ac <.Lpcrel_hi500>

0000000080004986 <.Lpcrel_hi498>:
80004986: 00004517     	auipc	a0, 0x4
8000498a: 0e250513     	addi	a0, a0, 0xe2
8000498e: 00002097     	auipc	ra, 0x2
80004992: 246080e7     	jalr	0x246(ra) <core::panicking::panic_const::panic_const_add_overflow::h67cba067093910f8>
80004996: 6505         	lui	a0, 0x1
80004998: 950a         	add	a0, a0, sp
8000499a: f7053583     	ld	a1, -0x90(a0)

000000008000499e <.Lpcrel_hi499>:
8000499e: 00005517     	auipc	a0, 0x5
800049a2: 66250513     	addi	a0, a0, 0x662
800049a6: e10c         	sd	a1, 0x0(a0)
800049a8: e911         	bnez	a0, 0x800049bc <.Lpcrel_hi500+0x10>
800049aa: a025         	j	0x800049d2 <.Lpcrel_hi502>

00000000800049ac <.Lpcrel_hi500>:
800049ac: 00004517     	auipc	a0, 0x4
800049b0: 0bc50513     	addi	a0, a0, 0xbc
800049b4: 00002097     	auipc	ra, 0x2
800049b8: 304080e7     	jalr	0x304(ra) <core::panicking::panic_null_pointer_dereference::hbac6411af4f2e916>
800049bc: 6505         	lui	a0, 0x1
800049be: 950a         	add	a0, a0, sp
800049c0: fe853583     	ld	a1, -0x18(a0)

00000000800049c4 <.Lpcrel_hi501>:
800049c4: 00005517     	auipc	a0, 0x5
800049c8: 63c50513     	addi	a0, a0, 0x63c
800049cc: e50c         	sd	a1, 0x8(a0)
800049ce: e911         	bnez	a0, 0x800049e2 <.Lpcrel_hi502+0x10>
800049d0: a805         	j	0x80004a00 <.Lpcrel_hi505>

00000000800049d2 <.Lpcrel_hi502>:
800049d2: 00004517     	auipc	a0, 0x4
800049d6: 0ae50513     	addi	a0, a0, 0xae
800049da: 00002097     	auipc	ra, 0x2
800049de: 2de080e7     	jalr	0x2de(ra) <core::panicking::panic_null_pointer_dereference::hbac6411af4f2e916>
800049e2: 6505         	lui	a0, 0x1
800049e4: 950a         	add	a0, a0, sp
800049e6: ff053503     	ld	a0, -0x10(a0)

00000000800049ea <.Lpcrel_hi503>:
800049ea: 00005597     	auipc	a1, 0x5
800049ee: 61658593     	addi	a1, a1, 0x616
800049f2: e988         	sd	a0, 0x10(a1)

00000000800049f4 <.Lpcrel_hi504>:
800049f4: 00016517     	auipc	a0, 0x16
800049f8: 60c50513     	addi	a0, a0, 0x60c
800049fc: e911         	bnez	a0, 0x80004a10 <.Lpcrel_hi506>
800049fe: a805         	j	0x80004a2e <.Lpcrel_hi508>

0000000080004a00 <.Lpcrel_hi505>:
80004a00: 00004517     	auipc	a0, 0x4
80004a04: 09850513     	addi	a0, a0, 0x98
80004a08: 00002097     	auipc	ra, 0x2
80004a0c: 2b0080e7     	jalr	0x2b0(ra) <core::panicking::panic_null_pointer_dereference::hbac6411af4f2e916>

0000000080004a10 <.Lpcrel_hi506>:
80004a10: 00016517     	auipc	a0, 0x16
80004a14: 5f050513     	addi	a0, a0, 0x5f0
80004a18: 6108         	ld	a0, 0x0(a0)
80004a1a: 6585         	lui	a1, 0x1
80004a1c: 958a         	add	a1, a1, sp
80004a1e: f6a5b423     	sd	a0, -0x98(a1)

0000000080004a22 <.Lpcrel_hi507>:
80004a22: 00005517     	auipc	a0, 0x5
80004a26: 5de50513     	addi	a0, a0, 0x5de
80004a2a: e911         	bnez	a0, 0x80004a3e <.Lpcrel_hi508+0x10>
80004a2c: a025         	j	0x80004a54 <.Lpcrel_hi510>

0000000080004a2e <.Lpcrel_hi508>:
80004a2e: 00004517     	auipc	a0, 0x4
80004a32: 08250513     	addi	a0, a0, 0x82
80004a36: 00002097     	auipc	ra, 0x2
80004a3a: 282080e7     	jalr	0x282(ra) <core::panicking::panic_null_pointer_dereference::hbac6411af4f2e916>
80004a3e: 6505         	lui	a0, 0x1
80004a40: 950a         	add	a0, a0, sp
80004a42: f6853583     	ld	a1, -0x98(a0)

0000000080004a46 <.Lpcrel_hi509>:
80004a46: 00005517     	auipc	a0, 0x5
80004a4a: 5ba50513     	addi	a0, a0, 0x5ba
80004a4e: ed0c         	sd	a1, 0x18(a0)
80004a50: e911         	bnez	a0, 0x80004a64 <.Lpcrel_hi510+0x10>
80004a52: a889         	j	0x80004aa4 <.Lpcrel_hi512>

0000000080004a54 <.Lpcrel_hi510>:
80004a54: 00004517     	auipc	a0, 0x4
80004a58: 07450513     	addi	a0, a0, 0x74
80004a5c: 00002097     	auipc	ra, 0x2
80004a60: 25c080e7     	jalr	0x25c(ra) <core::panicking::panic_null_pointer_dereference::hbac6411af4f2e916>
80004a64: 6505         	lui	a0, 0x1
80004a66: 950a         	add	a0, a0, sp
80004a68: ff853503     	ld	a0, -0x8(a0)

0000000080004a6c <.Lpcrel_hi511>:
80004a6c: 00005597     	auipc	a1, 0x5
80004a70: 59458593     	addi	a1, a1, 0x594
80004a74: 6605         	lui	a2, 0x1
80004a76: 960a         	add	a2, a2, sp
80004a78: f4b63c23     	sd	a1, -0xa8(a2)
80004a7c: f188         	sd	a0, 0x20(a1)
80004a7e: 6505         	lui	a0, 0x1
80004a80: 950a         	add	a0, a0, sp
80004a82: fe853503     	ld	a0, -0x18(a0)
80004a86: ffffe097     	auipc	ra, 0xffffe
80004a8a: 194080e7     	jalr	0x194(ra) <lab4_kernel_task3::data_page_refcount::hb6e760d9cb0a8983>
80004a8e: 85aa         	mv	a1, a0
80004a90: 6505         	lui	a0, 0x1
80004a92: 950a         	add	a0, a0, sp
80004a94: f5853503     	ld	a0, -0xa8(a0)
80004a98: 6605         	lui	a2, 0x1
80004a9a: 960a         	add	a2, a2, sp
80004a9c: f6b63023     	sd	a1, -0xa0(a2)
80004aa0: e911         	bnez	a0, 0x80004ab4 <.Lpcrel_hi512+0x10>
80004aa2: a091         	j	0x80004ae6 <.Lpcrel_hi514>

0000000080004aa4 <.Lpcrel_hi512>:
80004aa4: 00004517     	auipc	a0, 0x4
80004aa8: 03c50513     	addi	a0, a0, 0x3c
80004aac: 00002097     	auipc	ra, 0x2
80004ab0: 20c080e7     	jalr	0x20c(ra) <core::panicking::panic_null_pointer_dereference::hbac6411af4f2e916>
80004ab4: 6505         	lui	a0, 0x1
80004ab6: 950a         	add	a0, a0, sp
80004ab8: f6053503     	ld	a0, -0xa0(a0)

0000000080004abc <.Lpcrel_hi513>:
80004abc: 00005597     	auipc	a1, 0x5
80004ac0: 54458593     	addi	a1, a1, 0x544
80004ac4: f588         	sd	a0, 0x28(a1)
80004ac6: 00401537     	lui	a0, 0x401
80004aca: ffffc097     	auipc	ra, 0xffffc
80004ace: 2a6080e7     	jalr	0x2a6(ra) <lab4_kernel_task3::vpn0_index::hb3d9a13406bd3e5b>
80004ad2: 85aa         	mv	a1, a0
80004ad4: 6605         	lui	a2, 0x1
80004ad6: 960a         	add	a2, a2, sp
80004ad8: f4b63823     	sd	a1, -0xb0(a2)
80004adc: 20000593     	li	a1, 0x200
80004ae0: 00b56b63     	bltu	a0, a1, 0x80004af6 <.Lpcrel_hi515>
80004ae4: a005         	j	0x80004b04 <.Lpcrel_hi515+0xe>

0000000080004ae6 <.Lpcrel_hi514>:
80004ae6: 00004517     	auipc	a0, 0x4
80004aea: 01250513     	addi	a0, a0, 0x12
80004aee: 00002097     	auipc	ra, 0x2
80004af2: 1ca080e7     	jalr	0x1ca(ra) <core::panicking::panic_null_pointer_dereference::hbac6411af4f2e916>

0000000080004af6 <.Lpcrel_hi515>:
80004af6: 00013517     	auipc	a0, 0x13
80004afa: 50a50513     	addi	a0, a0, 0x50a
80004afe: 1552         	slli	a0, a0, 0x34
80004b00: c105         	beqz	a0, 0x80004b20 <.Lpcrel_hi517>
80004b02: a02d         	j	0x80004b2c <.Lpcrel_hi518>
80004b04: 6505         	lui	a0, 0x1
80004b06: 950a         	add	a0, a0, sp
80004b08: f5053503     	ld	a0, -0xb0(a0)

0000000080004b0c <.Lpcrel_hi516>:
80004b0c: 00004597     	auipc	a1, 0x4
80004b10: 00458613     	addi	a2, a1, 0x4
80004b14: 20000593     	li	a1, 0x200
80004b18: 00002097     	auipc	ra, 0x2
80004b1c: 134080e7     	jalr	0x134(ra) <core::panicking::panic_bounds_check::h6aaee0d15e0261eb>

0000000080004b20 <.Lpcrel_hi517>:
80004b20: 00013517     	auipc	a0, 0x13
80004b24: 4e050513     	addi	a0, a0, 0x4e0
80004b28: ed19         	bnez	a0, 0x80004b46 <.Lpcrel_hi519+0x12>
80004b2a: a0a1         	j	0x80004b72 <.Lpcrel_hi522>

0000000080004b2c <.Lpcrel_hi518>:
80004b2c: 00013517     	auipc	a0, 0x13
80004b30: 4d450593     	addi	a1, a0, 0x4d4

0000000080004b34 <.Lpcrel_hi519>:
80004b34: 00004517     	auipc	a0, 0x4
80004b38: fdc50613     	addi	a2, a0, -0x24
80004b3c: 6505         	lui	a0, 0x1
80004b3e: 00002097     	auipc	ra, 0x2
80004b42: 19a080e7     	jalr	0x19a(ra) <core::panicking::panic_misaligned_pointer_dereference::hda85f7fb51d959f0>
80004b46: 6505         	lui	a0, 0x1
80004b48: 950a         	add	a0, a0, sp
80004b4a: f5053503     	ld	a0, -0xb0(a0)
80004b4e: 00351593     	slli	a1, a0, 0x3

0000000080004b52 <.Lpcrel_hi520>:
80004b52: 00013517     	auipc	a0, 0x13
80004b56: 4ae50513     	addi	a0, a0, 0x4ae
80004b5a: 952e         	add	a0, a0, a1
80004b5c: 6108         	ld	a0, 0x0(a0)
80004b5e: 6585         	lui	a1, 0x1
80004b60: 958a         	add	a1, a1, sp
80004b62: f4a5b423     	sd	a0, -0xb8(a1)

0000000080004b66 <.Lpcrel_hi521>:
80004b66: 00005517     	auipc	a0, 0x5
80004b6a: 49a50513     	addi	a0, a0, 0x49a
80004b6e: e911         	bnez	a0, 0x80004b82 <.Lpcrel_hi522+0x10>
80004b70: a091         	j	0x80004bb4 <.Lpcrel_hi524>

0000000080004b72 <.Lpcrel_hi522>:
80004b72: 00004517     	auipc	a0, 0x4
80004b76: f9e50513     	addi	a0, a0, -0x62
80004b7a: 00002097     	auipc	ra, 0x2
80004b7e: 13e080e7     	jalr	0x13e(ra) <core::panicking::panic_null_pointer_dereference::hbac6411af4f2e916>
80004b82: 6505         	lui	a0, 0x1
80004b84: 950a         	add	a0, a0, sp
80004b86: f4853503     	ld	a0, -0xb8(a0)

0000000080004b8a <.Lpcrel_hi523>:
80004b8a: 00005597     	auipc	a1, 0x5
80004b8e: 47658593     	addi	a1, a1, 0x476
80004b92: f988         	sd	a0, 0x30(a1)
80004b94: 00401537     	lui	a0, 0x401
80004b98: ffffc097     	auipc	ra, 0xffffc
80004b9c: 1d8080e7     	jalr	0x1d8(ra) <lab4_kernel_task3::vpn0_index::hb3d9a13406bd3e5b>
80004ba0: 85aa         	mv	a1, a0
80004ba2: 6605         	lui	a2, 0x1
80004ba4: 960a         	add	a2, a2, sp
80004ba6: f4b63023     	sd	a1, -0xc0(a2)
80004baa: 20000593     	li	a1, 0x200
80004bae: 00b56b63     	bltu	a0, a1, 0x80004bc4 <.Lpcrel_hi525>
80004bb2: a005         	j	0x80004bd2 <.Lpcrel_hi525+0xe>

0000000080004bb4 <.Lpcrel_hi524>:
80004bb4: 00004517     	auipc	a0, 0x4
80004bb8: f7450513     	addi	a0, a0, -0x8c
80004bbc: 00002097     	auipc	ra, 0x2
80004bc0: 0fc080e7     	jalr	0xfc(ra) <core::panicking::panic_null_pointer_dereference::hbac6411af4f2e916>

0000000080004bc4 <.Lpcrel_hi525>:
80004bc4: 00013517     	auipc	a0, 0x13
80004bc8: 43c50513     	addi	a0, a0, 0x43c
80004bcc: 1552         	slli	a0, a0, 0x34
80004bce: c105         	beqz	a0, 0x80004bee <.Lpcrel_hi527>
80004bd0: a02d         	j	0x80004bfa <.Lpcrel_hi528>
80004bd2: 6505         	lui	a0, 0x1
80004bd4: 950a         	add	a0, a0, sp
80004bd6: f4053503     	ld	a0, -0xc0(a0)

0000000080004bda <.Lpcrel_hi526>:
80004bda: 00004597     	auipc	a1, 0x4
80004bde: f6658613     	addi	a2, a1, -0x9a
80004be2: 20000593     	li	a1, 0x200
80004be6: 00002097     	auipc	ra, 0x2
80004bea: 066080e7     	jalr	0x66(ra) <core::panicking::panic_bounds_check::h6aaee0d15e0261eb>

0000000080004bee <.Lpcrel_hi527>:
80004bee: 00013517     	auipc	a0, 0x13
80004bf2: 41250513     	addi	a0, a0, 0x412
80004bf6: ed19         	bnez	a0, 0x80004c14 <.Lpcrel_hi529+0x12>
80004bf8: a0b1         	j	0x80004c44 <.Lpcrel_hi532>

0000000080004bfa <.Lpcrel_hi528>:
80004bfa: 00013517     	auipc	a0, 0x13
80004bfe: 40650593     	addi	a1, a0, 0x406

0000000080004c02 <.Lpcrel_hi529>:
80004c02: 00004517     	auipc	a0, 0x4
80004c06: f3e50613     	addi	a2, a0, -0xc2
80004c0a: 6505         	lui	a0, 0x1
80004c0c: 00002097     	auipc	ra, 0x2
80004c10: 0cc080e7     	jalr	0xcc(ra) <core::panicking::panic_misaligned_pointer_dereference::hda85f7fb51d959f0>
80004c14: 6505         	lui	a0, 0x1
80004c16: 950a         	add	a0, a0, sp
80004c18: f4053503     	ld	a0, -0xc0(a0)
80004c1c: 00351593     	slli	a1, a0, 0x3

0000000080004c20 <.Lpcrel_hi530>:
80004c20: 00013517     	auipc	a0, 0x13
80004c24: 3e050513     	addi	a0, a0, 0x3e0
80004c28: 952e         	add	a0, a0, a1
80004c2a: 6585         	lui	a1, 0x1
80004c2c: 952e         	add	a0, a0, a1
80004c2e: 6108         	ld	a0, 0x0(a0)
80004c30: 6585         	lui	a1, 0x1
80004c32: 958a         	add	a1, a1, sp
80004c34: f2a5bc23     	sd	a0, -0xc8(a1)

0000000080004c38 <.Lpcrel_hi531>:
80004c38: 00005517     	auipc	a0, 0x5
80004c3c: 3c850513     	addi	a0, a0, 0x3c8
80004c40: e911         	bnez	a0, 0x80004c54 <.Lpcrel_hi532+0x10>
80004c42: a805         	j	0x80004c72 <.Lpcrel_hi535>

0000000080004c44 <.Lpcrel_hi532>:
80004c44: 00004517     	auipc	a0, 0x4
80004c48: efc50513     	addi	a0, a0, -0x104
80004c4c: 00002097     	auipc	ra, 0x2
80004c50: 06c080e7     	jalr	0x6c(ra) <core::panicking::panic_null_pointer_dereference::hbac6411af4f2e916>
80004c54: 6505         	lui	a0, 0x1
80004c56: 950a         	add	a0, a0, sp
80004c58: f3853503     	ld	a0, -0xc8(a0)

0000000080004c5c <.Lpcrel_hi533>:
80004c5c: 00005597     	auipc	a1, 0x5
80004c60: 3a458593     	addi	a1, a1, 0x3a4
80004c64: fd88         	sd	a0, 0x38(a1)

0000000080004c66 <.Lpcrel_hi534>:
80004c66: 00016517     	auipc	a0, 0x16
80004c6a: 39a50513     	addi	a0, a0, 0x39a
80004c6e: e911         	bnez	a0, 0x80004c82 <.Lpcrel_hi535+0x10>
80004c70: a2d1         	j	0x80004e34 <.Lpcrel_hi540>

0000000080004c72 <.Lpcrel_hi535>:
80004c72: 00004517     	auipc	a0, 0x4
80004c76: ee650513     	addi	a0, a0, -0x11a
80004c7a: 00002097     	auipc	ra, 0x2
80004c7e: 03e080e7     	jalr	0x3e(ra) <core::panicking::panic_null_pointer_dereference::hbac6411af4f2e916>
80004c82: 6505         	lui	a0, 0x1
80004c84: 950a         	add	a0, a0, sp
80004c86: fd853583     	ld	a1, -0x28(a0)

0000000080004c8a <.Lpcrel_hi536>:
80004c8a: 00016517     	auipc	a0, 0x16
80004c8e: 37650513     	addi	a0, a0, 0x376
80004c92: 6108         	ld	a0, 0x0(a0)
80004c94: 12a5b823     	sd	a0, 0x130(a1)
80004c98: 6505         	lui	a0, 0x1
80004c9a: 950a         	add	a0, a0, sp
80004c9c: fe853503     	ld	a0, -0x18(a0)
80004ca0: ffffe097     	auipc	ra, 0xffffe
80004ca4: f7a080e7     	jalr	-0x86(ra) <lab4_kernel_task3::data_page_refcount::hb6e760d9cb0a8983>
80004ca8: 85aa         	mv	a1, a0
80004caa: 6505         	lui	a0, 0x1
80004cac: 950a         	add	a0, a0, sp
80004cae: fd853503     	ld	a0, -0x28(a0)
80004cb2: 12b53c23     	sd	a1, 0x138(a0)
80004cb6: 7ff10593     	addi	a1, sp, 0x7ff
80004cba: 7f158593     	addi	a1, a1, 0x7f1
80004cbe: 10b53423     	sd	a1, 0x108(a0)
80004cc2: 6595         	lui	a1, 0x5
80004cc4: f4058593     	addi	a1, a1, -0xc0
80004cc8: 958a         	add	a1, a1, sp
80004cca: 10b53823     	sd	a1, 0x110(a0)
80004cce: 7ff10593     	addi	a1, sp, 0x7ff
80004cd2: 7e958593     	addi	a1, a1, 0x7e9
80004cd6: 10b53c23     	sd	a1, 0x118(a0)
80004cda: 7ff10593     	addi	a1, sp, 0x7ff
80004cde: 7f958593     	addi	a1, a1, 0x7f9
80004ce2: 12b53023     	sd	a1, 0x120(a0)
80004ce6: 6595         	lui	a1, 0x5
80004ce8: f4858593     	addi	a1, a1, -0xb8
80004cec: 958a         	add	a1, a1, sp
80004cee: 12b53423     	sd	a1, 0x128(a0)
80004cf2: 10853583     	ld	a1, 0x108(a0)
80004cf6: 6515         	lui	a0, 0x5
80004cf8: fa050513     	addi	a0, a0, -0x60
80004cfc: 950a         	add	a0, a0, sp
80004cfe: ffffb097     	auipc	ra, 0xffffb
80004d02: 726080e7     	jalr	0x726(ra) <core::fmt::rt::Argument::new_display::h2a194c625b616a7c>
80004d06: 6505         	lui	a0, 0x1
80004d08: 950a         	add	a0, a0, sp
80004d0a: fd853503     	ld	a0, -0x28(a0)
80004d0e: 11053583     	ld	a1, 0x110(a0)
80004d12: 6515         	lui	a0, 0x5
80004d14: fb050513     	addi	a0, a0, -0x50
80004d18: 950a         	add	a0, a0, sp
80004d1a: ffffb097     	auipc	ra, 0xffffb
80004d1e: 70a080e7     	jalr	0x70a(ra) <core::fmt::rt::Argument::new_display::h2a194c625b616a7c>
80004d22: 6505         	lui	a0, 0x1
80004d24: 950a         	add	a0, a0, sp
80004d26: fd853503     	ld	a0, -0x28(a0)
80004d2a: 11853583     	ld	a1, 0x118(a0)
80004d2e: 6515         	lui	a0, 0x5
80004d30: fc050513     	addi	a0, a0, -0x40
80004d34: 950a         	add	a0, a0, sp
80004d36: ffffb097     	auipc	ra, 0xffffb
80004d3a: 798080e7     	jalr	0x798(ra) <core::fmt::rt::Argument::new_lower_hex::hfcf8be588603c455>
80004d3e: 6505         	lui	a0, 0x1
80004d40: 950a         	add	a0, a0, sp
80004d42: fd853503     	ld	a0, -0x28(a0)
80004d46: 12053583     	ld	a1, 0x120(a0)
80004d4a: 6515         	lui	a0, 0x5
80004d4c: fd050513     	addi	a0, a0, -0x30
80004d50: 950a         	add	a0, a0, sp
80004d52: ffffb097     	auipc	ra, 0xffffb
80004d56: 6d2080e7     	jalr	0x6d2(ra) <core::fmt::rt::Argument::new_display::h2a194c625b616a7c>
80004d5a: 6505         	lui	a0, 0x1
80004d5c: 950a         	add	a0, a0, sp
80004d5e: fd853503     	ld	a0, -0x28(a0)
80004d62: 12853583     	ld	a1, 0x128(a0)
80004d66: 6515         	lui	a0, 0x5
80004d68: 1501         	addi	a0, a0, -0x20
80004d6a: 950a         	add	a0, a0, sp
80004d6c: ffffb097     	auipc	ra, 0xffffb
80004d70: 6b8080e7     	jalr	0x6b8(ra) <core::fmt::rt::Argument::new_display::h2a194c625b616a7c>
80004d74: 6505         	lui	a0, 0x1
80004d76: 950a         	add	a0, a0, sp
80004d78: fd853583     	ld	a1, -0x28(a0)
80004d7c: 1985b503     	ld	a0, 0x198(a1)
80004d80: 14a5b423     	sd	a0, 0x148(a1)
80004d84: 1905b503     	ld	a0, 0x190(a1)
80004d88: 14a5b023     	sd	a0, 0x140(a1)
80004d8c: 1a85b503     	ld	a0, 0x1a8(a1)
80004d90: 14a5bc23     	sd	a0, 0x158(a1)
80004d94: 1a05b503     	ld	a0, 0x1a0(a1)
80004d98: 14a5b823     	sd	a0, 0x150(a1)
80004d9c: 1b85b503     	ld	a0, 0x1b8(a1)
80004da0: 16a5b423     	sd	a0, 0x168(a1)
80004da4: 1b05b503     	ld	a0, 0x1b0(a1)
80004da8: 16a5b023     	sd	a0, 0x160(a1)
80004dac: 1c85b503     	ld	a0, 0x1c8(a1)
80004db0: 16a5bc23     	sd	a0, 0x178(a1)
80004db4: 1c05b503     	ld	a0, 0x1c0(a1)
80004db8: 16a5b823     	sd	a0, 0x170(a1)
80004dbc: 1d85b503     	ld	a0, 0x1d8(a1)
80004dc0: 18a5b423     	sd	a0, 0x188(a1)
80004dc4: 1d05b503     	ld	a0, 0x1d0(a1)
80004dc8: 18a5b023     	sd	a0, 0x180(a1)

0000000080004dcc <.Lpcrel_hi537>:
80004dcc: 00004517     	auipc	a0, 0x4
80004dd0: dbc50513     	addi	a0, a0, -0x244
80004dd4: 6595         	lui	a1, 0x5
80004dd6: f5058593     	addi	a1, a1, -0xb0
80004dda: 958a         	add	a1, a1, sp
80004ddc: 00001097     	auipc	ra, 0x1
80004de0: b12080e7     	jalr	-0x4ee(ra) <core::fmt::Arguments::new::h24ec93357d5a2ad3>
80004de4: ffffb097     	auipc	ra, 0xffffb
80004de8: 3ae080e7     	jalr	0x3ae(ra) <lab4_kernel_task3::console::print::h3e60aa2d39f23b20>

0000000080004dec <.Lpcrel_hi538>:
80004dec: 00004517     	auipc	a0, 0x4
80004df0: e0150513     	addi	a0, a0, -0x1ff
80004df4: 45c5         	li	a1, 0x11
80004df6: 4601         	li	a2, 0x0
80004df8: 004016b7     	lui	a3, 0x401
80004dfc: 6705         	lui	a4, 0x1
80004dfe: 970a         	add	a4, a4, sp
80004e00: f2d73823     	sd	a3, -0xd0(a4)
80004e04: ffffc097     	auipc	ra, 0xffffc
80004e08: f0c080e7     	jalr	-0xf4(ra) <lab4_kernel_task3::print_walk::h2184069fbc37da8e>
80004e0c: 6505         	lui	a0, 0x1
80004e0e: 950a         	add	a0, a0, sp
80004e10: f3053683     	ld	a3, -0xd0(a0)

0000000080004e14 <.Lpcrel_hi539>:
80004e14: 00003517     	auipc	a0, 0x3
80004e18: bc450513     	addi	a0, a0, -0x43c
80004e1c: 45c1         	li	a1, 0x10
80004e1e: 4605         	li	a2, 0x1
80004e20: ffffc097     	auipc	ra, 0xffffc
80004e24: ef0080e7     	jalr	-0x110(ra) <lab4_kernel_task3::print_walk::h2184069fbc37da8e>
80004e28: e1040113     	addi	sp, s0, -0x1f0
80004e2c: 70be         	ld	ra, 0x1e8(sp)
80004e2e: 741e         	ld	s0, 0x1e0(sp)
80004e30: 617d         	addi	sp, sp, 0x1f0
80004e32: 8082         	ret

0000000080004e34 <.Lpcrel_hi540>:
80004e34: 00004517     	auipc	a0, 0x4
80004e38: d3c50513     	addi	a0, a0, -0x2c4
80004e3c: 00002097     	auipc	ra, 0x2
80004e40: e7c080e7     	jalr	-0x184(ra) <core::panicking::panic_null_pointer_dereference::hbac6411af4f2e916>

0000000080004e44 <lab4_kernel_task3::CowStats::zeroed::h7242b41f3e6176c9>:
80004e44: 85aa         	mv	a1, a0
80004e46: 4501         	li	a0, 0x0
80004e48: e188         	sd	a0, 0x0(a1)
80004e4a: e588         	sd	a0, 0x8(a1)
80004e4c: e988         	sd	a0, 0x10(a1)
80004e4e: ed88         	sd	a0, 0x18(a1)
80004e50: f188         	sd	a0, 0x20(a1)
80004e52: f588         	sd	a0, 0x28(a1)
80004e54: f988         	sd	a0, 0x30(a1)
80004e56: fd88         	sd	a0, 0x38(a1)
80004e58: e1a8         	sd	a0, 0x40(a1)
80004e5a: 8082         	ret

0000000080004e5c <lab4_kernel_task3::leaf_pte::h8fee59baeede6e06>:
80004e5c: 1141         	addi	sp, sp, -0x10
80004e5e: e02a         	sd	a0, 0x0(sp)
80004e60: e42e         	sd	a1, 0x8(sp)
80004e62: 8131         	srli	a0, a0, 0xc
80004e64: 052a         	slli	a0, a0, 0xa
80004e66: 8d4d         	or	a0, a0, a1
80004e68: 00156513     	ori	a0, a0, 0x1
80004e6c: 0141         	addi	sp, sp, 0x10
80004e6e: 8082         	ret

0000000080004e70 <lab4_kernel_task3::ForkStats::zeroed::hcdd4894927fedeb1>:
80004e70: 85aa         	mv	a1, a0
80004e72: 4501         	li	a0, 0x0
80004e74: e188         	sd	a0, 0x0(a1)
80004e76: e588         	sd	a0, 0x8(a1)
80004e78: e988         	sd	a0, 0x10(a1)
80004e7a: ed88         	sd	a0, 0x18(a1)
80004e7c: f188         	sd	a0, 0x20(a1)
80004e7e: f588         	sd	a0, 0x28(a1)
80004e80: f988         	sd	a0, 0x30(a1)
80004e82: fd88         	sd	a0, 0x38(a1)
80004e84: 8082         	ret

0000000080004e86 <lab4_kernel_task3::clear_bss::h0d1a30ed3db99c27>:
80004e86: 715d         	addi	sp, sp, -0x50
80004e88: e486         	sd	ra, 0x48(sp)

0000000080004e8a <.Lpcrel_hi541>:
80004e8a: 00005517     	auipc	a0, 0x5
80004e8e: 17650593     	addi	a1, a0, 0x176
80004e92: ec2e         	sd	a1, 0x18(sp)

0000000080004e94 <.Lpcrel_hi542>:
80004e94: 00016517     	auipc	a0, 0x16
80004e98: 1bc50513     	addi	a0, a0, 0x1bc
80004e9c: f02a         	sd	a0, 0x20(sp)
80004e9e: 04b56d63     	bltu	a0, a1, 0x80004ef8 <.Lpcrel_hi546>
80004ea2: a009         	j	0x80004ea4 <.Lpcrel_hi543>

0000000080004ea4 <.Lpcrel_hi543>:
80004ea4: 00005517     	auipc	a0, 0x5
80004ea8: 15c50513     	addi	a0, a0, 0x15c
80004eac: e02a         	sd	a0, 0x0(sp)
80004eae: f82a         	sd	a0, 0x30(sp)
80004eb0: 4581         	li	a1, 0x0
80004eb2: e42e         	sd	a1, 0x8(sp)
80004eb4: 02b10fa3     	sb	a1, 0x3f(sp)

0000000080004eb8 <.Lpcrel_hi544>:
80004eb8: 00016597     	auipc	a1, 0x16
80004ebc: 19858593     	addi	a1, a1, 0x198
80004ec0: 8d89         	sub	a1, a1, a0
80004ec2: e82e         	sd	a1, 0x10(sp)
80004ec4: e0ae         	sd	a1, 0x40(sp)
80004ec6: 0015b593     	seqz	a1, a1
80004eca: 02b107a3     	sb	a1, 0x2f(sp)
80004ece: 02f14603     	lbu	a2, 0x2f(sp)

0000000080004ed2 <.Lpcrel_hi545>:
80004ed2: 00004597     	auipc	a1, 0x4
80004ed6: d7e58693     	addi	a3, a1, -0x282
80004eda: 4585         	li	a1, 0x1
80004edc: ffffc097     	auipc	ra, 0xffffc
80004ee0: 840080e7     	jalr	-0x7c0(ra) <core::ptr::write_bytes::precondition_check::he6f35d0c38b6c5de>
80004ee4: 6502         	ld	a0, 0x0(sp)
80004ee6: 65a2         	ld	a1, 0x8(sp)
80004ee8: 6642         	ld	a2, 0x10(sp)
80004eea: 00002097     	auipc	ra, 0x2
80004eee: f22080e7     	jalr	-0xde(ra) <memset>
80004ef2: 60a6         	ld	ra, 0x48(sp)
80004ef4: 6161         	addi	sp, sp, 0x50
80004ef6: 8082         	ret

0000000080004ef8 <.Lpcrel_hi546>:
80004ef8: 00004517     	auipc	a0, 0x4
80004efc: d0850513     	addi	a0, a0, -0x2f8
80004f00: 00002097     	auipc	ra, 0x2
80004f04: d10080e7     	jalr	-0x2f0(ra) <core::panicking::panic_const::panic_const_sub_overflow::hccc965ba9198de7c>

0000000080004f08 <lab4_kernel_task3::clear_sum::h164ecb28a2fdef10>:
80004f08: 00040537     	lui	a0, 0x40
80004f0c: 10053073     	csrc	sstatus, a0
80004f10: 8082         	ret

0000000080004f12 <lab4_kernel_task3::copy_page::h46df678f5d7b9744>:
80004f12: 715d         	addi	sp, sp, -0x50
80004f14: e486         	sd	ra, 0x48(sp)
80004f16: e82e         	sd	a1, 0x10(sp)
80004f18: 85aa         	mv	a1, a0
80004f1a: 6542         	ld	a0, 0x10(sp)
80004f1c: e42e         	sd	a1, 0x8(sp)
80004f1e: f02e         	sd	a1, 0x20(sp)
80004f20: f42a         	sd	a0, 0x28(sp)
80004f22: f82a         	sd	a0, 0x30(sp)
80004f24: fc2e         	sd	a1, 0x38(sp)
80004f26: 6705         	lui	a4, 0x1
80004f28: ec3a         	sd	a4, 0x18(sp)
80004f2a: e0ba         	sd	a4, 0x40(sp)

0000000080004f2c <.Lpcrel_hi547>:
80004f2c: 00004617     	auipc	a2, 0x4
80004f30: d3c60793     	addi	a5, a2, -0x2c4
80004f34: 4685         	li	a3, 0x1
80004f36: 8636         	mv	a2, a3
80004f38: ffffc097     	auipc	ra, 0xffffc
80004f3c: 87a080e7     	jalr	-0x786(ra) <core::ptr::copy_nonoverlapping::precondition_check::h7f6ab36a3c1120d9>
80004f40: 6522         	ld	a0, 0x8(sp)
80004f42: 65c2         	ld	a1, 0x10(sp)
80004f44: 6662         	ld	a2, 0x18(sp)
80004f46: 00002097     	auipc	ra, 0x2
80004f4a: f3c080e7     	jalr	-0xc4(ra) <memcpy>
80004f4e: 60a6         	ld	ra, 0x48(sp)
80004f50: 6161         	addi	sp, sp, 0x50
80004f52: 8082         	ret

0000000080004f54 <lab4_kernel_task3::other_pid::h44af82a9b30f4ed0>:
80004f54: 1141         	addi	sp, sp, -0x10
80004f56: e42a         	sd	a0, 0x8(sp)
80004f58: c509         	beqz	a0, 0x80004f62 <lab4_kernel_task3::other_pid::h44af82a9b30f4ed0+0xe>
80004f5a: a009         	j	0x80004f5c <lab4_kernel_task3::other_pid::h44af82a9b30f4ed0+0x8>
80004f5c: 4501         	li	a0, 0x0
80004f5e: e02a         	sd	a0, 0x0(sp)
80004f60: a021         	j	0x80004f68 <lab4_kernel_task3::other_pid::h44af82a9b30f4ed0+0x14>
80004f62: 4505         	li	a0, 0x1
80004f64: e02a         	sd	a0, 0x0(sp)
80004f66: a009         	j	0x80004f68 <lab4_kernel_task3::other_pid::h44af82a9b30f4ed0+0x14>
80004f68: 6502         	ld	a0, 0x0(sp)
80004f6a: 0141         	addi	sp, sp, 0x10
80004f6c: 8082         	ret

0000000080004f6e <lab4_kernel_task3::pass_fail::hb315366d426f37ed>:
80004f6e: 1101         	addi	sp, sp, -0x20
80004f70: 00a10fa3     	sb	a0, 0x1f(sp)
80004f74: e911         	bnez	a0, 0x80004f88 <.Lpcrel_hi549>
80004f76: a009         	j	0x80004f78 <.Lpcrel_hi548>

0000000080004f78 <.Lpcrel_hi548>:
80004f78: 00004517     	auipc	a0, 0x4
80004f7c: ca050513     	addi	a0, a0, -0x360
80004f80: e42a         	sd	a0, 0x8(sp)
80004f82: 4511         	li	a0, 0x4
80004f84: e82a         	sd	a0, 0x10(sp)
80004f86: a809         	j	0x80004f98 <.Lpcrel_hi549+0x10>

0000000080004f88 <.Lpcrel_hi549>:
80004f88: 00004517     	auipc	a0, 0x4
80004f8c: c9450513     	addi	a0, a0, -0x36c
80004f90: e42a         	sd	a0, 0x8(sp)
80004f92: 4511         	li	a0, 0x4
80004f94: e82a         	sd	a0, 0x10(sp)
80004f96: a009         	j	0x80004f98 <.Lpcrel_hi549+0x10>
80004f98: 6522         	ld	a0, 0x8(sp)
80004f9a: 65c2         	ld	a1, 0x10(sp)
80004f9c: 6105         	addi	sp, sp, 0x20
80004f9e: 8082         	ret

0000000080004fa0 <lab4_kernel_task3::pte_to_pa::h5acd02dcfb8b5338>:
80004fa0: 1141         	addi	sp, sp, -0x10
80004fa2: e42a         	sd	a0, 0x8(sp)
80004fa4: 8129         	srli	a0, a0, 0xa
80004fa6: 0532         	slli	a0, a0, 0xc
80004fa8: 0141         	addi	sp, sp, 0x10
80004faa: 8082         	ret

0000000080004fac <lab4_kernel_task3::qemu_exit::hbc34671da0810e27>:
80004fac: 1101         	addi	sp, sp, -0x20
80004fae: ec06         	sd	ra, 0x18(sp)
80004fb0: 85aa         	mv	a1, a0
80004fb2: e42e         	sd	a1, 0x8(sp)
80004fb4: ca2a         	sw	a0, 0x14(sp)
80004fb6: c919         	beqz	a0, 0x80004fcc <lab4_kernel_task3::qemu_exit::hbc34671da0810e27+0x20>
80004fb8: a009         	j	0x80004fba <lab4_kernel_task3::qemu_exit::hbc34671da0810e27+0xe>
80004fba: 6522         	ld	a0, 0x8(sp)
80004fbc: 0105151b     	slliw	a0, a0, 0x10
80004fc0: 658d         	lui	a1, 0x3
80004fc2: 33358593     	addi	a1, a1, 0x333
80004fc6: 8d4d         	or	a0, a0, a1
80004fc8: c82a         	sw	a0, 0x10(sp)
80004fca: a031         	j	0x80004fd6 <lab4_kernel_task3::qemu_exit::hbc34671da0810e27+0x2a>
80004fcc: 6515         	lui	a0, 0x5
80004fce: 55550513     	addi	a0, a0, 0x555
80004fd2: c82a         	sw	a0, 0x10(sp)
80004fd4: a009         	j	0x80004fd6 <lab4_kernel_task3::qemu_exit::hbc34671da0810e27+0x2a>
80004fd6: 45c2         	lw	a1, 0x10(sp)

0000000080004fd8 <.Lpcrel_hi550>:
80004fd8: 00004517     	auipc	a0, 0x4
80004fdc: c4850613     	addi	a2, a0, -0x3b8
80004fe0: 00100537     	lui	a0, 0x100
80004fe4: 00001097     	auipc	ra, 0x1
80004fe8: a0a080e7     	jalr	-0x5f6(ra) <core::ptr::write_volatile::he1ae2ab377491ee3>
80004fec: a009         	j	0x80004fee <.Lpcrel_hi550+0x16>
80004fee: 10500073     	wfi
80004ff2: bff5         	j	0x80004fee <.Lpcrel_hi550+0x16>

0000000080004ff4 <lab4_kernel_task3::table_pte::h0bc0e32cb79463bf>:
80004ff4: 1141         	addi	sp, sp, -0x10
80004ff6: e42a         	sd	a0, 0x8(sp)
80004ff8: 8131         	srli	a0, a0, 0xc
80004ffa: 052a         	slli	a0, a0, 0xa
80004ffc: 0505         	addi	a0, a0, 0x1
80004ffe: 0141         	addi	sp, sp, 0x10
80005000: 8082         	ret

0000000080005002 <lab4_kernel_task3::zero_page::h301b717a8e4cf87f>:
80005002: 711d         	addi	sp, sp, -0x60
80005004: ec86         	sd	ra, 0x58(sp)
80005006: ec2a         	sd	a0, 0x18(sp)
80005008: f02a         	sd	a0, 0x20(sp)
8000500a: c521         	beqz	a0, 0x80005052 <.Lpcrel_hi552>
8000500c: a009         	j	0x8000500e <lab4_kernel_task3::zero_page::h301b717a8e4cf87f+0xc>
8000500e: 6562         	ld	a0, 0x18(sp)
80005010: e4aa         	sd	a0, 0x48(sp)
80005012: 6605         	lui	a2, 0x1
80005014: e832         	sd	a2, 0x10(sp)
80005016: e8b2         	sd	a2, 0x50(sp)
80005018: f82a         	sd	a0, 0x30(sp)
8000501a: 4581         	li	a1, 0x0
8000501c: e42e         	sd	a1, 0x8(sp)
8000501e: 02b10fa3     	sb	a1, 0x3f(sp)
80005022: e0b2         	sd	a2, 0x40(sp)
80005024: 02b107a3     	sb	a1, 0x2f(sp)
80005028: 02f14603     	lbu	a2, 0x2f(sp)

000000008000502c <.Lpcrel_hi551>:
8000502c: 00004597     	auipc	a1, 0x4
80005030: c2458693     	addi	a3, a1, -0x3dc
80005034: 4585         	li	a1, 0x1
80005036: ffffb097     	auipc	ra, 0xffffb
8000503a: 6e6080e7     	jalr	0x6e6(ra) <core::ptr::write_bytes::precondition_check::he6f35d0c38b6c5de>
8000503e: 6562         	ld	a0, 0x18(sp)
80005040: 65a2         	ld	a1, 0x8(sp)
80005042: 6642         	ld	a2, 0x10(sp)
80005044: 00002097     	auipc	ra, 0x2
80005048: dc8080e7     	jalr	-0x238(ra) <memset>
8000504c: 60e6         	ld	ra, 0x58(sp)
8000504e: 6125         	addi	sp, sp, 0x60
80005050: 8082         	ret

0000000080005052 <.Lpcrel_hi552>:
80005052: 00004517     	auipc	a0, 0x4
80005056: be650513     	addi	a0, a0, -0x41a
8000505a: 00002097     	auipc	ra, 0x2
8000505e: c5e080e7     	jalr	-0x3a2(ra) <core::panicking::panic_null_pointer_dereference::hbac6411af4f2e916>

0000000080005062 <_$LT$lab4_kernel_task3..PteFlags$u20$as$u20$core..fmt..Display$GT$::fmt::h7686b8ac9dd87f81>:
80005062: 710d         	addi	sp, sp, -0x160
80005064: ee86         	sd	ra, 0x158(sp)
80005066: e82e         	sd	a1, 0x10(sp)
80005068: e62a         	sd	a0, 0x108(sp)
8000506a: ea2e         	sd	a1, 0x110(sp)
8000506c: 6108         	ld	a0, 0x0(a0)
8000506e: ec2a         	sd	a0, 0x18(sp)
80005070: f22a         	sd	a0, 0x120(sp)
80005072: 8905         	andi	a0, a0, 0x1
80005074: e511         	bnez	a0, 0x80005080 <_$LT$lab4_kernel_task3..PteFlags$u20$as$u20$core..fmt..Display$GT$::fmt::h7686b8ac9dd87f81+0x1e>
80005076: a009         	j	0x80005078 <_$LT$lab4_kernel_task3..PteFlags$u20$as$u20$core..fmt..Display$GT$::fmt::h7686b8ac9dd87f81+0x16>
80005078: 02d00513     	li	a0, 0x2d
8000507c: c6aa         	sw	a0, 0x4c(sp)
8000507e: a029         	j	0x80005088 <_$LT$lab4_kernel_task3..PteFlags$u20$as$u20$core..fmt..Display$GT$::fmt::h7686b8ac9dd87f81+0x26>
80005080: 05600513     	li	a0, 0x56
80005084: c6aa         	sw	a0, 0x4c(sp)
80005086: a009         	j	0x80005088 <_$LT$lab4_kernel_task3..PteFlags$u20$as$u20$core..fmt..Display$GT$::fmt::h7686b8ac9dd87f81+0x26>
80005088: 6562         	ld	a0, 0x18(sp)
8000508a: 8909         	andi	a0, a0, 0x2
8000508c: e511         	bnez	a0, 0x80005098 <_$LT$lab4_kernel_task3..PteFlags$u20$as$u20$core..fmt..Display$GT$::fmt::h7686b8ac9dd87f81+0x36>
8000508e: a009         	j	0x80005090 <_$LT$lab4_kernel_task3..PteFlags$u20$as$u20$core..fmt..Display$GT$::fmt::h7686b8ac9dd87f81+0x2e>
80005090: 02d00513     	li	a0, 0x2d
80005094: c8aa         	sw	a0, 0x50(sp)
80005096: a029         	j	0x800050a0 <_$LT$lab4_kernel_task3..PteFlags$u20$as$u20$core..fmt..Display$GT$::fmt::h7686b8ac9dd87f81+0x3e>
80005098: 05200513     	li	a0, 0x52
8000509c: c8aa         	sw	a0, 0x50(sp)
8000509e: a009         	j	0x800050a0 <_$LT$lab4_kernel_task3..PteFlags$u20$as$u20$core..fmt..Display$GT$::fmt::h7686b8ac9dd87f81+0x3e>
800050a0: 6562         	ld	a0, 0x18(sp)
800050a2: 8911         	andi	a0, a0, 0x4
800050a4: e511         	bnez	a0, 0x800050b0 <_$LT$lab4_kernel_task3..PteFlags$u20$as$u20$core..fmt..Display$GT$::fmt::h7686b8ac9dd87f81+0x4e>
800050a6: a009         	j	0x800050a8 <_$LT$lab4_kernel_task3..PteFlags$u20$as$u20$core..fmt..Display$GT$::fmt::h7686b8ac9dd87f81+0x46>
800050a8: 02d00513     	li	a0, 0x2d
800050ac: caaa         	sw	a0, 0x54(sp)
800050ae: a029         	j	0x800050b8 <_$LT$lab4_kernel_task3..PteFlags$u20$as$u20$core..fmt..Display$GT$::fmt::h7686b8ac9dd87f81+0x56>
800050b0: 05700513     	li	a0, 0x57
800050b4: caaa         	sw	a0, 0x54(sp)
800050b6: a009         	j	0x800050b8 <_$LT$lab4_kernel_task3..PteFlags$u20$as$u20$core..fmt..Display$GT$::fmt::h7686b8ac9dd87f81+0x56>
800050b8: 6562         	ld	a0, 0x18(sp)
800050ba: 8921         	andi	a0, a0, 0x8
800050bc: e511         	bnez	a0, 0x800050c8 <_$LT$lab4_kernel_task3..PteFlags$u20$as$u20$core..fmt..Display$GT$::fmt::h7686b8ac9dd87f81+0x66>
800050be: a009         	j	0x800050c0 <_$LT$lab4_kernel_task3..PteFlags$u20$as$u20$core..fmt..Display$GT$::fmt::h7686b8ac9dd87f81+0x5e>
800050c0: 02d00513     	li	a0, 0x2d
800050c4: ccaa         	sw	a0, 0x58(sp)
800050c6: a029         	j	0x800050d0 <_$LT$lab4_kernel_task3..PteFlags$u20$as$u20$core..fmt..Display$GT$::fmt::h7686b8ac9dd87f81+0x6e>
800050c8: 05800513     	li	a0, 0x58
800050cc: ccaa         	sw	a0, 0x58(sp)
800050ce: a009         	j	0x800050d0 <_$LT$lab4_kernel_task3..PteFlags$u20$as$u20$core..fmt..Display$GT$::fmt::h7686b8ac9dd87f81+0x6e>
800050d0: 6562         	ld	a0, 0x18(sp)
800050d2: 8941         	andi	a0, a0, 0x10
800050d4: e511         	bnez	a0, 0x800050e0 <_$LT$lab4_kernel_task3..PteFlags$u20$as$u20$core..fmt..Display$GT$::fmt::h7686b8ac9dd87f81+0x7e>
800050d6: a009         	j	0x800050d8 <_$LT$lab4_kernel_task3..PteFlags$u20$as$u20$core..fmt..Display$GT$::fmt::h7686b8ac9dd87f81+0x76>
800050d8: 02d00513     	li	a0, 0x2d
800050dc: ceaa         	sw	a0, 0x5c(sp)
800050de: a029         	j	0x800050e8 <_$LT$lab4_kernel_task3..PteFlags$u20$as$u20$core..fmt..Display$GT$::fmt::h7686b8ac9dd87f81+0x86>
800050e0: 05500513     	li	a0, 0x55
800050e4: ceaa         	sw	a0, 0x5c(sp)
800050e6: a009         	j	0x800050e8 <_$LT$lab4_kernel_task3..PteFlags$u20$as$u20$core..fmt..Display$GT$::fmt::h7686b8ac9dd87f81+0x86>
800050e8: 6562         	ld	a0, 0x18(sp)
800050ea: 02057513     	andi	a0, a0, 0x20
800050ee: e511         	bnez	a0, 0x800050fa <_$LT$lab4_kernel_task3..PteFlags$u20$as$u20$core..fmt..Display$GT$::fmt::h7686b8ac9dd87f81+0x98>
800050f0: a009         	j	0x800050f2 <_$LT$lab4_kernel_task3..PteFlags$u20$as$u20$core..fmt..Display$GT$::fmt::h7686b8ac9dd87f81+0x90>
800050f2: 02d00513     	li	a0, 0x2d
800050f6: d0aa         	sw	a0, 0x60(sp)
800050f8: a029         	j	0x80005102 <_$LT$lab4_kernel_task3..PteFlags$u20$as$u20$core..fmt..Display$GT$::fmt::h7686b8ac9dd87f81+0xa0>
800050fa: 04700513     	li	a0, 0x47
800050fe: d0aa         	sw	a0, 0x60(sp)
80005100: a009         	j	0x80005102 <_$LT$lab4_kernel_task3..PteFlags$u20$as$u20$core..fmt..Display$GT$::fmt::h7686b8ac9dd87f81+0xa0>
80005102: 6562         	ld	a0, 0x18(sp)
80005104: 04057513     	andi	a0, a0, 0x40
80005108: e511         	bnez	a0, 0x80005114 <_$LT$lab4_kernel_task3..PteFlags$u20$as$u20$core..fmt..Display$GT$::fmt::h7686b8ac9dd87f81+0xb2>
8000510a: a009         	j	0x8000510c <_$LT$lab4_kernel_task3..PteFlags$u20$as$u20$core..fmt..Display$GT$::fmt::h7686b8ac9dd87f81+0xaa>
8000510c: 02d00513     	li	a0, 0x2d
80005110: d2aa         	sw	a0, 0x64(sp)
80005112: a029         	j	0x8000511c <_$LT$lab4_kernel_task3..PteFlags$u20$as$u20$core..fmt..Display$GT$::fmt::h7686b8ac9dd87f81+0xba>
80005114: 04100513     	li	a0, 0x41
80005118: d2aa         	sw	a0, 0x64(sp)
8000511a: a009         	j	0x8000511c <_$LT$lab4_kernel_task3..PteFlags$u20$as$u20$core..fmt..Display$GT$::fmt::h7686b8ac9dd87f81+0xba>
8000511c: 6562         	ld	a0, 0x18(sp)
8000511e: 08057513     	andi	a0, a0, 0x80
80005122: e511         	bnez	a0, 0x8000512e <_$LT$lab4_kernel_task3..PteFlags$u20$as$u20$core..fmt..Display$GT$::fmt::h7686b8ac9dd87f81+0xcc>
80005124: a009         	j	0x80005126 <_$LT$lab4_kernel_task3..PteFlags$u20$as$u20$core..fmt..Display$GT$::fmt::h7686b8ac9dd87f81+0xc4>
80005126: 02d00513     	li	a0, 0x2d
8000512a: d4aa         	sw	a0, 0x68(sp)
8000512c: a029         	j	0x80005136 <_$LT$lab4_kernel_task3..PteFlags$u20$as$u20$core..fmt..Display$GT$::fmt::h7686b8ac9dd87f81+0xd4>
8000512e: 04400513     	li	a0, 0x44
80005132: d4aa         	sw	a0, 0x68(sp)
80005134: a009         	j	0x80005136 <_$LT$lab4_kernel_task3..PteFlags$u20$as$u20$core..fmt..Display$GT$::fmt::h7686b8ac9dd87f81+0xd4>
80005136: 6562         	ld	a0, 0x18(sp)
80005138: 10057513     	andi	a0, a0, 0x100
8000513c: e511         	bnez	a0, 0x80005148 <_$LT$lab4_kernel_task3..PteFlags$u20$as$u20$core..fmt..Display$GT$::fmt::h7686b8ac9dd87f81+0xe6>
8000513e: a009         	j	0x80005140 <_$LT$lab4_kernel_task3..PteFlags$u20$as$u20$core..fmt..Display$GT$::fmt::h7686b8ac9dd87f81+0xde>
80005140: 02d00513     	li	a0, 0x2d
80005144: d6aa         	sw	a0, 0x6c(sp)
80005146: a029         	j	0x80005150 <_$LT$lab4_kernel_task3..PteFlags$u20$as$u20$core..fmt..Display$GT$::fmt::h7686b8ac9dd87f81+0xee>
80005148: 04300513     	li	a0, 0x43
8000514c: d6aa         	sw	a0, 0x6c(sp)
8000514e: a009         	j	0x80005150 <_$LT$lab4_kernel_task3..PteFlags$u20$as$u20$core..fmt..Display$GT$::fmt::h7686b8ac9dd87f81+0xee>
80005150: 4536         	lw	a0, 0x4c(sp)
80005152: d42a         	sw	a0, 0x28(sp)
80005154: 4546         	lw	a0, 0x50(sp)
80005156: d62a         	sw	a0, 0x2c(sp)
80005158: 4556         	lw	a0, 0x54(sp)
8000515a: d82a         	sw	a0, 0x30(sp)
8000515c: 4566         	lw	a0, 0x58(sp)
8000515e: da2a         	sw	a0, 0x34(sp)
80005160: 4576         	lw	a0, 0x5c(sp)
80005162: dc2a         	sw	a0, 0x38(sp)
80005164: 5506         	lw	a0, 0x60(sp)
80005166: de2a         	sw	a0, 0x3c(sp)
80005168: 5516         	lw	a0, 0x64(sp)
8000516a: c0aa         	sw	a0, 0x40(sp)
8000516c: 5526         	lw	a0, 0x68(sp)
8000516e: c2aa         	sw	a0, 0x44(sp)
80005170: 5536         	lw	a0, 0x6c(sp)
80005172: c4aa         	sw	a0, 0x48(sp)
80005174: 4526         	lw	a0, 0x48(sp)
80005176: 14a12423     	sw	a0, 0x148(sp)
8000517a: 04416503     	lwu	a0, 0x44(sp)
8000517e: 1502         	slli	a0, a0, 0x20
80005180: 04016583     	lwu	a1, 0x40(sp)
80005184: 8d4d         	or	a0, a0, a1
80005186: e2aa         	sd	a0, 0x140(sp)
80005188: 03c16503     	lwu	a0, 0x3c(sp)
8000518c: 1502         	slli	a0, a0, 0x20
8000518e: 03816583     	lwu	a1, 0x38(sp)
80005192: 8d4d         	or	a0, a0, a1
80005194: fe2a         	sd	a0, 0x138(sp)
80005196: 03416503     	lwu	a0, 0x34(sp)
8000519a: 1502         	slli	a0, a0, 0x20
8000519c: 03016583     	lwu	a1, 0x30(sp)
800051a0: 8d4d         	or	a0, a0, a1
800051a2: fa2a         	sd	a0, 0x130(sp)
800051a4: 02c16503     	lwu	a0, 0x2c(sp)
800051a8: 1502         	slli	a0, a0, 0x20
800051aa: 02816583     	lwu	a1, 0x28(sp)
800051ae: 8d4d         	or	a0, a0, a1
800051b0: f62a         	sd	a0, 0x128(sp)
800051b2: 1888         	addi	a0, sp, 0x70
800051b4: 122c         	addi	a1, sp, 0x128
800051b6: 00001097     	auipc	ra, 0x1
800051ba: a28080e7     	jalr	-0x5d8(ra) <core::array::iter::_$LT$impl$u20$core..iter..traits..collect..IntoIterator$u20$for$u20$$u5b$T$u3b$$u20$N$u5d$$GT$::into_iter::hacda5921248d5f15>
800051be: 750a         	ld	a0, 0xa0(sp)
800051c0: edaa         	sd	a0, 0xd8(sp)
800051c2: 656a         	ld	a0, 0x98(sp)
800051c4: e9aa         	sd	a0, 0xd0(sp)
800051c6: 654a         	ld	a0, 0x90(sp)
800051c8: e5aa         	sd	a0, 0xc8(sp)
800051ca: 652a         	ld	a0, 0x88(sp)
800051cc: e1aa         	sd	a0, 0xc0(sp)
800051ce: 650a         	ld	a0, 0x80(sp)
800051d0: fd2a         	sd	a0, 0xb8(sp)
800051d2: 7566         	ld	a0, 0x78(sp)
800051d4: f92a         	sd	a0, 0xb0(sp)
800051d6: 7546         	ld	a0, 0x70(sp)
800051d8: f52a         	sd	a0, 0xa8(sp)
800051da: a009         	j	0x800051dc <_$LT$lab4_kernel_task3..PteFlags$u20$as$u20$core..fmt..Display$GT$::fmt::h7686b8ac9dd87f81+0x17a>
800051dc: 1128         	addi	a0, sp, 0xa8
800051de: 00001097     	auipc	ra, 0x1
800051e2: abc080e7     	jalr	-0x544(ra) <_$LT$core..array..iter..IntoIter$LT$T$C$_$GT$$u20$as$u20$core..iter..traits..iterator..Iterator$GT$::next::hdeb5933ee61023fb>
800051e6: d1aa         	sw	a0, 0xe0(sp)
800051e8: 550e         	lw	a0, 0xe0(sp)
800051ea: 001105b7     	lui	a1, 0x110
800051ee: 04b50863     	beq	a0, a1, 0x8000523e <.Lpcrel_hi553+0x30>
800051f2: a009         	j	0x800051f4 <_$LT$lab4_kernel_task3..PteFlags$u20$as$u20$core..fmt..Display$GT$::fmt::h7686b8ac9dd87f81+0x192>
800051f4: 550e         	lw	a0, 0xe0(sp)
800051f6: d3aa         	sw	a0, 0xe4(sp)
800051f8: 11cc         	addi	a1, sp, 0xe4
800051fa: eaae         	sd	a1, 0x150(sp)
800051fc: 19a8         	addi	a0, sp, 0xf8
800051fe: ffffb097     	auipc	ra, 0xffffb
80005202: 204080e7     	jalr	0x204(ra) <core::fmt::rt::Argument::new_display::h07b89be142c07e02>
80005206: 6512         	ld	a0, 0x100(sp)
80005208: f9aa         	sd	a0, 0xf0(sp)
8000520a: 756e         	ld	a0, 0xf8(sp)
8000520c: f5aa         	sd	a0, 0xe8(sp)

000000008000520e <.Lpcrel_hi553>:
8000520e: 00002517     	auipc	a0, 0x2
80005212: fa850513     	addi	a0, a0, -0x58
80005216: 11ac         	addi	a1, sp, 0xe8
80005218: 00000097     	auipc	ra, 0x0
8000521c: 712080e7     	jalr	0x712(ra) <core::fmt::Arguments::new::h9c3b509d8fbc0677>
80005220: 862a         	mv	a2, a0
80005222: 6542         	ld	a0, 0x10(sp)
80005224: e432         	sd	a2, 0x8(sp)
80005226: 862e         	mv	a2, a1
80005228: 65a2         	ld	a1, 0x8(sp)
8000522a: ffffb097     	auipc	ra, 0xffffb
8000522e: 756080e7     	jalr	0x756(ra) <core::fmt::Formatter::write_fmt::h4c92294faa6210ea>
80005232: ffffb097     	auipc	ra, 0xffffb
80005236: 0a0080e7     	jalr	0xa0(ra) <_$LT$core..result..Result$LT$T$C$E$GT$$u20$as$u20$core..ops..try_trait..Try$GT$::branch::hbfd69c7e43480f6b>
8000523a: e105         	bnez	a0, 0x8000525a <.Lpcrel_hi554>
8000523c: b745         	j	0x800051dc <_$LT$lab4_kernel_task3..PteFlags$u20$as$u20$core..fmt..Display$GT$::fmt::h7686b8ac9dd87f81+0x17a>
8000523e: 1128         	addi	a0, sp, 0xa8
80005240: ffffb097     	auipc	ra, 0xffffb
80005244: 0fc080e7     	jalr	0xfc(ra) <core::ptr::drop_in_place$LT$core..array..iter..IntoIter$LT$char$C$9_usize$GT$$GT$::h3164e7b4d4c6c638>
80005248: 4501         	li	a0, 0x0
8000524a: 02a103a3     	sb	a0, 0x27(sp)
8000524e: a009         	j	0x80005250 <.Lpcrel_hi553+0x42>
80005250: 02714503     	lbu	a0, 0x27(sp)
80005254: 60f6         	ld	ra, 0x158(sp)
80005256: 6135         	addi	sp, sp, 0x160
80005258: 8082         	ret

000000008000525a <.Lpcrel_hi554>:
8000525a: 00004517     	auipc	a0, 0x4
8000525e: a2650513     	addi	a0, a0, -0x5da
80005262: ffffb097     	auipc	ra, 0xffffb
80005266: 068080e7     	jalr	0x68(ra) <_$LT$core..result..Result$LT$T$C$F$GT$$u20$as$u20$core..ops..try_trait..FromResidual$LT$core..result..Result$LT$core..convert..Infallible$C$E$GT$$GT$$GT$::from_residual::h71d8eba1a2ab293f>
8000526a: 02a103a3     	sb	a0, 0x27(sp)
8000526e: 1128         	addi	a0, sp, 0xa8
80005270: ffffb097     	auipc	ra, 0xffffb
80005274: 0cc080e7     	jalr	0xcc(ra) <core::ptr::drop_in_place$LT$core..array..iter..IntoIter$LT$char$C$9_usize$GT$$GT$::h3164e7b4d4c6c638>
80005278: bfe1         	j	0x80005250 <.Lpcrel_hi553+0x42>

000000008000527a <_$LT$lab4_kernel_task3..WalkResult$u20$as$u20$lab4_kernel_task3..WalkPaExt$GT$::leaf_pte_to_pa::h5de46868ded8ad10>:
8000527a: 1141         	addi	sp, sp, -0x10
8000527c: e406         	sd	ra, 0x8(sp)
8000527e: 7d08         	ld	a0, 0x38(a0)
80005280: 00000097     	auipc	ra, 0x0
80005284: d20080e7     	jalr	-0x2e0(ra) <lab4_kernel_task3::pte_to_pa::h5acd02dcfb8b5338>
80005288: 60a2         	ld	ra, 0x8(sp)
8000528a: 0141         	addi	sp, sp, 0x10
8000528c: 8082         	ret

000000008000528e <handle_machine_trap>:
8000528e: 7171         	addi	sp, sp, -0xb0
80005290: f506         	sd	ra, 0xa8(sp)
80005292: e42a         	sd	a0, 0x8(sp)
80005294: f12a         	sd	a0, 0xa0(sp)
80005296: ffffc097     	auipc	ra, 0xffffc
8000529a: b5a080e7     	jalr	-0x4a6(ra) <lab4_kernel_task3::read_mcause::h6cb2e13ca52b85a5>
8000529e: 85aa         	mv	a1, a0
800052a0: 6522         	ld	a0, 0x8(sp)
800052a2: f82e         	sd	a1, 0x30(sp)
800052a4: 0f850513     	addi	a0, a0, 0xf8
800052a8: e82a         	sd	a0, 0x10(sp)
800052aa: ffffc097     	auipc	ra, 0xffffc
800052ae: aaa080e7     	jalr	-0x556(ra) <lab4_kernel_task3::read_mtval::h7cf39aac5c03fe8c>
800052b2: 85aa         	mv	a1, a0
800052b4: 6542         	ld	a0, 0x10(sp)
800052b6: fc2e         	sd	a1, 0x38(sp)
800052b8: 180c         	addi	a1, sp, 0x30
800052ba: ec2e         	sd	a1, 0x18(sp)
800052bc: f02a         	sd	a0, 0x20(sp)
800052be: 1828         	addi	a0, sp, 0x38
800052c0: f42a         	sd	a0, 0x28(sp)
800052c2: 65e2         	ld	a1, 0x18(sp)
800052c4: 1888         	addi	a0, sp, 0x70
800052c6: ffffb097     	auipc	ra, 0xffffb
800052ca: 208080e7     	jalr	0x208(ra) <core::fmt::rt::Argument::new_lower_hex::hfcf8be588603c455>
800052ce: 7582         	ld	a1, 0x20(sp)
800052d0: 0108         	addi	a0, sp, 0x80
800052d2: ffffb097     	auipc	ra, 0xffffb
800052d6: 1fc080e7     	jalr	0x1fc(ra) <core::fmt::rt::Argument::new_lower_hex::hfcf8be588603c455>
800052da: 75a2         	ld	a1, 0x28(sp)
800052dc: 0908         	addi	a0, sp, 0x90
800052de: ffffb097     	auipc	ra, 0xffffb
800052e2: 1f0080e7     	jalr	0x1f0(ra) <core::fmt::rt::Argument::new_lower_hex::hfcf8be588603c455>
800052e6: 7566         	ld	a0, 0x78(sp)
800052e8: e4aa         	sd	a0, 0x48(sp)
800052ea: 7546         	ld	a0, 0x70(sp)
800052ec: e0aa         	sd	a0, 0x40(sp)
800052ee: 652a         	ld	a0, 0x88(sp)
800052f0: ecaa         	sd	a0, 0x58(sp)
800052f2: 650a         	ld	a0, 0x80(sp)
800052f4: e8aa         	sd	a0, 0x50(sp)
800052f6: 656a         	ld	a0, 0x98(sp)
800052f8: f4aa         	sd	a0, 0x68(sp)
800052fa: 654a         	ld	a0, 0x90(sp)
800052fc: f0aa         	sd	a0, 0x60(sp)

00000000800052fe <.Lpcrel_hi555>:
800052fe: 00004517     	auipc	a0, 0x4
80005302: 99a50513     	addi	a0, a0, -0x666
80005306: 008c         	addi	a1, sp, 0x40
80005308: 00000097     	auipc	ra, 0x0
8000530c: 5be080e7     	jalr	0x5be(ra) <core::fmt::Arguments::new::h1084f6a110c99a04>
80005310: ffffb097     	auipc	ra, 0xffffb
80005314: e82080e7     	jalr	-0x17e(ra) <lab4_kernel_task3::console::print::h3e60aa2d39f23b20>
80005318: 4505         	li	a0, 0x1
8000531a: 00000097     	auipc	ra, 0x0
8000531e: c92080e7     	jalr	-0x36e(ra) <lab4_kernel_task3::qemu_exit::hbc34671da0810e27>

0000000080005322 <handle_supervisor_trap>:
80005322: c8010113     	addi	sp, sp, -0x380
80005326: 36113c23     	sd	ra, 0x378(sp)
8000532a: f02a         	sd	a0, 0x20(sp)
8000532c: 36a13423     	sd	a0, 0x368(sp)

0000000080005330 <.Lpcrel_hi556>:
80005330: 00005517     	auipc	a0, 0x5
80005334: d1050513     	addi	a0, a0, -0x2f0
80005338: cd1d         	beqz	a0, 0x80005376 <.Lpcrel_hi558>
8000533a: a009         	j	0x8000533c <.Lpcrel_hi557>

000000008000533c <.Lpcrel_hi557>:
8000533c: 00005517     	auipc	a0, 0x5
80005340: d0450513     	addi	a0, a0, -0x2fc
80005344: 6108         	ld	a0, 0x0(a0)
80005346: f42a         	sd	a0, 0x28(sp)
80005348: ffffc097     	auipc	ra, 0xffffc
8000534c: ab6080e7     	jalr	-0x54a(ra) <lab4_kernel_task3::read_scause::hdc6ffe1885d90ca2>
80005350: f82a         	sd	a0, 0x30(sp)
80005352: ffffc097     	auipc	ra, 0xffffc
80005356: a10080e7     	jalr	-0x5f0(ra) <lab4_kernel_task3::read_stval::h464f0e4ae3eb10b9>
8000535a: 7582         	ld	a1, 0x20(sp)
8000535c: fc2a         	sd	a0, 0x38(sp)
8000535e: 0088         	addi	a0, sp, 0x40
80005360: 10000613     	li	a2, 0x100
80005364: 00002097     	auipc	ra, 0x2
80005368: b1e080e7     	jalr	-0x4e2(ra) <memcpy>
8000536c: 7522         	ld	a0, 0x28(sp)
8000536e: 4589         	li	a1, 0x2
80005370: 00b56b63     	bltu	a0, a1, 0x80005386 <.Lpcrel_hi559>
80005374: a839         	j	0x80005392 <.Lpcrel_hi559+0xc>

0000000080005376 <.Lpcrel_hi558>:
80005376: 00004517     	auipc	a0, 0x4
8000537a: 97250513     	addi	a0, a0, -0x68e
8000537e: 00002097     	auipc	ra, 0x2
80005382: 93a080e7     	jalr	-0x6c6(ra) <core::panicking::panic_null_pointer_dereference::hbac6411af4f2e916>

0000000080005386 <.Lpcrel_hi559>:
80005386: 0000a517     	auipc	a0, 0xa
8000538a: c9a50513     	addi	a0, a0, -0x366
8000538e: ed01         	bnez	a0, 0x800053a6 <.Lpcrel_hi560+0x12>
80005390: a891         	j	0x800053e4 <.Lpcrel_hi562>
80005392: 7522         	ld	a0, 0x28(sp)

0000000080005394 <.Lpcrel_hi560>:
80005394: 00004597     	auipc	a1, 0x4
80005398: 96c58613     	addi	a2, a1, -0x694
8000539c: 4589         	li	a1, 0x2
8000539e: 00002097     	auipc	ra, 0x2
800053a2: 8ae080e7     	jalr	-0x752(ra) <core::panicking::panic_bounds_check::h6aaee0d15e0261eb>
800053a6: 7522         	ld	a0, 0x28(sp)
800053a8: 00851593     	slli	a1, a0, 0x8

00000000800053ac <.Lpcrel_hi561>:
800053ac: 0000a517     	auipc	a0, 0xa
800053b0: c7450513     	addi	a0, a0, -0x38c
800053b4: 952e         	add	a0, a0, a1
800053b6: 008c         	addi	a1, sp, 0x40
800053b8: 10000613     	li	a2, 0x100
800053bc: 00002097     	auipc	ra, 0x2
800053c0: ac6080e7     	jalr	-0x53a(ra) <memcpy>
800053c4: 7542         	ld	a0, 0x30(sp)
800053c6: ec2a         	sd	a0, 0x18(sp)
800053c8: 45a1         	li	a1, 0x8
800053ca: 0cb50663     	beq	a0, a1, 0x80005496 <.Lpcrel_hi563+0x24>
800053ce: a009         	j	0x800053d0 <.Lpcrel_hi561+0x24>
800053d0: 6562         	ld	a0, 0x18(sp)
800053d2: 45b5         	li	a1, 0xd
800053d4: 0eb50263     	beq	a0, a1, 0x800054b8 <.Lpcrel_hi563+0x46>
800053d8: a009         	j	0x800053da <.Lpcrel_hi561+0x2e>
800053da: 6562         	ld	a0, 0x18(sp)
800053dc: 45bd         	li	a1, 0xf
800053de: 0cb50463     	beq	a0, a1, 0x800054a6 <.Lpcrel_hi563+0x34>
800053e2: a809         	j	0x800053f4 <.Lpcrel_hi562+0x10>

00000000800053e4 <.Lpcrel_hi562>:
800053e4: 00004517     	auipc	a0, 0x4
800053e8: 91c50513     	addi	a0, a0, -0x6e4
800053ec: 00002097     	auipc	ra, 0x2
800053f0: 8cc080e7     	jalr	-0x734(ra) <core::panicking::panic_null_pointer_dereference::hbac6411af4f2e916>
800053f4: 7502         	ld	a0, 0x20(sp)
800053f6: 0f850513     	addi	a0, a0, 0xf8
800053fa: 102c         	addi	a1, sp, 0x28
800053fc: e7ae         	sd	a1, 0x1c8(sp)
800053fe: 180c         	addi	a1, sp, 0x30
80005400: ebae         	sd	a1, 0x1d0(sp)
80005402: efaa         	sd	a0, 0x1d8(sp)
80005404: 1828         	addi	a0, sp, 0x38
80005406: f3aa         	sd	a0, 0x1e0(sp)
80005408: 65be         	ld	a1, 0x1c8(sp)
8000540a: 1428         	addi	a0, sp, 0x228
8000540c: ffffb097     	auipc	ra, 0xffffb
80005410: 018080e7     	jalr	0x18(ra) <core::fmt::rt::Argument::new_display::h2a194c625b616a7c>
80005414: 65de         	ld	a1, 0x1d0(sp)
80005416: 1c28         	addi	a0, sp, 0x238
80005418: ffffb097     	auipc	ra, 0xffffb
8000541c: 0b6080e7     	jalr	0xb6(ra) <core::fmt::rt::Argument::new_lower_hex::hfcf8be588603c455>
80005420: 65fe         	ld	a1, 0x1d8(sp)
80005422: 04a8         	addi	a0, sp, 0x248
80005424: ffffb097     	auipc	ra, 0xffffb
80005428: 0aa080e7     	jalr	0xaa(ra) <core::fmt::rt::Argument::new_lower_hex::hfcf8be588603c455>
8000542c: 759e         	ld	a1, 0x1e0(sp)
8000542e: 0ca8         	addi	a0, sp, 0x258
80005430: ffffb097     	auipc	ra, 0xffffb
80005434: 09e080e7     	jalr	0x9e(ra) <core::fmt::rt::Argument::new_lower_hex::hfcf8be588603c455>
80005438: 23013503     	ld	a0, 0x230(sp)
8000543c: fbaa         	sd	a0, 0x1f0(sp)
8000543e: 22813503     	ld	a0, 0x228(sp)
80005442: f7aa         	sd	a0, 0x1e8(sp)
80005444: 24013503     	ld	a0, 0x240(sp)
80005448: 20a13023     	sd	a0, 0x200(sp)
8000544c: 23813503     	ld	a0, 0x238(sp)
80005450: ffaa         	sd	a0, 0x1f8(sp)
80005452: 25013503     	ld	a0, 0x250(sp)
80005456: 20a13823     	sd	a0, 0x210(sp)
8000545a: 24813503     	ld	a0, 0x248(sp)
8000545e: 20a13423     	sd	a0, 0x208(sp)
80005462: 26013503     	ld	a0, 0x260(sp)
80005466: 22a13023     	sd	a0, 0x220(sp)
8000546a: 25813503     	ld	a0, 0x258(sp)
8000546e: 20a13c23     	sd	a0, 0x218(sp)

0000000080005472 <.Lpcrel_hi563>:
80005472: 00004517     	auipc	a0, 0x4
80005476: 91d50513     	addi	a0, a0, -0x6e3
8000547a: 13ac         	addi	a1, sp, 0x1e8
8000547c: 00000097     	auipc	ra, 0x0
80005480: 47c080e7     	jalr	0x47c(ra) <core::fmt::Arguments::new::h2e631a720c7a3e71>
80005484: ffffb097     	auipc	ra, 0xffffb
80005488: d0e080e7     	jalr	-0x2f2(ra) <lab4_kernel_task3::console::print::h3e60aa2d39f23b20>
8000548c: 4505         	li	a0, 0x1
8000548e: 00000097     	auipc	ra, 0x0
80005492: b1e080e7     	jalr	-0x4e2(ra) <lab4_kernel_task3::qemu_exit::hbc34671da0810e27>
80005496: 7522         	ld	a0, 0x28(sp)
80005498: ffffd097     	auipc	ra, 0xffffd
8000549c: e2c080e7     	jalr	-0x1d4(ra) <lab4_kernel_task3::handle_user_ecall::hac1e41fa7ba28f89>
800054a0: e2aa         	sd	a0, 0x140(sp)
800054a2: e6ae         	sd	a1, 0x148(sp)
800054a4: a051         	j	0x80005528 <.Lpcrel_hi564+0x24>
800054a6: 7522         	ld	a0, 0x28(sp)
800054a8: 75e2         	ld	a1, 0x38(sp)
800054aa: ffffe097     	auipc	ra, 0xffffe
800054ae: 1a2080e7     	jalr	0x1a2(ra) <lab4_kernel_task3::handle_cow_store_fault::h56ad1cb9858a6aa7>
800054b2: e2aa         	sd	a0, 0x140(sp)
800054b4: e6ae         	sd	a1, 0x148(sp)
800054b6: a88d         	j	0x80005528 <.Lpcrel_hi564+0x24>
800054b8: 7502         	ld	a0, 0x20(sp)
800054ba: 0f850513     	addi	a0, a0, 0xf8
800054be: 102c         	addi	a1, sp, 0x28
800054c0: eaae         	sd	a1, 0x150(sp)
800054c2: eeaa         	sd	a0, 0x158(sp)
800054c4: 1828         	addi	a0, sp, 0x38
800054c6: f2aa         	sd	a0, 0x160(sp)
800054c8: 65d6         	ld	a1, 0x150(sp)
800054ca: 0b28         	addi	a0, sp, 0x198
800054cc: ffffb097     	auipc	ra, 0xffffb
800054d0: f58080e7     	jalr	-0xa8(ra) <core::fmt::rt::Argument::new_display::h2a194c625b616a7c>
800054d4: 65f6         	ld	a1, 0x158(sp)
800054d6: 1328         	addi	a0, sp, 0x1a8
800054d8: ffffb097     	auipc	ra, 0xffffb
800054dc: ff6080e7     	jalr	-0xa(ra) <core::fmt::rt::Argument::new_lower_hex::hfcf8be588603c455>
800054e0: 7596         	ld	a1, 0x160(sp)
800054e2: 1b28         	addi	a0, sp, 0x1b8
800054e4: ffffb097     	auipc	ra, 0xffffb
800054e8: fea080e7     	jalr	-0x16(ra) <core::fmt::rt::Argument::new_lower_hex::hfcf8be588603c455>
800054ec: 751a         	ld	a0, 0x1a0(sp)
800054ee: faaa         	sd	a0, 0x170(sp)
800054f0: 657a         	ld	a0, 0x198(sp)
800054f2: f6aa         	sd	a0, 0x168(sp)
800054f4: 755a         	ld	a0, 0x1b0(sp)
800054f6: e32a         	sd	a0, 0x180(sp)
800054f8: 753a         	ld	a0, 0x1a8(sp)
800054fa: feaa         	sd	a0, 0x178(sp)
800054fc: 651e         	ld	a0, 0x1c0(sp)
800054fe: eb2a         	sd	a0, 0x190(sp)
80005500: 757a         	ld	a0, 0x1b8(sp)
80005502: e72a         	sd	a0, 0x188(sp)

0000000080005504 <.Lpcrel_hi564>:
80005504: 00004517     	auipc	a0, 0x4
80005508: 84450513     	addi	a0, a0, -0x7bc
8000550c: 12ac         	addi	a1, sp, 0x168
8000550e: 00000097     	auipc	ra, 0x0
80005512: 462080e7     	jalr	0x462(ra) <core::fmt::Arguments::new::he52dec7a181858df>
80005516: ffffb097     	auipc	ra, 0xffffb
8000551a: c7c080e7     	jalr	-0x384(ra) <lab4_kernel_task3::console::print::h3e60aa2d39f23b20>
8000551e: 4505         	li	a0, 0x1
80005520: 00000097     	auipc	ra, 0x0
80005524: a8c080e7     	jalr	-0x574(ra) <lab4_kernel_task3::qemu_exit::hbc34671da0810e27>
80005528: 6516         	ld	a0, 0x140(sp)
8000552a: 8905         	andi	a0, a0, 0x1
8000552c: cd01         	beqz	a0, 0x80005544 <.Lpcrel_hi565+0xc>
8000552e: a009         	j	0x80005530 <.Lpcrel_hi564+0x2c>
80005530: 6536         	ld	a0, 0x148(sp)
80005532: e82a         	sd	a0, 0x10(sp)
80005534: 36a13823     	sd	a0, 0x370(sp)

0000000080005538 <.Lpcrel_hi565>:
80005538: 00005517     	auipc	a0, 0x5
8000553c: b0850513     	addi	a0, a0, -0x4f8
80005540: e511         	bnez	a0, 0x8000554c <.Lpcrel_hi565+0x14>
80005542: a025         	j	0x8000556a <.Lpcrel_hi567>
80005544: ffffc097     	auipc	ra, 0xffffc
80005548: 3e0080e7     	jalr	0x3e0(ra) <lab4_kernel_task3::finish_experiment::h3f9c2f6d12b943e3>
8000554c: 6542         	ld	a0, 0x10(sp)

000000008000554e <.Lpcrel_hi566>:
8000554e: 00005597     	auipc	a1, 0x5
80005552: af258593     	addi	a1, a1, -0x50e
80005556: e188         	sd	a0, 0x0(a1)
80005558: ffffc097     	auipc	ra, 0xffffc
8000555c: 13c080e7     	jalr	0x13c(ra) <lab4_kernel_task3::activate_process::h9562f7948e77505c>
80005560: 6542         	ld	a0, 0x10(sp)
80005562: 4589         	li	a1, 0x2
80005564: 00b56b63     	bltu	a0, a1, 0x8000557a <.Lpcrel_hi568>
80005568: a839         	j	0x80005586 <.Lpcrel_hi568+0xc>

000000008000556a <.Lpcrel_hi567>:
8000556a: 00003517     	auipc	a0, 0x3
8000556e: 7ae50513     	addi	a0, a0, 0x7ae
80005572: 00001097     	auipc	ra, 0x1
80005576: 746080e7     	jalr	0x746(ra) <core::panicking::panic_null_pointer_dereference::hbac6411af4f2e916>

000000008000557a <.Lpcrel_hi568>:
8000557a: 0000a517     	auipc	a0, 0xa
8000557e: aa650513     	addi	a0, a0, -0x55a
80005582: ed01         	bnez	a0, 0x8000559a <.Lpcrel_hi569+0x12>
80005584: a881         	j	0x800055d4 <.Lpcrel_hi571>
80005586: 6542         	ld	a0, 0x10(sp)

0000000080005588 <.Lpcrel_hi569>:
80005588: 00003597     	auipc	a1, 0x3
8000558c: 7a858613     	addi	a2, a1, 0x7a8
80005590: 4589         	li	a1, 0x2
80005592: 00001097     	auipc	ra, 0x1
80005596: 6ba080e7     	jalr	0x6ba(ra) <core::panicking::panic_bounds_check::h6aaee0d15e0261eb>
8000559a: 6542         	ld	a0, 0x10(sp)
8000559c: 00851593     	slli	a1, a0, 0x8

00000000800055a0 <.Lpcrel_hi570>:
800055a0: 0000a517     	auipc	a0, 0xa
800055a4: a8050513     	addi	a0, a0, -0x580
800055a8: 95aa         	add	a1, a1, a0
800055aa: 14a8         	addi	a0, sp, 0x268
800055ac: e02a         	sd	a0, 0x0(sp)
800055ae: 10000613     	li	a2, 0x100
800055b2: e432         	sd	a2, 0x8(sp)
800055b4: 00002097     	auipc	ra, 0x2
800055b8: 8ce080e7     	jalr	-0x732(ra) <memcpy>
800055bc: 6582         	ld	a1, 0x0(sp)
800055be: 6622         	ld	a2, 0x8(sp)
800055c0: 7502         	ld	a0, 0x20(sp)
800055c2: 00002097     	auipc	ra, 0x2
800055c6: 8c0080e7     	jalr	-0x740(ra) <memcpy>
800055ca: 37813083     	ld	ra, 0x378(sp)
800055ce: 38010113     	addi	sp, sp, 0x380
800055d2: 8082         	ret

00000000800055d4 <.Lpcrel_hi571>:
800055d4: 00003517     	auipc	a0, 0x3
800055d8: 75c50513     	addi	a0, a0, 0x75c
800055dc: 00001097     	auipc	ra, 0x1
800055e0: 6dc080e7     	jalr	0x6dc(ra) <core::panicking::panic_null_pointer_dereference::hbac6411af4f2e916>

00000000800055e4 <start_machine>:
800055e4: 1141         	addi	sp, sp, -0x10
800055e6: e406         	sd	ra, 0x8(sp)
800055e8: 00000097     	auipc	ra, 0x0
800055ec: 89e080e7     	jalr	-0x762(ra) <lab4_kernel_task3::clear_bss::h0d1a30ed3db99c27>
800055f0: ffffc097     	auipc	ra, 0xffffc
800055f4: f34080e7     	jalr	-0xcc(ra) <lab4_kernel_task3::configure_pmp::h172c794fb11a74e4>
800055f8: ffffb097     	auipc	ra, 0xffffb
800055fc: a4a080e7     	jalr	-0x5b6(ra) <lab4_kernel_task3::trap::init_machine_trap_vector::h6ef413766500199f>
80005600: fffff097     	auipc	ra, 0xfffff
80005604: c50080e7     	jalr	-0x3b0(ra) <lab4_kernel_task3::delegate_user_exceptions_to_supervisor::hefc9fa7fe3ef041b>
80005608: ffffe097     	auipc	ra, 0xffffe
8000560c: 728080e7     	jalr	0x728(ra) <lab4_kernel_task3::machine_trap_stack_top::h49af9bedde830a37>
80005610: 34051073     	csrw	mscratch, a0
80005614: ffffc097     	auipc	ra, 0xffffc
80005618: 254080e7     	jalr	0x254(ra) <lab4_kernel_task3::kernel_stack_top::hbb75d91c6e884453>
8000561c: 85aa         	mv	a1, a0

000000008000561e <.Lpcrel_hi572>:
8000561e: 00000517     	auipc	a0, 0x0
80005622: 01050513     	addi	a0, a0, 0x10
80005626: ffffb097     	auipc	ra, 0xffffb
8000562a: 3ca080e7     	jalr	0x3ca(ra) <enter_supervisor>

000000008000562e <start_supervisor>:
8000562e: 7101         	addi	sp, sp, -0x200
80005630: ff86         	sd	ra, 0x1f8(sp)
80005632: ffffb097     	auipc	ra, 0xffffb
80005636: a1e080e7     	jalr	-0x5e2(ra) <lab4_kernel_task3::trap::init_supervisor_trap_vector::ha0bdf179e93b9cf3>
8000563a: 00000097     	auipc	ra, 0x0
8000563e: 8ce080e7     	jalr	-0x732(ra) <lab4_kernel_task3::clear_sum::h164ecb28a2fdef10>
80005642: ffffd097     	auipc	ra, 0xffffd
80005646: 63c080e7     	jalr	0x63c(ra) <lab4_kernel_task3::initialize_runtime::h979ab3d37d54f8df>

000000008000564a <.Lpcrel_hi573>:
8000564a: 00003517     	auipc	a0, 0x3
8000564e: 79a50513     	addi	a0, a0, 0x79a
80005652: 02c00593     	li	a1, 0x2c
80005656: ffffb097     	auipc	ra, 0xffffb
8000565a: 31c080e7     	jalr	0x31c(ra) <core::fmt::Arguments::from_str::h68cb319195cd7286>
8000565e: ffffb097     	auipc	ra, 0xffffb
80005662: b34080e7     	jalr	-0x4cc(ra) <lab4_kernel_task3::console::print::h3e60aa2d39f23b20>

0000000080005666 <.Lpcrel_hi574>:
80005666: 00003517     	auipc	a0, 0x3
8000566a: 7aa50513     	addi	a0, a0, 0x7aa
8000566e: 02e00593     	li	a1, 0x2e
80005672: ffffb097     	auipc	ra, 0xffffb
80005676: 300080e7     	jalr	0x300(ra) <core::fmt::Arguments::from_str::h68cb319195cd7286>
8000567a: ffffb097     	auipc	ra, 0xffffb
8000567e: b18080e7     	jalr	-0x4e8(ra) <lab4_kernel_task3::console::print::h3e60aa2d39f23b20>

0000000080005682 <.Lpcrel_hi575>:
80005682: 00003517     	auipc	a0, 0x3
80005686: 7bc50513     	addi	a0, a0, 0x7bc
8000568a: 08c00593     	li	a1, 0x8c
8000568e: ffffb097     	auipc	ra, 0xffffb
80005692: 2e4080e7     	jalr	0x2e4(ra) <core::fmt::Arguments::from_str::h68cb319195cd7286>
80005696: ffffb097     	auipc	ra, 0xffffb
8000569a: afc080e7     	jalr	-0x504(ra) <lab4_kernel_task3::console::print::h3e60aa2d39f23b20>

000000008000569e <.Lpcrel_hi576>:
8000569e: 00005517     	auipc	a0, 0x5
800056a2: 9aa50513     	addi	a0, a0, -0x656
800056a6: c971         	beqz	a0, 0x8000577a <.Lpcrel_hi579>
800056a8: a009         	j	0x800056aa <.Lpcrel_hi577>

00000000800056aa <.Lpcrel_hi577>:
800056aa: 00005517     	auipc	a0, 0x5
800056ae: 99e50513     	addi	a0, a0, -0x662
800056b2: 6508         	ld	a0, 0x8(a0)
800056b4: e4aa         	sd	a0, 0x48(sp)
800056b6: 4501         	li	a0, 0x0
800056b8: f02a         	sd	a0, 0x20(sp)
800056ba: ffffe097     	auipc	ra, 0xffffe
800056be: a7e080e7     	jalr	-0x582(ra) <lab4_kernel_task3::proc_root_table_pa::h28443d1d2818f10a>
800056c2: e8aa         	sd	a0, 0x50(sp)
800056c4: 00ac         	addi	a1, sp, 0x48
800056c6: f7ae         	sd	a1, 0x1e8(sp)
800056c8: 0888         	addi	a0, sp, 0x50
800056ca: e42a         	sd	a0, 0x8(sp)
800056cc: fbaa         	sd	a0, 0x1f0(sp)
800056ce: 18a8         	addi	a0, sp, 0x78
800056d0: ffffb097     	auipc	ra, 0xffffb
800056d4: dfe080e7     	jalr	-0x202(ra) <core::fmt::rt::Argument::new_lower_hex::hfcf8be588603c455>
800056d8: 65a2         	ld	a1, 0x8(sp)
800056da: 0128         	addi	a0, sp, 0x88
800056dc: ffffb097     	auipc	ra, 0xffffb
800056e0: df2080e7     	jalr	-0x20e(ra) <core::fmt::rt::Argument::new_lower_hex::hfcf8be588603c455>
800056e4: 650a         	ld	a0, 0x80(sp)
800056e6: f0aa         	sd	a0, 0x60(sp)
800056e8: 7566         	ld	a0, 0x78(sp)
800056ea: ecaa         	sd	a0, 0x58(sp)
800056ec: 654a         	ld	a0, 0x90(sp)
800056ee: f8aa         	sd	a0, 0x70(sp)
800056f0: 652a         	ld	a0, 0x88(sp)
800056f2: f4aa         	sd	a0, 0x68(sp)

00000000800056f4 <.Lpcrel_hi578>:
800056f4: 00003517     	auipc	a0, 0x3
800056f8: 7f450513     	addi	a0, a0, 0x7f4
800056fc: 08ac         	addi	a1, sp, 0x58
800056fe: 00000097     	auipc	ra, 0x0
80005702: 27c080e7     	jalr	0x27c(ra) <core::fmt::Arguments::new::hf380b8792ef8cfa0>
80005706: ffffb097     	auipc	ra, 0xffffb
8000570a: a8c080e7     	jalr	-0x574(ra) <lab4_kernel_task3::console::print::h3e60aa2d39f23b20>
8000570e: 7582         	ld	a1, 0x20(sp)
80005710: 1928         	addi	a0, sp, 0xb8
80005712: e82a         	sd	a0, 0x10(sp)
80005714: 00401637     	lui	a2, 0x401
80005718: f432         	sd	a2, 0x28(sp)
8000571a: ffffd097     	auipc	ra, 0xffffd
8000571e: 0a4080e7     	jalr	0xa4(ra) <lab4_kernel_task3::walk_proc_virtual::h08c829cfb27276f9>
80005722: 6542         	ld	a0, 0x10(sp)
80005724: 00000097     	auipc	ra, 0x0
80005728: b56080e7     	jalr	-0x4aa(ra) <_$LT$lab4_kernel_task3..WalkResult$u20$as$u20$lab4_kernel_task3..WalkPaExt$GT$::leaf_pte_to_pa::h5de46868ded8ad10>
8000572c: 7582         	ld	a1, 0x20(sp)
8000572e: 7622         	ld	a2, 0x28(sp)
80005730: f92a         	sd	a0, 0xb0(sp)
80005732: 0208         	addi	a0, sp, 0x100
80005734: ec2a         	sd	a0, 0x18(sp)
80005736: ffffd097     	auipc	ra, 0xffffd
8000573a: 088080e7     	jalr	0x88(ra) <lab4_kernel_task3::walk_proc_virtual::h08c829cfb27276f9>
8000573e: 6562         	ld	a0, 0x18(sp)
80005740: 00000097     	auipc	ra, 0x0
80005744: b3a080e7     	jalr	-0x4c6(ra) <_$LT$lab4_kernel_task3..WalkResult$u20$as$u20$lab4_kernel_task3..WalkPaExt$GT$::leaf_pte_to_pa::h5de46868ded8ad10>
80005748: ffffd097     	auipc	ra, 0xffffd
8000574c: 4d2080e7     	jalr	0x4d2(ra) <lab4_kernel_task3::data_page_refcount::hb6e760d9cb0a8983>
80005750: 7582         	ld	a1, 0x20(sp)
80005752: 7622         	ld	a2, 0x28(sp)
80005754: fdaa         	sd	a0, 0xf8(sp)
80005756: 02a8         	addi	a0, sp, 0x148
80005758: f82a         	sd	a0, 0x30(sp)
8000575a: ffffd097     	auipc	ra, 0xffffd
8000575e: 064080e7     	jalr	0x64(ra) <lab4_kernel_task3::walk_proc_virtual::h08c829cfb27276f9>
80005762: 7542         	ld	a0, 0x30(sp)
80005764: 00000097     	auipc	ra, 0x0
80005768: b16080e7     	jalr	-0x4ea(ra) <_$LT$lab4_kernel_task3..WalkResult$u20$as$u20$lab4_kernel_task3..WalkPaExt$GT$::leaf_pte_to_pa::h5de46868ded8ad10>
8000576c: 85aa         	mv	a1, a0
8000576e: fc2e         	sd	a1, 0x38(sp)
80005770: 85aa         	mv	a1, a0
80005772: e0ae         	sd	a1, 0x40(sp)
80005774: 891d         	andi	a0, a0, 0x7
80005776: c911         	beqz	a0, 0x8000578a <.Lpcrel_hi579+0x10>
80005778: a821         	j	0x80005790 <.Lpcrel_hi579+0x16>

000000008000577a <.Lpcrel_hi579>:
8000577a: 00003517     	auipc	a0, 0x3
8000577e: 75650513     	addi	a0, a0, 0x756
80005782: 00001097     	auipc	ra, 0x1
80005786: 536080e7     	jalr	0x536(ra) <core::panicking::panic_null_pointer_dereference::hbac6411af4f2e916>
8000578a: 7562         	ld	a0, 0x38(sp)
8000578c: ed01         	bnez	a0, 0x800057a4 <.Lpcrel_hi580+0x12>
8000578e: a07d         	j	0x8000583c <.Lpcrel_hi584>
80005790: 6586         	ld	a1, 0x40(sp)

0000000080005792 <.Lpcrel_hi580>:
80005792: 00003517     	auipc	a0, 0x3
80005796: 78650613     	addi	a2, a0, 0x786
8000579a: 4521         	li	a0, 0x8
8000579c: 00001097     	auipc	ra, 0x1
800057a0: 53c080e7     	jalr	0x53c(ra) <core::panicking::panic_misaligned_pointer_dereference::hda85f7fb51d959f0>
800057a4: 7562         	ld	a0, 0x38(sp)
800057a6: 6108         	ld	a0, 0x0(a0)
800057a8: e2aa         	sd	a0, 0x140(sp)
800057aa: 1908         	addi	a0, sp, 0xb0
800057ac: ed2a         	sd	a0, 0x98(sp)
800057ae: 19a8         	addi	a0, sp, 0xf8
800057b0: f12a         	sd	a0, 0xa0(sp)
800057b2: 0288         	addi	a0, sp, 0x140
800057b4: f52a         	sd	a0, 0xa8(sp)
800057b6: 65ea         	ld	a1, 0x98(sp)
800057b8: 1b28         	addi	a0, sp, 0x1b8
800057ba: ffffb097     	auipc	ra, 0xffffb
800057be: d14080e7     	jalr	-0x2ec(ra) <core::fmt::rt::Argument::new_lower_hex::hfcf8be588603c455>
800057c2: 758a         	ld	a1, 0xa0(sp)
800057c4: 03a8         	addi	a0, sp, 0x1c8
800057c6: ffffb097     	auipc	ra, 0xffffb
800057ca: c5e080e7     	jalr	-0x3a2(ra) <core::fmt::rt::Argument::new_display::h2a194c625b616a7c>
800057ce: 75aa         	ld	a1, 0xa8(sp)
800057d0: 0ba8         	addi	a0, sp, 0x1d8
800057d2: ffffb097     	auipc	ra, 0xffffb
800057d6: cda080e7     	jalr	-0x326(ra) <core::fmt::rt::Argument::new_lower_hex::hc3d6cd349d9eaed3>
800057da: 651e         	ld	a0, 0x1c0(sp)
800057dc: eb2a         	sd	a0, 0x190(sp)
800057de: 757a         	ld	a0, 0x1b8(sp)
800057e0: e72a         	sd	a0, 0x188(sp)
800057e2: 655e         	ld	a0, 0x1d0(sp)
800057e4: f32a         	sd	a0, 0x1a0(sp)
800057e6: 653e         	ld	a0, 0x1c8(sp)
800057e8: ef2a         	sd	a0, 0x198(sp)
800057ea: 751e         	ld	a0, 0x1e0(sp)
800057ec: fb2a         	sd	a0, 0x1b0(sp)
800057ee: 657e         	ld	a0, 0x1d8(sp)
800057f0: f72a         	sd	a0, 0x1a8(sp)

00000000800057f2 <.Lpcrel_hi581>:
800057f2: 00003517     	auipc	a0, 0x3
800057f6: 73e50513     	addi	a0, a0, 0x73e
800057fa: 032c         	addi	a1, sp, 0x188
800057fc: 00000097     	auipc	ra, 0x0
80005800: 174080e7     	jalr	0x174(ra) <core::fmt::Arguments::new::he52dec7a181858df>
80005804: ffffb097     	auipc	ra, 0xffffb
80005808: 98e080e7     	jalr	-0x672(ra) <lab4_kernel_task3::console::print::h3e60aa2d39f23b20>

000000008000580c <.Lpcrel_hi582>:
8000580c: 00003517     	auipc	a0, 0x3
80005810: 76b50513     	addi	a0, a0, 0x76b
80005814: 45dd         	li	a1, 0x17
80005816: 4601         	li	a2, 0x0
80005818: 004016b7     	lui	a3, 0x401
8000581c: ffffb097     	auipc	ra, 0xffffb
80005820: 4f4080e7     	jalr	0x4f4(ra) <lab4_kernel_task3::print_walk::h2184069fbc37da8e>
80005824: ffffe097     	auipc	ra, 0xffffe
80005828: 696080e7     	jalr	0x696(ra) <lab4_kernel_task3::supervisor_trap_stack_top::h07df21977182b0fc>
8000582c: 14051073     	csrw	sscratch, a0

0000000080005830 <.Lpcrel_hi583>:
80005830: 00005517     	auipc	a0, 0x5
80005834: 81050513     	addi	a0, a0, -0x7f0
80005838: e911         	bnez	a0, 0x8000584c <.Lpcrel_hi585>
8000583a: a081         	j	0x8000587a <.Lpcrel_hi587>

000000008000583c <.Lpcrel_hi584>:
8000583c: 00003517     	auipc	a0, 0x3
80005840: 6dc50513     	addi	a0, a0, 0x6dc
80005844: 00001097     	auipc	ra, 0x1
80005848: 474080e7     	jalr	0x474(ra) <core::panicking::panic_null_pointer_dereference::hbac6411af4f2e916>

000000008000584c <.Lpcrel_hi585>:
8000584c: 00004517     	auipc	a0, 0x4
80005850: 7f450593     	addi	a1, a0, 0x7f4
80005854: 4501         	li	a0, 0x0
80005856: e188         	sd	a0, 0x0(a1)
80005858: ffffc097     	auipc	ra, 0xffffc
8000585c: e3c080e7     	jalr	-0x1c4(ra) <lab4_kernel_task3::activate_process::h9562f7948e77505c>
80005860: ffffe097     	auipc	ra, 0xffffe
80005864: 65a080e7     	jalr	0x65a(ra) <lab4_kernel_task3::supervisor_trap_stack_top::h07df21977182b0fc>
80005868: 85aa         	mv	a1, a0

000000008000586a <.Lpcrel_hi586>:
8000586a: 00009517     	auipc	a0, 0x9
8000586e: 7b650513     	addi	a0, a0, 0x7b6
80005872: ffffb097     	auipc	ra, 0xffffb
80005876: 1a4080e7     	jalr	0x1a4(ra) <enter_user_task>

000000008000587a <.Lpcrel_hi587>:
8000587a: 00003517     	auipc	a0, 0x3
8000587e: 71650513     	addi	a0, a0, 0x716
80005882: 00001097     	auipc	ra, 0x1
80005886: 436080e7     	jalr	0x436(ra) <core::panicking::panic_null_pointer_dereference::hbac6411af4f2e916>

000000008000588a <_$LT$$RF$T$u20$as$u20$core..fmt..Display$GT$::fmt::h0704ed5c69eeecc0>:
8000588a: 1101         	addi	sp, sp, -0x20
8000588c: ec06         	sd	ra, 0x18(sp)
8000588e: 862e         	mv	a2, a1
80005890: 85aa         	mv	a1, a0
80005892: e42e         	sd	a1, 0x8(sp)
80005894: e832         	sd	a2, 0x10(sp)
80005896: 6188         	ld	a0, 0x0(a1)
80005898: 658c         	ld	a1, 0x8(a1)
8000589a: 00000097     	auipc	ra, 0x0
8000589e: 518080e7     	jalr	0x518(ra) <_$LT$str$u20$as$u20$core..fmt..Display$GT$::fmt::h53474d83e2b0968b>
800058a2: 60e2         	ld	ra, 0x18(sp)
800058a4: 6105         	addi	sp, sp, 0x20
800058a6: 8082         	ret

00000000800058a8 <core::fmt::Arguments::new::h007d18c3612116ac>:
800058a8: 1141         	addi	sp, sp, -0x10
800058aa: e02a         	sd	a0, 0x0(sp)
800058ac: e42e         	sd	a1, 0x8(sp)
800058ae: 0141         	addi	sp, sp, 0x10
800058b0: 8082         	ret

00000000800058b2 <core::fmt::Arguments::new::h0237316099f5c63c>:
800058b2: 1141         	addi	sp, sp, -0x10
800058b4: e02a         	sd	a0, 0x0(sp)
800058b6: e42e         	sd	a1, 0x8(sp)
800058b8: 0141         	addi	sp, sp, 0x10
800058ba: 8082         	ret

00000000800058bc <core::fmt::Arguments::new::h068db72f8c8acc24>:
800058bc: 1141         	addi	sp, sp, -0x10
800058be: e02a         	sd	a0, 0x0(sp)
800058c0: e42e         	sd	a1, 0x8(sp)
800058c2: 0141         	addi	sp, sp, 0x10
800058c4: 8082         	ret

00000000800058c6 <core::fmt::Arguments::new::h1084f6a110c99a04>:
800058c6: 1141         	addi	sp, sp, -0x10
800058c8: e02a         	sd	a0, 0x0(sp)
800058ca: e42e         	sd	a1, 0x8(sp)
800058cc: 0141         	addi	sp, sp, 0x10
800058ce: 8082         	ret

00000000800058d0 <core::fmt::Arguments::new::h1279a08116ab2e05>:
800058d0: 1141         	addi	sp, sp, -0x10
800058d2: e02a         	sd	a0, 0x0(sp)
800058d4: e42e         	sd	a1, 0x8(sp)
800058d6: 0141         	addi	sp, sp, 0x10
800058d8: 8082         	ret

00000000800058da <core::fmt::Arguments::new::h2307f0b39accd34b>:
800058da: 1141         	addi	sp, sp, -0x10
800058dc: e02a         	sd	a0, 0x0(sp)
800058de: e42e         	sd	a1, 0x8(sp)
800058e0: 0141         	addi	sp, sp, 0x10
800058e2: 8082         	ret

00000000800058e4 <core::fmt::Arguments::new::h2480394a9cf89832>:
800058e4: 1141         	addi	sp, sp, -0x10
800058e6: e02a         	sd	a0, 0x0(sp)
800058e8: e42e         	sd	a1, 0x8(sp)
800058ea: 0141         	addi	sp, sp, 0x10
800058ec: 8082         	ret

00000000800058ee <core::fmt::Arguments::new::h24ec93357d5a2ad3>:
800058ee: 1141         	addi	sp, sp, -0x10
800058f0: e02a         	sd	a0, 0x0(sp)
800058f2: e42e         	sd	a1, 0x8(sp)
800058f4: 0141         	addi	sp, sp, 0x10
800058f6: 8082         	ret

00000000800058f8 <core::fmt::Arguments::new::h2e631a720c7a3e71>:
800058f8: 1141         	addi	sp, sp, -0x10
800058fa: e02a         	sd	a0, 0x0(sp)
800058fc: e42e         	sd	a1, 0x8(sp)
800058fe: 0141         	addi	sp, sp, 0x10
80005900: 8082         	ret

0000000080005902 <core::fmt::Arguments::new::h419264148e77065f>:
80005902: 1141         	addi	sp, sp, -0x10
80005904: e02a         	sd	a0, 0x0(sp)
80005906: e42e         	sd	a1, 0x8(sp)
80005908: 0141         	addi	sp, sp, 0x10
8000590a: 8082         	ret

000000008000590c <core::fmt::Arguments::new::h5720a0953a35f9c3>:
8000590c: 1141         	addi	sp, sp, -0x10
8000590e: e02a         	sd	a0, 0x0(sp)
80005910: e42e         	sd	a1, 0x8(sp)
80005912: 0141         	addi	sp, sp, 0x10
80005914: 8082         	ret

0000000080005916 <core::fmt::Arguments::new::h642938835a2db26b>:
80005916: 1141         	addi	sp, sp, -0x10
80005918: e02a         	sd	a0, 0x0(sp)
8000591a: e42e         	sd	a1, 0x8(sp)
8000591c: 0141         	addi	sp, sp, 0x10
8000591e: 8082         	ret

0000000080005920 <core::fmt::Arguments::new::h7ec3e27f361148b5>:
80005920: 1141         	addi	sp, sp, -0x10
80005922: e02a         	sd	a0, 0x0(sp)
80005924: e42e         	sd	a1, 0x8(sp)
80005926: 0141         	addi	sp, sp, 0x10
80005928: 8082         	ret

000000008000592a <core::fmt::Arguments::new::h9c3b509d8fbc0677>:
8000592a: 1141         	addi	sp, sp, -0x10
8000592c: e02a         	sd	a0, 0x0(sp)
8000592e: e42e         	sd	a1, 0x8(sp)
80005930: 0141         	addi	sp, sp, 0x10
80005932: 8082         	ret

0000000080005934 <core::fmt::Arguments::new::ha63d7435c25a79f8>:
80005934: 1141         	addi	sp, sp, -0x10
80005936: e02a         	sd	a0, 0x0(sp)
80005938: e42e         	sd	a1, 0x8(sp)
8000593a: 0141         	addi	sp, sp, 0x10
8000593c: 8082         	ret

000000008000593e <core::fmt::Arguments::new::hb50ff9ae643d09a6>:
8000593e: 1141         	addi	sp, sp, -0x10
80005940: e02a         	sd	a0, 0x0(sp)
80005942: e42e         	sd	a1, 0x8(sp)
80005944: 0141         	addi	sp, sp, 0x10
80005946: 8082         	ret

0000000080005948 <core::fmt::Arguments::new::hd13ed8d58b0ddb31>:
80005948: 1141         	addi	sp, sp, -0x10
8000594a: e02a         	sd	a0, 0x0(sp)
8000594c: e42e         	sd	a1, 0x8(sp)
8000594e: 0141         	addi	sp, sp, 0x10
80005950: 8082         	ret

0000000080005952 <core::fmt::Arguments::new::hd92b9cc1483412c6>:
80005952: 1141         	addi	sp, sp, -0x10
80005954: e02a         	sd	a0, 0x0(sp)
80005956: e42e         	sd	a1, 0x8(sp)
80005958: 0141         	addi	sp, sp, 0x10
8000595a: 8082         	ret

000000008000595c <core::fmt::Arguments::new::hdb56987c4114aff0>:
8000595c: 1141         	addi	sp, sp, -0x10
8000595e: e02a         	sd	a0, 0x0(sp)
80005960: e42e         	sd	a1, 0x8(sp)
80005962: 0141         	addi	sp, sp, 0x10
80005964: 8082         	ret

0000000080005966 <core::fmt::Arguments::new::hdfcb82c6ed86294c>:
80005966: 1141         	addi	sp, sp, -0x10
80005968: e02a         	sd	a0, 0x0(sp)
8000596a: e42e         	sd	a1, 0x8(sp)
8000596c: 0141         	addi	sp, sp, 0x10
8000596e: 8082         	ret

0000000080005970 <core::fmt::Arguments::new::he52dec7a181858df>:
80005970: 1141         	addi	sp, sp, -0x10
80005972: e02a         	sd	a0, 0x0(sp)
80005974: e42e         	sd	a1, 0x8(sp)
80005976: 0141         	addi	sp, sp, 0x10
80005978: 8082         	ret

000000008000597a <core::fmt::Arguments::new::hf380b8792ef8cfa0>:
8000597a: 1141         	addi	sp, sp, -0x10
8000597c: e02a         	sd	a0, 0x0(sp)
8000597e: e42e         	sd	a1, 0x8(sp)
80005980: 0141         	addi	sp, sp, 0x10
80005982: 8082         	ret

0000000080005984 <core::fmt::Arguments::new::hf4580589943d78b2>:
80005984: 1141         	addi	sp, sp, -0x10
80005986: e02a         	sd	a0, 0x0(sp)
80005988: e42e         	sd	a1, 0x8(sp)
8000598a: 0141         	addi	sp, sp, 0x10
8000598c: 8082         	ret

000000008000598e <core::slice::raw::from_raw_parts::h7d46cb51b76edcd6>:
8000598e: 7179         	addi	sp, sp, -0x30
80005990: f406         	sd	ra, 0x28(sp)
80005992: e032         	sd	a2, 0x0(sp)
80005994: e42e         	sd	a1, 0x8(sp)
80005996: e82a         	sd	a0, 0x10(sp)
80005998: ec2a         	sd	a0, 0x18(sp)
8000599a: f02e         	sd	a1, 0x20(sp)
8000599c: a009         	j	0x8000599e <core::slice::raw::from_raw_parts::h7d46cb51b76edcd6+0x10>
8000599e: 6702         	ld	a4, 0x0(sp)
800059a0: 66a2         	ld	a3, 0x8(sp)
800059a2: 6542         	ld	a0, 0x10(sp)
800059a4: 4605         	li	a2, 0x1
800059a6: 85b2         	mv	a1, a2
800059a8: 00000097     	auipc	ra, 0x0
800059ac: 074080e7     	jalr	0x74(ra) <core::slice::raw::from_raw_parts::precondition_check::hefd6e2a553250e17>
800059b0: a009         	j	0x800059b2 <core::slice::raw::from_raw_parts::h7d46cb51b76edcd6+0x24>
800059b2: 65a2         	ld	a1, 0x8(sp)
800059b4: 6542         	ld	a0, 0x10(sp)
800059b6: 70a2         	ld	ra, 0x28(sp)
800059b8: 6145         	addi	sp, sp, 0x30
800059ba: 8082         	ret

00000000800059bc <core::ptr::write_volatile::h1b15b7f648f18a44>:
800059bc: 7179         	addi	sp, sp, -0x30
800059be: f406         	sd	ra, 0x28(sp)
800059c0: e032         	sd	a2, 0x0(sp)
800059c2: e42a         	sd	a0, 0x8(sp)
800059c4: 862e         	mv	a2, a1
800059c6: e832         	sd	a2, 0x10(sp)
800059c8: ec2a         	sd	a0, 0x18(sp)
800059ca: 02b103a3     	sb	a1, 0x27(sp)
800059ce: a009         	j	0x800059d0 <core::ptr::write_volatile::h1b15b7f648f18a44+0x14>
800059d0: 6602         	ld	a2, 0x0(sp)
800059d2: 6522         	ld	a0, 0x8(sp)
800059d4: 4585         	li	a1, 0x1
800059d6: ffffb097     	auipc	ra, 0xffffb
800059da: d9e080e7     	jalr	-0x262(ra) <core::ptr::write_volatile::precondition_check::hd51c1f69e242d9d4>
800059de: a009         	j	0x800059e0 <core::ptr::write_volatile::h1b15b7f648f18a44+0x24>
800059e0: 6542         	ld	a0, 0x10(sp)
800059e2: 65a2         	ld	a1, 0x8(sp)
800059e4: 00a58023     	sb	a0, 0x0(a1)
800059e8: 70a2         	ld	ra, 0x28(sp)
800059ea: 6145         	addi	sp, sp, 0x30
800059ec: 8082         	ret

00000000800059ee <core::ptr::write_volatile::he1ae2ab377491ee3>:
800059ee: 7179         	addi	sp, sp, -0x30
800059f0: f406         	sd	ra, 0x28(sp)
800059f2: e032         	sd	a2, 0x0(sp)
800059f4: e42a         	sd	a0, 0x8(sp)
800059f6: 862e         	mv	a2, a1
800059f8: e832         	sd	a2, 0x10(sp)
800059fa: ec2a         	sd	a0, 0x18(sp)
800059fc: d22e         	sw	a1, 0x24(sp)
800059fe: a009         	j	0x80005a00 <core::ptr::write_volatile::he1ae2ab377491ee3+0x12>
80005a00: 6602         	ld	a2, 0x0(sp)
80005a02: 6522         	ld	a0, 0x8(sp)
80005a04: 4591         	li	a1, 0x4
80005a06: ffffb097     	auipc	ra, 0xffffb
80005a0a: d6e080e7     	jalr	-0x292(ra) <core::ptr::write_volatile::precondition_check::hd51c1f69e242d9d4>
80005a0e: a009         	j	0x80005a10 <core::ptr::write_volatile::he1ae2ab377491ee3+0x22>
80005a10: 6542         	ld	a0, 0x10(sp)
80005a12: 65a2         	ld	a1, 0x8(sp)
80005a14: c188         	sw	a0, 0x0(a1)
80005a16: 70a2         	ld	ra, 0x28(sp)
80005a18: 6145         	addi	sp, sp, 0x30
80005a1a: 8082         	ret

0000000080005a1c <core::slice::raw::from_raw_parts::precondition_check::hefd6e2a553250e17>:
80005a1c: 7119         	addi	sp, sp, -0x80
80005a1e: fc86         	sd	ra, 0x78(sp)
80005a20: e43a         	sd	a4, 0x8(sp)
80005a22: e836         	sd	a3, 0x10(sp)
80005a24: ec32         	sd	a2, 0x18(sp)
80005a26: 862e         	mv	a2, a1
80005a28: 65e2         	ld	a1, 0x18(sp)
80005a2a: f032         	sd	a2, 0x20(sp)
80005a2c: f42a         	sd	a0, 0x28(sp)
80005a2e: fc2a         	sd	a0, 0x38(sp)
80005a30: e0b2         	sd	a2, 0x40(sp)
80005a32: e4ae         	sd	a1, 0x48(sp)
80005a34: e8b6         	sd	a3, 0x50(sp)
80005a36: 4601         	li	a2, 0x0
80005a38: 04c10fa3     	sb	a2, 0x5f(sp)
80005a3c: f0aa         	sd	a0, 0x60(sp)
80005a3e: ffffa097     	auipc	ra, 0xffffa
80005a42: 666080e7     	jalr	0x666(ra) <core::ptr::const_ptr::_$LT$impl$u20$$BP$const$u20$T$GT$::is_aligned_to::h3f6d5aba8dfd4ef3>
80005a46: e119         	bnez	a0, 0x80005a4c <core::slice::raw::from_raw_parts::precondition_check::hefd6e2a553250e17+0x30>
80005a48: a009         	j	0x80005a4a <core::slice::raw::from_raw_parts::precondition_check::hefd6e2a553250e17+0x2e>
80005a4a: a021         	j	0x80005a52 <core::slice::raw::from_raw_parts::precondition_check::hefd6e2a553250e17+0x36>
80005a4c: 7522         	ld	a0, 0x28(sp)
80005a4e: e119         	bnez	a0, 0x80005a54 <core::slice::raw::from_raw_parts::precondition_check::hefd6e2a553250e17+0x38>
80005a50: a009         	j	0x80005a52 <core::slice::raw::from_raw_parts::precondition_check::hefd6e2a553250e17+0x36>
80005a52: a039         	j	0x80005a60 <core::slice::raw::from_raw_parts::precondition_check::hefd6e2a553250e17+0x44>
80005a54: 7502         	ld	a0, 0x20(sp)
80005a56: 00153593     	seqz	a1, a0
80005a5a: e02e         	sd	a1, 0x0(sp)
80005a5c: c115         	beqz	a0, 0x80005a80 <.Lpcrel_hi0+0x1e>
80005a5e: a025         	j	0x80005a86 <.Lpcrel_hi0+0x24>
80005a60: 66a2         	ld	a3, 0x8(sp)

0000000080005a62 <.Lpcrel_hi0>:
80005a62: 00003517     	auipc	a0, 0x3
80005a66: 55e50513     	addi	a0, a0, 0x55e
80005a6a: f4aa         	sd	a0, 0x68(sp)
80005a6c: 11700593     	li	a1, 0x117
80005a70: f8ae         	sd	a1, 0x70(sp)
80005a72: 22f00593     	li	a1, 0x22f
80005a76: 4601         	li	a2, 0x0
80005a78: 00001097     	auipc	ra, 0x1
80005a7c: 210080e7     	jalr	0x210(ra) <core::panicking::panic_nounwind_fmt::h2e018e50a8d3bc73>
80005a80: 557d         	li	a0, -0x1
80005a82: f82a         	sd	a0, 0x30(sp)
80005a84: a029         	j	0x80005a8e <.Lpcrel_hi0+0x2c>
80005a86: 6502         	ld	a0, 0x0(sp)
80005a88: 8905         	andi	a0, a0, 0x1
80005a8a: ed11         	bnez	a0, 0x80005aa6 <.Lpcrel_hi1>
80005a8c: a031         	j	0x80005a98 <.Lpcrel_hi0+0x36>
80005a8e: 65c2         	ld	a1, 0x10(sp)
80005a90: 7542         	ld	a0, 0x30(sp)
80005a92: 02b57363     	bgeu	a0, a1, 0x80005ab8 <.Lpcrel_hi1+0x12>
80005a96: a005         	j	0x80005ab6 <.Lpcrel_hi1+0x10>
80005a98: 7582         	ld	a1, 0x20(sp)
80005a9a: 557d         	li	a0, -0x1
80005a9c: 8105         	srli	a0, a0, 0x1
80005a9e: 02b55533     	divu	a0, a0, a1
80005aa2: f82a         	sd	a0, 0x30(sp)
80005aa4: b7ed         	j	0x80005a8e <.Lpcrel_hi0+0x2c>

0000000080005aa6 <.Lpcrel_hi1>:
80005aa6: 00003517     	auipc	a0, 0x3
80005aaa: 50250513     	addi	a0, a0, 0x502
80005aae: 00001097     	auipc	ra, 0x1
80005ab2: 108080e7     	jalr	0x108(ra) <core::panicking::panic_const::panic_const_div_by_zero::hcfde4c26e8ecfc4b>
80005ab6: b76d         	j	0x80005a60 <core::slice::raw::from_raw_parts::precondition_check::hefd6e2a553250e17+0x44>
80005ab8: 70e6         	ld	ra, 0x78(sp)
80005aba: 6109         	addi	sp, sp, 0x80
80005abc: 8082         	ret

0000000080005abe <core::slice::raw::from_raw_parts_mut::precondition_check::h3ede3b90495541e7>:
80005abe: 7119         	addi	sp, sp, -0x80
80005ac0: fc86         	sd	ra, 0x78(sp)
80005ac2: e43a         	sd	a4, 0x8(sp)
80005ac4: e836         	sd	a3, 0x10(sp)
80005ac6: ec32         	sd	a2, 0x18(sp)
80005ac8: 862e         	mv	a2, a1
80005aca: 65e2         	ld	a1, 0x18(sp)
80005acc: f032         	sd	a2, 0x20(sp)
80005ace: f42a         	sd	a0, 0x28(sp)
80005ad0: fc2a         	sd	a0, 0x38(sp)
80005ad2: e0b2         	sd	a2, 0x40(sp)
80005ad4: e4ae         	sd	a1, 0x48(sp)
80005ad6: e8b6         	sd	a3, 0x50(sp)
80005ad8: 4601         	li	a2, 0x0
80005ada: 04c10fa3     	sb	a2, 0x5f(sp)
80005ade: f0aa         	sd	a0, 0x60(sp)
80005ae0: ffffa097     	auipc	ra, 0xffffa
80005ae4: 5c4080e7     	jalr	0x5c4(ra) <core::ptr::const_ptr::_$LT$impl$u20$$BP$const$u20$T$GT$::is_aligned_to::h3f6d5aba8dfd4ef3>
80005ae8: e119         	bnez	a0, 0x80005aee <core::slice::raw::from_raw_parts_mut::precondition_check::h3ede3b90495541e7+0x30>
80005aea: a009         	j	0x80005aec <core::slice::raw::from_raw_parts_mut::precondition_check::h3ede3b90495541e7+0x2e>
80005aec: a021         	j	0x80005af4 <core::slice::raw::from_raw_parts_mut::precondition_check::h3ede3b90495541e7+0x36>
80005aee: 7522         	ld	a0, 0x28(sp)
80005af0: e119         	bnez	a0, 0x80005af6 <core::slice::raw::from_raw_parts_mut::precondition_check::h3ede3b90495541e7+0x38>
80005af2: a009         	j	0x80005af4 <core::slice::raw::from_raw_parts_mut::precondition_check::h3ede3b90495541e7+0x36>
80005af4: a039         	j	0x80005b02 <core::slice::raw::from_raw_parts_mut::precondition_check::h3ede3b90495541e7+0x44>
80005af6: 7502         	ld	a0, 0x20(sp)
80005af8: 00153593     	seqz	a1, a0
80005afc: e02e         	sd	a1, 0x0(sp)
80005afe: c115         	beqz	a0, 0x80005b22 <.Lpcrel_hi2+0x1e>
80005b00: a025         	j	0x80005b28 <.Lpcrel_hi2+0x24>
80005b02: 66a2         	ld	a3, 0x8(sp)

0000000080005b04 <.Lpcrel_hi2>:
80005b04: 00003517     	auipc	a0, 0x3
80005b08: 5d350513     	addi	a0, a0, 0x5d3
80005b0c: f4aa         	sd	a0, 0x68(sp)
80005b0e: 11b00593     	li	a1, 0x11b
80005b12: f8ae         	sd	a1, 0x70(sp)
80005b14: 23700593     	li	a1, 0x237
80005b18: 4601         	li	a2, 0x0
80005b1a: 00001097     	auipc	ra, 0x1
80005b1e: 16e080e7     	jalr	0x16e(ra) <core::panicking::panic_nounwind_fmt::h2e018e50a8d3bc73>
80005b22: 557d         	li	a0, -0x1
80005b24: f82a         	sd	a0, 0x30(sp)
80005b26: a029         	j	0x80005b30 <.Lpcrel_hi2+0x2c>
80005b28: 6502         	ld	a0, 0x0(sp)
80005b2a: 8905         	andi	a0, a0, 0x1
80005b2c: ed11         	bnez	a0, 0x80005b48 <.Lpcrel_hi3>
80005b2e: a031         	j	0x80005b3a <.Lpcrel_hi2+0x36>
80005b30: 65c2         	ld	a1, 0x10(sp)
80005b32: 7542         	ld	a0, 0x30(sp)
80005b34: 02b57363     	bgeu	a0, a1, 0x80005b5a <.Lpcrel_hi3+0x12>
80005b38: a005         	j	0x80005b58 <.Lpcrel_hi3+0x10>
80005b3a: 7582         	ld	a1, 0x20(sp)
80005b3c: 557d         	li	a0, -0x1
80005b3e: 8105         	srli	a0, a0, 0x1
80005b40: 02b55533     	divu	a0, a0, a1
80005b44: f82a         	sd	a0, 0x30(sp)
80005b46: b7ed         	j	0x80005b30 <.Lpcrel_hi2+0x2c>

0000000080005b48 <.Lpcrel_hi3>:
80005b48: 00003517     	auipc	a0, 0x3
80005b4c: 46050513     	addi	a0, a0, 0x460
80005b50: 00001097     	auipc	ra, 0x1
80005b54: 066080e7     	jalr	0x66(ra) <core::panicking::panic_const::panic_const_div_by_zero::hcfde4c26e8ecfc4b>
80005b58: b76d         	j	0x80005b02 <core::slice::raw::from_raw_parts_mut::precondition_check::h3ede3b90495541e7+0x44>
80005b5a: 70e6         	ld	ra, 0x78(sp)
80005b5c: 6109         	addi	sp, sp, 0x80
80005b5e: 8082         	ret

0000000080005b60 <core::ub_checks::maybe_is_nonoverlapping::runtime::hc724af281c56b913>:
80005b60: 7119         	addi	sp, sp, -0x80
80005b62: fc2a         	sd	a0, 0x38(sp)
80005b64: e0ae         	sd	a1, 0x40(sp)
80005b66: e4b2         	sd	a2, 0x48(sp)
80005b68: e8b6         	sd	a3, 0x50(sp)
80005b6a: 872a         	mv	a4, a0
80005b6c: e43a         	sd	a4, 0x8(sp)
80005b6e: ecaa         	sd	a0, 0x58(sp)
80005b70: 852e         	mv	a0, a1
80005b72: e82a         	sd	a0, 0x10(sp)
80005b74: f0ae         	sd	a1, 0x60(sp)
80005b76: 02d605b3     	mul	a1, a2, a3
80005b7a: ec2e         	sd	a1, 0x18(sp)
80005b7c: 02d63533     	mulhu	a0, a2, a3
80005b80: 00a03633     	snez	a2, a0
80005b84: 06c107a3     	sb	a2, 0x6f(sp)
80005b88: f8ae         	sd	a1, 0x70(sp)
80005b8a: ed11         	bnez	a0, 0x80005ba6 <.Lpcrel_hi0>
80005b8c: a009         	j	0x80005b8e <core::ub_checks::maybe_is_nonoverlapping::runtime::hc724af281c56b913+0x2e>
80005b8e: 6522         	ld	a0, 0x8(sp)
80005b90: 65c2         	ld	a1, 0x10(sp)
80005b92: 6662         	ld	a2, 0x18(sp)
80005b94: f432         	sd	a2, 0x28(sp)
80005b96: 4605         	li	a2, 0x1
80005b98: f032         	sd	a2, 0x20(sp)
80005b9a: 7622         	ld	a2, 0x28(sp)
80005b9c: e032         	sd	a2, 0x0(sp)
80005b9e: fcb2         	sd	a2, 0x78(sp)
80005ba0: 02b56263     	bltu	a0, a1, 0x80005bc4 <.Lpcrel_hi0+0x1e>
80005ba4: a819         	j	0x80005bba <.Lpcrel_hi0+0x14>

0000000080005ba6 <.Lpcrel_hi0>:
80005ba6: 00003517     	auipc	a0, 0x3
80005baa: 64c50513     	addi	a0, a0, 0x64c
80005bae: 03d00593     	li	a1, 0x3d
80005bb2: 00001097     	auipc	ra, 0x1
80005bb6: 07c080e7     	jalr	0x7c(ra) <core::panicking::panic_nounwind::hf19a354d0b2d9097>
80005bba: 6522         	ld	a0, 0x8(sp)
80005bbc: 65c2         	ld	a1, 0x10(sp)
80005bbe: 8d0d         	sub	a0, a0, a1
80005bc0: f82a         	sd	a0, 0x30(sp)
80005bc2: a031         	j	0x80005bce <.Lpcrel_hi0+0x28>
80005bc4: 6542         	ld	a0, 0x10(sp)
80005bc6: 65a2         	ld	a1, 0x8(sp)
80005bc8: 8d0d         	sub	a0, a0, a1
80005bca: f82a         	sd	a0, 0x30(sp)
80005bcc: a009         	j	0x80005bce <.Lpcrel_hi0+0x28>
80005bce: 6582         	ld	a1, 0x0(sp)
80005bd0: 7542         	ld	a0, 0x30(sp)
80005bd2: 00b53533     	sltu	a0, a0, a1
80005bd6: 00154513     	xori	a0, a0, 0x1
80005bda: 6109         	addi	sp, sp, 0x80
80005bdc: 8082         	ret

0000000080005bde <core::array::iter::_$LT$impl$u20$core..iter..traits..collect..IntoIterator$u20$for$u20$$u5b$T$u3b$$u20$N$u5d$$GT$::into_iter::hacda5921248d5f15>:
80005bde: 7151         	addi	sp, sp, -0xf0
80005be0: f586         	sd	ra, 0xe8(sp)
80005be2: e42e         	sd	a1, 0x8(sp)
80005be4: 85aa         	mv	a1, a0
80005be6: 6522         	ld	a0, 0x8(sp)
80005be8: e82e         	sd	a1, 0x10(sp)
80005bea: 510c         	lw	a1, 0x20(a0)
80005bec: dc2e         	sw	a1, 0x38(sp)
80005bee: 01856603     	lwu	a2, 0x18(a0)
80005bf2: 01c56583     	lwu	a1, 0x1c(a0)
80005bf6: 1582         	slli	a1, a1, 0x20
80005bf8: 8dd1         	or	a1, a1, a2
80005bfa: f82e         	sd	a1, 0x30(sp)
80005bfc: 01056603     	lwu	a2, 0x10(a0)
80005c00: 01456583     	lwu	a1, 0x14(a0)
80005c04: 1582         	slli	a1, a1, 0x20
80005c06: 8dd1         	or	a1, a1, a2
80005c08: f42e         	sd	a1, 0x28(sp)
80005c0a: 00856603     	lwu	a2, 0x8(a0)
80005c0e: 00c56583     	lwu	a1, 0xc(a0)
80005c12: 1582         	slli	a1, a1, 0x20
80005c14: 8dd1         	or	a1, a1, a2
80005c16: f02e         	sd	a1, 0x20(sp)
80005c18: 00056583     	lwu	a1, 0x0(a0)
80005c1c: 00456503     	lwu	a0, 0x4(a0)
80005c20: 1502         	slli	a0, a0, 0x20
80005c22: 8d4d         	or	a0, a0, a1
80005c24: ec2a         	sd	a0, 0x18(sp)
80005c26: 4501         	li	a0, 0x0
80005c28: e0aa         	sd	a0, 0x40(sp)
80005c2a: 4525         	li	a0, 0x9
80005c2c: e4aa         	sd	a0, 0x48(sp)
80005c2e: 0888         	addi	a0, sp, 0x50
80005c30: 082c         	addi	a1, sp, 0x18
80005c32: 02400613     	li	a2, 0x24
80005c36: 00001097     	auipc	ra, 0x1
80005c3a: 24c080e7     	jalr	0x24c(ra) <memcpy>
80005c3e: 65c2         	ld	a1, 0x10(sp)
80005c40: 7546         	ld	a0, 0x70(sp)
80005c42: f1aa         	sd	a0, 0xe0(sp)
80005c44: 7526         	ld	a0, 0x68(sp)
80005c46: edaa         	sd	a0, 0xd8(sp)
80005c48: 7506         	ld	a0, 0x60(sp)
80005c4a: e9aa         	sd	a0, 0xd0(sp)
80005c4c: 6566         	ld	a0, 0x58(sp)
80005c4e: e5aa         	sd	a0, 0xc8(sp)
80005c50: 6546         	ld	a0, 0x50(sp)
80005c52: e1aa         	sd	a0, 0xc0(sp)
80005c54: 6526         	ld	a0, 0x48(sp)
80005c56: fd2a         	sd	a0, 0xb8(sp)
80005c58: 6506         	ld	a0, 0x40(sp)
80005c5a: f92a         	sd	a0, 0xb0(sp)
80005c5c: 750e         	ld	a0, 0xe0(sp)
80005c5e: f52a         	sd	a0, 0xa8(sp)
80005c60: 656e         	ld	a0, 0xd8(sp)
80005c62: f12a         	sd	a0, 0xa0(sp)
80005c64: 654e         	ld	a0, 0xd0(sp)
80005c66: ed2a         	sd	a0, 0x98(sp)
80005c68: 652e         	ld	a0, 0xc8(sp)
80005c6a: e92a         	sd	a0, 0x90(sp)
80005c6c: 650e         	ld	a0, 0xc0(sp)
80005c6e: e52a         	sd	a0, 0x88(sp)
80005c70: 756a         	ld	a0, 0xb8(sp)
80005c72: e12a         	sd	a0, 0x80(sp)
80005c74: 754a         	ld	a0, 0xb0(sp)
80005c76: fcaa         	sd	a0, 0x78(sp)
80005c78: 752a         	ld	a0, 0xa8(sp)
80005c7a: f988         	sd	a0, 0x30(a1)
80005c7c: 750a         	ld	a0, 0xa0(sp)
80005c7e: f588         	sd	a0, 0x28(a1)
80005c80: 656a         	ld	a0, 0x98(sp)
80005c82: f188         	sd	a0, 0x20(a1)
80005c84: 654a         	ld	a0, 0x90(sp)
80005c86: ed88         	sd	a0, 0x18(a1)
80005c88: 652a         	ld	a0, 0x88(sp)
80005c8a: e988         	sd	a0, 0x10(a1)
80005c8c: 650a         	ld	a0, 0x80(sp)
80005c8e: e588         	sd	a0, 0x8(a1)
80005c90: 7566         	ld	a0, 0x78(sp)
80005c92: e188         	sd	a0, 0x0(a1)
80005c94: 70ae         	ld	ra, 0xe8(sp)
80005c96: 616d         	addi	sp, sp, 0xf0
80005c98: 8082         	ret

0000000080005c9a <_$LT$core..array..iter..IntoIter$LT$T$C$_$GT$$u20$as$u20$core..iter..traits..iterator..Iterator$GT$::next::hdeb5933ee61023fb>:
80005c9a: 1141         	addi	sp, sp, -0x10
80005c9c: e406         	sd	ra, 0x8(sp)
80005c9e: e02a         	sd	a0, 0x0(sp)
80005ca0: 45a5         	li	a1, 0x9
80005ca2: 00000097     	auipc	ra, 0x0
80005ca6: 00e080e7     	jalr	0xe(ra) <core::array::iter::iter_inner::PolymorphicIter$LT$$u5b$core..mem..maybe_uninit..MaybeUninit$LT$T$GT$$u5d$$GT$::next::h95825f5f377150fc>
80005caa: 60a2         	ld	ra, 0x8(sp)
80005cac: 0141         	addi	sp, sp, 0x10
80005cae: 8082         	ret

0000000080005cb0 <core::array::iter::iter_inner::PolymorphicIter$LT$$u5b$core..mem..maybe_uninit..MaybeUninit$LT$T$GT$$u5d$$GT$::next::h95825f5f377150fc>:
80005cb0: 7131         	addi	sp, sp, -0xc0
80005cb2: fd06         	sd	ra, 0xb8(sp)
80005cb4: ec2e         	sd	a1, 0x18(sp)
80005cb6: 85aa         	mv	a1, a0
80005cb8: 6562         	ld	a0, 0x18(sp)
80005cba: f02e         	sd	a1, 0x20(sp)
80005cbc: f0ae         	sd	a1, 0x60(sp)
80005cbe: f4aa         	sd	a0, 0x68(sp)
80005cc0: 4505         	li	a0, 0x1
80005cc2: f8aa         	sd	a0, 0x70(sp)
80005cc4: 6588         	ld	a0, 0x8(a1)
80005cc6: 618c         	ld	a1, 0x0(a1)
80005cc8: 8d0d         	sub	a0, a0, a1
80005cca: e51d         	bnez	a0, 0x80005cf8 <.Lpcrel_hi0+0x26>
80005ccc: a009         	j	0x80005cce <core::array::iter::iter_inner::PolymorphicIter$LT$$u5b$core..mem..maybe_uninit..MaybeUninit$LT$T$GT$$u5d$$GT$::next::h95825f5f377150fc+0x1e>
80005cce: 6562         	ld	a0, 0x18(sp)
80005cd0: 7582         	ld	a1, 0x20(sp)

0000000080005cd2 <.Lpcrel_hi0>:
80005cd2: 00002617     	auipc	a2, 0x2
80005cd6: d2660613     	addi	a2, a2, -0x2da
80005cda: 6214         	ld	a3, 0x0(a2)
80005cdc: 6610         	ld	a2, 0x8(a2)
80005cde: f836         	sd	a3, 0x30(sp)
80005ce0: fc32         	sd	a2, 0x38(sp)
80005ce2: 05c1         	addi	a1, a1, 0x10
80005ce4: e0ae         	sd	a1, 0x40(sp)
80005ce6: e4aa         	sd	a0, 0x48(sp)
80005ce8: 6586         	ld	a1, 0x40(sp)
80005cea: 6526         	ld	a0, 0x48(sp)
80005cec: e8ae         	sd	a1, 0x50(sp)
80005cee: ecaa         	sd	a0, 0x58(sp)
80005cf0: 00110537     	lui	a0, 0x110
80005cf4: d62a         	sw	a0, 0x2c(sp)
80005cf6: a031         	j	0x80005d02 <.Lpcrel_hi0+0x30>
80005cf8: 7502         	ld	a0, 0x20(sp)
80005cfa: 6108         	ld	a0, 0x0(a0)
80005cfc: e82a         	sd	a0, 0x10(sp)
80005cfe: fcaa         	sd	a0, 0x78(sp)
80005d00: a029         	j	0x80005d0a <.Lpcrel_hi0+0x38>
80005d02: 5532         	lw	a0, 0x2c(sp)
80005d04: 70ea         	ld	ra, 0xb8(sp)
80005d06: 6129         	addi	sp, sp, 0xc0
80005d08: 8082         	ret
80005d0a: 6542         	ld	a0, 0x10(sp)

0000000080005d0c <.Lpcrel_hi1>:
80005d0c: 00003597     	auipc	a1, 0x3
80005d10: 52458613     	addi	a2, a1, 0x524
80005d14: 4585         	li	a1, 0x1
80005d16: ffffa097     	auipc	ra, 0xffffa
80005d1a: 6b2080e7     	jalr	0x6b2(ra) <core::num::_$LT$impl$u20$usize$GT$::unchecked_add::precondition_check::h576648fa36372982>
80005d1e: a009         	j	0x80005d20 <.Lpcrel_hi1+0x14>
80005d20: 6562         	ld	a0, 0x18(sp)
80005d22: 7582         	ld	a1, 0x20(sp)
80005d24: 6642         	ld	a2, 0x10(sp)
80005d26: 00160693     	addi	a3, a2, 0x1
80005d2a: e194         	sd	a3, 0x0(a1)
80005d2c: fc32         	sd	a2, 0x38(sp)
80005d2e: 4605         	li	a2, 0x1
80005d30: f832         	sd	a2, 0x30(sp)
80005d32: 05c1         	addi	a1, a1, 0x10
80005d34: e0ae         	sd	a1, 0x40(sp)
80005d36: e4aa         	sd	a0, 0x48(sp)
80005d38: 6586         	ld	a1, 0x40(sp)
80005d3a: 6526         	ld	a0, 0x48(sp)
80005d3c: e8ae         	sd	a1, 0x50(sp)
80005d3e: ecaa         	sd	a0, 0x58(sp)
80005d40: 7562         	ld	a0, 0x38(sp)
80005d42: e42a         	sd	a0, 0x8(sp)
80005d44: e12a         	sd	a0, 0x80(sp)
80005d46: 6586         	ld	a1, 0x40(sp)
80005d48: 6526         	ld	a0, 0x48(sp)
80005d4a: e52e         	sd	a1, 0x88(sp)
80005d4c: e92a         	sd	a0, 0x90(sp)
80005d4e: 6586         	ld	a1, 0x40(sp)
80005d50: 6526         	ld	a0, 0x48(sp)
80005d52: ed2e         	sd	a1, 0x98(sp)
80005d54: f12a         	sd	a0, 0xa0(sp)
80005d56: a009         	j	0x80005d58 <.Lpcrel_hi1+0x4c>
80005d58: 6522         	ld	a0, 0x8(sp)
80005d5a: 65a6         	ld	a1, 0x48(sp)

0000000080005d5c <.Lpcrel_hi2>:
80005d5c: 00003617     	auipc	a2, 0x3
80005d60: 4ec60613     	addi	a2, a2, 0x4ec
80005d64: 00000097     	auipc	ra, 0x0
80005d68: 01c080e7     	jalr	0x1c(ra) <_$LT$usize$u20$as$u20$core..slice..index..SliceIndex$LT$$u5b$T$u5d$$GT$$GT$::get_unchecked::precondition_check::h5dfbc276be6bf650>
80005d6c: a009         	j	0x80005d6e <.Lpcrel_hi2+0x12>
80005d6e: 65a2         	ld	a1, 0x8(sp)
80005d70: 6506         	ld	a0, 0x40(sp)
80005d72: 058a         	slli	a1, a1, 0x2
80005d74: 952e         	add	a0, a0, a1
80005d76: f52a         	sd	a0, 0xa8(sp)
80005d78: f92a         	sd	a0, 0xb0(sp)
80005d7a: 4108         	lw	a0, 0x0(a0)
80005d7c: d62a         	sw	a0, 0x2c(sp)
80005d7e: b751         	j	0x80005d02 <.Lpcrel_hi0+0x30>

0000000080005d80 <_$LT$usize$u20$as$u20$core..slice..index..SliceIndex$LT$$u5b$T$u5d$$GT$$GT$::get_unchecked::precondition_check::h5dfbc276be6bf650>:
80005d80: 7179         	addi	sp, sp, -0x30
80005d82: e432         	sd	a2, 0x8(sp)
80005d84: e82a         	sd	a0, 0x10(sp)
80005d86: ec2e         	sd	a1, 0x18(sp)
80005d88: 02b56363     	bltu	a0, a1, 0x80005dae <.Lpcrel_hi0+0x1e>
80005d8c: a009         	j	0x80005d8e <_$LT$usize$u20$as$u20$core..slice..index..SliceIndex$LT$$u5b$T$u5d$$GT$$GT$::get_unchecked::precondition_check::h5dfbc276be6bf650+0xe>
80005d8e: 66a2         	ld	a3, 0x8(sp)

0000000080005d90 <.Lpcrel_hi0>:
80005d90: 00003517     	auipc	a0, 0x3
80005d94: 4d050513     	addi	a0, a0, 0x4d0
80005d98: f02a         	sd	a0, 0x20(sp)
80005d9a: 0d600593     	li	a1, 0xd6
80005d9e: f42e         	sd	a1, 0x28(sp)
80005da0: 1ad00593     	li	a1, 0x1ad
80005da4: 4601         	li	a2, 0x0
80005da6: 00001097     	auipc	ra, 0x1
80005daa: ee2080e7     	jalr	-0x11e(ra) <core::panicking::panic_nounwind_fmt::h2e018e50a8d3bc73>
80005dae: 6145         	addi	sp, sp, 0x30
80005db0: 8082         	ret

0000000080005db2 <_$LT$str$u20$as$u20$core..fmt..Display$GT$::fmt::h53474d83e2b0968b>:
80005db2: 86ae         	mv	a3, a1
80005db4: 85aa         	mv	a1, a0
80005db6: 8532         	mv	a0, a2
80005db8: 8636         	mv	a2, a3
80005dba: 00001317     	auipc	t1, 0x1
80005dbe: aa430067     	jr	-0x55c(t1) <core::fmt::Formatter::pad::h239e525174ab4a17>

0000000080005dc2 <_$LT$char$u20$as$u20$core..fmt..Display$GT$::fmt::h793d1df9ddfe9696>:
80005dc2: 86ae         	mv	a3, a1
80005dc4: 0135c603     	lbu	a2, 0x13(a1)
80005dc8: 410c         	lw	a1, 0x0(a0)
80005dca: 8a61         	andi	a2, a2, 0x18
80005dcc: ce19         	beqz	a2, 0x80005dea <_$LT$char$u20$as$u20$core..fmt..Display$GT$::fmt::h793d1df9ddfe9696+0x28>
80005dce: 1101         	addi	sp, sp, -0x20
80005dd0: ec06         	sd	ra, 0x18(sp)
80005dd2: e822         	sd	s0, 0x10(sp)
80005dd4: 1000         	addi	s0, sp, 0x20
80005dd6: 08000513     	li	a0, 0x80
80005dda: fe042623     	sw	zero, -0x14(s0)
80005dde: 00a5fa63     	bgeu	a1, a0, 0x80005df2 <_$LT$char$u20$as$u20$core..fmt..Display$GT$::fmt::h793d1df9ddfe9696+0x30>
80005de2: feb40623     	sb	a1, -0x14(s0)
80005de6: 4605         	li	a2, 0x1
80005de8: a88d         	j	0x80005e5a <_$LT$char$u20$as$u20$core..fmt..Display$GT$::fmt::h793d1df9ddfe9696+0x98>
80005dea: 6690         	ld	a2, 0x8(a3)
80005dec: 6288         	ld	a0, 0x0(a3)
80005dee: 721c         	ld	a5, 0x20(a2)
80005df0: 8782         	jr	a5
80005df2: 00b5d71b     	srliw	a4, a1, 0xb
80005df6: 03f5f513     	andi	a0, a1, 0x3f
80005dfa: f8050513     	addi	a0, a0, -0x80
80005dfe: 0065d61b     	srliw	a2, a1, 0x6
80005e02: eb09         	bnez	a4, 0x80005e14 <_$LT$char$u20$as$u20$core..fmt..Display$GT$::fmt::h793d1df9ddfe9696+0x52>
80005e04: 0c066593     	ori	a1, a2, 0xc0
80005e08: feb40623     	sb	a1, -0x14(s0)
80005e0c: fea406a3     	sb	a0, -0x13(s0)
80005e10: 4609         	li	a2, 0x2
80005e12: a0a1         	j	0x80005e5a <_$LT$char$u20$as$u20$core..fmt..Display$GT$::fmt::h793d1df9ddfe9696+0x98>
80005e14: 03f67613     	andi	a2, a2, 0x3f
80005e18: 0105d79b     	srliw	a5, a1, 0x10
80005e1c: f8060613     	addi	a2, a2, -0x80
80005e20: 00c5d71b     	srliw	a4, a1, 0xc
80005e24: eb99         	bnez	a5, 0x80005e3a <_$LT$char$u20$as$u20$core..fmt..Display$GT$::fmt::h793d1df9ddfe9696+0x78>
80005e26: 0e076593     	ori	a1, a4, 0xe0
80005e2a: feb40623     	sb	a1, -0x14(s0)
80005e2e: fec406a3     	sb	a2, -0x13(s0)
80005e32: fea40723     	sb	a0, -0x12(s0)
80005e36: 460d         	li	a2, 0x3
80005e38: a00d         	j	0x80005e5a <_$LT$char$u20$as$u20$core..fmt..Display$GT$::fmt::h793d1df9ddfe9696+0x98>
80005e3a: 03f77713     	andi	a4, a4, 0x3f
80005e3e: 81c9         	srli	a1, a1, 0x12
80005e40: f8070713     	addi	a4, a4, -0x80
80005e44: ff05e593     	ori	a1, a1, -0x10
80005e48: feb40623     	sb	a1, -0x14(s0)
80005e4c: fee406a3     	sb	a4, -0x13(s0)
80005e50: fec40723     	sb	a2, -0x12(s0)
80005e54: fea407a3     	sb	a0, -0x11(s0)
80005e58: 4611         	li	a2, 0x4
80005e5a: fec40593     	addi	a1, s0, -0x14
80005e5e: 8536         	mv	a0, a3
80005e60: 00001097     	auipc	ra, 0x1
80005e64: 9fe080e7     	jalr	-0x602(ra) <core::fmt::Formatter::pad::h239e525174ab4a17>
80005e68: 60e2         	ld	ra, 0x18(sp)
80005e6a: 6442         	ld	s0, 0x10(sp)
80005e6c: 6105         	addi	sp, sp, 0x20
80005e6e: 8082         	ret

0000000080005e70 <_$LT$$RF$T$u20$as$u20$core..fmt..Display$GT$::fmt::h60cf88dbe6a53042>:
80005e70: 6114         	ld	a3, 0x0(a0)
80005e72: 6510         	ld	a2, 0x8(a0)
80005e74: 852e         	mv	a0, a1
80005e76: 85b6         	mv	a1, a3
80005e78: 00001317     	auipc	t1, 0x1
80005e7c: 9e630067     	jr	-0x61a(t1) <core::fmt::Formatter::pad::h239e525174ab4a17>

0000000080005e80 <core::fmt::num::imp::_$LT$impl$u20$u32$GT$::_fmt_inner::h2c8ef1aec4279901>:
80005e80: 7139         	addi	sp, sp, -0x40
80005e82: fc06         	sd	ra, 0x38(sp)
80005e84: f822         	sd	s0, 0x30(sp)
80005e86: f426         	sd	s1, 0x28(sp)
80005e88: f04a         	sd	s2, 0x20(sp)
80005e8a: ec4e         	sd	s3, 0x18(sp)
80005e8c: e852         	sd	s4, 0x10(sp)
80005e8e: e456         	sd	s5, 0x8(sp)
80005e90: 0080         	addi	s0, sp, 0x40
80005e92: 3e800693     	li	a3, 0x3e8
80005e96: 882a         	mv	a6, a0
80005e98: 8732         	mv	a4, a2
80005e9a: 0cd56163     	bltu	a0, a3, 0x80005f5c <.Lpcrel_hi74+0xac>
80005e9e: 4f01         	li	t5, 0x0
80005ea0: ffe58f93     	addi	t6, a1, -0x2
80005ea4: d1b71837     	lui	a6, 0xd1b71
80005ea8: 6709         	lui	a4, 0x2
80005eaa: 6785         	lui	a5, 0x1
80005eac: 06400893     	li	a7, 0x64

0000000080005eb0 <.Lpcrel_hi74>:
80005eb0: 00003497     	auipc	s1, 0x3
80005eb4: 009896b7     	lui	a3, 0x989
80005eb8: 75980e13     	addi	t3, a6, 0x759
80005ebc: 71070293     	addi	t0, a4, 0x710
80005ec0: 47b78313     	addi	t1, a5, 0x47b
80005ec4: 48648393     	addi	t2, s1, 0x486
80005ec8: 1e02         	slli	t3, t3, 0x20
80005eca: 67f68e93     	addi	t4, a3, 0x67f
80005ece: 882a         	mv	a6, a0
80005ed0: 01e60a33     	add	s4, a2, t5
80005ed4: ffca0693     	addi	a3, s4, -0x4
80005ed8: 14c6fe63     	bgeu	a3, a2, 0x80006034 <.Lpcrel_hi80>
80005edc: 8942         	mv	s2, a6
80005ede: 02081693     	slli	a3, a6, 0x20
80005ee2: 03c6b6b3     	mulhu	a3, a3, t3
80005ee6: 02d6d813     	srli	a6, a3, 0x2d
80005eea: 025806b3     	mul	a3, a6, t0
80005eee: 40d909bb     	subw	s3, s2, a3
80005ef2: 03099693     	slli	a3, s3, 0x30
80005ef6: 92c9         	srli	a3, a3, 0x32
80005ef8: 026687b3     	mul	a5, a3, t1
80005efc: 83c5         	srli	a5, a5, 0x11
80005efe: 00179713     	slli	a4, a5, 0x1
80005f02: 971e         	add	a4, a4, t2
80005f04: 00074a83     	lbu	s5, 0x0(a4)
80005f08: 00cf84b3     	add	s1, t6, a2
80005f0c: ffda0693     	addi	a3, s4, -0x3
80005f10: ff548f23     	sb	s5, -0x2(s1)
80005f14: 10c6f563     	bgeu	a3, a2, 0x8000601e <.Lpcrel_hi81>
80005f18: 00174703     	lbu	a4, 0x1(a4)
80005f1c: ffea0693     	addi	a3, s4, -0x2
80005f20: fee48fa3     	sb	a4, -0x1(s1)
80005f24: 0ec6f263     	bgeu	a3, a2, 0x80006008 <.Lpcrel_hi82>
80005f28: 031786b3     	mul	a3, a5, a7
80005f2c: 40d986b3     	sub	a3, s3, a3
80005f30: 16c6         	slli	a3, a3, 0x31
80005f32: 92c1         	srli	a3, a3, 0x30
80005f34: 00d38733     	add	a4, t2, a3
80005f38: 00074783     	lbu	a5, 0x0(a4)
80005f3c: fffa0693     	addi	a3, s4, -0x1
80005f40: 00f48023     	sb	a5, 0x0(s1)
80005f44: 0ac6f763     	bgeu	a3, a2, 0x80005ff2 <.Lpcrel_hi83>
80005f48: 00174683     	lbu	a3, 0x1(a4)
80005f4c: 1f71         	addi	t5, t5, -0x4
80005f4e: 00d480a3     	sb	a3, 0x1(s1)
80005f52: 1ff1         	addi	t6, t6, -0x4
80005f54: f72eeee3     	bltu	t4, s2, 0x80005ed0 <.Lpcrel_hi74+0x20>
80005f58: 01e60733     	add	a4, a2, t5
80005f5c: 46a5         	li	a3, 0x9
80005f5e: 0506fd63     	bgeu	a3, a6, 0x80005fb8 <.Lpcrel_hi75+0x3a>
80005f62: ffe70693     	addi	a3, a4, -0x2
80005f66: 0ec6f263     	bgeu	a3, a2, 0x8000604a <.Lpcrel_hi76>
80005f6a: 03081793     	slli	a5, a6, 0x30
80005f6e: 6485         	lui	s1, 0x1
80005f70: 06400893     	li	a7, 0x64
80005f74: 93c9         	srli	a5, a5, 0x32
80005f76: 47b48493     	addi	s1, s1, 0x47b
80005f7a: 029787b3     	mul	a5, a5, s1

0000000080005f7e <.Lpcrel_hi75>:
80005f7e: 00003297     	auipc	t0, 0x3
80005f82: 83c5         	srli	a5, a5, 0x11
80005f84: 031784b3     	mul	s1, a5, a7
80005f88: 409804bb     	subw	s1, a6, s1
80005f8c: 14c6         	slli	s1, s1, 0x31
80005f8e: 0304d813     	srli	a6, s1, 0x30
80005f92: 3b828493     	addi	s1, t0, 0x3b8
80005f96: 94c2         	add	s1, s1, a6
80005f98: 0004c803     	lbu	a6, 0x0(s1)
80005f9c: 00d588b3     	add	a7, a1, a3
80005fa0: 177d         	addi	a4, a4, -0x1
80005fa2: 01088023     	sb	a6, 0x0(a7)
80005fa6: 0ac77d63     	bgeu	a4, a2, 0x80006060 <.Lpcrel_hi77>
80005faa: 0014c483     	lbu	s1, 0x1(s1)
80005fae: 972e         	add	a4, a4, a1
80005fb0: 00970023     	sb	s1, 0x0(a4)
80005fb4: e509         	bnez	a0, 0x80005fbe <.Lpcrel_hi75+0x40>
80005fb6: a029         	j	0x80005fc0 <.Lpcrel_hi75+0x42>
80005fb8: 87c2         	mv	a5, a6
80005fba: 86ba         	mv	a3, a4
80005fbc: c111         	beqz	a0, 0x80005fc0 <.Lpcrel_hi75+0x42>
80005fbe: c385         	beqz	a5, 0x80005fde <.Lpcrel_hi79+0x14>
80005fc0: 16fd         	addi	a3, a3, -0x1
80005fc2: 0ac6fa63     	bgeu	a3, a2, 0x80006076 <.Lpcrel_hi78>
80005fc6: 0017951b     	slliw	a0, a5, 0x1

0000000080005fca <.Lpcrel_hi79>:
80005fca: 00003617     	auipc	a2, 0x3
80005fce: 36c60613     	addi	a2, a2, 0x36c
80005fd2: 9532         	add	a0, a0, a2
80005fd4: 00154503     	lbu	a0, 0x1(a0)
80005fd8: 95b6         	add	a1, a1, a3
80005fda: 00a58023     	sb	a0, 0x0(a1)
80005fde: 8536         	mv	a0, a3
80005fe0: 70e2         	ld	ra, 0x38(sp)
80005fe2: 7442         	ld	s0, 0x30(sp)
80005fe4: 74a2         	ld	s1, 0x28(sp)
80005fe6: 7902         	ld	s2, 0x20(sp)
80005fe8: 69e2         	ld	s3, 0x18(sp)
80005fea: 6a42         	ld	s4, 0x10(sp)
80005fec: 6aa2         	ld	s5, 0x8(sp)
80005fee: 6121         	addi	sp, sp, 0x40
80005ff0: 8082         	ret

0000000080005ff2 <.Lpcrel_hi83>:
80005ff2: 00003517     	auipc	a0, 0x3
80005ff6: 40e50713     	addi	a4, a0, 0x40e
80005ffa: 8536         	mv	a0, a3
80005ffc: 85b2         	mv	a1, a2
80005ffe: 863a         	mv	a2, a4
80006000: 00001097     	auipc	ra, 0x1
80006004: c4c080e7     	jalr	-0x3b4(ra) <core::panicking::panic_bounds_check::h6aaee0d15e0261eb>

0000000080006008 <.Lpcrel_hi82>:
80006008: 00003517     	auipc	a0, 0x3
8000600c: 3f850713     	addi	a4, a0, 0x3f8
80006010: 8536         	mv	a0, a3
80006012: 85b2         	mv	a1, a2
80006014: 863a         	mv	a2, a4
80006016: 00001097     	auipc	ra, 0x1
8000601a: c36080e7     	jalr	-0x3ca(ra) <core::panicking::panic_bounds_check::h6aaee0d15e0261eb>

000000008000601e <.Lpcrel_hi81>:
8000601e: 00003517     	auipc	a0, 0x3
80006022: 3e250713     	addi	a4, a0, 0x3e2
80006026: 8536         	mv	a0, a3
80006028: 85b2         	mv	a1, a2
8000602a: 863a         	mv	a2, a4
8000602c: 00001097     	auipc	ra, 0x1
80006030: c20080e7     	jalr	-0x3e0(ra) <core::panicking::panic_bounds_check::h6aaee0d15e0261eb>

0000000080006034 <.Lpcrel_hi80>:
80006034: 00003517     	auipc	a0, 0x3
80006038: 3cc50713     	addi	a4, a0, 0x3cc
8000603c: 8536         	mv	a0, a3
8000603e: 85b2         	mv	a1, a2
80006040: 863a         	mv	a2, a4
80006042: 00001097     	auipc	ra, 0x1
80006046: c0a080e7     	jalr	-0x3f6(ra) <core::panicking::panic_bounds_check::h6aaee0d15e0261eb>

000000008000604a <.Lpcrel_hi76>:
8000604a: 00003517     	auipc	a0, 0x3
8000604e: 3b650713     	addi	a4, a0, 0x3b6
80006052: 8536         	mv	a0, a3
80006054: 85b2         	mv	a1, a2
80006056: 863a         	mv	a2, a4
80006058: 00001097     	auipc	ra, 0x1
8000605c: bf4080e7     	jalr	-0x40c(ra) <core::panicking::panic_bounds_check::h6aaee0d15e0261eb>

0000000080006060 <.Lpcrel_hi77>:
80006060: 00003517     	auipc	a0, 0x3
80006064: 3a050693     	addi	a3, a0, 0x3a0
80006068: 853a         	mv	a0, a4
8000606a: 85b2         	mv	a1, a2
8000606c: 8636         	mv	a2, a3
8000606e: 00001097     	auipc	ra, 0x1
80006072: bde080e7     	jalr	-0x422(ra) <core::panicking::panic_bounds_check::h6aaee0d15e0261eb>

0000000080006076 <.Lpcrel_hi78>:
80006076: 00003517     	auipc	a0, 0x3
8000607a: 38a50713     	addi	a4, a0, 0x38a
8000607e: 8536         	mv	a0, a3
80006080: 85b2         	mv	a1, a2
80006082: 863a         	mv	a2, a4
80006084: 00001097     	auipc	ra, 0x1
80006088: bc8080e7     	jalr	-0x438(ra) <core::panicking::panic_bounds_check::h6aaee0d15e0261eb>

000000008000608c <core::fmt::num::imp::_$LT$impl$u20$u64$GT$::_fmt_inner::habf36a285bd59e0b>:
8000608c: 7139         	addi	sp, sp, -0x40
8000608e: fc06         	sd	ra, 0x38(sp)
80006090: f822         	sd	s0, 0x30(sp)
80006092: f426         	sd	s1, 0x28(sp)
80006094: f04a         	sd	s2, 0x20(sp)
80006096: ec4e         	sd	s3, 0x18(sp)
80006098: e852         	sd	s4, 0x10(sp)
8000609a: e456         	sd	s5, 0x8(sp)
8000609c: 0080         	addi	s0, sp, 0x40
8000609e: 3e800693     	li	a3, 0x3e8
800060a2: 882a         	mv	a6, a0
800060a4: 8732         	mv	a4, a2
800060a6: 0ad56e63     	bltu	a0, a3, 0x80006162 <.Lpcrel_hi85+0x9a>
800060aa: 4f01         	li	t5, 0x0
800060ac: ffe58f93     	addi	t6, a1, -0x2

00000000800060b0 <.Lpcrel_hi84>:
800060b0: 00002697     	auipc	a3, 0x2
800060b4: 6709         	lui	a4, 0x2
800060b6: 6785         	lui	a5, 0x1
800060b8: 06400893     	li	a7, 0x64
800060bc: 9706b283     	ld	t0, -0x690(a3)
800060c0: 71070313     	addi	t1, a4, 0x710
800060c4: 47b78393     	addi	t2, a5, 0x47b

00000000800060c8 <.Lpcrel_hi85>:
800060c8: 00003697     	auipc	a3, 0x3
800060cc: 26e68e13     	addi	t3, a3, 0x26e
800060d0: 009896b7     	lui	a3, 0x989
800060d4: 67f68e93     	addi	t4, a3, 0x67f
800060d8: 882a         	mv	a6, a0
800060da: 01e60a33     	add	s4, a2, t5
800060de: ffca0693     	addi	a3, s4, -0x4
800060e2: 14c6fb63     	bgeu	a3, a2, 0x80006238 <.Lpcrel_hi91>
800060e6: 8942         	mv	s2, a6
800060e8: 025836b3     	mulhu	a3, a6, t0
800060ec: 00b6d813     	srli	a6, a3, 0xb
800060f0: 026806b3     	mul	a3, a6, t1
800060f4: 40d909b3     	sub	s3, s2, a3
800060f8: 03099693     	slli	a3, s3, 0x30
800060fc: 92c9         	srli	a3, a3, 0x32
800060fe: 027687b3     	mul	a5, a3, t2
80006102: 83c5         	srli	a5, a5, 0x11
80006104: 00179713     	slli	a4, a5, 0x1
80006108: 9772         	add	a4, a4, t3
8000610a: 00074a83     	lbu	s5, 0x0(a4)
8000610e: 00cf84b3     	add	s1, t6, a2
80006112: ffda0693     	addi	a3, s4, -0x3
80006116: ff548f23     	sb	s5, -0x2(s1)
8000611a: 10c6f463     	bgeu	a3, a2, 0x80006222 <.Lpcrel_hi92>
8000611e: 00174703     	lbu	a4, 0x1(a4)
80006122: ffea0693     	addi	a3, s4, -0x2
80006126: fee48fa3     	sb	a4, -0x1(s1)
8000612a: 0ec6f163     	bgeu	a3, a2, 0x8000620c <.Lpcrel_hi93>
8000612e: 031786b3     	mul	a3, a5, a7
80006132: 40d986b3     	sub	a3, s3, a3
80006136: 16c6         	slli	a3, a3, 0x31
80006138: 92c1         	srli	a3, a3, 0x30
8000613a: 00de0733     	add	a4, t3, a3
8000613e: 00074783     	lbu	a5, 0x0(a4)
80006142: fffa0693     	addi	a3, s4, -0x1
80006146: 00f48023     	sb	a5, 0x0(s1)
8000614a: 0ac6f663     	bgeu	a3, a2, 0x800061f6 <.Lpcrel_hi94>
8000614e: 00174683     	lbu	a3, 0x1(a4)
80006152: 1f71         	addi	t5, t5, -0x4
80006154: 00d480a3     	sb	a3, 0x1(s1)
80006158: 1ff1         	addi	t6, t6, -0x4
8000615a: f92ee0e3     	bltu	t4, s2, 0x800060da <.Lpcrel_hi85+0x12>
8000615e: 01e60733     	add	a4, a2, t5
80006162: 46a5         	li	a3, 0x9
80006164: 0506fd63     	bgeu	a3, a6, 0x800061be <.Lpcrel_hi86+0x3a>
80006168: ffe70693     	addi	a3, a4, -0x2
8000616c: 0ec6f163     	bgeu	a3, a2, 0x8000624e <.Lpcrel_hi87>
80006170: 03081793     	slli	a5, a6, 0x30
80006174: 6485         	lui	s1, 0x1
80006176: 06400893     	li	a7, 0x64
8000617a: 93c9         	srli	a5, a5, 0x32
8000617c: 47b48493     	addi	s1, s1, 0x47b
80006180: 029787b3     	mul	a5, a5, s1

0000000080006184 <.Lpcrel_hi86>:
80006184: 00003297     	auipc	t0, 0x3
80006188: 83c5         	srli	a5, a5, 0x11
8000618a: 031784b3     	mul	s1, a5, a7
8000618e: 409804bb     	subw	s1, a6, s1
80006192: 14c6         	slli	s1, s1, 0x31
80006194: 0304d813     	srli	a6, s1, 0x30
80006198: 1b228493     	addi	s1, t0, 0x1b2
8000619c: 94c2         	add	s1, s1, a6
8000619e: 0004c803     	lbu	a6, 0x0(s1)
800061a2: 00d588b3     	add	a7, a1, a3
800061a6: 177d         	addi	a4, a4, -0x1
800061a8: 01088023     	sb	a6, 0x0(a7)
800061ac: 0ac77c63     	bgeu	a4, a2, 0x80006264 <.Lpcrel_hi88>
800061b0: 0014c483     	lbu	s1, 0x1(s1)
800061b4: 972e         	add	a4, a4, a1
800061b6: 00970023     	sb	s1, 0x0(a4)
800061ba: e509         	bnez	a0, 0x800061c4 <.Lpcrel_hi86+0x40>
800061bc: a029         	j	0x800061c6 <.Lpcrel_hi86+0x42>
800061be: 87c2         	mv	a5, a6
800061c0: 86ba         	mv	a3, a4
800061c2: c111         	beqz	a0, 0x800061c6 <.Lpcrel_hi86+0x42>
800061c4: cf99         	beqz	a5, 0x800061e2 <.Lpcrel_hi90+0x14>
800061c6: 16fd         	addi	a3, a3, -0x1
800061c8: 0ac6f963     	bgeu	a3, a2, 0x8000627a <.Lpcrel_hi89>
800061cc: 0786         	slli	a5, a5, 0x1

00000000800061ce <.Lpcrel_hi90>:
800061ce: 00003517     	auipc	a0, 0x3
800061d2: 16850513     	addi	a0, a0, 0x168
800061d6: 953e         	add	a0, a0, a5
800061d8: 00154503     	lbu	a0, 0x1(a0)
800061dc: 95b6         	add	a1, a1, a3
800061de: 00a58023     	sb	a0, 0x0(a1)
800061e2: 8536         	mv	a0, a3
800061e4: 70e2         	ld	ra, 0x38(sp)
800061e6: 7442         	ld	s0, 0x30(sp)
800061e8: 74a2         	ld	s1, 0x28(sp)
800061ea: 7902         	ld	s2, 0x20(sp)
800061ec: 69e2         	ld	s3, 0x18(sp)
800061ee: 6a42         	ld	s4, 0x10(sp)
800061f0: 6aa2         	ld	s5, 0x8(sp)
800061f2: 6121         	addi	sp, sp, 0x40
800061f4: 8082         	ret

00000000800061f6 <.Lpcrel_hi94>:
800061f6: 00003517     	auipc	a0, 0x3
800061fa: 20a50713     	addi	a4, a0, 0x20a
800061fe: 8536         	mv	a0, a3
80006200: 85b2         	mv	a1, a2
80006202: 863a         	mv	a2, a4
80006204: 00001097     	auipc	ra, 0x1
80006208: a48080e7     	jalr	-0x5b8(ra) <core::panicking::panic_bounds_check::h6aaee0d15e0261eb>

000000008000620c <.Lpcrel_hi93>:
8000620c: 00003517     	auipc	a0, 0x3
80006210: 1f450713     	addi	a4, a0, 0x1f4
80006214: 8536         	mv	a0, a3
80006216: 85b2         	mv	a1, a2
80006218: 863a         	mv	a2, a4
8000621a: 00001097     	auipc	ra, 0x1
8000621e: a32080e7     	jalr	-0x5ce(ra) <core::panicking::panic_bounds_check::h6aaee0d15e0261eb>

0000000080006222 <.Lpcrel_hi92>:
80006222: 00003517     	auipc	a0, 0x3
80006226: 1de50713     	addi	a4, a0, 0x1de
8000622a: 8536         	mv	a0, a3
8000622c: 85b2         	mv	a1, a2
8000622e: 863a         	mv	a2, a4
80006230: 00001097     	auipc	ra, 0x1
80006234: a1c080e7     	jalr	-0x5e4(ra) <core::panicking::panic_bounds_check::h6aaee0d15e0261eb>

0000000080006238 <.Lpcrel_hi91>:
80006238: 00003517     	auipc	a0, 0x3
8000623c: 1c850713     	addi	a4, a0, 0x1c8
80006240: 8536         	mv	a0, a3
80006242: 85b2         	mv	a1, a2
80006244: 863a         	mv	a2, a4
80006246: 00001097     	auipc	ra, 0x1
8000624a: a06080e7     	jalr	-0x5fa(ra) <core::panicking::panic_bounds_check::h6aaee0d15e0261eb>

000000008000624e <.Lpcrel_hi87>:
8000624e: 00003517     	auipc	a0, 0x3
80006252: 1b250713     	addi	a4, a0, 0x1b2
80006256: 8536         	mv	a0, a3
80006258: 85b2         	mv	a1, a2
8000625a: 863a         	mv	a2, a4
8000625c: 00001097     	auipc	ra, 0x1
80006260: 9f0080e7     	jalr	-0x610(ra) <core::panicking::panic_bounds_check::h6aaee0d15e0261eb>

0000000080006264 <.Lpcrel_hi88>:
80006264: 00003517     	auipc	a0, 0x3
80006268: 19c50693     	addi	a3, a0, 0x19c
8000626c: 853a         	mv	a0, a4
8000626e: 85b2         	mv	a1, a2
80006270: 8636         	mv	a2, a3
80006272: 00001097     	auipc	ra, 0x1
80006276: 9da080e7     	jalr	-0x626(ra) <core::panicking::panic_bounds_check::h6aaee0d15e0261eb>

000000008000627a <.Lpcrel_hi89>:
8000627a: 00003517     	auipc	a0, 0x3
8000627e: 18650713     	addi	a4, a0, 0x186
80006282: 8536         	mv	a0, a3
80006284: 85b2         	mv	a1, a2
80006286: 863a         	mv	a2, a4
80006288: 00001097     	auipc	ra, 0x1
8000628c: 9c4080e7     	jalr	-0x63c(ra) <core::panicking::panic_bounds_check::h6aaee0d15e0261eb>

0000000080006290 <core::fmt::num::imp::_$LT$impl$u20$core..fmt..Display$u20$for$u20$u32$GT$::fmt::hc19fd54e2a0ceeb1>:
80006290: 7139         	addi	sp, sp, -0x40
80006292: fc06         	sd	ra, 0x38(sp)
80006294: f822         	sd	s0, 0x30(sp)
80006296: f426         	sd	s1, 0x28(sp)
80006298: f04a         	sd	s2, 0x20(sp)
8000629a: ec4e         	sd	s3, 0x18(sp)
8000629c: 0080         	addi	s0, sp, 0x40
8000629e: 4108         	lw	a0, 0x0(a0)
800062a0: 84ae         	mv	s1, a1
800062a2: fce40913     	addi	s2, s0, -0x32
800062a6: fce40593     	addi	a1, s0, -0x32
800062aa: 4629         	li	a2, 0xa
800062ac: 49a9         	li	s3, 0xa
800062ae: 00000097     	auipc	ra, 0x0
800062b2: bd2080e7     	jalr	-0x42e(ra) <core::fmt::num::imp::_$LT$impl$u20$u32$GT$::_fmt_inner::h2c8ef1aec4279901>
800062b6: 40a987b3     	sub	a5, s3, a0
800062ba: 00a90733     	add	a4, s2, a0
800062be: 4585         	li	a1, 0x1
800062c0: 4605         	li	a2, 0x1
800062c2: 8526         	mv	a0, s1
800062c4: 4681         	li	a3, 0x0
800062c6: 00000097     	auipc	ra, 0x0
800062ca: 348080e7     	jalr	0x348(ra) <core::fmt::Formatter::pad_integral::h0745a9fd037e4d44>
800062ce: 70e2         	ld	ra, 0x38(sp)
800062d0: 7442         	ld	s0, 0x30(sp)
800062d2: 74a2         	ld	s1, 0x28(sp)
800062d4: 7902         	ld	s2, 0x20(sp)
800062d6: 69e2         	ld	s3, 0x18(sp)
800062d8: 6121         	addi	sp, sp, 0x40
800062da: 8082         	ret

00000000800062dc <core::fmt::num::imp::_$LT$impl$u20$core..fmt..Display$u20$for$u20$usize$GT$::fmt::h566085f0242c3154>:
800062dc: 7139         	addi	sp, sp, -0x40
800062de: fc06         	sd	ra, 0x38(sp)
800062e0: f822         	sd	s0, 0x30(sp)
800062e2: f426         	sd	s1, 0x28(sp)
800062e4: f04a         	sd	s2, 0x20(sp)
800062e6: ec4e         	sd	s3, 0x18(sp)
800062e8: 0080         	addi	s0, sp, 0x40
800062ea: 6108         	ld	a0, 0x0(a0)
800062ec: 84ae         	mv	s1, a1
800062ee: fc440913     	addi	s2, s0, -0x3c
800062f2: fc440593     	addi	a1, s0, -0x3c
800062f6: 4651         	li	a2, 0x14
800062f8: 49d1         	li	s3, 0x14
800062fa: 00000097     	auipc	ra, 0x0
800062fe: d92080e7     	jalr	-0x26e(ra) <core::fmt::num::imp::_$LT$impl$u20$u64$GT$::_fmt_inner::habf36a285bd59e0b>
80006302: 40a987b3     	sub	a5, s3, a0
80006306: 00a90733     	add	a4, s2, a0
8000630a: 4585         	li	a1, 0x1
8000630c: 4605         	li	a2, 0x1
8000630e: 8526         	mv	a0, s1
80006310: 4681         	li	a3, 0x0
80006312: 00000097     	auipc	ra, 0x0
80006316: 2fc080e7     	jalr	0x2fc(ra) <core::fmt::Formatter::pad_integral::h0745a9fd037e4d44>
8000631a: 70e2         	ld	ra, 0x38(sp)
8000631c: 7442         	ld	s0, 0x30(sp)
8000631e: 74a2         	ld	s1, 0x28(sp)
80006320: 7902         	ld	s2, 0x20(sp)
80006322: 69e2         	ld	s3, 0x18(sp)
80006324: 6121         	addi	sp, sp, 0x40
80006326: 8082         	ret

0000000080006328 <core::fmt::num::_$LT$impl$u20$core..fmt..LowerHex$u20$for$u20$usize$GT$::fmt::hcb99b156cc230e11>:
80006328: 1101         	addi	sp, sp, -0x20
8000632a: ec06         	sd	ra, 0x18(sp)
8000632c: e822         	sd	s0, 0x10(sp)
8000632e: 1000         	addi	s0, sp, 0x20
80006330: 882e         	mv	a6, a1
80006332: 4781         	li	a5, 0x0
80006334: 6108         	ld	a0, 0x0(a0)
80006336: fef40593     	addi	a1, s0, -0x11

000000008000633a <.Lpcrel_hi209>:
8000633a: 00001617     	auipc	a2, 0x1
8000633e: 6ce60613     	addi	a2, a2, 0x6ce
80006342: 00f57693     	andi	a3, a0, 0xf
80006346: 96b2         	add	a3, a3, a2
80006348: 0006c683     	lbu	a3, 0x0(a3)
8000634c: 8111         	srli	a0, a0, 0x4
8000634e: 0785         	addi	a5, a5, 0x1
80006350: 00d58023     	sb	a3, 0x0(a1)
80006354: 15fd         	addi	a1, a1, -0x1
80006356: f575         	bnez	a0, 0x80006342 <.Lpcrel_hi209+0x8>
80006358: fe040513     	addi	a0, s0, -0x20
8000635c: 8d1d         	sub	a0, a0, a5
8000635e: 01050713     	addi	a4, a0, 0x10

0000000080006362 <.Lpcrel_hi210>:
80006362: 00003517     	auipc	a0, 0x3
80006366: 4585         	li	a1, 0x1
80006368: 0b650613     	addi	a2, a0, 0xb6
8000636c: 4689         	li	a3, 0x2
8000636e: 8542         	mv	a0, a6
80006370: 00000097     	auipc	ra, 0x0
80006374: 29e080e7     	jalr	0x29e(ra) <core::fmt::Formatter::pad_integral::h0745a9fd037e4d44>
80006378: 60e2         	ld	ra, 0x18(sp)
8000637a: 6442         	ld	s0, 0x10(sp)
8000637c: 6105         	addi	sp, sp, 0x20
8000637e: 8082         	ret

0000000080006380 <core::fmt::num::_$LT$impl$u20$core..fmt..UpperHex$u20$for$u20$u32$GT$::fmt::h07f6b7b2f3968c14>:
80006380: 1101         	addi	sp, sp, -0x20
80006382: ec06         	sd	ra, 0x18(sp)
80006384: e822         	sd	s0, 0x10(sp)
80006386: 1000         	addi	s0, sp, 0x20
80006388: 882e         	mv	a6, a1
8000638a: 4781         	li	a5, 0x0
8000638c: 4110         	lw	a2, 0x0(a0)
8000638e: fef40513     	addi	a0, s0, -0x11

0000000080006392 <.Lpcrel_hi219>:
80006392: 00001597     	auipc	a1, 0x1
80006396: 63658593     	addi	a1, a1, 0x636
8000639a: 00f67693     	andi	a3, a2, 0xf
8000639e: 96ae         	add	a3, a3, a1
800063a0: 0006c683     	lbu	a3, 0x0(a3)
800063a4: 0046571b     	srliw	a4, a2, 0x4
800063a8: 0785         	addi	a5, a5, 0x1
800063aa: 00d50023     	sb	a3, 0x0(a0)
800063ae: 157d         	addi	a0, a0, -0x1
800063b0: 863a         	mv	a2, a4
800063b2: f765         	bnez	a4, 0x8000639a <.Lpcrel_hi219+0x8>
800063b4: fe840513     	addi	a0, s0, -0x18
800063b8: 8d1d         	sub	a0, a0, a5
800063ba: 00850713     	addi	a4, a0, 0x8

00000000800063be <.Lpcrel_hi220>:
800063be: 00003517     	auipc	a0, 0x3
800063c2: 4585         	li	a1, 0x1
800063c4: 05a50613     	addi	a2, a0, 0x5a
800063c8: 4689         	li	a3, 0x2
800063ca: 8542         	mv	a0, a6
800063cc: 00000097     	auipc	ra, 0x0
800063d0: 242080e7     	jalr	0x242(ra) <core::fmt::Formatter::pad_integral::h0745a9fd037e4d44>
800063d4: 60e2         	ld	ra, 0x18(sp)
800063d6: 6442         	ld	s0, 0x10(sp)
800063d8: 6105         	addi	sp, sp, 0x20
800063da: 8082         	ret

00000000800063dc <core::fmt::write::hfd17e9e8e823b619>:
800063dc: 7119         	addi	sp, sp, -0x80
800063de: fc86         	sd	ra, 0x78(sp)
800063e0: f8a2         	sd	s0, 0x70(sp)
800063e2: f4a6         	sd	s1, 0x68(sp)
800063e4: f0ca         	sd	s2, 0x60(sp)
800063e6: ecce         	sd	s3, 0x58(sp)
800063e8: e8d2         	sd	s4, 0x50(sp)
800063ea: e4d6         	sd	s5, 0x48(sp)
800063ec: e0da         	sd	s6, 0x40(sp)
800063ee: fc5e         	sd	s7, 0x38(sp)
800063f0: f862         	sd	s8, 0x30(sp)
800063f2: f466         	sd	s9, 0x28(sp)
800063f4: f06a         	sd	s10, 0x20(sp)
800063f6: 0100         	addi	s0, sp, 0x80
800063f8: 89b6         	mv	s3, a3
800063fa: 892e         	mv	s2, a1
800063fc: 0016f593     	andi	a1, a3, 0x1
80006400: 8a2a         	mv	s4, a0
80006402: 16059063     	bnez	a1, 0x80006562 <core::fmt::write::hfd17e9e8e823b619+0x186>
80006406: 00064483     	lbu	s1, 0x0(a2)
8000640a: 18048163     	beqz	s1, 0x8000658c <core::fmt::write::hfd17e9e8e823b619+0x1b0>
8000640e: 4c81         	li	s9, 0x0
80006410: 01893b03     	ld	s6, 0x18(s2)
80006414: 08000b93     	li	s7, 0x80
80006418: 0c000c13     	li	s8, 0xc0
8000641c: 60000537     	lui	a0, 0x60000
80006420: 02050d13     	addi	s10, a0, 0x20
80006424: a805         	j	0x80006454 <core::fmt::write::hfd17e9e8e823b619+0x78>
80006426: 004c9513     	slli	a0, s9, 0x4
8000642a: 00a985b3     	add	a1, s3, a0
8000642e: 6188         	ld	a0, 0x0(a1)
80006430: 6590         	ld	a2, 0x8(a1)
80006432: f9443423     	sd	s4, -0x78(s0)
80006436: f9243823     	sd	s2, -0x70(s0)
8000643a: f9a43c23     	sd	s10, -0x68(s0)
8000643e: f8840593     	addi	a1, s0, -0x78
80006442: 9602         	jalr	a2
80006444: 14051663     	bnez	a0, 0x80006590 <core::fmt::write::hfd17e9e8e823b619+0x1b4>
80006448: 0c85         	addi	s9, s9, 0x1
8000644a: 000ac483     	lbu	s1, 0x0(s5)
8000644e: 8656         	mv	a2, s5
80006450: 12048e63     	beqz	s1, 0x8000658c <core::fmt::write::hfd17e9e8e823b619+0x1b0>
80006454: 03849513     	slli	a0, s1, 0x38
80006458: 00160a93     	addi	s5, a2, 0x1
8000645c: 00054a63     	bltz	a0, 0x80006470 <core::fmt::write::hfd17e9e8e823b619+0x94>
80006460: 8552         	mv	a0, s4
80006462: 85d6         	mv	a1, s5
80006464: 8626         	mv	a2, s1
80006466: 9b02         	jalr	s6
80006468: 12051463     	bnez	a0, 0x80006590 <core::fmt::write::hfd17e9e8e823b619+0x1b4>
8000646c: 9aa6         	add	s5, s5, s1
8000646e: bff1         	j	0x8000644a <core::fmt::write::hfd17e9e8e823b619+0x6e>
80006470: 05748b63     	beq	s1, s7, 0x800064c6 <core::fmt::write::hfd17e9e8e823b619+0xea>
80006474: fb8489e3     	beq	s1, s8, 0x80006426 <core::fmt::write::hfd17e9e8e823b619+0x4a>
80006478: 0014f513     	andi	a0, s1, 0x1
8000647c: 85ea         	mv	a1, s10
8000647e: c115         	beqz	a0, 0x800064a2 <core::fmt::write::hfd17e9e8e823b619+0xc6>
80006480: 00264503     	lbu	a0, 0x2(a2)
80006484: 00164583     	lbu	a1, 0x1(a2)
80006488: 00364683     	lbu	a3, 0x3(a2)
8000648c: 00464703     	lbu	a4, 0x4(a2)
80006490: 0522         	slli	a0, a0, 0x8
80006492: 8d4d         	or	a0, a0, a1
80006494: 06c2         	slli	a3, a3, 0x10
80006496: 0762         	slli	a4, a4, 0x18
80006498: 00d765b3     	or	a1, a4, a3
8000649c: 8dc9         	or	a1, a1, a0
8000649e: 00560a93     	addi	s5, a2, 0x5
800064a2: 0024f513     	andi	a0, s1, 0x2
800064a6: e121         	bnez	a0, 0x800064e6 <core::fmt::write::hfd17e9e8e823b619+0x10a>
800064a8: 4601         	li	a2, 0x0
800064aa: 0044f513     	andi	a0, s1, 0x4
800064ae: c531         	beqz	a0, 0x800064fa <core::fmt::write::hfd17e9e8e823b619+0x11e>
800064b0: 001ac503     	lbu	a0, 0x1(s5)
800064b4: 000ac683     	lbu	a3, 0x0(s5)
800064b8: 0522         	slli	a0, a0, 0x8
800064ba: 8ec9         	or	a3, a3, a0
800064bc: 0a89         	addi	s5, s5, 0x2
800064be: 0084f513     	andi	a0, s1, 0x8
800064c2: e121         	bnez	a0, 0x80006502 <core::fmt::write::hfd17e9e8e823b619+0x126>
800064c4: a0b9         	j	0x80006512 <core::fmt::write::hfd17e9e8e823b619+0x136>
800064c6: 00264503     	lbu	a0, 0x2(a2)
800064ca: 00164583     	lbu	a1, 0x1(a2)
800064ce: 0522         	slli	a0, a0, 0x8
800064d0: 00b56ab3     	or	s5, a0, a1
800064d4: 00360493     	addi	s1, a2, 0x3
800064d8: 8552         	mv	a0, s4
800064da: 85a6         	mv	a1, s1
800064dc: 8656         	mv	a2, s5
800064de: 9b02         	jalr	s6
800064e0: e945         	bnez	a0, 0x80006590 <core::fmt::write::hfd17e9e8e823b619+0x1b4>
800064e2: 9aa6         	add	s5, s5, s1
800064e4: b79d         	j	0x8000644a <core::fmt::write::hfd17e9e8e823b619+0x6e>
800064e6: 001ac503     	lbu	a0, 0x1(s5)
800064ea: 000ac603     	lbu	a2, 0x0(s5)
800064ee: 0522         	slli	a0, a0, 0x8
800064f0: 8e49         	or	a2, a2, a0
800064f2: 0a89         	addi	s5, s5, 0x2
800064f4: 0044f513     	andi	a0, s1, 0x4
800064f8: fd45         	bnez	a0, 0x800064b0 <core::fmt::write::hfd17e9e8e823b619+0xd4>
800064fa: 4681         	li	a3, 0x0
800064fc: 0084f513     	andi	a0, s1, 0x8
80006500: c909         	beqz	a0, 0x80006512 <core::fmt::write::hfd17e9e8e823b619+0x136>
80006502: 001ac503     	lbu	a0, 0x1(s5)
80006506: 000ac703     	lbu	a4, 0x0(s5)
8000650a: 0522         	slli	a0, a0, 0x8
8000650c: 00e56cb3     	or	s9, a0, a4
80006510: 0a89         	addi	s5, s5, 0x2
80006512: 0104f513     	andi	a0, s1, 0x10
80006516: ed15         	bnez	a0, 0x80006552 <core::fmt::write::hfd17e9e8e823b619+0x176>
80006518: 0204f513     	andi	a0, s1, 0x20
8000651c: c509         	beqz	a0, 0x80006526 <core::fmt::write::hfd17e9e8e823b619+0x14a>
8000651e: 0692         	slli	a3, a3, 0x4
80006520: 96ce         	add	a3, a3, s3
80006522: 0086d683     	lhu	a3, 0x8(a3)
80006526: 004c9513     	slli	a0, s9, 0x4
8000652a: 00a98733     	add	a4, s3, a0
8000652e: 6308         	ld	a0, 0x0(a4)
80006530: 6718         	ld	a4, 0x8(a4)
80006532: f9443423     	sd	s4, -0x78(s0)
80006536: f9243823     	sd	s2, -0x70(s0)
8000653a: f8b42c23     	sw	a1, -0x68(s0)
8000653e: f8c41e23     	sh	a2, -0x64(s0)
80006542: f8d41f23     	sh	a3, -0x62(s0)
80006546: f8840593     	addi	a1, s0, -0x78
8000654a: 9702         	jalr	a4
8000654c: ee050ee3     	beqz	a0, 0x80006448 <core::fmt::write::hfd17e9e8e823b619+0x6c>
80006550: a081         	j	0x80006590 <core::fmt::write::hfd17e9e8e823b619+0x1b4>
80006552: 0612         	slli	a2, a2, 0x4
80006554: 964e         	add	a2, a2, s3
80006556: 00865603     	lhu	a2, 0x8(a2)
8000655a: 0204f513     	andi	a0, s1, 0x20
8000655e: f161         	bnez	a0, 0x8000651e <core::fmt::write::hfd17e9e8e823b619+0x142>
80006560: b7d9         	j	0x80006526 <core::fmt::write::hfd17e9e8e823b619+0x14a>
80006562: 01893783     	ld	a5, 0x18(s2)
80006566: 0019d693     	srli	a3, s3, 0x1
8000656a: 8552         	mv	a0, s4
8000656c: 85b2         	mv	a1, a2
8000656e: 8636         	mv	a2, a3
80006570: 70e6         	ld	ra, 0x78(sp)
80006572: 7446         	ld	s0, 0x70(sp)
80006574: 74a6         	ld	s1, 0x68(sp)
80006576: 7906         	ld	s2, 0x60(sp)
80006578: 69e6         	ld	s3, 0x58(sp)
8000657a: 6a46         	ld	s4, 0x50(sp)
8000657c: 6aa6         	ld	s5, 0x48(sp)
8000657e: 6b06         	ld	s6, 0x40(sp)
80006580: 7be2         	ld	s7, 0x38(sp)
80006582: 7c42         	ld	s8, 0x30(sp)
80006584: 7ca2         	ld	s9, 0x28(sp)
80006586: 7d02         	ld	s10, 0x20(sp)
80006588: 6109         	addi	sp, sp, 0x80
8000658a: 8782         	jr	a5
8000658c: 4501         	li	a0, 0x0
8000658e: a011         	j	0x80006592 <core::fmt::write::hfd17e9e8e823b619+0x1b6>
80006590: 4505         	li	a0, 0x1
80006592: 70e6         	ld	ra, 0x78(sp)
80006594: 7446         	ld	s0, 0x70(sp)
80006596: 74a6         	ld	s1, 0x68(sp)
80006598: 7906         	ld	s2, 0x60(sp)
8000659a: 69e6         	ld	s3, 0x58(sp)
8000659c: 6a46         	ld	s4, 0x50(sp)
8000659e: 6aa6         	ld	s5, 0x48(sp)
800065a0: 6b06         	ld	s6, 0x40(sp)
800065a2: 7be2         	ld	s7, 0x38(sp)
800065a4: 7c42         	ld	s8, 0x30(sp)
800065a6: 7ca2         	ld	s9, 0x28(sp)
800065a8: 7d02         	ld	s10, 0x20(sp)
800065aa: 6109         	addi	sp, sp, 0x80
800065ac: 8082         	ret

00000000800065ae <core::fmt::Formatter::pad_integral::write_prefix::hfc34f482b9af976a>:
800065ae: 7179         	addi	sp, sp, -0x30
800065b0: f406         	sd	ra, 0x28(sp)
800065b2: f022         	sd	s0, 0x20(sp)
800065b4: ec26         	sd	s1, 0x18(sp)
800065b6: e84a         	sd	s2, 0x10(sp)
800065b8: e44e         	sd	s3, 0x8(sp)
800065ba: e052         	sd	s4, 0x0(sp)
800065bc: 1800         	addi	s0, sp, 0x30
800065be: 893a         	mv	s2, a4
800065c0: 8a36         	mv	s4, a3
800065c2: 89ae         	mv	s3, a1
800065c4: 001105b7     	lui	a1, 0x110
800065c8: 00b60c63     	beq	a2, a1, 0x800065e0 <core::fmt::Formatter::pad_integral::write_prefix::hfc34f482b9af976a+0x32>
800065cc: 0209b683     	ld	a3, 0x20(s3)
800065d0: 84aa         	mv	s1, a0
800065d2: 85b2         	mv	a1, a2
800065d4: 9682         	jalr	a3
800065d6: 85aa         	mv	a1, a0
800065d8: 8526         	mv	a0, s1
800065da: c199         	beqz	a1, 0x800065e0 <core::fmt::Formatter::pad_integral::write_prefix::hfc34f482b9af976a+0x32>
800065dc: 4505         	li	a0, 0x1
800065de: a005         	j	0x800065fe <core::fmt::Formatter::pad_integral::write_prefix::hfc34f482b9af976a+0x50>
800065e0: 000a0e63     	beqz	s4, 0x800065fc <core::fmt::Formatter::pad_integral::write_prefix::hfc34f482b9af976a+0x4e>
800065e4: 0189b783     	ld	a5, 0x18(s3)
800065e8: 85d2         	mv	a1, s4
800065ea: 864a         	mv	a2, s2
800065ec: 70a2         	ld	ra, 0x28(sp)
800065ee: 7402         	ld	s0, 0x20(sp)
800065f0: 64e2         	ld	s1, 0x18(sp)
800065f2: 6942         	ld	s2, 0x10(sp)
800065f4: 69a2         	ld	s3, 0x8(sp)
800065f6: 6a02         	ld	s4, 0x0(sp)
800065f8: 6145         	addi	sp, sp, 0x30
800065fa: 8782         	jr	a5
800065fc: 4501         	li	a0, 0x0
800065fe: 70a2         	ld	ra, 0x28(sp)
80006600: 7402         	ld	s0, 0x20(sp)
80006602: 64e2         	ld	s1, 0x18(sp)
80006604: 6942         	ld	s2, 0x10(sp)
80006606: 69a2         	ld	s3, 0x8(sp)
80006608: 6a02         	ld	s4, 0x0(sp)
8000660a: 6145         	addi	sp, sp, 0x30
8000660c: 8082         	ret

000000008000660e <core::fmt::Formatter::pad_integral::h0745a9fd037e4d44>:
8000660e: 7119         	addi	sp, sp, -0x80
80006610: fc86         	sd	ra, 0x78(sp)
80006612: f8a2         	sd	s0, 0x70(sp)
80006614: f4a6         	sd	s1, 0x68(sp)
80006616: f0ca         	sd	s2, 0x60(sp)
80006618: ecce         	sd	s3, 0x58(sp)
8000661a: e8d2         	sd	s4, 0x50(sp)
8000661c: e4d6         	sd	s5, 0x48(sp)
8000661e: e0da         	sd	s6, 0x40(sp)
80006620: fc5e         	sd	s7, 0x38(sp)
80006622: f862         	sd	s8, 0x30(sp)
80006624: f466         	sd	s9, 0x28(sp)
80006626: f06a         	sd	s10, 0x20(sp)
80006628: ec6e         	sd	s11, 0x18(sp)
8000662a: 0100         	addi	s0, sp, 0x80
8000662c: 89be         	mv	s3, a5
8000662e: 8d3a         	mv	s10, a4
80006630: 8a36         	mv	s4, a3
80006632: 8ab2         	mv	s5, a2
80006634: 8baa         	mv	s7, a0
80006636: cdbd         	beqz	a1, 0x800066b4 <core::fmt::Formatter::pad_integral::h0745a9fd037e4d44+0xa6>
80006638: 010bec03     	lwu	s8, 0x10(s7)
8000663c: 00200537     	lui	a0, 0x200
80006640: 00ac7533     	and	a0, s8, a0
80006644: 00110b37     	lui	s6, 0x110
80006648: c119         	beqz	a0, 0x8000664e <core::fmt::Formatter::pad_integral::h0745a9fd037e4d44+0x40>
8000664a: 02b00b13     	li	s6, 0x2b
8000664e: 8155         	srli	a0, a0, 0x15
80006650: 00a98cb3     	add	s9, s3, a0
80006654: 028c1513     	slli	a0, s8, 0x28
80006658: 06055863     	bgez	a0, 0x800066c8 <core::fmt::Formatter::pad_integral::h0745a9fd037e4d44+0xba>
8000665c: 02000513     	li	a0, 0x20
80006660: 0aaa7a63     	bgeu	s4, a0, 0x80006714 <core::fmt::Formatter::pad_integral::h0745a9fd037e4d44+0x106>
80006664: 4501         	li	a0, 0x0
80006666: 000a0f63     	beqz	s4, 0x80006684 <core::fmt::Formatter::pad_integral::h0745a9fd037e4d44+0x76>
8000666a: 014a85b3     	add	a1, s5, s4
8000666e: 8656         	mv	a2, s5
80006670: 00060683     	lb	a3, 0x0(a2)
80006674: 0605         	addi	a2, a2, 0x1
80006676: fc06a693     	slti	a3, a3, -0x40
8000667a: 0016c693     	xori	a3, a3, 0x1
8000667e: 9536         	add	a0, a0, a3
80006680: feb618e3     	bne	a2, a1, 0x80006670 <core::fmt::Formatter::pad_integral::h0745a9fd037e4d44+0x62>
80006684: 9caa         	add	s9, s9, a0
80006686: 014bd903     	lhu	s2, 0x14(s7)
8000668a: 052cf463     	bgeu	s9, s2, 0x800066d2 <core::fmt::Formatter::pad_integral::h0745a9fd037e4d44+0xc4>
8000668e: 027c1513     	slli	a0, s8, 0x27
80006692: f9a43823     	sd	s10, -0x70(s0)
80006696: 08054b63     	bltz	a0, 0x8000672c <core::fmt::Formatter::pad_integral::h0745a9fd037e4d44+0x11e>
8000669a: 41990633     	sub	a2, s2, s9
8000669e: 021c1513     	slli	a0, s8, 0x21
800066a2: 9179         	srli	a0, a0, 0x3e
800066a4: 4585         	li	a1, 0x1
800066a6: 1c2e         	slli	s8, s8, 0x2b
800066a8: 0ea5c263     	blt	a1, a0, 0x8000678c <core::fmt::Formatter::pad_integral::h0745a9fd037e4d44+0x17e>
800066ac: 10051563     	bnez	a0, 0x800067b6 <core::fmt::Formatter::pad_integral::h0745a9fd037e4d44+0x1a8>
800066b0: 4d81         	li	s11, 0x0
800066b2: a219         	j	0x800067b8 <core::fmt::Formatter::pad_integral::h0745a9fd037e4d44+0x1aa>
800066b4: 010bac03     	lw	s8, 0x10(s7)
800066b8: 00198c93     	addi	s9, s3, 0x1
800066bc: 02d00b13     	li	s6, 0x2d
800066c0: 028c1513     	slli	a0, s8, 0x28
800066c4: f8054ce3     	bltz	a0, 0x8000665c <core::fmt::Formatter::pad_integral::h0745a9fd037e4d44+0x4e>
800066c8: 4a81         	li	s5, 0x0
800066ca: 014bd903     	lhu	s2, 0x14(s7)
800066ce: fd2ce0e3     	bltu	s9, s2, 0x8000668e <core::fmt::Formatter::pad_integral::h0745a9fd037e4d44+0x80>
800066d2: 000bbc03     	ld	s8, 0x0(s7)
800066d6: 008bb483     	ld	s1, 0x8(s7)
800066da: 8562         	mv	a0, s8
800066dc: 85a6         	mv	a1, s1
800066de: 865a         	mv	a2, s6
800066e0: 86d6         	mv	a3, s5
800066e2: 8752         	mv	a4, s4
800066e4: 00000097     	auipc	ra, 0x0
800066e8: eca080e7     	jalr	-0x136(ra) <core::fmt::Formatter::pad_integral::write_prefix::hfc34f482b9af976a>
800066ec: ed75         	bnez	a0, 0x800067e8 <core::fmt::Formatter::pad_integral::h0745a9fd037e4d44+0x1da>
800066ee: 6c9c         	ld	a5, 0x18(s1)
800066f0: 8562         	mv	a0, s8
800066f2: 85ea         	mv	a1, s10
800066f4: 864e         	mv	a2, s3
800066f6: 70e6         	ld	ra, 0x78(sp)
800066f8: 7446         	ld	s0, 0x70(sp)
800066fa: 74a6         	ld	s1, 0x68(sp)
800066fc: 7906         	ld	s2, 0x60(sp)
800066fe: 69e6         	ld	s3, 0x58(sp)
80006700: 6a46         	ld	s4, 0x50(sp)
80006702: 6aa6         	ld	s5, 0x48(sp)
80006704: 6b06         	ld	s6, 0x40(sp)
80006706: 7be2         	ld	s7, 0x38(sp)
80006708: 7c42         	ld	s8, 0x30(sp)
8000670a: 7ca2         	ld	s9, 0x28(sp)
8000670c: 7d02         	ld	s10, 0x20(sp)
8000670e: 6de2         	ld	s11, 0x18(sp)
80006710: 6109         	addi	sp, sp, 0x80
80006712: 8782         	jr	a5
80006714: 8556         	mv	a0, s5
80006716: 85d2         	mv	a1, s4
80006718: 00000097     	auipc	ra, 0x0
8000671c: 30c080e7     	jalr	0x30c(ra) <core::str::count::do_count_chars::h6ce55074ab2fe9d1>
80006720: 9caa         	add	s9, s9, a0
80006722: 014bd903     	lhu	s2, 0x14(s7)
80006726: fb2cf6e3     	bgeu	s9, s2, 0x800066d2 <core::fmt::Formatter::pad_integral::h0745a9fd037e4d44+0xc4>
8000672a: b795         	j	0x8000668e <core::fmt::Formatter::pad_integral::h0745a9fd037e4d44+0x80>
8000672c: 010bbd03     	ld	s10, 0x10(s7)
80006730: 000bbc03     	ld	s8, 0x0(s7)
80006734: 008bbd83     	ld	s11, 0x8(s7)
80006738: 9fe00537     	lui	a0, 0x9fe00
8000673c: 200005b7     	lui	a1, 0x20000
80006740: 00ad7533     	and	a0, s10, a0
80006744: 03058593     	addi	a1, a1, 0x30
80006748: 8d4d         	or	a0, a0, a1
8000674a: 00aba823     	sw	a0, 0x10(s7)
8000674e: 8562         	mv	a0, s8
80006750: 85ee         	mv	a1, s11
80006752: 865a         	mv	a2, s6
80006754: 86d6         	mv	a3, s5
80006756: 8752         	mv	a4, s4
80006758: 00000097     	auipc	ra, 0x0
8000675c: e56080e7     	jalr	-0x1aa(ra) <core::fmt::Formatter::pad_integral::write_prefix::hfc34f482b9af976a>
80006760: 4a05         	li	s4, 0x1
80006762: e541         	bnez	a0, 0x800067ea <core::fmt::Formatter::pad_integral::h0745a9fd037e4d44+0x1dc>
80006764: 4481         	li	s1, 0x0
80006766: 41990533     	sub	a0, s2, s9
8000676a: 6941         	lui	s2, 0x10
8000676c: 197d         	addi	s2, s2, -0x1
8000676e: 01257ab3     	and	s5, a0, s2
80006772: 0124f533     	and	a0, s1, s2
80006776: 03557463     	bgeu	a0, s5, 0x8000679e <core::fmt::Formatter::pad_integral::h0745a9fd037e4d44+0x190>
8000677a: 020db603     	ld	a2, 0x20(s11)
8000677e: 0485         	addi	s1, s1, 0x1
80006780: 03000593     	li	a1, 0x30
80006784: 8562         	mv	a0, s8
80006786: 9602         	jalr	a2
80006788: d56d         	beqz	a0, 0x80006772 <core::fmt::Formatter::pad_integral::h0745a9fd037e4d44+0x164>
8000678a: a085         	j	0x800067ea <core::fmt::Formatter::pad_integral::h0745a9fd037e4d44+0x1dc>
8000678c: 4589         	li	a1, 0x2
8000678e: 8db2         	mv	s11, a2
80006790: 02b51463     	bne	a0, a1, 0x800067b8 <core::fmt::Formatter::pad_integral::h0745a9fd037e4d44+0x1aa>
80006794: 03061513     	slli	a0, a2, 0x30
80006798: 03155d93     	srli	s11, a0, 0x31
8000679c: a831         	j	0x800067b8 <core::fmt::Formatter::pad_integral::h0745a9fd037e4d44+0x1aa>
8000679e: 018db683     	ld	a3, 0x18(s11)
800067a2: 8562         	mv	a0, s8
800067a4: f9043583     	ld	a1, -0x70(s0)
800067a8: 864e         	mv	a2, s3
800067aa: 9682         	jalr	a3
800067ac: ed1d         	bnez	a0, 0x800067ea <core::fmt::Formatter::pad_integral::h0745a9fd037e4d44+0x1dc>
800067ae: 4a01         	li	s4, 0x0
800067b0: 01abb823     	sd	s10, 0x10(s7)
800067b4: a81d         	j	0x800067ea <core::fmt::Formatter::pad_integral::h0745a9fd037e4d44+0x1dc>
800067b6: 8db2         	mv	s11, a2
800067b8: f8c43423     	sd	a2, -0x78(s0)
800067bc: 4d01         	li	s10, 0x0
800067be: 02bc5c13     	srli	s8, s8, 0x2b
800067c2: 000bbc83     	ld	s9, 0x0(s7)
800067c6: 008bbb83     	ld	s7, 0x8(s7)
800067ca: 64c1         	lui	s1, 0x10
800067cc: 14fd         	addi	s1, s1, -0x1
800067ce: 009df933     	and	s2, s11, s1
800067d2: 009d7533     	and	a0, s10, s1
800067d6: 03257a63     	bgeu	a0, s2, 0x8000680a <core::fmt::Formatter::pad_integral::h0745a9fd037e4d44+0x1fc>
800067da: 020bb603     	ld	a2, 0x20(s7)
800067de: 0d05         	addi	s10, s10, 0x1
800067e0: 8566         	mv	a0, s9
800067e2: 85e2         	mv	a1, s8
800067e4: 9602         	jalr	a2
800067e6: d575         	beqz	a0, 0x800067d2 <core::fmt::Formatter::pad_integral::h0745a9fd037e4d44+0x1c4>
800067e8: 4a05         	li	s4, 0x1
800067ea: 8552         	mv	a0, s4
800067ec: 70e6         	ld	ra, 0x78(sp)
800067ee: 7446         	ld	s0, 0x70(sp)
800067f0: 74a6         	ld	s1, 0x68(sp)
800067f2: 7906         	ld	s2, 0x60(sp)
800067f4: 69e6         	ld	s3, 0x58(sp)
800067f6: 6a46         	ld	s4, 0x50(sp)
800067f8: 6aa6         	ld	s5, 0x48(sp)
800067fa: 6b06         	ld	s6, 0x40(sp)
800067fc: 7be2         	ld	s7, 0x38(sp)
800067fe: 7c42         	ld	s8, 0x30(sp)
80006800: 7ca2         	ld	s9, 0x28(sp)
80006802: 7d02         	ld	s10, 0x20(sp)
80006804: 6de2         	ld	s11, 0x18(sp)
80006806: 6109         	addi	sp, sp, 0x80
80006808: 8082         	ret
8000680a: 8566         	mv	a0, s9
8000680c: 85de         	mv	a1, s7
8000680e: 865a         	mv	a2, s6
80006810: 86d6         	mv	a3, s5
80006812: 8752         	mv	a4, s4
80006814: 00000097     	auipc	ra, 0x0
80006818: d9a080e7     	jalr	-0x266(ra) <core::fmt::Formatter::pad_integral::write_prefix::hfc34f482b9af976a>
8000681c: 4a05         	li	s4, 0x1
8000681e: f571         	bnez	a0, 0x800067ea <core::fmt::Formatter::pad_integral::h0745a9fd037e4d44+0x1dc>
80006820: 018bb683     	ld	a3, 0x18(s7)
80006824: 8566         	mv	a0, s9
80006826: f9043583     	ld	a1, -0x70(s0)
8000682a: 864e         	mv	a2, s3
8000682c: 9682         	jalr	a3
8000682e: fd55         	bnez	a0, 0x800067ea <core::fmt::Formatter::pad_integral::h0745a9fd037e4d44+0x1dc>
80006830: 4481         	li	s1, 0x0
80006832: f8843503     	ld	a0, -0x78(s0)
80006836: 41b50533     	sub	a0, a0, s11
8000683a: 6941         	lui	s2, 0x10
8000683c: 197d         	addi	s2, s2, -0x1
8000683e: 012579b3     	and	s3, a0, s2
80006842: 0124f533     	and	a0, s1, s2
80006846: 01353a33     	sltu	s4, a0, s3
8000684a: fb3570e3     	bgeu	a0, s3, 0x800067ea <core::fmt::Formatter::pad_integral::h0745a9fd037e4d44+0x1dc>
8000684e: 020bb603     	ld	a2, 0x20(s7)
80006852: 0485         	addi	s1, s1, 0x1
80006854: 8566         	mv	a0, s9
80006856: 85e2         	mv	a1, s8
80006858: 9602         	jalr	a2
8000685a: d565         	beqz	a0, 0x80006842 <core::fmt::Formatter::pad_integral::h0745a9fd037e4d44+0x234>
8000685c: b779         	j	0x800067ea <core::fmt::Formatter::pad_integral::h0745a9fd037e4d44+0x1dc>

000000008000685e <core::fmt::Formatter::pad::h239e525174ab4a17>:
8000685e: 711d         	addi	sp, sp, -0x60
80006860: ec86         	sd	ra, 0x58(sp)
80006862: e8a2         	sd	s0, 0x50(sp)
80006864: e4a6         	sd	s1, 0x48(sp)
80006866: e0ca         	sd	s2, 0x40(sp)
80006868: fc4e         	sd	s3, 0x38(sp)
8000686a: f852         	sd	s4, 0x30(sp)
8000686c: f456         	sd	s5, 0x28(sp)
8000686e: f05a         	sd	s6, 0x20(sp)
80006870: ec5e         	sd	s7, 0x18(sp)
80006872: e862         	sd	s8, 0x10(sp)
80006874: e466         	sd	s9, 0x8(sp)
80006876: e06a         	sd	s10, 0x0(sp)
80006878: 1080         	addi	s0, sp, 0x60
8000687a: 89b2         	mv	s3, a2
8000687c: 01056483     	lwu	s1, 0x10(a0)
80006880: 18000637     	lui	a2, 0x18000
80006884: 8e65         	and	a2, a2, s1
80006886: 892e         	mv	s2, a1
80006888: ce45         	beqz	a2, 0x80006940 <core::fmt::Formatter::pad::h239e525174ab4a17+0xe2>
8000688a: 02349593     	slli	a1, s1, 0x23
8000688e: 0405c863     	bltz	a1, 0x800068de <core::fmt::Formatter::pad::h239e525174ab4a17+0x80>
80006892: 02000593     	li	a1, 0x20
80006896: 0cb9f863     	bgeu	s3, a1, 0x80006966 <core::fmt::Formatter::pad::h239e525174ab4a17+0x108>
8000689a: 4581         	li	a1, 0x0
8000689c: 00098f63     	beqz	s3, 0x800068ba <core::fmt::Formatter::pad::h239e525174ab4a17+0x5c>
800068a0: 01390633     	add	a2, s2, s3
800068a4: 86ca         	mv	a3, s2
800068a6: 00068703     	lb	a4, 0x0(a3)
800068aa: 0685         	addi	a3, a3, 0x1
800068ac: fc072713     	slti	a4, a4, -0x40
800068b0: 00174713     	xori	a4, a4, 0x1
800068b4: 95ba         	add	a1, a1, a4
800068b6: fec698e3     	bne	a3, a2, 0x800068a6 <core::fmt::Formatter::pad::h239e525174ab4a17+0x48>
800068ba: 01455603     	lhu	a2, 0x14(a0)
800068be: 08c5f163     	bgeu	a1, a2, 0x80006940 <core::fmt::Formatter::pad::h239e525174ab4a17+0xe2>
800068c2: 4b81         	li	s7, 0x0
800068c4: 40b60b33     	sub	s6, a2, a1
800068c8: 02149613     	slli	a2, s1, 0x21
800068cc: 9279         	srli	a2, a2, 0x3e
800068ce: 4685         	li	a3, 0x1
800068d0: 02b49593     	slli	a1, s1, 0x2b
800068d4: 0ac6c763     	blt	a3, a2, 0x80006982 <core::fmt::Formatter::pad::h239e525174ab4a17+0x124>
800068d8: ce45         	beqz	a2, 0x80006990 <core::fmt::Formatter::pad::h239e525174ab4a17+0x132>
800068da: 8bda         	mv	s7, s6
800068dc: a855         	j	0x80006990 <core::fmt::Formatter::pad::h239e525174ab4a17+0x132>
800068de: 01655583     	lhu	a1, 0x16(a0)
800068e2: 10058563     	beqz	a1, 0x800069ec <core::fmt::Formatter::pad::h239e525174ab4a17+0x18e>
800068e6: 013906b3     	add	a3, s2, s3
800068ea: 0e000893     	li	a7, 0xe0
800068ee: 0f000813     	li	a6, 0xf0
800068f2: 87ca         	mv	a5, s2
800068f4: 862e         	mv	a2, a1
800068f6: 4981         	li	s3, 0x0
800068f8: a811         	j	0x8000690c <core::fmt::Formatter::pad::h239e525174ab4a17+0xae>
800068fa: 00178713     	addi	a4, a5, 0x1
800068fe: 413787b3     	sub	a5, a5, s3
80006902: 167d         	addi	a2, a2, -0x1
80006904: 40f709b3     	sub	s3, a4, a5
80006908: 87ba         	mv	a5, a4
8000690a: c615         	beqz	a2, 0x80006936 <core::fmt::Formatter::pad::h239e525174ab4a17+0xd8>
8000690c: 02d78563     	beq	a5, a3, 0x80006936 <core::fmt::Formatter::pad::h239e525174ab4a17+0xd8>
80006910: 00078703     	lb	a4, 0x0(a5)
80006914: fe0753e3     	bgez	a4, 0x800068fa <core::fmt::Formatter::pad::h239e525174ab4a17+0x9c>
80006918: 0ff77713     	zext.b	a4, a4
8000691c: 01176763     	bltu	a4, a7, 0x8000692a <core::fmt::Formatter::pad::h239e525174ab4a17+0xcc>
80006920: 01076863     	bltu	a4, a6, 0x80006930 <core::fmt::Formatter::pad::h239e525174ab4a17+0xd2>
80006924: 00478713     	addi	a4, a5, 0x4
80006928: bfd9         	j	0x800068fe <core::fmt::Formatter::pad::h239e525174ab4a17+0xa0>
8000692a: 00278713     	addi	a4, a5, 0x2
8000692e: bfc1         	j	0x800068fe <core::fmt::Formatter::pad::h239e525174ab4a17+0xa0>
80006930: 00378713     	addi	a4, a5, 0x3
80006934: b7e9         	j	0x800068fe <core::fmt::Formatter::pad::h239e525174ab4a17+0xa0>
80006936: 8d91         	sub	a1, a1, a2
80006938: 01455603     	lhu	a2, 0x14(a0)
8000693c: f8c5e3e3     	bltu	a1, a2, 0x800068c2 <core::fmt::Formatter::pad::h239e525174ab4a17+0x64>
80006940: 650c         	ld	a1, 0x8(a0)
80006942: 6108         	ld	a0, 0x0(a0)
80006944: 6d9c         	ld	a5, 0x18(a1)
80006946: 85ca         	mv	a1, s2
80006948: 864e         	mv	a2, s3
8000694a: 60e6         	ld	ra, 0x58(sp)
8000694c: 6446         	ld	s0, 0x50(sp)
8000694e: 64a6         	ld	s1, 0x48(sp)
80006950: 6906         	ld	s2, 0x40(sp)
80006952: 79e2         	ld	s3, 0x38(sp)
80006954: 7a42         	ld	s4, 0x30(sp)
80006956: 7aa2         	ld	s5, 0x28(sp)
80006958: 7b02         	ld	s6, 0x20(sp)
8000695a: 6be2         	ld	s7, 0x18(sp)
8000695c: 6c42         	ld	s8, 0x10(sp)
8000695e: 6ca2         	ld	s9, 0x8(sp)
80006960: 6d02         	ld	s10, 0x0(sp)
80006962: 6125         	addi	sp, sp, 0x60
80006964: 8782         	jr	a5
80006966: 8a2a         	mv	s4, a0
80006968: 854a         	mv	a0, s2
8000696a: 85ce         	mv	a1, s3
8000696c: 00000097     	auipc	ra, 0x0
80006970: 0b8080e7     	jalr	0xb8(ra) <core::str::count::do_count_chars::h6ce55074ab2fe9d1>
80006974: 85aa         	mv	a1, a0
80006976: 8552         	mv	a0, s4
80006978: 014a5603     	lhu	a2, 0x14(s4)
8000697c: fcc5f2e3     	bgeu	a1, a2, 0x80006940 <core::fmt::Formatter::pad::h239e525174ab4a17+0xe2>
80006980: b789         	j	0x800068c2 <core::fmt::Formatter::pad::h239e525174ab4a17+0x64>
80006982: 4689         	li	a3, 0x2
80006984: 00d61663     	bne	a2, a3, 0x80006990 <core::fmt::Formatter::pad::h239e525174ab4a17+0x132>
80006988: 030b1613     	slli	a2, s6, 0x30
8000698c: 03165b93     	srli	s7, a2, 0x31
80006990: 4481         	li	s1, 0x0
80006992: 02b5da13     	srli	s4, a1, 0x2b
80006996: 00053a83     	ld	s5, 0x0(a0)
8000699a: 00853c03     	ld	s8, 0x8(a0)
8000699e: 6cc1         	lui	s9, 0x10
800069a0: 1cfd         	addi	s9, s9, -0x1
800069a2: 019bfd33     	and	s10, s7, s9
800069a6: 0194f533     	and	a0, s1, s9
800069aa: 01a57a63     	bgeu	a0, s10, 0x800069be <core::fmt::Formatter::pad::h239e525174ab4a17+0x160>
800069ae: 020c3603     	ld	a2, 0x20(s8)
800069b2: 0485         	addi	s1, s1, 0x1
800069b4: 8556         	mv	a0, s5
800069b6: 85d2         	mv	a1, s4
800069b8: 9602         	jalr	a2
800069ba: d575         	beqz	a0, 0x800069a6 <core::fmt::Formatter::pad::h239e525174ab4a17+0x148>
800069bc: a801         	j	0x800069cc <core::fmt::Formatter::pad::h239e525174ab4a17+0x16e>
800069be: 018c3683     	ld	a3, 0x18(s8)
800069c2: 8556         	mv	a0, s5
800069c4: 85ca         	mv	a1, s2
800069c6: 864e         	mv	a2, s3
800069c8: 9682         	jalr	a3
800069ca: c905         	beqz	a0, 0x800069fa <core::fmt::Formatter::pad::h239e525174ab4a17+0x19c>
800069cc: 4905         	li	s2, 0x1
800069ce: 854a         	mv	a0, s2
800069d0: 60e6         	ld	ra, 0x58(sp)
800069d2: 6446         	ld	s0, 0x50(sp)
800069d4: 64a6         	ld	s1, 0x48(sp)
800069d6: 6906         	ld	s2, 0x40(sp)
800069d8: 79e2         	ld	s3, 0x38(sp)
800069da: 7a42         	ld	s4, 0x30(sp)
800069dc: 7aa2         	ld	s5, 0x28(sp)
800069de: 7b02         	ld	s6, 0x20(sp)
800069e0: 6be2         	ld	s7, 0x18(sp)
800069e2: 6c42         	ld	s8, 0x10(sp)
800069e4: 6ca2         	ld	s9, 0x8(sp)
800069e6: 6d02         	ld	s10, 0x0(sp)
800069e8: 6125         	addi	sp, sp, 0x60
800069ea: 8082         	ret
800069ec: 4981         	li	s3, 0x0
800069ee: 85ae         	mv	a1, a1
800069f0: 01455603     	lhu	a2, 0x14(a0)
800069f4: ecc5e7e3     	bltu	a1, a2, 0x800068c2 <core::fmt::Formatter::pad::h239e525174ab4a17+0x64>
800069f8: b7a1         	j	0x80006940 <core::fmt::Formatter::pad::h239e525174ab4a17+0xe2>
800069fa: 4481         	li	s1, 0x0
800069fc: 417b0533     	sub	a0, s6, s7
80006a00: 69c1         	lui	s3, 0x10
80006a02: 19fd         	addi	s3, s3, -0x1
80006a04: 01357b33     	and	s6, a0, s3
80006a08: 0134f533     	and	a0, s1, s3
80006a0c: 01653933     	sltu	s2, a0, s6
80006a10: fb657fe3     	bgeu	a0, s6, 0x800069ce <core::fmt::Formatter::pad::h239e525174ab4a17+0x170>
80006a14: 020c3603     	ld	a2, 0x20(s8)
80006a18: 0485         	addi	s1, s1, 0x1
80006a1a: 8556         	mv	a0, s5
80006a1c: 85d2         	mv	a1, s4
80006a1e: 9602         	jalr	a2
80006a20: d565         	beqz	a0, 0x80006a08 <core::fmt::Formatter::pad::h239e525174ab4a17+0x1aa>
80006a22: b775         	j	0x800069ce <core::fmt::Formatter::pad::h239e525174ab4a17+0x170>

0000000080006a24 <core::str::count::do_count_chars::h6ce55074ab2fe9d1>:
80006a24: 1141         	addi	sp, sp, -0x10
80006a26: e422         	sd	s0, 0x8(sp)
80006a28: 862a         	mv	a2, a0
80006a2a: 00750693     	addi	a3, a0, 0x7
80006a2e: 9ae1         	andi	a3, a3, -0x8
80006a30: 40a68333     	sub	t1, a3, a0
80006a34: 0265f263     	bgeu	a1, t1, 0x80006a58 <core::str::count::do_count_chars::h6ce55074ab2fe9d1+0x34>
80006a38: 4501         	li	a0, 0x0
80006a3a: cd81         	beqz	a1, 0x80006a52 <core::str::count::do_count_chars::h6ce55074ab2fe9d1+0x2e>
80006a3c: 95b2         	add	a1, a1, a2
80006a3e: 00060683     	lb	a3, 0x0(a2)
80006a42: 0605         	addi	a2, a2, 0x1
80006a44: fc06a693     	slti	a3, a3, -0x40
80006a48: 0016c693     	xori	a3, a3, 0x1
80006a4c: 9536         	add	a0, a0, a3
80006a4e: feb618e3     	bne	a2, a1, 0x80006a3e <core::str::count::do_count_chars::h6ce55074ab2fe9d1+0x1a>
80006a52: 6422         	ld	s0, 0x8(sp)
80006a54: 0141         	addi	sp, sp, 0x10
80006a56: 8082         	ret
80006a58: 40658733     	sub	a4, a1, t1
80006a5c: 00375393     	srli	t2, a4, 0x3
80006a60: fc038ce3     	beqz	t2, 0x80006a38 <core::str::count::do_count_chars::h6ce55074ab2fe9d1+0x14>
80006a64: 9332         	add	t1, t1, a2
80006a66: 00777813     	andi	a6, a4, 0x7
80006a6a: 4501         	li	a0, 0x0
80006a6c: 00c68c63     	beq	a3, a2, 0x80006a84 <core::str::count::do_count_chars::h6ce55074ab2fe9d1+0x60>
80006a70: 00060583     	lb	a1, 0x0(a2)
80006a74: 0605         	addi	a2, a2, 0x1
80006a76: fc05a593     	slti	a1, a1, -0x40
80006a7a: 0015c593     	xori	a1, a1, 0x1
80006a7e: 952e         	add	a0, a0, a1
80006a80: fe6618e3     	bne	a2, t1, 0x80006a70 <core::str::count::do_count_chars::h6ce55074ab2fe9d1+0x4c>
80006a84: 4581         	li	a1, 0x0
80006a86: 02080363     	beqz	a6, 0x80006aac <core::str::count::do_count_chars::h6ce55074ab2fe9d1+0x88>
80006a8a: 96c2         	add	a3, a3, a6
80006a8c: 5645         	li	a2, -0xf
80006a8e: 8205         	srli	a2, a2, 0x1
80006a90: 8f71         	and	a4, a4, a2
80006a92: 00e30633     	add	a2, t1, a4
80006a96: 96ba         	add	a3, a3, a4
80006a98: 00060703     	lb	a4, 0x0(a2)
80006a9c: 0605         	addi	a2, a2, 0x1
80006a9e: fc072713     	slti	a4, a4, -0x40
80006aa2: 00174713     	xori	a4, a4, 0x1
80006aa6: 95ba         	add	a1, a1, a4
80006aa8: fed618e3     	bne	a2, a3, 0x80006a98 <core::str::count::do_count_chars::h6ce55074ab2fe9d1+0x74>
80006aac: 01010637     	lui	a2, 0x1010
80006ab0: 00ff06b7     	lui	a3, 0xff0
80006ab4: 6741         	lui	a4, 0x10
80006ab6: 10160613     	addi	a2, a2, 0x101
80006aba: 0ff68893     	addi	a7, a3, 0xff
80006abe: 00170813     	addi	a6, a4, 0x1
80006ac2: 02061713     	slli	a4, a2, 0x20
80006ac6: 00e60f33     	add	t5, a2, a4
80006aca: 02089613     	slli	a2, a7, 0x20
80006ace: 98b2         	add	a7, a7, a2
80006ad0: 02081613     	slli	a2, a6, 0x20
80006ad4: 9832         	add	a6, a6, a2
80006ad6: 952e         	add	a0, a0, a1
80006ad8: a015         	j	0x80006afc <core::str::count::do_count_chars::h6ce55074ab2fe9d1+0xd8>
80006ada: 9372         	add	t1, t1, t3
80006adc: 405383b3     	sub	t2, t2, t0
80006ae0: 0032f793     	andi	a5, t0, 0x3
80006ae4: 011ff5b3     	and	a1, t6, a7
80006ae8: 008fd613     	srli	a2, t6, 0x8
80006aec: 01167633     	and	a2, a2, a7
80006af0: 95b2         	add	a1, a1, a2
80006af2: 030585b3     	mul	a1, a1, a6
80006af6: 91c1         	srli	a1, a1, 0x30
80006af8: 952e         	add	a0, a0, a1
80006afa: efad         	bnez	a5, 0x80006b74 <core::str::count::do_count_chars::h6ce55074ab2fe9d1+0x150>
80006afc: f4038be3     	beqz	t2, 0x80006a52 <core::str::count::do_count_chars::h6ce55074ab2fe9d1+0x2e>
80006b00: 8e1a         	mv	t3, t1
80006b02: 0c000593     	li	a1, 0xc0
80006b06: 829e         	mv	t0, t2
80006b08: 00b3e463     	bltu	t2, a1, 0x80006b10 <core::str::count::do_count_chars::h6ce55074ab2fe9d1+0xec>
80006b0c: 0c000293     	li	t0, 0xc0
80006b10: 00329313     	slli	t1, t0, 0x3
80006b14: 4f81         	li	t6, 0x0
80006b16: 7e037793     	andi	a5, t1, 0x7e0
80006b1a: d3e1         	beqz	a5, 0x80006ada <core::str::count::do_count_chars::h6ce55074ab2fe9d1+0xb6>
80006b1c: 00fe0eb3     	add	t4, t3, a5
80006b20: 85f2         	mv	a1, t3
80006b22: 6194         	ld	a3, 0x0(a1)
80006b24: 659c         	ld	a5, 0x8(a1)
80006b26: 6998         	ld	a4, 0x10(a1)
80006b28: 6d90         	ld	a2, 0x18(a1)
80006b2a: fff6c413     	not	s0, a3
80006b2e: 8299         	srli	a3, a3, 0x6
80006b30: 801d         	srli	s0, s0, 0x7
80006b32: 8ec1         	or	a3, a3, s0
80006b34: fff7c413     	not	s0, a5
80006b38: 8399         	srli	a5, a5, 0x6
80006b3a: 801d         	srli	s0, s0, 0x7
80006b3c: 8fc1         	or	a5, a5, s0
80006b3e: fff74413     	not	s0, a4
80006b42: 8319         	srli	a4, a4, 0x6
80006b44: 801d         	srli	s0, s0, 0x7
80006b46: 8f41         	or	a4, a4, s0
80006b48: fff64413     	not	s0, a2
80006b4c: 8219         	srli	a2, a2, 0x6
80006b4e: 801d         	srli	s0, s0, 0x7
80006b50: 8e41         	or	a2, a2, s0
80006b52: 01e6f6b3     	and	a3, a3, t5
80006b56: 96fe         	add	a3, a3, t6
80006b58: 01e7f7b3     	and	a5, a5, t5
80006b5c: 01e77733     	and	a4, a4, t5
80006b60: 01e67fb3     	and	t6, a2, t5
80006b64: 973e         	add	a4, a4, a5
80006b66: 96ba         	add	a3, a3, a4
80006b68: 02058593     	addi	a1, a1, 0x20
80006b6c: 9fb6         	add	t6, t6, a3
80006b6e: fbd59ae3     	bne	a1, t4, 0x80006b22 <core::str::count::do_count_chars::h6ce55074ab2fe9d1+0xfe>
80006b72: b7a5         	j	0x80006ada <core::str::count::do_count_chars::h6ce55074ab2fe9d1+0xb6>
80006b74: 4581         	li	a1, 0x0
80006b76: 0fc2f613     	andi	a2, t0, 0xfc
80006b7a: 060e         	slli	a2, a2, 0x3
80006b7c: 00ce06b3     	add	a3, t3, a2
80006b80: 00379613     	slli	a2, a5, 0x3
80006b84: 6298         	ld	a4, 0x0(a3)
80006b86: 06a1         	addi	a3, a3, 0x8
80006b88: fff74793     	not	a5, a4
80006b8c: 8319         	srli	a4, a4, 0x6
80006b8e: 839d         	srli	a5, a5, 0x7
80006b90: 8f5d         	or	a4, a4, a5
80006b92: 01e77733     	and	a4, a4, t5
80006b96: 1661         	addi	a2, a2, -0x8
80006b98: 95ba         	add	a1, a1, a4
80006b9a: f66d         	bnez	a2, 0x80006b84 <core::str::count::do_count_chars::h6ce55074ab2fe9d1+0x160>
80006b9c: 0115f633     	and	a2, a1, a7
80006ba0: 81a1         	srli	a1, a1, 0x8
80006ba2: 0115f5b3     	and	a1, a1, a7
80006ba6: 95b2         	add	a1, a1, a2
80006ba8: 030585b3     	mul	a1, a1, a6
80006bac: 91c1         	srli	a1, a1, 0x30
80006bae: 952e         	add	a0, a0, a1
80006bb0: 6422         	ld	s0, 0x8(sp)
80006bb2: 0141         	addi	sp, sp, 0x10
80006bb4: 8082         	ret

0000000080006bb6 <core::panicking::panic_const::panic_const_div_by_zero::hcfde4c26e8ecfc4b>:
80006bb6: 1141         	addi	sp, sp, -0x10
80006bb8: e406         	sd	ra, 0x8(sp)
80006bba: e022         	sd	s0, 0x0(sp)
80006bbc: 0800         	addi	s0, sp, 0x10
80006bbe: 862a         	mv	a2, a0

0000000080006bc0 <.Lpcrel_hi967>:
80006bc0: 00003517     	auipc	a0, 0x3
80006bc4: 8b850513     	addi	a0, a0, -0x748
80006bc8: 03300593     	li	a1, 0x33
80006bcc: 00000097     	auipc	ra, 0x0
80006bd0: 14c080e7     	jalr	0x14c(ra) <core::panicking::panic_fmt::h767dc8ac4dd44648>

0000000080006bd4 <core::panicking::panic_const::panic_const_add_overflow::h67cba067093910f8>:
80006bd4: 1141         	addi	sp, sp, -0x10
80006bd6: e406         	sd	ra, 0x8(sp)
80006bd8: e022         	sd	s0, 0x0(sp)
80006bda: 0800         	addi	s0, sp, 0x10
80006bdc: 862a         	mv	a2, a0

0000000080006bde <.Lpcrel_hi970>:
80006bde: 00003517     	auipc	a0, 0x3
80006be2: 83c50513     	addi	a0, a0, -0x7c4
80006be6: 03900593     	li	a1, 0x39
80006bea: 00000097     	auipc	ra, 0x0
80006bee: 12e080e7     	jalr	0x12e(ra) <core::panicking::panic_fmt::h767dc8ac4dd44648>

0000000080006bf2 <core::panicking::panic_const::panic_const_mul_overflow::h67897feae7531d51>:
80006bf2: 1141         	addi	sp, sp, -0x10
80006bf4: e406         	sd	ra, 0x8(sp)
80006bf6: e022         	sd	s0, 0x0(sp)
80006bf8: 0800         	addi	s0, sp, 0x10
80006bfa: 862a         	mv	a2, a0

0000000080006bfc <.Lpcrel_hi972>:
80006bfc: 00003517     	auipc	a0, 0x3
80006c00: 83a50513     	addi	a0, a0, -0x7c6
80006c04: 04300593     	li	a1, 0x43
80006c08: 00000097     	auipc	ra, 0x0
80006c0c: 110080e7     	jalr	0x110(ra) <core::panicking::panic_fmt::h767dc8ac4dd44648>

0000000080006c10 <core::panicking::panic_const::panic_const_sub_overflow::hccc965ba9198de7c>:
80006c10: 1141         	addi	sp, sp, -0x10
80006c12: e406         	sd	ra, 0x8(sp)
80006c14: e022         	sd	s0, 0x0(sp)
80006c16: 0800         	addi	s0, sp, 0x10
80006c18: 862a         	mv	a2, a0

0000000080006c1a <.Lpcrel_hi977>:
80006c1a: 00003517     	auipc	a0, 0x3
80006c1e: 83d50513     	addi	a0, a0, -0x7c3
80006c22: 04300593     	li	a1, 0x43
80006c26: 00000097     	auipc	ra, 0x0
80006c2a: 0f2080e7     	jalr	0xf2(ra) <core::panicking::panic_fmt::h767dc8ac4dd44648>

0000000080006c2e <core::panicking::panic_nounwind::hf19a354d0b2d9097>:
80006c2e: 1141         	addi	sp, sp, -0x10
80006c30: e406         	sd	ra, 0x8(sp)
80006c32: e022         	sd	s0, 0x0(sp)
80006c34: 0800         	addi	s0, sp, 0x10
80006c36: 0586         	slli	a1, a1, 0x1
80006c38: 0585         	addi	a1, a1, 0x1

0000000080006c3a <.Lpcrel_hi992>:
80006c3a: 00003617     	auipc	a2, 0x3
80006c3e: 85e60693     	addi	a3, a2, -0x7a2
80006c42: 4601         	li	a2, 0x0
80006c44: 00000097     	auipc	ra, 0x0
80006c48: 044080e7     	jalr	0x44(ra) <core::panicking::panic_nounwind_fmt::h2e018e50a8d3bc73>

0000000080006c4c <core::panicking::panic_bounds_check::h6aaee0d15e0261eb>:
80006c4c: 7139         	addi	sp, sp, -0x40
80006c4e: fc06         	sd	ra, 0x38(sp)
80006c50: f822         	sd	s0, 0x30(sp)
80006c52: 0080         	addi	s0, sp, 0x40
80006c54: f0040713     	addi	a4, s0, -0x100
80006c58: e368         	sd	a0, 0xc0(a4)
80006c5a: e76c         	sd	a1, 0xc8(a4)
80006c5c: fc840513     	addi	a0, s0, -0x38

0000000080006c60 <.Lpcrel_hi997>:
80006c60: fffff597     	auipc	a1, 0xfffff
80006c64: fc040693     	addi	a3, s0, -0x40
80006c68: 67c58593     	addi	a1, a1, 0x67c
80006c6c: eb68         	sd	a0, 0xd0(a4)
80006c6e: ef6c         	sd	a1, 0xd8(a4)
80006c70: f374         	sd	a3, 0xe0(a4)
80006c72: f76c         	sd	a1, 0xe8(a4)

0000000080006c74 <.Lpcrel_hi998>:
80006c74: 00000517     	auipc	a0, 0x0
80006c78: 54450513     	addi	a0, a0, 0x544
80006c7c: fd040593     	addi	a1, s0, -0x30
80006c80: 00000097     	auipc	ra, 0x0
80006c84: 098080e7     	jalr	0x98(ra) <core::panicking::panic_fmt::h767dc8ac4dd44648>

0000000080006c88 <core::panicking::panic_nounwind_fmt::h2e018e50a8d3bc73>:
80006c88: 7139         	addi	sp, sp, -0x40
80006c8a: fc06         	sd	ra, 0x38(sp)
80006c8c: f822         	sd	s0, 0x30(sp)
80006c8e: 0080         	addi	s0, sp, 0x40
80006c90: fca43423     	sd	a0, -0x38(s0)
80006c94: fcb43823     	sd	a1, -0x30(s0)
80006c98: fc840513     	addi	a0, s0, -0x38
80006c9c: fca43c23     	sd	a0, -0x28(s0)
80006ca0: fed43023     	sd	a3, -0x20(s0)
80006ca4: fe040423     	sb	zero, -0x18(s0)
80006ca8: fec404a3     	sb	a2, -0x17(s0)
80006cac: fd840513     	addi	a0, s0, -0x28
80006cb0: ffffa097     	auipc	ra, 0xffffa
80006cb4: fd8080e7     	jalr	-0x28(ra) <__user_program_end>

0000000080006cb8 <core::panicking::panic_null_pointer_dereference::hbac6411af4f2e916>:
80006cb8: 1141         	addi	sp, sp, -0x10
80006cba: e406         	sd	ra, 0x8(sp)
80006cbc: e022         	sd	s0, 0x0(sp)
80006cbe: 0800         	addi	s0, sp, 0x10
80006cc0: 86aa         	mv	a3, a0

0000000080006cc2 <.Lpcrel_hi1010>:
80006cc2: 00002517     	auipc	a0, 0x2
80006cc6: 7ee50513     	addi	a0, a0, 0x7ee
80006cca: 04300593     	li	a1, 0x43
80006cce: 4601         	li	a2, 0x0
80006cd0: 00000097     	auipc	ra, 0x0
80006cd4: fb8080e7     	jalr	-0x48(ra) <core::panicking::panic_nounwind_fmt::h2e018e50a8d3bc73>

0000000080006cd8 <core::panicking::panic_misaligned_pointer_dereference::hda85f7fb51d959f0>:
80006cd8: 7139         	addi	sp, sp, -0x40
80006cda: fc06         	sd	ra, 0x38(sp)
80006cdc: f822         	sd	s0, 0x30(sp)
80006cde: 0080         	addi	s0, sp, 0x40
80006ce0: 86b2         	mv	a3, a2
80006ce2: f0040713     	addi	a4, s0, -0x100
80006ce6: e368         	sd	a0, 0xc0(a4)
80006ce8: e76c         	sd	a1, 0xc8(a4)
80006cea: fc040513     	addi	a0, s0, -0x40

0000000080006cee <.Lpcrel_hi1013>:
80006cee: fffff597     	auipc	a1, 0xfffff
80006cf2: fc840613     	addi	a2, s0, -0x38
80006cf6: 63a58593     	addi	a1, a1, 0x63a
80006cfa: eb68         	sd	a0, 0xd0(a4)
80006cfc: ef6c         	sd	a1, 0xd8(a4)
80006cfe: f370         	sd	a2, 0xe0(a4)
80006d00: f76c         	sd	a1, 0xe8(a4)

0000000080006d02 <.Lpcrel_hi1014>:
80006d02: 00002517     	auipc	a0, 0x2
80006d06: 7cf50513     	addi	a0, a0, 0x7cf
80006d0a: fd040593     	addi	a1, s0, -0x30
80006d0e: 4601         	li	a2, 0x0
80006d10: 00000097     	auipc	ra, 0x0
80006d14: f78080e7     	jalr	-0x88(ra) <core::panicking::panic_nounwind_fmt::h2e018e50a8d3bc73>

0000000080006d18 <core::panicking::panic_fmt::h767dc8ac4dd44648>:
80006d18: 7139         	addi	sp, sp, -0x40
80006d1a: fc06         	sd	ra, 0x38(sp)
80006d1c: f822         	sd	s0, 0x30(sp)
80006d1e: 0080         	addi	s0, sp, 0x40
80006d20: fca43423     	sd	a0, -0x38(s0)
80006d24: fcb43823     	sd	a1, -0x30(s0)
80006d28: fc840513     	addi	a0, s0, -0x38
80006d2c: 4585         	li	a1, 0x1
80006d2e: fca43c23     	sd	a0, -0x28(s0)
80006d32: fec43023     	sd	a2, -0x20(s0)
80006d36: feb41423     	sh	a1, -0x18(s0)
80006d3a: fd840513     	addi	a0, s0, -0x28
80006d3e: ffffa097     	auipc	ra, 0xffffa
80006d42: f4a080e7     	jalr	-0xb6(ra) <__user_program_end>

0000000080006d46 <_$LT$core..panic..panic_info..PanicInfo$u20$as$u20$core..fmt..Display$GT$::fmt::hcccb3fed5b673506>:
80006d46: 7119         	addi	sp, sp, -0x80
80006d48: fc86         	sd	ra, 0x78(sp)
80006d4a: f8a2         	sd	s0, 0x70(sp)
80006d4c: f4a6         	sd	s1, 0x68(sp)
80006d4e: f0ca         	sd	s2, 0x60(sp)
80006d50: ecce         	sd	s3, 0x58(sp)
80006d52: e8d2         	sd	s4, 0x50(sp)
80006d54: e4d6         	sd	s5, 0x48(sp)
80006d56: 0100         	addi	s0, sp, 0x80
80006d58: 0085b903     	ld	s2, 0x8(a1)
80006d5c: 6184         	ld	s1, 0x0(a1)
80006d5e: 01893a83     	ld	s5, 0x18(s2)
80006d62: 89aa         	mv	s3, a0

0000000080006d64 <.Lpcrel_hi1258>:
80006d64: 00002517     	auipc	a0, 0x2
80006d68: 7c050593     	addi	a1, a0, 0x7c0
80006d6c: 4631         	li	a2, 0xc
80006d6e: 8526         	mv	a0, s1
80006d70: 9a82         	jalr	s5
80006d72: 4a05         	li	s4, 0x1
80006d74: e151         	bnez	a0, 0x80006df8 <.Lpcrel_hi1262+0x26>
80006d76: 0089b503     	ld	a0, 0x8(s3)
80006d7a: f8840813     	addi	a6, s0, -0x78

0000000080006d7e <.Lpcrel_hi1259>:
80006d7e: fffff617     	auipc	a2, 0xfffff

0000000080006d82 <.Lpcrel_hi1260>:
80006d82: fffff697     	auipc	a3, 0xfffff
80006d86: 0f260613     	addi	a2, a2, 0xf2
80006d8a: 50e68693     	addi	a3, a3, 0x50e
80006d8e: 6118         	ld	a4, 0x0(a0)
80006d90: 651c         	ld	a5, 0x8(a0)
80006d92: 01050593     	addi	a1, a0, 0x10
80006d96: 0551         	addi	a0, a0, 0x14
80006d98: f9043c23     	sd	a6, -0x68(s0)
80006d9c: fac43023     	sd	a2, -0x60(s0)
80006da0: fab43423     	sd	a1, -0x58(s0)
80006da4: fad43823     	sd	a3, -0x50(s0)
80006da8: f8e43423     	sd	a4, -0x78(s0)
80006dac: f8f43823     	sd	a5, -0x70(s0)
80006db0: faa43c23     	sd	a0, -0x48(s0)
80006db4: fcd43023     	sd	a3, -0x40(s0)

0000000080006db8 <.Lpcrel_hi1261>:
80006db8: 00000517     	auipc	a0, 0x0
80006dbc: 62450613     	addi	a2, a0, 0x624
80006dc0: f9840693     	addi	a3, s0, -0x68
80006dc4: 8526         	mv	a0, s1
80006dc6: 85ca         	mv	a1, s2
80006dc8: fffff097     	auipc	ra, 0xfffff
80006dcc: 614080e7     	jalr	0x614(ra) <core::fmt::write::hfd17e9e8e823b619>
80006dd0: e505         	bnez	a0, 0x80006df8 <.Lpcrel_hi1262+0x26>

0000000080006dd2 <.Lpcrel_hi1262>:
80006dd2: 00002517     	auipc	a0, 0x2
80006dd6: 75e50593     	addi	a1, a0, 0x75e
80006dda: 4609         	li	a2, 0x2
80006ddc: 8526         	mv	a0, s1
80006dde: 9a82         	jalr	s5
80006de0: ed01         	bnez	a0, 0x80006df8 <.Lpcrel_hi1262+0x26>
80006de2: 0009b503     	ld	a0, 0x0(s3)
80006de6: 6110         	ld	a2, 0x0(a0)
80006de8: 6514         	ld	a3, 0x8(a0)
80006dea: 8526         	mv	a0, s1
80006dec: 85ca         	mv	a1, s2
80006dee: fffff097     	auipc	ra, 0xfffff
80006df2: 5ee080e7     	jalr	0x5ee(ra) <core::fmt::write::hfd17e9e8e823b619>
80006df6: 8a2a         	mv	s4, a0
80006df8: 8552         	mv	a0, s4
80006dfa: 70e6         	ld	ra, 0x78(sp)
80006dfc: 7446         	ld	s0, 0x70(sp)
80006dfe: 74a6         	ld	s1, 0x68(sp)
80006e00: 7906         	ld	s2, 0x60(sp)
80006e02: 69e6         	ld	s3, 0x58(sp)
80006e04: 6a46         	ld	s4, 0x50(sp)
80006e06: 6aa6         	ld	s5, 0x48(sp)
80006e08: 6109         	addi	sp, sp, 0x80
80006e0a: 8082         	ret

0000000080006e0c <memset>:
80006e0c: 46c1         	li	a3, 0x10
80006e0e: 06d66463     	bltu	a2, a3, 0x80006e76 <memset+0x6a>
80006e12: 40a006bb     	negw	a3, a0
80006e16: 0076f813     	andi	a6, a3, 0x7
80006e1a: 01050733     	add	a4, a0, a6
80006e1e: 00e57963     	bgeu	a0, a4, 0x80006e30 <memset+0x24>
80006e22: 87c2         	mv	a5, a6
80006e24: 86aa         	mv	a3, a0
80006e26: 00b68023     	sb	a1, 0x0(a3)
80006e2a: 17fd         	addi	a5, a5, -0x1
80006e2c: 0685         	addi	a3, a3, 0x1
80006e2e: ffe5         	bnez	a5, 0x80006e26 <memset+0x1a>
80006e30: 41060633     	sub	a2, a2, a6
80006e34: ff867693     	andi	a3, a2, -0x8
80006e38: 96ba         	add	a3, a3, a4
80006e3a: 02d77363     	bgeu	a4, a3, 0x80006e60 <memset+0x54>
80006e3e: 03859813     	slli	a6, a1, 0x38
80006e42: 101017b7     	lui	a5, 0x10101
80006e46: 0792         	slli	a5, a5, 0x4
80006e48: 10078793     	addi	a5, a5, 0x100
80006e4c: 02f83833     	mulhu	a6, a6, a5
80006e50: 02081793     	slli	a5, a6, 0x20
80006e54: 0107e7b3     	or	a5, a5, a6
80006e58: e31c         	sd	a5, 0x0(a4)
80006e5a: 0721         	addi	a4, a4, 0x8
80006e5c: fed76ee3     	bltu	a4, a3, 0x80006e58 <memset+0x4c>
80006e60: 8a1d         	andi	a2, a2, 0x7
80006e62: 00c68733     	add	a4, a3, a2
80006e66: 00e6f763     	bgeu	a3, a4, 0x80006e74 <memset+0x68>
80006e6a: 00b68023     	sb	a1, 0x0(a3)
80006e6e: 167d         	addi	a2, a2, -0x1
80006e70: 0685         	addi	a3, a3, 0x1
80006e72: fe65         	bnez	a2, 0x80006e6a <memset+0x5e>
80006e74: 8082         	ret
80006e76: 86aa         	mv	a3, a0
80006e78: 00c50733     	add	a4, a0, a2
80006e7c: fee567e3     	bltu	a0, a4, 0x80006e6a <memset+0x5e>
80006e80: bfd5         	j	0x80006e74 <memset+0x68>

0000000080006e82 <memcpy>:
80006e82: 00000317     	auipc	t1, 0x0
80006e86: 00830067     	jr	0x8(t1) <compiler_builtins::mem::memcpy::hee8635bcefabc13a>

0000000080006e8a <compiler_builtins::mem::memcpy::hee8635bcefabc13a>:
80006e8a: 1101         	addi	sp, sp, -0x20
80006e8c: ec22         	sd	s0, 0x18(sp)
80006e8e: e826         	sd	s1, 0x10(sp)
80006e90: 46c1         	li	a3, 0x10
80006e92: 06d66363     	bltu	a2, a3, 0x80006ef8 <compiler_builtins::mem::memcpy::hee8635bcefabc13a+0x6e>
80006e96: 40a006bb     	negw	a3, a0
80006e9a: 0076f813     	andi	a6, a3, 0x7
80006e9e: 01050fb3     	add	t6, a0, a6
80006ea2: 01f57d63     	bgeu	a0, t6, 0x80006ebc <compiler_builtins::mem::memcpy::hee8635bcefabc13a+0x32>
80006ea6: 8742         	mv	a4, a6
80006ea8: 86aa         	mv	a3, a0
80006eaa: 87ae         	mv	a5, a1
80006eac: 0007c883     	lbu	a7, 0x0(a5)
80006eb0: 177d         	addi	a4, a4, -0x1
80006eb2: 01168023     	sb	a7, 0x0(a3)
80006eb6: 0685         	addi	a3, a3, 0x1
80006eb8: 0785         	addi	a5, a5, 0x1
80006eba: fb6d         	bnez	a4, 0x80006eac <compiler_builtins::mem::memcpy::hee8635bcefabc13a+0x22>
80006ebc: 010584b3     	add	s1, a1, a6
80006ec0: 41060633     	sub	a2, a2, a6
80006ec4: ff867713     	andi	a4, a2, -0x8
80006ec8: 0074f813     	andi	a6, s1, 0x7
80006ecc: 00ef86b3     	add	a3, t6, a4
80006ed0: 04081563     	bnez	a6, 0x80006f1a <compiler_builtins::mem::memcpy::hee8635bcefabc13a+0x90>
80006ed4: 00dffa63     	bgeu	t6, a3, 0x80006ee8 <compiler_builtins::mem::memcpy::hee8635bcefabc13a+0x5e>
80006ed8: 87a6         	mv	a5, s1
80006eda: 638c         	ld	a1, 0x0(a5)
80006edc: 00bfb023     	sd	a1, 0x0(t6)
80006ee0: 0fa1         	addi	t6, t6, 0x8
80006ee2: 07a1         	addi	a5, a5, 0x8
80006ee4: fedfebe3     	bltu	t6, a3, 0x80006eda <compiler_builtins::mem::memcpy::hee8635bcefabc13a+0x50>
80006ee8: 00e485b3     	add	a1, s1, a4
80006eec: 8a1d         	andi	a2, a2, 0x7
80006eee: 00c68733     	add	a4, a3, a2
80006ef2: 00e6e863     	bltu	a3, a4, 0x80006f02 <compiler_builtins::mem::memcpy::hee8635bcefabc13a+0x78>
80006ef6: a831         	j	0x80006f12 <compiler_builtins::mem::memcpy::hee8635bcefabc13a+0x88>
80006ef8: 86aa         	mv	a3, a0
80006efa: 00c50733     	add	a4, a0, a2
80006efe: 00e57a63     	bgeu	a0, a4, 0x80006f12 <compiler_builtins::mem::memcpy::hee8635bcefabc13a+0x88>
80006f02: 0005c703     	lbu	a4, 0x0(a1)
80006f06: 167d         	addi	a2, a2, -0x1
80006f08: 00e68023     	sb	a4, 0x0(a3)
80006f0c: 0685         	addi	a3, a3, 0x1
80006f0e: 0585         	addi	a1, a1, 0x1
80006f10: fa6d         	bnez	a2, 0x80006f02 <compiler_builtins::mem::memcpy::hee8635bcefabc13a+0x78>
80006f12: 6462         	ld	s0, 0x18(sp)
80006f14: 64c2         	ld	s1, 0x10(sp)
80006f16: 6105         	addi	sp, sp, 0x20
80006f18: 8082         	ret
80006f1a: 4881         	li	a7, 0x0
80006f1c: 47a1         	li	a5, 0x8
80006f1e: e402         	sd	zero, 0x8(sp)
80006f20: 41078333     	sub	t1, a5, a6
80006f24: 00810293     	addi	t0, sp, 0x8
80006f28: 00137793     	andi	a5, t1, 0x1
80006f2c: 0102e2b3     	or	t0, t0, a6
80006f30: ebb1         	bnez	a5, 0x80006f84 <compiler_builtins::mem::memcpy::hee8635bcefabc13a+0xfa>
80006f32: 00237793     	andi	a5, t1, 0x2
80006f36: efb9         	bnez	a5, 0x80006f94 <compiler_builtins::mem::memcpy::hee8635bcefabc13a+0x10a>
80006f38: 00437793     	andi	a5, t1, 0x4
80006f3c: eba5         	bnez	a5, 0x80006fac <compiler_builtins::mem::memcpy::hee8635bcefabc13a+0x122>
80006f3e: 63a2         	ld	t2, 0x8(sp)
80006f40: 00381893     	slli	a7, a6, 0x3
80006f44: 008f8793     	addi	a5, t6, 0x8
80006f48: 41048f33     	sub	t5, s1, a6
80006f4c: 06d7ff63     	bgeu	a5, a3, 0x80006fca <compiler_builtins::mem::memcpy::hee8635bcefabc13a+0x140>
80006f50: 411007bb     	negw	a5, a7
80006f54: 0387fe13     	andi	t3, a5, 0x38
80006f58: 008f3303     	ld	t1, 0x8(t5)
80006f5c: 008f0e93     	addi	t4, t5, 0x8
80006f60: 0113d3b3     	srl	t2, t2, a7
80006f64: 008f8293     	addi	t0, t6, 0x8
80006f68: 01c317b3     	sll	a5, t1, t3
80006f6c: 0077e7b3     	or	a5, a5, t2
80006f70: 010f8413     	addi	s0, t6, 0x10
80006f74: 00ffb023     	sd	a5, 0x0(t6)
80006f78: 8f96         	mv	t6, t0
80006f7a: 839a         	mv	t2, t1
80006f7c: 8f76         	mv	t5, t4
80006f7e: fcd46de3     	bltu	s0, a3, 0x80006f58 <compiler_builtins::mem::memcpy::hee8635bcefabc13a+0xce>
80006f82: a0b9         	j	0x80006fd0 <compiler_builtins::mem::memcpy::hee8635bcefabc13a+0x146>
80006f84: 0004c783     	lbu	a5, 0x0(s1)
80006f88: 00f28023     	sb	a5, 0x0(t0)
80006f8c: 4885         	li	a7, 0x1
80006f8e: 00237793     	andi	a5, t1, 0x2
80006f92: d3dd         	beqz	a5, 0x80006f38 <compiler_builtins::mem::memcpy::hee8635bcefabc13a+0xae>
80006f94: 011487b3     	add	a5, s1, a7
80006f98: 00079383     	lh	t2, 0x0(a5)
80006f9c: 011287b3     	add	a5, t0, a7
80006fa0: 00779023     	sh	t2, 0x0(a5)
80006fa4: 2889         	addiw	a7, a7, 0x2
80006fa6: 00437793     	andi	a5, t1, 0x4
80006faa: dbd1         	beqz	a5, 0x80006f3e <compiler_builtins::mem::memcpy::hee8635bcefabc13a+0xb4>
80006fac: 011487b3     	add	a5, s1, a7
80006fb0: 439c         	lw	a5, 0x0(a5)
80006fb2: 9896         	add	a7, a7, t0
80006fb4: 00f8a023     	sw	a5, 0x0(a7)
80006fb8: 63a2         	ld	t2, 0x8(sp)
80006fba: 00381893     	slli	a7, a6, 0x3
80006fbe: 008f8793     	addi	a5, t6, 0x8
80006fc2: 41048f33     	sub	t5, s1, a6
80006fc6: f8d7e5e3     	bltu	a5, a3, 0x80006f50 <compiler_builtins::mem::memcpy::hee8635bcefabc13a+0xc6>
80006fca: 8efa         	mv	t4, t5
80006fcc: 82fe         	mv	t0, t6
80006fce: 831e         	mv	t1, t2
80006fd0: 4781         	li	a5, 0x0
80006fd2: 008e8393     	addi	t2, t4, 0x8
80006fd6: 4411         	li	s0, 0x4
80006fd8: e402         	sd	zero, 0x8(sp)
80006fda: 04887363     	bgeu	a6, s0, 0x80007020 <compiler_builtins::mem::memcpy::hee8635bcefabc13a+0x196>
80006fde: 0024f593     	andi	a1, s1, 0x2
80006fe2: e5b1         	bnez	a1, 0x8000702e <compiler_builtins::mem::memcpy::hee8635bcefabc13a+0x1a4>
80006fe4: 0014f593     	andi	a1, s1, 0x1
80006fe8: c981         	beqz	a1, 0x80006ff8 <compiler_builtins::mem::memcpy::hee8635bcefabc13a+0x16e>
80006fea: 93be         	add	t2, t2, a5
80006fec: 0003c583     	lbu	a1, 0x0(t2)
80006ff0: 0020         	addi	s0, sp, 0x8
80006ff2: 8fc1         	or	a5, a5, s0
80006ff4: 00b78023     	sb	a1, 0x0(a5)
80006ff8: 65a2         	ld	a1, 0x8(sp)
80006ffa: 011357b3     	srl	a5, t1, a7
80006ffe: 4110043b     	negw	s0, a7
80007002: 03847413     	andi	s0, s0, 0x38
80007006: 008595b3     	sll	a1, a1, s0
8000700a: 8ddd         	or	a1, a1, a5
8000700c: 00b2b023     	sd	a1, 0x0(t0)
80007010: 00e485b3     	add	a1, s1, a4
80007014: 8a1d         	andi	a2, a2, 0x7
80007016: 00c68733     	add	a4, a3, a2
8000701a: eee6e4e3     	bltu	a3, a4, 0x80006f02 <compiler_builtins::mem::memcpy::hee8635bcefabc13a+0x78>
8000701e: bdd5         	j	0x80006f12 <compiler_builtins::mem::memcpy::hee8635bcefabc13a+0x88>
80007020: 0003a783     	lw	a5, 0x0(t2)
80007024: c43e         	sw	a5, 0x8(sp)
80007026: 4791         	li	a5, 0x4
80007028: 0024f593     	andi	a1, s1, 0x2
8000702c: ddc5         	beqz	a1, 0x80006fe4 <compiler_builtins::mem::memcpy::hee8635bcefabc13a+0x15a>
8000702e: 00f385b3     	add	a1, t2, a5
80007032: 00059583     	lh	a1, 0x0(a1)
80007036: 0020         	addi	s0, sp, 0x8
80007038: 8c5d         	or	s0, s0, a5
8000703a: 00b41023     	sh	a1, 0x0(s0)
8000703e: 2789         	addiw	a5, a5, 0x2
80007040: 0014f593     	andi	a1, s1, 0x1
80007044: f1dd         	bnez	a1, 0x80006fea <compiler_builtins::mem::memcpy::hee8635bcefabc13a+0x160>
80007046: bf4d         	j	0x80006ff8 <compiler_builtins::mem::memcpy::hee8635bcefabc13a+0x16e>
80007048: 5b12         	lw	s6, 0x24(sp)
8000704a: 6e72656b     	<unknown>
8000704e: 6c65         	lui	s8, 0x19
80007050: 205d         	<unknown>
80007052: 6166         	ld	sp, 0x58(sp)
80007054: 6c69         	lui	s8, 0x1a
80007056: 7275         	lui	tp, 0xffffd
80007058: 3a65         	addiw	s4, s4, -0x7
8000705a: c020         	sw	s0, 0x40(s0)
8000705c: 0a01         	c.addi	s4, 0x0
8000705e: 7300         	ld	s0, 0x20(a4)
80007060: 6372         	ld	t1, 0x118(sp)
80007062: 69616d2f     	<unknown>
80007066: 2e6e         	fld	ft8, 0xd8(sp)
80007068: 7372         	ld	t1, 0x138(sp)
8000706a: 2f00         	fld	fs0, 0x18(a4)
8000706c: 7572         	ld	a0, 0x138(sp)
8000706e: 2f637473     	csrrci	s0, 0x2f6, 0x6
80007072: 3465         	addiw	s0, s0, -0x7
80007074: 3830         	fld	fa2, 0x70(s0)
80007076: 3439         	addiw	s0, s0, -0x12
80007078: 64666237     	lui	tp, 0x64666
8000707c: 3032         	fld	ft0, 0x128(sp)
8000707e: 6130         	ld	a2, 0x40(a0)
80007080: 3466         	fld	fs0, 0x78(sp)
80007082: 6432         	ld	s0, 0x108(sp)
80007084: 3362         	fld	ft6, 0x38(sp)
80007086: 3232         	fld	ft4, 0x128(sp)
80007088: 6164         	ld	s1, 0xc0(a0)
8000708a: 3066         	fld	ft0, 0x78(sp)
8000708c: 6166         	ld	sp, 0x58(sp)
8000708e: 6664         	ld	s1, 0xc8(a2)
80007090: 3765         	addiw	a4, a4, -0x7
80007092: 3265         	addiw	tp, tp, -0x7
80007094: 6436         	ld	s0, 0x148(sp)
80007096: 31646233     	<unknown>
8000709a: 62696c2f     	<unknown>
8000709e: 6172         	ld	sp, 0x118(sp)
800070a0: 7972         	ld	s2, 0x138(sp)
800070a2: 726f632f     	<unknown>
800070a6: 2f65         	addiw	t5, t5, 0x19
800070a8: 2f637273     	csrrci	tp, 0x2f6, 0x6
800070ac: 7470         	ld	a2, 0xe8(s0)
800070ae: 2f72         	fld	ft10, 0x118(sp)
800070b0: 6f6d         	lui	t5, 0x1b
800070b2: 2e64         	fld	fs1, 0xd8(a2)
800070b4: 7372         	ld	t1, 0x138(sp)
800070b6: 1000         	addi	s0, sp, 0x20
800070b8: 72656b5b     	<unknown>
800070bc: 656e         	ld	a0, 0xd8(sp)
800070be: 5d6c         	lw	a1, 0x7c(a0)
800070c0: 7020         	ld	s0, 0x60(s0)
800070c2: 6e61         	lui	t3, 0x18
800070c4: 6369         	lui	t1, 0x1a
800070c6: 203a         	fld	ft0, 0x188(sp)
800070c8: 01c0         	addi	s0, sp, 0xc4
800070ca: 000a         	c.slli	zero, 0x2
800070cc: 7375722f     	<unknown>
800070d0: 6374         	ld	a3, 0xc0(a4)
800070d2: 3034652f     	<unknown>
800070d6: 3938         	fld	fa4, 0x70(a0)
800070d8: 3734         	fld	fa3, 0x68(a4)
800070da: 6662         	ld	a2, 0x18(sp)
800070dc: 3264         	fld	fs1, 0xe0(a2)
800070de: 3030         	fld	fa2, 0x60(s0)
800070e0: 6661         	lui	a2, 0x18
800070e2: 3234         	fld	fa3, 0x60(a2)
800070e4: 6264         	ld	s1, 0xc0(a2)
800070e6: 64323233     	<unknown>
800070ea: 6661         	lui	a2, 0x18
800070ec: 6630         	ld	a2, 0x48(a2)
800070ee: 6461         	lui	s0, 0x18
800070f0: 6566         	ld	a0, 0x58(sp)
800070f2: 36326537     	lui	a0, 0x36326
800070f6: 3364         	fld	fs1, 0xe0(a4)
800070f8: 6462         	ld	s0, 0x18(sp)
800070fa: 2f31         	addiw	t5, t5, 0xc
800070fc: 696c         	ld	a1, 0xd0(a0)
800070fe: 7262         	ld	tp, 0x38(sp)
80007100: 7261         	lui	tp, 0xffff8
80007102: 2f79         	addiw	t5, t5, 0x1e
80007104: 65726f63     	bltu	tp, s7, 0x80007762 <.Lanon.e8ec22deaeb0f61cc20999eb7811489b.0+0x8b>
80007108: 6372732f     	<unknown>
8000710c: 73706f2f     	<unknown>
80007110: 646e692f     	<unknown>
80007114: 7865         	lui	a6, 0xffff9
80007116: 725f 6e61 6567       	<unknown>
8000711c: 722e         	ld	tp, 0xe8(sp)
8000711e: 5b400073     	<unknown>
80007122: 6e72656b     	<unknown>
80007126: 6c65         	lui	s8, 0x19
80007128: 205d         	<unknown>
8000712a: 6361         	lui	t1, 0x18
8000712c: 74706563     	bltu	zero, t2, 0x80007876 <.Lanon.e8ec22deaeb0f61cc20999eb7811489b.1+0xbb>
80007130: 6e61         	lui	t3, 0x18
80007132: 70206563     	bltu	zero, sp, 0x8000783c <.Lanon.e8ec22deaeb0f61cc20999eb7811489b.1+0x81>
80007136: 7261         	lui	tp, 0xffff8
80007138: 6e65         	lui	t3, 0x19
8000713a: 2f74         	fld	fa3, 0xd8(a4)
8000713c: 6c696863     	bltu	s2, t1, 0x8000780c <.Lanon.e8ec22deaeb0f61cc20999eb7811489b.1+0x51>
80007140: 2064         	fld	fs1, 0xc0(s0)
80007142: 74697277     	<unknown>
80007146: 7365         	lui	t1, 0xffff9
80007148: 6120         	ld	s0, 0x40(a0)
8000714a: 6572         	ld	a0, 0x118(sp)
8000714c: 6920         	ld	s0, 0x50(a0)
8000714e: 616c6f73     	csrrsi	t5, 0x616, 0x18
80007152: 6574         	ld	a3, 0xc8(a0)
80007154: 2064         	fld	fs1, 0xc0(s0)
80007156: 6f62         	ld	t5, 0x18(sp)
80007158: 6874         	ld	a3, 0xd0(s0)
8000715a: 7720         	ld	s0, 0x68(a4)
8000715c: 7961         	lui	s2, 0xffff8
8000715e: c0203a73     	csrrc	s4, instret, zero
80007162: 0a01         	c.addi	s4, 0x0
80007164: 2f00         	fld	fs0, 0x18(a4)
80007166: 7572         	ld	a0, 0x138(sp)
80007168: 2f637473     	csrrci	s0, 0x2f6, 0x6
8000716c: 3465         	addiw	s0, s0, -0x7
8000716e: 3830         	fld	fa2, 0x70(s0)
80007170: 3439         	addiw	s0, s0, -0x12
80007172: 64666237     	lui	tp, 0x64666
80007176: 3032         	fld	ft0, 0x128(sp)
80007178: 6130         	ld	a2, 0x40(a0)
8000717a: 3466         	fld	fs0, 0x78(sp)
8000717c: 6432         	ld	s0, 0x108(sp)
8000717e: 3362         	fld	ft6, 0x38(sp)
80007180: 3232         	fld	ft4, 0x128(sp)
80007182: 6164         	ld	s1, 0xc0(a0)
80007184: 3066         	fld	ft0, 0x78(sp)
80007186: 6166         	ld	sp, 0x58(sp)
80007188: 6664         	ld	s1, 0xc8(a2)
8000718a: 3765         	addiw	a4, a4, -0x7
8000718c: 3265         	addiw	tp, tp, -0x7
8000718e: 6436         	ld	s0, 0x148(sp)
80007190: 31646233     	<unknown>
80007194: 62696c2f     	<unknown>
80007198: 6172         	ld	sp, 0x118(sp)
8000719a: 7972         	ld	s2, 0x138(sp)
8000719c: 726f632f     	<unknown>
800071a0: 2f65         	addiw	t5, t5, 0x19
800071a2: 2f637273     	csrrci	tp, 0x2f6, 0x6
800071a6: 72616863     	bltu	sp, t1, 0x800078d6 <.Lanon.e8ec22deaeb0f61cc20999eb7811489b.2+0x44>
800071aa: 74656d2f     	<unknown>
800071ae: 6f68         	ld	a0, 0xd8(a4)
800071b0: 7364         	ld	s1, 0xe0(a4)
800071b2: 722e         	ld	tp, 0xe8(sp)
800071b4: 00c00073     	<unknown>
800071b8: 6920         	ld	s0, 0x50(a0)
800071ba: 646e         	ld	s0, 0xd8(sp)
800071bc: 7865         	lui	a6, 0xffff9
800071be: 6f20         	ld	s0, 0x58(a4)
800071c0: 7475         	lui	s0, 0xffffd
800071c2: 6f20         	ld	s0, 0x58(a4)
800071c4: 2066         	fld	ft0, 0x58(sp)
800071c6: 6f62         	ld	t5, 0x18(sp)
800071c8: 6e75         	lui	t3, 0x1d
800071ca: 7364         	ld	s1, 0xe0(a4)
800071cc: 203a         	fld	ft0, 0x188(sp)
800071ce: 6874         	ld	a3, 0xd0(s0)
800071d0: 2065         	<unknown>
800071d2: 656c         	ld	a1, 0xc8(a0)
800071d4: 206e         	fld	ft0, 0xd8(sp)
800071d6: 7369         	lui	t1, 0xffffa
800071d8: c020         	sw	s0, 0x40(s0)
800071da: 2012         	fld	ft0, 0x100(sp)
800071dc: 7562         	ld	a0, 0x38(sp)
800071de: 2074         	fld	fa3, 0xc0(s0)
800071e0: 6874         	ld	a3, 0xd0(s0)
800071e2: 2065         	<unknown>
800071e4: 6e69         	lui	t3, 0x1a
800071e6: 6564         	ld	s1, 0xc8(a0)
800071e8: 2078         	fld	fa4, 0xc0(s0)
800071ea: 7369         	lui	t1, 0xffffa
800071ec: c020         	sw	s0, 0x40(s0)
800071ee: 2f00         	fld	fs0, 0x18(a4)
800071f0: 7572         	ld	a0, 0x138(sp)
800071f2: 2f637473     	csrrci	s0, 0x2f6, 0x6
800071f6: 3465         	addiw	s0, s0, -0x7
800071f8: 3830         	fld	fa2, 0x70(s0)
800071fa: 3439         	addiw	s0, s0, -0x12
800071fc: 64666237     	lui	tp, 0x64666
80007200: 3032         	fld	ft0, 0x128(sp)
80007202: 6130         	ld	a2, 0x40(a0)
80007204: 3466         	fld	fs0, 0x78(sp)
80007206: 6432         	ld	s0, 0x108(sp)
80007208: 3362         	fld	ft6, 0x38(sp)
8000720a: 3232         	fld	ft4, 0x128(sp)
8000720c: 6164         	ld	s1, 0xc0(a0)
8000720e: 3066         	fld	ft0, 0x78(sp)
80007210: 6166         	ld	sp, 0x58(sp)
80007212: 6664         	ld	s1, 0xc8(a2)
80007214: 3765         	addiw	a4, a4, -0x7
80007216: 3265         	addiw	tp, tp, -0x7
80007218: 6436         	ld	s0, 0x148(sp)
8000721a: 31646233     	<unknown>
8000721e: 62696c2f     	<unknown>
80007222: 6172         	ld	sp, 0x118(sp)
80007224: 7972         	ld	s2, 0x138(sp)
80007226: 726f632f     	<unknown>
8000722a: 2f65         	addiw	t5, t5, 0x19
8000722c: 2f637273     	csrrci	tp, 0x2f6, 0x6
80007230: 6d66         	ld	s10, 0x58(sp)
80007232: 2f74         	fld	fa3, 0xd8(a4)
80007234: 6f6d         	lui	t5, 0x1b
80007236: 2e64         	fld	fs1, 0xd8(a2)
80007238: 7372         	ld	t1, 0x138(sp)
8000723a: 4900         	lw	s0, 0x10(a0)
8000723c: 72656b5b     	<unknown>
80007240: 656e         	ld	a0, 0xd8(sp)
80007242: 5d6c         	lw	a1, 0x7c(a0)
80007244: 6120         	ld	s0, 0x40(a0)
80007246: 70656363     	bltu	a0, t1, 0x8000794c <.Lanon.e8ec22deaeb0f61cc20999eb7811489b.2+0xba>
8000724a: 6174         	ld	a3, 0xc0(a0)
8000724c: 636e         	ld	t1, 0xd8(sp)
8000724e: 2065         	<unknown>
80007250: 6f66         	ld	t5, 0x58(sp)
80007252: 6b72         	ld	s6, 0x118(sp)
80007254: 7320         	ld	s0, 0x60(a4)
80007256: 6168         	ld	a0, 0xc0(a0)
80007258: 6572         	ld	a0, 0x118(sp)
8000725a: 61702073     	csrr	zero, 0x617
8000725e: 202c6567     	<unknown>
80007262: 61656c63     	bltu	a0, s6, 0x8000787a <.Lanon.e8ec22deaeb0f61cc20999eb7811489b.1+0xbf>
80007266: 7372         	ld	t1, 0x138(sp)
80007268: 5720         	lw	s0, 0x68(a4)
8000726a: 202c         	fld	fa1, 0x40(s0)
8000726c: 6e61         	lui	t3, 0x18
8000726e: 2064         	fld	fs1, 0xc0(s0)
80007270: 796c6e6f     	jal	t3, 0x800cda06 <__machine_trap_stack_top+0x9e9b6>
80007274: 6220         	ld	s0, 0x40(a2)
80007276: 6d75         	lui	s10, 0x1d
80007278: 7370         	ld	a2, 0xe0(a4)
8000727a: 7220         	ld	s0, 0x60(a2)
8000727c: 6665         	lui	a2, 0x19
8000727e: 6e756f63     	bltu	a0, t2, 0x8000797c <.Lanon.e8ec22deaeb0f61cc20999eb7811489b.2+0xea>
80007282: 3a74         	fld	fa3, 0xf0(a2)
80007284: c020         	sw	s0, 0x40(s0)
80007286: 0a01         	c.addi	s4, 0x0
80007288: 7300         	ld	s0, 0x20(a4)
8000728a: 6372         	ld	t1, 0x118(sp)
8000728c: 6e6f632f     	<unknown>
80007290: 656c6f73     	csrrsi	t5, 0x656, 0x18
80007294: 722e         	ld	tp, 0xe8(sp)
80007296: 5b560073     	<unknown>
8000729a: 6e72656b     	<unknown>
8000729e: 6c65         	lui	s8, 0x19
800072a0: 205d         	<unknown>
800072a2: 6361         	lui	t1, 0x18
800072a4: 74706563     	bltu	zero, t2, 0x800079ee <.Lanon.15635ce72dd483054234a9102b4180e1.1+0x3e>
800072a8: 6e61         	lui	t3, 0x18
800072aa: 73206563     	bltu	zero, s2, 0x800079d4 <.Lanon.15635ce72dd483054234a9102b4180e1.1+0x24>
800072ae: 6f74         	ld	a3, 0xd8(a4)
800072b0: 6572         	ld	a0, 0x118(sp)
800072b2: 7020         	ld	s0, 0x60(s0)
800072b4: 6761         	lui	a4, 0x18
800072b6: 2065         	<unknown>
800072b8: 6166         	ld	sp, 0x58(sp)
800072ba: 6c75         	lui	s8, 0x1d
800072bc: 2074         	fld	fa3, 0xc0(s0)
800072be: 68746977     	<unknown>
800072c2: 7220         	ld	s0, 0x60(a2)
800072c4: 6665         	lui	a2, 0x19
800072c6: 6e756f63     	bltu	a0, t2, 0x800079c4 <.Lanon.15635ce72dd483054234a9102b4180e1.1+0x14>
800072ca: 3e74         	fld	fa3, 0xf8(a2)
800072cc: 2031         	<unknown>
800072ce: 69706f63     	bltu	zero, s7, 0x8000796c <.Lanon.e8ec22deaeb0f61cc20999eb7811489b.2+0xda>
800072d2: 7365         	lui	t1, 0xffff9
800072d4: 7020         	ld	s0, 0x60(s0)
800072d6: 6761         	lui	a4, 0x18
800072d8: 2065         	<unknown>
800072da: 6e61         	lui	t3, 0x18
800072dc: 2064         	fld	fs1, 0xc0(s0)
800072de: 6572         	ld	a0, 0x118(sp)
800072e0: 616d         	addi	sp, sp, 0xf0
800072e2: 7370         	ld	a2, 0xe0(a4)
800072e4: 7720         	ld	s0, 0x68(a4)
800072e6: 6972         	ld	s2, 0x118(sp)
800072e8: 6174         	ld	a3, 0xc0(a0)
800072ea: 6c62         	ld	s8, 0x18(sp)
800072ec: 3a65         	addiw	s4, s4, -0x7
800072ee: c020         	sw	s0, 0x40(s0)
800072f0: 0a01         	c.addi	s4, 0x0
800072f2: 2f00         	fld	fs0, 0x18(a4)
800072f4: 7572         	ld	a0, 0x138(sp)
800072f6: 2f637473     	csrrci	s0, 0x2f6, 0x6
800072fa: 3465         	addiw	s0, s0, -0x7
800072fc: 3830         	fld	fa2, 0x70(s0)
800072fe: 3439         	addiw	s0, s0, -0x12
80007300: 64666237     	lui	tp, 0x64666
80007304: 3032         	fld	ft0, 0x128(sp)
80007306: 6130         	ld	a2, 0x40(a0)
80007308: 3466         	fld	fs0, 0x78(sp)
8000730a: 6432         	ld	s0, 0x108(sp)
8000730c: 3362         	fld	ft6, 0x38(sp)
8000730e: 3232         	fld	ft4, 0x128(sp)
80007310: 6164         	ld	s1, 0xc0(a0)
80007312: 3066         	fld	ft0, 0x78(sp)
80007314: 6166         	ld	sp, 0x58(sp)
80007316: 6664         	ld	s1, 0xc8(a2)
80007318: 3765         	addiw	a4, a4, -0x7
8000731a: 3265         	addiw	tp, tp, -0x7
8000731c: 6436         	ld	s0, 0x148(sp)
8000731e: 31646233     	<unknown>
80007322: 62696c2f     	<unknown>
80007326: 6172         	ld	sp, 0x118(sp)
80007328: 7972         	ld	s2, 0x138(sp)
8000732a: 726f632f     	<unknown>
8000732e: 2f65         	addiw	t5, t5, 0x19
80007330: 2f637273     	csrrci	tp, 0x2f6, 0x6
80007334: 7469         	lui	s0, 0xffffa
80007336: 7265         	lui	tp, 0xffff9
80007338: 6e61722f     	<unknown>
8000733c: 722e6567     	<unknown>
80007340: 722f0073     	<unknown>
80007344: 7375         	lui	t1, 0xffffd
80007346: 6374         	ld	a3, 0xc0(a4)
80007348: 3034652f     	<unknown>
8000734c: 3938         	fld	fa4, 0x70(a0)
8000734e: 3734         	fld	fa3, 0x68(a4)
80007350: 6662         	ld	a2, 0x18(sp)
80007352: 3264         	fld	fs1, 0xe0(a2)
80007354: 3030         	fld	fa2, 0x60(s0)
80007356: 6661         	lui	a2, 0x18
80007358: 3234         	fld	fa3, 0x60(a2)
8000735a: 6264         	ld	s1, 0xc0(a2)
8000735c: 64323233     	<unknown>
80007360: 6661         	lui	a2, 0x18
80007362: 6630         	ld	a2, 0x48(a2)
80007364: 6461         	lui	s0, 0x18
80007366: 6566         	ld	a0, 0x58(sp)
80007368: 36326537     	lui	a0, 0x36326
8000736c: 3364         	fld	fs1, 0xe0(a4)
8000736e: 6462         	ld	s0, 0x18(sp)
80007370: 2f31         	addiw	t5, t5, 0xc
80007372: 696c         	ld	a1, 0xd0(a0)
80007374: 7262         	ld	tp, 0x38(sp)
80007376: 7261         	lui	tp, 0xffff8
80007378: 2f79         	addiw	t5, t5, 0x1e
8000737a: 65726f63     	bltu	tp, s7, 0x800079d8 <.Lanon.15635ce72dd483054234a9102b4180e1.1+0x28>
8000737e: 6372732f     	<unknown>
80007382: 746d662f     	<unknown>
80007386: 6d756e2f     	<unknown>
8000738a: 722e         	ld	tp, 0xe8(sp)
8000738c: 722f0073     	<unknown>
80007390: 7375         	lui	t1, 0xffffd
80007392: 6374         	ld	a3, 0xc0(a4)
80007394: 3034652f     	<unknown>
80007398: 3938         	fld	fa4, 0x70(a0)
8000739a: 3734         	fld	fa3, 0x68(a4)
8000739c: 6662         	ld	a2, 0x18(sp)
8000739e: 3264         	fld	fs1, 0xe0(a2)
800073a0: 3030         	fld	fa2, 0x60(s0)
800073a2: 6661         	lui	a2, 0x18
800073a4: 3234         	fld	fa3, 0x60(a2)
800073a6: 6264         	ld	s1, 0xc0(a2)
800073a8: 64323233     	<unknown>
800073ac: 6661         	lui	a2, 0x18
800073ae: 6630         	ld	a2, 0x48(a2)
800073b0: 6461         	lui	s0, 0x18
800073b2: 6566         	ld	a0, 0x58(sp)
800073b4: 36326537     	lui	a0, 0x36326
800073b8: 3364         	fld	fs1, 0xe0(a4)
800073ba: 6462         	ld	s0, 0x18(sp)
800073bc: 2f31         	addiw	t5, t5, 0xc
800073be: 696c         	ld	a1, 0xd0(a0)
800073c0: 7262         	ld	tp, 0x38(sp)
800073c2: 7261         	lui	tp, 0xffff8
800073c4: 2f79         	addiw	t5, t5, 0x1e
800073c6: 65726f63     	bltu	tp, s7, 0x80007a24 <.Lanon.15635ce72dd483054234a9102b4180e1.1+0x74>
800073ca: 6372732f     	<unknown>
800073ce: 5f62752f     	<unknown>
800073d2: 63656863     	bltu	a0, s6, 0x80007a02 <.Lanon.15635ce72dd483054234a9102b4180e1.1+0x52>
800073d6: 722e736b     	<unknown>
800073da: 01c00073     	<unknown>
800073de: c03a         	sw	a4, 0x0(sp)
800073e0: 3a01         	addiw	s4, s4, -0x20
800073e2: 00c0         	addi	s0, sp, 0x44
800073e4: 7375722f     	<unknown>
800073e8: 6374         	ld	a3, 0xc0(a4)
800073ea: 3034652f     	<unknown>
800073ee: 3938         	fld	fa4, 0x70(a0)
800073f0: 3734         	fld	fa3, 0x68(a4)
800073f2: 6662         	ld	a2, 0x18(sp)
800073f4: 3264         	fld	fs1, 0xe0(a2)
800073f6: 3030         	fld	fa2, 0x60(s0)
800073f8: 6661         	lui	a2, 0x18
800073fa: 3234         	fld	fa3, 0x60(a2)
800073fc: 6264         	ld	s1, 0xc0(a2)
800073fe: 64323233     	<unknown>
80007402: 6661         	lui	a2, 0x18
80007404: 6630         	ld	a2, 0x48(a2)
80007406: 6461         	lui	s0, 0x18
80007408: 6566         	ld	a0, 0x58(sp)
8000740a: 36326537     	lui	a0, 0x36326
8000740e: 3364         	fld	fs1, 0xe0(a4)
80007410: 6462         	ld	s0, 0x18(sp)
80007412: 2f31         	addiw	t5, t5, 0xc
80007414: 696c         	ld	a1, 0xd0(a0)
80007416: 7262         	ld	tp, 0x38(sp)
80007418: 7261         	lui	tp, 0xffff8
8000741a: 2f79         	addiw	t5, t5, 0x1e
8000741c: 65726f63     	bltu	tp, s7, 0x80007a7a <.Lanon.f84355d86e681da1d78ac6035753ba02.6+0xa>
80007420: 6372732f     	<unknown>
80007424: 7274702f     	<unknown>
80007428: 6e6f632f     	<unknown>
8000742c: 705f7473     	csrrci	s0, 0x705, 0x1e
80007430: 7274         	ld	a3, 0xe0(a2)
80007432: 722e         	ld	tp, 0xe8(sp)
80007434: 722f0073     	<unknown>
80007438: 7375         	lui	t1, 0xffffd
8000743a: 6374         	ld	a3, 0xc0(a4)
8000743c: 3034652f     	<unknown>
80007440: 3938         	fld	fa4, 0x70(a0)
80007442: 3734         	fld	fa3, 0x68(a4)
80007444: 6662         	ld	a2, 0x18(sp)
80007446: 3264         	fld	fs1, 0xe0(a2)
80007448: 3030         	fld	fa2, 0x60(s0)
8000744a: 6661         	lui	a2, 0x18
8000744c: 3234         	fld	fa3, 0x60(a2)
8000744e: 6264         	ld	s1, 0xc0(a2)
80007450: 64323233     	<unknown>
80007454: 6661         	lui	a2, 0x18
80007456: 6630         	ld	a2, 0x48(a2)
80007458: 6461         	lui	s0, 0x18
8000745a: 6566         	ld	a0, 0x58(sp)
8000745c: 36326537     	lui	a0, 0x36326
80007460: 3364         	fld	fs1, 0xe0(a4)
80007462: 6462         	ld	s0, 0x18(sp)
80007464: 2f31         	addiw	t5, t5, 0xc
80007466: 696c         	ld	a1, 0xd0(a0)
80007468: 7262         	ld	tp, 0x38(sp)
8000746a: 7261         	lui	tp, 0xffff8
8000746c: 2f79         	addiw	t5, t5, 0x1e
8000746e: 65726f63     	bltu	tp, s7, 0x80007acc <.Lanon.f84355d86e681da1d78ac6035753ba02.9+0x14>
80007472: 6372732f     	<unknown>
80007476: 7272612f     	<unknown>
8000747a: 7961         	lui	s2, 0xffff8
8000747c: 6574692f     	<unknown>
80007480: 2f72         	fld	ft10, 0x118(sp)
80007482: 7469         	lui	s0, 0xffffa
80007484: 7265         	lui	tp, 0xffff9
80007486: 695f 6e6e 7265       	<unknown>
8000748c: 722e         	ld	tp, 0xe8(sp)
8000748e: 722f0073     	<unknown>
80007492: 7375         	lui	t1, 0xffffd
80007494: 6374         	ld	a3, 0xc0(a4)
80007496: 3034652f     	<unknown>
8000749a: 3938         	fld	fa4, 0x70(a0)
8000749c: 3734         	fld	fa3, 0x68(a4)
8000749e: 6662         	ld	a2, 0x18(sp)
800074a0: 3264         	fld	fs1, 0xe0(a2)
800074a2: 3030         	fld	fa2, 0x60(s0)
800074a4: 6661         	lui	a2, 0x18
800074a6: 3234         	fld	fa3, 0x60(a2)
800074a8: 6264         	ld	s1, 0xc0(a2)
800074aa: 64323233     	<unknown>
800074ae: 6661         	lui	a2, 0x18
800074b0: 6630         	ld	a2, 0x48(a2)
800074b2: 6461         	lui	s0, 0x18
800074b4: 6566         	ld	a0, 0x58(sp)
800074b6: 36326537     	lui	a0, 0x36326
800074ba: 3364         	fld	fs1, 0xe0(a4)
800074bc: 6462         	ld	s0, 0x18(sp)
800074be: 2f31         	addiw	t5, t5, 0xc
800074c0: 696c         	ld	a1, 0xd0(a0)
800074c2: 7262         	ld	tp, 0x38(sp)
800074c4: 7261         	lui	tp, 0xffff8
800074c6: 2f79         	addiw	t5, t5, 0x1e
800074c8: 65726f63     	bltu	tp, s7, 0x80007b26 <.Lanon.f84355d86e681da1d78ac6035753ba02.13+0xe>
800074cc: 6372732f     	<unknown>
800074d0: 6e61702f     	<unknown>
800074d4: 6369         	lui	t1, 0x1a
800074d6: 676e696b     	<unknown>
800074da: 722e         	ld	tp, 0xe8(sp)
800074dc: 00000073     	ecall

00000000800074e0 <.Lanon.c3f3a523c67f1efde76de903b6d1681a.1>:
800074e0: f3 72 00 80 00 00 00 00         .r......
800074e8: 4e 00 00 00 00 00 00 00         N.......
800074f0: b2 01 00 00 01 00 00 00         ........

00000000800074f8 <.Lanon.5ee0c444d93ca075efa6f0f53a6f0ae4.0>:
800074f8: 69 73 5f 61 6c 69 67 6e         is_align
80007500: 65 64 5f 74 6f 3a 20 61         ed_to: a
80007508: 6c 69 67 6e 20 69 73 20         lign is 
80007510: 6e 6f 74 20 61 20 70 6f         not a po
80007518: 77 65 72 2d 6f 66 2d 74         wer-of-t
80007520: 77 6f 00 00 00 00 00 00         wo......

0000000080007528 <.Lanon.5ee0c444d93ca075efa6f0f53a6f0ae4.2>:
80007528: e4 73 00 80 00 00 00 00         .s......
80007530: 51 00 00 00 00 00 00 00         Q.......
80007538: 5e 05 00 00 0d 00 00 00         ^.......

0000000080007540 <.Lanon.8610115f31e22642a3a42d6955551c57.1>:
80007540: 89 72 00 80 00 00 00 00         .r......
80007548: 0e 00 00 00 00 00 00 00         ........
80007550: 09 00 00 00 0d 00 00 00         ........

0000000080007558 <.Lanon.8610115f31e22642a3a42d6955551c57.2>:
80007558: 89 72 00 80 00 00 00 00         .r......
80007560: 0e 00 00 00 00 00 00 00         ........
80007568: 0b 00 00 00 09 00 00 00         ........

0000000080007570 <.Lanon.41335a465522d063ba7c62289415687f.0>:
80007570: 00 00 00 00 00 00 00 00         ........
80007578: 00 00 00 00 00 00 00 00         ........
80007580: 01 00 00 00 00 00 00 00         ........
80007588: b0 01 00 80 00 00 00 00         ........
80007590: 14 02 00 80 00 00 00 00         ........
80007598: 54 02 00 80 00 00 00 00         T.......

00000000800075a0 <.Lanon.01ab14fe5fab2107d235ca364c4430b8.0>:
800075a0: 75 6e 73 61 66 65 20 70         unsafe p
800075a8: 72 65 63 6f 6e 64 69 74         recondit
800075b0: 69 6f 6e 28 73 29 20 76         ion(s) v
800075b8: 69 6f 6c 61 74 65 64 3a         iolated:
800075c0: 20 75 73 69 7a 65 3a 3a          usize::
800075c8: 75 6e 63 68 65 63 6b 65         unchecke
800075d0: 64 5f 61 64 64 20 63 61         d_add ca
800075d8: 6e 6e 6f 74 20 6f 76 65         nnot ove
800075e0: 72 66 6c 6f 77 0a 0a 54         rflow..T
800075e8: 68 69 73 20 69 6e 64 69         his indi
800075f0: 63 61 74 65 73 20 61 20         cates a 
800075f8: 62 75 67 20 69 6e 20 74         bug in t
80007600: 68 65 20 70 72 6f 67 72         he progr
80007608: 61 6d 2e 20 54 68 69 73         am. This
80007610: 20 55 6e 64 65 66 69 6e          Undefin
80007618: 65 64 20 42 65 68 61 76         ed Behav
80007620: 69 6f 72 20 63 68 65 63         ior chec
80007628: 6b 20 69 73 20 6f 70 74         k is opt
80007630: 69 6f 6e 61 6c 2c 20 61         ional, a
80007638: 6e 64 20 63 61 6e 6e 6f         nd canno
80007640: 74 20 62 65 20 72 65 6c         t be rel
80007648: 69 65 64 20 6f 6e 20 66         ied on f
80007650: 6f 72 20 73 61 66 65 74         or safet
80007658: 79 2e 00 00 00 00 00 00         y.......

0000000080007660 <.Lanon.a62dc41987f5299296e4f3349a6a3e53.1>:
80007660: 65 71 00 80 00 00 00 00         eq......
80007668: 50 00 00 00 00 00 00 00         P.......
80007670: 62 07 00 00 0e 00 00 00         b.......

0000000080007678 <.Lanon.a62dc41987f5299296e4f3349a6a3e53.2>:
80007678: 65 71 00 80 00 00 00 00         eq......
80007680: 50 00 00 00 00 00 00 00         P.......
80007688: 55 07 00 00 09 00 00 00         U.......

0000000080007690 <.Lanon.a62dc41987f5299296e4f3349a6a3e53.3>:
80007690: 12 65 6e 63 6f 64 65 5f         .encode_
80007698: 75 74 66 38 3a 20 6e 65         utf8: ne
800076a0: 65 64 20 c0 13 20 62 79         ed .. by
800076a8: 74 65 73 20 74 6f 20 65         tes to e
800076b0: 6e 63 6f 64 65 20 55 2b         ncode U+
800076b8: c3 20 00 00 69 04 00 15         . ..i...
800076c0: 20 62 75 74 20 62 75 66          but buf
800076c8: 66 65 72 20 68 61 73 20         fer has 
800076d0: 6a 75 73 74 20 c0 00            just ..

00000000800076d7 <.Lanon.e8ec22deaeb0f61cc20999eb7811489b.0>:
800076d7: 75 6e 73 61 66 65 20 70         unsafe p
800076df: 72 65 63 6f 6e 64 69 74         recondit
800076e7: 69 6f 6e 28 73 29 20 76         ion(s) v
800076ef: 69 6f 6c 61 74 65 64 3a         iolated:
800076f7: 20 70 74 72 3a 3a 77 72          ptr::wr
800076ff: 69 74 65 5f 62 79 74 65         ite_byte
80007707: 73 20 72 65 71 75 69 72         s requir
8000770f: 65 73 20 74 68 61 74 20         es that 
80007717: 74 68 65 20 64 65 73 74         the dest
8000771f: 69 6e 61 74 69 6f 6e 20         ination 
80007727: 70 6f 69 6e 74 65 72 20         pointer 
8000772f: 69 73 20 61 6c 69 67 6e         is align
80007737: 65 64 20 61 6e 64 20 6e         ed and n
8000773f: 6f 6e 2d 6e 75 6c 6c 0a         on-null.
80007747: 0a 54 68 69 73 20 69 6e         .This in
8000774f: 64 69 63 61 74 65 73 20         dicates 
80007757: 61 20 62 75 67 20 69 6e         a bug in
8000775f: 20 74 68 65 20 70 72 6f          the pro
80007767: 67 72 61 6d 2e 20 54 68         gram. Th
8000776f: 69 73 20 55 6e 64 65 66         is Undef
80007777: 69 6e 65 64 20 42 65 68         ined Beh
8000777f: 61 76 69 6f 72 20 63 68         avior ch
80007787: 65 63 6b 20 69 73 20 6f         eck is o
8000778f: 70 74 69 6f 6e 61 6c 2c         ptional,
80007797: 20 61 6e 64 20 63 61 6e          and can
8000779f: 6e 6f 74 20 62 65 20 72         not be r
800077a7: 65 6c 69 65 64 20 6f 6e         elied on
800077af: 20 66 6f 72 20 73 61 66          for saf
800077b7: 65 74 79 2e                     ety.

00000000800077bb <.Lanon.e8ec22deaeb0f61cc20999eb7811489b.1>:
800077bb: 75 6e 73 61 66 65 20 70         unsafe p
800077c3: 72 65 63 6f 6e 64 69 74         recondit
800077cb: 69 6f 6e 28 73 29 20 76         ion(s) v
800077d3: 69 6f 6c 61 74 65 64 3a         iolated:
800077db: 20 70 74 72 3a 3a 77 72          ptr::wr
800077e3: 69 74 65 5f 76 6f 6c 61         ite_vola
800077eb: 74 69 6c 65 20 72 65 71         tile req
800077f3: 75 69 72 65 73 20 74 68         uires th
800077fb: 61 74 20 74 68 65 20 70         at the p
80007803: 6f 69 6e 74 65 72 20 61         ointer a
8000780b: 72 67 75 6d 65 6e 74 20         rgument 
80007813: 69 73 20 61 6c 69 67 6e         is align
8000781b: 65 64 0a 0a 54 68 69 73         ed..This
80007823: 20 69 6e 64 69 63 61 74          indicat
8000782b: 65 73 20 61 20 62 75 67         es a bug
80007833: 20 69 6e 20 74 68 65 20          in the 
8000783b: 70 72 6f 67 72 61 6d 2e         program.
80007843: 20 54 68 69 73 20 55 6e          This Un
8000784b: 64 65 66 69 6e 65 64 20         defined 
80007853: 42 65 68 61 76 69 6f 72         Behavior
8000785b: 20 63 68 65 63 6b 20 69          check i
80007863: 73 20 6f 70 74 69 6f 6e         s option
8000786b: 61 6c 2c 20 61 6e 64 20         al, and 
80007873: 63 61 6e 6e 6f 74 20 62         cannot b
8000787b: 65 20 72 65 6c 69 65 64         e relied
80007883: 20 6f 6e 20 66 6f 72 20          on for 
8000788b: 73 61 66 65 74 79 2e            safety.

0000000080007892 <.Lanon.e8ec22deaeb0f61cc20999eb7811489b.2>:
80007892: 75 6e 73 61 66 65 20 70         unsafe p
8000789a: 72 65 63 6f 6e 64 69 74         recondit
800078a2: 69 6f 6e 28 73 29 20 76         ion(s) v
800078aa: 69 6f 6c 61 74 65 64 3a         iolated:
800078b2: 20 70 74 72 3a 3a 63 6f          ptr::co
800078ba: 70 79 5f 6e 6f 6e 6f 76         py_nonov
800078c2: 65 72 6c 61 70 70 69 6e         erlappin
800078ca: 67 20 72 65 71 75 69 72         g requir
800078d2: 65 73 20 74 68 61 74 20         es that 
800078da: 62 6f 74 68 20 70 6f 69         both poi
800078e2: 6e 74 65 72 20 61 72 67         nter arg
800078ea: 75 6d 65 6e 74 73 20 61         uments a
800078f2: 72 65 20 61 6c 69 67 6e         re align
800078fa: 65 64 20 61 6e 64 20 6e         ed and n
80007902: 6f 6e 2d 6e 75 6c 6c 20         on-null 
8000790a: 61 6e 64 20 74 68 65 20         and the 
80007912: 73 70 65 63 69 66 69 65         specifie
8000791a: 64 20 6d 65 6d 6f 72 79         d memory
80007922: 20 72 61 6e 67 65 73 20          ranges 
8000792a: 64 6f 20 6e 6f 74 20 6f         do not o
80007932: 76 65 72 6c 61 70 0a 0a         verlap..
8000793a: 54 68 69 73 20 69 6e 64         This ind
80007942: 69 63 61 74 65 73 20 61         icates a
8000794a: 20 62 75 67 20 69 6e 20          bug in 
80007952: 74 68 65 20 70 72 6f 67         the prog
8000795a: 72 61 6d 2e 20 54 68 69         ram. Thi
80007962: 73 20 55 6e 64 65 66 69         s Undefi
8000796a: 6e 65 64 20 42 65 68 61         ned Beha
80007972: 76 69 6f 72 20 63 68 65         vior che
8000797a: 63 6b 20 69 73 20 6f 70         ck is op
80007982: 74 69 6f 6e 61 6c 2c 20         tional, 
8000798a: 61 6e 64 20 63 61 6e 6e         and cann
80007992: 6f 74 20 62 65 20 72 65         ot be re
8000799a: 6c 69 65 64 20 6f 6e 20         lied on 
800079a2: 66 6f 72 20 73 61 66 65         for safe
800079aa: 74 79 2e                        ty.

00000000800079ad <.Lanon.4111cb382cdb411b1a5fef3cb6eb5895.0>:
800079ad: 00 00 00                        ...

00000000800079b0 <.Lanon.15635ce72dd483054234a9102b4180e1.1>:
800079b0: ef 71 00 80 00 00 00 00         .q......
800079b8: 4b 00 00 00 00 00 00 00         K.......
800079c0: 71 03 00 00 2a 00 00 00         q...*...
800079c8: 30 31 32 33 34 35 36 37         01234567
800079d0: 38 39 41 42 43 44 45 46         89ABCDEF
800079d8: 63 68 69 6c 64 5f 61 66         child_af
800079e0: 74 65 72 5f 66 6f 72 6b         ter_fork
800079e8: 63 6f 77 5f 66 61 75 6c         cow_faul
800079f0: 74 5f 62 65 66 6f 72 65         t_before
800079f8: 00 00 00 00 00 00 00 00         ........
80007a00: 00 00 00 00 00 00 00 00         ........
80007a08: 30 31 32 33 34 35 36 37         01234567
80007a10: 38 39 61 62 63 64 65 66         89abcdef
80007a18: 44 44 33 33 22 22 11 11         DD33""..
80007a20: 4b 59 86 38 d6 c5 6d 34         KY.8..m4

0000000080007a28 <.Lanon.f84355d86e681da1d78ac6035753ba02.2>:
80007a28: 5f 70 00 80 00 00 00 00         _p......
80007a30: 0b 00 00 00 00 00 00 00         ........
80007a38: ef 03 00 00 0e 00 00 00         ........

0000000080007a40 <.Lanon.f84355d86e681da1d78ac6035753ba02.4>:
80007a40: 5f 70 00 80 00 00 00 00         _p......
80007a48: 0b 00 00 00 00 00 00 00         ........
80007a50: e0 01 00 00 09 00 00 00         ........

0000000080007a58 <.Lanon.f84355d86e681da1d78ac6035753ba02.5>:
80007a58: 5f 70 00 80 00 00 00 00         _p......
80007a60: 0b 00 00 00 00 00 00 00         ........
80007a68: e1 01 00 00 09 00 00 00         ........

0000000080007a70 <.Lanon.f84355d86e681da1d78ac6035753ba02.6>:
80007a70: 5f 70 00 80 00 00 00 00         _p......
80007a78: 0b 00 00 00 00 00 00 00         ........
80007a80: e4 01 00 00 09 00 00 00         ........

0000000080007a88 <.Lanon.f84355d86e681da1d78ac6035753ba02.7>:
80007a88: 5f 70 00 80 00 00 00 00         _p......
80007a90: 0b 00 00 00 00 00 00 00         ........
80007a98: e5 01 00 00 09 00 00 00         ........

0000000080007aa0 <.Lanon.f84355d86e681da1d78ac6035753ba02.8>:
80007aa0: 5f 70 00 80 00 00 00 00         _p......
80007aa8: 0b 00 00 00 00 00 00 00         ........
80007ab0: e7 01 00 00 09 00 00 00         ........

0000000080007ab8 <.Lanon.f84355d86e681da1d78ac6035753ba02.9>:
80007ab8: 5f 70 00 80 00 00 00 00         _p......
80007ac0: 0b 00 00 00 00 00 00 00         ........
80007ac8: ea 01 00 00 09 00 00 00         ........

0000000080007ad0 <.Lanon.f84355d86e681da1d78ac6035753ba02.10>:
80007ad0: 5f 70 00 80 00 00 00 00         _p......
80007ad8: 0b 00 00 00 00 00 00 00         ........
80007ae0: ec 01 00 00 09 00 00 00         ........

0000000080007ae8 <.Lanon.f84355d86e681da1d78ac6035753ba02.11>:
80007ae8: 5f 70 00 80 00 00 00 00         _p......
80007af0: 0b 00 00 00 00 00 00 00         ........
80007af8: ee 01 00 00 09 00 00 00         ........

0000000080007b00 <.Lanon.f84355d86e681da1d78ac6035753ba02.12>:
80007b00: 5f 70 00 80 00 00 00 00         _p......
80007b08: 0b 00 00 00 00 00 00 00         ........
80007b10: ef 01 00 00 09 00 00 00         ........

0000000080007b18 <.Lanon.f84355d86e681da1d78ac6035753ba02.13>:
80007b18: 5f 70 00 80 00 00 00 00         _p......
80007b20: 0b 00 00 00 00 00 00 00         ........
80007b28: f0 01 00 00 09 00 00 00         ........

0000000080007b30 <.Lanon.f84355d86e681da1d78ac6035753ba02.14>:
80007b30: 5f 70 00 80 00 00 00 00         _p......
80007b38: 0b 00 00 00 00 00 00 00         ........
80007b40: f1 01 00 00 09 00 00 00         ........

0000000080007b48 <.Lanon.f84355d86e681da1d78ac6035753ba02.15>:
80007b48: 5f 70 00 80 00 00 00 00         _p......
80007b50: 0b 00 00 00 00 00 00 00         ........
80007b58: 6b 03 00 00 22 00 00 00         k..."...

0000000080007b60 <.Lanon.f84355d86e681da1d78ac6035753ba02.16>:
80007b60: 5f 70 00 80 00 00 00 00         _p......
80007b68: 0b 00 00 00 00 00 00 00         ........
80007b70: 6b 03 00 00 1b 00 00 00         k.......

0000000080007b78 <.Lanon.f84355d86e681da1d78ac6035753ba02.17>:
80007b78: 5f 70 00 80 00 00 00 00         _p......
80007b80: 0b 00 00 00 00 00 00 00         ........
80007b88: 6b 03 00 00 40 00 00 00         k...@...

0000000080007b90 <.Lanon.f84355d86e681da1d78ac6035753ba02.18>:
80007b90: 5f 70 00 80 00 00 00 00         _p......
80007b98: 0b 00 00 00 00 00 00 00         ........
80007ba0: 6e 03 00 00 05 00 00 00         n.......

0000000080007ba8 <.Lanon.f84355d86e681da1d78ac6035753ba02.19>:
80007ba8: 70 68 79 73 69 63 61 6c         physical
80007bb0: 20 70 61 67 65 20 69 73          page is
80007bb8: 20 6f 75 74 73 69 64 65          outside
80007bc0: 20 74 68 65 20 43 4f 57          the COW
80007bc8: 20 64 61 74 61 20 70 61          data pa
80007bd0: 67 65 20 70 6f 6f 6c            ge pool

0000000080007bd7 <.Lanon.f84355d86e681da1d78ac6035753ba02.20>:
80007bd7: 4c 30 2d 34 4b                  L0-4K

0000000080007bdc <.Lanon.f84355d86e681da1d78ac6035753ba02.21>:
80007bdc: 4c 31 2d 32 4d                  L1-2M

0000000080007be1 <.Lanon.f84355d86e681da1d78ac6035753ba02.22>:
80007be1: 4c 32 2d 31 47                  L2-1G

0000000080007be6 <.Lanon.f84355d86e681da1d78ac6035753ba02.23>:
80007be6: 69 6e 76 61 6c 69 64 00         invalid.
80007bee: 00 00                           ..

0000000080007bf0 <.Lanon.f84355d86e681da1d78ac6035753ba02.24>:
80007bf0: 5f 70 00 80 00 00 00 00         _p......
80007bf8: 0b 00 00 00 00 00 00 00         ........
80007c00: 85 03 00 00 19 00 00 00         ........

0000000080007c08 <.Lanon.f84355d86e681da1d78ac6035753ba02.25>:
80007c08: 5f 70 00 80 00 00 00 00         _p......
80007c10: 0b 00 00 00 00 00 00 00         ........
80007c18: f5 03 00 00 0d 00 00 00         ........

0000000080007c20 <.Lanon.f84355d86e681da1d78ac6035753ba02.26>:
80007c20: 5f 70 00 80 00 00 00 00         _p......
80007c28: 0b 00 00 00 00 00 00 00         ........
80007c30: 73 03 00 00 09 00 00 00         s.......

0000000080007c38 <.Lanon.f84355d86e681da1d78ac6035753ba02.27>:
80007c38: 5f 70 00 80 00 00 00 00         _p......
80007c40: 0b 00 00 00 00 00 00 00         ........
80007c48: 73 04 00 00 05 00 00 00         s.......

0000000080007c50 <.Lanon.f84355d86e681da1d78ac6035753ba02.28>:
80007c50: 5f 70 00 80 00 00 00 00         _p......
80007c58: 0b 00 00 00 00 00 00 00         ........
80007c60: bf 01 00 00 12 00 00 00         ........

0000000080007c68 <.Lanon.f84355d86e681da1d78ac6035753ba02.29>:
80007c68: 5f 70 00 80 00 00 00 00         _p......
80007c70: 0b 00 00 00 00 00 00 00         ........
80007c78: bb 02 00 00 21 00 00 00         ....!...

0000000080007c80 <.Lanon.f84355d86e681da1d78ac6035753ba02.30>:
80007c80: 5f 70 00 80 00 00 00 00         _p......
80007c88: 0b 00 00 00 00 00 00 00         ........
80007c90: bc 02 00 00 20 00 00 00         .... ...

0000000080007c98 <.Lanon.f84355d86e681da1d78ac6035753ba02.31>:
80007c98: 5f 70 00 80 00 00 00 00         _p......
80007ca0: 0b 00 00 00 00 00 00 00         ........
80007ca8: bd 02 00 00 22 00 00 00         ...."...

0000000080007cb0 <.Lanon.f84355d86e681da1d78ac6035753ba02.32>:
80007cb0: 5f 70 00 80 00 00 00 00         _p......
80007cb8: 0b 00 00 00 00 00 00 00         ........
80007cc0: be 02 00 00 21 00 00 00         ....!...

0000000080007cc8 <.Lanon.f84355d86e681da1d78ac6035753ba02.33>:
80007cc8: 5f 70 00 80 00 00 00 00         _p......
80007cd0: 0b 00 00 00 00 00 00 00         ........
80007cd8: bf 02 00 00 1f 00 00 00         ........

0000000080007ce0 <.Lanon.f84355d86e681da1d78ac6035753ba02.34>:
80007ce0: 5f 70 00 80 00 00 00 00         _p......
80007ce8: 0b 00 00 00 00 00 00 00         ........
80007cf0: c0 02 00 00 1e 00 00 00         ........

0000000080007cf8 <.Lanon.f84355d86e681da1d78ac6035753ba02.35>:
80007cf8: 21 5b 6b 65 72 6e 65 6c         ![kernel
80007d00: 5d 20 66 69 6e 61 6c 20         ] final 
80007d08: 66 6f 72 6b 20 73 74 61         fork sta
80007d10: 74 73 3a 20 63 61 6c 6c         ts: call
80007d18: 73 3d c0 0e 20 61 6c 6c         s=.. all
80007d20: 6f 63 5f 62 65 66 6f 72         oc_befor
80007d28: 65 3d c0 0d 20 61 6c 6c         e=.. all
80007d30: 6f 63 5f 61 66 74 65 72         oc_after
80007d38: 3d c0 0b 20 73 68 61 72         =.. shar
80007d40: 65 64 5f 70 61 3d c1 20         ed_pa=. 
80007d48: 00 80 60 0c 20 72 65 66         ..`. ref
80007d50: 5f 62 65 66 6f 72 65 3d         _before=
80007d58: c0 0b 20 72 65 66 5f 61         .. ref_a
80007d60: 66 74 65 72 3d c0 01 0a         fter=...
80007d68: 00                              .

0000000080007d69 <.Lanon.f84355d86e681da1d78ac6035753ba02.36>:
80007d69: 27 5b 6b 65 72 6e 65 6c         '[kernel
80007d71: 5d 20 66 69 6e 61 6c 20         ] final 
80007d79: 63 6f 77 20 73 74 61 74         cow stat
80007d81: 73 3a 20 73 74 6f 72 65         s: store
80007d89: 5f 66 61 75 6c 74 73 3d         _faults=
80007d91: c0 0d 20 63 6f 70 79 5f         .. copy_
80007d99: 66 61 75 6c 74 73 3d c0         faults=.
80007da1: 0e 20 72 65 75 73 65 5f         . reuse_
80007da9: 66 61 75 6c 74 73 3d c0         faults=.
80007db1: 12 20 63 68 69 6c 64 5f         . child_
80007db9: 72 65 66 5f 62 65 66 6f         ref_befo
80007dc1: 72 65 3d c0 0e 20 63 68         re=.. ch
80007dc9: 69 6c 64 5f 6f 6c 64 5f         ild_old_
80007dd1: 70 61 3d c1 20 00 80 60         pa=. ..`
80007dd9: 0e 20 63 68 69 6c 64 5f         . child_
80007de1: 6e 65 77 5f 70 61 3d c1         new_pa=.
80007de9: 20 00 80 60 13 20 70 61          ..`. pa
80007df1: 72 65 6e 74 5f 72 65 66         rent_ref
80007df9: 5f 62 65 66 6f 72 65 3d         _before=
80007e01: c0 0f 20 70 61 72 65 6e         .. paren
80007e09: 74 5f 6f 6c 64 5f 70 61         t_old_pa
80007e11: 3d c1 20 00 80 60 0f 20         =. ..`. 
80007e19: 70 61 72 65 6e 74 5f 6e         parent_n
80007e21: 65 77 5f 70 61 3d c1 20         ew_pa=. 
80007e29: 00 80 60 01 0a 00               ..`...

0000000080007e2f <.Lanon.f84355d86e681da1d78ac6035753ba02.37>:
80007e2f: 1e 5b 6b 65 72 6e 65 6c         .[kernel
80007e37: 5d 20 72 65 70 6f 72 74         ] report
80007e3f: 73 20 70 61 72 65 6e 74         s parent
80007e47: 28 66 69 72 73 74 3d c3         (first=.
80007e4f: 20 00 80 69 12 00 0d 20          ..i... 
80007e57: 61 66 74 65 72 5f 63 68         after_ch
80007e5f: 69 6c 64 3d c3 20 00 80         ild=. ..
80007e67: 69 12 00 0e 20 61 66 74         i... aft
80007e6f: 65 72 5f 70 61 72 65 6e         er_paren
80007e77: 74 3d c3 20 00 80 69 12         t=. ..i.
80007e7f: 00 0e 29 20 63 68 69 6c         ..) chil
80007e87: 64 28 66 69 72 73 74 3d         d(first=
80007e8f: c3 20 00 80 69 12 00 0d         . ..i...
80007e97: 20 61 66 74 65 72 5f 63          after_c
80007e9f: 68 69 6c 64 3d c3 20 00         hild=. .
80007ea7: 80 69 12 00 02 29 0a 00         .i...)..

0000000080007eaf <.Lanon.f84355d86e681da1d78ac6035753ba02.38>:
80007eaf: 1d 5b 6b 65 72 6e 65 6c         .[kernel
80007eb7: 5d 20 66 69 6e 61 6c 20         ] final 
80007ebf: 76 61 6c 75 65 73 20 70         values p
80007ec7: 61 72 65 6e 74 3d c3 20         arent=. 
80007ecf: 00 80 69 12 00 07 20 63         ..i... c
80007ed7: 68 69 6c 64 3d c3 20 00         hild=. .
80007edf: 80 69 12 00 11 20 70 61         .i... pa
80007ee7: 72 65 6e 74 5f 72 65 66         rent_ref
80007eef: 63 6f 75 6e 74 3d c0 10         count=..
80007ef7: 20 63 68 69 6c 64 5f 72          child_r
80007eff: 65 66 63 6f 75 6e 74 3d         efcount=
80007f07: c0 01 0a 00                     ....

0000000080007f0b <.Lanon.f84355d86e681da1d78ac6035753ba02.39>:
80007f0b: 70 61 72 65 6e 74 5f 66         parent_f
80007f13: 69 6e 61 6c                     inal

0000000080007f17 <.Lanon.f84355d86e681da1d78ac6035753ba02.40>:
80007f17: 63 68 69 6c 64 5f 66 69         child_fi
80007f1f: 6e 61 6c 00 00 00 00 00         nal.....
80007f27: 00                              .

0000000080007f28 <.Lanon.f84355d86e681da1d78ac6035753ba02.41>:
80007f28: 5f 70 00 80 00 00 00 00         _p......
80007f30: 0b 00 00 00 00 00 00 00         ........
80007f38: 01 03 00 00 21 00 00 00         ....!...

0000000080007f40 <.Lanon.f84355d86e681da1d78ac6035753ba02.42>:
80007f40: 5f 70 00 80 00 00 00 00         _p......
80007f48: 0b 00 00 00 00 00 00 00         ........
80007f50: 02 03 00 00 15 00 00 00         ........

0000000080007f58 <.Lanon.f84355d86e681da1d78ac6035753ba02.46>:
80007f58: 5f 70 00 80 00 00 00 00         _p......
80007f60: 0b 00 00 00 00 00 00 00         ........
80007f68: f6 01 00 00 1f 00 00 00         ........

0000000080007f70 <.Lanon.f84355d86e681da1d78ac6035753ba02.47>:
80007f70: 5f 70 00 80 00 00 00 00         _p......
80007f78: 0b 00 00 00 00 00 00 00         ........
80007f80: f9 01 00 00 09 00 00 00         ........

0000000080007f88 <.Lanon.f84355d86e681da1d78ac6035753ba02.48>:
80007f88: 5f 70 00 80 00 00 00 00         _p......
80007f90: 0b 00 00 00 00 00 00 00         ........
80007f98: 08 02 00 00 11 00 00 00         ........

0000000080007fa0 <.Lanon.f84355d86e681da1d78ac6035753ba02.49>:
80007fa0: 5f 70 00 80 00 00 00 00         _p......
80007fa8: 0b 00 00 00 00 00 00 00         ........
80007fb0: 09 02 00 00 30 00 00 00         ....0...

0000000080007fb8 <.Lanon.f84355d86e681da1d78ac6035753ba02.50>:
80007fb8: 5f 70 00 80 00 00 00 00         _p......
80007fc0: 0b 00 00 00 00 00 00 00         ........
80007fc8: 09 02 00 00 11 00 00 00         ........

0000000080007fd0 <.Lanon.f84355d86e681da1d78ac6035753ba02.51>:
80007fd0: 5f 70 00 80 00 00 00 00         _p......
80007fd8: 0b 00 00 00 00 00 00 00         ........
80007fe0: 12 02 00 00 1a 00 00 00         ........

0000000080007fe8 <.Lanon.f84355d86e681da1d78ac6035753ba02.52>:
80007fe8: 21 5b 6b 65 72 6e 65 6c         ![kernel
80007ff0: 5d 20 75 6e 65 78 70 65         ] unexpe
80007ff8: 63 74 65 64 20 73 79 73         cted sys
80008000: 63 61 6c 6c 3a 20 70 69         call: pi
80008008: 64 3d c0 04 20 61 37 3d         d=.. a7=
80008010: c0 04 20 61 30 3d c1 20         .. a0=. 
80008018: 00 80 60 01 0a 00               ..`...

000000008000801e <.Lanon.f84355d86e681da1d78ac6035753ba02.53>:
8000801e: 05 5b 70 74 5d 20 c0 05         .[pt] ..
80008026: 20 70 69 64 3d c0 04 20          pid=.. 
8000802e: 76 61 3d c1 20 00 80 60         va=. ..`
80008036: 06 20 76 70 6e 3d 28 c0         . vpn=(.
8000803e: 01 2c c0 01 2c c0 08 29         .,..,..)
80008046: 20 6c 65 76 65 6c 3d c0          level=.
8000804e: 0a 20 72 6f 6f 74 5f 70         . root_p
80008056: 74 65 3d c3 20 00 80 69         te=. ..i
8000805e: 12 00 08 20 6c 31 5f 70         ... l1_p
80008066: 74 65 3d c3 20 00 80 69         te=. ..i
8000806e: 12 00 08 20 6c 30 5f 70         ... l0_p
80008076: 74 65 3d c3 20 00 80 69         te=. ..i
8000807e: 12 00 0a 20 6c 65 61 66         ... leaf
80008086: 5f 70 74 65 3d c3 20 00         _pte=. .
8000808e: 80 69 12 00 09 20 6c 65         .i... le
80008096: 61 66 5f 70 61 3d c1 20         af_pa=. 
8000809e: 00 80 60 07 20 66 6c 61         ..`. fla
800080a6: 67 73 3d c0 01 0a 00 00         gs=.....
800080ae: 00 00                           ..

00000000800080b0 <.Lanon.f84355d86e681da1d78ac6035753ba02.54>:
800080b0: 5f 70 00 80 00 00 00 00         _p......
800080b8: 0b 00 00 00 00 00 00 00         ........
800080c0: aa 03 00 00 20 00 00 00         .... ...

00000000800080c8 <.Lanon.f84355d86e681da1d78ac6035753ba02.55>:
800080c8: 5f 70 00 80 00 00 00 00         _p......
800080d0: 0b 00 00 00 00 00 00 00         ........
800080d8: b2 03 00 00 17 00 00 00         ........

00000000800080e0 <.Lanon.f84355d86e681da1d78ac6035753ba02.56>:
800080e0: 5f 70 00 80 00 00 00 00         _p......
800080e8: 0b 00 00 00 00 00 00 00         ........
800080f0: b3 03 00 00 15 00 00 00         ........

00000000800080f8 <.Lanon.f84355d86e681da1d78ac6035753ba02.57>:
800080f8: 5f 70 00 80 00 00 00 00         _p......
80008100: 0b 00 00 00 00 00 00 00         ........
80008108: bb 03 00 00 17 00 00 00         ........

0000000080008110 <.Lanon.f84355d86e681da1d78ac6035753ba02.58>:
80008110: 5f 70 00 80 00 00 00 00         _p......
80008118: 0b 00 00 00 00 00 00 00         ........
80008120: bc 03 00 00 15 00 00 00         ........

0000000080008128 <.Lanon.f84355d86e681da1d78ac6035753ba02.59>:
80008128: 5f 70 00 80 00 00 00 00         _p......
80008130: 0b 00 00 00 00 00 00 00         ........
80008138: 3f 03 00 00 1a 00 00 00         ?.......

0000000080008140 <.Lanon.f84355d86e681da1d78ac6035753ba02.60>:
80008140: 5f 70 00 80 00 00 00 00         _p......
80008148: 0b 00 00 00 00 00 00 00         ........
80008150: 44 03 00 00 24 00 00 00         D...$...

0000000080008158 <.Lanon.f84355d86e681da1d78ac6035753ba02.61>:
80008158: 5f 70 00 80 00 00 00 00         _p......
80008160: 0b 00 00 00 00 00 00 00         ........
80008168: 44 03 00 00 0e 00 00 00         D.......

0000000080008170 <.Lanon.f84355d86e681da1d78ac6035753ba02.62>:
80008170: 5f 70 00 80 00 00 00 00         _p......
80008178: 0b 00 00 00 00 00 00 00         ........
80008180: 47 03 00 00 09 00 00 00         G.......

0000000080008188 <.Lanon.f84355d86e681da1d78ac6035753ba02.63>:
80008188: 5f 70 00 80 00 00 00 00         _p......
80008190: 0b 00 00 00 00 00 00 00         ........
80008198: 48 03 00 00 09 00 00 00         H.......

00000000800081a0 <.Lanon.f84355d86e681da1d78ac6035753ba02.64>:
800081a0: 5f 70 00 80 00 00 00 00         _p......
800081a8: 0b 00 00 00 00 00 00 00         ........
800081b0: 49 03 00 00 09 00 00 00         I.......

00000000800081b8 <.Lanon.f84355d86e681da1d78ac6035753ba02.65>:
800081b8: 64 61 74 61 20 70 61 67         data pag
800081c0: 65 20 70 6f 6f 6c 20 65         e pool e
800081c8: 78 68 61 75 73 74 65 64         xhausted

00000000800081d0 <.Lanon.f84355d86e681da1d78ac6035753ba02.66>:
800081d0: 5f 70 00 80 00 00 00 00         _p......
800081d8: 0b 00 00 00 00 00 00 00         ........
800081e0: 55 03 00 00 0e 00 00 00         U.......

00000000800081e8 <.Lanon.f84355d86e681da1d78ac6035753ba02.67>:
800081e8: 5f 70 00 80 00 00 00 00         _p......
800081f0: 0b 00 00 00 00 00 00 00         ........
800081f8: 8f 01 00 00 09 00 00 00         ........

0000000080008200 <.Lanon.f84355d86e681da1d78ac6035753ba02.68>:
80008200: 5f 70 00 80 00 00 00 00         _p......
80008208: 0b 00 00 00 00 00 00 00         ........
80008210: 90 01 00 00 09 00 00 00         ........

0000000080008218 <.Lanon.f84355d86e681da1d78ac6035753ba02.69>:
80008218: 5f 70 00 80 00 00 00 00         _p......
80008220: 0b 00 00 00 00 00 00 00         ........
80008228: 91 01 00 00 09 00 00 00         ........

0000000080008230 <.Lanon.f84355d86e681da1d78ac6035753ba02.70>:
80008230: 5f 70 00 80 00 00 00 00         _p......
80008238: 0b 00 00 00 00 00 00 00         ........
80008240: 92 01 00 00 09 00 00 00         ........

0000000080008248 <.Lanon.f84355d86e681da1d78ac6035753ba02.71>:
80008248: 5f 70 00 80 00 00 00 00         _p......
80008250: 0b 00 00 00 00 00 00 00         ........
80008258: 93 01 00 00 09 00 00 00         ........

0000000080008260 <.Lanon.f84355d86e681da1d78ac6035753ba02.72>:
80008260: 5f 70 00 80 00 00 00 00         _p......
80008268: 0b 00 00 00 00 00 00 00         ........
80008270: b1 01 00 00 09 00 00 00         ........

0000000080008278 <.Lanon.f84355d86e681da1d78ac6035753ba02.73>:
80008278: 5f 70 00 80 00 00 00 00         _p......
80008280: 0b 00 00 00 00 00 00 00         ........
80008288: b6 01 00 00 09 00 00 00         ........

0000000080008290 <.Lanon.f84355d86e681da1d78ac6035753ba02.74>:
80008290: 5f 70 00 80 00 00 00 00         _p......
80008298: 0b 00 00 00 00 00 00 00         ........
800082a0: b7 01 00 00 09 00 00 00         ........

00000000800082a8 <.Lanon.f84355d86e681da1d78ac6035753ba02.75>:
800082a8: 5f 70 00 80 00 00 00 00         _p......
800082b0: 0b 00 00 00 00 00 00 00         ........
800082b8: b8 01 00 00 09 00 00 00         ........

00000000800082c0 <.Lanon.f84355d86e681da1d78ac6035753ba02.76>:
800082c0: 5f 70 00 80 00 00 00 00         _p......
800082c8: 0b 00 00 00 00 00 00 00         ........
800082d0: b9 01 00 00 09 00 00 00         ........

00000000800082d8 <.Lanon.f84355d86e681da1d78ac6035753ba02.77>:
800082d8: 5f 70 00 80 00 00 00 00         _p......
800082e0: 0b 00 00 00 00 00 00 00         ........
800082e8: a8 01 00 00 0d 00 00 00         ........

00000000800082f0 <.Lanon.f84355d86e681da1d78ac6035753ba02.78>:
800082f0: 5f 70 00 80 00 00 00 00         _p......
800082f8: 0b 00 00 00 00 00 00 00         ........
80008300: a0 01 00 00 0d 00 00 00         ........

0000000080008308 <.Lanon.f84355d86e681da1d78ac6035753ba02.79>:
80008308: 5f 70 00 80 00 00 00 00         _p......
80008310: 0b 00 00 00 00 00 00 00         ........
80008318: a1 01 00 00 0d 00 00 00         ........

0000000080008320 <.Lanon.f84355d86e681da1d78ac6035753ba02.80>:
80008320: 5f 70 00 80 00 00 00 00         _p......
80008328: 0b 00 00 00 00 00 00 00         ........
80008330: a2 01 00 00 0d 00 00 00         ........

0000000080008338 <.Lanon.f84355d86e681da1d78ac6035753ba02.81>:
80008338: 5f 70 00 80 00 00 00 00         _p......
80008340: 0b 00 00 00 00 00 00 00         ........
80008348: 57 04 00 00 1c 00 00 00         W.......

0000000080008350 <.Lanon.f84355d86e681da1d78ac6035753ba02.82>:
80008350: 5f 70 00 80 00 00 00 00         _p......
80008358: 0b 00 00 00 00 00 00 00         ........
80008360: 4b 04 00 00 20 00 00 00         K... ...

0000000080008368 <.Lanon.f84355d86e681da1d78ac6035753ba02.83>:
80008368: 5f 70 00 80 00 00 00 00         _p......
80008370: 0b 00 00 00 00 00 00 00         ........
80008378: 05 04 00 00 0d 00 00 00         ........

0000000080008380 <.Lanon.f84355d86e681da1d78ac6035753ba02.84>:
80008380: 5f 70 00 80 00 00 00 00         _p......
80008388: 0b 00 00 00 00 00 00 00         ........
80008390: 5b 04 00 00 1c 00 00 00         [.......

0000000080008398 <.Lanon.f84355d86e681da1d78ac6035753ba02.85>:
80008398: 5f 70 00 80 00 00 00 00         _p......
800083a0: 0b 00 00 00 00 00 00 00         ........
800083a8: 56 02 00 00 09 00 00 00         V.......

00000000800083b0 <.Lanon.f84355d86e681da1d78ac6035753ba02.86>:
800083b0: 5f 70 00 80 00 00 00 00         _p......
800083b8: 0b 00 00 00 00 00 00 00         ........
800083c0: 57 02 00 00 2b 00 00 00         W...+...

00000000800083c8 <.Lanon.f84355d86e681da1d78ac6035753ba02.87>:
800083c8: 5f 70 00 80 00 00 00 00         _p......
800083d0: 0b 00 00 00 00 00 00 00         ........
800083d8: 57 02 00 00 09 00 00 00         W.......

00000000800083e0 <.Lanon.f84355d86e681da1d78ac6035753ba02.88>:
800083e0: 5f 70 00 80 00 00 00 00         _p......
800083e8: 0b 00 00 00 00 00 00 00         ........
800083f0: 58 02 00 00 2c 00 00 00         X...,...

00000000800083f8 <.Lanon.f84355d86e681da1d78ac6035753ba02.89>:
800083f8: 5f 70 00 80 00 00 00 00         _p......
80008400: 0b 00 00 00 00 00 00 00         ........
80008408: 58 02 00 00 09 00 00 00         X.......

0000000080008410 <.Lanon.f84355d86e681da1d78ac6035753ba02.90>:
80008410: 5f 70 00 80 00 00 00 00         _p......
80008418: 0b 00 00 00 00 00 00 00         ........
80008420: 59 02 00 00 2b 00 00 00         Y...+...

0000000080008428 <.Lanon.f84355d86e681da1d78ac6035753ba02.91>:
80008428: 5f 70 00 80 00 00 00 00         _p......
80008430: 0b 00 00 00 00 00 00 00         ........
80008438: 59 02 00 00 09 00 00 00         Y.......

0000000080008440 <.Lanon.f84355d86e681da1d78ac6035753ba02.92>:
80008440: 5f 70 00 80 00 00 00 00         _p......
80008448: 0b 00 00 00 00 00 00 00         ........
80008450: 5f 02 00 00 12 00 00 00         _.......

0000000080008458 <.Lanon.f84355d86e681da1d78ac6035753ba02.93>:
80008458: 5f 70 00 80 00 00 00 00         _p......
80008460: 0b 00 00 00 00 00 00 00         ........
80008468: 60 02 00 00 12 00 00 00         `.......

0000000080008470 <.Lanon.f84355d86e681da1d78ac6035753ba02.94>:
80008470: 5f 70 00 80 00 00 00 00         _p......
80008478: 0b 00 00 00 00 00 00 00         ........
80008480: 61 02 00 00 12 00 00 00         a.......

0000000080008488 <.Lanon.f84355d86e681da1d78ac6035753ba02.95>:
80008488: 14 5b 6b 65 72 6e 65 6c         .[kernel
80008490: 5d 20 72 65 70 6f 72 74         ] report
80008498: 20 70 69 64 3d c0 07 20          pid=.. 
800084a0: 66 69 72 73 74 3d c3 20         first=. 
800084a8: 00 80 69 12 00 08 20 73         ..i... s
800084b0: 65 63 6f 6e 64 3d c3 20         econd=. 
800084b8: 00 80 69 12 00 07 20 74         ..i... t
800084c0: 68 69 72 64 3d c3 20 00         hird=. .
800084c8: 80 69 12 00 01 0a 00 00         .i......

00000000800084d0 <.Lanon.f84355d86e681da1d78ac6035753ba02.96>:
800084d0: 5f 70 00 80 00 00 00 00         _p......
800084d8: 0b 00 00 00 00 00 00 00         ........
800084e0: 4f 04 00 00 20 00 00 00         O... ...

00000000800084e8 <.Lanon.f84355d86e681da1d78ac6035753ba02.97>:
800084e8: 5f 70 00 80 00 00 00 00         _p......
800084f0: 0b 00 00 00 00 00 00 00         ........
800084f8: 5f 04 00 00 1c 00 00 00         _.......

0000000080008500 <.Lanon.f84355d86e681da1d78ac6035753ba02.98>:
80008500: 2a 5b 6b 65 72 6e 65 6c         *[kernel
80008508: 5d 20 73 74 6f 72 65 20         ] store 
80008510: 66 61 75 6c 74 20 6f 6e         fault on
80008518: 20 6e 6f 6e 2d 43 4f 57          non-COW
80008520: 20 70 61 67 65 3a 20 70          page: p
80008528: 69 64 3d c0 05 20 70 74         id=.. pt
80008530: 65 3d c1 20 00 80 60 01         e=. ..`.
80008538: 0a 00 00 00 00 00 00 00         ........

0000000080008540 <.Lanon.f84355d86e681da1d78ac6035753ba02.99>:
80008540: 5f 70 00 80 00 00 00 00         _p......
80008548: 0b 00 00 00 00 00 00 00         ........
80008550: 7e 02 00 00 09 00 00 00         ~.......

0000000080008558 <.Lanon.f84355d86e681da1d78ac6035753ba02.100>:
80008558: 5f 70 00 80 00 00 00 00         _p......
80008560: 0b 00 00 00 00 00 00 00         ........
80008568: 99 02 00 00 0d 00 00 00         ........

0000000080008570 <.Lanon.f84355d86e681da1d78ac6035753ba02.101>:
80008570: 5f 70 00 80 00 00 00 00         _p......
80008578: 0b 00 00 00 00 00 00 00         ........
80008580: 9b 02 00 00 11 00 00 00         ........

0000000080008588 <.Lanon.f84355d86e681da1d78ac6035753ba02.102>:
80008588: 5f 70 00 80 00 00 00 00         _p......
80008590: 0b 00 00 00 00 00 00 00         ........
80008598: 9c 02 00 00 11 00 00 00         ........

00000000800085a0 <.Lanon.f84355d86e681da1d78ac6035753ba02.103>:
800085a0: 5f 70 00 80 00 00 00 00         _p......
800085a8: 0b 00 00 00 00 00 00 00         ........
800085b0: 9d 02 00 00 11 00 00 00         ........

00000000800085b8 <.Lanon.f84355d86e681da1d78ac6035753ba02.104>:
800085b8: 1d 5b 6b 65 72 6e 65 6c         .[kernel
800085c0: 5d 20 63 6f 77 20 73 74         ] cow st
800085c8: 6f 72 65 20 66 61 75 6c         ore faul
800085d0: 74 20 70 69 64 3d c0 1e         t pid=..
800085d8: 20 61 63 74 69 6f 6e 3d          action=
800085e0: 72 65 75 73 65 20 72 65         reuse re
800085e8: 66 63 6f 75 6e 74 5f 62         fcount_b
800085f0: 65 66 6f 72 65 3d c0 04         efore=..
800085f8: 20 70 61 3d c1 20 00 80          pa=. ..
80008600: 60 01 0a 00 00 00 00 00         `.......

0000000080008608 <.Lanon.f84355d86e681da1d78ac6035753ba02.105>:
80008608: 5f 70 00 80 00 00 00 00         _p......
80008610: 0b 00 00 00 00 00 00 00         ........
80008618: 88 02 00 00 0d 00 00 00         ........

0000000080008620 <.Lanon.f84355d86e681da1d78ac6035753ba02.106>:
80008620: 5f 70 00 80 00 00 00 00         _p......
80008628: 0b 00 00 00 00 00 00 00         ........
80008630: 8a 02 00 00 11 00 00 00         ........

0000000080008638 <.Lanon.f84355d86e681da1d78ac6035753ba02.107>:
80008638: 5f 70 00 80 00 00 00 00         _p......
80008640: 0b 00 00 00 00 00 00 00         ........
80008648: 8b 02 00 00 11 00 00 00         ........

0000000080008650 <.Lanon.f84355d86e681da1d78ac6035753ba02.108>:
80008650: 5f 70 00 80 00 00 00 00         _p......
80008658: 0b 00 00 00 00 00 00 00         ........
80008660: 8c 02 00 00 11 00 00 00         ........

0000000080008668 <.Lanon.f84355d86e681da1d78ac6035753ba02.109>:
80008668: 1d 5b 6b 65 72 6e 65 6c         .[kernel
80008670: 5d 20 63 6f 77 20 73 74         ] cow st
80008678: 6f 72 65 20 66 61 75 6c         ore faul
80008680: 74 20 70 69 64 3d c0 1d         t pid=..
80008688: 20 61 63 74 69 6f 6e 3d          action=
80008690: 63 6f 70 79 20 72 65 66         copy ref
80008698: 63 6f 75 6e 74 5f 62 65         count_be
800086a0: 66 6f 72 65 3d c0 08 20         fore=.. 
800086a8: 6f 6c 64 5f 70 61 3d c1         old_pa=.
800086b0: 20 00 80 60 08 20 6e 65          ..`. ne
800086b8: 77 5f 70 61 3d c1 20 00         w_pa=. .
800086c0: 80 60 01 0a 00 00 00 00         .`......

00000000800086c8 <.Lanon.f84355d86e681da1d78ac6035753ba02.110>:
800086c8: 5f 70 00 80 00 00 00 00         _p......
800086d0: 0b 00 00 00 00 00 00 00         ........
800086d8: ac 02 00 00 12 00 00 00         ........

00000000800086e0 <.Lanon.f84355d86e681da1d78ac6035753ba02.111>:
800086e0: 1e 5b 6b 65 72 6e 65 6c         .[kernel
800086e8: 5d 20 63 6f 77 20 66 61         ] cow fa
800086f0: 75 6c 74 20 72 65 73 75         ult resu
800086f8: 6c 74 20 70 69 64 3d c0         lt pid=.
80008700: 06 20 73 65 70 63 3d c1         . sepc=.
80008708: 20 00 80 60 07 20 73 74          ..`. st
80008710: 76 61 6c 3d c1 20 00 80         val=. ..
80008718: 60 08 20 6f 6c 64 5f 70         `. old_p
80008720: 61 3d c1 20 00 80 60 08         a=. ..`.
80008728: 20 6e 65 77 5f 70 61 3d          new_pa=
80008730: c1 20 00 80 60 01 0a 00         . ..`...

0000000080008738 <.Lanon.f84355d86e681da1d78ac6035753ba02.113>:
80008738: 63 6f 77 5f 66 61 75 6c         cow_faul
80008740: 74 5f 61 66 74 65 72 00         t_after.

0000000080008748 <.Lanon.f84355d86e681da1d78ac6035753ba02.114>:
80008748: 5f 70 00 80 00 00 00 00         _p......
80008750: 0b 00 00 00 00 00 00 00         ........
80008758: 6b 02 00 00 16 00 00 00         k.......

0000000080008760 <.Lanon.f84355d86e681da1d78ac6035753ba02.115>:
80008760: 2a 5b 6b 65 72 6e 65 6c         *[kernel
80008768: 5d 20 75 6e 65 78 70 65         ] unexpe
80008770: 63 74 65 64 20 73 74 6f         cted sto
80008778: 72 65 20 70 61 67 65 20         re page 
80008780: 66 61 75 6c 74 3a 20 70         fault: p
80008788: 69 64 3d c0 06 20 73 65         id=.. se
80008790: 70 63 3d c1 20 00 80 60         pc=. ..`
80008798: 07 20 73 74 76 61 6c 3d         . stval=
800087a0: c1 20 00 80 60 01 0a 00         . ..`...

00000000800087a8 <.Lanon.f84355d86e681da1d78ac6035753ba02.116>:
800087a8: 5f 70 00 80 00 00 00 00         _p......
800087b0: 0b 00 00 00 00 00 00 00         ........
800087b8: 26 03 00 00 11 00 00 00         &.......

00000000800087c0 <.Lanon.f84355d86e681da1d78ac6035753ba02.117>:
800087c0: 5f 70 00 80 00 00 00 00         _p......
800087c8: 0b 00 00 00 00 00 00 00         ........
800087d0: 53 04 00 00 20 00 00 00         S... ...

00000000800087d8 <.Lanon.f84355d86e681da1d78ac6035753ba02.118>:
800087d8: 5f 70 00 80 00 00 00 00         _p......
800087e0: 0b 00 00 00 00 00 00 00         ........
800087e8: 2f 03 00 00 15 00 00 00         /.......

00000000800087f0 <.Lanon.f84355d86e681da1d78ac6035753ba02.119>:
800087f0: 5f 70 00 80 00 00 00 00         _p......
800087f8: 0b 00 00 00 00 00 00 00         ........
80008800: cf 01 00 00 09 00 00 00         ........

0000000080008808 <.Lanon.f84355d86e681da1d78ac6035753ba02.120>:
80008808: 5f 70 00 80 00 00 00 00         _p......
80008810: 0b 00 00 00 00 00 00 00         ........
80008818: d3 01 00 00 24 00 00 00         ....$...

0000000080008820 <.Lanon.f84355d86e681da1d78ac6035753ba02.121>:
80008820: 5f 70 00 80 00 00 00 00         _p......
80008828: 0b 00 00 00 00 00 00 00         ........
80008830: d3 01 00 00 16 00 00 00         ........

0000000080008838 <.Lanon.f84355d86e681da1d78ac6035753ba02.122>:
80008838: 5f 70 00 80 00 00 00 00         _p......
80008840: 0b 00 00 00 00 00 00 00         ........
80008848: d4 01 00 00 0d 00 00 00         ........

0000000080008850 <.Lanon.f84355d86e681da1d78ac6035753ba02.123>:
80008850: 5f 70 00 80 00 00 00 00         _p......
80008858: 0b 00 00 00 00 00 00 00         ........
80008860: 62 03 00 00 0c 00 00 00         b.......

0000000080008868 <.Lanon.f84355d86e681da1d78ac6035753ba02.124>:
80008868: 5f 70 00 80 00 00 00 00         _p......
80008870: 0b 00 00 00 00 00 00 00         ........
80008878: 65 03 00 00 09 00 00 00         e.......

0000000080008880 <.Lanon.f84355d86e681da1d78ac6035753ba02.125>:
80008880: 64 65 63 72 65 6d 65 6e         decremen
80008888: 74 20 6f 6e 20 7a 65 72         t on zer
80008890: 6f 20 72 65 66 63 6f 75         o refcou
80008898: 6e 74 00 00 00 00 00 00         nt......

00000000800088a0 <.Lanon.f84355d86e681da1d78ac6035753ba02.126>:
800088a0: 5f 70 00 80 00 00 00 00         _p......
800088a8: 0b 00 00 00 00 00 00 00         ........
800088b0: 5b 03 00 00 09 00 00 00         [.......

00000000800088b8 <.Lanon.f84355d86e681da1d78ac6035753ba02.127>:
800088b8: 5f 70 00 80 00 00 00 00         _p......
800088c0: 0b 00 00 00 00 00 00 00         ........
800088c8: 1b 02 00 00 12 00 00 00         ........

00000000800088d0 <.Lanon.f84355d86e681da1d78ac6035753ba02.128>:
800088d0: 5f 70 00 80 00 00 00 00         _p......
800088d8: 0b 00 00 00 00 00 00 00         ........
800088e0: 1d 02 00 00 21 00 00 00         ....!...

00000000800088e8 <.Lanon.f84355d86e681da1d78ac6035753ba02.129>:
800088e8: 5f 70 00 80 00 00 00 00         _p......
800088f0: 0b 00 00 00 00 00 00 00         ........
800088f8: 21 02 00 00 27 00 00 00         !...'...

0000000080008900 <.Lanon.f84355d86e681da1d78ac6035753ba02.130>:
80008900: 5f 70 00 80 00 00 00 00         _p......
80008908: 0b 00 00 00 00 00 00 00         ........
80008910: 21 02 00 00 09 00 00 00         !.......

0000000080008918 <.Lanon.f84355d86e681da1d78ac6035753ba02.131>:
80008918: 5f 70 00 80 00 00 00 00         _p......
80008920: 0b 00 00 00 00 00 00 00         ........
80008928: 22 02 00 00 29 00 00 00         "...)...

0000000080008930 <.Lanon.f84355d86e681da1d78ac6035753ba02.132>:
80008930: 5f 70 00 80 00 00 00 00         _p......
80008938: 0b 00 00 00 00 00 00 00         ........
80008940: 22 02 00 00 09 00 00 00         ".......

0000000080008948 <.Lanon.f84355d86e681da1d78ac6035753ba02.133>:
80008948: 5f 70 00 80 00 00 00 00         _p......
80008950: 0b 00 00 00 00 00 00 00         ........
80008958: 23 02 00 00 2a 00 00 00         #...*...

0000000080008960 <.Lanon.f84355d86e681da1d78ac6035753ba02.134>:
80008960: 5f 70 00 80 00 00 00 00         _p......
80008968: 0b 00 00 00 00 00 00 00         ........
80008970: 23 02 00 00 09 00 00 00         #.......

0000000080008978 <.Lanon.f84355d86e681da1d78ac6035753ba02.135>:
80008978: 5f 70 00 80 00 00 00 00         _p......
80008980: 0b 00 00 00 00 00 00 00         ........
80008988: 27 02 00 00 09 00 00 00         '.......

0000000080008990 <.Lanon.f84355d86e681da1d78ac6035753ba02.136>:
80008990: 5f 70 00 80 00 00 00 00         _p......
80008998: 0b 00 00 00 00 00 00 00         ........
800089a0: 29 02 00 00 09 00 00 00         ).......

00000000800089a8 <.Lanon.f84355d86e681da1d78ac6035753ba02.137>:
800089a8: 5f 70 00 80 00 00 00 00         _p......
800089b0: 0b 00 00 00 00 00 00 00         ........
800089b8: 33 02 00 00 09 00 00 00         3.......

00000000800089c0 <.Lanon.f84355d86e681da1d78ac6035753ba02.138>:
800089c0: 5f 70 00 80 00 00 00 00         _p......
800089c8: 0b 00 00 00 00 00 00 00         ........
800089d0: 34 02 00 00 09 00 00 00         4.......

00000000800089d8 <.Lanon.f84355d86e681da1d78ac6035753ba02.139>:
800089d8: 5f 70 00 80 00 00 00 00         _p......
800089e0: 0b 00 00 00 00 00 00 00         ........
800089e8: 35 02 00 00 09 00 00 00         5.......

00000000800089f0 <.Lanon.f84355d86e681da1d78ac6035753ba02.140>:
800089f0: 5f 70 00 80 00 00 00 00         _p......
800089f8: 0b 00 00 00 00 00 00 00         ........
80008a00: 36 02 00 00 09 00 00 00         6.......

0000000080008a08 <.Lanon.f84355d86e681da1d78ac6035753ba02.141>:
80008a08: 5f 70 00 80 00 00 00 00         _p......
80008a10: 0b 00 00 00 00 00 00 00         ........
80008a18: 38 02 00 00 25 00 00 00         8...%...

0000000080008a20 <.Lanon.f84355d86e681da1d78ac6035753ba02.142>:
80008a20: 5f 70 00 80 00 00 00 00         _p......
80008a28: 0b 00 00 00 00 00 00 00         ........
80008a30: 38 02 00 00 09 00 00 00         8.......

0000000080008a38 <.Lanon.f84355d86e681da1d78ac6035753ba02.143>:
80008a38: 5f 70 00 80 00 00 00 00         _p......
80008a40: 0b 00 00 00 00 00 00 00         ........
80008a48: 39 02 00 00 09 00 00 00         9.......

0000000080008a50 <.Lanon.f84355d86e681da1d78ac6035753ba02.144>:
80008a50: 5f 70 00 80 00 00 00 00         _p......
80008a58: 0b 00 00 00 00 00 00 00         ........
80008a60: 3a 02 00 00 09 00 00 00         :.......

0000000080008a68 <.Lanon.f84355d86e681da1d78ac6035753ba02.145>:
80008a68: 5f 70 00 80 00 00 00 00         _p......
80008a70: 0b 00 00 00 00 00 00 00         ........
80008a78: 3c 02 00 00 09 00 00 00         <.......

0000000080008a80 <.Lanon.f84355d86e681da1d78ac6035753ba02.146>:
80008a80: 5f 70 00 80 00 00 00 00         _p......
80008a88: 0b 00 00 00 00 00 00 00         ........
80008a90: 3d 02 00 00 09 00 00 00         =.......

0000000080008a98 <.Lanon.f84355d86e681da1d78ac6035753ba02.147>:
80008a98: 5f 70 00 80 00 00 00 00         _p......
80008aa0: 0b 00 00 00 00 00 00 00         ........
80008aa8: 3e 02 00 00 09 00 00 00         >.......

0000000080008ab0 <.Lanon.f84355d86e681da1d78ac6035753ba02.148>:
80008ab0: 5f 70 00 80 00 00 00 00         _p......
80008ab8: 0b 00 00 00 00 00 00 00         ........
80008ac0: 3f 02 00 00 28 00 00 00         ?...(...

0000000080008ac8 <.Lanon.f84355d86e681da1d78ac6035753ba02.149>:
80008ac8: 5f 70 00 80 00 00 00 00         _p......
80008ad0: 0b 00 00 00 00 00 00 00         ........
80008ad8: 3f 02 00 00 09 00 00 00         ?.......

0000000080008ae0 <.Lanon.f84355d86e681da1d78ac6035753ba02.150>:
80008ae0: 5f 70 00 80 00 00 00 00         _p......
80008ae8: 0b 00 00 00 00 00 00 00         ........
80008af0: 40 02 00 00 09 00 00 00         @.......

0000000080008af8 <.Lanon.f84355d86e681da1d78ac6035753ba02.151>:
80008af8: 5f 70 00 80 00 00 00 00         _p......
80008b00: 0b 00 00 00 00 00 00 00         ........
80008b08: 41 02 00 00 09 00 00 00         A.......

0000000080008b10 <.Lanon.f84355d86e681da1d78ac6035753ba02.152>:
80008b10: 5f 70 00 80 00 00 00 00         _p......
80008b18: 0b 00 00 00 00 00 00 00         ........
80008b20: 43 02 00 00 0d 00 00 00         C.......

0000000080008b28 <.Lanon.f84355d86e681da1d78ac6035753ba02.153>:
80008b28: 5f 70 00 80 00 00 00 00         _p......
80008b30: 0b 00 00 00 00 00 00 00         ........
80008b38: 42 02 00 00 09 00 00 00         B.......

0000000080008b40 <.Lanon.f84355d86e681da1d78ac6035753ba02.154>:
80008b40: 5f 70 00 80 00 00 00 00         _p......
80008b48: 0b 00 00 00 00 00 00 00         ........
80008b50: 45 02 00 00 0d 00 00 00         E.......

0000000080008b58 <.Lanon.f84355d86e681da1d78ac6035753ba02.155>:
80008b58: 5f 70 00 80 00 00 00 00         _p......
80008b60: 0b 00 00 00 00 00 00 00         ........
80008b68: 44 02 00 00 09 00 00 00         D.......

0000000080008b70 <.Lanon.f84355d86e681da1d78ac6035753ba02.156>:
80008b70: 5f 70 00 80 00 00 00 00         _p......
80008b78: 0b 00 00 00 00 00 00 00         ........
80008b80: 4b 02 00 00 12 00 00 00         K.......

0000000080008b88 <.Lanon.f84355d86e681da1d78ac6035753ba02.157>:
80008b88: 25 5b 6b 65 72 6e 65 6c         %[kernel
80008b90: 5d 20 66 6f 72 6b 20 63         ] fork c
80008b98: 6f 6d 70 6c 65 74 65 3a         omplete:
80008ba0: 20 61 6c 6c 6f 63 5f 62          alloc_b
80008ba8: 65 66 6f 72 65 3d c0 0d         efore=..
80008bb0: 20 61 6c 6c 6f 63 5f 61          alloc_a
80008bb8: 66 74 65 72 3d c0 0b 20         fter=.. 
80008bc0: 73 68 61 72 65 64 5f 70         shared_p
80008bc8: 61 3d c1 20 00 80 60 0c         a=. ..`.
80008bd0: 20 72 65 66 5f 62 65 66          ref_bef
80008bd8: 6f 72 65 3d c0 0b 20 72         ore=.. r
80008be0: 65 66 5f 61 66 74 65 72         ef_after
80008be8: 3d c0 01 0a 00                  =....

0000000080008bed <.Lanon.f84355d86e681da1d78ac6035753ba02.158>:
80008bed: 70 61 72 65 6e 74 5f 61         parent_a
80008bf5: 66 74 65 72 5f 66 6f 72         fter_for
80008bfd: 6b 00 00                        k..

0000000080008c00 <.Lanon.f84355d86e681da1d78ac6035753ba02.160>:
80008c00: 5f 70 00 80 00 00 00 00         _p......
80008c08: 0b 00 00 00 00 00 00 00         ........
80008c10: 86 04 00 00 24 00 00 00         ....$...
80008c18: 46 41 49 4c 50 41 53 53         FAILPASS

0000000080008c20 <.Lanon.f84355d86e681da1d78ac6035753ba02.163>:
80008c20: 5f 70 00 80 00 00 00 00         _p......
80008c28: 0b 00 00 00 00 00 00 00         ........
80008c30: 97 04 00 00 09 00 00 00         ........

0000000080008c38 <.Lanon.f84355d86e681da1d78ac6035753ba02.164>:
80008c38: 5f 70 00 80 00 00 00 00         _p......
80008c40: 0b 00 00 00 00 00 00 00         ........
80008c48: fc 03 00 00 1a 00 00 00         ........

0000000080008c50 <.Lanon.f84355d86e681da1d78ac6035753ba02.166>:
80008c50: 6b 70 00 80 00 00 00 00         kp......
80008c58: 4b 00 00 00 00 00 00 00         K.......
80008c60: bc 02 00 00 09 00 00 00         ........

0000000080008c68 <.Lanon.f84355d86e681da1d78ac6035753ba02.167>:
80008c68: 6b 70 00 80 00 00 00 00         kp......
80008c70: 4b 00 00 00 00 00 00 00         K.......
80008c78: 0f 02 00 00 05 00 00 00         ........

0000000080008c80 <.Lanon.f84355d86e681da1d78ac6035753ba02.169>:
80008c80: 5f 70 00 80 00 00 00 00         _p......
80008c88: 0b 00 00 00 00 00 00 00         ........
80008c90: f9 00 00 00 0d 00 00 00         ........

0000000080008c98 <.Lanon.f84355d86e681da1d78ac6035753ba02.170>:
80008c98: 29 5b 6b 65 72 6e 65 6c         )[kernel
80008ca0: 5d 20 75 6e 65 78 70 65         ] unexpe
80008ca8: 63 74 65 64 20 6d 61 63         cted mac
80008cb0: 68 69 6e 65 20 74 72 61         hine tra
80008cb8: 70 3a 20 6d 63 61 75 73         p: mcaus
80008cc0: 65 3d c1 20 00 80 60 06         e=. ..`.
80008cc8: 20 6d 65 70 63 3d c1 20          mepc=. 
80008cd0: 00 80 60 07 20 6d 74 76         ..`. mtv
80008cd8: 61 6c 3d c1 20 00 80 60         al=. ..`
80008ce0: 01 0a 00 00 00 00 00 00         ........

0000000080008ce8 <.Lanon.f84355d86e681da1d78ac6035753ba02.171>:
80008ce8: 5f 70 00 80 00 00 00 00         _p......
80008cf0: 0b 00 00 00 00 00 00 00         ........
80008cf8: 66 01 00 00 18 00 00 00         f.......

0000000080008d00 <.Lanon.f84355d86e681da1d78ac6035753ba02.172>:
80008d00: 5f 70 00 80 00 00 00 00         _p......
80008d08: 0b 00 00 00 00 00 00 00         ........
80008d10: 6b 01 00 00 09 00 00 00         k.......

0000000080008d18 <.Lanon.f84355d86e681da1d78ac6035753ba02.173>:
80008d18: 5f 70 00 80 00 00 00 00         _p......
80008d20: 0b 00 00 00 00 00 00 00         ........
80008d28: 83 01 00 00 0d 00 00 00         ........

0000000080008d30 <.Lanon.f84355d86e681da1d78ac6035753ba02.174>:
80008d30: 5f 70 00 80 00 00 00 00         _p......
80008d38: 0b 00 00 00 00 00 00 00         ........
80008d40: 85 01 00 00 16 00 00 00         ........

0000000080008d48 <.Lanon.f84355d86e681da1d78ac6035753ba02.175>:
80008d48: 29 5b 6b 65 72 6e 65 6c         )[kernel
80008d50: 5d 20 75 6e 65 78 70 65         ] unexpe
80008d58: 63 74 65 64 20 6c 6f 61         cted loa
80008d60: 64 20 70 61 67 65 20 66         d page f
80008d68: 61 75 6c 74 3a 20 70 69         ault: pi
80008d70: 64 3d c0 06 20 73 65 70         d=.. sep
80008d78: 63 3d c1 20 00 80 60 07         c=. ..`.
80008d80: 20 73 74 76 61 6c 3d c1          stval=.
80008d88: 20 00 80 60 01 0a 00             ..`...

0000000080008d8f <.Lanon.f84355d86e681da1d78ac6035753ba02.176>:
80008d8f: 29 5b 6b 65 72 6e 65 6c         )[kernel
80008d97: 5d 20 75 6e 65 78 70 65         ] unexpe
80008d9f: 63 74 65 64 20 73 75 70         cted sup
80008da7: 65 72 76 69 73 6f 72 20         ervisor 
80008daf: 74 72 61 70 3a 20 70 69         trap: pi
80008db7: 64 3d c0 08 20 73 63 61         d=.. sca
80008dbf: 75 73 65 3d c1 20 00 80         use=. ..
80008dc7: 60 06 20 73 65 70 63 3d         `. sepc=
80008dcf: c1 20 00 80 60 07 20 73         . ..`. s
80008dd7: 74 76 61 6c 3d c1 20 00         tval=. .
80008ddf: 80 60 01 0a 00                  .`...

0000000080008de4 <.Lanon.f84355d86e681da1d78ac6035753ba02.177>:
80008de4: 5b 6b 65 72 6e 65 6c 5d         [kernel]
80008dec: 20 62 6f 6f 74 65 64 20          booted 
80008df4: 69 6e 20 53 2d 6d 6f 64         in S-mod
80008dfc: 65 20 77 69 74 68 20 53         e with S
80008e04: 76 33 39 20 65 6e 61 62         v39 enab
80008e0c: 6c 65 64 0a                     led.

0000000080008e10 <.Lanon.f84355d86e681da1d78ac6035753ba02.178>:
80008e10: 5b 6b 65 72 6e 65 6c 5d         [kernel]
80008e18: 20 4c 41 42 34 20 6b 65          LAB4 ke
80008e20: 72 6e 65 6c 20 74 61 73         rnel tas
80008e28: 6b 33 20 63 6f 70 79 2d         k3 copy-
80008e30: 6f 6e 2d 77 72 69 74 65         on-write
80008e38: 20 66 6f 72 6b 0a                fork.

0000000080008e3e <.Lanon.f84355d86e681da1d78ac6035753ba02.179>:
80008e3e: 5b 6b 65 72 6e 65 6c 5d         [kernel]
80008e46: 20 70 6f 6c 69 63 79 3a          policy:
80008e4e: 20 66 6f 72 6b 20 73 68          fork sh
80008e56: 61 72 65 73 20 6f 6e 65         ares one
80008e5e: 20 77 72 69 74 61 62 6c          writabl
80008e66: 65 20 61 6e 6f 6e 79 6d         e anonym
80008e6e: 6f 75 73 20 75 73 65 72         ous user
80008e76: 20 70 61 67 65 20 62 79          page by
80008e7e: 20 63 6c 65 61 72 69 6e          clearin
80008e86: 67 20 57 20 61 6e 64 20         g W and 
80008e8e: 73 65 74 74 69 6e 67 20         setting 
80008e96: 43 4f 57 3b 20 73 74 6f         COW; sto
80008e9e: 72 65 20 70 61 67 65 20         re page 
80008ea6: 66 61 75 6c 74 20 72 65         fault re
80008eae: 73 6f 6c 76 65 73 20 63         solves c
80008eb6: 6f 70 79 20 6f 72 20 77         opy or w
80008ebe: 72 69 74 65 2d 65 6e 61         rite-ena
80008ec6: 62 6c 65 0a 00 00 00 00         ble.....
80008ece: 00 00                           ..

0000000080008ed0 <.Lanon.f84355d86e681da1d78ac6035753ba02.180>:
80008ed0: 5f 70 00 80 00 00 00 00         _p......
80008ed8: 0b 00 00 00 00 00 00 00         ........
80008ee0: 3f 01 00 00 12 00 00 00         ?.......

0000000080008ee8 <.Lanon.f84355d86e681da1d78ac6035753ba02.181>:
80008ee8: 15 5b 6b 65 72 6e 65 6c         .[kernel
80008ef0: 5d 20 70 61 72 65 6e 74         ] parent
80008ef8: 20 73 61 74 70 3d c1 20          satp=. 
80008f00: 00 80 60 09 20 72 6f 6f         ..`. roo
80008f08: 74 5f 70 61 3d c1 20 00         t_pa=. .
80008f10: 80 60 01 0a 00 00 00 00         .`......

0000000080008f18 <.Lanon.f84355d86e681da1d78ac6035753ba02.182>:
80008f18: 5f 70 00 80 00 00 00 00         _p......
80008f20: 0b 00 00 00 00 00 00 00         ........
80008f28: 46 01 00 00 12 00 00 00         F.......

0000000080008f30 <.Lanon.f84355d86e681da1d78ac6035753ba02.183>:
80008f30: 23 5b 6b 65 72 6e 65 6c         #[kernel
80008f38: 5d 20 69 6e 69 74 69 61         ] initia
80008f40: 6c 20 61 6e 6f 6e 79 6d         l anonym
80008f48: 6f 75 73 20 70 61 67 65         ous page
80008f50: 20 70 61 3d c1 20 00 80          pa=. ..
80008f58: 60 0a 20 72 65 66 63 6f         `. refco
80008f60: 75 6e 74 3d c0 07 20 76         unt=.. v
80008f68: 61 6c 75 65 3d c3 20 00         alue=. .
80008f70: 80 69 12 00 01 0a 00            .i.....

0000000080008f77 <.Lanon.f84355d86e681da1d78ac6035753ba02.184>:
80008f77: 70 61 72 65 6e 74 5f 64         parent_d
80008f7f: 61 74 61 5f 62 65 66 6f         ata_befo
80008f87: 72 65 5f 66 6f 72 6b 00         re_fork.
80008f8f: 00                              .

0000000080008f90 <.Lanon.f84355d86e681da1d78ac6035753ba02.185>:
80008f90: 5f 70 00 80 00 00 00 00         _p......
80008f98: 0b 00 00 00 00 00 00 00         ........
80008fa0: 50 01 00 00 09 00 00 00         P.......

0000000080008fa8 <.Lanon.7b3e898ad7c311fd7e54005cdc522e8c.1>:
80008fa8: 8e 73 00 80 00 00 00 00         .s......
80008fb0: 4d 00 00 00 00 00 00 00         M.......
80008fb8: 94 00 00 00 36 00 00 00         ....6...

0000000080008fc0 <.Lanon.7b3e898ad7c311fd7e54005cdc522e8c.2>:
80008fc0: 75 6e 73 61 66 65 20 70         unsafe p
80008fc8: 72 65 63 6f 6e 64 69 74         recondit
80008fd0: 69 6f 6e 28 73 29 20 76         ion(s) v
80008fd8: 69 6f 6c 61 74 65 64 3a         iolated:
80008fe0: 20 73 6c 69 63 65 3a 3a          slice::
80008fe8: 66 72 6f 6d 5f 72 61 77         from_raw
80008ff0: 5f 70 61 72 74 73 20 72         _parts r
80008ff8: 65 71 75 69 72 65 73 20         equires 
80009000: 74 68 65 20 70 6f 69 6e         the poin
80009008: 74 65 72 20 74 6f 20 62         ter to b
80009010: 65 20 61 6c 69 67 6e 65         e aligne
80009018: 64 20 61 6e 64 20 6e 6f         d and no
80009020: 6e 2d 6e 75 6c 6c 2c 20         n-null, 
80009028: 61 6e 64 20 74 68 65 20         and the 
80009030: 74 6f 74 61 6c 20 73 69         total si
80009038: 7a 65 20 6f 66 20 74 68         ze of th
80009040: 65 20 73 6c 69 63 65 20         e slice 
80009048: 6e 6f 74 20 74 6f 20 65         not to e
80009050: 78 63 65 65 64 20 60 69         xceed `i
80009058: 73 69 7a 65 3a 3a 4d 41         size::MA
80009060: 58 60 0a 0a 54 68 69 73         X`..This
80009068: 20 69 6e 64 69 63 61 74          indicat
80009070: 65 73 20 61 20 62 75 67         es a bug
80009078: 20 69 6e 20 74 68 65 20          in the 
80009080: 70 72 6f 67 72 61 6d 2e         program.
80009088: 20 54 68 69 73 20 55 6e          This Un
80009090: 64 65 66 69 6e 65 64 20         defined 
80009098: 42 65 68 61 76 69 6f 72         Behavior
800090a0: 20 63 68 65 63 6b 20 69          check i
800090a8: 73 20 6f 70 74 69 6f 6e         s option
800090b0: 61 6c 2c 20 61 6e 64 20         al, and 
800090b8: 63 61 6e 6e 6f 74 20 62         cannot b
800090c0: 65 20 72 65 6c 69 65 64         e relied
800090c8: 20 6f 6e 20 66 6f 72 20          on for 
800090d0: 73 61 66 65 74 79 2e            safety.

00000000800090d7 <.Lanon.7b3e898ad7c311fd7e54005cdc522e8c.3>:
800090d7: 75 6e 73 61 66 65 20 70         unsafe p
800090df: 72 65 63 6f 6e 64 69 74         recondit
800090e7: 69 6f 6e 28 73 29 20 76         ion(s) v
800090ef: 69 6f 6c 61 74 65 64 3a         iolated:
800090f7: 20 73 6c 69 63 65 3a 3a          slice::
800090ff: 66 72 6f 6d 5f 72 61 77         from_raw
80009107: 5f 70 61 72 74 73 5f 6d         _parts_m
8000910f: 75 74 20 72 65 71 75 69         ut requi
80009117: 72 65 73 20 74 68 65 20         res the 
8000911f: 70 6f 69 6e 74 65 72 20         pointer 
80009127: 74 6f 20 62 65 20 61 6c         to be al
8000912f: 69 67 6e 65 64 20 61 6e         igned an
80009137: 64 20 6e 6f 6e 2d 6e 75         d non-nu
8000913f: 6c 6c 2c 20 61 6e 64 20         ll, and 
80009147: 74 68 65 20 74 6f 74 61         the tota
8000914f: 6c 20 73 69 7a 65 20 6f         l size o
80009157: 66 20 74 68 65 20 73 6c         f the sl
8000915f: 69 63 65 20 6e 6f 74 20         ice not 
80009167: 74 6f 20 65 78 63 65 65         to excee
8000916f: 64 20 60 69 73 69 7a 65         d `isize
80009177: 3a 3a 4d 41 58 60 0a 0a         ::MAX`..
8000917f: 54 68 69 73 20 69 6e 64         This ind
80009187: 69 63 61 74 65 73 20 61         icates a
8000918f: 20 62 75 67 20 69 6e 20          bug in 
80009197: 74 68 65 20 70 72 6f 67         the prog
8000919f: 72 61 6d 2e 20 54 68 69         ram. Thi
800091a7: 73 20 55 6e 64 65 66 69         s Undefi
800091af: 6e 65 64 20 42 65 68 61         ned Beha
800091b7: 76 69 6f 72 20 63 68 65         vior che
800091bf: 63 6b 20 69 73 20 6f 70         ck is op
800091c7: 74 69 6f 6e 61 6c 2c 20         tional, 
800091cf: 61 6e 64 20 63 61 6e 6e         and cann
800091d7: 6f 74 20 62 65 20 72 65         ot be re
800091df: 6c 69 65 64 20 6f 6e 20         lied on 
800091e7: 66 6f 72 20 73 61 66 65         for safe
800091ef: 74 79 2e                        ty.

00000000800091f2 <.Lanon.a450f70bb4a78953581a03eeb4390687.0>:
800091f2: 69 73 5f 6e 6f 6e 6f 76         is_nonov
800091fa: 65 72 6c 61 70 70 69 6e         erlappin
80009202: 67 3a 20 60 73 69 7a 65         g: `size
8000920a: 5f 6f 66 3a 3a 3c 54 3e         _of::<T>
80009212: 28 29 20 2a 20 63 6f 75         () * cou
8000921a: 6e 74 60 20 6f 76 65 72         nt` over
80009222: 66 6c 6f 77 73 20 61 20         flows a 
8000922a: 75 73 69 7a 65 00               usize.

0000000080009230 <.Lanon.10b8d5bd6a38ca7ebe03fcbb83c56120.2>:
80009230: cc 70 00 80 00 00 00 00         .p......
80009238: 53 00 00 00 00 00 00 00         S.......
80009240: 3f 00 00 00 25 00 00 00         ?...%...

0000000080009248 <.Lanon.10b8d5bd6a38ca7ebe03fcbb83c56120.4>:
80009248: 36 74 00 80 00 00 00 00         6t......
80009250: 59 00 00 00 00 00 00 00         Y.......
80009258: ae 00 00 00 20 00 00 00         .... ...

0000000080009260 <.Lanon.f8ca618d8efb5908f3a3da28ec6e04f0.0>:
80009260: 75 6e 73 61 66 65 20 70         unsafe p
80009268: 72 65 63 6f 6e 64 69 74         recondit
80009270: 69 6f 6e 28 73 29 20 76         ion(s) v
80009278: 69 6f 6c 61 74 65 64 3a         iolated:
80009280: 20 73 6c 69 63 65 3a 3a          slice::
80009288: 67 65 74 5f 75 6e 63 68         get_unch
80009290: 65 63 6b 65 64 20 72 65         ecked re
80009298: 71 75 69 72 65 73 20 74         quires t
800092a0: 68 61 74 20 74 68 65 20         hat the 
800092a8: 69 6e 64 65 78 20 69 73         index is
800092b0: 20 77 69 74 68 69 6e 20          within 
800092b8: 74 68 65 20 73 6c 69 63         the slic
800092c0: 65 0a 0a 54 68 69 73 20         e..This 
800092c8: 69 6e 64 69 63 61 74 65         indicate
800092d0: 73 20 61 20 62 75 67 20         s a bug 
800092d8: 69 6e 20 74 68 65 20 70         in the p
800092e0: 72 6f 67 72 61 6d 2e 20         rogram. 
800092e8: 54 68 69 73 20 55 6e 64         This Und
800092f0: 65 66 69 6e 65 64 20 42         efined B
800092f8: 65 68 61 76 69 6f 72 20         ehavior 
80009300: 63 68 65 63 6b 20 69 73         check is
80009308: 20 6f 70 74 69 6f 6e 61          optiona
80009310: 6c 2c 20 61 6e 64 20 63         l, and c
80009318: 61 6e 6e 6f 74 20 62 65         annot be
80009320: 20 72 65 6c 69 65 64 20          relied 
80009328: 6f 6e 20 66 6f 72 20 73         on for s
80009330: 61 66 65 74 79 2e               afety.

0000000080009336 <.Lanon.536f2323b683c81b361b85010efd6979.10>:
80009336: 30 30 30 31 30 32 30 33         00010203
8000933e: 30 34 30 35 30 36 30 37         04050607
80009346: 30 38 30 39 31 30 31 31         08091011
8000934e: 31 32 31 33 31 34 31 35         12131415
80009356: 31 36 31 37 31 38 31 39         16171819
8000935e: 32 30 32 31 32 32 32 33         20212223
80009366: 32 34 32 35 32 36 32 37         24252627
8000936e: 32 38 32 39 33 30 33 31         28293031
80009376: 33 32 33 33 33 34 33 35         32333435
8000937e: 33 36 33 37 33 38 33 39         36373839
80009386: 34 30 34 31 34 32 34 33         40414243
8000938e: 34 34 34 35 34 36 34 37         44454647
80009396: 34 38 34 39 35 30 35 31         48495051
8000939e: 35 32 35 33 35 34 35 35         52535455
800093a6: 35 36 35 37 35 38 35 39         56575859
800093ae: 36 30 36 31 36 32 36 33         60616263
800093b6: 36 34 36 35 36 36 36 37         64656667
800093be: 36 38 36 39 37 30 37 31         68697071
800093c6: 37 32 37 33 37 34 37 35         72737475
800093ce: 37 36 37 37 37 38 37 39         76777879
800093d6: 38 30 38 31 38 32 38 33         80818283
800093de: 38 34 38 35 38 36 38 37         84858687
800093e6: 38 38 38 39 39 30 39 31         88899091
800093ee: 39 32 39 33 39 34 39 35         92939495
800093f6: 39 36 39 37 39 38 39 39         96979899
800093fe: 00 00                           ..

0000000080009400 <.Lanon.536f2323b683c81b361b85010efd6979.22>:
80009400: 42 73 00 80 00 00 00 00         Bs......
80009408: 4b 00 00 00 00 00 00 00         K.......
80009410: 57 02 00 00 05 00 00 00         W.......

0000000080009418 <.Lanon.536f2323b683c81b361b85010efd6979.31>:
80009418: 30 78                           0x

000000008000941a <.Lanon.536f2323b683c81b361b85010efd6979.80>:
8000941a: 61 74 74 65 6d 70 74 20         attempt 
80009422: 74 6f 20 61 64 64 20 77         to add w
8000942a: 69 74 68 20 6f 76 65 72         ith over
80009432: 66 6c 6f 77                     flow

0000000080009436 <.Lanon.536f2323b683c81b361b85010efd6979.82>:
80009436: 61 74 74 65 6d 70 74 20         attempt 
8000943e: 74 6f 20 6d 75 6c 74 69         to multi
80009446: 70 6c 79 20 77 69 74 68         ply with
8000944e: 20 6f 76 65 72 66 6c 6f          overflo
80009456: 77                              w

0000000080009457 <.Lanon.536f2323b683c81b361b85010efd6979.87>:
80009457: 61 74 74 65 6d 70 74 20         attempt 
8000945f: 74 6f 20 73 75 62 74 72         to subtr
80009467: 61 63 74 20 77 69 74 68         act with
8000946f: 20 6f 76 65 72 66 6c 6f          overflo
80009477: 77                              w

0000000080009478 <.Lanon.536f2323b683c81b361b85010efd6979.259>:
80009478: 61 74 74 65 6d 70 74 20         attempt 
80009480: 74 6f 20 64 69 76 69 64         to divid
80009488: 65 20 62 79 20 7a 65 72         e by zer
80009490: 6f 00 00 00 00 00 00 00         o.......

0000000080009498 <.Lanon.536f2323b683c81b361b85010efd6979.277>:
80009498: 90 74 00 80 00 00 00 00         .t......
800094a0: 4d 00 00 00 00 00 00 00         M.......
800094a8: e1 00 00 00 05 00 00 00         ........

00000000800094b0 <.Lanon.536f2323b683c81b361b85010efd6979.288>:
800094b0: 6e 75 6c 6c 20 70 6f 69         null poi
800094b8: 6e 74 65 72 20 64 65 72         nter der
800094c0: 65 66 65 72 65 6e 63 65         eference
800094c8: 20 6f 63 63 75 72 72 65          occurre
800094d0: 64                              d

00000000800094d1 <.Lanon.536f2323b683c81b361b85010efd6979.290>:
800094d1: 3e 6d 69 73 61 6c 69 67         >misalig
800094d9: 6e 65 64 20 70 6f 69 6e         ned poin
800094e1: 74 65 72 20 64 65 72 65         ter dere
800094e9: 66 65 72 65 6e 63 65 3a         ference:
800094f1: 20 61 64 64 72 65 73 73          address
800094f9: 20 6d 75 73 74 20 62 65          must be
80009501: 20 61 20 6d 75 6c 74 69          a multi
80009509: 70 6c 65 20 6f 66 20 c1         ple of .
80009511: 20 00 80 60 08 20 62 75          ..`. bu
80009519: 74 20 69 73 20 c1 20 00         t is . .
80009521: 80 60 00                        .`.

0000000080009524 <.Lanon.536f2323b683c81b361b85010efd6979.399>:
80009524: 70 61 6e 69 63 6b 65 64         panicked
8000952c: 20 61 74 20                      at 

0000000080009530 <.Lanon.536f2323b683c81b361b85010efd6979.400>:
80009530: 3a 0a                           :.
