    Blocking waiting for file lock on package cache
    Blocking waiting for file lock on shared package cache
    Finished `dev` profile [unoptimized + debuginfo] target(s) in 0.00s

lab4_kernel_task2:	file format elf64-littleriscv

Disassembly of section .text:

0000000080000000 <_start>:
80000000: 00027117     	auipc	sp, 0x27
80000004: 0f010113     	addi	sp, sp, 0xf0
80000008: 00004097     	auipc	ra, 0x4
8000000c: 3c2080e7     	jalr	0x3c2(ra) <start_machine>
80000010: a001         	j	0x80000010 <_start+0x10>

0000000080000012 <core::num::_$LT$impl$u20$usize$GT$::checked_add::h3b228a4726cac0bc>:
80000012: 7139         	addi	sp, sp, -0x40
80000014: e42e         	sd	a1, 0x8(sp)
80000016: 85aa         	mv	a1, a0
80000018: 6522         	ld	a0, 0x8(sp)
8000001a: e82e         	sd	a1, 0x10(sp)
8000001c: f42e         	sd	a1, 0x28(sp)
8000001e: f82a         	sd	a0, 0x30(sp)
80000020: 952e         	add	a0, a0, a1
80000022: 00b53633     	sltu	a2, a0, a1
80000026: 02c10fa3     	sb	a2, 0x3f(sp)
8000002a: 00b56a63     	bltu	a0, a1, 0x8000003e <.Lpcrel_hi0>
8000002e: a009         	j	0x80000030 <core::num::_$LT$impl$u20$usize$GT$::checked_add::h3b228a4726cac0bc+0x1e>
80000030: 6542         	ld	a0, 0x10(sp)
80000032: 65a2         	ld	a1, 0x8(sp)
80000034: 952e         	add	a0, a0, a1
80000036: f02a         	sd	a0, 0x20(sp)
80000038: 4505         	li	a0, 0x1
8000003a: ec2a         	sd	a0, 0x18(sp)
8000003c: a811         	j	0x80000050 <.Lpcrel_hi0+0x12>

000000008000003e <.Lpcrel_hi0>:
8000003e: 00006517     	auipc	a0, 0x6
80000042: 1b250513     	addi	a0, a0, 0x1b2
80000046: 610c         	ld	a1, 0x0(a0)
80000048: 6508         	ld	a0, 0x8(a0)
8000004a: ec2e         	sd	a1, 0x18(sp)
8000004c: f02a         	sd	a0, 0x20(sp)
8000004e: a009         	j	0x80000050 <.Lpcrel_hi0+0x12>
80000050: 6562         	ld	a0, 0x18(sp)
80000052: 7582         	ld	a1, 0x20(sp)
80000054: 6121         	addi	sp, sp, 0x40
80000056: 8082         	ret

0000000080000058 <core::num::_$LT$impl$u20$usize$GT$::unchecked_add::precondition_check::h64681f27f0cb7859>:
80000058: 7179         	addi	sp, sp, -0x30
8000005a: e032         	sd	a2, 0x0(sp)
8000005c: e42e         	sd	a1, 0x8(sp)
8000005e: 85aa         	mv	a1, a0
80000060: 6522         	ld	a0, 0x8(sp)
80000062: e82e         	sd	a1, 0x10(sp)
80000064: ec2a         	sd	a0, 0x18(sp)
80000066: 952e         	add	a0, a0, a1
80000068: 00b56563     	bltu	a0, a1, 0x80000072 <core::num::_$LT$impl$u20$usize$GT$::unchecked_add::precondition_check::h64681f27f0cb7859+0x1a>
8000006c: a009         	j	0x8000006e <core::num::_$LT$impl$u20$usize$GT$::unchecked_add::precondition_check::h64681f27f0cb7859+0x16>
8000006e: 6145         	addi	sp, sp, 0x30
80000070: 8082         	ret
80000072: 6682         	ld	a3, 0x0(sp)

0000000080000074 <.Lpcrel_hi1>:
80000074: 00006517     	auipc	a0, 0x6
80000078: 19c50513     	addi	a0, a0, 0x19c
8000007c: f02a         	sd	a0, 0x20(sp)
8000007e: 0ba00593     	li	a1, 0xba
80000082: f42e         	sd	a1, 0x28(sp)
80000084: 17500593     	li	a1, 0x175
80000088: 4601         	li	a2, 0x0
8000008a: 00006097     	auipc	ra, 0x6
8000008e: d82080e7     	jalr	-0x27e(ra) <core::panicking::panic_nounwind_fmt::h2e018e50a8d3bc73>

0000000080000092 <lab4_kernel_task2::trap::init_machine_trap_vector::h0f906ebb7e558150>:
80000092: 00001517     	auipc	a0, 0x1
80000096: 82e50513     	addi	a0, a0, -0x7d2
8000009a: 30551073     	csrw	mtvec, a0
8000009e: 8082         	ret

00000000800000a0 <lab4_kernel_task2::trap::init_supervisor_trap_vector::hd4fda2d3bf2de367>:
800000a0: 00001517     	auipc	a0, 0x1
800000a4: 8d050513     	addi	a0, a0, -0x730
800000a8: 10551073     	csrw	stvec, a0
800000ac: 8082         	ret

00000000800000ae <lab4_kernel_task2::trap::TrapFrame::zeroed::h6a23567e6761ba4e>:
800000ae: 85aa         	mv	a1, a0
800000b0: 4501         	li	a0, 0x0
800000b2: e188         	sd	a0, 0x0(a1)
800000b4: e588         	sd	a0, 0x8(a1)
800000b6: e988         	sd	a0, 0x10(a1)
800000b8: ed88         	sd	a0, 0x18(a1)
800000ba: f188         	sd	a0, 0x20(a1)
800000bc: f588         	sd	a0, 0x28(a1)
800000be: f988         	sd	a0, 0x30(a1)
800000c0: fd88         	sd	a0, 0x38(a1)
800000c2: e1a8         	sd	a0, 0x40(a1)
800000c4: e5a8         	sd	a0, 0x48(a1)
800000c6: e9a8         	sd	a0, 0x50(a1)
800000c8: eda8         	sd	a0, 0x58(a1)
800000ca: f1a8         	sd	a0, 0x60(a1)
800000cc: f5a8         	sd	a0, 0x68(a1)
800000ce: f9a8         	sd	a0, 0x70(a1)
800000d0: fda8         	sd	a0, 0x78(a1)
800000d2: e1c8         	sd	a0, 0x80(a1)
800000d4: e5c8         	sd	a0, 0x88(a1)
800000d6: e9c8         	sd	a0, 0x90(a1)
800000d8: edc8         	sd	a0, 0x98(a1)
800000da: f1c8         	sd	a0, 0xa0(a1)
800000dc: f5c8         	sd	a0, 0xa8(a1)
800000de: f9c8         	sd	a0, 0xb0(a1)
800000e0: fdc8         	sd	a0, 0xb8(a1)
800000e2: e1e8         	sd	a0, 0xc0(a1)
800000e4: e5e8         	sd	a0, 0xc8(a1)
800000e6: e9e8         	sd	a0, 0xd0(a1)
800000e8: ede8         	sd	a0, 0xd8(a1)
800000ea: f1e8         	sd	a0, 0xe0(a1)
800000ec: f5e8         	sd	a0, 0xe8(a1)
800000ee: f9e8         	sd	a0, 0xf0(a1)
800000f0: fde8         	sd	a0, 0xf8(a1)
800000f2: 8082         	ret

00000000800000f4 <lab4_kernel_task2::console::write_byte::h4e1d1386a921ad6c>:
800000f4: 1101         	addi	sp, sp, -0x20
800000f6: ec06         	sd	ra, 0x18(sp)
800000f8: 85aa         	mv	a1, a0
800000fa: e42e         	sd	a1, 0x8(sp)
800000fc: 00a10ba3     	sb	a0, 0x17(sp)
80000100: 45a9         	li	a1, 0xa
80000102: 02b50363     	beq	a0, a1, 0x80000128 <.Lpcrel_hi1>
80000106: a009         	j	0x80000108 <lab4_kernel_task2::console::write_byte::h4e1d1386a921ad6c+0x14>
80000108: 6522         	ld	a0, 0x8(sp)
8000010a: 0ff57593     	zext.b	a1, a0

000000008000010e <.Lpcrel_hi0>:
8000010e: 00006517     	auipc	a0, 0x6
80000112: 75a50613     	addi	a2, a0, 0x75a
80000116: 10000537     	lui	a0, 0x10000
8000011a: 00004097     	auipc	ra, 0x4
8000011e: 672080e7     	jalr	0x672(ra) <core::ptr::write_volatile::h83645ac48518bb63>
80000122: 60e2         	ld	ra, 0x18(sp)
80000124: 6105         	addi	sp, sp, 0x20
80000126: 8082         	ret

0000000080000128 <.Lpcrel_hi1>:
80000128: 00006517     	auipc	a0, 0x6
8000012c: 72850613     	addi	a2, a0, 0x728
80000130: 10000537     	lui	a0, 0x10000
80000134: 45b5         	li	a1, 0xd
80000136: 00004097     	auipc	ra, 0x4
8000013a: 656080e7     	jalr	0x656(ra) <core::ptr::write_volatile::h83645ac48518bb63>
8000013e: b7e9         	j	0x80000108 <lab4_kernel_task2::console::write_byte::h4e1d1386a921ad6c+0x14>

0000000080000140 <lab4_kernel_task2::console::print::h7473f0160e01bbb6>:
80000140: 7179         	addi	sp, sp, -0x30
80000142: f406         	sd	ra, 0x28(sp)
80000144: 862e         	mv	a2, a1
80000146: 85aa         	mv	a1, a0
80000148: e82e         	sd	a1, 0x10(sp)
8000014a: ec32         	sd	a2, 0x18(sp)
8000014c: 00f10513     	addi	a0, sp, 0xf
80000150: 00000097     	auipc	ra, 0x0
80000154: 554080e7     	jalr	0x554(ra) <core::fmt::Write::write_fmt::h8328963948cb0a7f>
80000158: 70a2         	ld	ra, 0x28(sp)
8000015a: 6145         	addi	sp, sp, 0x30
8000015c: 8082         	ret

000000008000015e <_$LT$lab4_kernel_task2..console..KernelConsole$u20$as$u20$core..fmt..Write$GT$::write_str::h743886d79beb2f2b>:
8000015e: 715d         	addi	sp, sp, -0x50
80000160: e486         	sd	ra, 0x48(sp)
80000162: e032         	sd	a2, 0x0(sp)
80000164: 862e         	mv	a2, a1
80000166: 6582         	ld	a1, 0x0(sp)
80000168: e432         	sd	a2, 0x8(sp)
8000016a: 862a         	mv	a2, a0
8000016c: 6522         	ld	a0, 0x8(sp)
8000016e: f432         	sd	a2, 0x28(sp)
80000170: f82a         	sd	a0, 0x30(sp)
80000172: fc2e         	sd	a1, 0x38(sp)
80000174: 00000097     	auipc	ra, 0x0
80000178: 174080e7     	jalr	0x174(ra) <core::str::_$LT$impl$u20$str$GT$::bytes::h3c0ba19885b844d4>
8000017c: 00000097     	auipc	ra, 0x0
80000180: 064080e7     	jalr	0x64(ra) <_$LT$I$u20$as$u20$core..iter..traits..collect..IntoIterator$GT$::into_iter::h5f82f9591bc581aa>
80000184: e82a         	sd	a0, 0x10(sp)
80000186: ec2e         	sd	a1, 0x18(sp)
80000188: a009         	j	0x8000018a <_$LT$lab4_kernel_task2..console..KernelConsole$u20$as$u20$core..fmt..Write$GT$::write_str::h743886d79beb2f2b+0x2c>
8000018a: 0808         	addi	a0, sp, 0x10
8000018c: 00000097     	auipc	ra, 0x0
80000190: 484080e7     	jalr	0x484(ra) <_$LT$core..str..iter..Bytes$u20$as$u20$core..iter..traits..iterator..Iterator$GT$::next::h5b637f0bb3a98e7f>
80000194: 8905         	andi	a0, a0, 0x1
80000196: 02a10323     	sb	a0, 0x26(sp)
8000019a: 02b103a3     	sb	a1, 0x27(sp)
8000019e: 02614503     	lbu	a0, 0x26(sp)
800001a2: 8905         	andi	a0, a0, 0x1
800001a4: c919         	beqz	a0, 0x800001ba <_$LT$lab4_kernel_task2..console..KernelConsole$u20$as$u20$core..fmt..Write$GT$::write_str::h743886d79beb2f2b+0x5c>
800001a6: a009         	j	0x800001a8 <_$LT$lab4_kernel_task2..console..KernelConsole$u20$as$u20$core..fmt..Write$GT$::write_str::h743886d79beb2f2b+0x4a>
800001a8: 02714503     	lbu	a0, 0x27(sp)
800001ac: 04a103a3     	sb	a0, 0x47(sp)
800001b0: 00000097     	auipc	ra, 0x0
800001b4: f44080e7     	jalr	-0xbc(ra) <lab4_kernel_task2::console::write_byte::h4e1d1386a921ad6c>
800001b8: bfc9         	j	0x8000018a <_$LT$lab4_kernel_task2..console..KernelConsole$u20$as$u20$core..fmt..Write$GT$::write_str::h743886d79beb2f2b+0x2c>
800001ba: 4501         	li	a0, 0x0
800001bc: 60a6         	ld	ra, 0x48(sp)
800001be: 6161         	addi	sp, sp, 0x50
800001c0: 8082         	ret

00000000800001c2 <core::ptr::drop_in_place$LT$core..array..iter..IntoIter$LT$char$C$8_usize$GT$$GT$::h2f3077ab9c77c936>:
800001c2: 1141         	addi	sp, sp, -0x10
800001c4: e406         	sd	ra, 0x8(sp)
800001c6: e02a         	sd	a0, 0x0(sp)
800001c8: 00000097     	auipc	ra, 0x0
800001cc: 00e080e7     	jalr	0xe(ra) <_$LT$core..array..iter..IntoIter$LT$T$C$_$GT$$u20$as$u20$core..ops..drop..Drop$GT$::drop::h69dde2f5823aeef8>
800001d0: 60a2         	ld	ra, 0x8(sp)
800001d2: 0141         	addi	sp, sp, 0x10
800001d4: 8082         	ret

00000000800001d6 <_$LT$core..array..iter..IntoIter$LT$T$C$_$GT$$u20$as$u20$core..ops..drop..Drop$GT$::drop::h69dde2f5823aeef8>:
800001d6: 1141         	addi	sp, sp, -0x10
800001d8: e42a         	sd	a0, 0x8(sp)
800001da: a009         	j	0x800001dc <_$LT$core..array..iter..IntoIter$LT$T$C$_$GT$$u20$as$u20$core..ops..drop..Drop$GT$::drop::h69dde2f5823aeef8+0x6>
800001dc: 0141         	addi	sp, sp, 0x10
800001de: 8082         	ret

00000000800001e0 <_$LT$I$u20$as$u20$core..iter..traits..collect..IntoIterator$GT$::into_iter::h5f82f9591bc581aa>:
800001e0: 1141         	addi	sp, sp, -0x10
800001e2: e02a         	sd	a0, 0x0(sp)
800001e4: e42e         	sd	a1, 0x8(sp)
800001e6: 0141         	addi	sp, sp, 0x10
800001e8: 8082         	ret

00000000800001ea <_$LT$$RF$T$u20$as$u20$core..fmt..Display$GT$::fmt::h61ab3fea16f4dfe6>:
800001ea: 1101         	addi	sp, sp, -0x20
800001ec: ec06         	sd	ra, 0x18(sp)
800001ee: 862e         	mv	a2, a1
800001f0: 85aa         	mv	a1, a0
800001f2: e42e         	sd	a1, 0x8(sp)
800001f4: e832         	sd	a2, 0x10(sp)
800001f6: 6188         	ld	a0, 0x0(a1)
800001f8: 658c         	ld	a1, 0x8(a1)
800001fa: 00005097     	auipc	ra, 0x5
800001fe: d3c080e7     	jalr	-0x2c4(ra) <_$LT$str$u20$as$u20$core..fmt..Display$GT$::fmt::h53474d83e2b0968b>
80000202: 60e2         	ld	ra, 0x18(sp)
80000204: 6105         	addi	sp, sp, 0x20
80000206: 8082         	ret

0000000080000208 <core::fmt::Arguments::new::h1bb320816467ef92>:
80000208: 1141         	addi	sp, sp, -0x10
8000020a: e02a         	sd	a0, 0x0(sp)
8000020c: e42e         	sd	a1, 0x8(sp)
8000020e: 0141         	addi	sp, sp, 0x10
80000210: 8082         	ret

0000000080000212 <core::fmt::Arguments::new::h23bd85e95e22e9d4>:
80000212: 1141         	addi	sp, sp, -0x10
80000214: e02a         	sd	a0, 0x0(sp)
80000216: e42e         	sd	a1, 0x8(sp)
80000218: 0141         	addi	sp, sp, 0x10
8000021a: 8082         	ret

000000008000021c <core::fmt::Arguments::new::h240b22c72c41dd42>:
8000021c: 1141         	addi	sp, sp, -0x10
8000021e: e02a         	sd	a0, 0x0(sp)
80000220: e42e         	sd	a1, 0x8(sp)
80000222: 0141         	addi	sp, sp, 0x10
80000224: 8082         	ret

0000000080000226 <core::fmt::Arguments::new::h335ead9bcd0cd6c9>:
80000226: 1141         	addi	sp, sp, -0x10
80000228: e02a         	sd	a0, 0x0(sp)
8000022a: e42e         	sd	a1, 0x8(sp)
8000022c: 0141         	addi	sp, sp, 0x10
8000022e: 8082         	ret

0000000080000230 <core::fmt::Arguments::new::h41e2eee30b1621eb>:
80000230: 1141         	addi	sp, sp, -0x10
80000232: e02a         	sd	a0, 0x0(sp)
80000234: e42e         	sd	a1, 0x8(sp)
80000236: 0141         	addi	sp, sp, 0x10
80000238: 8082         	ret

000000008000023a <core::fmt::Arguments::new::h43e67dadd291747f>:
8000023a: 1141         	addi	sp, sp, -0x10
8000023c: e02a         	sd	a0, 0x0(sp)
8000023e: e42e         	sd	a1, 0x8(sp)
80000240: 0141         	addi	sp, sp, 0x10
80000242: 8082         	ret

0000000080000244 <core::fmt::Arguments::new::h503c74d2cc1a6574>:
80000244: 1141         	addi	sp, sp, -0x10
80000246: e02a         	sd	a0, 0x0(sp)
80000248: e42e         	sd	a1, 0x8(sp)
8000024a: 0141         	addi	sp, sp, 0x10
8000024c: 8082         	ret

000000008000024e <core::fmt::Arguments::new::h56943a2883a60125>:
8000024e: 1141         	addi	sp, sp, -0x10
80000250: e02a         	sd	a0, 0x0(sp)
80000252: e42e         	sd	a1, 0x8(sp)
80000254: 0141         	addi	sp, sp, 0x10
80000256: 8082         	ret

0000000080000258 <core::fmt::Arguments::new::h5f86b9d9f2d756ee>:
80000258: 1141         	addi	sp, sp, -0x10
8000025a: e02a         	sd	a0, 0x0(sp)
8000025c: e42e         	sd	a1, 0x8(sp)
8000025e: 0141         	addi	sp, sp, 0x10
80000260: 8082         	ret

0000000080000262 <core::fmt::Arguments::new::h62210381bba07ade>:
80000262: 1141         	addi	sp, sp, -0x10
80000264: e02a         	sd	a0, 0x0(sp)
80000266: e42e         	sd	a1, 0x8(sp)
80000268: 0141         	addi	sp, sp, 0x10
8000026a: 8082         	ret

000000008000026c <core::fmt::Arguments::new::h64bb69d3670b5daa>:
8000026c: 1141         	addi	sp, sp, -0x10
8000026e: e02a         	sd	a0, 0x0(sp)
80000270: e42e         	sd	a1, 0x8(sp)
80000272: 0141         	addi	sp, sp, 0x10
80000274: 8082         	ret

0000000080000276 <core::fmt::Arguments::new::h766b435eef55abd0>:
80000276: 1141         	addi	sp, sp, -0x10
80000278: e02a         	sd	a0, 0x0(sp)
8000027a: e42e         	sd	a1, 0x8(sp)
8000027c: 0141         	addi	sp, sp, 0x10
8000027e: 8082         	ret

0000000080000280 <core::fmt::Arguments::new::h810f377cfcbcc498>:
80000280: 1141         	addi	sp, sp, -0x10
80000282: e02a         	sd	a0, 0x0(sp)
80000284: e42e         	sd	a1, 0x8(sp)
80000286: 0141         	addi	sp, sp, 0x10
80000288: 8082         	ret

000000008000028a <core::fmt::Arguments::new::h8c704b6e7d85085b>:
8000028a: 1141         	addi	sp, sp, -0x10
8000028c: e02a         	sd	a0, 0x0(sp)
8000028e: e42e         	sd	a1, 0x8(sp)
80000290: 0141         	addi	sp, sp, 0x10
80000292: 8082         	ret

0000000080000294 <core::fmt::Arguments::new::hc79e36e0e9788799>:
80000294: 1141         	addi	sp, sp, -0x10
80000296: e02a         	sd	a0, 0x0(sp)
80000298: e42e         	sd	a1, 0x8(sp)
8000029a: 0141         	addi	sp, sp, 0x10
8000029c: 8082         	ret

000000008000029e <core::fmt::Arguments::new::hd796ce49db14ffb8>:
8000029e: 1141         	addi	sp, sp, -0x10
800002a0: e02a         	sd	a0, 0x0(sp)
800002a2: e42e         	sd	a1, 0x8(sp)
800002a4: 0141         	addi	sp, sp, 0x10
800002a6: 8082         	ret

00000000800002a8 <core::fmt::Arguments::new::he28bc68f45f34556>:
800002a8: 1141         	addi	sp, sp, -0x10
800002aa: e02a         	sd	a0, 0x0(sp)
800002ac: e42e         	sd	a1, 0x8(sp)
800002ae: 0141         	addi	sp, sp, 0x10
800002b0: 8082         	ret

00000000800002b2 <core::fmt::Arguments::new::he3549fc266f146cd>:
800002b2: 1141         	addi	sp, sp, -0x10
800002b4: e02a         	sd	a0, 0x0(sp)
800002b6: e42e         	sd	a1, 0x8(sp)
800002b8: 0141         	addi	sp, sp, 0x10
800002ba: 8082         	ret

00000000800002bc <core::fmt::Arguments::new::hf000f7ecc3363f91>:
800002bc: 1141         	addi	sp, sp, -0x10
800002be: e02a         	sd	a0, 0x0(sp)
800002c0: e42e         	sd	a1, 0x8(sp)
800002c2: 0141         	addi	sp, sp, 0x10
800002c4: 8082         	ret

00000000800002c6 <core::fmt::Arguments::new::hfa320c2de61af183>:
800002c6: 1141         	addi	sp, sp, -0x10
800002c8: e02a         	sd	a0, 0x0(sp)
800002ca: e42e         	sd	a1, 0x8(sp)
800002cc: 0141         	addi	sp, sp, 0x10
800002ce: 8082         	ret

00000000800002d0 <_$LT$$RF$T$u20$as$u20$core..fmt..Display$GT$::fmt::h67be464238605324>:
800002d0: 1101         	addi	sp, sp, -0x20
800002d2: ec06         	sd	ra, 0x18(sp)
800002d4: e42a         	sd	a0, 0x8(sp)
800002d6: e82e         	sd	a1, 0x10(sp)
800002d8: 6108         	ld	a0, 0x0(a0)
800002da: 00006097     	auipc	ra, 0x6
800002de: bf0080e7     	jalr	-0x410(ra) <_$LT$core..panic..panic_info..PanicInfo$u20$as$u20$core..fmt..Display$GT$::fmt::hcccb3fed5b673506>
800002e2: 60e2         	ld	ra, 0x18(sp)
800002e4: 6105         	addi	sp, sp, 0x20
800002e6: 8082         	ret

00000000800002e8 <core::str::_$LT$impl$u20$str$GT$::bytes::h3c0ba19885b844d4>:
800002e8: 1141         	addi	sp, sp, -0x10
800002ea: e02a         	sd	a0, 0x0(sp)
800002ec: e42e         	sd	a1, 0x8(sp)
800002ee: 95aa         	add	a1, a1, a0
800002f0: 0141         	addi	sp, sp, 0x10
800002f2: 8082         	ret

00000000800002f4 <core::ptr::write_bytes::precondition_check::hb7be6038ea2643e9>:
800002f4: 715d         	addi	sp, sp, -0x50
800002f6: e486         	sd	ra, 0x48(sp)
800002f8: e436         	sd	a3, 0x8(sp)
800002fa: e82a         	sd	a0, 0x10(sp)
800002fc: 86b2         	mv	a3, a2
800002fe: ec36         	sd	a3, 0x18(sp)
80000300: f02a         	sd	a0, 0x20(sp)
80000302: f42e         	sd	a1, 0x28(sp)
80000304: 02c10ba3     	sb	a2, 0x37(sp)
80000308: 00005097     	auipc	ra, 0x5
8000030c: 872080e7     	jalr	-0x78e(ra) <core::ptr::const_ptr::_$LT$impl$u20$$BP$const$u20$T$GT$::is_aligned_to::h4c8226da7274faff>
80000310: e119         	bnez	a0, 0x80000316 <core::ptr::write_bytes::precondition_check::hb7be6038ea2643e9+0x22>
80000312: a009         	j	0x80000314 <core::ptr::write_bytes::precondition_check::hb7be6038ea2643e9+0x20>
80000314: a029         	j	0x8000031e <core::ptr::write_bytes::precondition_check::hb7be6038ea2643e9+0x2a>
80000316: 6562         	ld	a0, 0x18(sp)
80000318: 8905         	andi	a0, a0, 0x1
8000031a: e50d         	bnez	a0, 0x80000344 <.Lpcrel_hi0+0x24>
8000031c: a00d         	j	0x8000033e <.Lpcrel_hi0+0x1e>
8000031e: 66a2         	ld	a3, 0x8(sp)

0000000080000320 <.Lpcrel_hi0>:
80000320: 00006517     	auipc	a0, 0x6
80000324: 56050513     	addi	a0, a0, 0x560
80000328: fc2a         	sd	a0, 0x38(sp)
8000032a: 0e400593     	li	a1, 0xe4
8000032e: e0ae         	sd	a1, 0x40(sp)
80000330: 1c900593     	li	a1, 0x1c9
80000334: 4601         	li	a2, 0x0
80000336: 00006097     	auipc	ra, 0x6
8000033a: ad6080e7     	jalr	-0x52a(ra) <core::panicking::panic_nounwind_fmt::h2e018e50a8d3bc73>
8000033e: 6542         	ld	a0, 0x10(sp)
80000340: e119         	bnez	a0, 0x80000346 <.Lpcrel_hi0+0x26>
80000342: bff1         	j	0x8000031e <core::ptr::write_bytes::precondition_check::hb7be6038ea2643e9+0x2a>
80000344: a009         	j	0x80000346 <.Lpcrel_hi0+0x26>
80000346: 60a6         	ld	ra, 0x48(sp)
80000348: 6161         	addi	sp, sp, 0x50
8000034a: 8082         	ret

000000008000034c <core::ptr::write_volatile::precondition_check::hef6e31747b89ab5e>:
8000034c: 7139         	addi	sp, sp, -0x40
8000034e: fc06         	sd	ra, 0x38(sp)
80000350: e432         	sd	a2, 0x8(sp)
80000352: e82a         	sd	a0, 0x10(sp)
80000354: ec2e         	sd	a1, 0x18(sp)
80000356: f02a         	sd	a0, 0x20(sp)
80000358: 00005097     	auipc	ra, 0x5
8000035c: 822080e7     	jalr	-0x7de(ra) <core::ptr::const_ptr::_$LT$impl$u20$$BP$const$u20$T$GT$::is_aligned_to::h4c8226da7274faff>
80000360: e115         	bnez	a0, 0x80000384 <.Lpcrel_hi1+0x1e>
80000362: a009         	j	0x80000364 <core::ptr::write_volatile::precondition_check::hef6e31747b89ab5e+0x18>
80000364: 66a2         	ld	a3, 0x8(sp)

0000000080000366 <.Lpcrel_hi1>:
80000366: 00006517     	auipc	a0, 0x6
8000036a: 5fe50513     	addi	a0, a0, 0x5fe
8000036e: f42a         	sd	a0, 0x28(sp)
80000370: 0d700593     	li	a1, 0xd7
80000374: f82e         	sd	a1, 0x30(sp)
80000376: 1af00593     	li	a1, 0x1af
8000037a: 4601         	li	a2, 0x0
8000037c: 00006097     	auipc	ra, 0x6
80000380: a90080e7     	jalr	-0x570(ra) <core::panicking::panic_nounwind_fmt::h2e018e50a8d3bc73>
80000384: 70e2         	ld	ra, 0x38(sp)
80000386: 6121         	addi	sp, sp, 0x40
80000388: 8082         	ret

000000008000038a <core::ptr::copy_nonoverlapping::precondition_check::h74df1993eb6e3834>:
8000038a: 7175         	addi	sp, sp, -0x90
8000038c: e506         	sd	ra, 0x88(sp)
8000038e: e43e         	sd	a5, 0x8(sp)
80000390: e83a         	sd	a4, 0x10(sp)
80000392: ec36         	sd	a3, 0x18(sp)
80000394: f032         	sd	a2, 0x20(sp)
80000396: f42e         	sd	a1, 0x28(sp)
80000398: f82a         	sd	a0, 0x30(sp)
8000039a: e0aa         	sd	a0, 0x40(sp)
8000039c: e4ae         	sd	a1, 0x48(sp)
8000039e: e8b2         	sd	a2, 0x50(sp)
800003a0: ecb6         	sd	a3, 0x58(sp)
800003a2: f0ba         	sd	a4, 0x60(sp)
800003a4: e711         	bnez	a4, 0x800003b0 <core::ptr::copy_nonoverlapping::precondition_check::h74df1993eb6e3834+0x26>
800003a6: a009         	j	0x800003a8 <core::ptr::copy_nonoverlapping::precondition_check::h74df1993eb6e3834+0x1e>
800003a8: 4505         	li	a0, 0x1
800003aa: 02a10fa3     	sb	a0, 0x3f(sp)
800003ae: a039         	j	0x800003bc <core::ptr::copy_nonoverlapping::precondition_check::h74df1993eb6e3834+0x32>
800003b0: 7502         	ld	a0, 0x20(sp)
800003b2: 00153513     	seqz	a0, a0
800003b6: 02a10fa3     	sb	a0, 0x3f(sp)
800003ba: a009         	j	0x800003bc <core::ptr::copy_nonoverlapping::precondition_check::h74df1993eb6e3834+0x32>
800003bc: 65e2         	ld	a1, 0x18(sp)
800003be: 7542         	ld	a0, 0x30(sp)
800003c0: 03f14603     	lbu	a2, 0x3f(sp)
800003c4: e032         	sd	a2, 0x0(sp)
800003c6: 06c107a3     	sb	a2, 0x6f(sp)
800003ca: 00004097     	auipc	ra, 0x4
800003ce: 7b0080e7     	jalr	0x7b0(ra) <core::ptr::const_ptr::_$LT$impl$u20$$BP$const$u20$T$GT$::is_aligned_to::h4c8226da7274faff>
800003d2: e119         	bnez	a0, 0x800003d8 <core::ptr::copy_nonoverlapping::precondition_check::h74df1993eb6e3834+0x4e>
800003d4: a009         	j	0x800003d6 <core::ptr::copy_nonoverlapping::precondition_check::h74df1993eb6e3834+0x4c>
800003d6: a029         	j	0x800003e0 <core::ptr::copy_nonoverlapping::precondition_check::h74df1993eb6e3834+0x56>
800003d8: 6502         	ld	a0, 0x0(sp)
800003da: 8905         	andi	a0, a0, 0x1
800003dc: e511         	bnez	a0, 0x800003e8 <core::ptr::copy_nonoverlapping::precondition_check::h74df1993eb6e3834+0x5e>
800003de: a011         	j	0x800003e2 <core::ptr::copy_nonoverlapping::precondition_check::h74df1993eb6e3834+0x58>
800003e0: a831         	j	0x800003fc <core::ptr::copy_nonoverlapping::precondition_check::h74df1993eb6e3834+0x72>
800003e2: 7542         	ld	a0, 0x30(sp)
800003e4: e119         	bnez	a0, 0x800003ea <core::ptr::copy_nonoverlapping::precondition_check::h74df1993eb6e3834+0x60>
800003e6: bfed         	j	0x800003e0 <core::ptr::copy_nonoverlapping::precondition_check::h74df1993eb6e3834+0x56>
800003e8: a009         	j	0x800003ea <core::ptr::copy_nonoverlapping::precondition_check::h74df1993eb6e3834+0x60>
800003ea: 65e2         	ld	a1, 0x18(sp)
800003ec: 7522         	ld	a0, 0x28(sp)
800003ee: f8aa         	sd	a0, 0x70(sp)
800003f0: 00004097     	auipc	ra, 0x4
800003f4: 78a080e7     	jalr	0x78a(ra) <core::ptr::const_ptr::_$LT$impl$u20$$BP$const$u20$T$GT$::is_aligned_to::h4c8226da7274faff>
800003f8: e501         	bnez	a0, 0x80000400 <core::ptr::copy_nonoverlapping::precondition_check::h74df1993eb6e3834+0x76>
800003fa: a011         	j	0x800003fe <core::ptr::copy_nonoverlapping::precondition_check::h74df1993eb6e3834+0x74>
800003fc: a035         	j	0x80000428 <core::ptr::copy_nonoverlapping::precondition_check::h74df1993eb6e3834+0x9e>
800003fe: a031         	j	0x8000040a <core::ptr::copy_nonoverlapping::precondition_check::h74df1993eb6e3834+0x80>
80000400: 03f14503     	lbu	a0, 0x3f(sp)
80000404: 8905         	andi	a0, a0, 0x1
80000406: e511         	bnez	a0, 0x80000412 <core::ptr::copy_nonoverlapping::precondition_check::h74df1993eb6e3834+0x88>
80000408: a011         	j	0x8000040c <core::ptr::copy_nonoverlapping::precondition_check::h74df1993eb6e3834+0x82>
8000040a: bfcd         	j	0x800003fc <core::ptr::copy_nonoverlapping::precondition_check::h74df1993eb6e3834+0x72>
8000040c: 7522         	ld	a0, 0x28(sp)
8000040e: e119         	bnez	a0, 0x80000414 <core::ptr::copy_nonoverlapping::precondition_check::h74df1993eb6e3834+0x8a>
80000410: bfed         	j	0x8000040a <core::ptr::copy_nonoverlapping::precondition_check::h74df1993eb6e3834+0x80>
80000412: a009         	j	0x80000414 <core::ptr::copy_nonoverlapping::precondition_check::h74df1993eb6e3834+0x8a>
80000414: 66c2         	ld	a3, 0x10(sp)
80000416: 7602         	ld	a2, 0x20(sp)
80000418: 75a2         	ld	a1, 0x28(sp)
8000041a: 7542         	ld	a0, 0x30(sp)
8000041c: 00004097     	auipc	ra, 0x4
80000420: 3a2080e7     	jalr	0x3a2(ra) <core::ub_checks::maybe_is_nonoverlapping::runtime::ha83d3b8e068fd983>
80000424: e115         	bnez	a0, 0x80000448 <.Lpcrel_hi2+0x1e>
80000426: a009         	j	0x80000428 <core::ptr::copy_nonoverlapping::precondition_check::h74df1993eb6e3834+0x9e>
80000428: 66a2         	ld	a3, 0x8(sp)

000000008000042a <.Lpcrel_hi2>:
8000042a: 00006517     	auipc	a0, 0x6
8000042e: 61150513     	addi	a0, a0, 0x611
80000432: fcaa         	sd	a0, 0x78(sp)
80000434: 11b00593     	li	a1, 0x11b
80000438: e12e         	sd	a1, 0x80(sp)
8000043a: 23700593     	li	a1, 0x237
8000043e: 4601         	li	a2, 0x0
80000440: 00006097     	auipc	ra, 0x6
80000444: 9cc080e7     	jalr	-0x634(ra) <core::panicking::panic_nounwind_fmt::h2e018e50a8d3bc73>
80000448: 60aa         	ld	ra, 0x88(sp)
8000044a: 6149         	addi	sp, sp, 0x90
8000044c: 8082         	ret

000000008000044e <_$LT$usize$u20$as$u20$core..slice..index..SliceIndex$LT$$u5b$T$u5d$$GT$$GT$::get_unchecked::precondition_check::ha1db52edf4cf906c>:
8000044e: 7179         	addi	sp, sp, -0x30
80000450: e432         	sd	a2, 0x8(sp)
80000452: e82a         	sd	a0, 0x10(sp)
80000454: ec2e         	sd	a1, 0x18(sp)
80000456: 02b56363     	bltu	a0, a1, 0x8000047c <.Lpcrel_hi0+0x1e>
8000045a: a009         	j	0x8000045c <_$LT$usize$u20$as$u20$core..slice..index..SliceIndex$LT$$u5b$T$u5d$$GT$$GT$::get_unchecked::precondition_check::ha1db52edf4cf906c+0xe>
8000045c: 66a2         	ld	a3, 0x8(sp)

000000008000045e <.Lpcrel_hi0>:
8000045e: 00006517     	auipc	a0, 0x6
80000462: 6f850513     	addi	a0, a0, 0x6f8
80000466: f02a         	sd	a0, 0x20(sp)
80000468: 0d600593     	li	a1, 0xd6
8000046c: f42e         	sd	a1, 0x28(sp)
8000046e: 1ad00593     	li	a1, 0x1ad
80000472: 4601         	li	a2, 0x0
80000474: 00006097     	auipc	ra, 0x6
80000478: 998080e7     	jalr	-0x668(ra) <core::panicking::panic_nounwind_fmt::h2e018e50a8d3bc73>
8000047c: 6145         	addi	sp, sp, 0x30
8000047e: 8082         	ret

0000000080000480 <core::array::iter::iter_inner::PolymorphicIter$LT$$u5b$core..mem..maybe_uninit..MaybeUninit$LT$T$GT$$u5d$$GT$::next::h3dae91afb2861de5>:
80000480: 7131         	addi	sp, sp, -0xc0
80000482: fd06         	sd	ra, 0xb8(sp)
80000484: ec2e         	sd	a1, 0x18(sp)
80000486: 85aa         	mv	a1, a0
80000488: 6562         	ld	a0, 0x18(sp)
8000048a: f02e         	sd	a1, 0x20(sp)
8000048c: f0ae         	sd	a1, 0x60(sp)
8000048e: f4aa         	sd	a0, 0x68(sp)
80000490: 4505         	li	a0, 0x1
80000492: f8aa         	sd	a0, 0x70(sp)
80000494: 6588         	ld	a0, 0x8(a1)
80000496: 618c         	ld	a1, 0x0(a1)
80000498: 8d0d         	sub	a0, a0, a1
8000049a: e51d         	bnez	a0, 0x800004c8 <.Lpcrel_hi0+0x26>
8000049c: a009         	j	0x8000049e <core::array::iter::iter_inner::PolymorphicIter$LT$$u5b$core..mem..maybe_uninit..MaybeUninit$LT$T$GT$$u5d$$GT$::next::h3dae91afb2861de5+0x1e>
8000049e: 6562         	ld	a0, 0x18(sp)
800004a0: 7582         	ld	a1, 0x20(sp)

00000000800004a2 <.Lpcrel_hi0>:
800004a2: 00006617     	auipc	a2, 0x6
800004a6: d4e60613     	addi	a2, a2, -0x2b2
800004aa: 6214         	ld	a3, 0x0(a2)
800004ac: 6610         	ld	a2, 0x8(a2)
800004ae: f836         	sd	a3, 0x30(sp)
800004b0: fc32         	sd	a2, 0x38(sp)
800004b2: 05c1         	addi	a1, a1, 0x10
800004b4: e0ae         	sd	a1, 0x40(sp)
800004b6: e4aa         	sd	a0, 0x48(sp)
800004b8: 6586         	ld	a1, 0x40(sp)
800004ba: 6526         	ld	a0, 0x48(sp)
800004bc: e8ae         	sd	a1, 0x50(sp)
800004be: ecaa         	sd	a0, 0x58(sp)
800004c0: 00110537     	lui	a0, 0x110
800004c4: d62a         	sw	a0, 0x2c(sp)
800004c6: a031         	j	0x800004d2 <.Lpcrel_hi0+0x30>
800004c8: 7502         	ld	a0, 0x20(sp)
800004ca: 6108         	ld	a0, 0x0(a0)
800004cc: e82a         	sd	a0, 0x10(sp)
800004ce: fcaa         	sd	a0, 0x78(sp)
800004d0: a029         	j	0x800004da <.Lpcrel_hi0+0x38>
800004d2: 5532         	lw	a0, 0x2c(sp)
800004d4: 70ea         	ld	ra, 0xb8(sp)
800004d6: 6129         	addi	sp, sp, 0xc0
800004d8: 8082         	ret
800004da: 6542         	ld	a0, 0x10(sp)

00000000800004dc <.Lpcrel_hi1>:
800004dc: 00006597     	auipc	a1, 0x6
800004e0: 75458613     	addi	a2, a1, 0x754
800004e4: 4585         	li	a1, 0x1
800004e6: 00000097     	auipc	ra, 0x0
800004ea: b72080e7     	jalr	-0x48e(ra) <core::num::_$LT$impl$u20$usize$GT$::unchecked_add::precondition_check::h64681f27f0cb7859>
800004ee: a009         	j	0x800004f0 <.Lpcrel_hi1+0x14>
800004f0: 6562         	ld	a0, 0x18(sp)
800004f2: 7582         	ld	a1, 0x20(sp)
800004f4: 6642         	ld	a2, 0x10(sp)
800004f6: 00160693     	addi	a3, a2, 0x1
800004fa: e194         	sd	a3, 0x0(a1)
800004fc: fc32         	sd	a2, 0x38(sp)
800004fe: 4605         	li	a2, 0x1
80000500: f832         	sd	a2, 0x30(sp)
80000502: 05c1         	addi	a1, a1, 0x10
80000504: e0ae         	sd	a1, 0x40(sp)
80000506: e4aa         	sd	a0, 0x48(sp)
80000508: 6586         	ld	a1, 0x40(sp)
8000050a: 6526         	ld	a0, 0x48(sp)
8000050c: e8ae         	sd	a1, 0x50(sp)
8000050e: ecaa         	sd	a0, 0x58(sp)
80000510: 7562         	ld	a0, 0x38(sp)
80000512: e42a         	sd	a0, 0x8(sp)
80000514: e12a         	sd	a0, 0x80(sp)
80000516: 6586         	ld	a1, 0x40(sp)
80000518: 6526         	ld	a0, 0x48(sp)
8000051a: e52e         	sd	a1, 0x88(sp)
8000051c: e92a         	sd	a0, 0x90(sp)
8000051e: 6586         	ld	a1, 0x40(sp)
80000520: 6526         	ld	a0, 0x48(sp)
80000522: ed2e         	sd	a1, 0x98(sp)
80000524: f12a         	sd	a0, 0xa0(sp)
80000526: a009         	j	0x80000528 <.Lpcrel_hi1+0x4c>
80000528: 6522         	ld	a0, 0x8(sp)
8000052a: 65a6         	ld	a1, 0x48(sp)

000000008000052c <.Lpcrel_hi2>:
8000052c: 00006617     	auipc	a2, 0x6
80000530: 71c60613     	addi	a2, a2, 0x71c
80000534: 00000097     	auipc	ra, 0x0
80000538: f1a080e7     	jalr	-0xe6(ra) <_$LT$usize$u20$as$u20$core..slice..index..SliceIndex$LT$$u5b$T$u5d$$GT$$GT$::get_unchecked::precondition_check::ha1db52edf4cf906c>
8000053c: a009         	j	0x8000053e <.Lpcrel_hi2+0x12>
8000053e: 65a2         	ld	a1, 0x8(sp)
80000540: 6506         	ld	a0, 0x40(sp)
80000542: 058a         	slli	a1, a1, 0x2
80000544: 952e         	add	a0, a0, a1
80000546: f52a         	sd	a0, 0xa8(sp)
80000548: f92a         	sd	a0, 0xb0(sp)
8000054a: 4108         	lw	a0, 0x0(a0)
8000054c: d62a         	sw	a0, 0x2c(sp)
8000054e: b751         	j	0x800004d2 <.Lpcrel_hi0+0x30>

0000000080000550 <_$LT$core..slice..iter..Iter$LT$T$GT$$u20$as$u20$core..iter..traits..iterator..Iterator$GT$::next::h800f8e3c0399e41d>:
80000550: 715d         	addi	sp, sp, -0x50
80000552: e42a         	sd	a0, 0x8(sp)
80000554: f42a         	sd	a0, 0x28(sp)
80000556: 4585         	li	a1, 0x1
80000558: f82e         	sd	a1, 0x30(sp)
8000055a: fc2e         	sd	a1, 0x38(sp)
8000055c: 610c         	ld	a1, 0x0(a0)
8000055e: e82e         	sd	a1, 0x10(sp)
80000560: e0ae         	sd	a1, 0x40(sp)
80000562: 6508         	ld	a0, 0x8(a0)
80000564: ec2a         	sd	a0, 0x18(sp)
80000566: e4aa         	sd	a0, 0x48(sp)
80000568: a009         	j	0x8000056a <_$LT$core..slice..iter..Iter$LT$T$GT$$u20$as$u20$core..iter..traits..iterator..Iterator$GT$::next::h800f8e3c0399e41d+0x1a>
8000056a: 6542         	ld	a0, 0x10(sp)
8000056c: 65e2         	ld	a1, 0x18(sp)
8000056e: 00b50863     	beq	a0, a1, 0x8000057e <_$LT$core..slice..iter..Iter$LT$T$GT$$u20$as$u20$core..iter..traits..iterator..Iterator$GT$::next::h800f8e3c0399e41d+0x2e>
80000572: a009         	j	0x80000574 <_$LT$core..slice..iter..Iter$LT$T$GT$$u20$as$u20$core..iter..traits..iterator..Iterator$GT$::next::h800f8e3c0399e41d+0x24>
80000574: 65a2         	ld	a1, 0x8(sp)
80000576: 6542         	ld	a0, 0x10(sp)
80000578: 0505         	addi	a0, a0, 0x1
8000057a: e188         	sd	a0, 0x0(a1)
8000057c: a021         	j	0x80000584 <_$LT$core..slice..iter..Iter$LT$T$GT$$u20$as$u20$core..iter..traits..iterator..Iterator$GT$::next::h800f8e3c0399e41d+0x34>
8000057e: 4501         	li	a0, 0x0
80000580: f02a         	sd	a0, 0x20(sp)
80000582: a039         	j	0x80000590 <_$LT$core..slice..iter..Iter$LT$T$GT$$u20$as$u20$core..iter..traits..iterator..Iterator$GT$::next::h800f8e3c0399e41d+0x40>
80000584: 6542         	ld	a0, 0x10(sp)
80000586: f02a         	sd	a0, 0x20(sp)
80000588: a009         	j	0x8000058a <_$LT$core..slice..iter..Iter$LT$T$GT$$u20$as$u20$core..iter..traits..iterator..Iterator$GT$::next::h800f8e3c0399e41d+0x3a>
8000058a: 7502         	ld	a0, 0x20(sp)
8000058c: 6161         	addi	sp, sp, 0x50
8000058e: 8082         	ret
80000590: bfed         	j	0x8000058a <_$LT$core..slice..iter..Iter$LT$T$GT$$u20$as$u20$core..iter..traits..iterator..Iterator$GT$::next::h800f8e3c0399e41d+0x3a>

0000000080000592 <core::option::Option$LT$T$GT$::unwrap_or_else::h6987c0893b58a661>:
80000592: 7179         	addi	sp, sp, -0x30
80000594: f406         	sd	ra, 0x28(sp)
80000596: e42a         	sd	a0, 0x8(sp)
80000598: e82e         	sd	a1, 0x10(sp)
8000059a: 6522         	ld	a0, 0x8(sp)
8000059c: 8905         	andi	a0, a0, 0x1
8000059e: c509         	beqz	a0, 0x800005a8 <core::option::Option$LT$T$GT$::unwrap_or_else::h6987c0893b58a661+0x16>
800005a0: a009         	j	0x800005a2 <core::option::Option$LT$T$GT$::unwrap_or_else::h6987c0893b58a661+0x10>
800005a2: 6542         	ld	a0, 0x10(sp)
800005a4: ec2a         	sd	a0, 0x18(sp)
800005a6: a039         	j	0x800005b4 <core::option::Option$LT$T$GT$::unwrap_or_else::h6987c0893b58a661+0x22>
800005a8: 00004097     	auipc	ra, 0x4
800005ac: 450080e7     	jalr	0x450(ra) <lab4_kernel_task2::handle_lazy_page_fault::_$u7b$$u7b$closure$u7d$$u7d$::he0dc969af613f2fd>
800005b0: ec2a         	sd	a0, 0x18(sp)
800005b2: a009         	j	0x800005b4 <core::option::Option$LT$T$GT$::unwrap_or_else::h6987c0893b58a661+0x22>
800005b4: 6562         	ld	a0, 0x18(sp)
800005b6: 70a2         	ld	ra, 0x28(sp)
800005b8: 6145         	addi	sp, sp, 0x30
800005ba: 8082         	ret

00000000800005bc <core::option::Option$LT$T$GT$::unwrap_or_else::ha9ec34859a4ac7b5>:
800005bc: 7179         	addi	sp, sp, -0x30
800005be: f406         	sd	ra, 0x28(sp)
800005c0: e42a         	sd	a0, 0x8(sp)
800005c2: e82e         	sd	a1, 0x10(sp)
800005c4: 6522         	ld	a0, 0x8(sp)
800005c6: 8905         	andi	a0, a0, 0x1
800005c8: c509         	beqz	a0, 0x800005d2 <core::option::Option$LT$T$GT$::unwrap_or_else::ha9ec34859a4ac7b5+0x16>
800005ca: a009         	j	0x800005cc <core::option::Option$LT$T$GT$::unwrap_or_else::ha9ec34859a4ac7b5+0x10>
800005cc: 6542         	ld	a0, 0x10(sp)
800005ce: ec2a         	sd	a0, 0x18(sp)
800005d0: a039         	j	0x800005de <core::option::Option$LT$T$GT$::unwrap_or_else::ha9ec34859a4ac7b5+0x22>
800005d2: 00004097     	auipc	ra, 0x4
800005d6: 450080e7     	jalr	0x450(ra) <lab4_kernel_task2::sys_sbrk::_$u7b$$u7b$closure$u7d$$u7d$::hcfc1ff9edc618c45>
800005da: ec2a         	sd	a0, 0x18(sp)
800005dc: a009         	j	0x800005de <core::option::Option$LT$T$GT$::unwrap_or_else::ha9ec34859a4ac7b5+0x22>
800005de: 6562         	ld	a0, 0x18(sp)
800005e0: 70a2         	ld	ra, 0x28(sp)
800005e2: 6145         	addi	sp, sp, 0x30
800005e4: 8082         	ret

00000000800005e6 <core::option::Option$LT$T$GT$::unwrap_or_else::he1e449ffb3f65818>:
800005e6: 7179         	addi	sp, sp, -0x30
800005e8: f406         	sd	ra, 0x28(sp)
800005ea: e42a         	sd	a0, 0x8(sp)
800005ec: e82e         	sd	a1, 0x10(sp)
800005ee: 6522         	ld	a0, 0x8(sp)
800005f0: 8905         	andi	a0, a0, 0x1
800005f2: c509         	beqz	a0, 0x800005fc <core::option::Option$LT$T$GT$::unwrap_or_else::he1e449ffb3f65818+0x16>
800005f4: a009         	j	0x800005f6 <core::option::Option$LT$T$GT$::unwrap_or_else::he1e449ffb3f65818+0x10>
800005f6: 6542         	ld	a0, 0x10(sp)
800005f8: ec2a         	sd	a0, 0x18(sp)
800005fa: a039         	j	0x80000608 <core::option::Option$LT$T$GT$::unwrap_or_else::he1e449ffb3f65818+0x22>
800005fc: 00004097     	auipc	ra, 0x4
80000600: 412080e7     	jalr	0x412(ra) <lab4_kernel_task2::sys_mmap::_$u7b$$u7b$closure$u7d$$u7d$::hf4fab3b45c6f9634>
80000604: ec2a         	sd	a0, 0x18(sp)
80000606: a009         	j	0x80000608 <core::option::Option$LT$T$GT$::unwrap_or_else::he1e449ffb3f65818+0x22>
80000608: 6562         	ld	a0, 0x18(sp)
8000060a: 70a2         	ld	ra, 0x28(sp)
8000060c: 6145         	addi	sp, sp, 0x30
8000060e: 8082         	ret

0000000080000610 <_$LT$core..str..iter..Bytes$u20$as$u20$core..iter..traits..iterator..Iterator$GT$::next::h5b637f0bb3a98e7f>:
80000610: 7179         	addi	sp, sp, -0x30
80000612: f406         	sd	ra, 0x28(sp)
80000614: ec2a         	sd	a0, 0x18(sp)
80000616: 00000097     	auipc	ra, 0x0
8000061a: f3a080e7     	jalr	-0xc6(ra) <_$LT$core..slice..iter..Iter$LT$T$GT$$u20$as$u20$core..iter..traits..iterator..Iterator$GT$::next::h800f8e3c0399e41d>
8000061e: e82a         	sd	a0, 0x10(sp)
80000620: 6542         	ld	a0, 0x10(sp)
80000622: cd09         	beqz	a0, 0x8000063c <.Lpcrel_hi0>
80000624: a009         	j	0x80000626 <_$LT$core..str..iter..Bytes$u20$as$u20$core..iter..traits..iterator..Iterator$GT$::next::h5b637f0bb3a98e7f+0x16>
80000626: 6542         	ld	a0, 0x10(sp)
80000628: 00054503     	lbu	a0, 0x0(a0)
8000062c: 02a103a3     	sb	a0, 0x27(sp)
80000630: 00a107a3     	sb	a0, 0xf(sp)
80000634: 4505         	li	a0, 0x1
80000636: 00a10723     	sb	a0, 0xe(sp)
8000063a: a831         	j	0x80000656 <.Lpcrel_hi0+0x1a>

000000008000063c <.Lpcrel_hi0>:
8000063c: 00006517     	auipc	a0, 0x6
80000640: 62450513     	addi	a0, a0, 0x624
80000644: 00054583     	lbu	a1, 0x0(a0)
80000648: 00154503     	lbu	a0, 0x1(a0)
8000064c: 00b10723     	sb	a1, 0xe(sp)
80000650: 00a107a3     	sb	a0, 0xf(sp)
80000654: a009         	j	0x80000656 <.Lpcrel_hi0+0x1a>
80000656: 00e14503     	lbu	a0, 0xe(sp)
8000065a: 00f14583     	lbu	a1, 0xf(sp)
8000065e: 70a2         	ld	ra, 0x28(sp)
80000660: 6145         	addi	sp, sp, 0x30
80000662: 8082         	ret

0000000080000664 <core::fmt::Write::write_char::h8d658f1c352b00cc>:
80000664: 711d         	addi	sp, sp, -0x60
80000666: ec86         	sd	ra, 0x58(sp)
80000668: e42e         	sd	a1, 0x8(sp)
8000066a: 85aa         	mv	a1, a0
8000066c: 6522         	ld	a0, 0x8(sp)
8000066e: e82e         	sd	a1, 0x10(sp)
80000670: f42e         	sd	a1, 0x28(sp)
80000672: da2a         	sw	a0, 0x34(sp)
80000674: 4581         	li	a1, 0x0
80000676: d22e         	sw	a1, 0x24(sp)
80000678: 104c         	addi	a1, sp, 0x24
8000067a: fc2e         	sd	a1, 0x38(sp)
8000067c: 4611         	li	a2, 0x4
8000067e: e0b2         	sd	a2, 0x40(sp)
80000680: 00004097     	auipc	ra, 0x4
80000684: 694080e7     	jalr	0x694(ra) <core::char::methods::encode_utf8_raw::h6ebce0ae71f04624>
80000688: 862a         	mv	a2, a0
8000068a: 6542         	ld	a0, 0x10(sp)
8000068c: ec32         	sd	a2, 0x18(sp)
8000068e: 862e         	mv	a2, a1
80000690: 65e2         	ld	a1, 0x18(sp)
80000692: e4ae         	sd	a1, 0x48(sp)
80000694: e8b2         	sd	a2, 0x50(sp)
80000696: 00000097     	auipc	ra, 0x0
8000069a: ac8080e7     	jalr	-0x538(ra) <_$LT$lab4_kernel_task2..console..KernelConsole$u20$as$u20$core..fmt..Write$GT$::write_str::h743886d79beb2f2b>
8000069e: 60e6         	ld	ra, 0x58(sp)
800006a0: 6125         	addi	sp, sp, 0x60
800006a2: 8082         	ret

00000000800006a4 <core::fmt::Write::write_fmt::h8328963948cb0a7f>:
800006a4: 1101         	addi	sp, sp, -0x20
800006a6: ec06         	sd	ra, 0x18(sp)
800006a8: e02a         	sd	a0, 0x0(sp)
800006aa: e42e         	sd	a1, 0x8(sp)
800006ac: e832         	sd	a2, 0x10(sp)
800006ae: 00000097     	auipc	ra, 0x0
800006b2: 00e080e7     	jalr	0xe(ra) <_$LT$$RF$mut$u20$W$u20$as$u20$core..fmt..Write..write_fmt..SpecWriteFmt$GT$::spec_write_fmt::hc283b49da0a68c3e>
800006b6: 60e2         	ld	ra, 0x18(sp)
800006b8: 6105         	addi	sp, sp, 0x20
800006ba: 8082         	ret

00000000800006bc <_$LT$$RF$mut$u20$W$u20$as$u20$core..fmt..Write..write_fmt..SpecWriteFmt$GT$::spec_write_fmt::hc283b49da0a68c3e>:
800006bc: 715d         	addi	sp, sp, -0x50
800006be: e486         	sd	ra, 0x48(sp)
800006c0: e02a         	sd	a0, 0x0(sp)
800006c2: e42e         	sd	a1, 0x8(sp)
800006c4: e832         	sd	a2, 0x10(sp)
800006c6: f82a         	sd	a0, 0x30(sp)
800006c8: 0028         	addi	a0, sp, 0x8
800006ca: 00004097     	auipc	ra, 0x4
800006ce: 552080e7     	jalr	0x552(ra) <core::fmt::Arguments::as_statically_known_str::hcec1384625b83a33>
800006d2: f02a         	sd	a0, 0x20(sp)
800006d4: f42e         	sd	a1, 0x28(sp)
800006d6: 7502         	ld	a0, 0x20(sp)
800006d8: cd11         	beqz	a0, 0x800006f4 <_$LT$$RF$mut$u20$W$u20$as$u20$core..fmt..Write..write_fmt..SpecWriteFmt$GT$::spec_write_fmt::hc283b49da0a68c3e+0x38>
800006da: a009         	j	0x800006dc <_$LT$$RF$mut$u20$W$u20$as$u20$core..fmt..Write..write_fmt..SpecWriteFmt$GT$::spec_write_fmt::hc283b49da0a68c3e+0x20>
800006dc: 6502         	ld	a0, 0x0(sp)
800006de: 7582         	ld	a1, 0x20(sp)
800006e0: 7622         	ld	a2, 0x28(sp)
800006e2: fc2e         	sd	a1, 0x38(sp)
800006e4: e0b2         	sd	a2, 0x40(sp)
800006e6: 00000097     	auipc	ra, 0x0
800006ea: a78080e7     	jalr	-0x588(ra) <_$LT$lab4_kernel_task2..console..KernelConsole$u20$as$u20$core..fmt..Write$GT$::write_str::h743886d79beb2f2b>
800006ee: 00a10fa3     	sb	a0, 0x1f(sp)
800006f2: a839         	j	0x80000710 <.Lpcrel_hi0+0x16>
800006f4: 6502         	ld	a0, 0x0(sp)
800006f6: 6622         	ld	a2, 0x8(sp)
800006f8: 66c2         	ld	a3, 0x10(sp)

00000000800006fa <.Lpcrel_hi0>:
800006fa: 00006597     	auipc	a1, 0x6
800006fe: 56e58593     	addi	a1, a1, 0x56e
80000702: 00005097     	auipc	ra, 0x5
80000706: e5e080e7     	jalr	-0x1a2(ra) <core::fmt::write::hfd17e9e8e823b619>
8000070a: 00a10fa3     	sb	a0, 0x1f(sp)
8000070e: a009         	j	0x80000710 <.Lpcrel_hi0+0x16>
80000710: 01f14503     	lbu	a0, 0x1f(sp)
80000714: 60a6         	ld	ra, 0x48(sp)
80000716: 6161         	addi	sp, sp, 0x50
80000718: 8082         	ret

000000008000071a <core::array::iter::_$LT$impl$u20$core..iter..traits..collect..IntoIterator$u20$for$u20$$u5b$T$u3b$$u20$N$u5d$$GT$::into_iter::hcff5b8405ed5f548>:
8000071a: 7131         	addi	sp, sp, -0xc0
8000071c: e42e         	sd	a1, 0x8(sp)
8000071e: 85aa         	mv	a1, a0
80000720: 6522         	ld	a0, 0x8(sp)
80000722: 01856683     	lwu	a3, 0x18(a0)
80000726: 01c56603     	lwu	a2, 0x1c(a0)
8000072a: 1602         	slli	a2, a2, 0x20
8000072c: 8e55         	or	a2, a2, a3
8000072e: f432         	sd	a2, 0x28(sp)
80000730: 01056683     	lwu	a3, 0x10(a0)
80000734: 01456603     	lwu	a2, 0x14(a0)
80000738: 1602         	slli	a2, a2, 0x20
8000073a: 8e55         	or	a2, a2, a3
8000073c: f032         	sd	a2, 0x20(sp)
8000073e: 00856683     	lwu	a3, 0x8(a0)
80000742: 00c56603     	lwu	a2, 0xc(a0)
80000746: 1602         	slli	a2, a2, 0x20
80000748: 8e55         	or	a2, a2, a3
8000074a: ec32         	sd	a2, 0x18(sp)
8000074c: 00056603     	lwu	a2, 0x0(a0)
80000750: 00456503     	lwu	a0, 0x4(a0)
80000754: 1502         	slli	a0, a0, 0x20
80000756: 8d51         	or	a0, a0, a2
80000758: e82a         	sd	a0, 0x10(sp)
8000075a: 4501         	li	a0, 0x0
8000075c: f82a         	sd	a0, 0x30(sp)
8000075e: 4521         	li	a0, 0x8
80000760: fc2a         	sd	a0, 0x38(sp)
80000762: 5532         	lw	a0, 0x2c(sp)
80000764: ceaa         	sw	a0, 0x5c(sp)
80000766: 5522         	lw	a0, 0x28(sp)
80000768: ccaa         	sw	a0, 0x58(sp)
8000076a: 5512         	lw	a0, 0x24(sp)
8000076c: caaa         	sw	a0, 0x54(sp)
8000076e: 5502         	lw	a0, 0x20(sp)
80000770: c8aa         	sw	a0, 0x50(sp)
80000772: 4572         	lw	a0, 0x1c(sp)
80000774: c6aa         	sw	a0, 0x4c(sp)
80000776: 4562         	lw	a0, 0x18(sp)
80000778: c4aa         	sw	a0, 0x48(sp)
8000077a: 4552         	lw	a0, 0x14(sp)
8000077c: c2aa         	sw	a0, 0x44(sp)
8000077e: 4542         	lw	a0, 0x10(sp)
80000780: c0aa         	sw	a0, 0x40(sp)
80000782: 6566         	ld	a0, 0x58(sp)
80000784: fd2a         	sd	a0, 0xb8(sp)
80000786: 6546         	ld	a0, 0x50(sp)
80000788: f92a         	sd	a0, 0xb0(sp)
8000078a: 6526         	ld	a0, 0x48(sp)
8000078c: f52a         	sd	a0, 0xa8(sp)
8000078e: 6506         	ld	a0, 0x40(sp)
80000790: f12a         	sd	a0, 0xa0(sp)
80000792: 7562         	ld	a0, 0x38(sp)
80000794: ed2a         	sd	a0, 0x98(sp)
80000796: 7542         	ld	a0, 0x30(sp)
80000798: e92a         	sd	a0, 0x90(sp)
8000079a: 756a         	ld	a0, 0xb8(sp)
8000079c: e52a         	sd	a0, 0x88(sp)
8000079e: 754a         	ld	a0, 0xb0(sp)
800007a0: e12a         	sd	a0, 0x80(sp)
800007a2: 752a         	ld	a0, 0xa8(sp)
800007a4: fcaa         	sd	a0, 0x78(sp)
800007a6: 750a         	ld	a0, 0xa0(sp)
800007a8: f8aa         	sd	a0, 0x70(sp)
800007aa: 656a         	ld	a0, 0x98(sp)
800007ac: f4aa         	sd	a0, 0x68(sp)
800007ae: 654a         	ld	a0, 0x90(sp)
800007b0: f0aa         	sd	a0, 0x60(sp)
800007b2: 652a         	ld	a0, 0x88(sp)
800007b4: f588         	sd	a0, 0x28(a1)
800007b6: 650a         	ld	a0, 0x80(sp)
800007b8: f188         	sd	a0, 0x20(a1)
800007ba: 7566         	ld	a0, 0x78(sp)
800007bc: ed88         	sd	a0, 0x18(a1)
800007be: 7546         	ld	a0, 0x70(sp)
800007c0: e988         	sd	a0, 0x10(a1)
800007c2: 7526         	ld	a0, 0x68(sp)
800007c4: e588         	sd	a0, 0x8(a1)
800007c6: 7506         	ld	a0, 0x60(sp)
800007c8: e188         	sd	a0, 0x0(a1)
800007ca: 6129         	addi	sp, sp, 0xc0
800007cc: 8082         	ret

00000000800007ce <_$LT$core..array..iter..IntoIter$LT$T$C$_$GT$$u20$as$u20$core..iter..traits..iterator..Iterator$GT$::next::h205b0bd0cd90941f>:
800007ce: 1141         	addi	sp, sp, -0x10
800007d0: e406         	sd	ra, 0x8(sp)
800007d2: e02a         	sd	a0, 0x0(sp)
800007d4: 45a1         	li	a1, 0x8
800007d6: 00000097     	auipc	ra, 0x0
800007da: caa080e7     	jalr	-0x356(ra) <core::array::iter::iter_inner::PolymorphicIter$LT$$u5b$core..mem..maybe_uninit..MaybeUninit$LT$T$GT$$u5d$$GT$::next::h3dae91afb2861de5>
800007de: 60a2         	ld	ra, 0x8(sp)
800007e0: 0141         	addi	sp, sp, 0x10
800007e2: 8082         	ret
		...

00000000800007f0 <enter_supervisor>:
800007f0: 34151073     	csrw	mepc, a0
800007f4: 300022f3     	csrr	t0, mstatus
800007f8: 430d         	li	t1, 0x3
800007fa: 032e         	slli	t1, t1, 0xb
800007fc: fff34313     	not	t1, t1
80000800: 0062f2b3     	and	t0, t0, t1
80000804: 4305         	li	t1, 0x1
80000806: 032e         	slli	t1, t1, 0xb
80000808: 0062e2b3     	or	t0, t0, t1
8000080c: 30029073     	csrw	mstatus, t0
80000810: 812e         	mv	sp, a1
80000812: 30200073     	mret

0000000080000816 <enter_user_task>:
80000816: 8faa         	mv	t6, a0
80000818: 14059073     	csrw	sscratch, a1
8000081c: 0f8fb283     	ld	t0, 0xf8(t6)
80000820: 14129073     	csrw	sepc, t0
80000824: 100022f3     	csrr	t0, sstatus
80000828: 12200313     	li	t1, 0x122
8000082c: fff34313     	not	t1, t1
80000830: 0062f2b3     	and	t0, t0, t1
80000834: 02000313     	li	t1, 0x20
80000838: 0062e2b3     	or	t0, t0, t1
8000083c: 10029073     	csrw	sstatus, t0
80000840: 000fb083     	ld	ra, 0x0(t6)
80000844: 008fb183     	ld	gp, 0x8(t6)
80000848: 010fb203     	ld	tp, 0x10(t6)
8000084c: 018fb283     	ld	t0, 0x18(t6)
80000850: 020fb303     	ld	t1, 0x20(t6)
80000854: 028fb383     	ld	t2, 0x28(t6)
80000858: 030fb403     	ld	s0, 0x30(t6)
8000085c: 038fb483     	ld	s1, 0x38(t6)
80000860: 040fb503     	ld	a0, 0x40(t6)
80000864: 048fb583     	ld	a1, 0x48(t6)
80000868: 050fb603     	ld	a2, 0x50(t6)
8000086c: 058fb683     	ld	a3, 0x58(t6)
80000870: 060fb703     	ld	a4, 0x60(t6)
80000874: 068fb783     	ld	a5, 0x68(t6)
80000878: 070fb803     	ld	a6, 0x70(t6)
8000087c: 078fb883     	ld	a7, 0x78(t6)
80000880: 080fb903     	ld	s2, 0x80(t6)
80000884: 088fb983     	ld	s3, 0x88(t6)
80000888: 090fba03     	ld	s4, 0x90(t6)
8000088c: 098fba83     	ld	s5, 0x98(t6)
80000890: 0a0fbb03     	ld	s6, 0xa0(t6)
80000894: 0a8fbb83     	ld	s7, 0xa8(t6)
80000898: 0b0fbc03     	ld	s8, 0xb0(t6)
8000089c: 0b8fbc83     	ld	s9, 0xb8(t6)
800008a0: 0c0fbd03     	ld	s10, 0xc0(t6)
800008a4: 0c8fbd83     	ld	s11, 0xc8(t6)
800008a8: 0d0fbe03     	ld	t3, 0xd0(t6)
800008ac: 0d8fbe83     	ld	t4, 0xd8(t6)
800008b0: 0e0fbf03     	ld	t5, 0xe0(t6)
800008b4: 0f0fb103     	ld	sp, 0xf0(t6)
800008b8: 0e8fbf83     	ld	t6, 0xe8(t6)
800008bc: 10200073     	sret

00000000800008c0 <machine_trap_entry>:
800008c0: 34011173     	csrrw	sp, mscratch, sp
800008c4: 7111         	addi	sp, sp, -0x100
800008c6: e006         	sd	ra, 0x0(sp)
800008c8: e40e         	sd	gp, 0x8(sp)
800008ca: e812         	sd	tp, 0x10(sp)
800008cc: ec16         	sd	t0, 0x18(sp)
800008ce: f01a         	sd	t1, 0x20(sp)
800008d0: f41e         	sd	t2, 0x28(sp)
800008d2: f822         	sd	s0, 0x30(sp)
800008d4: fc26         	sd	s1, 0x38(sp)
800008d6: e0aa         	sd	a0, 0x40(sp)
800008d8: e4ae         	sd	a1, 0x48(sp)
800008da: e8b2         	sd	a2, 0x50(sp)
800008dc: ecb6         	sd	a3, 0x58(sp)
800008de: f0ba         	sd	a4, 0x60(sp)
800008e0: f4be         	sd	a5, 0x68(sp)
800008e2: f8c2         	sd	a6, 0x70(sp)
800008e4: fcc6         	sd	a7, 0x78(sp)
800008e6: e14a         	sd	s2, 0x80(sp)
800008e8: e54e         	sd	s3, 0x88(sp)
800008ea: e952         	sd	s4, 0x90(sp)
800008ec: ed56         	sd	s5, 0x98(sp)
800008ee: f15a         	sd	s6, 0xa0(sp)
800008f0: f55e         	sd	s7, 0xa8(sp)
800008f2: f962         	sd	s8, 0xb0(sp)
800008f4: fd66         	sd	s9, 0xb8(sp)
800008f6: e1ea         	sd	s10, 0xc0(sp)
800008f8: e5ee         	sd	s11, 0xc8(sp)
800008fa: e9f2         	sd	t3, 0xd0(sp)
800008fc: edf6         	sd	t4, 0xd8(sp)
800008fe: f1fa         	sd	t5, 0xe0(sp)
80000900: f5fe         	sd	t6, 0xe8(sp)
80000902: 340022f3     	csrr	t0, mscratch
80000906: f996         	sd	t0, 0xf0(sp)
80000908: 341022f3     	csrr	t0, mepc
8000090c: fd96         	sd	t0, 0xf8(sp)
8000090e: 850a         	mv	a0, sp
80000910: 00004097     	auipc	ra, 0x4
80000914: 930080e7     	jalr	-0x6d0(ra) <handle_machine_trap>
80000918: 72ee         	ld	t0, 0xf8(sp)
8000091a: 34129073     	csrw	mepc, t0
8000091e: 72ce         	ld	t0, 0xf0(sp)
80000920: 34029073     	csrw	mscratch, t0
80000924: 6082         	ld	ra, 0x0(sp)
80000926: 61a2         	ld	gp, 0x8(sp)
80000928: 6242         	ld	tp, 0x10(sp)
8000092a: 62e2         	ld	t0, 0x18(sp)
8000092c: 7302         	ld	t1, 0x20(sp)
8000092e: 73a2         	ld	t2, 0x28(sp)
80000930: 7442         	ld	s0, 0x30(sp)
80000932: 74e2         	ld	s1, 0x38(sp)
80000934: 6506         	ld	a0, 0x40(sp)
80000936: 65a6         	ld	a1, 0x48(sp)
80000938: 6646         	ld	a2, 0x50(sp)
8000093a: 66e6         	ld	a3, 0x58(sp)
8000093c: 7706         	ld	a4, 0x60(sp)
8000093e: 77a6         	ld	a5, 0x68(sp)
80000940: 7846         	ld	a6, 0x70(sp)
80000942: 78e6         	ld	a7, 0x78(sp)
80000944: 690a         	ld	s2, 0x80(sp)
80000946: 69aa         	ld	s3, 0x88(sp)
80000948: 6a4a         	ld	s4, 0x90(sp)
8000094a: 6aea         	ld	s5, 0x98(sp)
8000094c: 7b0a         	ld	s6, 0xa0(sp)
8000094e: 7baa         	ld	s7, 0xa8(sp)
80000950: 7c4a         	ld	s8, 0xb0(sp)
80000952: 7cea         	ld	s9, 0xb8(sp)
80000954: 6d0e         	ld	s10, 0xc0(sp)
80000956: 6dae         	ld	s11, 0xc8(sp)
80000958: 6e4e         	ld	t3, 0xd0(sp)
8000095a: 6eee         	ld	t4, 0xd8(sp)
8000095c: 7f0e         	ld	t5, 0xe0(sp)
8000095e: 7fae         	ld	t6, 0xe8(sp)
80000960: 6111         	addi	sp, sp, 0x100
80000962: 34011173     	csrrw	sp, mscratch, sp
80000966: 30200073     	mret
8000096a: 0001         	nop
8000096c: 00000013     	nop

0000000080000970 <supervisor_trap_entry>:
80000970: 14011173     	csrrw	sp, sscratch, sp
80000974: 7111         	addi	sp, sp, -0x100
80000976: e006         	sd	ra, 0x0(sp)
80000978: e40e         	sd	gp, 0x8(sp)
8000097a: e812         	sd	tp, 0x10(sp)
8000097c: ec16         	sd	t0, 0x18(sp)
8000097e: f01a         	sd	t1, 0x20(sp)
80000980: f41e         	sd	t2, 0x28(sp)
80000982: f822         	sd	s0, 0x30(sp)
80000984: fc26         	sd	s1, 0x38(sp)
80000986: e0aa         	sd	a0, 0x40(sp)
80000988: e4ae         	sd	a1, 0x48(sp)
8000098a: e8b2         	sd	a2, 0x50(sp)
8000098c: ecb6         	sd	a3, 0x58(sp)
8000098e: f0ba         	sd	a4, 0x60(sp)
80000990: f4be         	sd	a5, 0x68(sp)
80000992: f8c2         	sd	a6, 0x70(sp)
80000994: fcc6         	sd	a7, 0x78(sp)
80000996: e14a         	sd	s2, 0x80(sp)
80000998: e54e         	sd	s3, 0x88(sp)
8000099a: e952         	sd	s4, 0x90(sp)
8000099c: ed56         	sd	s5, 0x98(sp)
8000099e: f15a         	sd	s6, 0xa0(sp)
800009a0: f55e         	sd	s7, 0xa8(sp)
800009a2: f962         	sd	s8, 0xb0(sp)
800009a4: fd66         	sd	s9, 0xb8(sp)
800009a6: e1ea         	sd	s10, 0xc0(sp)
800009a8: e5ee         	sd	s11, 0xc8(sp)
800009aa: e9f2         	sd	t3, 0xd0(sp)
800009ac: edf6         	sd	t4, 0xd8(sp)
800009ae: f1fa         	sd	t5, 0xe0(sp)
800009b0: f5fe         	sd	t6, 0xe8(sp)
800009b2: 140022f3     	csrr	t0, sscratch
800009b6: f996         	sd	t0, 0xf0(sp)
800009b8: 141022f3     	csrr	t0, sepc
800009bc: fd96         	sd	t0, 0xf8(sp)
800009be: 850a         	mv	a0, sp
800009c0: 00004097     	auipc	ra, 0x4
800009c4: 914080e7     	jalr	-0x6ec(ra) <handle_supervisor_trap>
800009c8: 72ee         	ld	t0, 0xf8(sp)
800009ca: 14129073     	csrw	sepc, t0
800009ce: 72ce         	ld	t0, 0xf0(sp)
800009d0: 14029073     	csrw	sscratch, t0
800009d4: 6082         	ld	ra, 0x0(sp)
800009d6: 61a2         	ld	gp, 0x8(sp)
800009d8: 6242         	ld	tp, 0x10(sp)
800009da: 62e2         	ld	t0, 0x18(sp)
800009dc: 7302         	ld	t1, 0x20(sp)
800009de: 73a2         	ld	t2, 0x28(sp)
800009e0: 7442         	ld	s0, 0x30(sp)
800009e2: 74e2         	ld	s1, 0x38(sp)
800009e4: 6506         	ld	a0, 0x40(sp)
800009e6: 65a6         	ld	a1, 0x48(sp)
800009e8: 6646         	ld	a2, 0x50(sp)
800009ea: 66e6         	ld	a3, 0x58(sp)
800009ec: 7706         	ld	a4, 0x60(sp)
800009ee: 77a6         	ld	a5, 0x68(sp)
800009f0: 7846         	ld	a6, 0x70(sp)
800009f2: 78e6         	ld	a7, 0x78(sp)
800009f4: 690a         	ld	s2, 0x80(sp)
800009f6: 69aa         	ld	s3, 0x88(sp)
800009f8: 6a4a         	ld	s4, 0x90(sp)
800009fa: 6aea         	ld	s5, 0x98(sp)
800009fc: 7b0a         	ld	s6, 0xa0(sp)
800009fe: 7baa         	ld	s7, 0xa8(sp)
80000a00: 7c4a         	ld	s8, 0xb0(sp)
80000a02: 7cea         	ld	s9, 0xb8(sp)
80000a04: 6d0e         	ld	s10, 0xc0(sp)
80000a06: 6dae         	ld	s11, 0xc8(sp)
80000a08: 6e4e         	ld	t3, 0xd0(sp)
80000a0a: 6eee         	ld	t4, 0xd8(sp)
80000a0c: 7f0e         	ld	t5, 0xe0(sp)
80000a0e: 7fae         	ld	t6, 0xe8(sp)
80000a10: 6111         	addi	sp, sp, 0x100
80000a12: 14011173     	csrrw	sp, sscratch, sp
80000a16: 10200073     	sret
80000a1a: 0001         	nop
80000a1c: 00000013     	nop

0000000080000a20 <__user_program_start>:
80000a20: 00401437     	lui	s0, 0x401
80000a24: 6509         	lui	a0, 0x2
80000a26: 4885         	li	a7, 0x1
80000a28: 00000073     	ecall
80000a2c: 84aa         	mv	s1, a0
80000a2e: e404         	sd	s1, 0x8(s0)
80000a30: 6509         	lui	a0, 0x2
80000a32: 4889         	li	a7, 0x2
80000a34: 00000073     	ecall
80000a38: 892a         	mv	s2, a0
80000a3a: 01243823     	sd	s2, 0x10(s0)
80000a3e: 004442b7     	lui	t0, 0x444
80000a42: 48928293     	addi	t0, t0, 0x489
80000a46: 02b2         	slli	t0, t0, 0xc
80000a48: 88d28293     	addi	t0, t0, -0x773
80000a4c: 02b2         	slli	t0, t0, 0xc
80000a4e: ccd28293     	addi	t0, t0, -0x333
80000a52: 02ba         	slli	t0, t0, 0xe
80000a54: 44428293     	addi	t0, t0, 0x444
80000a58: 00543023     	sd	t0, 0x0(s0)
80000a5c: 00444337     	lui	t1, 0x444
80000a60: 48930313     	addi	t1, t1, 0x489
80000a64: 0332         	slli	t1, t1, 0xc
80000a66: 88d30313     	addi	t1, t1, -0x773
80000a6a: 0332         	slli	t1, t1, 0xc
80000a6c: ccd30313     	addi	t1, t1, -0x333
80000a70: 033a         	slli	t1, t1, 0xe
80000a72: 44430313     	addi	t1, t1, 0x444
80000a76: 0064b023     	sd	t1, 0x0(s1)
80000a7a: 0004b383     	ld	t2, 0x0(s1)
80000a7e: 00743c23     	sd	t2, 0x18(s0)
80000a82: 6e05         	lui	t3, 0x1
80000a84: 01c48eb3     	add	t4, s1, t3
80000a88: 02aabf37     	lui	t5, 0x2aab
80000a8c: b33f0f13     	addi	t5, t5, -0x4cd
80000a90: 0f36         	slli	t5, t5, 0xd
80000a92: 677f0f13     	addi	t5, t5, 0x677
80000a96: 0f32         	slli	t5, t5, 0xc
80000a98: 779f0f13     	addi	t5, t5, 0x779
80000a9c: 0f32         	slli	t5, t5, 0xc
80000a9e: 888f0f13     	addi	t5, t5, -0x778
80000aa2: 01eeb023     	sd	t5, 0x0(t4)
80000aa6: 000ebf83     	ld	t6, 0x0(t4)
80000aaa: 03f43023     	sd	t6, 0x20(s0)
80000aae: 00093303     	ld	t1, 0x0(s2)
80000ab2: 02643423     	sd	t1, 0x28(s0)
80000ab6: fe6663b7     	lui	t2, 0xfe666
80000aba: 6ab38393     	addi	t2, t2, 0x6ab
80000abe: 03b2         	slli	t2, t2, 0xc
80000ac0: aaf38393     	addi	t2, t2, -0x551
80000ac4: 03ba         	slli	t2, t2, 0xe
80000ac6: bbd38393     	addi	t2, t2, -0x443
80000aca: 03b2         	slli	t2, t2, 0xc
80000acc: ccc38393     	addi	t2, t2, -0x334
80000ad0: 00793023     	sd	t2, 0x0(s2)
80000ad4: 00093e03     	ld	t3, 0x0(s2)
80000ad8: 03c43823     	sd	t3, 0x30(s0)
80000adc: 6e85         	lui	t4, 0x1
80000ade: 01d90f33     	add	t5, s2, t4
80000ae2: 000f3f83     	ld	t6, 0x0(t5)
80000ae6: 03f43c23     	sd	t6, 0x38(s0)
80000aea: ddddf5b7     	lui	a1, 0xddddf
80000aee: eef58593     	addi	a1, a1, -0x111
80000af2: 05c2         	slli	a1, a1, 0x10
80000af4: 15fd         	addi	a1, a1, -0x1
80000af6: 05c2         	slli	a1, a1, 0x10
80000af8: 0585         	addi	a1, a1, 0x1
80000afa: 00bf3023     	sd	a1, 0x0(t5)
80000afe: 000f3603     	ld	a2, 0x0(t5)
80000b02: e030         	sd	a2, 0x40(s0)
80000b04: 02aab2b7     	lui	t0, 0x2aab
80000b08: b3328293     	addi	t0, t0, -0x4cd
80000b0c: 02b6         	slli	t0, t0, 0xd
80000b0e: 67728293     	addi	t0, t0, 0x677
80000b12: 02b2         	slli	t0, t0, 0xc
80000b14: 77928293     	addi	t0, t0, 0x779
80000b18: 02b2         	slli	t0, t0, 0xc
80000b1a: 88828293     	addi	t0, t0, -0x778
80000b1e: 00543023     	sd	t0, 0x0(s0)
80000b22: 4501         	li	a0, 0x0
80000b24: 488d         	li	a7, 0x3
80000b26: 00000073     	ecall
80000b2a: a001         	j	0x80000b2a <__user_program_start+0x10a>

0000000080000b2c <__user_program_end>:
80000b2c: 7139         	addi	sp, sp, -0x40
80000b2e: fc06         	sd	ra, 0x38(sp)
80000b30: e42a         	sd	a0, 0x8(sp)
80000b32: 002c         	addi	a1, sp, 0x8
80000b34: f82e         	sd	a1, 0x30(sp)
80000b36: 1008         	addi	a0, sp, 0x20
80000b38: 00004097     	auipc	ra, 0x4
80000b3c: d9a080e7     	jalr	-0x266(ra) <core::fmt::rt::Argument::new_display::ha91086b5e2ab1d77>
80000b40: 7522         	ld	a0, 0x28(sp)
80000b42: ec2a         	sd	a0, 0x18(sp)
80000b44: 7502         	ld	a0, 0x20(sp)
80000b46: e82a         	sd	a0, 0x10(sp)

0000000080000b48 <.Lpcrel_hi1>:
80000b48: 00005517     	auipc	a0, 0x5
80000b4c: 7f150513     	addi	a0, a0, 0x7f1
80000b50: 080c         	addi	a1, sp, 0x10
80000b52: fffff097     	auipc	ra, 0xfffff
80000b56: 71a080e7     	jalr	0x71a(ra) <core::fmt::Arguments::new::h64bb69d3670b5daa>
80000b5a: fffff097     	auipc	ra, 0xfffff
80000b5e: 5e6080e7     	jalr	0x5e6(ra) <lab4_kernel_task2::console::print::h7473f0160e01bbb6>
80000b62: 4505         	li	a0, 0x1
80000b64: 00003097     	auipc	ra, 0x3
80000b68: 488080e7     	jalr	0x488(ra) <lab4_kernel_task2::qemu_exit::h515f7665dae94ac6>

0000000080000b6c <lab4_kernel_task2::WalkResult::zeroed::hdd706722112c0447>:
80000b6c: 85aa         	mv	a1, a0
80000b6e: 4501         	li	a0, 0x0
80000b70: e188         	sd	a0, 0x0(a1)
80000b72: e588         	sd	a0, 0x8(a1)
80000b74: e988         	sd	a0, 0x10(a1)
80000b76: ed88         	sd	a0, 0x18(a1)
80000b78: f188         	sd	a0, 0x20(a1)
80000b7a: f588         	sd	a0, 0x28(a1)
80000b7c: 567d         	li	a2, -0x1
80000b7e: f990         	sd	a2, 0x30(a1)
80000b80: fd88         	sd	a0, 0x38(a1)
80000b82: 8082         	ret

0000000080000b84 <lab4_kernel_task2::align_down::h133e2bccb731ca32>:
80000b84: 1101         	addi	sp, sp, -0x20
80000b86: e02a         	sd	a0, 0x0(sp)
80000b88: e82a         	sd	a0, 0x10(sp)
80000b8a: ec2e         	sd	a1, 0x18(sp)
80000b8c: fff58513     	addi	a0, a1, -0x1
80000b90: e42a         	sd	a0, 0x8(sp)
80000b92: c989         	beqz	a1, 0x80000ba4 <.Lpcrel_hi2>
80000b94: a009         	j	0x80000b96 <lab4_kernel_task2::align_down::h133e2bccb731ca32+0x12>
80000b96: 6502         	ld	a0, 0x0(sp)
80000b98: 65a2         	ld	a1, 0x8(sp)
80000b9a: fff5c593     	not	a1, a1
80000b9e: 8d6d         	and	a0, a0, a1
80000ba0: 6105         	addi	sp, sp, 0x20
80000ba2: 8082         	ret

0000000080000ba4 <.Lpcrel_hi2>:
80000ba4: 00006517     	auipc	a0, 0x6
80000ba8: 14c50513     	addi	a0, a0, 0x14c
80000bac: 00005097     	auipc	ra, 0x5
80000bb0: 1e8080e7     	jalr	0x1e8(ra) <core::panicking::panic_const::panic_const_sub_overflow::hccc965ba9198de7c>

0000000080000bb4 <lab4_kernel_task2::insert_vma::h8dc2d962862ec90e>:
80000bb4: 7155         	addi	sp, sp, -0xd0
80000bb6: e586         	sd	ra, 0xc8(sp)
80000bb8: f436         	sd	a3, 0x28(sp)
80000bba: f832         	sd	a2, 0x30(sp)
80000bbc: fc2e         	sd	a1, 0x38(sp)
80000bbe: e0aa         	sd	a0, 0x40(sp)
80000bc0: f12a         	sd	a0, 0xa0(sp)
80000bc2: f52e         	sd	a1, 0xa8(sp)
80000bc4: f932         	sd	a2, 0xb0(sp)
80000bc6: fd36         	sd	a3, 0xb8(sp)
80000bc8: 4501         	li	a0, 0x0
80000bca: 4591         	li	a1, 0x4
80000bcc: 00004097     	auipc	ra, 0x4
80000bd0: dd2080e7     	jalr	-0x22e(ra) <_$LT$I$u20$as$u20$core..iter..traits..collect..IntoIterator$GT$::into_iter::h1fc85f52cf5a3515>
80000bd4: e4aa         	sd	a0, 0x48(sp)
80000bd6: e8ae         	sd	a1, 0x50(sp)
80000bd8: a009         	j	0x80000bda <lab4_kernel_task2::insert_vma::h8dc2d962862ec90e+0x26>
80000bda: 00a8         	addi	a0, sp, 0x48
80000bdc: 00004097     	auipc	ra, 0x4
80000be0: dae080e7     	jalr	-0x252(ra) <core::iter::range::_$LT$impl$u20$core..iter..traits..iterator..Iterator$u20$for$u20$core..ops..range..Range$LT$A$GT$$GT$::next::h1cbf565076fd6def>
80000be4: ecaa         	sd	a0, 0x58(sp)
80000be6: f0ae         	sd	a1, 0x60(sp)
80000be8: 6566         	ld	a0, 0x58(sp)
80000bea: 8905         	andi	a0, a0, 0x1
80000bec: c919         	beqz	a0, 0x80000c02 <.Lpcrel_hi3>
80000bee: a009         	j	0x80000bf0 <lab4_kernel_task2::insert_vma::h8dc2d962862ec90e+0x3c>
80000bf0: 7506         	ld	a0, 0x60(sp)
80000bf2: ec2a         	sd	a0, 0x18(sp)
80000bf4: e1aa         	sd	a0, 0xc0(sp)
80000bf6: 4591         	li	a1, 0x4
80000bf8: 862a         	mv	a2, a0
80000bfa: f032         	sd	a2, 0x20(sp)
80000bfc: 00b56c63     	bltu	a0, a1, 0x80000c14 <.Lpcrel_hi4>
80000c00: a005         	j	0x80000c20 <.Lpcrel_hi4+0xc>

0000000080000c02 <.Lpcrel_hi3>:
80000c02: 00005517     	auipc	a0, 0x5
80000c06: 5de50513     	addi	a0, a0, 0x5de
80000c0a: 45c1         	li	a1, 0x10
80000c0c: 00000097     	auipc	ra, 0x0
80000c10: 68e080e7     	jalr	0x68e(ra) <lab4_kernel_task2::kernel_fail::h81ee1edb0feee17d>

0000000080000c14 <.Lpcrel_hi4>:
80000c14: 00022517     	auipc	a0, 0x22
80000c18: 3ec50513     	addi	a0, a0, 0x3ec
80000c1c: ed01         	bnez	a0, 0x80000c34 <.Lpcrel_hi5+0x12>
80000c1e: a82d         	j	0x80000c58 <.Lpcrel_hi7>
80000c20: 7502         	ld	a0, 0x20(sp)

0000000080000c22 <.Lpcrel_hi5>:
80000c22: 00006597     	auipc	a1, 0x6
80000c26: 0e658613     	addi	a2, a1, 0xe6
80000c2a: 4591         	li	a1, 0x4
80000c2c: 00005097     	auipc	ra, 0x5
80000c30: 1a4080e7     	jalr	0x1a4(ra) <core::panicking::panic_bounds_check::h6aaee0d15e0261eb>
80000c34: 65e2         	ld	a1, 0x18(sp)
80000c36: 00359613     	slli	a2, a1, 0x3
80000c3a: 00659513     	slli	a0, a1, 0x6
80000c3e: 40c50633     	sub	a2, a0, a2

0000000080000c42 <.Lpcrel_hi6>:
80000c42: 00022517     	auipc	a0, 0x22
80000c46: 3be50513     	addi	a0, a0, 0x3be
80000c4a: 9532         	add	a0, a0, a2
80000c4c: 03054503     	lbu	a0, 0x30(a0)
80000c50: 8905         	andi	a0, a0, 0x1
80000c52: e82e         	sd	a1, 0x10(sp)
80000c54: f159         	bnez	a0, 0x80000bda <lab4_kernel_task2::insert_vma::h8dc2d962862ec90e+0x26>
80000c56: a809         	j	0x80000c68 <.Lpcrel_hi7+0x10>

0000000080000c58 <.Lpcrel_hi7>:
80000c58: 00006517     	auipc	a0, 0x6
80000c5c: 0b050513     	addi	a0, a0, 0xb0
80000c60: 00005097     	auipc	ra, 0x5
80000c64: 1dc080e7     	jalr	0x1dc(ra) <core::panicking::panic_null_pointer_dereference::hbac6411af4f2e916>
80000c68: 7522         	ld	a0, 0x28(sp)
80000c6a: 7642         	ld	a2, 0x30(sp)
80000c6c: 76e2         	ld	a3, 0x38(sp)
80000c6e: 6706         	ld	a4, 0x40(sp)
80000c70: 65c2         	ld	a1, 0x10(sp)
80000c72: e42e         	sd	a1, 0x8(sp)
80000c74: 4785         	li	a5, 0x1
80000c76: 08f10c23     	sb	a5, 0x98(sp)
80000c7a: f4ba         	sd	a4, 0x68(sp)
80000c7c: f8b6         	sd	a3, 0x70(sp)
80000c7e: fcb2         	sd	a2, 0x78(sp)
80000c80: e12a         	sd	a0, 0x80(sp)
80000c82: 4501         	li	a0, 0x0
80000c84: e52a         	sd	a0, 0x88(sp)
80000c86: e92a         	sd	a0, 0x90(sp)
80000c88: 450d         	li	a0, 0x3
80000c8a: 00b56963     	bltu	a0, a1, 0x80000c9c <.Lpcrel_hi8+0xc>
80000c8e: a009         	j	0x80000c90 <.Lpcrel_hi8>

0000000080000c90 <.Lpcrel_hi8>:
80000c90: 00022517     	auipc	a0, 0x22
80000c94: 37050513     	addi	a0, a0, 0x370
80000c98: ed01         	bnez	a0, 0x80000cb0 <.Lpcrel_hi9+0x12>
80000c9a: a0b9         	j	0x80000ce8 <.Lpcrel_hi11>
80000c9c: 6522         	ld	a0, 0x8(sp)

0000000080000c9e <.Lpcrel_hi9>:
80000c9e: 00006597     	auipc	a1, 0x6
80000ca2: 08258613     	addi	a2, a1, 0x82
80000ca6: 4591         	li	a1, 0x4
80000ca8: 00005097     	auipc	ra, 0x5
80000cac: 128080e7     	jalr	0x128(ra) <core::panicking::panic_bounds_check::h6aaee0d15e0261eb>
80000cb0: 6522         	ld	a0, 0x8(sp)
80000cb2: 00351593     	slli	a1, a0, 0x3
80000cb6: 051a         	slli	a0, a0, 0x6
80000cb8: 40b505b3     	sub	a1, a0, a1

0000000080000cbc <.Lpcrel_hi10>:
80000cbc: 00022517     	auipc	a0, 0x22
80000cc0: 34450513     	addi	a0, a0, 0x344
80000cc4: 95aa         	add	a1, a1, a0
80000cc6: 656a         	ld	a0, 0x98(sp)
80000cc8: f988         	sd	a0, 0x30(a1)
80000cca: 654a         	ld	a0, 0x90(sp)
80000ccc: f588         	sd	a0, 0x28(a1)
80000cce: 652a         	ld	a0, 0x88(sp)
80000cd0: f188         	sd	a0, 0x20(a1)
80000cd2: 650a         	ld	a0, 0x80(sp)
80000cd4: ed88         	sd	a0, 0x18(a1)
80000cd6: 7566         	ld	a0, 0x78(sp)
80000cd8: e988         	sd	a0, 0x10(a1)
80000cda: 7546         	ld	a0, 0x70(sp)
80000cdc: e588         	sd	a0, 0x8(a1)
80000cde: 7526         	ld	a0, 0x68(sp)
80000ce0: e188         	sd	a0, 0x0(a1)
80000ce2: 60ae         	ld	ra, 0xc8(sp)
80000ce4: 6169         	addi	sp, sp, 0xd0
80000ce6: 8082         	ret

0000000080000ce8 <.Lpcrel_hi11>:
80000ce8: 00006517     	auipc	a0, 0x6
80000cec: 03850513     	addi	a0, a0, 0x38
80000cf0: 00005097     	auipc	ra, 0x5
80000cf4: 14c080e7     	jalr	0x14c(ra) <core::panicking::panic_null_pointer_dereference::hbac6411af4f2e916>

0000000080000cf8 <lab4_kernel_task2::print_vmas::hd16bf6c74a53f911>:
80000cf8: 7161         	addi	sp, sp, -0x1b0
80000cfa: f706         	sd	ra, 0x1a8(sp)
80000cfc: 4501         	li	a0, 0x0
80000cfe: 4591         	li	a1, 0x4
80000d00: 00004097     	auipc	ra, 0x4
80000d04: c9e080e7     	jalr	-0x362(ra) <_$LT$I$u20$as$u20$core..iter..traits..collect..IntoIterator$GT$::into_iter::h1fc85f52cf5a3515>
80000d08: e82a         	sd	a0, 0x10(sp)
80000d0a: ec2e         	sd	a1, 0x18(sp)
80000d0c: a009         	j	0x80000d0e <lab4_kernel_task2::print_vmas::hd16bf6c74a53f911+0x16>
80000d0e: 0808         	addi	a0, sp, 0x10
80000d10: 00004097     	auipc	ra, 0x4
80000d14: c7a080e7     	jalr	-0x386(ra) <core::iter::range::_$LT$impl$u20$core..iter..traits..iterator..Iterator$u20$for$u20$core..ops..range..Range$LT$A$GT$$GT$::next::h1cbf565076fd6def>
80000d18: f02a         	sd	a0, 0x20(sp)
80000d1a: f42e         	sd	a1, 0x28(sp)
80000d1c: 7502         	ld	a0, 0x20(sp)
80000d1e: 8905         	andi	a0, a0, 0x1
80000d20: c909         	beqz	a0, 0x80000d32 <lab4_kernel_task2::print_vmas::hd16bf6c74a53f911+0x3a>
80000d22: a009         	j	0x80000d24 <lab4_kernel_task2::print_vmas::hd16bf6c74a53f911+0x2c>
80000d24: 7522         	ld	a0, 0x28(sp)
80000d26: f82a         	sd	a0, 0x30(sp)
80000d28: 7542         	ld	a0, 0x30(sp)
80000d2a: 4591         	li	a1, 0x4
80000d2c: 00b56663     	bltu	a0, a1, 0x80000d38 <.Lpcrel_hi12>
80000d30: a811         	j	0x80000d44 <.Lpcrel_hi12+0xc>
80000d32: 70ba         	ld	ra, 0x1a8(sp)
80000d34: 615d         	addi	sp, sp, 0x1b0
80000d36: 8082         	ret

0000000080000d38 <.Lpcrel_hi12>:
80000d38: 00022517     	auipc	a0, 0x22
80000d3c: 2c850513     	addi	a0, a0, 0x2c8
80000d40: ed01         	bnez	a0, 0x80000d58 <.Lpcrel_hi13+0x12>
80000d42: a891         	j	0x80000d96 <.Lpcrel_hi15>
80000d44: 7542         	ld	a0, 0x30(sp)

0000000080000d46 <.Lpcrel_hi13>:
80000d46: 00006597     	auipc	a1, 0x6
80000d4a: ff258613     	addi	a2, a1, -0xe
80000d4e: 4591         	li	a1, 0x4
80000d50: 00005097     	auipc	ra, 0x5
80000d54: 080080e7     	jalr	0x80(ra) <core::panicking::panic_bounds_check::h6aaee0d15e0261eb>
80000d58: 7542         	ld	a0, 0x30(sp)
80000d5a: 00351593     	slli	a1, a0, 0x3
80000d5e: 051a         	slli	a0, a0, 0x6
80000d60: 40b505b3     	sub	a1, a0, a1

0000000080000d64 <.Lpcrel_hi14>:
80000d64: 00022517     	auipc	a0, 0x22
80000d68: 29c50513     	addi	a0, a0, 0x29c
80000d6c: 952e         	add	a0, a0, a1
80000d6e: 790c         	ld	a1, 0x30(a0)
80000d70: f4ae         	sd	a1, 0x68(sp)
80000d72: 750c         	ld	a1, 0x28(a0)
80000d74: f0ae         	sd	a1, 0x60(sp)
80000d76: 710c         	ld	a1, 0x20(a0)
80000d78: ecae         	sd	a1, 0x58(sp)
80000d7a: 6d0c         	ld	a1, 0x18(a0)
80000d7c: e8ae         	sd	a1, 0x50(sp)
80000d7e: 690c         	ld	a1, 0x10(a0)
80000d80: e4ae         	sd	a1, 0x48(sp)
80000d82: 650c         	ld	a1, 0x8(a0)
80000d84: e0ae         	sd	a1, 0x40(sp)
80000d86: 6108         	ld	a0, 0x0(a0)
80000d88: fc2a         	sd	a0, 0x38(sp)
80000d8a: 06814503     	lbu	a0, 0x68(sp)
80000d8e: 8905         	andi	a0, a0, 0x1
80000d90: e919         	bnez	a0, 0x80000da6 <.Lpcrel_hi15+0x10>
80000d92: a009         	j	0x80000d94 <.Lpcrel_hi14+0x30>
80000d94: bfad         	j	0x80000d0e <lab4_kernel_task2::print_vmas::hd16bf6c74a53f911+0x16>

0000000080000d96 <.Lpcrel_hi15>:
80000d96: 00006517     	auipc	a0, 0x6
80000d9a: fa250513     	addi	a0, a0, -0x5e
80000d9e: 00005097     	auipc	ra, 0x5
80000da2: 09e080e7     	jalr	0x9e(ra) <core::panicking::panic_null_pointer_dereference::hbac6411af4f2e916>
80000da6: 6546         	ld	a0, 0x50(sp)
80000da8: 00001097     	auipc	ra, 0x1
80000dac: 85a080e7     	jalr	-0x7a6(ra) <lab4_kernel_task2::vma_kind_name::h5b2d98d122f04424>
80000db0: f52a         	sd	a0, 0xa8(sp)
80000db2: f92e         	sd	a1, 0xb0(sp)
80000db4: 0088         	addi	a0, sp, 0x40
80000db6: e42a         	sd	a0, 0x8(sp)
80000db8: 6526         	ld	a0, 0x48(sp)
80000dba: 00001097     	auipc	ra, 0x1
80000dbe: 97a080e7     	jalr	-0x686(ra) <lab4_kernel_task2::vma_flags_name::hc98bd25875ae9d4e>
80000dc2: 6622         	ld	a2, 0x8(sp)
80000dc4: fd2a         	sd	a0, 0xb8(sp)
80000dc6: e1ae         	sd	a1, 0xc0(sp)
80000dc8: 08ac         	addi	a1, sp, 0x58
80000dca: 1088         	addi	a0, sp, 0x60
80000dcc: 1814         	addi	a3, sp, 0x30
80000dce: f8b6         	sd	a3, 0x70(sp)
80000dd0: 1134         	addi	a3, sp, 0xa8
80000dd2: fcb6         	sd	a3, 0x78(sp)
80000dd4: 1834         	addi	a3, sp, 0x38
80000dd6: e136         	sd	a3, 0x80(sp)
80000dd8: e532         	sd	a2, 0x88(sp)
80000dda: 1930         	addi	a2, sp, 0xb8
80000ddc: e932         	sd	a2, 0x90(sp)
80000dde: ed2e         	sd	a1, 0x98(sp)
80000de0: f12a         	sd	a0, 0xa0(sp)
80000de2: 75c6         	ld	a1, 0x70(sp)
80000de4: 1a28         	addi	a0, sp, 0x138
80000de6: 00004097     	auipc	ra, 0x4
80000dea: aa8080e7     	jalr	-0x558(ra) <core::fmt::rt::Argument::new_display::h9aa9b8b69faee6ac>
80000dee: 75e6         	ld	a1, 0x78(sp)
80000df0: 02a8         	addi	a0, sp, 0x148
80000df2: 00004097     	auipc	ra, 0x4
80000df6: abe080e7     	jalr	-0x542(ra) <core::fmt::rt::Argument::new_display::ha3bba816af074122>
80000dfa: 658a         	ld	a1, 0x80(sp)
80000dfc: 0aa8         	addi	a0, sp, 0x158
80000dfe: 00004097     	auipc	ra, 0x4
80000e02: b18080e7     	jalr	-0x4e8(ra) <core::fmt::rt::Argument::new_lower_hex::ha3dbd086c79e0875>
80000e06: 65aa         	ld	a1, 0x88(sp)
80000e08: 12a8         	addi	a0, sp, 0x168
80000e0a: 00004097     	auipc	ra, 0x4
80000e0e: b0c080e7     	jalr	-0x4f4(ra) <core::fmt::rt::Argument::new_lower_hex::ha3dbd086c79e0875>
80000e12: 65ca         	ld	a1, 0x90(sp)
80000e14: 1aa8         	addi	a0, sp, 0x178
80000e16: 00004097     	auipc	ra, 0x4
80000e1a: a9a080e7     	jalr	-0x566(ra) <core::fmt::rt::Argument::new_display::ha3bba816af074122>
80000e1e: 65ea         	ld	a1, 0x98(sp)
80000e20: 0328         	addi	a0, sp, 0x188
80000e22: 00004097     	auipc	ra, 0x4
80000e26: a6c080e7     	jalr	-0x594(ra) <core::fmt::rt::Argument::new_display::h9aa9b8b69faee6ac>
80000e2a: 758a         	ld	a1, 0xa0(sp)
80000e2c: 0b28         	addi	a0, sp, 0x198
80000e2e: 00004097     	auipc	ra, 0x4
80000e32: a60080e7     	jalr	-0x5a0(ra) <core::fmt::rt::Argument::new_display::h9aa9b8b69faee6ac>
80000e36: 6516         	ld	a0, 0x140(sp)
80000e38: e9aa         	sd	a0, 0xd0(sp)
80000e3a: 7572         	ld	a0, 0x138(sp)
80000e3c: e5aa         	sd	a0, 0xc8(sp)
80000e3e: 6556         	ld	a0, 0x150(sp)
80000e40: f1aa         	sd	a0, 0xe0(sp)
80000e42: 6536         	ld	a0, 0x148(sp)
80000e44: edaa         	sd	a0, 0xd8(sp)
80000e46: 7516         	ld	a0, 0x160(sp)
80000e48: f9aa         	sd	a0, 0xf0(sp)
80000e4a: 6576         	ld	a0, 0x158(sp)
80000e4c: f5aa         	sd	a0, 0xe8(sp)
80000e4e: 7556         	ld	a0, 0x170(sp)
80000e50: e22a         	sd	a0, 0x100(sp)
80000e52: 7536         	ld	a0, 0x168(sp)
80000e54: fdaa         	sd	a0, 0xf8(sp)
80000e56: 651a         	ld	a0, 0x180(sp)
80000e58: ea2a         	sd	a0, 0x110(sp)
80000e5a: 7576         	ld	a0, 0x178(sp)
80000e5c: e62a         	sd	a0, 0x108(sp)
80000e5e: 655a         	ld	a0, 0x190(sp)
80000e60: f22a         	sd	a0, 0x120(sp)
80000e62: 653a         	ld	a0, 0x188(sp)
80000e64: ee2a         	sd	a0, 0x118(sp)
80000e66: 751a         	ld	a0, 0x1a0(sp)
80000e68: fa2a         	sd	a0, 0x130(sp)
80000e6a: 657a         	ld	a0, 0x198(sp)
80000e6c: f62a         	sd	a0, 0x128(sp)

0000000080000e6e <.Lpcrel_hi16>:
80000e6e: 00006517     	auipc	a0, 0x6
80000e72: ee250513     	addi	a0, a0, -0x11e
80000e76: 01ac         	addi	a1, sp, 0xc8
80000e78: fffff097     	auipc	ra, 0xfffff
80000e7c: 408080e7     	jalr	0x408(ra) <core::fmt::Arguments::new::h810f377cfcbcc498>
80000e80: fffff097     	auipc	ra, 0xfffff
80000e84: 2c0080e7     	jalr	0x2c0(ra) <lab4_kernel_task2::console::print::h7473f0160e01bbb6>
80000e88: b731         	j	0x80000d94 <.Lpcrel_hi14+0x30>

0000000080000e8a <lab4_kernel_task2::print_walk::hba181e23c4f2f5d4>:
80000e8a: da010113     	addi	sp, sp, -0x260
80000e8e: 24113c23     	sd	ra, 0x258(sp)
80000e92: e436         	sd	a3, 0x8(sp)
80000e94: e0aa         	sd	a0, 0x40(sp)
80000e96: e4ae         	sd	a1, 0x48(sp)
80000e98: e8b2         	sd	a2, 0x50(sp)
80000e9a: 00868513     	addi	a0, a3, 0x8
80000e9e: e82a         	sd	a0, 0x10(sp)
80000ea0: 01068513     	addi	a0, a3, 0x10
80000ea4: ec2a         	sd	a0, 0x18(sp)
80000ea6: 7a88         	ld	a0, 0x30(a3)
80000ea8: 00001097     	auipc	ra, 0x1
80000eac: 950080e7     	jalr	-0x6b0(ra) <lab4_kernel_task2::leaf_level_name::h383b6c8dd62b902d>
80000eb0: 66a2         	ld	a3, 0x8(sp)
80000eb2: fd2a         	sd	a0, 0xb8(sp)
80000eb4: e1ae         	sd	a1, 0xc0(sp)
80000eb6: 01868513     	addi	a0, a3, 0x18
80000eba: f02a         	sd	a0, 0x20(sp)
80000ebc: 02068513     	addi	a0, a3, 0x20
80000ec0: f42a         	sd	a0, 0x28(sp)
80000ec2: 02868513     	addi	a0, a3, 0x28
80000ec6: f82a         	sd	a0, 0x30(sp)
80000ec8: 03868513     	addi	a0, a3, 0x38
80000ecc: fc2a         	sd	a0, 0x38(sp)
80000ece: 7e88         	ld	a0, 0x38(a3)
80000ed0: 00003097     	auipc	ra, 0x3
80000ed4: 110080e7     	jalr	0x110(ra) <lab4_kernel_task2::pte_to_pa::h4668a551d4fdc628>
80000ed8: 6822         	ld	a6, 0x8(sp)
80000eda: 67c2         	ld	a5, 0x10(sp)
80000edc: 6762         	ld	a4, 0x18(sp)
80000ede: 7682         	ld	a3, 0x20(sp)
80000ee0: 7622         	ld	a2, 0x28(sp)
80000ee2: 75c2         	ld	a1, 0x30(sp)
80000ee4: 88aa         	mv	a7, a0
80000ee6: 7562         	ld	a0, 0x38(sp)
80000ee8: e5c6         	sd	a7, 0xc8(sp)
80000eea: 03883883     	ld	a7, 0x38(a6)
80000eee: e9c6         	sd	a7, 0xd0(sp)
80000ef0: 04010893     	addi	a7, sp, 0x40
80000ef4: ecc6         	sd	a7, 0x58(sp)
80000ef6: 05010893     	addi	a7, sp, 0x50
80000efa: f0c6         	sd	a7, 0x60(sp)
80000efc: f4c2         	sd	a6, 0x68(sp)
80000efe: f8be         	sd	a5, 0x70(sp)
80000f00: fcba         	sd	a4, 0x78(sp)
80000f02: 1938         	addi	a4, sp, 0xb8
80000f04: e13a         	sd	a4, 0x80(sp)
80000f06: e536         	sd	a3, 0x88(sp)
80000f08: e932         	sd	a2, 0x90(sp)
80000f0a: ed2e         	sd	a1, 0x98(sp)
80000f0c: f12a         	sd	a0, 0xa0(sp)
80000f0e: 01a8         	addi	a0, sp, 0xc8
80000f10: f52a         	sd	a0, 0xa8(sp)
80000f12: 0988         	addi	a0, sp, 0xd0
80000f14: f92a         	sd	a0, 0xb0(sp)
80000f16: 65e6         	ld	a1, 0x58(sp)
80000f18: 0b28         	addi	a0, sp, 0x198
80000f1a: 00004097     	auipc	ra, 0x4
80000f1e: 996080e7     	jalr	-0x66a(ra) <core::fmt::rt::Argument::new_display::ha3bba816af074122>
80000f22: 7586         	ld	a1, 0x60(sp)
80000f24: 1328         	addi	a0, sp, 0x1a8
80000f26: 00004097     	auipc	ra, 0x4
80000f2a: 9f0080e7     	jalr	-0x610(ra) <core::fmt::rt::Argument::new_lower_hex::ha3dbd086c79e0875>
80000f2e: 75a6         	ld	a1, 0x68(sp)
80000f30: 1b28         	addi	a0, sp, 0x1b8
80000f32: 00004097     	auipc	ra, 0x4
80000f36: 95c080e7     	jalr	-0x6a4(ra) <core::fmt::rt::Argument::new_display::h9aa9b8b69faee6ac>
80000f3a: 75c6         	ld	a1, 0x70(sp)
80000f3c: 03a8         	addi	a0, sp, 0x1c8
80000f3e: 00004097     	auipc	ra, 0x4
80000f42: 950080e7     	jalr	-0x6b0(ra) <core::fmt::rt::Argument::new_display::h9aa9b8b69faee6ac>
80000f46: 75e6         	ld	a1, 0x78(sp)
80000f48: 0ba8         	addi	a0, sp, 0x1d8
80000f4a: 00004097     	auipc	ra, 0x4
80000f4e: 944080e7     	jalr	-0x6bc(ra) <core::fmt::rt::Argument::new_display::h9aa9b8b69faee6ac>
80000f52: 658a         	ld	a1, 0x80(sp)
80000f54: 13a8         	addi	a0, sp, 0x1e8
80000f56: 00004097     	auipc	ra, 0x4
80000f5a: 95a080e7     	jalr	-0x6a6(ra) <core::fmt::rt::Argument::new_display::ha3bba816af074122>
80000f5e: 65aa         	ld	a1, 0x88(sp)
80000f60: 1ba8         	addi	a0, sp, 0x1f8
80000f62: 00004097     	auipc	ra, 0x4
80000f66: 9b4080e7     	jalr	-0x64c(ra) <core::fmt::rt::Argument::new_lower_hex::ha3dbd086c79e0875>
80000f6a: 65ca         	ld	a1, 0x90(sp)
80000f6c: 0428         	addi	a0, sp, 0x208
80000f6e: 00004097     	auipc	ra, 0x4
80000f72: 9a8080e7     	jalr	-0x658(ra) <core::fmt::rt::Argument::new_lower_hex::ha3dbd086c79e0875>
80000f76: 65ea         	ld	a1, 0x98(sp)
80000f78: 0c28         	addi	a0, sp, 0x218
80000f7a: 00004097     	auipc	ra, 0x4
80000f7e: 99c080e7     	jalr	-0x664(ra) <core::fmt::rt::Argument::new_lower_hex::ha3dbd086c79e0875>
80000f82: 758a         	ld	a1, 0xa0(sp)
80000f84: 1428         	addi	a0, sp, 0x228
80000f86: 00004097     	auipc	ra, 0x4
80000f8a: 990080e7     	jalr	-0x670(ra) <core::fmt::rt::Argument::new_lower_hex::ha3dbd086c79e0875>
80000f8e: 75aa         	ld	a1, 0xa8(sp)
80000f90: 1c28         	addi	a0, sp, 0x238
80000f92: 00004097     	auipc	ra, 0x4
80000f96: 984080e7     	jalr	-0x67c(ra) <core::fmt::rt::Argument::new_lower_hex::ha3dbd086c79e0875>
80000f9a: 75ca         	ld	a1, 0xb0(sp)
80000f9c: 04a8         	addi	a0, sp, 0x248
80000f9e: 00004097     	auipc	ra, 0x4
80000fa2: 956080e7     	jalr	-0x6aa(ra) <core::fmt::rt::Argument::new_display::he9a61a9b186bb081>
80000fa6: 751a         	ld	a0, 0x1a0(sp)
80000fa8: f1aa         	sd	a0, 0xe0(sp)
80000faa: 657a         	ld	a0, 0x198(sp)
80000fac: edaa         	sd	a0, 0xd8(sp)
80000fae: 755a         	ld	a0, 0x1b0(sp)
80000fb0: f9aa         	sd	a0, 0xf0(sp)
80000fb2: 753a         	ld	a0, 0x1a8(sp)
80000fb4: f5aa         	sd	a0, 0xe8(sp)
80000fb6: 651e         	ld	a0, 0x1c0(sp)
80000fb8: e22a         	sd	a0, 0x100(sp)
80000fba: 757a         	ld	a0, 0x1b8(sp)
80000fbc: fdaa         	sd	a0, 0xf8(sp)
80000fbe: 655e         	ld	a0, 0x1d0(sp)
80000fc0: ea2a         	sd	a0, 0x110(sp)
80000fc2: 653e         	ld	a0, 0x1c8(sp)
80000fc4: e62a         	sd	a0, 0x108(sp)
80000fc6: 751e         	ld	a0, 0x1e0(sp)
80000fc8: f22a         	sd	a0, 0x120(sp)
80000fca: 657e         	ld	a0, 0x1d8(sp)
80000fcc: ee2a         	sd	a0, 0x118(sp)
80000fce: 755e         	ld	a0, 0x1f0(sp)
80000fd0: fa2a         	sd	a0, 0x130(sp)
80000fd2: 753e         	ld	a0, 0x1e8(sp)
80000fd4: f62a         	sd	a0, 0x128(sp)
80000fd6: 20013503     	ld	a0, 0x200(sp)
80000fda: e2aa         	sd	a0, 0x140(sp)
80000fdc: 757e         	ld	a0, 0x1f8(sp)
80000fde: fe2a         	sd	a0, 0x138(sp)
80000fe0: 21013503     	ld	a0, 0x210(sp)
80000fe4: eaaa         	sd	a0, 0x150(sp)
80000fe6: 20813503     	ld	a0, 0x208(sp)
80000fea: e6aa         	sd	a0, 0x148(sp)
80000fec: 22013503     	ld	a0, 0x220(sp)
80000ff0: f2aa         	sd	a0, 0x160(sp)
80000ff2: 21813503     	ld	a0, 0x218(sp)
80000ff6: eeaa         	sd	a0, 0x158(sp)
80000ff8: 23013503     	ld	a0, 0x230(sp)
80000ffc: faaa         	sd	a0, 0x170(sp)
80000ffe: 22813503     	ld	a0, 0x228(sp)
80001002: f6aa         	sd	a0, 0x168(sp)
80001004: 24013503     	ld	a0, 0x240(sp)
80001008: e32a         	sd	a0, 0x180(sp)
8000100a: 23813503     	ld	a0, 0x238(sp)
8000100e: feaa         	sd	a0, 0x178(sp)
80001010: 25013503     	ld	a0, 0x250(sp)
80001014: eb2a         	sd	a0, 0x190(sp)
80001016: 24813503     	ld	a0, 0x248(sp)
8000101a: e72a         	sd	a0, 0x188(sp)

000000008000101c <.Lpcrel_hi17>:
8000101c: 00006517     	auipc	a0, 0x6
80001020: d8650513     	addi	a0, a0, -0x27a
80001024: 09ac         	addi	a1, sp, 0xd8
80001026: fffff097     	auipc	ra, 0xfffff
8000102a: 23c080e7     	jalr	0x23c(ra) <core::fmt::Arguments::new::h62210381bba07ade>
8000102e: fffff097     	auipc	ra, 0xfffff
80001032: 112080e7     	jalr	0x112(ra) <lab4_kernel_task2::console::print::h7473f0160e01bbb6>
80001036: 25813083     	ld	ra, 0x258(sp)
8000103a: 26010113     	addi	sp, sp, 0x260
8000103e: 8082         	ret

0000000080001040 <lab4_kernel_task2::read_mtval::hc2ae925ecd4a947f>:
80001040: 1141         	addi	sp, sp, -0x10
80001042: 34302573     	csrr	a0, mtval
80001046: e42a         	sd	a0, 0x8(sp)
80001048: 6522         	ld	a0, 0x8(sp)
8000104a: 0141         	addi	sp, sp, 0x10
8000104c: 8082         	ret

000000008000104e <lab4_kernel_task2::read_stval::h3f6d9b7ebd1a8744>:
8000104e: 1141         	addi	sp, sp, -0x10
80001050: 14302573     	csrr	a0, stval
80001054: e42a         	sd	a0, 0x8(sp)
80001056: 6522         	ld	a0, 0x8(sp)
80001058: 0141         	addi	sp, sp, 0x10
8000105a: 8082         	ret

000000008000105c <lab4_kernel_task2::upsert_vma::hb4d12f0383b0ab1d>:
8000105c: 7135         	addi	sp, sp, -0xa0
8000105e: ed06         	sd	ra, 0x98(sp)
80001060: f836         	sd	a3, 0x30(sp)
80001062: fc32         	sd	a2, 0x38(sp)
80001064: e0ae         	sd	a1, 0x40(sp)
80001066: e4aa         	sd	a0, 0x48(sp)
80001068: f8aa         	sd	a0, 0x70(sp)
8000106a: fcae         	sd	a1, 0x78(sp)
8000106c: e132         	sd	a2, 0x80(sp)
8000106e: e536         	sd	a3, 0x88(sp)
80001070: 4501         	li	a0, 0x0
80001072: 4591         	li	a1, 0x4
80001074: 00004097     	auipc	ra, 0x4
80001078: 92a080e7     	jalr	-0x6d6(ra) <_$LT$I$u20$as$u20$core..iter..traits..collect..IntoIterator$GT$::into_iter::h1fc85f52cf5a3515>
8000107c: e8aa         	sd	a0, 0x50(sp)
8000107e: ecae         	sd	a1, 0x58(sp)
80001080: a009         	j	0x80001082 <lab4_kernel_task2::upsert_vma::hb4d12f0383b0ab1d+0x26>
80001082: 0888         	addi	a0, sp, 0x50
80001084: 00004097     	auipc	ra, 0x4
80001088: 906080e7     	jalr	-0x6fa(ra) <core::iter::range::_$LT$impl$u20$core..iter..traits..iterator..Iterator$u20$for$u20$core..ops..range..Range$LT$A$GT$$GT$::next::h1cbf565076fd6def>
8000108c: f0aa         	sd	a0, 0x60(sp)
8000108e: f4ae         	sd	a1, 0x68(sp)
80001090: 7506         	ld	a0, 0x60(sp)
80001092: 8905         	andi	a0, a0, 0x1
80001094: c919         	beqz	a0, 0x800010aa <lab4_kernel_task2::upsert_vma::hb4d12f0383b0ab1d+0x4e>
80001096: a009         	j	0x80001098 <lab4_kernel_task2::upsert_vma::hb4d12f0383b0ab1d+0x3c>
80001098: 7526         	ld	a0, 0x68(sp)
8000109a: f02a         	sd	a0, 0x20(sp)
8000109c: e92a         	sd	a0, 0x90(sp)
8000109e: 4591         	li	a1, 0x4
800010a0: 862a         	mv	a2, a0
800010a2: f432         	sd	a2, 0x28(sp)
800010a4: 00b56f63     	bltu	a0, a1, 0x800010c2 <.Lpcrel_hi18>
800010a8: a01d         	j	0x800010ce <.Lpcrel_hi18+0xc>
800010aa: 66a6         	ld	a3, 0x48(sp)
800010ac: 7642         	ld	a2, 0x30(sp)
800010ae: 75e2         	ld	a1, 0x38(sp)
800010b0: 6506         	ld	a0, 0x40(sp)
800010b2: 00000097     	auipc	ra, 0x0
800010b6: b02080e7     	jalr	-0x4fe(ra) <lab4_kernel_task2::insert_vma::h8dc2d962862ec90e>
800010ba: a009         	j	0x800010bc <lab4_kernel_task2::upsert_vma::hb4d12f0383b0ab1d+0x60>
800010bc: 60ea         	ld	ra, 0x98(sp)
800010be: 610d         	addi	sp, sp, 0xa0
800010c0: 8082         	ret

00000000800010c2 <.Lpcrel_hi18>:
800010c2: 00022517     	auipc	a0, 0x22
800010c6: f3e50513     	addi	a0, a0, -0xc2
800010ca: ed01         	bnez	a0, 0x800010e2 <.Lpcrel_hi19+0x12>
800010cc: a825         	j	0x80001104 <.Lpcrel_hi21>
800010ce: 7522         	ld	a0, 0x28(sp)

00000000800010d0 <.Lpcrel_hi19>:
800010d0: 00006597     	auipc	a1, 0x6
800010d4: d6058613     	addi	a2, a1, -0x2a0
800010d8: 4591         	li	a1, 0x4
800010da: 00005097     	auipc	ra, 0x5
800010de: cf6080e7     	jalr	-0x30a(ra) <core::panicking::panic_bounds_check::h6aaee0d15e0261eb>
800010e2: 7502         	ld	a0, 0x20(sp)
800010e4: 00351593     	slli	a1, a0, 0x3
800010e8: 051a         	slli	a0, a0, 0x6
800010ea: 40b505b3     	sub	a1, a0, a1

00000000800010ee <.Lpcrel_hi20>:
800010ee: 00022517     	auipc	a0, 0x22
800010f2: f1250513     	addi	a0, a0, -0xee
800010f6: 952e         	add	a0, a0, a1
800010f8: 03054503     	lbu	a0, 0x30(a0)
800010fc: 8905         	andi	a0, a0, 0x1
800010fe: e919         	bnez	a0, 0x80001114 <.Lpcrel_hi21+0x10>
80001100: a009         	j	0x80001102 <.Lpcrel_hi20+0x14>
80001102: b741         	j	0x80001082 <lab4_kernel_task2::upsert_vma::hb4d12f0383b0ab1d+0x26>

0000000080001104 <.Lpcrel_hi21>:
80001104: 00006517     	auipc	a0, 0x6
80001108: d2c50513     	addi	a0, a0, -0x2d4
8000110c: 00005097     	auipc	ra, 0x5
80001110: d30080e7     	jalr	-0x2d0(ra) <core::panicking::panic_null_pointer_dereference::hbac6411af4f2e916>
80001114: 7582         	ld	a1, 0x20(sp)
80001116: 450d         	li	a0, 0x3
80001118: 862e         	mv	a2, a1
8000111a: ec32         	sd	a2, 0x18(sp)
8000111c: 00b56963     	bltu	a0, a1, 0x8000112e <.Lpcrel_hi22+0xc>
80001120: a009         	j	0x80001122 <.Lpcrel_hi22>

0000000080001122 <.Lpcrel_hi22>:
80001122: 00022517     	auipc	a0, 0x22
80001126: ede50513     	addi	a0, a0, -0x122
8000112a: ed01         	bnez	a0, 0x80001142 <.Lpcrel_hi23+0x12>
8000112c: a82d         	j	0x80001166 <.Lpcrel_hi25>
8000112e: 6562         	ld	a0, 0x18(sp)

0000000080001130 <.Lpcrel_hi23>:
80001130: 00006597     	auipc	a1, 0x6
80001134: d1858613     	addi	a2, a1, -0x2e8
80001138: 4591         	li	a1, 0x4
8000113a: 00005097     	auipc	ra, 0x5
8000113e: c96080e7     	jalr	-0x36a(ra) <core::panicking::panic_bounds_check::h6aaee0d15e0261eb>
80001142: 65a6         	ld	a1, 0x48(sp)
80001144: 7602         	ld	a2, 0x20(sp)
80001146: 00361693     	slli	a3, a2, 0x3
8000114a: 00661513     	slli	a0, a2, 0x6
8000114e: 40d506b3     	sub	a3, a0, a3

0000000080001152 <.Lpcrel_hi24>:
80001152: 00022517     	auipc	a0, 0x22
80001156: eae50513     	addi	a0, a0, -0x152
8000115a: 9536         	add	a0, a0, a3
8000115c: 6d08         	ld	a0, 0x18(a0)
8000115e: e832         	sd	a2, 0x10(sp)
80001160: 00b50b63     	beq	a0, a1, 0x80001176 <.Lpcrel_hi25+0x10>
80001164: bf79         	j	0x80001102 <.Lpcrel_hi20+0x14>

0000000080001166 <.Lpcrel_hi25>:
80001166: 00006517     	auipc	a0, 0x6
8000116a: ce250513     	addi	a0, a0, -0x31e
8000116e: 00005097     	auipc	ra, 0x5
80001172: cce080e7     	jalr	-0x332(ra) <core::panicking::panic_null_pointer_dereference::hbac6411af4f2e916>
80001176: 65c2         	ld	a1, 0x10(sp)
80001178: e42e         	sd	a1, 0x8(sp)
8000117a: 450d         	li	a0, 0x3
8000117c: 00b56963     	bltu	a0, a1, 0x8000118e <.Lpcrel_hi26+0xc>
80001180: a009         	j	0x80001182 <.Lpcrel_hi26>

0000000080001182 <.Lpcrel_hi26>:
80001182: 00022517     	auipc	a0, 0x22
80001186: e7e50513     	addi	a0, a0, -0x182
8000118a: ed01         	bnez	a0, 0x800011a2 <.Lpcrel_hi27+0x12>
8000118c: a82d         	j	0x800011c6 <.Lpcrel_hi29>
8000118e: 6522         	ld	a0, 0x8(sp)

0000000080001190 <.Lpcrel_hi27>:
80001190: 00006597     	auipc	a1, 0x6
80001194: cd058613     	addi	a2, a1, -0x330
80001198: 4591         	li	a1, 0x4
8000119a: 00005097     	auipc	ra, 0x5
8000119e: c36080e7     	jalr	-0x3ca(ra) <core::panicking::panic_bounds_check::h6aaee0d15e0261eb>
800011a2: 6522         	ld	a0, 0x8(sp)
800011a4: 6586         	ld	a1, 0x40(sp)
800011a6: 00351693     	slli	a3, a0, 0x3
800011aa: 00651613     	slli	a2, a0, 0x6
800011ae: 40d606b3     	sub	a3, a2, a3

00000000800011b2 <.Lpcrel_hi28>:
800011b2: 00022617     	auipc	a2, 0x22
800011b6: e4e60613     	addi	a2, a2, -0x1b2
800011ba: 9636         	add	a2, a2, a3
800011bc: e20c         	sd	a1, 0x0(a2)
800011be: 4591         	li	a1, 0x4
800011c0: 00b56b63     	bltu	a0, a1, 0x800011d6 <.Lpcrel_hi30>
800011c4: a839         	j	0x800011e2 <.Lpcrel_hi30+0xc>

00000000800011c6 <.Lpcrel_hi29>:
800011c6: 00006517     	auipc	a0, 0x6
800011ca: c9a50513     	addi	a0, a0, -0x366
800011ce: 00005097     	auipc	ra, 0x5
800011d2: c6e080e7     	jalr	-0x392(ra) <core::panicking::panic_null_pointer_dereference::hbac6411af4f2e916>

00000000800011d6 <.Lpcrel_hi30>:
800011d6: 00022517     	auipc	a0, 0x22
800011da: e2a50513     	addi	a0, a0, -0x1d6
800011de: ed01         	bnez	a0, 0x800011f6 <.Lpcrel_hi31+0x12>
800011e0: a82d         	j	0x8000121a <.Lpcrel_hi33>
800011e2: 6522         	ld	a0, 0x8(sp)

00000000800011e4 <.Lpcrel_hi31>:
800011e4: 00006597     	auipc	a1, 0x6
800011e8: c9458613     	addi	a2, a1, -0x36c
800011ec: 4591         	li	a1, 0x4
800011ee: 00005097     	auipc	ra, 0x5
800011f2: be2080e7     	jalr	-0x41e(ra) <core::panicking::panic_bounds_check::h6aaee0d15e0261eb>
800011f6: 6522         	ld	a0, 0x8(sp)
800011f8: 75e2         	ld	a1, 0x38(sp)
800011fa: 00351693     	slli	a3, a0, 0x3
800011fe: 00651613     	slli	a2, a0, 0x6
80001202: 40d606b3     	sub	a3, a2, a3

0000000080001206 <.Lpcrel_hi32>:
80001206: 00022617     	auipc	a2, 0x22
8000120a: dfa60613     	addi	a2, a2, -0x206
8000120e: 9636         	add	a2, a2, a3
80001210: e60c         	sd	a1, 0x8(a2)
80001212: 4591         	li	a1, 0x4
80001214: 00b56b63     	bltu	a0, a1, 0x8000122a <.Lpcrel_hi34>
80001218: a839         	j	0x80001236 <.Lpcrel_hi34+0xc>

000000008000121a <.Lpcrel_hi33>:
8000121a: 00006517     	auipc	a0, 0x6
8000121e: c5e50513     	addi	a0, a0, -0x3a2
80001222: 00005097     	auipc	ra, 0x5
80001226: c1a080e7     	jalr	-0x3e6(ra) <core::panicking::panic_null_pointer_dereference::hbac6411af4f2e916>

000000008000122a <.Lpcrel_hi34>:
8000122a: 00022517     	auipc	a0, 0x22
8000122e: dd650513     	addi	a0, a0, -0x22a
80001232: ed01         	bnez	a0, 0x8000124a <.Lpcrel_hi35+0x12>
80001234: a80d         	j	0x80001266 <.Lpcrel_hi37>
80001236: 6522         	ld	a0, 0x8(sp)

0000000080001238 <.Lpcrel_hi35>:
80001238: 00006597     	auipc	a1, 0x6
8000123c: c5858613     	addi	a2, a1, -0x3a8
80001240: 4591         	li	a1, 0x4
80001242: 00005097     	auipc	ra, 0x5
80001246: b8e080e7     	jalr	-0x472(ra) <core::panicking::panic_bounds_check::h6aaee0d15e0261eb>
8000124a: 7542         	ld	a0, 0x30(sp)
8000124c: 65a2         	ld	a1, 0x8(sp)
8000124e: 00359613     	slli	a2, a1, 0x3
80001252: 059a         	slli	a1, a1, 0x6
80001254: 40c58633     	sub	a2, a1, a2

0000000080001258 <.Lpcrel_hi36>:
80001258: 00022597     	auipc	a1, 0x22
8000125c: da858593     	addi	a1, a1, -0x258
80001260: 95b2         	add	a1, a1, a2
80001262: e988         	sd	a0, 0x10(a1)
80001264: bda1         	j	0x800010bc <lab4_kernel_task2::upsert_vma::hb4d12f0383b0ab1d+0x60>

0000000080001266 <.Lpcrel_hi37>:
80001266: 00006517     	auipc	a0, 0x6
8000126a: c2a50513     	addi	a0, a0, -0x3d6
8000126e: 00005097     	auipc	ra, 0x5
80001272: bce080e7     	jalr	-0x432(ra) <core::panicking::panic_null_pointer_dereference::hbac6411af4f2e916>

0000000080001276 <lab4_kernel_task2::vpn0_index::h4a2e4e22f00af019>:
80001276: 1141         	addi	sp, sp, -0x10
80001278: e42a         	sd	a0, 0x8(sp)
8000127a: 152e         	slli	a0, a0, 0x2b
8000127c: 915d         	srli	a0, a0, 0x37
8000127e: 0141         	addi	sp, sp, 0x10
80001280: 8082         	ret

0000000080001282 <lab4_kernel_task2::vpn1_index::h8162d0da845d4182>:
80001282: 1141         	addi	sp, sp, -0x10
80001284: e42a         	sd	a0, 0x8(sp)
80001286: 150a         	slli	a0, a0, 0x22
80001288: 915d         	srli	a0, a0, 0x37
8000128a: 0141         	addi	sp, sp, 0x10
8000128c: 8082         	ret

000000008000128e <lab4_kernel_task2::vpn2_index::hc37c025970512cf1>:
8000128e: 1141         	addi	sp, sp, -0x10
80001290: e42a         	sd	a0, 0x8(sp)
80001292: 0566         	slli	a0, a0, 0x19
80001294: 915d         	srli	a0, a0, 0x37
80001296: 0141         	addi	sp, sp, 0x10
80001298: 8082         	ret

000000008000129a <lab4_kernel_task2::kernel_fail::h81ee1edb0feee17d>:
8000129a: 7139         	addi	sp, sp, -0x40
8000129c: fc06         	sd	ra, 0x38(sp)
8000129e: e02a         	sd	a0, 0x0(sp)
800012a0: e42e         	sd	a1, 0x8(sp)
800012a2: 858a         	mv	a1, sp
800012a4: f82e         	sd	a1, 0x30(sp)
800012a6: 1008         	addi	a0, sp, 0x20
800012a8: 00003097     	auipc	ra, 0x3
800012ac: 608080e7     	jalr	0x608(ra) <core::fmt::rt::Argument::new_display::ha3bba816af074122>
800012b0: 7522         	ld	a0, 0x28(sp)
800012b2: ec2a         	sd	a0, 0x18(sp)
800012b4: 7502         	ld	a0, 0x20(sp)
800012b6: e82a         	sd	a0, 0x10(sp)

00000000800012b8 <.Lpcrel_hi38>:
800012b8: 00005517     	auipc	a0, 0x5
800012bc: 01250513     	addi	a0, a0, 0x12
800012c0: 080c         	addi	a1, sp, 0x10
800012c2: fffff097     	auipc	ra, 0xfffff
800012c6: fdc080e7     	jalr	-0x24(ra) <core::fmt::Arguments::new::hd796ce49db14ffb8>
800012ca: fffff097     	auipc	ra, 0xfffff
800012ce: e76080e7     	jalr	-0x18a(ra) <lab4_kernel_task2::console::print::h7473f0160e01bbb6>
800012d2: 4505         	li	a0, 0x1
800012d4: 00003097     	auipc	ra, 0x3
800012d8: d18080e7     	jalr	-0x2e8(ra) <lab4_kernel_task2::qemu_exit::h515f7665dae94ac6>

00000000800012dc <lab4_kernel_task2::pte_is_leaf::h4b7c97adf8c84adf>:
800012dc: 1141         	addi	sp, sp, -0x10
800012de: e42a         	sd	a0, 0x8(sp)
800012e0: 8939         	andi	a0, a0, 0xe
800012e2: 00a03533     	snez	a0, a0
800012e6: 0141         	addi	sp, sp, 0x10
800012e8: 8082         	ret

00000000800012ea <lab4_kernel_task2::read_mcause::h75524f4b19e0613e>:
800012ea: 1141         	addi	sp, sp, -0x10
800012ec: 34202573     	csrr	a0, mcause
800012f0: e42a         	sd	a0, 0x8(sp)
800012f2: 6522         	ld	a0, 0x8(sp)
800012f4: 0141         	addi	sp, sp, 0x10
800012f6: 8082         	ret

00000000800012f8 <lab4_kernel_task2::read_scause::hc3c3b9fa9e627ee0>:
800012f8: 1141         	addi	sp, sp, -0x10
800012fa: 14202573     	csrr	a0, scause
800012fe: e42a         	sd	a0, 0x8(sp)
80001300: 6522         	ld	a0, 0x8(sp)
80001302: 0141         	addi	sp, sp, 0x10
80001304: 8082         	ret

0000000080001306 <lab4_kernel_task2::user_shared::h6989d0dbb0dbf42a>:
80001306: 1141         	addi	sp, sp, -0x10

0000000080001308 <.Lpcrel_hi39>:
80001308: 0001c517     	auipc	a0, 0x1c
8000130c: cf850513     	addi	a0, a0, -0x308
80001310: e02a         	sd	a0, 0x0(sp)
80001312: e42a         	sd	a0, 0x8(sp)
80001314: 891d         	andi	a0, a0, 0x7
80001316: e901         	bnez	a0, 0x80001326 <.Lpcrel_hi40+0xc>
80001318: a009         	j	0x8000131a <.Lpcrel_hi40>

000000008000131a <.Lpcrel_hi40>:
8000131a: 0001c517     	auipc	a0, 0x1c
8000131e: ce650513     	addi	a0, a0, -0x31a
80001322: ed01         	bnez	a0, 0x8000133a <.Lpcrel_hi42>
80001324: a00d         	j	0x80001346 <.Lpcrel_hi43>
80001326: 6582         	ld	a1, 0x0(sp)

0000000080001328 <.Lpcrel_hi41>:
80001328: 00006517     	auipc	a0, 0x6
8000132c: b8050613     	addi	a2, a0, -0x480
80001330: 4521         	li	a0, 0x8
80001332: 00005097     	auipc	ra, 0x5
80001336: b2a080e7     	jalr	-0x4d6(ra) <core::panicking::panic_misaligned_pointer_dereference::hda85f7fb51d959f0>

000000008000133a <.Lpcrel_hi42>:
8000133a: 0001c517     	auipc	a0, 0x1c
8000133e: cc650513     	addi	a0, a0, -0x33a
80001342: 0141         	addi	sp, sp, 0x10
80001344: 8082         	ret

0000000080001346 <.Lpcrel_hi43>:
80001346: 00006517     	auipc	a0, 0x6
8000134a: b6250513     	addi	a0, a0, -0x49e
8000134e: 00005097     	auipc	ra, 0x5
80001352: aee080e7     	jalr	-0x512(ra) <core::panicking::panic_null_pointer_dereference::hbac6411af4f2e916>

0000000080001356 <lab4_kernel_task2::LazyEvidence::zeroed::h0d78a9a30e4ff54c>:
80001356: 85aa         	mv	a1, a0
80001358: 4501         	li	a0, 0x0
8000135a: 00a58823     	sb	a0, 0x10(a1)
8000135e: 00a588a3     	sb	a0, 0x11(a1)
80001362: 00a58923     	sb	a0, 0x12(a1)
80001366: e188         	sd	a0, 0x0(a1)
80001368: e588         	sd	a0, 0x8(a1)
8000136a: 8082         	ret

000000008000136c <lab4_kernel_task2::pte_has_user::h8d63cd7ac93c5d3d>:
8000136c: 1141         	addi	sp, sp, -0x10
8000136e: e42a         	sd	a0, 0x8(sp)
80001370: 156e         	slli	a0, a0, 0x3b
80001372: 917d         	srli	a0, a0, 0x3f
80001374: 0141         	addi	sp, sp, 0x10
80001376: 8082         	ret

0000000080001378 <lab4_kernel_task2::pte_is_valid::hcf3d742da30fb2ce>:
80001378: 1141         	addi	sp, sp, -0x10
8000137a: e42a         	sd	a0, 0x8(sp)
8000137c: 8905         	andi	a0, a0, 0x1
8000137e: 0141         	addi	sp, sp, 0x10
80001380: 8082         	ret

0000000080001382 <lab4_kernel_task2::walk_virtual::haeedce58dbcc1375>:
80001382: 7171         	addi	sp, sp, -0xb0
80001384: f506         	sd	ra, 0xa8(sp)
80001386: fc2e         	sd	a1, 0x38(sp)
80001388: f82a         	sd	a0, 0x30(sp)
8000138a: e52e         	sd	a1, 0x88(sp)
8000138c: 00a8         	addi	a0, sp, 0x48
8000138e: fffff097     	auipc	ra, 0xfffff
80001392: 7de080e7     	jalr	0x7de(ra) <lab4_kernel_task2::WalkResult::zeroed::hdd706722112c0447>
80001396: 7562         	ld	a0, 0x38(sp)

0000000080001398 <.Lpcrel_hi44>:
80001398: 0001a597     	auipc	a1, 0x1a
8000139c: c6858593     	addi	a1, a1, -0x398
800013a0: e92e         	sd	a1, 0x90(sp)
800013a2: 00000097     	auipc	ra, 0x0
800013a6: eec080e7     	jalr	-0x114(ra) <lab4_kernel_task2::vpn2_index::hc37c025970512cf1>
800013aa: 85aa         	mv	a1, a0
800013ac: 7562         	ld	a0, 0x38(sp)
800013ae: e4ae         	sd	a1, 0x48(sp)
800013b0: 00000097     	auipc	ra, 0x0
800013b4: ed2080e7     	jalr	-0x12e(ra) <lab4_kernel_task2::vpn1_index::h8162d0da845d4182>
800013b8: 85aa         	mv	a1, a0
800013ba: 7562         	ld	a0, 0x38(sp)
800013bc: e8ae         	sd	a1, 0x50(sp)
800013be: 00000097     	auipc	ra, 0x0
800013c2: eb8080e7     	jalr	-0x148(ra) <lab4_kernel_task2::vpn0_index::h4a2e4e22f00af019>
800013c6: ecaa         	sd	a0, 0x58(sp)
800013c8: 65a6         	ld	a1, 0x48(sp)
800013ca: e0ae         	sd	a1, 0x40(sp)
800013cc: 1ff00513     	li	a0, 0x1ff
800013d0: 00b56a63     	bltu	a0, a1, 0x800013e4 <.Lpcrel_hi45+0xe>
800013d4: a009         	j	0x800013d6 <.Lpcrel_hi45>

00000000800013d6 <.Lpcrel_hi45>:
800013d6: 0001a517     	auipc	a0, 0x1a
800013da: c2a50513     	addi	a0, a0, -0x3d6
800013de: 1552         	slli	a0, a0, 0x34
800013e0: cd09         	beqz	a0, 0x800013fa <.Lpcrel_hi47>
800013e2: a015         	j	0x80001406 <.Lpcrel_hi48>
800013e4: 6506         	ld	a0, 0x40(sp)

00000000800013e6 <.Lpcrel_hi46>:
800013e6: 00006597     	auipc	a1, 0x6
800013ea: ada58613     	addi	a2, a1, -0x526
800013ee: 20000593     	li	a1, 0x200
800013f2: 00005097     	auipc	ra, 0x5
800013f6: 9de080e7     	jalr	-0x622(ra) <core::panicking::panic_bounds_check::h6aaee0d15e0261eb>

00000000800013fa <.Lpcrel_hi47>:
800013fa: 0001a517     	auipc	a0, 0x1a
800013fe: c0650513     	addi	a0, a0, -0x3fa
80001402: ed19         	bnez	a0, 0x80001420 <.Lpcrel_hi49+0x12>
80001404: a83d         	j	0x80001442 <.Lpcrel_hi51>

0000000080001406 <.Lpcrel_hi48>:
80001406: 0001a517     	auipc	a0, 0x1a
8000140a: bfa50593     	addi	a1, a0, -0x406

000000008000140e <.Lpcrel_hi49>:
8000140e: 00006517     	auipc	a0, 0x6
80001412: ab250613     	addi	a2, a0, -0x54e
80001416: 6505         	lui	a0, 0x1
80001418: 00005097     	auipc	ra, 0x5
8000141c: a44080e7     	jalr	-0x5bc(ra) <core::panicking::panic_misaligned_pointer_dereference::hda85f7fb51d959f0>
80001420: 6506         	ld	a0, 0x40(sp)
80001422: 00351593     	slli	a1, a0, 0x3

0000000080001426 <.Lpcrel_hi50>:
80001426: 0001a517     	auipc	a0, 0x1a
8000142a: bda50513     	addi	a0, a0, -0x426
8000142e: 952e         	add	a0, a0, a1
80001430: 6108         	ld	a0, 0x0(a0)
80001432: f0aa         	sd	a0, 0x60(sp)
80001434: 7506         	ld	a0, 0x60(sp)
80001436: 00000097     	auipc	ra, 0x0
8000143a: f42080e7     	jalr	-0xbe(ra) <lab4_kernel_task2::pte_is_valid::hcf3d742da30fb2ce>
8000143e: e121         	bnez	a0, 0x8000147e <.Lpcrel_hi51+0x3c>
80001440: a809         	j	0x80001452 <.Lpcrel_hi51+0x10>

0000000080001442 <.Lpcrel_hi51>:
80001442: 00006517     	auipc	a0, 0x6
80001446: a7e50513     	addi	a0, a0, -0x582
8000144a: 00005097     	auipc	ra, 0x5
8000144e: 9f2080e7     	jalr	-0x60e(ra) <core::panicking::panic_null_pointer_dereference::hbac6411af4f2e916>
80001452: 75c2         	ld	a1, 0x30(sp)
80001454: 4509         	li	a0, 0x2
80001456: fcaa         	sd	a0, 0x78(sp)
80001458: 7506         	ld	a0, 0x60(sp)
8000145a: e12a         	sd	a0, 0x80(sp)
8000145c: 650a         	ld	a0, 0x80(sp)
8000145e: fd88         	sd	a0, 0x38(a1)
80001460: 7566         	ld	a0, 0x78(sp)
80001462: f988         	sd	a0, 0x30(a1)
80001464: 7546         	ld	a0, 0x70(sp)
80001466: f588         	sd	a0, 0x28(a1)
80001468: 7526         	ld	a0, 0x68(sp)
8000146a: f188         	sd	a0, 0x20(a1)
8000146c: 7506         	ld	a0, 0x60(sp)
8000146e: ed88         	sd	a0, 0x18(a1)
80001470: 6566         	ld	a0, 0x58(sp)
80001472: e988         	sd	a0, 0x10(a1)
80001474: 6546         	ld	a0, 0x50(sp)
80001476: e588         	sd	a0, 0x8(a1)
80001478: 6526         	ld	a0, 0x48(sp)
8000147a: e188         	sd	a0, 0x0(a1)
8000147c: aa85         	j	0x800015ec <.Lpcrel_hi57+0x14>
8000147e: 7506         	ld	a0, 0x60(sp)
80001480: 00000097     	auipc	ra, 0x0
80001484: e5c080e7     	jalr	-0x1a4(ra) <lab4_kernel_task2::pte_is_leaf::h4b7c97adf8c84adf>
80001488: f569         	bnez	a0, 0x80001452 <.Lpcrel_hi51+0x10>
8000148a: a009         	j	0x8000148c <.Lpcrel_hi51+0x4a>
8000148c: 7506         	ld	a0, 0x60(sp)
8000148e: 00003097     	auipc	ra, 0x3
80001492: b52080e7     	jalr	-0x4ae(ra) <lab4_kernel_task2::pte_to_pa::h4668a551d4fdc628>
80001496: 85aa         	mv	a1, a0
80001498: f02e         	sd	a1, 0x20(sp)
8000149a: 85aa         	mv	a1, a0
8000149c: f42e         	sd	a1, 0x28(sp)
8000149e: 1552         	slli	a0, a0, 0x34
800014a0: e509         	bnez	a0, 0x800014aa <.Lpcrel_hi51+0x68>
800014a2: a009         	j	0x800014a4 <.Lpcrel_hi51+0x62>
800014a4: 7502         	ld	a0, 0x20(sp)
800014a6: ed01         	bnez	a0, 0x800014be <.Lpcrel_hi52+0x12>
800014a8: a025         	j	0x800014d0 <.Lpcrel_hi53>
800014aa: 75a2         	ld	a1, 0x28(sp)

00000000800014ac <.Lpcrel_hi52>:
800014ac: 00006517     	auipc	a0, 0x6
800014b0: a2c50613     	addi	a2, a0, -0x5d4
800014b4: 6505         	lui	a0, 0x1
800014b6: 00005097     	auipc	ra, 0x5
800014ba: 9a6080e7     	jalr	-0x65a(ra) <core::panicking::panic_misaligned_pointer_dereference::hda85f7fb51d959f0>
800014be: 7502         	ld	a0, 0x20(sp)
800014c0: ed2a         	sd	a0, 0x98(sp)
800014c2: 6546         	ld	a0, 0x50(sp)
800014c4: ec2a         	sd	a0, 0x18(sp)
800014c6: 20000593     	li	a1, 0x200
800014ca: 00b56b63     	bltu	a0, a1, 0x800014e0 <.Lpcrel_hi53+0x10>
800014ce: a035         	j	0x800014fa <.Lpcrel_hi53+0x2a>

00000000800014d0 <.Lpcrel_hi53>:
800014d0: 00006517     	auipc	a0, 0x6
800014d4: a0850513     	addi	a0, a0, -0x5f8
800014d8: 00005097     	auipc	ra, 0x5
800014dc: 964080e7     	jalr	-0x69c(ra) <core::panicking::panic_null_pointer_dereference::hbac6411af4f2e916>
800014e0: 7502         	ld	a0, 0x20(sp)
800014e2: 65e2         	ld	a1, 0x18(sp)
800014e4: 058e         	slli	a1, a1, 0x3
800014e6: 952e         	add	a0, a0, a1
800014e8: 6108         	ld	a0, 0x0(a0)
800014ea: f4aa         	sd	a0, 0x68(sp)
800014ec: 7526         	ld	a0, 0x68(sp)
800014ee: 00000097     	auipc	ra, 0x0
800014f2: e8a080e7     	jalr	-0x176(ra) <lab4_kernel_task2::pte_is_valid::hcf3d742da30fb2ce>
800014f6: e139         	bnez	a0, 0x8000153c <.Lpcrel_hi54+0x40>
800014f8: a821         	j	0x80001510 <.Lpcrel_hi54+0x14>
800014fa: 6562         	ld	a0, 0x18(sp)

00000000800014fc <.Lpcrel_hi54>:
800014fc: 00006597     	auipc	a1, 0x6
80001500: 9f458613     	addi	a2, a1, -0x60c
80001504: 20000593     	li	a1, 0x200
80001508: 00005097     	auipc	ra, 0x5
8000150c: 8c8080e7     	jalr	-0x738(ra) <core::panicking::panic_bounds_check::h6aaee0d15e0261eb>
80001510: 75c2         	ld	a1, 0x30(sp)
80001512: 4505         	li	a0, 0x1
80001514: fcaa         	sd	a0, 0x78(sp)
80001516: 7526         	ld	a0, 0x68(sp)
80001518: e12a         	sd	a0, 0x80(sp)
8000151a: 650a         	ld	a0, 0x80(sp)
8000151c: fd88         	sd	a0, 0x38(a1)
8000151e: 7566         	ld	a0, 0x78(sp)
80001520: f988         	sd	a0, 0x30(a1)
80001522: 7546         	ld	a0, 0x70(sp)
80001524: f588         	sd	a0, 0x28(a1)
80001526: 7526         	ld	a0, 0x68(sp)
80001528: f188         	sd	a0, 0x20(a1)
8000152a: 7506         	ld	a0, 0x60(sp)
8000152c: ed88         	sd	a0, 0x18(a1)
8000152e: 6566         	ld	a0, 0x58(sp)
80001530: e988         	sd	a0, 0x10(a1)
80001532: 6546         	ld	a0, 0x50(sp)
80001534: e588         	sd	a0, 0x8(a1)
80001536: 6526         	ld	a0, 0x48(sp)
80001538: e188         	sd	a0, 0x0(a1)
8000153a: a84d         	j	0x800015ec <.Lpcrel_hi57+0x14>
8000153c: 7526         	ld	a0, 0x68(sp)
8000153e: 00000097     	auipc	ra, 0x0
80001542: d9e080e7     	jalr	-0x262(ra) <lab4_kernel_task2::pte_is_leaf::h4b7c97adf8c84adf>
80001546: f569         	bnez	a0, 0x80001510 <.Lpcrel_hi54+0x14>
80001548: a009         	j	0x8000154a <.Lpcrel_hi54+0x4e>
8000154a: 7526         	ld	a0, 0x68(sp)
8000154c: 00003097     	auipc	ra, 0x3
80001550: a94080e7     	jalr	-0x56c(ra) <lab4_kernel_task2::pte_to_pa::h4668a551d4fdc628>
80001554: 85aa         	mv	a1, a0
80001556: e42e         	sd	a1, 0x8(sp)
80001558: 85aa         	mv	a1, a0
8000155a: e82e         	sd	a1, 0x10(sp)
8000155c: 1552         	slli	a0, a0, 0x34
8000155e: e509         	bnez	a0, 0x80001568 <.Lpcrel_hi54+0x6c>
80001560: a009         	j	0x80001562 <.Lpcrel_hi54+0x66>
80001562: 6522         	ld	a0, 0x8(sp)
80001564: ed01         	bnez	a0, 0x8000157c <.Lpcrel_hi55+0x12>
80001566: a025         	j	0x8000158e <.Lpcrel_hi56>
80001568: 65c2         	ld	a1, 0x10(sp)

000000008000156a <.Lpcrel_hi55>:
8000156a: 00006517     	auipc	a0, 0x6
8000156e: 99e50613     	addi	a2, a0, -0x662
80001572: 6505         	lui	a0, 0x1
80001574: 00005097     	auipc	ra, 0x5
80001578: 8e8080e7     	jalr	-0x718(ra) <core::panicking::panic_misaligned_pointer_dereference::hda85f7fb51d959f0>
8000157c: 6522         	ld	a0, 0x8(sp)
8000157e: f12a         	sd	a0, 0xa0(sp)
80001580: 6566         	ld	a0, 0x58(sp)
80001582: e02a         	sd	a0, 0x0(sp)
80001584: 20000593     	li	a1, 0x200
80001588: 00b56b63     	bltu	a0, a1, 0x8000159e <.Lpcrel_hi56+0x10>
8000158c: a0a9         	j	0x800015d6 <.Lpcrel_hi56+0x48>

000000008000158e <.Lpcrel_hi56>:
8000158e: 00006517     	auipc	a0, 0x6
80001592: 97a50513     	addi	a0, a0, -0x686
80001596: 00005097     	auipc	ra, 0x5
8000159a: 8a6080e7     	jalr	-0x75a(ra) <core::panicking::panic_null_pointer_dereference::hbac6411af4f2e916>
8000159e: 75c2         	ld	a1, 0x30(sp)
800015a0: 6522         	ld	a0, 0x8(sp)
800015a2: 6602         	ld	a2, 0x0(sp)
800015a4: 060e         	slli	a2, a2, 0x3
800015a6: 9532         	add	a0, a0, a2
800015a8: 6108         	ld	a0, 0x0(a0)
800015aa: f8aa         	sd	a0, 0x70(sp)
800015ac: 4501         	li	a0, 0x0
800015ae: fcaa         	sd	a0, 0x78(sp)
800015b0: 7546         	ld	a0, 0x70(sp)
800015b2: e12a         	sd	a0, 0x80(sp)
800015b4: 650a         	ld	a0, 0x80(sp)
800015b6: fd88         	sd	a0, 0x38(a1)
800015b8: 7566         	ld	a0, 0x78(sp)
800015ba: f988         	sd	a0, 0x30(a1)
800015bc: 7546         	ld	a0, 0x70(sp)
800015be: f588         	sd	a0, 0x28(a1)
800015c0: 7526         	ld	a0, 0x68(sp)
800015c2: f188         	sd	a0, 0x20(a1)
800015c4: 7506         	ld	a0, 0x60(sp)
800015c6: ed88         	sd	a0, 0x18(a1)
800015c8: 6566         	ld	a0, 0x58(sp)
800015ca: e988         	sd	a0, 0x10(a1)
800015cc: 6546         	ld	a0, 0x50(sp)
800015ce: e588         	sd	a0, 0x8(a1)
800015d0: 6526         	ld	a0, 0x48(sp)
800015d2: e188         	sd	a0, 0x0(a1)
800015d4: a821         	j	0x800015ec <.Lpcrel_hi57+0x14>
800015d6: 6502         	ld	a0, 0x0(sp)

00000000800015d8 <.Lpcrel_hi57>:
800015d8: 00006597     	auipc	a1, 0x6
800015dc: 94858613     	addi	a2, a1, -0x6b8
800015e0: 20000593     	li	a1, 0x200
800015e4: 00004097     	auipc	ra, 0x4
800015e8: 7ec080e7     	jalr	0x7ec(ra) <core::panicking::panic_bounds_check::h6aaee0d15e0261eb>
800015ec: 70aa         	ld	ra, 0xa8(sp)
800015ee: 614d         	addi	sp, sp, 0xb0
800015f0: 8082         	ret

00000000800015f2 <lab4_kernel_task2::configure_pmp::hd2e1b8f3188179a2>:
800015f2: 557d         	li	a0, -0x1
800015f4: 8109         	srli	a0, a0, 0x2
800015f6: 3b051073     	csrw	pmpaddr0, a0
800015fa: 457d         	li	a0, 0x1f
800015fc: 3a051073     	csrw	pmpcfg0, a0
80001600: 8082         	ret

0000000080001602 <lab4_kernel_task2::vma_kind_name::h5b2d98d122f04424>:
80001602: 1101         	addi	sp, sp, -0x20
80001604: e02a         	sd	a0, 0x0(sp)
80001606: ec2a         	sd	a0, 0x18(sp)
80001608: 4585         	li	a1, 0x1
8000160a: 02b50063     	beq	a0, a1, 0x8000162a <.Lpcrel_hi59>
8000160e: a009         	j	0x80001610 <lab4_kernel_task2::vma_kind_name::h5b2d98d122f04424+0xe>
80001610: 6502         	ld	a0, 0x0(sp)
80001612: 4589         	li	a1, 0x2
80001614: 02b50363     	beq	a0, a1, 0x8000163a <.Lpcrel_hi60>
80001618: a009         	j	0x8000161a <.Lpcrel_hi58>

000000008000161a <.Lpcrel_hi58>:
8000161a: 00006517     	auipc	a0, 0x6
8000161e: 93250513     	addi	a0, a0, -0x6ce
80001622: e42a         	sd	a0, 0x8(sp)
80001624: 451d         	li	a0, 0x7
80001626: e82a         	sd	a0, 0x10(sp)
80001628: a00d         	j	0x8000164a <.Lpcrel_hi60+0x10>

000000008000162a <.Lpcrel_hi59>:
8000162a: 00006517     	auipc	a0, 0x6
8000162e: 91e50513     	addi	a0, a0, -0x6e2
80001632: e42a         	sd	a0, 0x8(sp)
80001634: 4511         	li	a0, 0x4
80001636: e82a         	sd	a0, 0x10(sp)
80001638: a809         	j	0x8000164a <.Lpcrel_hi60+0x10>

000000008000163a <.Lpcrel_hi60>:
8000163a: 00006517     	auipc	a0, 0x6
8000163e: 90650513     	addi	a0, a0, -0x6fa
80001642: e42a         	sd	a0, 0x8(sp)
80001644: 4511         	li	a0, 0x4
80001646: e82a         	sd	a0, 0x10(sp)
80001648: a009         	j	0x8000164a <.Lpcrel_hi60+0x10>
8000164a: 6522         	ld	a0, 0x8(sp)
8000164c: 65c2         	ld	a1, 0x10(sp)
8000164e: 6105         	addi	sp, sp, 0x20
80001650: 8082         	ret

0000000080001652 <lab4_kernel_task2::find_vma_index::h91779e8ae5909b43>:
80001652: 7135         	addi	sp, sp, -0xa0
80001654: ed06         	sd	ra, 0x98(sp)
80001656: ec2a         	sd	a0, 0x18(sp)
80001658: e52a         	sd	a0, 0x88(sp)
8000165a: 4501         	li	a0, 0x0
8000165c: 4591         	li	a1, 0x4
8000165e: 00003097     	auipc	ra, 0x3
80001662: 340080e7     	jalr	0x340(ra) <_$LT$I$u20$as$u20$core..iter..traits..collect..IntoIterator$GT$::into_iter::h1fc85f52cf5a3515>
80001666: f82a         	sd	a0, 0x30(sp)
80001668: fc2e         	sd	a1, 0x38(sp)
8000166a: a009         	j	0x8000166c <lab4_kernel_task2::find_vma_index::h91779e8ae5909b43+0x1a>
8000166c: 1808         	addi	a0, sp, 0x30
8000166e: 00003097     	auipc	ra, 0x3
80001672: 31c080e7     	jalr	0x31c(ra) <core::iter::range::_$LT$impl$u20$core..iter..traits..iterator..Iterator$u20$for$u20$core..ops..range..Range$LT$A$GT$$GT$::next::h1cbf565076fd6def>
80001676: e0aa         	sd	a0, 0x40(sp)
80001678: e4ae         	sd	a1, 0x48(sp)
8000167a: 6506         	ld	a0, 0x40(sp)
8000167c: 8905         	andi	a0, a0, 0x1
8000167e: c919         	beqz	a0, 0x80001694 <lab4_kernel_task2::find_vma_index::h91779e8ae5909b43+0x42>
80001680: a009         	j	0x80001682 <lab4_kernel_task2::find_vma_index::h91779e8ae5909b43+0x30>
80001682: 6526         	ld	a0, 0x48(sp)
80001684: e42a         	sd	a0, 0x8(sp)
80001686: e92a         	sd	a0, 0x90(sp)
80001688: 4591         	li	a1, 0x4
8000168a: 862a         	mv	a2, a0
8000168c: e832         	sd	a2, 0x10(sp)
8000168e: 00b56b63     	bltu	a0, a1, 0x800016a4 <.Lpcrel_hi61>
80001692: a839         	j	0x800016b0 <.Lpcrel_hi61+0xc>
80001694: 4501         	li	a0, 0x0
80001696: f02a         	sd	a0, 0x20(sp)
80001698: a009         	j	0x8000169a <lab4_kernel_task2::find_vma_index::h91779e8ae5909b43+0x48>
8000169a: 7502         	ld	a0, 0x20(sp)
8000169c: 75a2         	ld	a1, 0x28(sp)
8000169e: 60ea         	ld	ra, 0x98(sp)
800016a0: 610d         	addi	sp, sp, 0xa0
800016a2: 8082         	ret

00000000800016a4 <.Lpcrel_hi61>:
800016a4: 00022517     	auipc	a0, 0x22
800016a8: 95c50513     	addi	a0, a0, -0x6a4
800016ac: ed01         	bnez	a0, 0x800016c4 <.Lpcrel_hi62+0x12>
800016ae: a891         	j	0x80001702 <.Lpcrel_hi64>
800016b0: 6542         	ld	a0, 0x10(sp)

00000000800016b2 <.Lpcrel_hi62>:
800016b2: 00006597     	auipc	a1, 0x6
800016b6: 8a658613     	addi	a2, a1, -0x75a
800016ba: 4591         	li	a1, 0x4
800016bc: 00004097     	auipc	ra, 0x4
800016c0: 714080e7     	jalr	0x714(ra) <core::panicking::panic_bounds_check::h6aaee0d15e0261eb>
800016c4: 6522         	ld	a0, 0x8(sp)
800016c6: 00351593     	slli	a1, a0, 0x3
800016ca: 051a         	slli	a0, a0, 0x6
800016cc: 40b505b3     	sub	a1, a0, a1

00000000800016d0 <.Lpcrel_hi63>:
800016d0: 00022517     	auipc	a0, 0x22
800016d4: 93050513     	addi	a0, a0, -0x6d0
800016d8: 952e         	add	a0, a0, a1
800016da: 790c         	ld	a1, 0x30(a0)
800016dc: e12e         	sd	a1, 0x80(sp)
800016de: 750c         	ld	a1, 0x28(a0)
800016e0: fcae         	sd	a1, 0x78(sp)
800016e2: 710c         	ld	a1, 0x20(a0)
800016e4: f8ae         	sd	a1, 0x70(sp)
800016e6: 6d0c         	ld	a1, 0x18(a0)
800016e8: f4ae         	sd	a1, 0x68(sp)
800016ea: 690c         	ld	a1, 0x10(a0)
800016ec: f0ae         	sd	a1, 0x60(sp)
800016ee: 650c         	ld	a1, 0x8(a0)
800016f0: ecae         	sd	a1, 0x58(sp)
800016f2: 6108         	ld	a0, 0x0(a0)
800016f4: e8aa         	sd	a0, 0x50(sp)
800016f6: 08014503     	lbu	a0, 0x80(sp)
800016fa: 8905         	andi	a0, a0, 0x1
800016fc: e919         	bnez	a0, 0x80001712 <.Lpcrel_hi64+0x10>
800016fe: a009         	j	0x80001700 <.Lpcrel_hi63+0x30>
80001700: b7b5         	j	0x8000166c <lab4_kernel_task2::find_vma_index::h91779e8ae5909b43+0x1a>

0000000080001702 <.Lpcrel_hi64>:
80001702: 00006517     	auipc	a0, 0x6
80001706: 85650513     	addi	a0, a0, -0x7aa
8000170a: 00004097     	auipc	ra, 0x4
8000170e: 732080e7     	jalr	0x732(ra) <core::panicking::panic_null_pointer_dereference::hbac6411af4f2e916>
80001712: 6562         	ld	a0, 0x18(sp)
80001714: 65c6         	ld	a1, 0x50(sp)
80001716: feb565e3     	bltu	a0, a1, 0x80001700 <.Lpcrel_hi63+0x30>
8000171a: a009         	j	0x8000171c <.Lpcrel_hi64+0x1a>
8000171c: 6562         	ld	a0, 0x18(sp)
8000171e: 6622         	ld	a2, 0x8(sp)
80001720: 65e6         	ld	a1, 0x58(sp)
80001722: e032         	sd	a2, 0x0(sp)
80001724: fcb57ee3     	bgeu	a0, a1, 0x80001700 <.Lpcrel_hi63+0x30>
80001728: a009         	j	0x8000172a <.Lpcrel_hi64+0x28>
8000172a: 6502         	ld	a0, 0x0(sp)
8000172c: f42a         	sd	a0, 0x28(sp)
8000172e: 4505         	li	a0, 0x1
80001730: f02a         	sd	a0, 0x20(sp)
80001732: b7a5         	j	0x8000169a <lab4_kernel_task2::find_vma_index::h91779e8ae5909b43+0x48>

0000000080001734 <lab4_kernel_task2::vma_flags_name::hc98bd25875ae9d4e>:
80001734: 1101         	addi	sp, sp, -0x20
80001736: e02a         	sd	a0, 0x0(sp)
80001738: ec2a         	sd	a0, 0x18(sp)
8000173a: 458d         	li	a1, 0x3
8000173c: 00b50863     	beq	a0, a1, 0x8000174c <.Lpcrel_hi65>
80001740: a009         	j	0x80001742 <lab4_kernel_task2::vma_flags_name::hc98bd25875ae9d4e+0xe>
80001742: 6502         	ld	a0, 0x0(sp)
80001744: 4585         	li	a1, 0x1
80001746: 02b50063     	beq	a0, a1, 0x80001766 <.Lpcrel_hi66>
8000174a: a809         	j	0x8000175c <.Lpcrel_hi65+0x10>

000000008000174c <.Lpcrel_hi65>:
8000174c: 00006517     	auipc	a0, 0x6
80001750: 82750513     	addi	a0, a0, -0x7d9
80001754: e42a         	sd	a0, 0x8(sp)
80001756: 4509         	li	a0, 0x2
80001758: e82a         	sd	a0, 0x10(sp)
8000175a: a835         	j	0x80001796 <.Lpcrel_hi68+0x10>
8000175c: 6502         	ld	a0, 0x0(sp)
8000175e: 4589         	li	a1, 0x2
80001760: 02b50363     	beq	a0, a1, 0x80001786 <.Lpcrel_hi68>
80001764: a809         	j	0x80001776 <.Lpcrel_hi67>

0000000080001766 <.Lpcrel_hi66>:
80001766: 00006517     	auipc	a0, 0x6
8000176a: 80c50513     	addi	a0, a0, -0x7f4
8000176e: e42a         	sd	a0, 0x8(sp)
80001770: 4505         	li	a0, 0x1
80001772: e82a         	sd	a0, 0x10(sp)
80001774: a00d         	j	0x80001796 <.Lpcrel_hi68+0x10>

0000000080001776 <.Lpcrel_hi67>:
80001776: 00005517     	auipc	a0, 0x5
8000177a: 7fa50513     	addi	a0, a0, 0x7fa
8000177e: e42a         	sd	a0, 0x8(sp)
80001780: 4505         	li	a0, 0x1
80001782: e82a         	sd	a0, 0x10(sp)
80001784: a809         	j	0x80001796 <.Lpcrel_hi68+0x10>

0000000080001786 <.Lpcrel_hi68>:
80001786: 00005517     	auipc	a0, 0x5
8000178a: 7eb50513     	addi	a0, a0, 0x7eb
8000178e: e42a         	sd	a0, 0x8(sp)
80001790: 4505         	li	a0, 0x1
80001792: e82a         	sd	a0, 0x10(sp)
80001794: a009         	j	0x80001796 <.Lpcrel_hi68+0x10>
80001796: 6522         	ld	a0, 0x8(sp)
80001798: 65c2         	ld	a1, 0x10(sp)
8000179a: 6105         	addi	sp, sp, 0x20
8000179c: 8082         	ret

000000008000179e <lab4_kernel_task2::dev_l0_table_pa::hfceb242520ea856c>:
8000179e: 0001d517     	auipc	a0, 0x1d
800017a2: 86250513     	addi	a0, a0, -0x79e
800017a6: 8082         	ret

00000000800017a8 <lab4_kernel_task2::fault_kind_name::h2a1b35312c51c2a8>:
800017a8: 1101         	addi	sp, sp, -0x20
800017aa: e02a         	sd	a0, 0x0(sp)
800017ac: ec2a         	sd	a0, 0x18(sp)
800017ae: 45b5         	li	a1, 0xd
800017b0: 02b50063     	beq	a0, a1, 0x800017d0 <.Lpcrel_hi71>
800017b4: a009         	j	0x800017b6 <lab4_kernel_task2::fault_kind_name::h2a1b35312c51c2a8+0xe>
800017b6: 6502         	ld	a0, 0x0(sp)
800017b8: 45bd         	li	a1, 0xf
800017ba: 02b50363     	beq	a0, a1, 0x800017e0 <.Lpcrel_hi72>
800017be: a009         	j	0x800017c0 <.Lpcrel_hi70>

00000000800017c0 <.Lpcrel_hi70>:
800017c0: 00005517     	auipc	a0, 0x5
800017c4: 78c50513     	addi	a0, a0, 0x78c
800017c8: e42a         	sd	a0, 0x8(sp)
800017ca: 451d         	li	a0, 0x7
800017cc: e82a         	sd	a0, 0x10(sp)
800017ce: a00d         	j	0x800017f0 <.Lpcrel_hi72+0x10>

00000000800017d0 <.Lpcrel_hi71>:
800017d0: 00005517     	auipc	a0, 0x5
800017d4: 76850513     	addi	a0, a0, 0x768
800017d8: e42a         	sd	a0, 0x8(sp)
800017da: 4511         	li	a0, 0x4
800017dc: e82a         	sd	a0, 0x10(sp)
800017de: a809         	j	0x800017f0 <.Lpcrel_hi72+0x10>

00000000800017e0 <.Lpcrel_hi72>:
800017e0: 00005517     	auipc	a0, 0x5
800017e4: 79550513     	addi	a0, a0, 0x795
800017e8: e42a         	sd	a0, 0x8(sp)
800017ea: 4515         	li	a0, 0x5
800017ec: e82a         	sd	a0, 0x10(sp)
800017ee: a009         	j	0x800017f0 <.Lpcrel_hi72+0x10>
800017f0: 6522         	ld	a0, 0x8(sp)
800017f2: 65c2         	ld	a1, 0x10(sp)
800017f4: 6105         	addi	sp, sp, 0x20
800017f6: 8082         	ret

00000000800017f8 <lab4_kernel_task2::leaf_level_name::h383b6c8dd62b902d>:
800017f8: 1101         	addi	sp, sp, -0x20
800017fa: e02a         	sd	a0, 0x0(sp)
800017fc: ec2a         	sd	a0, 0x18(sp)
800017fe: c505         	beqz	a0, 0x80001826 <.Lpcrel_hi74>
80001800: a009         	j	0x80001802 <lab4_kernel_task2::leaf_level_name::h383b6c8dd62b902d+0xa>
80001802: 6502         	ld	a0, 0x0(sp)
80001804: 4585         	li	a1, 0x1
80001806: 02b50863     	beq	a0, a1, 0x80001836 <.Lpcrel_hi75>
8000180a: a009         	j	0x8000180c <lab4_kernel_task2::leaf_level_name::h383b6c8dd62b902d+0x14>
8000180c: 6502         	ld	a0, 0x0(sp)
8000180e: 4589         	li	a1, 0x2
80001810: 02b50b63     	beq	a0, a1, 0x80001846 <.Lpcrel_hi76>
80001814: a009         	j	0x80001816 <.Lpcrel_hi73>

0000000080001816 <.Lpcrel_hi73>:
80001816: 00005517     	auipc	a0, 0x5
8000181a: 77350513     	addi	a0, a0, 0x773
8000181e: e42a         	sd	a0, 0x8(sp)
80001820: 451d         	li	a0, 0x7
80001822: e82a         	sd	a0, 0x10(sp)
80001824: a80d         	j	0x80001856 <.Lpcrel_hi76+0x10>

0000000080001826 <.Lpcrel_hi74>:
80001826: 00005517     	auipc	a0, 0x5
8000182a: 75450513     	addi	a0, a0, 0x754
8000182e: e42a         	sd	a0, 0x8(sp)
80001830: 4515         	li	a0, 0x5
80001832: e82a         	sd	a0, 0x10(sp)
80001834: a00d         	j	0x80001856 <.Lpcrel_hi76+0x10>

0000000080001836 <.Lpcrel_hi75>:
80001836: 00005517     	auipc	a0, 0x5
8000183a: 74950513     	addi	a0, a0, 0x749
8000183e: e42a         	sd	a0, 0x8(sp)
80001840: 4515         	li	a0, 0x5
80001842: e82a         	sd	a0, 0x10(sp)
80001844: a809         	j	0x80001856 <.Lpcrel_hi76+0x10>

0000000080001846 <.Lpcrel_hi76>:
80001846: 00005517     	auipc	a0, 0x5
8000184a: 73e50513     	addi	a0, a0, 0x73e
8000184e: e42a         	sd	a0, 0x8(sp)
80001850: 4515         	li	a0, 0x5
80001852: e82a         	sd	a0, 0x10(sp)
80001854: a009         	j	0x80001856 <.Lpcrel_hi76+0x10>
80001856: 6522         	ld	a0, 0x8(sp)
80001858: 65c2         	ld	a1, 0x10(sp)
8000185a: 6105         	addi	sp, sp, 0x20
8000185c: 8082         	ret

000000008000185e <lab4_kernel_task2::low_l1_table_pa::hbc91b5637edf9812>:
8000185e: 0001d517     	auipc	a0, 0x1d
80001862: 7a250513     	addi	a0, a0, 0x7a2
80001866: 8082         	ret

0000000080001868 <lab4_kernel_task2::user_shared_mut::h682574e31c2573d8>:
80001868: 1141         	addi	sp, sp, -0x10

000000008000186a <.Lpcrel_hi78>:
8000186a: 0001b517     	auipc	a0, 0x1b
8000186e: 79650513     	addi	a0, a0, 0x796
80001872: e02a         	sd	a0, 0x0(sp)
80001874: e42a         	sd	a0, 0x8(sp)
80001876: 891d         	andi	a0, a0, 0x7
80001878: e901         	bnez	a0, 0x80001888 <.Lpcrel_hi79+0xc>
8000187a: a009         	j	0x8000187c <.Lpcrel_hi79>

000000008000187c <.Lpcrel_hi79>:
8000187c: 0001b517     	auipc	a0, 0x1b
80001880: 78450513     	addi	a0, a0, 0x784
80001884: ed01         	bnez	a0, 0x8000189c <.Lpcrel_hi81>
80001886: a00d         	j	0x800018a8 <.Lpcrel_hi82>
80001888: 6582         	ld	a1, 0x0(sp)

000000008000188a <.Lpcrel_hi80>:
8000188a: 00005517     	auipc	a0, 0x5
8000188e: 70650613     	addi	a2, a0, 0x706
80001892: 4521         	li	a0, 0x8
80001894: 00004097     	auipc	ra, 0x4
80001898: 5c8080e7     	jalr	0x5c8(ra) <core::panicking::panic_misaligned_pointer_dereference::hda85f7fb51d959f0>

000000008000189c <.Lpcrel_hi81>:
8000189c: 0001b517     	auipc	a0, 0x1b
800018a0: 76450513     	addi	a0, a0, 0x764
800018a4: 0141         	addi	sp, sp, 0x10
800018a6: 8082         	ret

00000000800018a8 <.Lpcrel_hi82>:
800018a8: 00005517     	auipc	a0, 0x5
800018ac: 6e850513     	addi	a0, a0, 0x6e8
800018b0: 00004097     	auipc	ra, 0x4
800018b4: 58c080e7     	jalr	0x58c(ra) <core::panicking::panic_null_pointer_dereference::hbac6411af4f2e916>

00000000800018b8 <lab4_kernel_task2::clear_page_table::ha2367520ae313da8>:
800018b8: 711d         	addi	sp, sp, -0x60
800018ba: ec86         	sd	ra, 0x58(sp)
800018bc: f02a         	sd	a0, 0x20(sp)
800018be: e4aa         	sd	a0, 0x48(sp)
800018c0: 4501         	li	a0, 0x0
800018c2: 20000593     	li	a1, 0x200
800018c6: 00003097     	auipc	ra, 0x3
800018ca: 0d8080e7     	jalr	0xd8(ra) <_$LT$I$u20$as$u20$core..iter..traits..collect..IntoIterator$GT$::into_iter::h1fc85f52cf5a3515>
800018ce: f42a         	sd	a0, 0x28(sp)
800018d0: f82e         	sd	a1, 0x30(sp)
800018d2: a009         	j	0x800018d4 <lab4_kernel_task2::clear_page_table::ha2367520ae313da8+0x1c>
800018d4: 1028         	addi	a0, sp, 0x28
800018d6: 00003097     	auipc	ra, 0x3
800018da: 0b4080e7     	jalr	0xb4(ra) <core::iter::range::_$LT$impl$u20$core..iter..traits..iterator..Iterator$u20$for$u20$core..ops..range..Range$LT$A$GT$$GT$::next::h1cbf565076fd6def>
800018de: fc2a         	sd	a0, 0x38(sp)
800018e0: e0ae         	sd	a1, 0x40(sp)
800018e2: 7562         	ld	a0, 0x38(sp)
800018e4: 8905         	andi	a0, a0, 0x1
800018e6: cd01         	beqz	a0, 0x800018fe <lab4_kernel_task2::clear_page_table::ha2367520ae313da8+0x46>
800018e8: a009         	j	0x800018ea <lab4_kernel_task2::clear_page_table::ha2367520ae313da8+0x32>
800018ea: 6506         	ld	a0, 0x40(sp)
800018ec: e82a         	sd	a0, 0x10(sp)
800018ee: e8aa         	sd	a0, 0x50(sp)
800018f0: 20000593     	li	a1, 0x200
800018f4: 862a         	mv	a2, a0
800018f6: ec32         	sd	a2, 0x18(sp)
800018f8: 00b56663     	bltu	a0, a1, 0x80001904 <lab4_kernel_task2::clear_page_table::ha2367520ae313da8+0x4c>
800018fc: a811         	j	0x80001910 <lab4_kernel_task2::clear_page_table::ha2367520ae313da8+0x58>
800018fe: 60e6         	ld	ra, 0x58(sp)
80001900: 6125         	addi	sp, sp, 0x60
80001902: 8082         	ret
80001904: 7502         	ld	a0, 0x20(sp)
80001906: 85aa         	mv	a1, a0
80001908: 1552         	slli	a0, a0, 0x34
8000190a: e42e         	sd	a1, 0x8(sp)
8000190c: cd09         	beqz	a0, 0x80001926 <.Lpcrel_hi83+0x14>
8000190e: a839         	j	0x8000192c <.Lpcrel_hi83+0x1a>
80001910: 6562         	ld	a0, 0x18(sp)

0000000080001912 <.Lpcrel_hi83>:
80001912: 00005597     	auipc	a1, 0x5
80001916: 69658613     	addi	a2, a1, 0x696
8000191a: 20000593     	li	a1, 0x200
8000191e: 00004097     	auipc	ra, 0x4
80001922: 4b2080e7     	jalr	0x4b2(ra) <core::panicking::panic_bounds_check::h6aaee0d15e0261eb>
80001926: 7502         	ld	a0, 0x20(sp)
80001928: ed01         	bnez	a0, 0x80001940 <.Lpcrel_hi84+0x12>
8000192a: a015         	j	0x8000194e <.Lpcrel_hi85>
8000192c: 65a2         	ld	a1, 0x8(sp)

000000008000192e <.Lpcrel_hi84>:
8000192e: 00005517     	auipc	a0, 0x5
80001932: 67a50613     	addi	a2, a0, 0x67a
80001936: 6505         	lui	a0, 0x1
80001938: 00004097     	auipc	ra, 0x4
8000193c: 524080e7     	jalr	0x524(ra) <core::panicking::panic_misaligned_pointer_dereference::hda85f7fb51d959f0>
80001940: 7502         	ld	a0, 0x20(sp)
80001942: 65c2         	ld	a1, 0x10(sp)
80001944: 058e         	slli	a1, a1, 0x3
80001946: 95aa         	add	a1, a1, a0
80001948: 4501         	li	a0, 0x0
8000194a: e188         	sd	a0, 0x0(a1)
8000194c: b761         	j	0x800018d4 <lab4_kernel_task2::clear_page_table::ha2367520ae313da8+0x1c>

000000008000194e <.Lpcrel_hi85>:
8000194e: 00005517     	auipc	a0, 0x5
80001952: 65a50513     	addi	a0, a0, 0x65a
80001956: 00004097     	auipc	ra, 0x4
8000195a: 4e6080e7     	jalr	0x4e6(ra) <core::panicking::panic_null_pointer_dereference::hbac6411af4f2e916>

000000008000195e <lab4_kernel_task2::kernel_stack_top::haf93decafb9864e7>:
8000195e: 00025517     	auipc	a0, 0x25
80001962: 79250513     	addi	a0, a0, 0x792
80001966: 8082         	ret

0000000080001968 <lab4_kernel_task2::user_l0_table_pa::h7977c186814355a0>:
80001968: 0001e517     	auipc	a0, 0x1e
8000196c: 69850513     	addi	a0, a0, 0x698
80001970: 8082         	ret

0000000080001972 <lab4_kernel_task2::user_program_len::h5a4910e0ef54caec>:
80001972: fffff517     	auipc	a0, 0xfffff
80001976: 0ae50593     	addi	a1, a0, 0xae

000000008000197a <.Lpcrel_hi89>:
8000197a: fffff517     	auipc	a0, 0xfffff
8000197e: 1b250513     	addi	a0, a0, 0x1b2
80001982: 00b56d63     	bltu	a0, a1, 0x8000199c <.Lpcrel_hi92>
80001986: a009         	j	0x80001988 <.Lpcrel_hi90>

0000000080001988 <.Lpcrel_hi90>:
80001988: fffff517     	auipc	a0, 0xfffff
8000198c: 09850593     	addi	a1, a0, 0x98

0000000080001990 <.Lpcrel_hi91>:
80001990: fffff517     	auipc	a0, 0xfffff
80001994: 19c50513     	addi	a0, a0, 0x19c
80001998: 8d0d         	sub	a0, a0, a1
8000199a: 8082         	ret

000000008000199c <.Lpcrel_hi92>:
8000199c: 00005517     	auipc	a0, 0x5
800019a0: 62450513     	addi	a0, a0, 0x624
800019a4: 00004097     	auipc	ra, 0x4
800019a8: 3f0080e7     	jalr	0x3f0(ra) <core::panicking::panic_const::panic_const_sub_overflow::hccc965ba9198de7c>

00000000800019ac <lab4_kernel_task2::build_page_tables::hb937c8549d376f87>:
800019ac: 7111         	addi	sp, sp, -0x100
800019ae: fd86         	sd	ra, 0xf8(sp)

00000000800019b0 <.Lpcrel_hi93>:
800019b0: 00019517     	auipc	a0, 0x19
800019b4: 65050513     	addi	a0, a0, 0x650
800019b8: 00000097     	auipc	ra, 0x0
800019bc: f00080e7     	jalr	-0x100(ra) <lab4_kernel_task2::clear_page_table::ha2367520ae313da8>

00000000800019c0 <.Lpcrel_hi94>:
800019c0: 0001d517     	auipc	a0, 0x1d
800019c4: 64050513     	addi	a0, a0, 0x640
800019c8: 00000097     	auipc	ra, 0x0
800019cc: ef0080e7     	jalr	-0x110(ra) <lab4_kernel_task2::clear_page_table::ha2367520ae313da8>

00000000800019d0 <.Lpcrel_hi95>:
800019d0: 0001c517     	auipc	a0, 0x1c
800019d4: 63050513     	addi	a0, a0, 0x630
800019d8: 00000097     	auipc	ra, 0x0
800019dc: ee0080e7     	jalr	-0x120(ra) <lab4_kernel_task2::clear_page_table::ha2367520ae313da8>

00000000800019e0 <.Lpcrel_hi96>:
800019e0: 0001e517     	auipc	a0, 0x1e
800019e4: 62050513     	addi	a0, a0, 0x620
800019e8: 00000097     	auipc	ra, 0x0
800019ec: ed0080e7     	jalr	-0x130(ra) <lab4_kernel_task2::clear_page_table::ha2367520ae313da8>

00000000800019f0 <.Lpcrel_hi97>:
800019f0: 00020517     	auipc	a0, 0x20
800019f4: 61050513     	addi	a0, a0, 0x610
800019f8: 00000097     	auipc	ra, 0x0
800019fc: ec0080e7     	jalr	-0x140(ra) <lab4_kernel_task2::clear_page_table::ha2367520ae313da8>
80001a00: 00001097     	auipc	ra, 0x1
80001a04: a7c080e7     	jalr	-0x584(ra) <lab4_kernel_task2::kernel_l1_table_pa::h7c76110a63639229>
80001a08: 00002097     	auipc	ra, 0x2
80001a0c: 63a080e7     	jalr	0x63a(ra) <lab4_kernel_task2::table_pte::hfc59d0a0b2f4dd2e>
80001a10: fd2a         	sd	a0, 0xb8(sp)
80001a12: 4505         	li	a0, 0x1
80001a14: 057e         	slli	a0, a0, 0x1f
80001a16: 00000097     	auipc	ra, 0x0
80001a1a: 878080e7     	jalr	-0x788(ra) <lab4_kernel_task2::vpn2_index::hc37c025970512cf1>
80001a1e: 85aa         	mv	a1, a0
80001a20: 852e         	mv	a0, a1
80001a22: e1aa         	sd	a0, 0xc0(sp)
80001a24: 1ff00513     	li	a0, 0x1ff
80001a28: 00b56a63     	bltu	a0, a1, 0x80001a3c <.Lpcrel_hi98+0xe>
80001a2c: a009         	j	0x80001a2e <.Lpcrel_hi98>

0000000080001a2e <.Lpcrel_hi98>:
80001a2e: 00019517     	auipc	a0, 0x19
80001a32: 5d250513     	addi	a0, a0, 0x5d2
80001a36: 1552         	slli	a0, a0, 0x34
80001a38: cd09         	beqz	a0, 0x80001a52 <.Lpcrel_hi100>
80001a3a: a015         	j	0x80001a5e <.Lpcrel_hi101>
80001a3c: 650e         	ld	a0, 0xc0(sp)

0000000080001a3e <.Lpcrel_hi99>:
80001a3e: 00005597     	auipc	a1, 0x5
80001a42: 59a58613     	addi	a2, a1, 0x59a
80001a46: 20000593     	li	a1, 0x200
80001a4a: 00004097     	auipc	ra, 0x4
80001a4e: 386080e7     	jalr	0x386(ra) <core::panicking::panic_bounds_check::h6aaee0d15e0261eb>

0000000080001a52 <.Lpcrel_hi100>:
80001a52: 00019517     	auipc	a0, 0x19
80001a56: 5ae50513     	addi	a0, a0, 0x5ae
80001a5a: ed19         	bnez	a0, 0x80001a78 <.Lpcrel_hi102+0x12>
80001a5c: a8b1         	j	0x80001ab8 <.Lpcrel_hi104>

0000000080001a5e <.Lpcrel_hi101>:
80001a5e: 00019517     	auipc	a0, 0x19
80001a62: 5a250593     	addi	a1, a0, 0x5a2

0000000080001a66 <.Lpcrel_hi102>:
80001a66: 00005517     	auipc	a0, 0x5
80001a6a: 57250613     	addi	a2, a0, 0x572
80001a6e: 6505         	lui	a0, 0x1
80001a70: 00004097     	auipc	ra, 0x4
80001a74: 3ec080e7     	jalr	0x3ec(ra) <core::panicking::panic_misaligned_pointer_dereference::hda85f7fb51d959f0>
80001a78: 756a         	ld	a0, 0xb8(sp)
80001a7a: 658e         	ld	a1, 0xc0(sp)
80001a7c: 00359613     	slli	a2, a1, 0x3

0000000080001a80 <.Lpcrel_hi103>:
80001a80: 00019597     	auipc	a1, 0x19
80001a84: 58058593     	addi	a1, a1, 0x580
80001a88: 95b2         	add	a1, a1, a2
80001a8a: e188         	sd	a0, 0x0(a1)
80001a8c: 00000097     	auipc	ra, 0x0
80001a90: dd2080e7     	jalr	-0x22e(ra) <lab4_kernel_task2::low_l1_table_pa::hbc91b5637edf9812>
80001a94: 00002097     	auipc	ra, 0x2
80001a98: 5ae080e7     	jalr	0x5ae(ra) <lab4_kernel_task2::table_pte::hfc59d0a0b2f4dd2e>
80001a9c: f52a         	sd	a0, 0xa8(sp)
80001a9e: 00400537     	lui	a0, 0x400
80001aa2: fffff097     	auipc	ra, 0xfffff
80001aa6: 7ec080e7     	jalr	0x7ec(ra) <lab4_kernel_task2::vpn2_index::hc37c025970512cf1>
80001aaa: 85aa         	mv	a1, a0
80001aac: f92e         	sd	a1, 0xb0(sp)
80001aae: 20000593     	li	a1, 0x200
80001ab2: 00b56b63     	bltu	a0, a1, 0x80001ac8 <.Lpcrel_hi105>
80001ab6: a005         	j	0x80001ad6 <.Lpcrel_hi105+0xe>

0000000080001ab8 <.Lpcrel_hi104>:
80001ab8: 00005517     	auipc	a0, 0x5
80001abc: 52050513     	addi	a0, a0, 0x520
80001ac0: 00004097     	auipc	ra, 0x4
80001ac4: 37c080e7     	jalr	0x37c(ra) <core::panicking::panic_null_pointer_dereference::hbac6411af4f2e916>

0000000080001ac8 <.Lpcrel_hi105>:
80001ac8: 00019517     	auipc	a0, 0x19
80001acc: 53850513     	addi	a0, a0, 0x538
80001ad0: 1552         	slli	a0, a0, 0x34
80001ad2: cd09         	beqz	a0, 0x80001aec <.Lpcrel_hi107>
80001ad4: a015         	j	0x80001af8 <.Lpcrel_hi108>
80001ad6: 754a         	ld	a0, 0xb0(sp)

0000000080001ad8 <.Lpcrel_hi106>:
80001ad8: 00005597     	auipc	a1, 0x5
80001adc: 51858613     	addi	a2, a1, 0x518
80001ae0: 20000593     	li	a1, 0x200
80001ae4: 00004097     	auipc	ra, 0x4
80001ae8: 2ec080e7     	jalr	0x2ec(ra) <core::panicking::panic_bounds_check::h6aaee0d15e0261eb>

0000000080001aec <.Lpcrel_hi107>:
80001aec: 00019517     	auipc	a0, 0x19
80001af0: 51450513     	addi	a0, a0, 0x514
80001af4: ed19         	bnez	a0, 0x80001b12 <.Lpcrel_hi109+0x12>
80001af6: a8b1         	j	0x80001b52 <.Lpcrel_hi111>

0000000080001af8 <.Lpcrel_hi108>:
80001af8: 00019517     	auipc	a0, 0x19
80001afc: 50850593     	addi	a1, a0, 0x508

0000000080001b00 <.Lpcrel_hi109>:
80001b00: 00005517     	auipc	a0, 0x5
80001b04: 4f050613     	addi	a2, a0, 0x4f0
80001b08: 6505         	lui	a0, 0x1
80001b0a: 00004097     	auipc	ra, 0x4
80001b0e: 352080e7     	jalr	0x352(ra) <core::panicking::panic_misaligned_pointer_dereference::hda85f7fb51d959f0>
80001b12: 752a         	ld	a0, 0xa8(sp)
80001b14: 75ca         	ld	a1, 0xb0(sp)
80001b16: 00359613     	slli	a2, a1, 0x3

0000000080001b1a <.Lpcrel_hi110>:
80001b1a: 00019597     	auipc	a1, 0x19
80001b1e: 4e658593     	addi	a1, a1, 0x4e6
80001b22: 95b2         	add	a1, a1, a2
80001b24: e188         	sd	a0, 0x0(a1)
80001b26: 00000097     	auipc	ra, 0x0
80001b2a: c78080e7     	jalr	-0x388(ra) <lab4_kernel_task2::dev_l0_table_pa::hfceb242520ea856c>
80001b2e: 00002097     	auipc	ra, 0x2
80001b32: 514080e7     	jalr	0x514(ra) <lab4_kernel_task2::table_pte::hfc59d0a0b2f4dd2e>
80001b36: ed2a         	sd	a0, 0x98(sp)
80001b38: 00100537     	lui	a0, 0x100
80001b3c: fffff097     	auipc	ra, 0xfffff
80001b40: 746080e7     	jalr	0x746(ra) <lab4_kernel_task2::vpn1_index::h8162d0da845d4182>
80001b44: 85aa         	mv	a1, a0
80001b46: f12e         	sd	a1, 0xa0(sp)
80001b48: 20000593     	li	a1, 0x200
80001b4c: 00b56b63     	bltu	a0, a1, 0x80001b62 <.Lpcrel_hi112>
80001b50: a005         	j	0x80001b70 <.Lpcrel_hi112+0xe>

0000000080001b52 <.Lpcrel_hi111>:
80001b52: 00005517     	auipc	a0, 0x5
80001b56: 49e50513     	addi	a0, a0, 0x49e
80001b5a: 00004097     	auipc	ra, 0x4
80001b5e: 2e2080e7     	jalr	0x2e2(ra) <core::panicking::panic_null_pointer_dereference::hbac6411af4f2e916>

0000000080001b62 <.Lpcrel_hi112>:
80001b62: 0001d517     	auipc	a0, 0x1d
80001b66: 49e50513     	addi	a0, a0, 0x49e
80001b6a: 1552         	slli	a0, a0, 0x34
80001b6c: cd09         	beqz	a0, 0x80001b86 <.Lpcrel_hi114>
80001b6e: a015         	j	0x80001b92 <.Lpcrel_hi115>
80001b70: 750a         	ld	a0, 0xa0(sp)

0000000080001b72 <.Lpcrel_hi113>:
80001b72: 00005597     	auipc	a1, 0x5
80001b76: 49658613     	addi	a2, a1, 0x496
80001b7a: 20000593     	li	a1, 0x200
80001b7e: 00004097     	auipc	ra, 0x4
80001b82: 252080e7     	jalr	0x252(ra) <core::panicking::panic_bounds_check::h6aaee0d15e0261eb>

0000000080001b86 <.Lpcrel_hi114>:
80001b86: 0001d517     	auipc	a0, 0x1d
80001b8a: 47a50513     	addi	a0, a0, 0x47a
80001b8e: ed19         	bnez	a0, 0x80001bac <.Lpcrel_hi116+0x12>
80001b90: a8b9         	j	0x80001bee <.Lpcrel_hi118>

0000000080001b92 <.Lpcrel_hi115>:
80001b92: 0001d517     	auipc	a0, 0x1d
80001b96: 46e50593     	addi	a1, a0, 0x46e

0000000080001b9a <.Lpcrel_hi116>:
80001b9a: 00005517     	auipc	a0, 0x5
80001b9e: 46e50613     	addi	a2, a0, 0x46e
80001ba2: 6505         	lui	a0, 0x1
80001ba4: 00004097     	auipc	ra, 0x4
80001ba8: 2b8080e7     	jalr	0x2b8(ra) <core::panicking::panic_misaligned_pointer_dereference::hda85f7fb51d959f0>
80001bac: 656a         	ld	a0, 0x98(sp)
80001bae: 758a         	ld	a1, 0xa0(sp)
80001bb0: 00359613     	slli	a2, a1, 0x3

0000000080001bb4 <.Lpcrel_hi117>:
80001bb4: 0001d597     	auipc	a1, 0x1d
80001bb8: 44c58593     	addi	a1, a1, 0x44c
80001bbc: 95b2         	add	a1, a1, a2
80001bbe: e188         	sd	a0, 0x0(a1)
80001bc0: 00100537     	lui	a0, 0x100
80001bc4: e12a         	sd	a0, 0x80(sp)
80001bc6: 0c600593     	li	a1, 0xc6
80001bca: 00002097     	auipc	ra, 0x2
80001bce: d74080e7     	jalr	-0x28c(ra) <lab4_kernel_task2::leaf_pte::h913c485e3c294b41>
80001bd2: 85aa         	mv	a1, a0
80001bd4: 650a         	ld	a0, 0x80(sp)
80001bd6: e52e         	sd	a1, 0x88(sp)
80001bd8: fffff097     	auipc	ra, 0xfffff
80001bdc: 69e080e7     	jalr	0x69e(ra) <lab4_kernel_task2::vpn0_index::h4a2e4e22f00af019>
80001be0: 85aa         	mv	a1, a0
80001be2: e92e         	sd	a1, 0x90(sp)
80001be4: 20000593     	li	a1, 0x200
80001be8: 00b56b63     	bltu	a0, a1, 0x80001bfe <.Lpcrel_hi119>
80001bec: a005         	j	0x80001c0c <.Lpcrel_hi119+0xe>

0000000080001bee <.Lpcrel_hi118>:
80001bee: 00005517     	auipc	a0, 0x5
80001bf2: 41a50513     	addi	a0, a0, 0x41a
80001bf6: 00004097     	auipc	ra, 0x4
80001bfa: 246080e7     	jalr	0x246(ra) <core::panicking::panic_null_pointer_dereference::hbac6411af4f2e916>

0000000080001bfe <.Lpcrel_hi119>:
80001bfe: 0001c517     	auipc	a0, 0x1c
80001c02: 40250513     	addi	a0, a0, 0x402
80001c06: 1552         	slli	a0, a0, 0x34
80001c08: cd09         	beqz	a0, 0x80001c22 <.Lpcrel_hi121>
80001c0a: a015         	j	0x80001c2e <.Lpcrel_hi122>
80001c0c: 654a         	ld	a0, 0x90(sp)

0000000080001c0e <.Lpcrel_hi120>:
80001c0e: 00005597     	auipc	a1, 0x5
80001c12: 41258613     	addi	a2, a1, 0x412
80001c16: 20000593     	li	a1, 0x200
80001c1a: 00004097     	auipc	ra, 0x4
80001c1e: 1b6080e7     	jalr	0x1b6(ra) <core::panicking::panic_bounds_check::h6aaee0d15e0261eb>

0000000080001c22 <.Lpcrel_hi121>:
80001c22: 0001c517     	auipc	a0, 0x1c
80001c26: 3de50513     	addi	a0, a0, 0x3de
80001c2a: ed19         	bnez	a0, 0x80001c48 <.Lpcrel_hi123+0x12>
80001c2c: a8b9         	j	0x80001c8a <.Lpcrel_hi125>

0000000080001c2e <.Lpcrel_hi122>:
80001c2e: 0001c517     	auipc	a0, 0x1c
80001c32: 3d250593     	addi	a1, a0, 0x3d2

0000000080001c36 <.Lpcrel_hi123>:
80001c36: 00005517     	auipc	a0, 0x5
80001c3a: 3ea50613     	addi	a2, a0, 0x3ea
80001c3e: 6505         	lui	a0, 0x1
80001c40: 00004097     	auipc	ra, 0x4
80001c44: 21c080e7     	jalr	0x21c(ra) <core::panicking::panic_misaligned_pointer_dereference::hda85f7fb51d959f0>
80001c48: 652a         	ld	a0, 0x88(sp)
80001c4a: 65ca         	ld	a1, 0x90(sp)
80001c4c: 00359613     	slli	a2, a1, 0x3

0000000080001c50 <.Lpcrel_hi124>:
80001c50: 0001c597     	auipc	a1, 0x1c
80001c54: 3b058593     	addi	a1, a1, 0x3b0
80001c58: 95b2         	add	a1, a1, a2
80001c5a: e188         	sd	a0, 0x0(a1)
80001c5c: 10000537     	lui	a0, 0x10000
80001c60: f4aa         	sd	a0, 0x68(sp)
80001c62: 0c600593     	li	a1, 0xc6
80001c66: 00002097     	auipc	ra, 0x2
80001c6a: cd8080e7     	jalr	-0x328(ra) <lab4_kernel_task2::leaf_pte::h913c485e3c294b41>
80001c6e: 85aa         	mv	a1, a0
80001c70: 7526         	ld	a0, 0x68(sp)
80001c72: f8ae         	sd	a1, 0x70(sp)
80001c74: fffff097     	auipc	ra, 0xfffff
80001c78: 60e080e7     	jalr	0x60e(ra) <lab4_kernel_task2::vpn1_index::h8162d0da845d4182>
80001c7c: 85aa         	mv	a1, a0
80001c7e: fcae         	sd	a1, 0x78(sp)
80001c80: 20000593     	li	a1, 0x200
80001c84: 00b56b63     	bltu	a0, a1, 0x80001c9a <.Lpcrel_hi126>
80001c88: a005         	j	0x80001ca8 <.Lpcrel_hi126+0xe>

0000000080001c8a <.Lpcrel_hi125>:
80001c8a: 00005517     	auipc	a0, 0x5
80001c8e: 39650513     	addi	a0, a0, 0x396
80001c92: 00004097     	auipc	ra, 0x4
80001c96: 1aa080e7     	jalr	0x1aa(ra) <core::panicking::panic_null_pointer_dereference::hbac6411af4f2e916>

0000000080001c9a <.Lpcrel_hi126>:
80001c9a: 0001d517     	auipc	a0, 0x1d
80001c9e: 36650513     	addi	a0, a0, 0x366
80001ca2: 1552         	slli	a0, a0, 0x34
80001ca4: cd09         	beqz	a0, 0x80001cbe <.Lpcrel_hi128>
80001ca6: a015         	j	0x80001cca <.Lpcrel_hi129>
80001ca8: 7566         	ld	a0, 0x78(sp)

0000000080001caa <.Lpcrel_hi127>:
80001caa: 00005597     	auipc	a1, 0x5
80001cae: 38e58613     	addi	a2, a1, 0x38e
80001cb2: 20000593     	li	a1, 0x200
80001cb6: 00004097     	auipc	ra, 0x4
80001cba: 11a080e7     	jalr	0x11a(ra) <core::panicking::panic_bounds_check::h6aaee0d15e0261eb>

0000000080001cbe <.Lpcrel_hi128>:
80001cbe: 0001d517     	auipc	a0, 0x1d
80001cc2: 34250513     	addi	a0, a0, 0x342
80001cc6: ed19         	bnez	a0, 0x80001ce4 <.Lpcrel_hi130+0x12>
80001cc8: a8b1         	j	0x80001d24 <.Lpcrel_hi132>

0000000080001cca <.Lpcrel_hi129>:
80001cca: 0001d517     	auipc	a0, 0x1d
80001cce: 33650593     	addi	a1, a0, 0x336

0000000080001cd2 <.Lpcrel_hi130>:
80001cd2: 00005517     	auipc	a0, 0x5
80001cd6: 36650613     	addi	a2, a0, 0x366
80001cda: 6505         	lui	a0, 0x1
80001cdc: 00004097     	auipc	ra, 0x4
80001ce0: 180080e7     	jalr	0x180(ra) <core::panicking::panic_misaligned_pointer_dereference::hda85f7fb51d959f0>
80001ce4: 7546         	ld	a0, 0x70(sp)
80001ce6: 75e6         	ld	a1, 0x78(sp)
80001ce8: 00359613     	slli	a2, a1, 0x3

0000000080001cec <.Lpcrel_hi131>:
80001cec: 0001d597     	auipc	a1, 0x1d
80001cf0: 31458593     	addi	a1, a1, 0x314
80001cf4: 95b2         	add	a1, a1, a2
80001cf6: e188         	sd	a0, 0x0(a1)
80001cf8: 00000097     	auipc	ra, 0x0
80001cfc: c70080e7     	jalr	-0x390(ra) <lab4_kernel_task2::user_l0_table_pa::h7977c186814355a0>
80001d00: 00002097     	auipc	ra, 0x2
80001d04: 342080e7     	jalr	0x342(ra) <lab4_kernel_task2::table_pte::hfc59d0a0b2f4dd2e>
80001d08: ecaa         	sd	a0, 0x58(sp)
80001d0a: 00400537     	lui	a0, 0x400
80001d0e: fffff097     	auipc	ra, 0xfffff
80001d12: 574080e7     	jalr	0x574(ra) <lab4_kernel_task2::vpn1_index::h8162d0da845d4182>
80001d16: 85aa         	mv	a1, a0
80001d18: f0ae         	sd	a1, 0x60(sp)
80001d1a: 20000593     	li	a1, 0x200
80001d1e: 00b56b63     	bltu	a0, a1, 0x80001d34 <.Lpcrel_hi133>
80001d22: a005         	j	0x80001d42 <.Lpcrel_hi133+0xe>

0000000080001d24 <.Lpcrel_hi132>:
80001d24: 00005517     	auipc	a0, 0x5
80001d28: 31450513     	addi	a0, a0, 0x314
80001d2c: 00004097     	auipc	ra, 0x4
80001d30: 110080e7     	jalr	0x110(ra) <core::panicking::panic_null_pointer_dereference::hbac6411af4f2e916>

0000000080001d34 <.Lpcrel_hi133>:
80001d34: 0001d517     	auipc	a0, 0x1d
80001d38: 2cc50513     	addi	a0, a0, 0x2cc
80001d3c: 1552         	slli	a0, a0, 0x34
80001d3e: cd09         	beqz	a0, 0x80001d58 <.Lpcrel_hi135>
80001d40: a015         	j	0x80001d64 <.Lpcrel_hi136>
80001d42: 7506         	ld	a0, 0x60(sp)

0000000080001d44 <.Lpcrel_hi134>:
80001d44: 00005597     	auipc	a1, 0x5
80001d48: 30c58613     	addi	a2, a1, 0x30c
80001d4c: 20000593     	li	a1, 0x200
80001d50: 00004097     	auipc	ra, 0x4
80001d54: 080080e7     	jalr	0x80(ra) <core::panicking::panic_bounds_check::h6aaee0d15e0261eb>

0000000080001d58 <.Lpcrel_hi135>:
80001d58: 0001d517     	auipc	a0, 0x1d
80001d5c: 2a850513     	addi	a0, a0, 0x2a8
80001d60: ed19         	bnez	a0, 0x80001d7e <.Lpcrel_hi137+0x12>
80001d62: a085         	j	0x80001dc2 <.Lpcrel_hi139>

0000000080001d64 <.Lpcrel_hi136>:
80001d64: 0001d517     	auipc	a0, 0x1d
80001d68: 29c50593     	addi	a1, a0, 0x29c

0000000080001d6c <.Lpcrel_hi137>:
80001d6c: 00005517     	auipc	a0, 0x5
80001d70: 2e450613     	addi	a2, a0, 0x2e4
80001d74: 6505         	lui	a0, 0x1
80001d76: 00004097     	auipc	ra, 0x4
80001d7a: 0e6080e7     	jalr	0xe6(ra) <core::panicking::panic_misaligned_pointer_dereference::hda85f7fb51d959f0>
80001d7e: 6566         	ld	a0, 0x58(sp)
80001d80: 7586         	ld	a1, 0x60(sp)
80001d82: 00359613     	slli	a2, a1, 0x3

0000000080001d86 <.Lpcrel_hi138>:
80001d86: 0001d597     	auipc	a1, 0x1d
80001d8a: 27a58593     	addi	a1, a1, 0x27a
80001d8e: 95b2         	add	a1, a1, a2
80001d90: e188         	sd	a0, 0x0(a1)
80001d92: 00000097     	auipc	ra, 0x0
80001d96: 538080e7     	jalr	0x538(ra) <lab4_kernel_task2::user_code_page_pa::h5660dde9a9671ff1>
80001d9a: 05a00593     	li	a1, 0x5a
80001d9e: 00002097     	auipc	ra, 0x2
80001da2: ba0080e7     	jalr	-0x460(ra) <lab4_kernel_task2::leaf_pte::h913c485e3c294b41>
80001da6: e4aa         	sd	a0, 0x48(sp)
80001da8: 00400537     	lui	a0, 0x400
80001dac: fffff097     	auipc	ra, 0xfffff
80001db0: 4ca080e7     	jalr	0x4ca(ra) <lab4_kernel_task2::vpn0_index::h4a2e4e22f00af019>
80001db4: 85aa         	mv	a1, a0
80001db6: e8ae         	sd	a1, 0x50(sp)
80001db8: 20000593     	li	a1, 0x200
80001dbc: 00b56b63     	bltu	a0, a1, 0x80001dd2 <.Lpcrel_hi140>
80001dc0: a005         	j	0x80001de0 <.Lpcrel_hi140+0xe>

0000000080001dc2 <.Lpcrel_hi139>:
80001dc2: 00005517     	auipc	a0, 0x5
80001dc6: 28e50513     	addi	a0, a0, 0x28e
80001dca: 00004097     	auipc	ra, 0x4
80001dce: 072080e7     	jalr	0x72(ra) <core::panicking::panic_null_pointer_dereference::hbac6411af4f2e916>

0000000080001dd2 <.Lpcrel_hi140>:
80001dd2: 0001e517     	auipc	a0, 0x1e
80001dd6: 22e50513     	addi	a0, a0, 0x22e
80001dda: 1552         	slli	a0, a0, 0x34
80001ddc: cd09         	beqz	a0, 0x80001df6 <.Lpcrel_hi142>
80001dde: a015         	j	0x80001e02 <.Lpcrel_hi143>
80001de0: 6546         	ld	a0, 0x50(sp)

0000000080001de2 <.Lpcrel_hi141>:
80001de2: 00005597     	auipc	a1, 0x5
80001de6: 28658613     	addi	a2, a1, 0x286
80001dea: 20000593     	li	a1, 0x200
80001dee: 00004097     	auipc	ra, 0x4
80001df2: fe2080e7     	jalr	-0x1e(ra) <core::panicking::panic_bounds_check::h6aaee0d15e0261eb>

0000000080001df6 <.Lpcrel_hi142>:
80001df6: 0001e517     	auipc	a0, 0x1e
80001dfa: 20a50513     	addi	a0, a0, 0x20a
80001dfe: ed19         	bnez	a0, 0x80001e1c <.Lpcrel_hi144+0x12>
80001e00: a085         	j	0x80001e60 <.Lpcrel_hi146>

0000000080001e02 <.Lpcrel_hi143>:
80001e02: 0001e517     	auipc	a0, 0x1e
80001e06: 1fe50593     	addi	a1, a0, 0x1fe

0000000080001e0a <.Lpcrel_hi144>:
80001e0a: 00005517     	auipc	a0, 0x5
80001e0e: 25e50613     	addi	a2, a0, 0x25e
80001e12: 6505         	lui	a0, 0x1
80001e14: 00004097     	auipc	ra, 0x4
80001e18: 048080e7     	jalr	0x48(ra) <core::panicking::panic_misaligned_pointer_dereference::hda85f7fb51d959f0>
80001e1c: 6526         	ld	a0, 0x48(sp)
80001e1e: 65c6         	ld	a1, 0x50(sp)
80001e20: 00359613     	slli	a2, a1, 0x3

0000000080001e24 <.Lpcrel_hi145>:
80001e24: 0001e597     	auipc	a1, 0x1e
80001e28: 1dc58593     	addi	a1, a1, 0x1dc
80001e2c: 95b2         	add	a1, a1, a2
80001e2e: e188         	sd	a0, 0x0(a1)
80001e30: 00001097     	auipc	ra, 0x1
80001e34: ea4080e7     	jalr	-0x15c(ra) <lab4_kernel_task2::user_shared_page_pa::h49ce6f17c83b47f8>
80001e38: 0d600593     	li	a1, 0xd6
80001e3c: 00002097     	auipc	ra, 0x2
80001e40: b02080e7     	jalr	-0x4fe(ra) <lab4_kernel_task2::leaf_pte::h913c485e3c294b41>
80001e44: fc2a         	sd	a0, 0x38(sp)
80001e46: 00401537     	lui	a0, 0x401
80001e4a: fffff097     	auipc	ra, 0xfffff
80001e4e: 42c080e7     	jalr	0x42c(ra) <lab4_kernel_task2::vpn0_index::h4a2e4e22f00af019>
80001e52: 85aa         	mv	a1, a0
80001e54: e0ae         	sd	a1, 0x40(sp)
80001e56: 20000593     	li	a1, 0x200
80001e5a: 00b56b63     	bltu	a0, a1, 0x80001e70 <.Lpcrel_hi147>
80001e5e: a005         	j	0x80001e7e <.Lpcrel_hi147+0xe>

0000000080001e60 <.Lpcrel_hi146>:
80001e60: 00005517     	auipc	a0, 0x5
80001e64: 20850513     	addi	a0, a0, 0x208
80001e68: 00004097     	auipc	ra, 0x4
80001e6c: fd4080e7     	jalr	-0x2c(ra) <core::panicking::panic_null_pointer_dereference::hbac6411af4f2e916>

0000000080001e70 <.Lpcrel_hi147>:
80001e70: 0001e517     	auipc	a0, 0x1e
80001e74: 19050513     	addi	a0, a0, 0x190
80001e78: 1552         	slli	a0, a0, 0x34
80001e7a: cd09         	beqz	a0, 0x80001e94 <.Lpcrel_hi149>
80001e7c: a015         	j	0x80001ea0 <.Lpcrel_hi150>
80001e7e: 6506         	ld	a0, 0x40(sp)

0000000080001e80 <.Lpcrel_hi148>:
80001e80: 00005597     	auipc	a1, 0x5
80001e84: 20058613     	addi	a2, a1, 0x200
80001e88: 20000593     	li	a1, 0x200
80001e8c: 00004097     	auipc	ra, 0x4
80001e90: f44080e7     	jalr	-0xbc(ra) <core::panicking::panic_bounds_check::h6aaee0d15e0261eb>

0000000080001e94 <.Lpcrel_hi149>:
80001e94: 0001e517     	auipc	a0, 0x1e
80001e98: 16c50513     	addi	a0, a0, 0x16c
80001e9c: ed19         	bnez	a0, 0x80001eba <.Lpcrel_hi151+0x12>
80001e9e: a085         	j	0x80001efe <.Lpcrel_hi153>

0000000080001ea0 <.Lpcrel_hi150>:
80001ea0: 0001e517     	auipc	a0, 0x1e
80001ea4: 16050593     	addi	a1, a0, 0x160

0000000080001ea8 <.Lpcrel_hi151>:
80001ea8: 00005517     	auipc	a0, 0x5
80001eac: 1d850613     	addi	a2, a0, 0x1d8
80001eb0: 6505         	lui	a0, 0x1
80001eb2: 00004097     	auipc	ra, 0x4
80001eb6: faa080e7     	jalr	-0x56(ra) <core::panicking::panic_misaligned_pointer_dereference::hda85f7fb51d959f0>
80001eba: 7562         	ld	a0, 0x38(sp)
80001ebc: 6586         	ld	a1, 0x40(sp)
80001ebe: 00359613     	slli	a2, a1, 0x3

0000000080001ec2 <.Lpcrel_hi152>:
80001ec2: 0001e597     	auipc	a1, 0x1e
80001ec6: 13e58593     	addi	a1, a1, 0x13e
80001eca: 95b2         	add	a1, a1, a2
80001ecc: e188         	sd	a0, 0x0(a1)
80001ece: 00000097     	auipc	ra, 0x0
80001ed2: 650080e7     	jalr	0x650(ra) <lab4_kernel_task2::user_stack_page_pa::hcd13f377b0336cb8>
80001ed6: 0d600593     	li	a1, 0xd6
80001eda: 00002097     	auipc	ra, 0x2
80001ede: a64080e7     	jalr	-0x59c(ra) <lab4_kernel_task2::leaf_pte::h913c485e3c294b41>
80001ee2: f42a         	sd	a0, 0x28(sp)
80001ee4: 00402537     	lui	a0, 0x402
80001ee8: fffff097     	auipc	ra, 0xfffff
80001eec: 38e080e7     	jalr	0x38e(ra) <lab4_kernel_task2::vpn0_index::h4a2e4e22f00af019>
80001ef0: 85aa         	mv	a1, a0
80001ef2: f82e         	sd	a1, 0x30(sp)
80001ef4: 20000593     	li	a1, 0x200
80001ef8: 00b56b63     	bltu	a0, a1, 0x80001f0e <.Lpcrel_hi154>
80001efc: a005         	j	0x80001f1c <.Lpcrel_hi154+0xe>

0000000080001efe <.Lpcrel_hi153>:
80001efe: 00005517     	auipc	a0, 0x5
80001f02: 18250513     	addi	a0, a0, 0x182
80001f06: 00004097     	auipc	ra, 0x4
80001f0a: f36080e7     	jalr	-0xca(ra) <core::panicking::panic_null_pointer_dereference::hbac6411af4f2e916>

0000000080001f0e <.Lpcrel_hi154>:
80001f0e: 0001e517     	auipc	a0, 0x1e
80001f12: 0f250513     	addi	a0, a0, 0xf2
80001f16: 1552         	slli	a0, a0, 0x34
80001f18: cd09         	beqz	a0, 0x80001f32 <.Lpcrel_hi156>
80001f1a: a015         	j	0x80001f3e <.Lpcrel_hi157>
80001f1c: 7542         	ld	a0, 0x30(sp)

0000000080001f1e <.Lpcrel_hi155>:
80001f1e: 00005597     	auipc	a1, 0x5
80001f22: 17a58613     	addi	a2, a1, 0x17a
80001f26: 20000593     	li	a1, 0x200
80001f2a: 00004097     	auipc	ra, 0x4
80001f2e: ea6080e7     	jalr	-0x15a(ra) <core::panicking::panic_bounds_check::h6aaee0d15e0261eb>

0000000080001f32 <.Lpcrel_hi156>:
80001f32: 0001e517     	auipc	a0, 0x1e
80001f36: 0ce50513     	addi	a0, a0, 0xce
80001f3a: ed19         	bnez	a0, 0x80001f58 <.Lpcrel_hi158+0x12>
80001f3c: a089         	j	0x80001f7e <.Lpcrel_hi160>

0000000080001f3e <.Lpcrel_hi157>:
80001f3e: 0001e517     	auipc	a0, 0x1e
80001f42: 0c250593     	addi	a1, a0, 0xc2

0000000080001f46 <.Lpcrel_hi158>:
80001f46: 00005517     	auipc	a0, 0x5
80001f4a: 15250613     	addi	a2, a0, 0x152
80001f4e: 6505         	lui	a0, 0x1
80001f50: 00004097     	auipc	ra, 0x4
80001f54: f0c080e7     	jalr	-0xf4(ra) <core::panicking::panic_misaligned_pointer_dereference::hda85f7fb51d959f0>
80001f58: 7522         	ld	a0, 0x28(sp)
80001f5a: 75c2         	ld	a1, 0x30(sp)
80001f5c: 00359613     	slli	a2, a1, 0x3

0000000080001f60 <.Lpcrel_hi159>:
80001f60: 0001e597     	auipc	a1, 0x1e
80001f64: 0a058593     	addi	a1, a1, 0xa0
80001f68: 95b2         	add	a1, a1, a2
80001f6a: e188         	sd	a0, 0x0(a1)
80001f6c: 4501         	li	a0, 0x0
80001f6e: 45a1         	li	a1, 0x8
80001f70: 00003097     	auipc	ra, 0x3
80001f74: a2e080e7     	jalr	-0x5d2(ra) <_$LT$I$u20$as$u20$core..iter..traits..collect..IntoIterator$GT$::into_iter::h1fc85f52cf5a3515>
80001f78: e5aa         	sd	a0, 0xc8(sp)
80001f7a: e9ae         	sd	a1, 0xd0(sp)
80001f7c: a809         	j	0x80001f8e <.Lpcrel_hi160+0x10>

0000000080001f7e <.Lpcrel_hi160>:
80001f7e: 00005517     	auipc	a0, 0x5
80001f82: 11a50513     	addi	a0, a0, 0x11a
80001f86: 00004097     	auipc	ra, 0x4
80001f8a: eb6080e7     	jalr	-0x14a(ra) <core::panicking::panic_null_pointer_dereference::hbac6411af4f2e916>
80001f8e: 01a8         	addi	a0, sp, 0xc8
80001f90: 00003097     	auipc	ra, 0x3
80001f94: 9fa080e7     	jalr	-0x606(ra) <core::iter::range::_$LT$impl$u20$core..iter..traits..iterator..Iterator$u20$for$u20$core..ops..range..Range$LT$A$GT$$GT$::next::h1cbf565076fd6def>
80001f98: edaa         	sd	a0, 0xd8(sp)
80001f9a: f1ae         	sd	a1, 0xe0(sp)
80001f9c: 656e         	ld	a0, 0xd8(sp)
80001f9e: 8905         	andi	a0, a0, 0x1
80001fa0: cd01         	beqz	a0, 0x80001fb8 <.Lpcrel_hi160+0x3a>
80001fa2: a009         	j	0x80001fa4 <.Lpcrel_hi160+0x26>
80001fa4: 758e         	ld	a1, 0xe0(sp)
80001fa6: ec2e         	sd	a1, 0x18(sp)
80001fa8: f5ae         	sd	a1, 0xe8(sp)
80001faa: 01559513     	slli	a0, a1, 0x15
80001fae: f02a         	sd	a0, 0x20(sp)
80001fb0: 8155         	srli	a0, a0, 0x15
80001fb2: 00b51e63     	bne	a0, a1, 0x80001fce <.Lpcrel_hi161>
80001fb6: a021         	j	0x80001fbe <.Lpcrel_hi160+0x40>
80001fb8: 70ee         	ld	ra, 0xf8(sp)
80001fba: 6111         	addi	sp, sp, 0x100
80001fbc: 8082         	ret
80001fbe: 7502         	ld	a0, 0x20(sp)
80001fc0: 800005b7     	lui	a1, 0x80000
80001fc4: 8d0d         	sub	a0, a0, a1
80001fc6: e82a         	sd	a0, 0x10(sp)
80001fc8: 817d         	srli	a0, a0, 0x1f
80001fca: cd05         	beqz	a0, 0x80002002 <.Lpcrel_hi162>
80001fcc: a809         	j	0x80001fde <.Lpcrel_hi161+0x10>

0000000080001fce <.Lpcrel_hi161>:
80001fce: 00005517     	auipc	a0, 0x5
80001fd2: 0e250513     	addi	a0, a0, 0xe2
80001fd6: 00004097     	auipc	ra, 0x4
80001fda: da0080e7     	jalr	-0x260(ra) <core::panicking::panic_const::panic_const_mul_overflow::h67897feae7531d51>
80001fde: 6542         	ld	a0, 0x10(sp)
80001fe0: f9aa         	sd	a0, 0xf0(sp)
80001fe2: 0ce00593     	li	a1, 0xce
80001fe6: 00002097     	auipc	ra, 0x2
80001fea: 958080e7     	jalr	-0x6a8(ra) <lab4_kernel_task2::leaf_pte::h913c485e3c294b41>
80001fee: 85aa         	mv	a1, a0
80001ff0: 6562         	ld	a0, 0x18(sp)
80001ff2: e02e         	sd	a1, 0x0(sp)
80001ff4: 20000593     	li	a1, 0x200
80001ff8: 862a         	mv	a2, a0
80001ffa: e432         	sd	a2, 0x8(sp)
80001ffc: 00b56b63     	bltu	a0, a1, 0x80002012 <.Lpcrel_hi163>
80002000: a005         	j	0x80002020 <.Lpcrel_hi163+0xe>

0000000080002002 <.Lpcrel_hi162>:
80002002: 00005517     	auipc	a0, 0x5
80002006: 0c650513     	addi	a0, a0, 0xc6
8000200a: 00004097     	auipc	ra, 0x4
8000200e: d4e080e7     	jalr	-0x2b2(ra) <core::panicking::panic_const::panic_const_add_overflow::h67cba067093910f8>

0000000080002012 <.Lpcrel_hi163>:
80002012: 00020517     	auipc	a0, 0x20
80002016: fee50513     	addi	a0, a0, -0x12
8000201a: 1552         	slli	a0, a0, 0x34
8000201c: cd09         	beqz	a0, 0x80002036 <.Lpcrel_hi165>
8000201e: a015         	j	0x80002042 <.Lpcrel_hi166>
80002020: 6522         	ld	a0, 0x8(sp)

0000000080002022 <.Lpcrel_hi164>:
80002022: 00005597     	auipc	a1, 0x5
80002026: 0be58613     	addi	a2, a1, 0xbe
8000202a: 20000593     	li	a1, 0x200
8000202e: 00004097     	auipc	ra, 0x4
80002032: da2080e7     	jalr	-0x25e(ra) <core::panicking::panic_bounds_check::h6aaee0d15e0261eb>

0000000080002036 <.Lpcrel_hi165>:
80002036: 00020517     	auipc	a0, 0x20
8000203a: fca50513     	addi	a0, a0, -0x36
8000203e: ed19         	bnez	a0, 0x8000205c <.Lpcrel_hi167+0x12>
80002040: a80d         	j	0x80002072 <.Lpcrel_hi169>

0000000080002042 <.Lpcrel_hi166>:
80002042: 00020517     	auipc	a0, 0x20
80002046: fbe50593     	addi	a1, a0, -0x42

000000008000204a <.Lpcrel_hi167>:
8000204a: 00005517     	auipc	a0, 0x5
8000204e: 09650613     	addi	a2, a0, 0x96
80002052: 6505         	lui	a0, 0x1
80002054: 00004097     	auipc	ra, 0x4
80002058: e08080e7     	jalr	-0x1f8(ra) <core::panicking::panic_misaligned_pointer_dereference::hda85f7fb51d959f0>
8000205c: 6502         	ld	a0, 0x0(sp)
8000205e: 65e2         	ld	a1, 0x18(sp)
80002060: 00359613     	slli	a2, a1, 0x3

0000000080002064 <.Lpcrel_hi168>:
80002064: 00020597     	auipc	a1, 0x20
80002068: f9c58593     	addi	a1, a1, -0x64
8000206c: 95b2         	add	a1, a1, a2
8000206e: e188         	sd	a0, 0x0(a1)
80002070: bf39         	j	0x80001f8e <.Lpcrel_hi160+0x10>

0000000080002072 <.Lpcrel_hi169>:
80002072: 00005517     	auipc	a0, 0x5
80002076: 06e50513     	addi	a0, a0, 0x6e
8000207a: 00004097     	auipc	ra, 0x4
8000207e: dc2080e7     	jalr	-0x23e(ra) <core::panicking::panic_null_pointer_dereference::hbac6411af4f2e916>

0000000080002082 <lab4_kernel_task2::handle_user_ecall::h85e6356ac5634d26>:
80002082: 7115         	addi	sp, sp, -0xe0
80002084: ed86         	sd	ra, 0xd8(sp)
80002086: f02a         	sd	a0, 0x20(sp)
80002088: fd2a         	sd	a0, 0xb8(sp)
8000208a: 7d2c         	ld	a1, 0x78(a0)
8000208c: f42e         	sd	a1, 0x28(sp)
8000208e: e1ae         	sd	a1, 0xc0(sp)
80002090: 7d6c         	ld	a1, 0xf8(a0)
80002092: 00458513     	addi	a0, a1, 0x4
80002096: f82a         	sd	a0, 0x30(sp)
80002098: 02b56563     	bltu	a0, a1, 0x800020c2 <.Lpcrel_hi170>
8000209c: a009         	j	0x8000209e <lab4_kernel_task2::handle_user_ecall::h85e6356ac5634d26+0x1c>
8000209e: 7522         	ld	a0, 0x28(sp)
800020a0: 75c2         	ld	a1, 0x30(sp)
800020a2: 7602         	ld	a2, 0x20(sp)
800020a4: fe6c         	sd	a1, 0xf8(a2)
800020a6: 4585         	li	a1, 0x1
800020a8: 04b50463     	beq	a0, a1, 0x800020f0 <.Lpcrel_hi170+0x2e>
800020ac: a009         	j	0x800020ae <lab4_kernel_task2::handle_user_ecall::h85e6356ac5634d26+0x2c>
800020ae: 7522         	ld	a0, 0x28(sp)
800020b0: 4589         	li	a1, 0x2
800020b2: 04b50963     	beq	a0, a1, 0x80002104 <.Lpcrel_hi170+0x42>
800020b6: a009         	j	0x800020b8 <lab4_kernel_task2::handle_user_ecall::h85e6356ac5634d26+0x36>
800020b8: 7522         	ld	a0, 0x28(sp)
800020ba: 458d         	li	a1, 0x3
800020bc: 04b50e63     	beq	a0, a1, 0x80002118 <.Lpcrel_hi170+0x56>
800020c0: a809         	j	0x800020d2 <.Lpcrel_hi170+0x10>

00000000800020c2 <.Lpcrel_hi170>:
800020c2: 00005517     	auipc	a0, 0x5
800020c6: 03650513     	addi	a0, a0, 0x36
800020ca: 00004097     	auipc	ra, 0x4
800020ce: c8e080e7     	jalr	-0x372(ra) <core::panicking::panic_const::panic_const_add_overflow::h67cba067093910f8>
800020d2: 7502         	ld	a0, 0x20(sp)
800020d4: 07850593     	addi	a1, a0, 0x78
800020d8: e42e         	sd	a1, 0x8(sp)
800020da: 04050593     	addi	a1, a0, 0x40
800020de: e82e         	sd	a1, 0x10(sp)
800020e0: 7d68         	ld	a0, 0xf8(a0)
800020e2: ffc50593     	addi	a1, a0, -0x4
800020e6: ec2e         	sd	a1, 0x18(sp)
800020e8: 4591         	li	a1, 0x4
800020ea: 0ab56863     	bltu	a0, a1, 0x8000219a <.Lpcrel_hi172>
800020ee: a835         	j	0x8000212a <.Lpcrel_hi170+0x68>
800020f0: 7502         	ld	a0, 0x20(sp)
800020f2: 6128         	ld	a0, 0x40(a0)
800020f4: 00002097     	auipc	ra, 0x2
800020f8: b3a080e7     	jalr	-0x4c6(ra) <lab4_kernel_task2::sys_sbrk::hb3c9d0ca94496302>
800020fc: 7582         	ld	a1, 0x20(sp)
800020fe: e5aa         	sd	a0, 0xc8(sp)
80002100: e1a8         	sd	a0, 0x40(a1)
80002102: a00d         	j	0x80002124 <.Lpcrel_hi170+0x62>
80002104: 7502         	ld	a0, 0x20(sp)
80002106: 6128         	ld	a0, 0x40(a0)
80002108: 00002097     	auipc	ra, 0x2
8000210c: 84a080e7     	jalr	-0x7b6(ra) <lab4_kernel_task2::sys_mmap::he18d0d994d89c942>
80002110: 7582         	ld	a1, 0x20(sp)
80002112: e9aa         	sd	a0, 0xd0(sp)
80002114: e1a8         	sd	a0, 0x40(a1)
80002116: a039         	j	0x80002124 <.Lpcrel_hi170+0x62>
80002118: 7502         	ld	a0, 0x20(sp)
8000211a: 6128         	ld	a0, 0x40(a0)
8000211c: 00000097     	auipc	ra, 0x0
80002120: 40c080e7     	jalr	0x40c(ra) <lab4_kernel_task2::finish_user_program::hedbfb5aee0bf655a>
80002124: 60ee         	ld	ra, 0xd8(sp)
80002126: 612d         	addi	sp, sp, 0xe0
80002128: 8082         	ret
8000212a: 6542         	ld	a0, 0x10(sp)
8000212c: 65a2         	ld	a1, 0x8(sp)
8000212e: 6662         	ld	a2, 0x18(sp)
80002130: e8b2         	sd	a2, 0x50(sp)
80002132: fc2e         	sd	a1, 0x38(sp)
80002134: e0aa         	sd	a0, 0x40(sp)
80002136: 0888         	addi	a0, sp, 0x50
80002138: e4aa         	sd	a0, 0x48(sp)
8000213a: 75e2         	ld	a1, 0x38(sp)
8000213c: 0128         	addi	a0, sp, 0x88
8000213e: 00002097     	auipc	ra, 0x2
80002142: 750080e7     	jalr	0x750(ra) <core::fmt::rt::Argument::new_display::h9aa9b8b69faee6ac>
80002146: 6586         	ld	a1, 0x40(sp)
80002148: 0928         	addi	a0, sp, 0x98
8000214a: 00002097     	auipc	ra, 0x2
8000214e: 7cc080e7     	jalr	0x7cc(ra) <core::fmt::rt::Argument::new_lower_hex::ha3dbd086c79e0875>
80002152: 65a6         	ld	a1, 0x48(sp)
80002154: 1128         	addi	a0, sp, 0xa8
80002156: 00002097     	auipc	ra, 0x2
8000215a: 7c0080e7     	jalr	0x7c0(ra) <core::fmt::rt::Argument::new_lower_hex::ha3dbd086c79e0875>
8000215e: 654a         	ld	a0, 0x90(sp)
80002160: f0aa         	sd	a0, 0x60(sp)
80002162: 652a         	ld	a0, 0x88(sp)
80002164: ecaa         	sd	a0, 0x58(sp)
80002166: 750a         	ld	a0, 0xa0(sp)
80002168: f8aa         	sd	a0, 0x70(sp)
8000216a: 656a         	ld	a0, 0x98(sp)
8000216c: f4aa         	sd	a0, 0x68(sp)
8000216e: 754a         	ld	a0, 0xb0(sp)
80002170: e12a         	sd	a0, 0x80(sp)
80002172: 752a         	ld	a0, 0xa8(sp)
80002174: fcaa         	sd	a0, 0x78(sp)

0000000080002176 <.Lpcrel_hi171>:
80002176: 00005517     	auipc	a0, 0x5
8000217a: fb250513     	addi	a0, a0, -0x4e
8000217e: 08ac         	addi	a1, sp, 0x58
80002180: ffffe097     	auipc	ra, 0xffffe
80002184: 146080e7     	jalr	0x146(ra) <core::fmt::Arguments::new::hfa320c2de61af183>
80002188: ffffe097     	auipc	ra, 0xffffe
8000218c: fb8080e7     	jalr	-0x48(ra) <lab4_kernel_task2::console::print::h7473f0160e01bbb6>
80002190: 4505         	li	a0, 0x1
80002192: 00002097     	auipc	ra, 0x2
80002196: e5a080e7     	jalr	-0x1a6(ra) <lab4_kernel_task2::qemu_exit::h515f7665dae94ac6>

000000008000219a <.Lpcrel_hi172>:
8000219a: 00005517     	auipc	a0, 0x5
8000219e: f7650513     	addi	a0, a0, -0x8a
800021a2: 00004097     	auipc	ra, 0x4
800021a6: bf2080e7     	jalr	-0x40e(ra) <core::panicking::panic_const::panic_const_sub_overflow::hccc965ba9198de7c>

00000000800021aa <lab4_kernel_task2::install_user_leaf::h9595adef4e09de68>:
800021aa: 711d         	addi	sp, sp, -0x60
800021ac: ec86         	sd	ra, 0x58(sp)
800021ae: ec32         	sd	a2, 0x18(sp)
800021b0: f02e         	sd	a1, 0x20(sp)
800021b2: f42a         	sd	a0, 0x28(sp)
800021b4: fc2a         	sd	a0, 0x38(sp)
800021b6: e0ae         	sd	a1, 0x40(sp)
800021b8: e4b2         	sd	a2, 0x48(sp)
800021ba: fffff097     	auipc	ra, 0xfffff
800021be: 0bc080e7     	jalr	0xbc(ra) <lab4_kernel_task2::vpn0_index::h4a2e4e22f00af019>
800021c2: 85aa         	mv	a1, a0
800021c4: 852e         	mv	a0, a1
800021c6: f82a         	sd	a0, 0x30(sp)
800021c8: 1ff00513     	li	a0, 0x1ff
800021cc: 00b56963     	bltu	a0, a1, 0x800021de <.Lpcrel_hi173+0xc>
800021d0: a009         	j	0x800021d2 <.Lpcrel_hi173>

00000000800021d2 <.Lpcrel_hi173>:
800021d2: 0001e517     	auipc	a0, 0x1e
800021d6: e2e50513     	addi	a0, a0, -0x1d2
800021da: ed09         	bnez	a0, 0x800021f4 <.Lpcrel_hi174+0x14>
800021dc: a82d         	j	0x80002216 <.Lpcrel_hi176>
800021de: 7542         	ld	a0, 0x30(sp)

00000000800021e0 <.Lpcrel_hi174>:
800021e0: 00005597     	auipc	a1, 0x5
800021e4: f8858613     	addi	a2, a1, -0x78
800021e8: 20000593     	li	a1, 0x200
800021ec: 00004097     	auipc	ra, 0x4
800021f0: be4080e7     	jalr	-0x41c(ra) <core::panicking::panic_bounds_check::h6aaee0d15e0261eb>
800021f4: 7542         	ld	a0, 0x30(sp)
800021f6: 00351593     	slli	a1, a0, 0x3

00000000800021fa <.Lpcrel_hi175>:
800021fa: 0001e517     	auipc	a0, 0x1e
800021fe: e0650513     	addi	a0, a0, -0x1fa
80002202: 952e         	add	a0, a0, a1
80002204: e82a         	sd	a0, 0x10(sp)
80002206: e8aa         	sd	a0, 0x50(sp)
80002208: 6108         	ld	a0, 0x0(a0)
8000220a: fffff097     	auipc	ra, 0xfffff
8000220e: 16e080e7     	jalr	0x16e(ra) <lab4_kernel_task2::pte_is_valid::hcf3d742da30fb2ce>
80002212: e905         	bnez	a0, 0x80002242 <.Lpcrel_hi178>
80002214: a809         	j	0x80002226 <.Lpcrel_hi176+0x10>

0000000080002216 <.Lpcrel_hi176>:
80002216: 00005517     	auipc	a0, 0x5
8000221a: f6a50513     	addi	a0, a0, -0x96
8000221e: 00004097     	auipc	ra, 0x4
80002222: c1e080e7     	jalr	-0x3e2(ra) <core::panicking::panic_null_pointer_dereference::hbac6411af4f2e916>
80002226: 65e2         	ld	a1, 0x18(sp)
80002228: 7502         	ld	a0, 0x20(sp)
8000222a: 00001097     	auipc	ra, 0x1
8000222e: 714080e7     	jalr	0x714(ra) <lab4_kernel_task2::leaf_pte::h913c485e3c294b41>
80002232: 65c2         	ld	a1, 0x10(sp)
80002234: e188         	sd	a0, 0x0(a1)

0000000080002236 <.Lpcrel_hi177>:
80002236: 00007517     	auipc	a0, 0x7
8000223a: dca50513     	addi	a0, a0, -0x236
8000223e: ed01         	bnez	a0, 0x80002256 <.Lpcrel_hi179>
80002240: a035         	j	0x8000226c <.Lpcrel_hi180>

0000000080002242 <.Lpcrel_hi178>:
80002242: 00005517     	auipc	a0, 0x5
80002246: f6e50513     	addi	a0, a0, -0x92
8000224a: 03000593     	li	a1, 0x30
8000224e: fffff097     	auipc	ra, 0xfffff
80002252: 04c080e7     	jalr	0x4c(ra) <lab4_kernel_task2::kernel_fail::h81ee1edb0feee17d>

0000000080002256 <.Lpcrel_hi179>:
80002256: 00007517     	auipc	a0, 0x7
8000225a: daa50513     	addi	a0, a0, -0x256
8000225e: 7d0c         	ld	a1, 0x38(a0)
80002260: 00158513     	addi	a0, a1, 0x1
80002264: e42a         	sd	a0, 0x8(sp)
80002266: 02b56163     	bltu	a0, a1, 0x80002288 <.Lpcrel_hi182>
8000226a: a809         	j	0x8000227c <.Lpcrel_hi181>

000000008000226c <.Lpcrel_hi180>:
8000226c: 00005517     	auipc	a0, 0x5
80002270: f2c50513     	addi	a0, a0, -0xd4
80002274: 00004097     	auipc	ra, 0x4
80002278: bc8080e7     	jalr	-0x438(ra) <core::panicking::panic_null_pointer_dereference::hbac6411af4f2e916>

000000008000227c <.Lpcrel_hi181>:
8000227c: 00007517     	auipc	a0, 0x7
80002280: d8450513     	addi	a0, a0, -0x27c
80002284: e911         	bnez	a0, 0x80002298 <.Lpcrel_hi182+0x10>
80002286: a02d         	j	0x800022b0 <.Lpcrel_hi184>

0000000080002288 <.Lpcrel_hi182>:
80002288: 00005517     	auipc	a0, 0x5
8000228c: f1050513     	addi	a0, a0, -0xf0
80002290: 00004097     	auipc	ra, 0x4
80002294: ac8080e7     	jalr	-0x538(ra) <core::panicking::panic_const::panic_const_add_overflow::h67cba067093910f8>
80002298: 7522         	ld	a0, 0x28(sp)
8000229a: 65a2         	ld	a1, 0x8(sp)

000000008000229c <.Lpcrel_hi183>:
8000229c: 00007617     	auipc	a2, 0x7
800022a0: d6460613     	addi	a2, a2, -0x29c
800022a4: fe0c         	sd	a1, 0x38(a2)
800022a6: 12050073     	sfence.vma	a0
800022aa: 60e6         	ld	ra, 0x58(sp)
800022ac: 6125         	addi	sp, sp, 0x60
800022ae: 8082         	ret

00000000800022b0 <.Lpcrel_hi184>:
800022b0: 00005517     	auipc	a0, 0x5
800022b4: ee850513     	addi	a0, a0, -0x118
800022b8: 00004097     	auipc	ra, 0x4
800022bc: b84080e7     	jalr	-0x47c(ra) <core::panicking::panic_null_pointer_dereference::hbac6411af4f2e916>

00000000800022c0 <lab4_kernel_task2::lazy_page_pool_pa::h2046087fbdf39d23>:
800022c0: 00008517     	auipc	a0, 0x8
800022c4: d4050513     	addi	a0, a0, -0x2c0
800022c8: 8082         	ret

00000000800022ca <lab4_kernel_task2::user_code_page_pa::h5660dde9a9671ff1>:
800022ca: 00018517     	auipc	a0, 0x18
800022ce: d3650513     	addi	a0, a0, -0x2ca
800022d2: 8082         	ret

00000000800022d4 <lab4_kernel_task2::allocate_lazy_page::h73a8771ce98a26dd>:
800022d4: 7119         	addi	sp, sp, -0x80
800022d6: fc86         	sd	ra, 0x78(sp)

00000000800022d8 <.Lpcrel_hi187>:
800022d8: 0001f517     	auipc	a0, 0x1f
800022dc: d2850513     	addi	a0, a0, -0x2d8
800022e0: cd09         	beqz	a0, 0x800022fa <.Lpcrel_hi189>
800022e2: a009         	j	0x800022e4 <.Lpcrel_hi188>

00000000800022e4 <.Lpcrel_hi188>:
800022e4: 0001f517     	auipc	a0, 0x1f
800022e8: d1c50513     	addi	a0, a0, -0x2e4
800022ec: 610c         	ld	a1, 0x0(a0)
800022ee: e0ae         	sd	a1, 0x40(sp)
800022f0: e4ae         	sd	a1, 0x48(sp)
800022f2: 453d         	li	a0, 0xf
800022f4: 02b56863     	bltu	a0, a1, 0x80002324 <.Lpcrel_hi190>
800022f8: a809         	j	0x8000230a <.Lpcrel_hi189+0x10>

00000000800022fa <.Lpcrel_hi189>:
800022fa: 00005517     	auipc	a0, 0x5
800022fe: ee650513     	addi	a0, a0, -0x11a
80002302: 00004097     	auipc	ra, 0x4
80002306: b3a080e7     	jalr	-0x4c6(ra) <core::panicking::panic_null_pointer_dereference::hbac6411af4f2e916>
8000230a: 00000097     	auipc	ra, 0x0
8000230e: fb6080e7     	jalr	-0x4a(ra) <lab4_kernel_task2::lazy_page_pool_pa::h2046087fbdf39d23>
80002312: 6586         	ld	a1, 0x40(sp)
80002314: f82a         	sd	a0, 0x30(sp)
80002316: 00c59513     	slli	a0, a1, 0xc
8000231a: fc2a         	sd	a0, 0x38(sp)
8000231c: 8131         	srli	a0, a0, 0xc
8000231e: 02b51363     	bne	a0, a1, 0x80002344 <.Lpcrel_hi191>
80002322: a811         	j	0x80002336 <.Lpcrel_hi190+0x12>

0000000080002324 <.Lpcrel_hi190>:
80002324: 00005517     	auipc	a0, 0x5
80002328: f3450513     	addi	a0, a0, -0xcc
8000232c: 45e1         	li	a1, 0x18
8000232e: fffff097     	auipc	ra, 0xfffff
80002332: f6c080e7     	jalr	-0x94(ra) <lab4_kernel_task2::kernel_fail::h81ee1edb0feee17d>
80002336: 75c2         	ld	a1, 0x30(sp)
80002338: 7562         	ld	a0, 0x38(sp)
8000233a: 952e         	add	a0, a0, a1
8000233c: f42a         	sd	a0, 0x28(sp)
8000233e: 04b56f63     	bltu	a0, a1, 0x8000239c <.Lpcrel_hi194>
80002342: a809         	j	0x80002354 <.Lpcrel_hi191+0x10>

0000000080002344 <.Lpcrel_hi191>:
80002344: 00005517     	auipc	a0, 0x5
80002348: eb450513     	addi	a0, a0, -0x14c
8000234c: 00004097     	auipc	ra, 0x4
80002350: a2a080e7     	jalr	-0x5d6(ra) <core::panicking::panic_const::panic_const_mul_overflow::h67897feae7531d51>
80002354: 7522         	ld	a0, 0x28(sp)
80002356: e8aa         	sd	a0, 0x50(sp)
80002358: f0aa         	sd	a0, 0x60(sp)
8000235a: 4581         	li	a1, 0x0
8000235c: ec2e         	sd	a1, 0x18(sp)
8000235e: 06b107a3     	sb	a1, 0x6f(sp)
80002362: 6605         	lui	a2, 0x1
80002364: f032         	sd	a2, 0x20(sp)
80002366: f8b2         	sd	a2, 0x70(sp)
80002368: 04b10fa3     	sb	a1, 0x5f(sp)
8000236c: 05f14603     	lbu	a2, 0x5f(sp)

0000000080002370 <.Lpcrel_hi192>:
80002370: 00005597     	auipc	a1, 0x5
80002374: 65058693     	addi	a3, a1, 0x650
80002378: 4585         	li	a1, 0x1
8000237a: ffffe097     	auipc	ra, 0xffffe
8000237e: f7a080e7     	jalr	-0x86(ra) <core::ptr::write_bytes::precondition_check::hb7be6038ea2643e9>
80002382: 7522         	ld	a0, 0x28(sp)
80002384: 65e2         	ld	a1, 0x18(sp)
80002386: 7602         	ld	a2, 0x20(sp)
80002388: 00004097     	auipc	ra, 0x4
8000238c: c08080e7     	jalr	-0x3f8(ra) <memset>

0000000080002390 <.Lpcrel_hi193>:
80002390: 0001f517     	auipc	a0, 0x1f
80002394: c7050513     	addi	a0, a0, -0x390
80002398: e911         	bnez	a0, 0x800023ac <.Lpcrel_hi195>
8000239a: a025         	j	0x800023c2 <.Lpcrel_hi196>

000000008000239c <.Lpcrel_hi194>:
8000239c: 00005517     	auipc	a0, 0x5
800023a0: e7450513     	addi	a0, a0, -0x18c
800023a4: 00004097     	auipc	ra, 0x4
800023a8: 9b4080e7     	jalr	-0x64c(ra) <core::panicking::panic_const::panic_const_add_overflow::h67cba067093910f8>

00000000800023ac <.Lpcrel_hi195>:
800023ac: 0001f517     	auipc	a0, 0x1f
800023b0: c5450513     	addi	a0, a0, -0x3ac
800023b4: 610c         	ld	a1, 0x0(a0)
800023b6: 00158513     	addi	a0, a1, 0x1
800023ba: e82a         	sd	a0, 0x10(sp)
800023bc: 02b56163     	bltu	a0, a1, 0x800023de <.Lpcrel_hi198>
800023c0: a809         	j	0x800023d2 <.Lpcrel_hi197>

00000000800023c2 <.Lpcrel_hi196>:
800023c2: 00005517     	auipc	a0, 0x5
800023c6: e6650513     	addi	a0, a0, -0x19a
800023ca: 00004097     	auipc	ra, 0x4
800023ce: a72080e7     	jalr	-0x58e(ra) <core::panicking::panic_null_pointer_dereference::hbac6411af4f2e916>

00000000800023d2 <.Lpcrel_hi197>:
800023d2: 0001f517     	auipc	a0, 0x1f
800023d6: c2e50513     	addi	a0, a0, -0x3d2
800023da: e911         	bnez	a0, 0x800023ee <.Lpcrel_hi198+0x10>
800023dc: a02d         	j	0x80002406 <.Lpcrel_hi201>

00000000800023de <.Lpcrel_hi198>:
800023de: 00005517     	auipc	a0, 0x5
800023e2: e4a50513     	addi	a0, a0, -0x1b6
800023e6: 00004097     	auipc	ra, 0x4
800023ea: 972080e7     	jalr	-0x68e(ra) <core::panicking::panic_const::panic_const_add_overflow::h67cba067093910f8>
800023ee: 6542         	ld	a0, 0x10(sp)

00000000800023f0 <.Lpcrel_hi199>:
800023f0: 0001f597     	auipc	a1, 0x1f
800023f4: c1058593     	addi	a1, a1, -0x3f0
800023f8: e188         	sd	a0, 0x0(a1)

00000000800023fa <.Lpcrel_hi200>:
800023fa: 00007517     	auipc	a0, 0x7
800023fe: c0650513     	addi	a0, a0, -0x3fa
80002402: e911         	bnez	a0, 0x80002416 <.Lpcrel_hi202>
80002404: a025         	j	0x8000242c <.Lpcrel_hi203>

0000000080002406 <.Lpcrel_hi201>:
80002406: 00005517     	auipc	a0, 0x5
8000240a: e2250513     	addi	a0, a0, -0x1de
8000240e: 00004097     	auipc	ra, 0x4
80002412: a2e080e7     	jalr	-0x5d2(ra) <core::panicking::panic_null_pointer_dereference::hbac6411af4f2e916>

0000000080002416 <.Lpcrel_hi202>:
80002416: 00007517     	auipc	a0, 0x7
8000241a: bea50513     	addi	a0, a0, -0x416
8000241e: 790c         	ld	a1, 0x30(a0)
80002420: 00158513     	addi	a0, a1, 0x1
80002424: e42a         	sd	a0, 0x8(sp)
80002426: 02b56163     	bltu	a0, a1, 0x80002448 <.Lpcrel_hi205>
8000242a: a809         	j	0x8000243c <.Lpcrel_hi204>

000000008000242c <.Lpcrel_hi203>:
8000242c: 00005517     	auipc	a0, 0x5
80002430: e1450513     	addi	a0, a0, -0x1ec
80002434: 00004097     	auipc	ra, 0x4
80002438: a08080e7     	jalr	-0x5f8(ra) <core::panicking::panic_null_pointer_dereference::hbac6411af4f2e916>

000000008000243c <.Lpcrel_hi204>:
8000243c: 00007517     	auipc	a0, 0x7
80002440: bc450513     	addi	a0, a0, -0x43c
80002444: e911         	bnez	a0, 0x80002458 <.Lpcrel_hi205+0x10>
80002446: a01d         	j	0x8000246c <.Lpcrel_hi207>

0000000080002448 <.Lpcrel_hi205>:
80002448: 00005517     	auipc	a0, 0x5
8000244c: df850513     	addi	a0, a0, -0x208
80002450: 00004097     	auipc	ra, 0x4
80002454: 908080e7     	jalr	-0x6f8(ra) <core::panicking::panic_const::panic_const_add_overflow::h67cba067093910f8>
80002458: 7522         	ld	a0, 0x28(sp)
8000245a: 65a2         	ld	a1, 0x8(sp)

000000008000245c <.Lpcrel_hi206>:
8000245c: 00007617     	auipc	a2, 0x7
80002460: ba460613     	addi	a2, a2, -0x45c
80002464: fa0c         	sd	a1, 0x30(a2)
80002466: 70e6         	ld	ra, 0x78(sp)
80002468: 6109         	addi	sp, sp, 0x80
8000246a: 8082         	ret

000000008000246c <.Lpcrel_hi207>:
8000246c: 00005517     	auipc	a0, 0x5
80002470: dd450513     	addi	a0, a0, -0x22c
80002474: 00004097     	auipc	ra, 0x4
80002478: 9c8080e7     	jalr	-0x638(ra) <core::panicking::panic_null_pointer_dereference::hbac6411af4f2e916>

000000008000247c <lab4_kernel_task2::kernel_l1_table_pa::h7c76110a63639229>:
8000247c: 00020517     	auipc	a0, 0x20
80002480: b8450513     	addi	a0, a0, -0x47c
80002484: 8082         	ret

0000000080002486 <lab4_kernel_task2::prepare_user_frame::hd354839830c102f4>:
80002486: 716d         	addi	sp, sp, -0x110
80002488: e606         	sd	ra, 0x108(sp)
8000248a: 0028         	addi	a0, sp, 0x8
8000248c: ffffe097     	auipc	ra, 0xffffe
80002490: c22080e7     	jalr	-0x3de(ra) <lab4_kernel_task2::trap::TrapFrame::zeroed::h6a23567e6761ba4e>

0000000080002494 <.Lpcrel_hi209>:
80002494: 00007517     	auipc	a0, 0x7
80002498: bac50513     	addi	a0, a0, -0x454
8000249c: c10d         	beqz	a0, 0x800024be <.Lpcrel_hi211>
8000249e: a009         	j	0x800024a0 <.Lpcrel_hi210>

00000000800024a0 <.Lpcrel_hi210>:
800024a0: 00007517     	auipc	a0, 0x7
800024a4: ba050513     	addi	a0, a0, -0x460
800024a8: e02a         	sd	a0, 0x0(sp)
800024aa: 002c         	addi	a1, sp, 0x8
800024ac: 10000613     	li	a2, 0x100
800024b0: 00004097     	auipc	ra, 0x4
800024b4: b56080e7     	jalr	-0x4aa(ra) <memcpy>
800024b8: 6502         	ld	a0, 0x0(sp)
800024ba: e911         	bnez	a0, 0x800024ce <.Lpcrel_hi212>
800024bc: a015         	j	0x800024e0 <.Lpcrel_hi213>

00000000800024be <.Lpcrel_hi211>:
800024be: 00005517     	auipc	a0, 0x5
800024c2: db250513     	addi	a0, a0, -0x24e
800024c6: 00004097     	auipc	ra, 0x4
800024ca: 976080e7     	jalr	-0x68a(ra) <core::panicking::panic_null_pointer_dereference::hbac6411af4f2e916>

00000000800024ce <.Lpcrel_hi212>:
800024ce: 00007517     	auipc	a0, 0x7
800024d2: b7250513     	addi	a0, a0, -0x48e
800024d6: 004005b7     	lui	a1, 0x400
800024da: fd6c         	sd	a1, 0xf8(a0)
800024dc: e911         	bnez	a0, 0x800024f0 <.Lpcrel_hi214>
800024de: a01d         	j	0x80002504 <.Lpcrel_hi215>

00000000800024e0 <.Lpcrel_hi213>:
800024e0: 00005517     	auipc	a0, 0x5
800024e4: da850513     	addi	a0, a0, -0x258
800024e8: 00004097     	auipc	ra, 0x4
800024ec: 954080e7     	jalr	-0x6ac(ra) <core::panicking::panic_null_pointer_dereference::hbac6411af4f2e916>

00000000800024f0 <.Lpcrel_hi214>:
800024f0: 00007517     	auipc	a0, 0x7
800024f4: b5050593     	addi	a1, a0, -0x4b0
800024f8: 00403537     	lui	a0, 0x403
800024fc: f9e8         	sd	a0, 0xf0(a1)
800024fe: 60b2         	ld	ra, 0x108(sp)
80002500: 6151         	addi	sp, sp, 0x110
80002502: 8082         	ret

0000000080002504 <.Lpcrel_hi215>:
80002504: 00005517     	auipc	a0, 0x5
80002508: d9c50513     	addi	a0, a0, -0x264
8000250c: 00004097     	auipc	ra, 0x4
80002510: 930080e7     	jalr	-0x6d0(ra) <core::panicking::panic_null_pointer_dereference::hbac6411af4f2e916>

0000000080002514 <lab4_kernel_task2::root_page_table_pa::h50ea20d77bcc61fb>:
80002514: 00019517     	auipc	a0, 0x19
80002518: aec50513     	addi	a0, a0, -0x514
8000251c: 8082         	ret

000000008000251e <lab4_kernel_task2::user_stack_page_pa::hcd13f377b0336cb8>:
8000251e: 0001a517     	auipc	a0, 0x1a
80002522: ae250513     	addi	a0, a0, -0x51e
80002526: 8082         	ret

0000000080002528 <lab4_kernel_task2::finish_user_program::hedbfb5aee0bf655a>:
80002528: 9e010113     	addi	sp, sp, -0x620
8000252c: 60113c23     	sd	ra, 0x618(sp)
80002530: f02a         	sd	a0, 0x20(sp)
80002532: fffff097     	auipc	ra, 0xfffff
80002536: dd4080e7     	jalr	-0x22c(ra) <lab4_kernel_task2::user_shared::h6989d0dbb0dbf42a>
8000253a: 85aa         	mv	a1, a0
8000253c: ec2e         	sd	a1, 0x18(sp)
8000253e: 4ea13823     	sd	a0, 0x4f0(sp)
80002542: 1028         	addi	a0, sp, 0x28
80002544: 004105b7     	lui	a1, 0x410
80002548: fffff097     	auipc	ra, 0xfffff
8000254c: e3a080e7     	jalr	-0x1c6(ra) <lab4_kernel_task2::walk_virtual::haeedce58dbcc1375>
80002550: 10a8         	addi	a0, sp, 0x68
80002552: 004115b7     	lui	a1, 0x411
80002556: fffff097     	auipc	ra, 0xfffff
8000255a: e2c080e7     	jalr	-0x1d4(ra) <lab4_kernel_task2::walk_virtual::haeedce58dbcc1375>
8000255e: 1128         	addi	a0, sp, 0xa8
80002560: 004205b7     	lui	a1, 0x420
80002564: fffff097     	auipc	ra, 0xfffff
80002568: e1e080e7     	jalr	-0x1e2(ra) <lab4_kernel_task2::walk_virtual::haeedce58dbcc1375>
8000256c: 11a8         	addi	a0, sp, 0xe8
8000256e: 004215b7     	lui	a1, 0x421
80002572: fffff097     	auipc	ra, 0xfffff
80002576: e10080e7     	jalr	-0x1f0(ra) <lab4_kernel_task2::walk_virtual::haeedce58dbcc1375>

000000008000257a <.Lpcrel_hi218>:
8000257a: 00007517     	auipc	a0, 0x7
8000257e: a8650513     	addi	a0, a0, -0x57a
80002582: cd0d         	beqz	a0, 0x800025bc <.Lpcrel_hi221>
80002584: a009         	j	0x80002586 <.Lpcrel_hi219>

0000000080002586 <.Lpcrel_hi219>:
80002586: 00007517     	auipc	a0, 0x7
8000258a: a7a50513     	addi	a0, a0, -0x586
8000258e: e82a         	sd	a0, 0x10(sp)
80002590: 7d0c         	ld	a1, 0x38(a0)
80002592: f2ae         	sd	a1, 0x160(sp)
80002594: 790c         	ld	a1, 0x30(a0)
80002596: eeae         	sd	a1, 0x158(sp)
80002598: 750c         	ld	a1, 0x28(a0)
8000259a: eaae         	sd	a1, 0x150(sp)
8000259c: 710c         	ld	a1, 0x20(a0)
8000259e: e6ae         	sd	a1, 0x148(sp)
800025a0: 6d0c         	ld	a1, 0x18(a0)
800025a2: e2ae         	sd	a1, 0x140(sp)
800025a4: 690c         	ld	a1, 0x10(a0)
800025a6: fe2e         	sd	a1, 0x138(sp)
800025a8: 650c         	ld	a1, 0x8(a0)
800025aa: fa2e         	sd	a1, 0x130(sp)
800025ac: 6108         	ld	a0, 0x0(a0)
800025ae: f62a         	sd	a0, 0x128(sp)

00000000800025b0 <.Lpcrel_hi220>:
800025b0: 00007517     	auipc	a0, 0x7
800025b4: b9050513     	addi	a0, a0, -0x470
800025b8: e911         	bnez	a0, 0x800025cc <.Lpcrel_hi222>
800025ba: a105         	j	0x800029da <.Lpcrel_hi230>

00000000800025bc <.Lpcrel_hi221>:
800025bc: 00005517     	auipc	a0, 0x5
800025c0: cfc50513     	addi	a0, a0, -0x304
800025c4: 00004097     	auipc	ra, 0x4
800025c8: 878080e7     	jalr	-0x788(ra) <core::panicking::panic_null_pointer_dereference::hbac6411af4f2e916>

00000000800025cc <.Lpcrel_hi222>:
800025cc: 00007517     	auipc	a0, 0x7
800025d0: b7450513     	addi	a0, a0, -0x48c
800025d4: 690c         	ld	a1, 0x10(a0)
800025d6: feae         	sd	a1, 0x178(sp)
800025d8: 650c         	ld	a1, 0x8(a0)
800025da: faae         	sd	a1, 0x170(sp)
800025dc: 6108         	ld	a0, 0x0(a0)
800025de: f6aa         	sd	a0, 0x168(sp)
800025e0: 100c         	addi	a1, sp, 0x20
800025e2: 4eb13c23     	sd	a1, 0x4f8(sp)
800025e6: 0b08         	addi	a0, sp, 0x190
800025e8: 00002097     	auipc	ra, 0x2
800025ec: 2a6080e7     	jalr	0x2a6(ra) <core::fmt::rt::Argument::new_display::h9aa9b8b69faee6ac>
800025f0: 657a         	ld	a0, 0x198(sp)
800025f2: e72a         	sd	a0, 0x188(sp)
800025f4: 655a         	ld	a0, 0x190(sp)
800025f6: e32a         	sd	a0, 0x180(sp)

00000000800025f8 <.Lpcrel_hi223>:
800025f8: 00004517     	auipc	a0, 0x4
800025fc: 03750513     	addi	a0, a0, 0x37
80002600: 030c         	addi	a1, sp, 0x180
80002602: ffffe097     	auipc	ra, 0xffffe
80002606: c10080e7     	jalr	-0x3f0(ra) <core::fmt::Arguments::new::h23bd85e95e22e9d4>
8000260a: ffffe097     	auipc	ra, 0xffffe
8000260e: b36080e7     	jalr	-0x4ca(ra) <lab4_kernel_task2::console::print::h7473f0160e01bbb6>
80002612: 13010813     	addi	a6, sp, 0x130
80002616: 1a3c         	addi	a5, sp, 0x138
80002618: 0298         	addi	a4, sp, 0x140
8000261a: 02b4         	addi	a3, sp, 0x148
8000261c: 0a90         	addi	a2, sp, 0x150
8000261e: 0aac         	addi	a1, sp, 0x158
80002620: 1288         	addi	a0, sp, 0x160
80002622: 12810893     	addi	a7, sp, 0x128
80002626: f346         	sd	a7, 0x1a0(sp)
80002628: f742         	sd	a6, 0x1a8(sp)
8000262a: fb3e         	sd	a5, 0x1b0(sp)
8000262c: ff3a         	sd	a4, 0x1b8(sp)
8000262e: e3b6         	sd	a3, 0x1c0(sp)
80002630: e7b2         	sd	a2, 0x1c8(sp)
80002632: ebae         	sd	a1, 0x1d0(sp)
80002634: efaa         	sd	a0, 0x1d8(sp)
80002636: 759a         	ld	a1, 0x1a0(sp)
80002638: 1488         	addi	a0, sp, 0x260
8000263a: 00002097     	auipc	ra, 0x2
8000263e: 254080e7     	jalr	0x254(ra) <core::fmt::rt::Argument::new_display::h9aa9b8b69faee6ac>
80002642: 75ba         	ld	a1, 0x1a8(sp)
80002644: 1c88         	addi	a0, sp, 0x270
80002646: 00002097     	auipc	ra, 0x2
8000264a: 248080e7     	jalr	0x248(ra) <core::fmt::rt::Argument::new_display::h9aa9b8b69faee6ac>
8000264e: 75da         	ld	a1, 0x1b0(sp)
80002650: 0508         	addi	a0, sp, 0x280
80002652: 00002097     	auipc	ra, 0x2
80002656: 23c080e7     	jalr	0x23c(ra) <core::fmt::rt::Argument::new_display::h9aa9b8b69faee6ac>
8000265a: 75fa         	ld	a1, 0x1b8(sp)
8000265c: 0d08         	addi	a0, sp, 0x290
8000265e: 00002097     	auipc	ra, 0x2
80002662: 230080e7     	jalr	0x230(ra) <core::fmt::rt::Argument::new_display::h9aa9b8b69faee6ac>
80002666: 659e         	ld	a1, 0x1c0(sp)
80002668: 1508         	addi	a0, sp, 0x2a0
8000266a: 00002097     	auipc	ra, 0x2
8000266e: 224080e7     	jalr	0x224(ra) <core::fmt::rt::Argument::new_display::h9aa9b8b69faee6ac>
80002672: 65be         	ld	a1, 0x1c8(sp)
80002674: 1d08         	addi	a0, sp, 0x2b0
80002676: 00002097     	auipc	ra, 0x2
8000267a: 218080e7     	jalr	0x218(ra) <core::fmt::rt::Argument::new_display::h9aa9b8b69faee6ac>
8000267e: 65de         	ld	a1, 0x1d0(sp)
80002680: 0588         	addi	a0, sp, 0x2c0
80002682: 00002097     	auipc	ra, 0x2
80002686: 20c080e7     	jalr	0x20c(ra) <core::fmt::rt::Argument::new_display::h9aa9b8b69faee6ac>
8000268a: 65fe         	ld	a1, 0x1d8(sp)
8000268c: 0d88         	addi	a0, sp, 0x2d0
8000268e: 00002097     	auipc	ra, 0x2
80002692: 200080e7     	jalr	0x200(ra) <core::fmt::rt::Argument::new_display::h9aa9b8b69faee6ac>
80002696: 26813503     	ld	a0, 0x268(sp)
8000269a: f7aa         	sd	a0, 0x1e8(sp)
8000269c: 26013503     	ld	a0, 0x260(sp)
800026a0: f3aa         	sd	a0, 0x1e0(sp)
800026a2: 27813503     	ld	a0, 0x278(sp)
800026a6: ffaa         	sd	a0, 0x1f8(sp)
800026a8: 27013503     	ld	a0, 0x270(sp)
800026ac: fbaa         	sd	a0, 0x1f0(sp)
800026ae: 28813503     	ld	a0, 0x288(sp)
800026b2: 20a13423     	sd	a0, 0x208(sp)
800026b6: 28013503     	ld	a0, 0x280(sp)
800026ba: 20a13023     	sd	a0, 0x200(sp)
800026be: 29813503     	ld	a0, 0x298(sp)
800026c2: 20a13c23     	sd	a0, 0x218(sp)
800026c6: 29013503     	ld	a0, 0x290(sp)
800026ca: 20a13823     	sd	a0, 0x210(sp)
800026ce: 2a813503     	ld	a0, 0x2a8(sp)
800026d2: 22a13423     	sd	a0, 0x228(sp)
800026d6: 2a013503     	ld	a0, 0x2a0(sp)
800026da: 22a13023     	sd	a0, 0x220(sp)
800026de: 2b813503     	ld	a0, 0x2b8(sp)
800026e2: 22a13c23     	sd	a0, 0x238(sp)
800026e6: 2b013503     	ld	a0, 0x2b0(sp)
800026ea: 22a13823     	sd	a0, 0x230(sp)
800026ee: 2c813503     	ld	a0, 0x2c8(sp)
800026f2: 24a13423     	sd	a0, 0x248(sp)
800026f6: 2c013503     	ld	a0, 0x2c0(sp)
800026fa: 24a13023     	sd	a0, 0x240(sp)
800026fe: 2d813503     	ld	a0, 0x2d8(sp)
80002702: 24a13c23     	sd	a0, 0x258(sp)
80002706: 2d013503     	ld	a0, 0x2d0(sp)
8000270a: 24a13823     	sd	a0, 0x250(sp)

000000008000270e <.Lpcrel_hi224>:
8000270e: 00004517     	auipc	a0, 0x4
80002712: d5950513     	addi	a0, a0, -0x2a7
80002716: 138c         	addi	a1, sp, 0x1e0
80002718: ffffe097     	auipc	ra, 0xffffe
8000271c: b7c080e7     	jalr	-0x484(ra) <core::fmt::Arguments::new::hc79e36e0e9788799>
80002720: ffffe097     	auipc	ra, 0xffffe
80002724: a20080e7     	jalr	-0x5e0(ra) <lab4_kernel_task2::console::print::h7473f0160e01bbb6>
80002728: 62e2         	ld	t0, 0x18(sp)
8000272a: 00828893     	addi	a7, t0, 0x8
8000272e: 01028813     	addi	a6, t0, 0x10
80002732: 01828793     	addi	a5, t0, 0x18
80002736: 02028713     	addi	a4, t0, 0x20
8000273a: 02828693     	addi	a3, t0, 0x28
8000273e: 03028613     	addi	a2, t0, 0x30
80002742: 03828593     	addi	a1, t0, 0x38
80002746: 04028513     	addi	a0, t0, 0x40
8000274a: 2e513023     	sd	t0, 0x2e0(sp)
8000274e: 2f113423     	sd	a7, 0x2e8(sp)
80002752: 2f013823     	sd	a6, 0x2f0(sp)
80002756: 2ef13c23     	sd	a5, 0x2f8(sp)
8000275a: 30e13023     	sd	a4, 0x300(sp)
8000275e: 30d13423     	sd	a3, 0x308(sp)
80002762: 30c13823     	sd	a2, 0x310(sp)
80002766: 30b13c23     	sd	a1, 0x318(sp)
8000276a: 32a13023     	sd	a0, 0x320(sp)
8000276e: 2e013583     	ld	a1, 0x2e0(sp)
80002772: 1f28         	addi	a0, sp, 0x3b8
80002774: 00002097     	auipc	ra, 0x2
80002778: 1c4080e7     	jalr	0x1c4(ra) <core::fmt::rt::Argument::new_lower_hex::hb5471ebe86759598>
8000277c: 2e813583     	ld	a1, 0x2e8(sp)
80002780: 07a8         	addi	a0, sp, 0x3c8
80002782: 00002097     	auipc	ra, 0x2
80002786: 1b6080e7     	jalr	0x1b6(ra) <core::fmt::rt::Argument::new_lower_hex::hb5471ebe86759598>
8000278a: 2f013583     	ld	a1, 0x2f0(sp)
8000278e: 0fa8         	addi	a0, sp, 0x3d8
80002790: 00002097     	auipc	ra, 0x2
80002794: 1a8080e7     	jalr	0x1a8(ra) <core::fmt::rt::Argument::new_lower_hex::hb5471ebe86759598>
80002798: 2f813583     	ld	a1, 0x2f8(sp)
8000279c: 17a8         	addi	a0, sp, 0x3e8
8000279e: 00002097     	auipc	ra, 0x2
800027a2: 19a080e7     	jalr	0x19a(ra) <core::fmt::rt::Argument::new_lower_hex::hb5471ebe86759598>
800027a6: 30013583     	ld	a1, 0x300(sp)
800027aa: 1fa8         	addi	a0, sp, 0x3f8
800027ac: 00002097     	auipc	ra, 0x2
800027b0: 18c080e7     	jalr	0x18c(ra) <core::fmt::rt::Argument::new_lower_hex::hb5471ebe86759598>
800027b4: 30813583     	ld	a1, 0x308(sp)
800027b8: 40810513     	addi	a0, sp, 0x408
800027bc: 00002097     	auipc	ra, 0x2
800027c0: 17c080e7     	jalr	0x17c(ra) <core::fmt::rt::Argument::new_lower_hex::hb5471ebe86759598>
800027c4: 31013583     	ld	a1, 0x310(sp)
800027c8: 41810513     	addi	a0, sp, 0x418
800027cc: 00002097     	auipc	ra, 0x2
800027d0: 16c080e7     	jalr	0x16c(ra) <core::fmt::rt::Argument::new_lower_hex::hb5471ebe86759598>
800027d4: 31813583     	ld	a1, 0x318(sp)
800027d8: 42810513     	addi	a0, sp, 0x428
800027dc: 00002097     	auipc	ra, 0x2
800027e0: 15c080e7     	jalr	0x15c(ra) <core::fmt::rt::Argument::new_lower_hex::hb5471ebe86759598>
800027e4: 32013583     	ld	a1, 0x320(sp)
800027e8: 43810513     	addi	a0, sp, 0x438
800027ec: 00002097     	auipc	ra, 0x2
800027f0: 14c080e7     	jalr	0x14c(ra) <core::fmt::rt::Argument::new_lower_hex::hb5471ebe86759598>
800027f4: 3c013503     	ld	a0, 0x3c0(sp)
800027f8: 32a13823     	sd	a0, 0x330(sp)
800027fc: 3b813503     	ld	a0, 0x3b8(sp)
80002800: 32a13423     	sd	a0, 0x328(sp)
80002804: 3d013503     	ld	a0, 0x3d0(sp)
80002808: 34a13023     	sd	a0, 0x340(sp)
8000280c: 3c813503     	ld	a0, 0x3c8(sp)
80002810: 32a13c23     	sd	a0, 0x338(sp)
80002814: 3e013503     	ld	a0, 0x3e0(sp)
80002818: 34a13823     	sd	a0, 0x350(sp)
8000281c: 3d813503     	ld	a0, 0x3d8(sp)
80002820: 34a13423     	sd	a0, 0x348(sp)
80002824: 3f013503     	ld	a0, 0x3f0(sp)
80002828: 36a13023     	sd	a0, 0x360(sp)
8000282c: 3e813503     	ld	a0, 0x3e8(sp)
80002830: 34a13c23     	sd	a0, 0x358(sp)
80002834: 40013503     	ld	a0, 0x400(sp)
80002838: 36a13823     	sd	a0, 0x370(sp)
8000283c: 3f813503     	ld	a0, 0x3f8(sp)
80002840: 36a13423     	sd	a0, 0x368(sp)
80002844: 41013503     	ld	a0, 0x410(sp)
80002848: 38a13023     	sd	a0, 0x380(sp)
8000284c: 40813503     	ld	a0, 0x408(sp)
80002850: 36a13c23     	sd	a0, 0x378(sp)
80002854: 42013503     	ld	a0, 0x420(sp)
80002858: 38a13823     	sd	a0, 0x390(sp)
8000285c: 41813503     	ld	a0, 0x418(sp)
80002860: 38a13423     	sd	a0, 0x388(sp)
80002864: 43013503     	ld	a0, 0x430(sp)
80002868: 3aa13023     	sd	a0, 0x3a0(sp)
8000286c: 42813503     	ld	a0, 0x428(sp)
80002870: 38a13c23     	sd	a0, 0x398(sp)
80002874: 44013503     	ld	a0, 0x440(sp)
80002878: 3aa13823     	sd	a0, 0x3b0(sp)
8000287c: 43813503     	ld	a0, 0x438(sp)
80002880: 3aa13423     	sd	a0, 0x3a8(sp)

0000000080002884 <.Lpcrel_hi225>:
80002884: 00005517     	auipc	a0, 0x5
80002888: a6450513     	addi	a0, a0, -0x59c
8000288c: 162c         	addi	a1, sp, 0x328
8000288e: ffffe097     	auipc	ra, 0xffffe
80002892: 9c0080e7     	jalr	-0x640(ra) <core::fmt::Arguments::new::h56943a2883a60125>
80002896: ffffe097     	auipc	ra, 0xffffe
8000289a: 8aa080e7     	jalr	-0x756(ra) <lab4_kernel_task2::console::print::h7473f0160e01bbb6>
8000289e: ffffe097     	auipc	ra, 0xffffe
800028a2: 45a080e7     	jalr	0x45a(ra) <lab4_kernel_task2::print_vmas::hd16bf6c74a53f911>
800028a6: 7506         	ld	a0, 0x60(sp)
800028a8: 52a13c23     	sd	a0, 0x538(sp)
800028ac: 6566         	ld	a0, 0x58(sp)
800028ae: 52a13823     	sd	a0, 0x530(sp)
800028b2: 6546         	ld	a0, 0x50(sp)
800028b4: 52a13423     	sd	a0, 0x528(sp)
800028b8: 6526         	ld	a0, 0x48(sp)
800028ba: 52a13023     	sd	a0, 0x520(sp)
800028be: 6506         	ld	a0, 0x40(sp)
800028c0: 50a13c23     	sd	a0, 0x518(sp)
800028c4: 7562         	ld	a0, 0x38(sp)
800028c6: 50a13823     	sd	a0, 0x510(sp)
800028ca: 7542         	ld	a0, 0x30(sp)
800028cc: 50a13423     	sd	a0, 0x508(sp)
800028d0: 7522         	ld	a0, 0x28(sp)
800028d2: 50a13023     	sd	a0, 0x500(sp)

00000000800028d6 <.Lpcrel_hi226>:
800028d6: 00005517     	auipc	a0, 0x5
800028da: ac750513     	addi	a0, a0, -0x539
800028de: 45a9         	li	a1, 0xa
800028e0: e42e         	sd	a1, 0x8(sp)
800028e2: 00410637     	lui	a2, 0x410
800028e6: 50010693     	addi	a3, sp, 0x500
800028ea: ffffe097     	auipc	ra, 0xffffe
800028ee: 5a0080e7     	jalr	0x5a0(ra) <lab4_kernel_task2::print_walk::hba181e23c4f2f5d4>
800028f2: 65a2         	ld	a1, 0x8(sp)
800028f4: 750a         	ld	a0, 0xa0(sp)
800028f6: 56a13c23     	sd	a0, 0x578(sp)
800028fa: 656a         	ld	a0, 0x98(sp)
800028fc: 56a13823     	sd	a0, 0x570(sp)
80002900: 654a         	ld	a0, 0x90(sp)
80002902: 56a13423     	sd	a0, 0x568(sp)
80002906: 652a         	ld	a0, 0x88(sp)
80002908: 56a13023     	sd	a0, 0x560(sp)
8000290c: 650a         	ld	a0, 0x80(sp)
8000290e: 54a13c23     	sd	a0, 0x558(sp)
80002912: 7566         	ld	a0, 0x78(sp)
80002914: 54a13823     	sd	a0, 0x550(sp)
80002918: 7546         	ld	a0, 0x70(sp)
8000291a: 54a13423     	sd	a0, 0x548(sp)
8000291e: 7526         	ld	a0, 0x68(sp)
80002920: 54a13023     	sd	a0, 0x540(sp)

0000000080002924 <.Lpcrel_hi227>:
80002924: 00005517     	auipc	a0, 0x5
80002928: a8350513     	addi	a0, a0, -0x57d
8000292c: 00411637     	lui	a2, 0x411
80002930: 54010693     	addi	a3, sp, 0x540
80002934: ffffe097     	auipc	ra, 0xffffe
80002938: 556080e7     	jalr	0x556(ra) <lab4_kernel_task2::print_walk::hba181e23c4f2f5d4>
8000293c: 65a2         	ld	a1, 0x8(sp)
8000293e: 750e         	ld	a0, 0xe0(sp)
80002940: 5aa13c23     	sd	a0, 0x5b8(sp)
80002944: 656e         	ld	a0, 0xd8(sp)
80002946: 5aa13823     	sd	a0, 0x5b0(sp)
8000294a: 654e         	ld	a0, 0xd0(sp)
8000294c: 5aa13423     	sd	a0, 0x5a8(sp)
80002950: 652e         	ld	a0, 0xc8(sp)
80002952: 5aa13023     	sd	a0, 0x5a0(sp)
80002956: 650e         	ld	a0, 0xc0(sp)
80002958: 58a13c23     	sd	a0, 0x598(sp)
8000295c: 756a         	ld	a0, 0xb8(sp)
8000295e: 58a13823     	sd	a0, 0x590(sp)
80002962: 754a         	ld	a0, 0xb0(sp)
80002964: 58a13423     	sd	a0, 0x588(sp)
80002968: 752a         	ld	a0, 0xa8(sp)
8000296a: 58a13023     	sd	a0, 0x580(sp)

000000008000296e <.Lpcrel_hi228>:
8000296e: 00005517     	auipc	a0, 0x5
80002972: a4350513     	addi	a0, a0, -0x5bd
80002976: 00420637     	lui	a2, 0x420
8000297a: 58010693     	addi	a3, sp, 0x580
8000297e: ffffe097     	auipc	ra, 0xffffe
80002982: 50c080e7     	jalr	0x50c(ra) <lab4_kernel_task2::print_walk::hba181e23c4f2f5d4>
80002986: 65a2         	ld	a1, 0x8(sp)
80002988: 7512         	ld	a0, 0x120(sp)
8000298a: 5ea13c23     	sd	a0, 0x5f8(sp)
8000298e: 6572         	ld	a0, 0x118(sp)
80002990: 5ea13823     	sd	a0, 0x5f0(sp)
80002994: 6552         	ld	a0, 0x110(sp)
80002996: 5ea13423     	sd	a0, 0x5e8(sp)
8000299a: 6532         	ld	a0, 0x108(sp)
8000299c: 5ea13023     	sd	a0, 0x5e0(sp)
800029a0: 6512         	ld	a0, 0x100(sp)
800029a2: 5ca13c23     	sd	a0, 0x5d8(sp)
800029a6: 756e         	ld	a0, 0xf8(sp)
800029a8: 5ca13823     	sd	a0, 0x5d0(sp)
800029ac: 754e         	ld	a0, 0xf0(sp)
800029ae: 5ca13423     	sd	a0, 0x5c8(sp)
800029b2: 752e         	ld	a0, 0xe8(sp)
800029b4: 5ca13023     	sd	a0, 0x5c0(sp)

00000000800029b8 <.Lpcrel_hi229>:
800029b8: 00005517     	auipc	a0, 0x5
800029bc: a0350513     	addi	a0, a0, -0x5fd
800029c0: 00421637     	lui	a2, 0x421
800029c4: 5c010693     	addi	a3, sp, 0x5c0
800029c8: ffffe097     	auipc	ra, 0xffffe
800029cc: 4c2080e7     	jalr	0x4c2(ra) <lab4_kernel_task2::print_walk::hba181e23c4f2f5d4>
800029d0: 17814503     	lbu	a0, 0x178(sp)
800029d4: 8905         	andi	a0, a0, 0x1
800029d6: ed11         	bnez	a0, 0x800029f2 <.Lpcrel_hi230+0x18>
800029d8: a809         	j	0x800029ea <.Lpcrel_hi230+0x10>

00000000800029da <.Lpcrel_hi230>:
800029da: 00005517     	auipc	a0, 0x5
800029de: 8f650513     	addi	a0, a0, -0x70a
800029e2: 00003097     	auipc	ra, 0x3
800029e6: 45a080e7     	jalr	0x45a(ra) <core::panicking::panic_null_pointer_dereference::hbac6411af4f2e916>
800029ea: 4501         	li	a0, 0x0
800029ec: 44a10623     	sb	a0, 0x44c(sp)
800029f0: a00d         	j	0x80002a12 <.Lpcrel_hi230+0x38>
800029f2: 17914503     	lbu	a0, 0x179(sp)
800029f6: 8905         	andi	a0, a0, 0x1
800029f8: d96d         	beqz	a0, 0x800029ea <.Lpcrel_hi230+0x10>
800029fa: a009         	j	0x800029fc <.Lpcrel_hi230+0x22>
800029fc: 17a14503     	lbu	a0, 0x17a(sp)
80002a00: 8905         	andi	a0, a0, 0x1
80002a02: d565         	beqz	a0, 0x800029ea <.Lpcrel_hi230+0x10>
80002a04: a009         	j	0x80002a06 <.Lpcrel_hi230+0x2c>
80002a06: 7536         	ld	a0, 0x168(sp)
80002a08: 00153513     	seqz	a0, a0
80002a0c: 44a10623     	sb	a0, 0x44c(sp)
80002a10: a009         	j	0x80002a12 <.Lpcrel_hi230+0x38>
80002a12: 6516         	ld	a0, 0x140(sp)
80002a14: 4591         	li	a1, 0x4
80002a16: 00b50763     	beq	a0, a1, 0x80002a24 <.Lpcrel_hi230+0x4a>
80002a1a: a009         	j	0x80002a1c <.Lpcrel_hi230+0x42>
80002a1c: 4501         	li	a0, 0x0
80002a1e: 44a106a3     	sb	a0, 0x44d(sp)
80002a22: a825         	j	0x80002a5a <.Lpcrel_hi230+0x80>
80002a24: 6536         	ld	a0, 0x148(sp)
80002a26: 4589         	li	a1, 0x2
80002a28: feb51ae3     	bne	a0, a1, 0x80002a1c <.Lpcrel_hi230+0x42>
80002a2c: a009         	j	0x80002a2e <.Lpcrel_hi230+0x54>
80002a2e: 6556         	ld	a0, 0x150(sp)
80002a30: 4589         	li	a1, 0x2
80002a32: feb515e3     	bne	a0, a1, 0x80002a1c <.Lpcrel_hi230+0x42>
80002a36: a009         	j	0x80002a38 <.Lpcrel_hi230+0x5e>
80002a38: 6576         	ld	a0, 0x158(sp)
80002a3a: 4591         	li	a1, 0x4
80002a3c: feb510e3     	bne	a0, a1, 0x80002a1c <.Lpcrel_hi230+0x42>
80002a40: a009         	j	0x80002a42 <.Lpcrel_hi230+0x68>
80002a42: 7516         	ld	a0, 0x160(sp)
80002a44: 4591         	li	a1, 0x4
80002a46: fcb51be3     	bne	a0, a1, 0x80002a1c <.Lpcrel_hi230+0x42>
80002a4a: a009         	j	0x80002a4c <.Lpcrel_hi230+0x72>
80002a4c: 7556         	ld	a0, 0x170(sp)
80002a4e: 1571         	addi	a0, a0, -0x4
80002a50: 00153513     	seqz	a0, a0
80002a54: 44a106a3     	sb	a0, 0x44d(sp)
80002a58: a009         	j	0x80002a5a <.Lpcrel_hi230+0x80>
80002a5a: 7506         	ld	a0, 0x60(sp)
80002a5c: fffff097     	auipc	ra, 0xfffff
80002a60: 91c080e7     	jalr	-0x6e4(ra) <lab4_kernel_task2::pte_is_valid::hcf3d742da30fb2ce>
80002a64: e511         	bnez	a0, 0x80002a70 <.Lpcrel_hi230+0x96>
80002a66: a009         	j	0x80002a68 <.Lpcrel_hi230+0x8e>
80002a68: 4501         	li	a0, 0x0
80002a6a: 44a10723     	sb	a0, 0x44e(sp)
80002a6e: a09d         	j	0x80002ad4 <.Lpcrel_hi230+0xfa>
80002a70: 750a         	ld	a0, 0xa0(sp)
80002a72: fffff097     	auipc	ra, 0xfffff
80002a76: 906080e7     	jalr	-0x6fa(ra) <lab4_kernel_task2::pte_is_valid::hcf3d742da30fb2ce>
80002a7a: d57d         	beqz	a0, 0x80002a68 <.Lpcrel_hi230+0x8e>
80002a7c: a009         	j	0x80002a7e <.Lpcrel_hi230+0xa4>
80002a7e: 750e         	ld	a0, 0xe0(sp)
80002a80: fffff097     	auipc	ra, 0xfffff
80002a84: 8f8080e7     	jalr	-0x708(ra) <lab4_kernel_task2::pte_is_valid::hcf3d742da30fb2ce>
80002a88: d165         	beqz	a0, 0x80002a68 <.Lpcrel_hi230+0x8e>
80002a8a: a009         	j	0x80002a8c <.Lpcrel_hi230+0xb2>
80002a8c: 7512         	ld	a0, 0x120(sp)
80002a8e: fffff097     	auipc	ra, 0xfffff
80002a92: 8ea080e7     	jalr	-0x716(ra) <lab4_kernel_task2::pte_is_valid::hcf3d742da30fb2ce>
80002a96: d969         	beqz	a0, 0x80002a68 <.Lpcrel_hi230+0x8e>
80002a98: a009         	j	0x80002a9a <.Lpcrel_hi230+0xc0>
80002a9a: 7506         	ld	a0, 0x60(sp)
80002a9c: fffff097     	auipc	ra, 0xfffff
80002aa0: 8d0080e7     	jalr	-0x730(ra) <lab4_kernel_task2::pte_has_user::h8d63cd7ac93c5d3d>
80002aa4: d171         	beqz	a0, 0x80002a68 <.Lpcrel_hi230+0x8e>
80002aa6: a009         	j	0x80002aa8 <.Lpcrel_hi230+0xce>
80002aa8: 750a         	ld	a0, 0xa0(sp)
80002aaa: fffff097     	auipc	ra, 0xfffff
80002aae: 8c2080e7     	jalr	-0x73e(ra) <lab4_kernel_task2::pte_has_user::h8d63cd7ac93c5d3d>
80002ab2: d95d         	beqz	a0, 0x80002a68 <.Lpcrel_hi230+0x8e>
80002ab4: a009         	j	0x80002ab6 <.Lpcrel_hi230+0xdc>
80002ab6: 750e         	ld	a0, 0xe0(sp)
80002ab8: fffff097     	auipc	ra, 0xfffff
80002abc: 8b4080e7     	jalr	-0x74c(ra) <lab4_kernel_task2::pte_has_user::h8d63cd7ac93c5d3d>
80002ac0: d545         	beqz	a0, 0x80002a68 <.Lpcrel_hi230+0x8e>
80002ac2: a009         	j	0x80002ac4 <.Lpcrel_hi230+0xea>
80002ac4: 7512         	ld	a0, 0x120(sp)
80002ac6: fffff097     	auipc	ra, 0xfffff
80002aca: 8a6080e7     	jalr	-0x75a(ra) <lab4_kernel_task2::pte_has_user::h8d63cd7ac93c5d3d>
80002ace: 44a10723     	sb	a0, 0x44e(sp)
80002ad2: a009         	j	0x80002ad4 <.Lpcrel_hi230+0xfa>
80002ad4: 7502         	ld	a0, 0x20(sp)
80002ad6: c511         	beqz	a0, 0x80002ae2 <.Lpcrel_hi230+0x108>
80002ad8: a009         	j	0x80002ada <.Lpcrel_hi230+0x100>
80002ada: 4501         	li	a0, 0x0
80002adc: 44a107a3     	sb	a0, 0x44f(sp)
80002ae0: a861         	j	0x80002b78 <.Lpcrel_hi235+0x16>
80002ae2: 6562         	ld	a0, 0x18(sp)
80002ae4: 6108         	ld	a0, 0x0(a0)

0000000080002ae6 <.Lpcrel_hi231>:
80002ae6: 00004597     	auipc	a1, 0x4
80002aea: 1d258593     	addi	a1, a1, 0x1d2
80002aee: 618c         	ld	a1, 0x0(a1)
80002af0: feb515e3     	bne	a0, a1, 0x80002ada <.Lpcrel_hi230+0x100>
80002af4: a009         	j	0x80002af6 <.Lpcrel_hi231+0x10>
80002af6: 6562         	ld	a0, 0x18(sp)
80002af8: 6508         	ld	a0, 0x8(a0)
80002afa: 004105b7     	lui	a1, 0x410
80002afe: fcb51ee3     	bne	a0, a1, 0x80002ada <.Lpcrel_hi230+0x100>
80002b02: a009         	j	0x80002b04 <.Lpcrel_hi231+0x1e>
80002b04: 6562         	ld	a0, 0x18(sp)
80002b06: 6908         	ld	a0, 0x10(a0)
80002b08: 004205b7     	lui	a1, 0x420
80002b0c: fcb517e3     	bne	a0, a1, 0x80002ada <.Lpcrel_hi230+0x100>
80002b10: a009         	j	0x80002b12 <.Lpcrel_hi231+0x2c>
80002b12: 6562         	ld	a0, 0x18(sp)
80002b14: 6d08         	ld	a0, 0x18(a0)

0000000080002b16 <.Lpcrel_hi232>:
80002b16: 00004597     	auipc	a1, 0x4
80002b1a: 18258593     	addi	a1, a1, 0x182
80002b1e: 618c         	ld	a1, 0x0(a1)
80002b20: fab51de3     	bne	a0, a1, 0x80002ada <.Lpcrel_hi230+0x100>
80002b24: a009         	j	0x80002b26 <.Lpcrel_hi232+0x10>
80002b26: 6562         	ld	a0, 0x18(sp)
80002b28: 7108         	ld	a0, 0x20(a0)

0000000080002b2a <.Lpcrel_hi233>:
80002b2a: 00004597     	auipc	a1, 0x4
80002b2e: 18e58593     	addi	a1, a1, 0x18e
80002b32: 618c         	ld	a1, 0x0(a1)
80002b34: fab513e3     	bne	a0, a1, 0x80002ada <.Lpcrel_hi230+0x100>
80002b38: a009         	j	0x80002b3a <.Lpcrel_hi233+0x10>
80002b3a: 6562         	ld	a0, 0x18(sp)
80002b3c: 7508         	ld	a0, 0x28(a0)
80002b3e: fd51         	bnez	a0, 0x80002ada <.Lpcrel_hi230+0x100>
80002b40: a009         	j	0x80002b42 <.Lpcrel_hi233+0x18>
80002b42: 6562         	ld	a0, 0x18(sp)
80002b44: 7908         	ld	a0, 0x30(a0)

0000000080002b46 <.Lpcrel_hi234>:
80002b46: 00004597     	auipc	a1, 0x4
80002b4a: 18258593     	addi	a1, a1, 0x182
80002b4e: 618c         	ld	a1, 0x0(a1)
80002b50: f8b515e3     	bne	a0, a1, 0x80002ada <.Lpcrel_hi230+0x100>
80002b54: a009         	j	0x80002b56 <.Lpcrel_hi234+0x10>
80002b56: 6562         	ld	a0, 0x18(sp)
80002b58: 7d08         	ld	a0, 0x38(a0)
80002b5a: f141         	bnez	a0, 0x80002ada <.Lpcrel_hi230+0x100>
80002b5c: a009         	j	0x80002b5e <.Lpcrel_hi234+0x18>
80002b5e: 6562         	ld	a0, 0x18(sp)
80002b60: 6128         	ld	a0, 0x40(a0)

0000000080002b62 <.Lpcrel_hi235>:
80002b62: 00004597     	auipc	a1, 0x4
80002b66: 14658593     	addi	a1, a1, 0x146
80002b6a: 618c         	ld	a1, 0x0(a1)
80002b6c: 8d2d         	xor	a0, a0, a1
80002b6e: 00153513     	seqz	a0, a0
80002b72: 44a107a3     	sb	a0, 0x44f(sp)
80002b76: a009         	j	0x80002b78 <.Lpcrel_hi235+0x16>
80002b78: 44c14503     	lbu	a0, 0x44c(sp)
80002b7c: 00001097     	auipc	ra, 0x1
80002b80: 432080e7     	jalr	0x432(ra) <lab4_kernel_task2::pass_fail::h3905961ffd4ff8f2>
80002b84: 44a13823     	sd	a0, 0x450(sp)
80002b88: 44b13c23     	sd	a1, 0x458(sp)
80002b8c: 45010593     	addi	a1, sp, 0x450
80002b90: 60b13023     	sd	a1, 0x600(sp)
80002b94: 47010513     	addi	a0, sp, 0x470
80002b98: 00002097     	auipc	ra, 0x2
80002b9c: d18080e7     	jalr	-0x2e8(ra) <core::fmt::rt::Argument::new_display::ha3bba816af074122>
80002ba0: 47813503     	ld	a0, 0x478(sp)
80002ba4: 46a13423     	sd	a0, 0x468(sp)
80002ba8: 47013503     	ld	a0, 0x470(sp)
80002bac: 46a13023     	sd	a0, 0x460(sp)

0000000080002bb0 <.Lpcrel_hi236>:
80002bb0: 00004517     	auipc	a0, 0x4
80002bb4: 98f50513     	addi	a0, a0, -0x671
80002bb8: 46010593     	addi	a1, sp, 0x460
80002bbc: ffffd097     	auipc	ra, 0xffffd
80002bc0: 660080e7     	jalr	0x660(ra) <core::fmt::Arguments::new::h240b22c72c41dd42>
80002bc4: ffffd097     	auipc	ra, 0xffffd
80002bc8: 57c080e7     	jalr	0x57c(ra) <lab4_kernel_task2::console::print::h7473f0160e01bbb6>
80002bcc: 44d14503     	lbu	a0, 0x44d(sp)
80002bd0: 8905         	andi	a0, a0, 0x1
80002bd2: e511         	bnez	a0, 0x80002bde <.Lpcrel_hi236+0x2e>
80002bd4: a009         	j	0x80002bd6 <.Lpcrel_hi236+0x26>
80002bd6: 4501         	li	a0, 0x0
80002bd8: 48a10ba3     	sb	a0, 0x497(sp)
80002bdc: a031         	j	0x80002be8 <.Lpcrel_hi236+0x38>
80002bde: 44e14503     	lbu	a0, 0x44e(sp)
80002be2: 48a10ba3     	sb	a0, 0x497(sp)
80002be6: a009         	j	0x80002be8 <.Lpcrel_hi236+0x38>
80002be8: 49714503     	lbu	a0, 0x497(sp)
80002bec: 00001097     	auipc	ra, 0x1
80002bf0: 3c2080e7     	jalr	0x3c2(ra) <lab4_kernel_task2::pass_fail::h3905961ffd4ff8f2>
80002bf4: 48a13023     	sd	a0, 0x480(sp)
80002bf8: 48b13423     	sd	a1, 0x488(sp)
80002bfc: 48010593     	addi	a1, sp, 0x480
80002c00: 60b13423     	sd	a1, 0x608(sp)
80002c04: 4a810513     	addi	a0, sp, 0x4a8
80002c08: 00002097     	auipc	ra, 0x2
80002c0c: ca8080e7     	jalr	-0x358(ra) <core::fmt::rt::Argument::new_display::ha3bba816af074122>
80002c10: 4b013503     	ld	a0, 0x4b0(sp)
80002c14: 4aa13023     	sd	a0, 0x4a0(sp)
80002c18: 4a813503     	ld	a0, 0x4a8(sp)
80002c1c: 48a13c23     	sd	a0, 0x498(sp)

0000000080002c20 <.Lpcrel_hi237>:
80002c20: 00003517     	auipc	a0, 0x3
80002c24: 78250513     	addi	a0, a0, 0x782
80002c28: 49810593     	addi	a1, sp, 0x498
80002c2c: ffffd097     	auipc	ra, 0xffffd
80002c30: 64a080e7     	jalr	0x64a(ra) <core::fmt::Arguments::new::h766b435eef55abd0>
80002c34: ffffd097     	auipc	ra, 0xffffd
80002c38: 50c080e7     	jalr	0x50c(ra) <lab4_kernel_task2::console::print::h7473f0160e01bbb6>
80002c3c: 44f14503     	lbu	a0, 0x44f(sp)
80002c40: 00001097     	auipc	ra, 0x1
80002c44: 36e080e7     	jalr	0x36e(ra) <lab4_kernel_task2::pass_fail::h3905961ffd4ff8f2>
80002c48: 4aa13c23     	sd	a0, 0x4b8(sp)
80002c4c: 4cb13023     	sd	a1, 0x4c0(sp)
80002c50: 4b810593     	addi	a1, sp, 0x4b8
80002c54: 60b13823     	sd	a1, 0x610(sp)
80002c58: 4d810513     	addi	a0, sp, 0x4d8
80002c5c: 00002097     	auipc	ra, 0x2
80002c60: c54080e7     	jalr	-0x3ac(ra) <core::fmt::rt::Argument::new_display::ha3bba816af074122>
80002c64: 4e013503     	ld	a0, 0x4e0(sp)
80002c68: 4ca13823     	sd	a0, 0x4d0(sp)
80002c6c: 4d813503     	ld	a0, 0x4d8(sp)
80002c70: 4ca13423     	sd	a0, 0x4c8(sp)

0000000080002c74 <.Lpcrel_hi238>:
80002c74: 00003517     	auipc	a0, 0x3
80002c78: 78d50513     	addi	a0, a0, 0x78d
80002c7c: 4c810593     	addi	a1, sp, 0x4c8
80002c80: ffffd097     	auipc	ra, 0xffffd
80002c84: 5a6080e7     	jalr	0x5a6(ra) <core::fmt::Arguments::new::h335ead9bcd0cd6c9>
80002c88: ffffd097     	auipc	ra, 0xffffd
80002c8c: 4b8080e7     	jalr	0x4b8(ra) <lab4_kernel_task2::console::print::h7473f0160e01bbb6>
80002c90: 44c14503     	lbu	a0, 0x44c(sp)
80002c94: 8905         	andi	a0, a0, 0x1
80002c96: e511         	bnez	a0, 0x80002ca2 <.Lpcrel_hi238+0x2e>
80002c98: a009         	j	0x80002c9a <.Lpcrel_hi238+0x26>
80002c9a: 4505         	li	a0, 0x1
80002c9c: 4ea12623     	sw	a0, 0x4ec(sp)
80002ca0: a025         	j	0x80002cc8 <.Lpcrel_hi238+0x54>
80002ca2: 44d14503     	lbu	a0, 0x44d(sp)
80002ca6: 8905         	andi	a0, a0, 0x1
80002ca8: d96d         	beqz	a0, 0x80002c9a <.Lpcrel_hi238+0x26>
80002caa: a009         	j	0x80002cac <.Lpcrel_hi238+0x38>
80002cac: 44e14503     	lbu	a0, 0x44e(sp)
80002cb0: 8905         	andi	a0, a0, 0x1
80002cb2: d565         	beqz	a0, 0x80002c9a <.Lpcrel_hi238+0x26>
80002cb4: a009         	j	0x80002cb6 <.Lpcrel_hi238+0x42>
80002cb6: 44f14503     	lbu	a0, 0x44f(sp)
80002cba: 8905         	andi	a0, a0, 0x1
80002cbc: dd79         	beqz	a0, 0x80002c9a <.Lpcrel_hi238+0x26>
80002cbe: a009         	j	0x80002cc0 <.Lpcrel_hi238+0x4c>
80002cc0: 4501         	li	a0, 0x0
80002cc2: 4ea12623     	sw	a0, 0x4ec(sp)
80002cc6: a009         	j	0x80002cc8 <.Lpcrel_hi238+0x54>
80002cc8: 4ec12503     	lw	a0, 0x4ec(sp)
80002ccc: 00001097     	auipc	ra, 0x1
80002cd0: 320080e7     	jalr	0x320(ra) <lab4_kernel_task2::qemu_exit::h515f7665dae94ac6>

0000000080002cd4 <lab4_kernel_task2::user_shared_page_pa::h49ce6f17c83b47f8>:
80002cd4: 0001a517     	auipc	a0, 0x1a
80002cd8: 32c50513     	addi	a0, a0, 0x32c
80002cdc: 8082         	ret

0000000080002cde <lab4_kernel_task2::initialize_user_pages::hc7f741e419cb8782>:
80002cde: 7141         	addi	sp, sp, -0x1f0
80002ce0: f786         	sd	ra, 0x1e8(sp)
80002ce2: f3a2         	sd	s0, 0x1e0(sp)
80002ce4: 1b80         	addi	s0, sp, 0x1f0
80002ce6: 6519         	lui	a0, 0x6
80002ce8: e1050513     	addi	a0, a0, -0x1f0
80002cec: 40a10133     	sub	sp, sp, a0
80002cf0: 00c15513     	srli	a0, sp, 0xc
80002cf4: 00c51113     	slli	sp, a0, 0xc
80002cf8: 6515         	lui	a0, 0x5
80002cfa: fb850513     	addi	a0, a0, -0x48
80002cfe: 950a         	add	a0, a0, sp
80002d00: 6585         	lui	a1, 0x1
80002d02: 958a         	add	a1, a1, sp
80002d04: fea5bc23     	sd	a0, -0x8(a1)
80002d08: 6505         	lui	a0, 0x1
80002d0a: 950a         	add	a0, a0, sp
80002d0c: 00001097     	auipc	ra, 0x1
80002d10: b58080e7     	jalr	-0x4a8(ra) <lab4_kernel_task2::Page::zeroed::hb7290a9569289a13>

0000000080002d14 <.Lpcrel_hi240>:
80002d14: 00017517     	auipc	a0, 0x17
80002d18: 2ec50513     	addi	a0, a0, 0x2ec
80002d1c: 1552         	slli	a0, a0, 0x34
80002d1e: e901         	bnez	a0, 0x80002d2e <.Lpcrel_hi242>
80002d20: a009         	j	0x80002d22 <.Lpcrel_hi241>

0000000080002d22 <.Lpcrel_hi241>:
80002d22: 00017517     	auipc	a0, 0x17
80002d26: 2de50513     	addi	a0, a0, 0x2de
80002d2a: ed19         	bnez	a0, 0x80002d48 <.Lpcrel_hi244>
80002d2c: a0b1         	j	0x80002d78 <.Lpcrel_hi246>

0000000080002d2e <.Lpcrel_hi242>:
80002d2e: 00017517     	auipc	a0, 0x17
80002d32: 2d250593     	addi	a1, a0, 0x2d2

0000000080002d36 <.Lpcrel_hi243>:
80002d36: 00004517     	auipc	a0, 0x4
80002d3a: 69250613     	addi	a2, a0, 0x692
80002d3e: 6505         	lui	a0, 0x1
80002d40: 00003097     	auipc	ra, 0x3
80002d44: 11c080e7     	jalr	0x11c(ra) <core::panicking::panic_misaligned_pointer_dereference::hda85f7fb51d959f0>

0000000080002d48 <.Lpcrel_hi244>:
80002d48: 00017517     	auipc	a0, 0x17
80002d4c: 2b850513     	addi	a0, a0, 0x2b8
80002d50: 6585         	lui	a1, 0x1
80002d52: 958a         	add	a1, a1, sp
80002d54: 6605         	lui	a2, 0x1
80002d56: 00003097     	auipc	ra, 0x3
80002d5a: 2b0080e7     	jalr	0x2b0(ra) <memcpy>
80002d5e: 6509         	lui	a0, 0x2
80002d60: 950a         	add	a0, a0, sp
80002d62: 00001097     	auipc	ra, 0x1
80002d66: b02080e7     	jalr	-0x4fe(ra) <lab4_kernel_task2::Page::zeroed::hb7290a9569289a13>

0000000080002d6a <.Lpcrel_hi245>:
80002d6a: 0001a517     	auipc	a0, 0x1a
80002d6e: 29650513     	addi	a0, a0, 0x296
80002d72: 1552         	slli	a0, a0, 0x34
80002d74: c911         	beqz	a0, 0x80002d88 <.Lpcrel_hi247>
80002d76: a839         	j	0x80002d94 <.Lpcrel_hi248>

0000000080002d78 <.Lpcrel_hi246>:
80002d78: 00004517     	auipc	a0, 0x4
80002d7c: 65050513     	addi	a0, a0, 0x650
80002d80: 00003097     	auipc	ra, 0x3
80002d84: 0bc080e7     	jalr	0xbc(ra) <core::panicking::panic_null_pointer_dereference::hbac6411af4f2e916>

0000000080002d88 <.Lpcrel_hi247>:
80002d88: 0001a517     	auipc	a0, 0x1a
80002d8c: 27850513     	addi	a0, a0, 0x278
80002d90: ed19         	bnez	a0, 0x80002dae <.Lpcrel_hi250>
80002d92: a0b1         	j	0x80002dde <.Lpcrel_hi252>

0000000080002d94 <.Lpcrel_hi248>:
80002d94: 0001a517     	auipc	a0, 0x1a
80002d98: 26c50593     	addi	a1, a0, 0x26c

0000000080002d9c <.Lpcrel_hi249>:
80002d9c: 00004517     	auipc	a0, 0x4
80002da0: 64450613     	addi	a2, a0, 0x644
80002da4: 6505         	lui	a0, 0x1
80002da6: 00003097     	auipc	ra, 0x3
80002daa: 0b6080e7     	jalr	0xb6(ra) <core::panicking::panic_misaligned_pointer_dereference::hda85f7fb51d959f0>

0000000080002dae <.Lpcrel_hi250>:
80002dae: 0001a517     	auipc	a0, 0x1a
80002db2: 25250513     	addi	a0, a0, 0x252
80002db6: 6589         	lui	a1, 0x2
80002db8: 958a         	add	a1, a1, sp
80002dba: 6605         	lui	a2, 0x1
80002dbc: 00003097     	auipc	ra, 0x3
80002dc0: 24a080e7     	jalr	0x24a(ra) <memcpy>
80002dc4: 650d         	lui	a0, 0x3
80002dc6: 950a         	add	a0, a0, sp
80002dc8: 00001097     	auipc	ra, 0x1
80002dcc: a9c080e7     	jalr	-0x564(ra) <lab4_kernel_task2::Page::zeroed::hb7290a9569289a13>

0000000080002dd0 <.Lpcrel_hi251>:
80002dd0: 00019517     	auipc	a0, 0x19
80002dd4: 23050513     	addi	a0, a0, 0x230
80002dd8: 1552         	slli	a0, a0, 0x34
80002dda: c911         	beqz	a0, 0x80002dee <.Lpcrel_hi253>
80002ddc: a839         	j	0x80002dfa <.Lpcrel_hi254>

0000000080002dde <.Lpcrel_hi252>:
80002dde: 00004517     	auipc	a0, 0x4
80002de2: 60250513     	addi	a0, a0, 0x602
80002de6: 00003097     	auipc	ra, 0x3
80002dea: 056080e7     	jalr	0x56(ra) <core::panicking::panic_null_pointer_dereference::hbac6411af4f2e916>

0000000080002dee <.Lpcrel_hi253>:
80002dee: 00019517     	auipc	a0, 0x19
80002df2: 21250513     	addi	a0, a0, 0x212
80002df6: ed19         	bnez	a0, 0x80002e14 <.Lpcrel_hi256>
80002df8: a8e5         	j	0x80002ef0 <.Lpcrel_hi261>

0000000080002dfa <.Lpcrel_hi254>:
80002dfa: 00019517     	auipc	a0, 0x19
80002dfe: 20650593     	addi	a1, a0, 0x206

0000000080002e02 <.Lpcrel_hi255>:
80002e02: 00004517     	auipc	a0, 0x4
80002e06: 5f650613     	addi	a2, a0, 0x5f6
80002e0a: 6505         	lui	a0, 0x1
80002e0c: 00003097     	auipc	ra, 0x3
80002e10: 050080e7     	jalr	0x50(ra) <core::panicking::panic_misaligned_pointer_dereference::hda85f7fb51d959f0>

0000000080002e14 <.Lpcrel_hi256>:
80002e14: 00019517     	auipc	a0, 0x19
80002e18: 1ec50513     	addi	a0, a0, 0x1ec
80002e1c: 658d         	lui	a1, 0x3
80002e1e: 958a         	add	a1, a1, sp
80002e20: 6605         	lui	a2, 0x1
80002e22: 00003097     	auipc	ra, 0x3
80002e26: 1e4080e7     	jalr	0x1e4(ra) <memcpy>
80002e2a: fffff097     	auipc	ra, 0xfffff
80002e2e: b48080e7     	jalr	-0x4b8(ra) <lab4_kernel_task2::user_program_len::h5a4910e0ef54caec>
80002e32: 85aa         	mv	a1, a0

0000000080002e34 <.Lpcrel_hi257>:
80002e34: ffffe517     	auipc	a0, 0xffffe
80002e38: bec50513     	addi	a0, a0, -0x414

0000000080002e3c <.Lpcrel_hi258>:
80002e3c: 00004617     	auipc	a2, 0x4
80002e40: 5d460613     	addi	a2, a2, 0x5d4
80002e44: 00002097     	auipc	ra, 0x2
80002e48: 8ec080e7     	jalr	-0x714(ra) <core::slice::raw::from_raw_parts::h9e7de5e3295b8974>
80002e4c: 6605         	lui	a2, 0x1
80002e4e: 960a         	add	a2, a2, sp
80002e50: ff863603     	ld	a2, -0x8(a2)
80002e54: 6685         	lui	a3, 0x1
80002e56: 968a         	add	a3, a3, sp
80002e58: fea6b423     	sd	a0, -0x18(a3)
80002e5c: 872e         	mv	a4, a1
80002e5e: 6585         	lui	a1, 0x1
80002e60: 958a         	add	a1, a1, sp
80002e62: fee5b823     	sd	a4, -0x10(a1)
80002e66: e208         	sd	a0, 0x0(a2)
80002e68: e618         	sd	a4, 0x8(a2)
80002e6a: fe08         	sd	a0, 0x38(a2)
80002e6c: e238         	sd	a4, 0x40(a2)

0000000080002e6e <.Lpcrel_hi259>:
80002e6e: 00017597     	auipc	a1, 0x17
80002e72: 19258593     	addi	a1, a1, 0x192
80002e76: 6685         	lui	a3, 0x1
80002e78: 968a         	add	a3, a3, sp
80002e7a: feb6b023     	sd	a1, -0x20(a3)
80002e7e: fa0c         	sd	a1, 0x30(a2)
80002e80: ee08         	sd	a0, 0x18(a2)
80002e82: f20c         	sd	a1, 0x20(a2)
80002e84: f618         	sd	a4, 0x28(a2)

0000000080002e86 <.Lpcrel_hi260>:
80002e86: 00005617     	auipc	a2, 0x5
80002e8a: b5260793     	addi	a5, a2, -0x4ae
80002e8e: 4685         	li	a3, 0x1
80002e90: 8636         	mv	a2, a3
80002e92: ffffd097     	auipc	ra, 0xffffd
80002e96: 4f8080e7     	jalr	0x4f8(ra) <core::ptr::copy_nonoverlapping::precondition_check::h74df1993eb6e3834>
80002e9a: 6505         	lui	a0, 0x1
80002e9c: 950a         	add	a0, a0, sp
80002e9e: fe053503     	ld	a0, -0x20(a0)
80002ea2: 6585         	lui	a1, 0x1
80002ea4: 958a         	add	a1, a1, sp
80002ea6: fe85b583     	ld	a1, -0x18(a1)
80002eaa: 6605         	lui	a2, 0x1
80002eac: 960a         	add	a2, a2, sp
80002eae: ff063603     	ld	a2, -0x10(a2)
80002eb2: 00003097     	auipc	ra, 0x3
80002eb6: 154080e7     	jalr	0x154(ra) <memcpy>
80002eba: fffff097     	auipc	ra, 0xfffff
80002ebe: 9ae080e7     	jalr	-0x652(ra) <lab4_kernel_task2::user_shared_mut::h682574e31c2573d8>
80002ec2: 85aa         	mv	a1, a0
80002ec4: 6505         	lui	a0, 0x1
80002ec6: 950a         	add	a0, a0, sp
80002ec8: ff853503     	ld	a0, -0x8(a0)
80002ecc: e90c         	sd	a1, 0x10(a0)
80002ece: 4501         	li	a0, 0x0
80002ed0: e188         	sd	a0, 0x0(a1)
80002ed2: e588         	sd	a0, 0x8(a1)
80002ed4: e988         	sd	a0, 0x10(a1)
80002ed6: ed88         	sd	a0, 0x18(a1)
80002ed8: f188         	sd	a0, 0x20(a1)
80002eda: f588         	sd	a0, 0x28(a1)
80002edc: f988         	sd	a0, 0x30(a1)
80002ede: fd88         	sd	a0, 0x38(a1)
80002ee0: e1a8         	sd	a0, 0x40(a1)
80002ee2: e5a8         	sd	a0, 0x48(a1)
80002ee4: e1040113     	addi	sp, s0, -0x1f0
80002ee8: 70be         	ld	ra, 0x1e8(sp)
80002eea: 741e         	ld	s0, 0x1e0(sp)
80002eec: 617d         	addi	sp, sp, 0x1f0
80002eee: 8082         	ret

0000000080002ef0 <.Lpcrel_hi261>:
80002ef0: 00004517     	auipc	a0, 0x4
80002ef4: 50850513     	addi	a0, a0, 0x508
80002ef8: 00003097     	auipc	ra, 0x3
80002efc: f44080e7     	jalr	-0xbc(ra) <core::panicking::panic_null_pointer_dereference::hbac6411af4f2e916>

0000000080002f00 <lab4_kernel_task2::activate_address_space::h94ee94f7b6a6863c>:
80002f00: 1101         	addi	sp, sp, -0x20
80002f02: ec06         	sd	ra, 0x18(sp)
80002f04: fffff097     	auipc	ra, 0xfffff
80002f08: 610080e7     	jalr	0x610(ra) <lab4_kernel_task2::root_page_table_pa::h50ea20d77bcc61fb>
80002f0c: 8131         	srli	a0, a0, 0xc
80002f0e: 55fd         	li	a1, -0x1
80002f10: 15fe         	slli	a1, a1, 0x3f
80002f12: 8d4d         	or	a0, a0, a1
80002f14: e42a         	sd	a0, 0x8(sp)
80002f16: e82a         	sd	a0, 0x10(sp)

0000000080002f18 <.Lpcrel_hi262>:
80002f18: 00020517     	auipc	a0, 0x20
80002f1c: 1c850513     	addi	a0, a0, 0x1c8
80002f20: c10d         	beqz	a0, 0x80002f42 <.Lpcrel_hi264>
80002f22: a009         	j	0x80002f24 <.Lpcrel_hi262+0xc>
80002f24: 6522         	ld	a0, 0x8(sp)

0000000080002f26 <.Lpcrel_hi263>:
80002f26: 00020597     	auipc	a1, 0x20
80002f2a: 1ba58593     	addi	a1, a1, 0x1ba
80002f2e: e188         	sd	a0, 0x0(a1)
80002f30: 18051073     	csrw	satp, a0
80002f34: 12000073     	sfence.vma
80002f38: 0000100f     	fence.i
80002f3c: 60e2         	ld	ra, 0x18(sp)
80002f3e: 6105         	addi	sp, sp, 0x20
80002f40: 8082         	ret

0000000080002f42 <.Lpcrel_hi264>:
80002f42: 00004517     	auipc	a0, 0x4
80002f46: 4e650513     	addi	a0, a0, 0x4e6
80002f4a: 00003097     	auipc	ra, 0x3
80002f4e: ef2080e7     	jalr	-0x10e(ra) <core::panicking::panic_null_pointer_dereference::hbac6411af4f2e916>

0000000080002f52 <lab4_kernel_task2::handle_lazy_page_fault::h0eac2dc1c607711b>:
80002f52: d2010113     	addi	sp, sp, -0x2e0
80002f56: 2c113c23     	sd	ra, 0x2d8(sp)
80002f5a: e4ae         	sd	a1, 0x48(sp)
80002f5c: e8aa         	sd	a0, 0x50(sp)
80002f5e: ecb2         	sd	a2, 0x58(sp)
80002f60: 22a13c23     	sd	a0, 0x238(sp)
80002f64: 24b13023     	sd	a1, 0x240(sp)
80002f68: 6566         	ld	a0, 0x58(sp)
80002f6a: 6585         	lui	a1, 0x1
80002f6c: ffffe097     	auipc	ra, 0xffffe
80002f70: c18080e7     	jalr	-0x3e8(ra) <lab4_kernel_task2::align_down::h133e2bccb731ca32>
80002f74: f0aa         	sd	a0, 0x60(sp)
80002f76: 7586         	ld	a1, 0x60(sp)
80002f78: 10a8         	addi	a0, sp, 0x68
80002f7a: ffffe097     	auipc	ra, 0xffffe
80002f7e: 408080e7     	jalr	0x408(ra) <lab4_kernel_task2::walk_virtual::haeedce58dbcc1375>

0000000080002f82 <.Lpcrel_hi265>:
80002f82: 00006517     	auipc	a0, 0x6
80002f86: 07e50513     	addi	a0, a0, 0x7e
80002f8a: cd09         	beqz	a0, 0x80002fa4 <.Lpcrel_hi267>
80002f8c: a009         	j	0x80002f8e <.Lpcrel_hi266>

0000000080002f8e <.Lpcrel_hi266>:
80002f8e: 00006517     	auipc	a0, 0x6
80002f92: 07250513     	addi	a0, a0, 0x72
80002f96: 6d0c         	ld	a1, 0x18(a0)
80002f98: 00158513     	addi	a0, a1, 0x1
80002f9c: e0aa         	sd	a0, 0x40(sp)
80002f9e: 02b56163     	bltu	a0, a1, 0x80002fc0 <.Lpcrel_hi269>
80002fa2: a809         	j	0x80002fb4 <.Lpcrel_hi268>

0000000080002fa4 <.Lpcrel_hi267>:
80002fa4: 00004517     	auipc	a0, 0x4
80002fa8: 49c50513     	addi	a0, a0, 0x49c
80002fac: 00003097     	auipc	ra, 0x3
80002fb0: e90080e7     	jalr	-0x170(ra) <core::panicking::panic_null_pointer_dereference::hbac6411af4f2e916>

0000000080002fb4 <.Lpcrel_hi268>:
80002fb4: 00006517     	auipc	a0, 0x6
80002fb8: 04c50513     	addi	a0, a0, 0x4c
80002fbc: e911         	bnez	a0, 0x80002fd0 <.Lpcrel_hi269+0x10>
80002fbe: a025         	j	0x80002fe6 <.Lpcrel_hi271>

0000000080002fc0 <.Lpcrel_hi269>:
80002fc0: 00004517     	auipc	a0, 0x4
80002fc4: 48050513     	addi	a0, a0, 0x480
80002fc8: 00003097     	auipc	ra, 0x3
80002fcc: d90080e7     	jalr	-0x270(ra) <core::panicking::panic_const::panic_const_add_overflow::h67cba067093910f8>
80002fd0: 6526         	ld	a0, 0x48(sp)
80002fd2: 6586         	ld	a1, 0x40(sp)

0000000080002fd4 <.Lpcrel_hi270>:
80002fd4: 00006617     	auipc	a2, 0x6
80002fd8: 02c60613     	addi	a2, a2, 0x2c
80002fdc: ee0c         	sd	a1, 0x18(a2)
80002fde: 45b5         	li	a1, 0xd
80002fe0: 02b50163     	beq	a0, a1, 0x80003002 <.Lpcrel_hi273>
80002fe4: a809         	j	0x80002ff6 <.Lpcrel_hi272>

0000000080002fe6 <.Lpcrel_hi271>:
80002fe6: 00004517     	auipc	a0, 0x4
80002fea: 45a50513     	addi	a0, a0, 0x45a
80002fee: 00003097     	auipc	ra, 0x3
80002ff2: e4e080e7     	jalr	-0x1b2(ra) <core::panicking::panic_null_pointer_dereference::hbac6411af4f2e916>

0000000080002ff6 <.Lpcrel_hi272>:
80002ff6: 00006517     	auipc	a0, 0x6
80002ffa: 00a50513     	addi	a0, a0, 0xa
80002ffe: e901         	bnez	a0, 0x8000300e <.Lpcrel_hi274>
80003000: a015         	j	0x80003024 <.Lpcrel_hi275>

0000000080003002 <.Lpcrel_hi273>:
80003002: 00006517     	auipc	a0, 0x6
80003006: ffe50513     	addi	a0, a0, -0x2
8000300a: e925         	bnez	a0, 0x8000307a <.Lpcrel_hi281>
8000300c: a051         	j	0x80003090 <.Lpcrel_hi282>

000000008000300e <.Lpcrel_hi274>:
8000300e: 00006517     	auipc	a0, 0x6
80003012: ff250513     	addi	a0, a0, -0xe
80003016: 750c         	ld	a1, 0x28(a0)
80003018: 00158513     	addi	a0, a1, 0x1
8000301c: fc2a         	sd	a0, 0x38(sp)
8000301e: 02b56163     	bltu	a0, a1, 0x80003040 <.Lpcrel_hi277>
80003022: a809         	j	0x80003034 <.Lpcrel_hi276>

0000000080003024 <.Lpcrel_hi275>:
80003024: 00004517     	auipc	a0, 0x4
80003028: 43450513     	addi	a0, a0, 0x434
8000302c: 00003097     	auipc	ra, 0x3
80003030: e10080e7     	jalr	-0x1f0(ra) <core::panicking::panic_null_pointer_dereference::hbac6411af4f2e916>

0000000080003034 <.Lpcrel_hi276>:
80003034: 00006517     	auipc	a0, 0x6
80003038: fcc50513     	addi	a0, a0, -0x34
8000303c: e911         	bnez	a0, 0x80003050 <.Lpcrel_hi277+0x10>
8000303e: a005         	j	0x8000305e <.Lpcrel_hi279>

0000000080003040 <.Lpcrel_hi277>:
80003040: 00004517     	auipc	a0, 0x4
80003044: 41850513     	addi	a0, a0, 0x418
80003048: 00003097     	auipc	ra, 0x3
8000304c: d10080e7     	jalr	-0x2f0(ra) <core::panicking::panic_const::panic_const_add_overflow::h67cba067093910f8>
80003050: 7562         	ld	a0, 0x38(sp)

0000000080003052 <.Lpcrel_hi278>:
80003052: 00006597     	auipc	a1, 0x6
80003056: fae58593     	addi	a1, a1, -0x52
8000305a: f588         	sd	a0, 0x28(a1)
8000305c: a809         	j	0x8000306e <.Lpcrel_hi280>

000000008000305e <.Lpcrel_hi279>:
8000305e: 00004517     	auipc	a0, 0x4
80003062: 3fa50513     	addi	a0, a0, 0x3fa
80003066: 00003097     	auipc	ra, 0x3
8000306a: dd6080e7     	jalr	-0x22a(ra) <core::panicking::panic_null_pointer_dereference::hbac6411af4f2e916>

000000008000306e <.Lpcrel_hi280>:
8000306e: 00006517     	auipc	a0, 0x6
80003072: 0d250513     	addi	a0, a0, 0xd2
80003076: e135         	bnez	a0, 0x800030da <.Lpcrel_hi287>
80003078: a895         	j	0x800030ec <.Lpcrel_hi288>

000000008000307a <.Lpcrel_hi281>:
8000307a: 00006517     	auipc	a0, 0x6
8000307e: f8650513     	addi	a0, a0, -0x7a
80003082: 710c         	ld	a1, 0x20(a0)
80003084: 00158513     	addi	a0, a1, 0x1
80003088: f82a         	sd	a0, 0x30(sp)
8000308a: 02b56163     	bltu	a0, a1, 0x800030ac <.Lpcrel_hi284>
8000308e: a809         	j	0x800030a0 <.Lpcrel_hi283>

0000000080003090 <.Lpcrel_hi282>:
80003090: 00004517     	auipc	a0, 0x4
80003094: 3e050513     	addi	a0, a0, 0x3e0
80003098: 00003097     	auipc	ra, 0x3
8000309c: da4080e7     	jalr	-0x25c(ra) <core::panicking::panic_null_pointer_dereference::hbac6411af4f2e916>

00000000800030a0 <.Lpcrel_hi283>:
800030a0: 00006517     	auipc	a0, 0x6
800030a4: f6050513     	addi	a0, a0, -0xa0
800030a8: e911         	bnez	a0, 0x800030bc <.Lpcrel_hi284+0x10>
800030aa: a005         	j	0x800030ca <.Lpcrel_hi286>

00000000800030ac <.Lpcrel_hi284>:
800030ac: 00004517     	auipc	a0, 0x4
800030b0: 3c450513     	addi	a0, a0, 0x3c4
800030b4: 00003097     	auipc	ra, 0x3
800030b8: ca4080e7     	jalr	-0x35c(ra) <core::panicking::panic_const::panic_const_add_overflow::h67cba067093910f8>
800030bc: 7542         	ld	a0, 0x30(sp)

00000000800030be <.Lpcrel_hi285>:
800030be: 00006597     	auipc	a1, 0x6
800030c2: f4258593     	addi	a1, a1, -0xbe
800030c6: f188         	sd	a0, 0x20(a1)
800030c8: b75d         	j	0x8000306e <.Lpcrel_hi280>

00000000800030ca <.Lpcrel_hi286>:
800030ca: 00004517     	auipc	a0, 0x4
800030ce: 3a650513     	addi	a0, a0, 0x3a6
800030d2: 00003097     	auipc	ra, 0x3
800030d6: d6a080e7     	jalr	-0x296(ra) <core::panicking::panic_null_pointer_dereference::hbac6411af4f2e916>

00000000800030da <.Lpcrel_hi287>:
800030da: 00006517     	auipc	a0, 0x6
800030de: 06650513     	addi	a0, a0, 0x66
800030e2: 01254503     	lbu	a0, 0x12(a0)
800030e6: 8905         	andi	a0, a0, 0x1
800030e8: e105         	bnez	a0, 0x80003108 <.Lpcrel_hi289+0xc>
800030ea: a809         	j	0x800030fc <.Lpcrel_hi289>

00000000800030ec <.Lpcrel_hi288>:
800030ec: 00004517     	auipc	a0, 0x4
800030f0: 39c50513     	addi	a0, a0, 0x39c
800030f4: 00003097     	auipc	ra, 0x3
800030f8: d48080e7     	jalr	-0x2b8(ra) <core::panicking::panic_null_pointer_dereference::hbac6411af4f2e916>

00000000800030fc <.Lpcrel_hi289>:
800030fc: 00006517     	auipc	a0, 0x6
80003100: 04450513     	addi	a0, a0, 0x44
80003104: e915         	bnez	a0, 0x80003138 <.Lpcrel_hi291>
80003106: a0b1         	j	0x80003152 <.Lpcrel_hi293>
80003108: 7506         	ld	a0, 0x60(sp)
8000310a: ffffe097     	auipc	ra, 0xffffe
8000310e: 548080e7     	jalr	0x548(ra) <lab4_kernel_task2::find_vma_index::h91779e8ae5909b43>

0000000080003112 <.Lpcrel_hi290>:
80003112: 00004617     	auipc	a2, 0x4
80003116: 3d660613     	addi	a2, a2, 0x3d6
8000311a: ffffd097     	auipc	ra, 0xffffd
8000311e: 478080e7     	jalr	0x478(ra) <core::option::Option$LT$T$GT$::unwrap_or_else::h6987c0893b58a661>
80003122: 85aa         	mv	a1, a0
80003124: f42e         	sd	a1, 0x28(sp)
80003126: 24a13423     	sd	a0, 0x248(sp)
8000312a: 750a         	ld	a0, 0xa0(sp)
8000312c: ffffe097     	auipc	ra, 0xffffe
80003130: 24c080e7     	jalr	0x24c(ra) <lab4_kernel_task2::pte_is_valid::hcf3d742da30fb2ce>
80003134: e549         	bnez	a0, 0x800031be <.Lpcrel_hi299>
80003136: a88d         	j	0x800031a8 <.Lpcrel_hi298+0x10>

0000000080003138 <.Lpcrel_hi291>:
80003138: 00006517     	auipc	a0, 0x6
8000313c: 00850593     	addi	a1, a0, 0x8
80003140: 4505         	li	a0, 0x1
80003142: 00a58923     	sb	a0, 0x12(a1)

0000000080003146 <.Lpcrel_hi292>:
80003146: 00006517     	auipc	a0, 0x6
8000314a: eba50513     	addi	a0, a0, -0x146
8000314e: e911         	bnez	a0, 0x80003162 <.Lpcrel_hi294>
80003150: a02d         	j	0x8000317a <.Lpcrel_hi296>

0000000080003152 <.Lpcrel_hi293>:
80003152: 00004517     	auipc	a0, 0x4
80003156: 34e50513     	addi	a0, a0, 0x34e
8000315a: 00003097     	auipc	ra, 0x3
8000315e: ce2080e7     	jalr	-0x31e(ra) <core::panicking::panic_null_pointer_dereference::hbac6411af4f2e916>

0000000080003162 <.Lpcrel_hi294>:
80003162: 00006517     	auipc	a0, 0x6
80003166: e9e50513     	addi	a0, a0, -0x162
8000316a: 7908         	ld	a0, 0x30(a0)
8000316c: f02a         	sd	a0, 0x20(sp)

000000008000316e <.Lpcrel_hi295>:
8000316e: 00006517     	auipc	a0, 0x6
80003172: fd250513     	addi	a0, a0, -0x2e
80003176: e911         	bnez	a0, 0x8000318a <.Lpcrel_hi296+0x10>
80003178: a005         	j	0x80003198 <.Lpcrel_hi298>

000000008000317a <.Lpcrel_hi296>:
8000317a: 00004517     	auipc	a0, 0x4
8000317e: 33e50513     	addi	a0, a0, 0x33e
80003182: 00003097     	auipc	ra, 0x3
80003186: cba080e7     	jalr	-0x346(ra) <core::panicking::panic_null_pointer_dereference::hbac6411af4f2e916>
8000318a: 7502         	ld	a0, 0x20(sp)

000000008000318c <.Lpcrel_hi297>:
8000318c: 00006597     	auipc	a1, 0x6
80003190: fb458593     	addi	a1, a1, -0x4c
80003194: e188         	sd	a0, 0x0(a1)
80003196: bf8d         	j	0x80003108 <.Lpcrel_hi289+0xc>

0000000080003198 <.Lpcrel_hi298>:
80003198: 00004517     	auipc	a0, 0x4
8000319c: 33850513     	addi	a0, a0, 0x338
800031a0: 00003097     	auipc	ra, 0x3
800031a4: c9c080e7     	jalr	-0x364(ra) <core::panicking::panic_null_pointer_dereference::hbac6411af4f2e916>
800031a8: fffff097     	auipc	ra, 0xfffff
800031ac: 12c080e7     	jalr	0x12c(ra) <lab4_kernel_task2::allocate_lazy_page::h73a8771ce98a26dd>
800031b0: 85aa         	mv	a1, a0
800031b2: 7522         	ld	a0, 0x28(sp)
800031b4: f52e         	sd	a1, 0xa8(sp)
800031b6: 4591         	li	a1, 0x4
800031b8: 00b56d63     	bltu	a0, a1, 0x800031d2 <.Lpcrel_hi300>
800031bc: a00d         	j	0x800031de <.Lpcrel_hi300+0xc>

00000000800031be <.Lpcrel_hi299>:
800031be: 00004517     	auipc	a0, 0x4
800031c2: 43d50513     	addi	a0, a0, 0x43d
800031c6: 02500593     	li	a1, 0x25
800031ca: ffffe097     	auipc	ra, 0xffffe
800031ce: 0d0080e7     	jalr	0xd0(ra) <lab4_kernel_task2::kernel_fail::h81ee1edb0feee17d>

00000000800031d2 <.Lpcrel_hi300>:
800031d2: 00020517     	auipc	a0, 0x20
800031d6: e2e50513     	addi	a0, a0, -0x1d2
800031da: ed01         	bnez	a0, 0x800031f2 <.Lpcrel_hi301+0x12>
800031dc: a889         	j	0x8000322e <.Lpcrel_hi303>
800031de: 7522         	ld	a0, 0x28(sp)

00000000800031e0 <.Lpcrel_hi301>:
800031e0: 00004597     	auipc	a1, 0x4
800031e4: 32058613     	addi	a2, a1, 0x320
800031e8: 4591         	li	a1, 0x4
800031ea: 00003097     	auipc	ra, 0x3
800031ee: be6080e7     	jalr	-0x41a(ra) <core::panicking::panic_bounds_check::h6aaee0d15e0261eb>
800031f2: 7522         	ld	a0, 0x28(sp)
800031f4: 00351593     	slli	a1, a0, 0x3
800031f8: 051a         	slli	a0, a0, 0x6
800031fa: 40b505b3     	sub	a1, a0, a1

00000000800031fe <.Lpcrel_hi302>:
800031fe: 00020517     	auipc	a0, 0x20
80003202: e0250513     	addi	a0, a0, -0x1fe
80003206: 952e         	add	a0, a0, a1
80003208: 6908         	ld	a0, 0x10(a0)
8000320a: 00000097     	auipc	ra, 0x0
8000320e: 5fa080e7     	jalr	0x5fa(ra) <lab4_kernel_task2::user_leaf_flags_for_vma::h641c721235c63b59>
80003212: 862a         	mv	a2, a0
80003214: 24c13823     	sd	a2, 0x250(sp)
80003218: 7506         	ld	a0, 0x60(sp)
8000321a: 75aa         	ld	a1, 0xa8(sp)
8000321c: fffff097     	auipc	ra, 0xfffff
80003220: f8e080e7     	jalr	-0x72(ra) <lab4_kernel_task2::install_user_leaf::h9595adef4e09de68>
80003224: 7522         	ld	a0, 0x28(sp)
80003226: 4591         	li	a1, 0x4
80003228: 00b56b63     	bltu	a0, a1, 0x8000323e <.Lpcrel_hi304>
8000322c: a839         	j	0x8000324a <.Lpcrel_hi304+0xc>

000000008000322e <.Lpcrel_hi303>:
8000322e: 00004517     	auipc	a0, 0x4
80003232: 2d250513     	addi	a0, a0, 0x2d2
80003236: 00003097     	auipc	ra, 0x3
8000323a: c06080e7     	jalr	-0x3fa(ra) <core::panicking::panic_null_pointer_dereference::hbac6411af4f2e916>

000000008000323e <.Lpcrel_hi304>:
8000323e: 00020517     	auipc	a0, 0x20
80003242: dc250513     	addi	a0, a0, -0x23e
80003246: ed01         	bnez	a0, 0x8000325e <.Lpcrel_hi305+0x12>
80003248: a82d         	j	0x80003282 <.Lpcrel_hi307>
8000324a: 7522         	ld	a0, 0x28(sp)

000000008000324c <.Lpcrel_hi305>:
8000324c: 00004597     	auipc	a1, 0x4
80003250: 2cc58613     	addi	a2, a1, 0x2cc
80003254: 4591         	li	a1, 0x4
80003256: 00003097     	auipc	ra, 0x3
8000325a: b7a080e7     	jalr	-0x486(ra) <core::panicking::panic_bounds_check::h6aaee0d15e0261eb>
8000325e: 7522         	ld	a0, 0x28(sp)
80003260: 00351593     	slli	a1, a0, 0x3
80003264: 051a         	slli	a0, a0, 0x6
80003266: 40b505b3     	sub	a1, a0, a1

000000008000326a <.Lpcrel_hi306>:
8000326a: 00020517     	auipc	a0, 0x20
8000326e: d9650513     	addi	a0, a0, -0x26a
80003272: 952e         	add	a0, a0, a1
80003274: 710c         	ld	a1, 0x20(a0)
80003276: 00158513     	addi	a0, a1, 0x1
8000327a: ec2a         	sd	a0, 0x18(sp)
8000327c: 02b56163     	bltu	a0, a1, 0x8000329e <.Lpcrel_hi309>
80003280: a809         	j	0x80003292 <.Lpcrel_hi308>

0000000080003282 <.Lpcrel_hi307>:
80003282: 00004517     	auipc	a0, 0x4
80003286: 29650513     	addi	a0, a0, 0x296
8000328a: 00003097     	auipc	ra, 0x3
8000328e: bb2080e7     	jalr	-0x44e(ra) <core::panicking::panic_null_pointer_dereference::hbac6411af4f2e916>

0000000080003292 <.Lpcrel_hi308>:
80003292: 00020517     	auipc	a0, 0x20
80003296: d6e50513     	addi	a0, a0, -0x292
8000329a: e911         	bnez	a0, 0x800032ae <.Lpcrel_hi309+0x10>
8000329c: a81d         	j	0x800032d2 <.Lpcrel_hi311>

000000008000329e <.Lpcrel_hi309>:
8000329e: 00004517     	auipc	a0, 0x4
800032a2: 27a50513     	addi	a0, a0, 0x27a
800032a6: 00003097     	auipc	ra, 0x3
800032aa: ab2080e7     	jalr	-0x54e(ra) <core::panicking::panic_const::panic_const_add_overflow::h67cba067093910f8>
800032ae: 7522         	ld	a0, 0x28(sp)
800032b0: 65e2         	ld	a1, 0x18(sp)
800032b2: 00351693     	slli	a3, a0, 0x3
800032b6: 00651613     	slli	a2, a0, 0x6
800032ba: 40d606b3     	sub	a3, a2, a3

00000000800032be <.Lpcrel_hi310>:
800032be: 00020617     	auipc	a2, 0x20
800032c2: d4260613     	addi	a2, a2, -0x2be
800032c6: 9636         	add	a2, a2, a3
800032c8: f20c         	sd	a1, 0x20(a2)
800032ca: 4591         	li	a1, 0x4
800032cc: 00b56b63     	bltu	a0, a1, 0x800032e2 <.Lpcrel_hi312>
800032d0: a839         	j	0x800032ee <.Lpcrel_hi312+0xc>

00000000800032d2 <.Lpcrel_hi311>:
800032d2: 00004517     	auipc	a0, 0x4
800032d6: 24650513     	addi	a0, a0, 0x246
800032da: 00003097     	auipc	ra, 0x3
800032de: b62080e7     	jalr	-0x49e(ra) <core::panicking::panic_null_pointer_dereference::hbac6411af4f2e916>

00000000800032e2 <.Lpcrel_hi312>:
800032e2: 00020517     	auipc	a0, 0x20
800032e6: d1e50513     	addi	a0, a0, -0x2e2
800032ea: ed01         	bnez	a0, 0x80003302 <.Lpcrel_hi313+0x12>
800032ec: a82d         	j	0x80003326 <.Lpcrel_hi315>
800032ee: 7522         	ld	a0, 0x28(sp)

00000000800032f0 <.Lpcrel_hi313>:
800032f0: 00004597     	auipc	a1, 0x4
800032f4: 24058613     	addi	a2, a1, 0x240
800032f8: 4591         	li	a1, 0x4
800032fa: 00003097     	auipc	ra, 0x3
800032fe: ad6080e7     	jalr	-0x52a(ra) <core::panicking::panic_bounds_check::h6aaee0d15e0261eb>
80003302: 7522         	ld	a0, 0x28(sp)
80003304: 00351593     	slli	a1, a0, 0x3
80003308: 051a         	slli	a0, a0, 0x6
8000330a: 40b505b3     	sub	a1, a0, a1

000000008000330e <.Lpcrel_hi314>:
8000330e: 00020517     	auipc	a0, 0x20
80003312: cf250513     	addi	a0, a0, -0x30e
80003316: 952e         	add	a0, a0, a1
80003318: 750c         	ld	a1, 0x28(a0)
8000331a: 00158513     	addi	a0, a1, 0x1
8000331e: e82a         	sd	a0, 0x10(sp)
80003320: 02b56163     	bltu	a0, a1, 0x80003342 <.Lpcrel_hi317>
80003324: a809         	j	0x80003336 <.Lpcrel_hi316>

0000000080003326 <.Lpcrel_hi315>:
80003326: 00004517     	auipc	a0, 0x4
8000332a: 20a50513     	addi	a0, a0, 0x20a
8000332e: 00003097     	auipc	ra, 0x3
80003332: b0e080e7     	jalr	-0x4f2(ra) <core::panicking::panic_null_pointer_dereference::hbac6411af4f2e916>

0000000080003336 <.Lpcrel_hi316>:
80003336: 00020517     	auipc	a0, 0x20
8000333a: cca50513     	addi	a0, a0, -0x336
8000333e: e911         	bnez	a0, 0x80003352 <.Lpcrel_hi317+0x10>
80003340: a099         	j	0x80003386 <.Lpcrel_hi319>

0000000080003342 <.Lpcrel_hi317>:
80003342: 00004517     	auipc	a0, 0x4
80003346: 1ee50513     	addi	a0, a0, 0x1ee
8000334a: 00003097     	auipc	ra, 0x3
8000334e: a0e080e7     	jalr	-0x5f2(ra) <core::panicking::panic_const::panic_const_add_overflow::h67cba067093910f8>
80003352: 6542         	ld	a0, 0x10(sp)
80003354: 75a2         	ld	a1, 0x28(sp)
80003356: 00359613     	slli	a2, a1, 0x3
8000335a: 059a         	slli	a1, a1, 0x6
8000335c: 40c58633     	sub	a2, a1, a2

0000000080003360 <.Lpcrel_hi318>:
80003360: 00020597     	auipc	a1, 0x20
80003364: ca058593     	addi	a1, a1, -0x360
80003368: 95b2         	add	a1, a1, a2
8000336a: f588         	sd	a0, 0x28(a1)
8000336c: 7586         	ld	a1, 0x60(sp)
8000336e: 1908         	addi	a0, sp, 0xb0
80003370: ffffe097     	auipc	ra, 0xffffe
80003374: 012080e7     	jalr	0x12(ra) <lab4_kernel_task2::walk_virtual::haeedce58dbcc1375>
80003378: 752e         	ld	a0, 0xe8(sp)
8000337a: ffffe097     	auipc	ra, 0xffffe
8000337e: ffe080e7     	jalr	-0x2(ra) <lab4_kernel_task2::pte_is_valid::hcf3d742da30fb2ce>
80003382: ed05         	bnez	a0, 0x800033ba <.Lpcrel_hi319+0x34>
80003384: a809         	j	0x80003396 <.Lpcrel_hi319+0x10>

0000000080003386 <.Lpcrel_hi319>:
80003386: 00004517     	auipc	a0, 0x4
8000338a: 1aa50513     	addi	a0, a0, 0x1aa
8000338e: 00003097     	auipc	ra, 0x3
80003392: aae080e7     	jalr	-0x552(ra) <core::panicking::panic_null_pointer_dereference::hbac6411af4f2e916>
80003396: 6526         	ld	a0, 0x48(sp)
80003398: ffffe097     	auipc	ra, 0xffffe
8000339c: 410080e7     	jalr	0x410(ra) <lab4_kernel_task2::fault_kind_name::h2a1b35312c51c2a8>
800033a0: 86aa         	mv	a3, a0
800033a2: 7522         	ld	a0, 0x28(sp)
800033a4: 862e         	mv	a2, a1
800033a6: 65c6         	ld	a1, 0x50(sp)
800033a8: f636         	sd	a3, 0x128(sp)
800033aa: fa32         	sd	a2, 0x130(sp)
800033ac: 0f858593     	addi	a1, a1, 0xf8
800033b0: e42e         	sd	a1, 0x8(sp)
800033b2: 4591         	li	a1, 0x4
800033b4: 08b56963     	bltu	a0, a1, 0x80003446 <.Lpcrel_hi327>
800033b8: a869         	j	0x80003452 <.Lpcrel_hi327+0xc>
800033ba: 752e         	ld	a0, 0xe8(sp)
800033bc: 00001097     	auipc	ra, 0x1
800033c0: c24080e7     	jalr	-0x3dc(ra) <lab4_kernel_task2::pte_to_pa::h4668a551d4fdc628>
800033c4: 75aa         	ld	a1, 0xa8(sp)
800033c6: fcb518e3     	bne	a0, a1, 0x80003396 <.Lpcrel_hi319+0x10>
800033ca: a009         	j	0x800033cc <.Lpcrel_hi319+0x46>
800033cc: 752e         	ld	a0, 0xe8(sp)
800033ce: ffffe097     	auipc	ra, 0xffffe
800033d2: f9e080e7     	jalr	-0x62(ra) <lab4_kernel_task2::pte_has_user::h8d63cd7ac93c5d3d>
800033d6: d161         	beqz	a0, 0x80003396 <.Lpcrel_hi319+0x10>
800033d8: a009         	j	0x800033da <.Lpcrel_hi320>

00000000800033da <.Lpcrel_hi320>:
800033da: 00006517     	auipc	a0, 0x6
800033de: d6650513     	addi	a0, a0, -0x29a
800033e2: cd09         	beqz	a0, 0x800033fc <.Lpcrel_hi322>
800033e4: a009         	j	0x800033e6 <.Lpcrel_hi321>

00000000800033e6 <.Lpcrel_hi321>:
800033e6: 00006517     	auipc	a0, 0x6
800033ea: d5a50513     	addi	a0, a0, -0x2a6
800033ee: 650c         	ld	a1, 0x8(a0)
800033f0: 00158513     	addi	a0, a1, 0x1
800033f4: e02a         	sd	a0, 0x0(sp)
800033f6: 02b56163     	bltu	a0, a1, 0x80003418 <.Lpcrel_hi324>
800033fa: a809         	j	0x8000340c <.Lpcrel_hi323>

00000000800033fc <.Lpcrel_hi322>:
800033fc: 00004517     	auipc	a0, 0x4
80003400: 14c50513     	addi	a0, a0, 0x14c
80003404: 00003097     	auipc	ra, 0x3
80003408: a38080e7     	jalr	-0x5c8(ra) <core::panicking::panic_null_pointer_dereference::hbac6411af4f2e916>

000000008000340c <.Lpcrel_hi323>:
8000340c: 00006517     	auipc	a0, 0x6
80003410: d3450513     	addi	a0, a0, -0x2cc
80003414: e911         	bnez	a0, 0x80003428 <.Lpcrel_hi324+0x10>
80003416: a005         	j	0x80003436 <.Lpcrel_hi326>

0000000080003418 <.Lpcrel_hi324>:
80003418: 00004517     	auipc	a0, 0x4
8000341c: 13050513     	addi	a0, a0, 0x130
80003420: 00003097     	auipc	ra, 0x3
80003424: 938080e7     	jalr	-0x6c8(ra) <core::panicking::panic_const::panic_const_add_overflow::h67cba067093910f8>
80003428: 6502         	ld	a0, 0x0(sp)

000000008000342a <.Lpcrel_hi325>:
8000342a: 00006597     	auipc	a1, 0x6
8000342e: d1658593     	addi	a1, a1, -0x2ea
80003432: e588         	sd	a0, 0x8(a1)
80003434: b78d         	j	0x80003396 <.Lpcrel_hi319+0x10>

0000000080003436 <.Lpcrel_hi326>:
80003436: 00004517     	auipc	a0, 0x4
8000343a: 11250513     	addi	a0, a0, 0x112
8000343e: 00003097     	auipc	ra, 0x3
80003442: 9fe080e7     	jalr	-0x602(ra) <core::panicking::panic_null_pointer_dereference::hbac6411af4f2e916>

0000000080003446 <.Lpcrel_hi327>:
80003446: 00020517     	auipc	a0, 0x20
8000344a: bba50513     	addi	a0, a0, -0x446
8000344e: ed01         	bnez	a0, 0x80003466 <.Lpcrel_hi328+0x12>
80003450: aa65         	j	0x80003608 <.Lpcrel_hi333>
80003452: 7522         	ld	a0, 0x28(sp)

0000000080003454 <.Lpcrel_hi328>:
80003454: 00004597     	auipc	a1, 0x4
80003458: 10c58613     	addi	a2, a1, 0x10c
8000345c: 4591         	li	a1, 0x4
8000345e: 00003097     	auipc	ra, 0x3
80003462: 972080e7     	jalr	-0x68e(ra) <core::panicking::panic_bounds_check::h6aaee0d15e0261eb>
80003466: 7522         	ld	a0, 0x28(sp)
80003468: 00351593     	slli	a1, a0, 0x3
8000346c: 051a         	slli	a0, a0, 0x6
8000346e: 40b505b3     	sub	a1, a0, a1

0000000080003472 <.Lpcrel_hi329>:
80003472: 00020517     	auipc	a0, 0x20
80003476: b8e50513     	addi	a0, a0, -0x472
8000347a: 952e         	add	a0, a0, a1
8000347c: 6d08         	ld	a0, 0x18(a0)
8000347e: ffffe097     	auipc	ra, 0xffffe
80003482: 184080e7     	jalr	0x184(ra) <lab4_kernel_task2::vma_kind_name::h5b2d98d122f04424>
80003486: fe2a         	sd	a0, 0x138(sp)
80003488: e2ae         	sd	a1, 0x140(sp)
8000348a: 750a         	ld	a0, 0xa0(sp)
8000348c: ffffe097     	auipc	ra, 0xffffe
80003490: eec080e7     	jalr	-0x114(ra) <lab4_kernel_task2::pte_is_valid::hcf3d742da30fb2ce>
80003494: 00000097     	auipc	ra, 0x0
80003498: 40c080e7     	jalr	0x40c(ra) <lab4_kernel_task2::yes_no::hc8170aa674339849>
8000349c: 862a         	mv	a2, a0
8000349e: 6522         	ld	a0, 0x8(sp)
800034a0: e6b2         	sd	a2, 0x148(sp)
800034a2: eaae         	sd	a1, 0x150(sp)
800034a4: 122c         	addi	a1, sp, 0x128
800034a6: f9ae         	sd	a1, 0xf0(sp)
800034a8: fdaa         	sd	a0, 0xf8(sp)
800034aa: 08a8         	addi	a0, sp, 0x58
800034ac: e22a         	sd	a0, 0x100(sp)
800034ae: 1088         	addi	a0, sp, 0x60
800034b0: e62a         	sd	a0, 0x108(sp)
800034b2: 1a28         	addi	a0, sp, 0x138
800034b4: ea2a         	sd	a0, 0x110(sp)
800034b6: 02a8         	addi	a0, sp, 0x148
800034b8: ee2a         	sd	a0, 0x118(sp)
800034ba: 1128         	addi	a0, sp, 0xa8
800034bc: f22a         	sd	a0, 0x120(sp)
800034be: 75ce         	ld	a1, 0xf0(sp)
800034c0: 03a8         	addi	a0, sp, 0x1c8
800034c2: 00001097     	auipc	ra, 0x1
800034c6: 3ee080e7     	jalr	0x3ee(ra) <core::fmt::rt::Argument::new_display::ha3bba816af074122>
800034ca: 75ee         	ld	a1, 0xf8(sp)
800034cc: 0ba8         	addi	a0, sp, 0x1d8
800034ce: 00001097     	auipc	ra, 0x1
800034d2: 448080e7     	jalr	0x448(ra) <core::fmt::rt::Argument::new_lower_hex::ha3dbd086c79e0875>
800034d6: 6592         	ld	a1, 0x100(sp)
800034d8: 13a8         	addi	a0, sp, 0x1e8
800034da: 00001097     	auipc	ra, 0x1
800034de: 43c080e7     	jalr	0x43c(ra) <core::fmt::rt::Argument::new_lower_hex::ha3dbd086c79e0875>
800034e2: 65b2         	ld	a1, 0x108(sp)
800034e4: 1ba8         	addi	a0, sp, 0x1f8
800034e6: 00001097     	auipc	ra, 0x1
800034ea: 430080e7     	jalr	0x430(ra) <core::fmt::rt::Argument::new_lower_hex::ha3dbd086c79e0875>
800034ee: 65d2         	ld	a1, 0x110(sp)
800034f0: 0428         	addi	a0, sp, 0x208
800034f2: 00001097     	auipc	ra, 0x1
800034f6: 3be080e7     	jalr	0x3be(ra) <core::fmt::rt::Argument::new_display::ha3bba816af074122>
800034fa: 65f2         	ld	a1, 0x118(sp)
800034fc: 0c28         	addi	a0, sp, 0x218
800034fe: 00001097     	auipc	ra, 0x1
80003502: 3b2080e7     	jalr	0x3b2(ra) <core::fmt::rt::Argument::new_display::ha3bba816af074122>
80003506: 7592         	ld	a1, 0x120(sp)
80003508: 1428         	addi	a0, sp, 0x228
8000350a: 00001097     	auipc	ra, 0x1
8000350e: 40c080e7     	jalr	0x40c(ra) <core::fmt::rt::Argument::new_lower_hex::ha3dbd086c79e0875>
80003512: 655e         	ld	a0, 0x1d0(sp)
80003514: f2aa         	sd	a0, 0x160(sp)
80003516: 653e         	ld	a0, 0x1c8(sp)
80003518: eeaa         	sd	a0, 0x158(sp)
8000351a: 751e         	ld	a0, 0x1e0(sp)
8000351c: faaa         	sd	a0, 0x170(sp)
8000351e: 657e         	ld	a0, 0x1d8(sp)
80003520: f6aa         	sd	a0, 0x168(sp)
80003522: 755e         	ld	a0, 0x1f0(sp)
80003524: e32a         	sd	a0, 0x180(sp)
80003526: 753e         	ld	a0, 0x1e8(sp)
80003528: feaa         	sd	a0, 0x178(sp)
8000352a: 20013503     	ld	a0, 0x200(sp)
8000352e: eb2a         	sd	a0, 0x190(sp)
80003530: 757e         	ld	a0, 0x1f8(sp)
80003532: e72a         	sd	a0, 0x188(sp)
80003534: 21013503     	ld	a0, 0x210(sp)
80003538: f32a         	sd	a0, 0x1a0(sp)
8000353a: 20813503     	ld	a0, 0x208(sp)
8000353e: ef2a         	sd	a0, 0x198(sp)
80003540: 22013503     	ld	a0, 0x220(sp)
80003544: fb2a         	sd	a0, 0x1b0(sp)
80003546: 21813503     	ld	a0, 0x218(sp)
8000354a: f72a         	sd	a0, 0x1a8(sp)
8000354c: 23013503     	ld	a0, 0x230(sp)
80003550: e3aa         	sd	a0, 0x1c0(sp)
80003552: 22813503     	ld	a0, 0x228(sp)
80003556: ff2a         	sd	a0, 0x1b8(sp)

0000000080003558 <.Lpcrel_hi330>:
80003558: 00004517     	auipc	a0, 0x4
8000355c: 02050513     	addi	a0, a0, 0x20
80003560: 0aac         	addi	a1, sp, 0x158
80003562: ffffd097     	auipc	ra, 0xffffd
80003566: cf6080e7     	jalr	-0x30a(ra) <core::fmt::Arguments::new::h5f86b9d9f2d756ee>
8000356a: ffffd097     	auipc	ra, 0xffffd
8000356e: bd6080e7     	jalr	-0x42a(ra) <lab4_kernel_task2::console::print::h7473f0160e01bbb6>
80003572: 7606         	ld	a2, 0x60(sp)
80003574: 750a         	ld	a0, 0xa0(sp)
80003576: 28a13823     	sd	a0, 0x290(sp)
8000357a: 656a         	ld	a0, 0x98(sp)
8000357c: 28a13423     	sd	a0, 0x288(sp)
80003580: 654a         	ld	a0, 0x90(sp)
80003582: 28a13023     	sd	a0, 0x280(sp)
80003586: 652a         	ld	a0, 0x88(sp)
80003588: 26a13c23     	sd	a0, 0x278(sp)
8000358c: 650a         	ld	a0, 0x80(sp)
8000358e: 26a13823     	sd	a0, 0x270(sp)
80003592: 7566         	ld	a0, 0x78(sp)
80003594: 26a13423     	sd	a0, 0x268(sp)
80003598: 7546         	ld	a0, 0x70(sp)
8000359a: 26a13023     	sd	a0, 0x260(sp)
8000359e: 7526         	ld	a0, 0x68(sp)
800035a0: 24a13c23     	sd	a0, 0x258(sp)

00000000800035a4 <.Lpcrel_hi331>:
800035a4: 00004517     	auipc	a0, 0x4
800035a8: 04050513     	addi	a0, a0, 0x40
800035ac: 45b1         	li	a1, 0xc
800035ae: 0cb4         	addi	a3, sp, 0x258
800035b0: ffffe097     	auipc	ra, 0xffffe
800035b4: 8da080e7     	jalr	-0x726(ra) <lab4_kernel_task2::print_walk::hba181e23c4f2f5d4>
800035b8: 7606         	ld	a2, 0x60(sp)
800035ba: 752e         	ld	a0, 0xe8(sp)
800035bc: 2ca13823     	sd	a0, 0x2d0(sp)
800035c0: 750e         	ld	a0, 0xe0(sp)
800035c2: 2ca13423     	sd	a0, 0x2c8(sp)
800035c6: 656e         	ld	a0, 0xd8(sp)
800035c8: 2ca13023     	sd	a0, 0x2c0(sp)
800035cc: 654e         	ld	a0, 0xd0(sp)
800035ce: 2aa13c23     	sd	a0, 0x2b8(sp)
800035d2: 652e         	ld	a0, 0xc8(sp)
800035d4: 2aa13823     	sd	a0, 0x2b0(sp)
800035d8: 650e         	ld	a0, 0xc0(sp)
800035da: 2aa13423     	sd	a0, 0x2a8(sp)
800035de: 756a         	ld	a0, 0xb8(sp)
800035e0: 2aa13023     	sd	a0, 0x2a0(sp)
800035e4: 754a         	ld	a0, 0xb0(sp)
800035e6: 28a13c23     	sd	a0, 0x298(sp)

00000000800035ea <.Lpcrel_hi332>:
800035ea: 00004517     	auipc	a0, 0x4
800035ee: 00650513     	addi	a0, a0, 0x6
800035f2: 45ad         	li	a1, 0xb
800035f4: 0d34         	addi	a3, sp, 0x298
800035f6: ffffe097     	auipc	ra, 0xffffe
800035fa: 894080e7     	jalr	-0x76c(ra) <lab4_kernel_task2::print_walk::hba181e23c4f2f5d4>
800035fe: 2d813083     	ld	ra, 0x2d8(sp)
80003602: 2e010113     	addi	sp, sp, 0x2e0
80003606: 8082         	ret

0000000080003608 <.Lpcrel_hi333>:
80003608: 00004517     	auipc	a0, 0x4
8000360c: f5850513     	addi	a0, a0, -0xa8
80003610: 00003097     	auipc	ra, 0x3
80003614: 82c080e7     	jalr	-0x7d4(ra) <core::panicking::panic_null_pointer_dereference::hbac6411af4f2e916>

0000000080003618 <lab4_kernel_task2::machine_trap_stack_top::hdeb7ae555cfc91c4>:
80003618: 00028517     	auipc	a0, 0x28
8000361c: ad850513     	addi	a0, a0, -0x528
80003620: 8082         	ret

0000000080003622 <lab4_kernel_task2::initialize_lazy_runtime::h2c63c66ee558a9c0>:
80003622: 7151         	addi	sp, sp, -0xf0
80003624: f586         	sd	ra, 0xe8(sp)

0000000080003626 <.Lpcrel_hi335>:
80003626: 0001e517     	auipc	a0, 0x1e
8000362a: 9da50513     	addi	a0, a0, -0x626
8000362e: c11d         	beqz	a0, 0x80003654 <.Lpcrel_hi338>
80003630: a009         	j	0x80003632 <.Lpcrel_hi336>

0000000080003632 <.Lpcrel_hi336>:
80003632: 0001e517     	auipc	a0, 0x1e
80003636: 9ce50593     	addi	a1, a0, -0x632
8000363a: 4501         	li	a0, 0x0
8000363c: e188         	sd	a0, 0x0(a1)
8000363e: 1808         	addi	a0, sp, 0x30
80003640: 00000097     	auipc	ra, 0x0
80003644: 20e080e7     	jalr	0x20e(ra) <lab4_kernel_task2::Vma::empty::h3575bb5b8333b9e1>

0000000080003648 <.Lpcrel_hi337>:
80003648: 00020517     	auipc	a0, 0x20
8000364c: 9b850513     	addi	a0, a0, -0x648
80003650: e911         	bnez	a0, 0x80003664 <.Lpcrel_hi339>
80003652: a839         	j	0x80003670 <.Lpcrel_hi340>

0000000080003654 <.Lpcrel_hi338>:
80003654: 00004517     	auipc	a0, 0x4
80003658: fcc50513     	addi	a0, a0, -0x34
8000365c: 00002097     	auipc	ra, 0x2
80003660: 7e0080e7     	jalr	0x7e0(ra) <core::panicking::panic_null_pointer_dereference::hbac6411af4f2e916>

0000000080003664 <.Lpcrel_hi339>:
80003664: 00020517     	auipc	a0, 0x20
80003668: 99c50513     	addi	a0, a0, -0x664
8000366c: f42a         	sd	a0, 0x28(sp)
8000366e: a809         	j	0x80003680 <.Lpcrel_hi340+0x10>

0000000080003670 <.Lpcrel_hi340>:
80003670: 00004517     	auipc	a0, 0x4
80003674: fc850513     	addi	a0, a0, -0x38
80003678: 00002097     	auipc	ra, 0x2
8000367c: 7c4080e7     	jalr	0x7c4(ra) <core::panicking::panic_null_pointer_dereference::hbac6411af4f2e916>
80003680: 7522         	ld	a0, 0x28(sp)
80003682: f02a         	sd	a0, 0x20(sp)

0000000080003684 <.Lpcrel_hi341>:
80003684: 00020597     	auipc	a1, 0x20
80003688: 97c58593     	addi	a1, a1, -0x684
8000368c: 0e058593     	addi	a1, a1, 0xe0
80003690: 02b50663     	beq	a0, a1, 0x800036bc <.Lpcrel_hi341+0x38>
80003694: a009         	j	0x80003696 <.Lpcrel_hi341+0x12>
80003696: 7502         	ld	a0, 0x20(sp)
80003698: 7586         	ld	a1, 0x60(sp)
8000369a: f90c         	sd	a1, 0x30(a0)
8000369c: 65e6         	ld	a1, 0x58(sp)
8000369e: f50c         	sd	a1, 0x28(a0)
800036a0: 65c6         	ld	a1, 0x50(sp)
800036a2: f10c         	sd	a1, 0x20(a0)
800036a4: 65a6         	ld	a1, 0x48(sp)
800036a6: ed0c         	sd	a1, 0x18(a0)
800036a8: 6586         	ld	a1, 0x40(sp)
800036aa: e90c         	sd	a1, 0x10(a0)
800036ac: 75e2         	ld	a1, 0x38(sp)
800036ae: e50c         	sd	a1, 0x8(a0)
800036b0: 75c2         	ld	a1, 0x30(sp)
800036b2: e10c         	sd	a1, 0x0(a0)
800036b4: 03850513     	addi	a0, a0, 0x38
800036b8: f42a         	sd	a0, 0x28(sp)
800036ba: b7d9         	j	0x80003680 <.Lpcrel_hi340+0x10>
800036bc: 10a8         	addi	a0, sp, 0x68
800036be: 00001097     	auipc	ra, 0x1
800036c2: 84e080e7     	jalr	-0x7b2(ra) <lab4_kernel_task2::LazyStats::zeroed::h07ca158531d294ac>

00000000800036c6 <.Lpcrel_hi342>:
800036c6: 00006517     	auipc	a0, 0x6
800036ca: 93a50513     	addi	a0, a0, -0x6c6
800036ce: c131         	beqz	a0, 0x80003712 <.Lpcrel_hi345>
800036d0: a009         	j	0x800036d2 <.Lpcrel_hi343>

00000000800036d2 <.Lpcrel_hi343>:
800036d2: 00006517     	auipc	a0, 0x6
800036d6: 92e50593     	addi	a1, a0, -0x6d2
800036da: ec2e         	sd	a1, 0x18(sp)
800036dc: 750a         	ld	a0, 0xa0(sp)
800036de: fd88         	sd	a0, 0x38(a1)
800036e0: 656a         	ld	a0, 0x98(sp)
800036e2: f988         	sd	a0, 0x30(a1)
800036e4: 654a         	ld	a0, 0x90(sp)
800036e6: f588         	sd	a0, 0x28(a1)
800036e8: 652a         	ld	a0, 0x88(sp)
800036ea: f188         	sd	a0, 0x20(a1)
800036ec: 650a         	ld	a0, 0x80(sp)
800036ee: ed88         	sd	a0, 0x18(a1)
800036f0: 7566         	ld	a0, 0x78(sp)
800036f2: e988         	sd	a0, 0x10(a1)
800036f4: 7546         	ld	a0, 0x70(sp)
800036f6: e588         	sd	a0, 0x8(a1)
800036f8: 7526         	ld	a0, 0x68(sp)
800036fa: e188         	sd	a0, 0x0(a1)
800036fc: 1128         	addi	a0, sp, 0xa8
800036fe: ffffe097     	auipc	ra, 0xffffe
80003702: c58080e7     	jalr	-0x3a8(ra) <lab4_kernel_task2::LazyEvidence::zeroed::h0d78a9a30e4ff54c>

0000000080003706 <.Lpcrel_hi344>:
80003706: 00006517     	auipc	a0, 0x6
8000370a: a3a50513     	addi	a0, a0, -0x5c6
8000370e: e911         	bnez	a0, 0x80003722 <.Lpcrel_hi346>
80003710: a80d         	j	0x80003742 <.Lpcrel_hi348>

0000000080003712 <.Lpcrel_hi345>:
80003712: 00004517     	auipc	a0, 0x4
80003716: f3e50513     	addi	a0, a0, -0xc2
8000371a: 00002097     	auipc	ra, 0x2
8000371e: 722080e7     	jalr	0x722(ra) <core::panicking::panic_null_pointer_dereference::hbac6411af4f2e916>

0000000080003722 <.Lpcrel_hi346>:
80003722: 00006517     	auipc	a0, 0x6
80003726: a1e50593     	addi	a1, a0, -0x5e2
8000372a: 756a         	ld	a0, 0xb8(sp)
8000372c: e988         	sd	a0, 0x10(a1)
8000372e: 754a         	ld	a0, 0xb0(sp)
80003730: e588         	sd	a0, 0x8(a1)
80003732: 752a         	ld	a0, 0xa8(sp)
80003734: e188         	sd	a0, 0x0(a1)

0000000080003736 <.Lpcrel_hi347>:
80003736: 00005517     	auipc	a0, 0x5
8000373a: b6a50513     	addi	a0, a0, -0x496
8000373e: e911         	bnez	a0, 0x80003752 <.Lpcrel_hi349>
80003740: a035         	j	0x8000376c <.Lpcrel_hi351>

0000000080003742 <.Lpcrel_hi348>:
80003742: 00004517     	auipc	a0, 0x4
80003746: f2650513     	addi	a0, a0, -0xda
8000374a: 00002097     	auipc	ra, 0x2
8000374e: 6f2080e7     	jalr	0x6f2(ra) <core::panicking::panic_null_pointer_dereference::hbac6411af4f2e916>

0000000080003752 <.Lpcrel_hi349>:
80003752: 00005517     	auipc	a0, 0x5
80003756: b4e50593     	addi	a1, a0, -0x4b2
8000375a: 00410537     	lui	a0, 0x410
8000375e: e188         	sd	a0, 0x0(a1)

0000000080003760 <.Lpcrel_hi350>:
80003760: 00005517     	auipc	a0, 0x5
80003764: b4850513     	addi	a0, a0, -0x4b8
80003768: e911         	bnez	a0, 0x8000377c <.Lpcrel_hi352>
8000376a: a815         	j	0x8000379e <.Lpcrel_hi354>

000000008000376c <.Lpcrel_hi351>:
8000376c: 00004517     	auipc	a0, 0x4
80003770: f1450513     	addi	a0, a0, -0xec
80003774: 00002097     	auipc	ra, 0x2
80003778: 6c8080e7     	jalr	0x6c8(ra) <core::panicking::panic_null_pointer_dereference::hbac6411af4f2e916>

000000008000377c <.Lpcrel_hi352>:
8000377c: 00005517     	auipc	a0, 0x5
80003780: b2c50593     	addi	a1, a0, -0x4d4
80003784: 00420537     	lui	a0, 0x420
80003788: e188         	sd	a0, 0x0(a1)

000000008000378a <.Lpcrel_hi353>:
8000378a: 00007517     	auipc	a0, 0x7
8000378e: 87650513     	addi	a0, a0, -0x78a
80003792: f1aa         	sd	a0, 0xe0(sp)
80003794: 6541         	lui	a0, 0x10
80003796: e82a         	sd	a0, 0x10(sp)
80003798: 4501         	li	a0, 0x0
8000379a: ed29         	bnez	a0, 0x800037f4 <.Lpcrel_hi357>
8000379c: a809         	j	0x800037ae <.Lpcrel_hi354+0x10>

000000008000379e <.Lpcrel_hi354>:
8000379e: 00004517     	auipc	a0, 0x4
800037a2: efa50513     	addi	a0, a0, -0x106
800037a6: 00002097     	auipc	ra, 0x2
800037aa: 696080e7     	jalr	0x696(ra) <core::panicking::panic_null_pointer_dereference::hbac6411af4f2e916>
800037ae: 6642         	ld	a2, 0x10(sp)

00000000800037b0 <.Lpcrel_hi355>:
800037b0: 00007517     	auipc	a0, 0x7
800037b4: 85050513     	addi	a0, a0, -0x7b0
800037b8: e02a         	sd	a0, 0x0(sp)
800037ba: e5aa         	sd	a0, 0xc8(sp)
800037bc: 4581         	li	a1, 0x0
800037be: e42e         	sd	a1, 0x8(sp)
800037c0: 0cb10ba3     	sb	a1, 0xd7(sp)
800037c4: edb2         	sd	a2, 0xd8(sp)
800037c6: 0cb103a3     	sb	a1, 0xc7(sp)
800037ca: 0c714603     	lbu	a2, 0xc7(sp)

00000000800037ce <.Lpcrel_hi356>:
800037ce: 00004597     	auipc	a1, 0x4
800037d2: 1f258693     	addi	a3, a1, 0x1f2
800037d6: 4585         	li	a1, 0x1
800037d8: ffffd097     	auipc	ra, 0xffffd
800037dc: b1c080e7     	jalr	-0x4e4(ra) <core::ptr::write_bytes::precondition_check::hb7be6038ea2643e9>
800037e0: 6502         	ld	a0, 0x0(sp)
800037e2: 65a2         	ld	a1, 0x8(sp)
800037e4: 6642         	ld	a2, 0x10(sp)
800037e6: 00002097     	auipc	ra, 0x2
800037ea: 7aa080e7     	jalr	0x7aa(ra) <memset>
800037ee: 70ae         	ld	ra, 0xe8(sp)
800037f0: 616d         	addi	sp, sp, 0xf0
800037f2: 8082         	ret

00000000800037f4 <.Lpcrel_hi357>:
800037f4: 00004517     	auipc	a0, 0x4
800037f8: ebc50513     	addi	a0, a0, -0x144
800037fc: 00002097     	auipc	ra, 0x2
80003800: 57a080e7     	jalr	0x57a(ra) <core::panicking::panic_const::panic_const_mul_overflow::h67897feae7531d51>

0000000080003804 <lab4_kernel_task2::user_leaf_flags_for_vma::h641c721235c63b59>:
80003804: 1101         	addi	sp, sp, -0x20
80003806: e42a         	sd	a0, 0x8(sp)
80003808: ec2a         	sd	a0, 0x18(sp)
8000380a: 05000593     	li	a1, 0x50
8000380e: e82e         	sd	a1, 0x10(sp)
80003810: 8905         	andi	a0, a0, 0x1
80003812: e511         	bnez	a0, 0x8000381e <lab4_kernel_task2::user_leaf_flags_for_vma::h641c721235c63b59+0x1a>
80003814: a009         	j	0x80003816 <lab4_kernel_task2::user_leaf_flags_for_vma::h641c721235c63b59+0x12>
80003816: 6522         	ld	a0, 0x8(sp)
80003818: 8909         	andi	a0, a0, 0x2
8000381a: e911         	bnez	a0, 0x8000382e <lab4_kernel_task2::user_leaf_flags_for_vma::h641c721235c63b59+0x2a>
8000381c: a031         	j	0x80003828 <lab4_kernel_task2::user_leaf_flags_for_vma::h641c721235c63b59+0x24>
8000381e: 6542         	ld	a0, 0x10(sp)
80003820: 00256513     	ori	a0, a0, 0x2
80003824: e82a         	sd	a0, 0x10(sp)
80003826: bfc5         	j	0x80003816 <lab4_kernel_task2::user_leaf_flags_for_vma::h641c721235c63b59+0x12>
80003828: 6542         	ld	a0, 0x10(sp)
8000382a: 6105         	addi	sp, sp, 0x20
8000382c: 8082         	ret
8000382e: 6542         	ld	a0, 0x10(sp)
80003830: 08456513     	ori	a0, a0, 0x84
80003834: e82a         	sd	a0, 0x10(sp)
80003836: bfcd         	j	0x80003828 <lab4_kernel_task2::user_leaf_flags_for_vma::h641c721235c63b59+0x24>

0000000080003838 <lab4_kernel_task2::supervisor_trap_stack_top::ha0d3fe225e224844>:
80003838: 00026517     	auipc	a0, 0x26
8000383c: 8b850513     	addi	a0, a0, -0x748
80003840: 8082         	ret

0000000080003842 <lab4_kernel_task2::delegate_user_exceptions_to_supervisor::h0fe8ace8eaee3467>:
80003842: 6529         	lui	a0, 0xa
80003844: 10050513     	addi	a0, a0, 0x100
80003848: 30251073     	csrw	medeleg, a0
8000384c: 8082         	ret

000000008000384e <lab4_kernel_task2::Vma::empty::h3575bb5b8333b9e1>:
8000384e: 85aa         	mv	a1, a0
80003850: 4501         	li	a0, 0x0
80003852: 02a58823     	sb	a0, 0x30(a1)
80003856: e188         	sd	a0, 0x0(a1)
80003858: e588         	sd	a0, 0x8(a1)
8000385a: e988         	sd	a0, 0x10(a1)
8000385c: ed88         	sd	a0, 0x18(a1)
8000385e: f188         	sd	a0, 0x20(a1)
80003860: f588         	sd	a0, 0x28(a1)
80003862: 8082         	ret

0000000080003864 <lab4_kernel_task2::Page::zeroed::hb7290a9569289a13>:
80003864: 7141         	addi	sp, sp, -0x1f0
80003866: f786         	sd	ra, 0x1e8(sp)
80003868: 80010113     	addi	sp, sp, -0x800
8000386c: 9c010113     	addi	sp, sp, -0x640
80003870: f02a         	sd	a0, 0x20(sp)
80003872: 1028         	addi	a0, sp, 0x28
80003874: e82a         	sd	a0, 0x10(sp)
80003876: 4581         	li	a1, 0x0
80003878: 6605         	lui	a2, 0x1
8000387a: ec32         	sd	a2, 0x18(sp)
8000387c: 00002097     	auipc	ra, 0x2
80003880: 714080e7     	jalr	0x714(ra) <memset>
80003884: 65c2         	ld	a1, 0x10(sp)
80003886: 6662         	ld	a2, 0x18(sp)
80003888: 7502         	ld	a0, 0x20(sp)
8000388a: 00002097     	auipc	ra, 0x2
8000388e: 77c080e7     	jalr	0x77c(ra) <memcpy>
80003892: 7f010113     	addi	sp, sp, 0x7f0
80003896: 65010113     	addi	sp, sp, 0x650
8000389a: 70be         	ld	ra, 0x1e8(sp)
8000389c: 617d         	addi	sp, sp, 0x1f0
8000389e: 8082         	ret

00000000800038a0 <lab4_kernel_task2::yes_no::hc8170aa674339849>:
800038a0: 1101         	addi	sp, sp, -0x20
800038a2: 00a10fa3     	sb	a0, 0x1f(sp)
800038a6: e911         	bnez	a0, 0x800038ba <.Lpcrel_hi360>
800038a8: a009         	j	0x800038aa <.Lpcrel_hi359>

00000000800038aa <.Lpcrel_hi359>:
800038aa: 00004517     	auipc	a0, 0x4
800038ae: e1e50513     	addi	a0, a0, -0x1e2
800038b2: e42a         	sd	a0, 0x8(sp)
800038b4: 4509         	li	a0, 0x2
800038b6: e82a         	sd	a0, 0x10(sp)
800038b8: a809         	j	0x800038ca <.Lpcrel_hi360+0x10>

00000000800038ba <.Lpcrel_hi360>:
800038ba: 00004517     	auipc	a0, 0x4
800038be: e1050513     	addi	a0, a0, -0x1f0
800038c2: e42a         	sd	a0, 0x8(sp)
800038c4: 450d         	li	a0, 0x3
800038c6: e82a         	sd	a0, 0x10(sp)
800038c8: a009         	j	0x800038ca <.Lpcrel_hi360+0x10>
800038ca: 6522         	ld	a0, 0x8(sp)
800038cc: 65c2         	ld	a1, 0x10(sp)
800038ce: 6105         	addi	sp, sp, 0x20
800038d0: 8082         	ret

00000000800038d2 <lab4_kernel_task2::align_up::h4ce3dab9da091031>:
800038d2: 7179         	addi	sp, sp, -0x30
800038d4: e82e         	sd	a1, 0x10(sp)
800038d6: 85aa         	mv	a1, a0
800038d8: 6542         	ld	a0, 0x10(sp)
800038da: f02e         	sd	a1, 0x20(sp)
800038dc: f42a         	sd	a0, 0x28(sp)
800038de: 952e         	add	a0, a0, a1
800038e0: ec2a         	sd	a0, 0x18(sp)
800038e2: 00b56963     	bltu	a0, a1, 0x800038f4 <.Lpcrel_hi361>
800038e6: a009         	j	0x800038e8 <lab4_kernel_task2::align_up::h4ce3dab9da091031+0x16>
800038e8: 6562         	ld	a0, 0x18(sp)
800038ea: fff50593     	addi	a1, a0, -0x1
800038ee: e42e         	sd	a1, 0x8(sp)
800038f0: c105         	beqz	a0, 0x80003910 <.Lpcrel_hi362>
800038f2: a809         	j	0x80003904 <.Lpcrel_hi361+0x10>

00000000800038f4 <.Lpcrel_hi361>:
800038f4: 00004517     	auipc	a0, 0x4
800038f8: ddc50513     	addi	a0, a0, -0x224
800038fc: 00002097     	auipc	ra, 0x2
80003900: 45c080e7     	jalr	0x45c(ra) <core::panicking::panic_const::panic_const_add_overflow::h67cba067093910f8>
80003904: 6542         	ld	a0, 0x10(sp)
80003906: fff50593     	addi	a1, a0, -0x1
8000390a: e02e         	sd	a1, 0x0(sp)
8000390c: c10d         	beqz	a0, 0x8000392e <.Lpcrel_hi363>
8000390e: a809         	j	0x80003920 <.Lpcrel_hi362+0x10>

0000000080003910 <.Lpcrel_hi362>:
80003910: 00004517     	auipc	a0, 0x4
80003914: dd850513     	addi	a0, a0, -0x228
80003918: 00002097     	auipc	ra, 0x2
8000391c: 47c080e7     	jalr	0x47c(ra) <core::panicking::panic_const::panic_const_sub_overflow::hccc965ba9198de7c>
80003920: 6522         	ld	a0, 0x8(sp)
80003922: 6582         	ld	a1, 0x0(sp)
80003924: fff5c593     	not	a1, a1
80003928: 8d6d         	and	a0, a0, a1
8000392a: 6145         	addi	sp, sp, 0x30
8000392c: 8082         	ret

000000008000392e <.Lpcrel_hi363>:
8000392e: 00004517     	auipc	a0, 0x4
80003932: dd250513     	addi	a0, a0, -0x22e
80003936: 00002097     	auipc	ra, 0x2
8000393a: 45e080e7     	jalr	0x45e(ra) <core::panicking::panic_const::panic_const_sub_overflow::hccc965ba9198de7c>

000000008000393e <lab4_kernel_task2::leaf_pte::h913c485e3c294b41>:
8000393e: 1141         	addi	sp, sp, -0x10
80003940: e02a         	sd	a0, 0x0(sp)
80003942: e42e         	sd	a1, 0x8(sp)
80003944: 8131         	srli	a0, a0, 0xc
80003946: 052a         	slli	a0, a0, 0xa
80003948: 8d4d         	or	a0, a0, a1
8000394a: 00156513     	ori	a0, a0, 0x1
8000394e: 0141         	addi	sp, sp, 0x10
80003950: 8082         	ret

0000000080003952 <lab4_kernel_task2::sys_mmap::he18d0d994d89c942>:
80003952: 7125         	addi	sp, sp, -0x1a0
80003954: ef06         	sd	ra, 0x198(sp)
80003956: eaaa         	sd	a0, 0x150(sp)
80003958: 6585         	lui	a1, 0x1
8000395a: 00000097     	auipc	ra, 0x0
8000395e: f78080e7     	jalr	-0x88(ra) <lab4_kernel_task2::align_up::h4ce3dab9da091031>
80003962: f02a         	sd	a0, 0x20(sp)

0000000080003964 <.Lpcrel_hi364>:
80003964: 00005517     	auipc	a0, 0x5
80003968: 94450513     	addi	a0, a0, -0x6bc
8000396c: cd0d         	beqz	a0, 0x800039a6 <.Lpcrel_hi367>
8000396e: a009         	j	0x80003970 <.Lpcrel_hi365>

0000000080003970 <.Lpcrel_hi365>:
80003970: 00005517     	auipc	a0, 0x5
80003974: 93850513     	addi	a0, a0, -0x6c8
80003978: 6108         	ld	a0, 0x0(a0)
8000397a: ec2a         	sd	a0, 0x18(sp)
8000397c: 6562         	ld	a0, 0x18(sp)
8000397e: 7582         	ld	a1, 0x20(sp)
80003980: ffffc097     	auipc	ra, 0xffffc
80003984: 692080e7     	jalr	0x692(ra) <core::num::_$LT$impl$u20$usize$GT$::checked_add::h3b228a4726cac0bc>

0000000080003988 <.Lpcrel_hi366>:
80003988: 00004617     	auipc	a2, 0x4
8000398c: da860613     	addi	a2, a2, -0x258
80003990: ffffd097     	auipc	ra, 0xffffd
80003994: c56080e7     	jalr	-0x3aa(ra) <core::option::Option$LT$T$GT$::unwrap_or_else::he1e449ffb3f65818>
80003998: f42a         	sd	a0, 0x28(sp)
8000399a: 75a2         	ld	a1, 0x28(sp)
8000399c: 00440537     	lui	a0, 0x440
800039a0: 02b56163     	bltu	a0, a1, 0x800039c2 <.Lpcrel_hi369>
800039a4: a809         	j	0x800039b6 <.Lpcrel_hi368>

00000000800039a6 <.Lpcrel_hi367>:
800039a6: 00004517     	auipc	a0, 0x4
800039aa: d7250513     	addi	a0, a0, -0x28e
800039ae: 00002097     	auipc	ra, 0x2
800039b2: 48e080e7     	jalr	0x48e(ra) <core::panicking::panic_null_pointer_dereference::hbac6411af4f2e916>

00000000800039b6 <.Lpcrel_hi368>:
800039b6: 00005517     	auipc	a0, 0x5
800039ba: 8f250513     	addi	a0, a0, -0x70e
800039be: e919         	bnez	a0, 0x800039d4 <.Lpcrel_hi369+0x12>
800039c0: a035         	j	0x800039ec <.Lpcrel_hi372>

00000000800039c2 <.Lpcrel_hi369>:
800039c2: 00004517     	auipc	a0, 0x4
800039c6: e6f50513     	addi	a0, a0, -0x191
800039ca: 45f9         	li	a1, 0x1e
800039cc: ffffe097     	auipc	ra, 0xffffe
800039d0: 8ce080e7     	jalr	-0x732(ra) <lab4_kernel_task2::kernel_fail::h81ee1edb0feee17d>
800039d4: 7522         	ld	a0, 0x28(sp)

00000000800039d6 <.Lpcrel_hi370>:
800039d6: 00005597     	auipc	a1, 0x5
800039da: 8d258593     	addi	a1, a1, -0x72e
800039de: e188         	sd	a0, 0x0(a1)

00000000800039e0 <.Lpcrel_hi371>:
800039e0: 00005517     	auipc	a0, 0x5
800039e4: 62050513     	addi	a0, a0, 0x620
800039e8: e911         	bnez	a0, 0x800039fc <.Lpcrel_hi373>
800039ea: a025         	j	0x80003a12 <.Lpcrel_hi374>

00000000800039ec <.Lpcrel_hi372>:
800039ec: 00004517     	auipc	a0, 0x4
800039f0: d5c50513     	addi	a0, a0, -0x2a4
800039f4: 00002097     	auipc	ra, 0x2
800039f8: 448080e7     	jalr	0x448(ra) <core::panicking::panic_null_pointer_dereference::hbac6411af4f2e916>

00000000800039fc <.Lpcrel_hi373>:
800039fc: 00005517     	auipc	a0, 0x5
80003a00: 60450513     	addi	a0, a0, 0x604
80003a04: 610c         	ld	a1, 0x0(a0)
80003a06: 00158513     	addi	a0, a1, 0x1
80003a0a: e82a         	sd	a0, 0x10(sp)
80003a0c: 02b56163     	bltu	a0, a1, 0x80003a2e <.Lpcrel_hi376>
80003a10: a809         	j	0x80003a22 <.Lpcrel_hi375>

0000000080003a12 <.Lpcrel_hi374>:
80003a12: 00004517     	auipc	a0, 0x4
80003a16: d4e50513     	addi	a0, a0, -0x2b2
80003a1a: 00002097     	auipc	ra, 0x2
80003a1e: 422080e7     	jalr	0x422(ra) <core::panicking::panic_null_pointer_dereference::hbac6411af4f2e916>

0000000080003a22 <.Lpcrel_hi375>:
80003a22: 00005517     	auipc	a0, 0x5
80003a26: 5de50513     	addi	a0, a0, 0x5de
80003a2a: e911         	bnez	a0, 0x80003a3e <.Lpcrel_hi376+0x10>
80003a2c: a00d         	j	0x80003a4e <.Lpcrel_hi378>

0000000080003a2e <.Lpcrel_hi376>:
80003a2e: 00004517     	auipc	a0, 0x4
80003a32: d3250513     	addi	a0, a0, -0x2ce
80003a36: 00002097     	auipc	ra, 0x2
80003a3a: 322080e7     	jalr	0x322(ra) <core::panicking::panic_const::panic_const_add_overflow::h67cba067093910f8>
80003a3e: 65c2         	ld	a1, 0x10(sp)

0000000080003a40 <.Lpcrel_hi377>:
80003a40: 00005517     	auipc	a0, 0x5
80003a44: 5c050513     	addi	a0, a0, 0x5c0
80003a48: e10c         	sd	a1, 0x0(a0)
80003a4a: e911         	bnez	a0, 0x80003a5e <.Lpcrel_hi379>
80003a4c: a025         	j	0x80003a74 <.Lpcrel_hi380>

0000000080003a4e <.Lpcrel_hi378>:
80003a4e: 00004517     	auipc	a0, 0x4
80003a52: d1250513     	addi	a0, a0, -0x2ee
80003a56: 00002097     	auipc	ra, 0x2
80003a5a: 3e6080e7     	jalr	0x3e6(ra) <core::panicking::panic_null_pointer_dereference::hbac6411af4f2e916>

0000000080003a5e <.Lpcrel_hi379>:
80003a5e: 00005517     	auipc	a0, 0x5
80003a62: 5a250513     	addi	a0, a0, 0x5a2
80003a66: 690c         	ld	a1, 0x10(a0)
80003a68: 00158513     	addi	a0, a1, 0x1
80003a6c: e42a         	sd	a0, 0x8(sp)
80003a6e: 02b56163     	bltu	a0, a1, 0x80003a90 <.Lpcrel_hi382>
80003a72: a809         	j	0x80003a84 <.Lpcrel_hi381>

0000000080003a74 <.Lpcrel_hi380>:
80003a74: 00004517     	auipc	a0, 0x4
80003a78: d0450513     	addi	a0, a0, -0x2fc
80003a7c: 00002097     	auipc	ra, 0x2
80003a80: 3c0080e7     	jalr	0x3c0(ra) <core::panicking::panic_null_pointer_dereference::hbac6411af4f2e916>

0000000080003a84 <.Lpcrel_hi381>:
80003a84: 00005517     	auipc	a0, 0x5
80003a88: 57c50513     	addi	a0, a0, 0x57c
80003a8c: e911         	bnez	a0, 0x80003aa0 <.Lpcrel_hi382+0x10>
80003a8e: a889         	j	0x80003ae0 <.Lpcrel_hi385>

0000000080003a90 <.Lpcrel_hi382>:
80003a90: 00004517     	auipc	a0, 0x4
80003a94: ce850513     	addi	a0, a0, -0x318
80003a98: 00002097     	auipc	ra, 0x2
80003a9c: 2c0080e7     	jalr	0x2c0(ra) <core::panicking::panic_const::panic_const_add_overflow::h67cba067093910f8>
80003aa0: 6522         	ld	a0, 0x8(sp)

0000000080003aa2 <.Lpcrel_hi383>:
80003aa2: 00005597     	auipc	a1, 0x5
80003aa6: 55e58593     	addi	a1, a1, 0x55e
80003aaa: e988         	sd	a0, 0x10(a1)
80003aac: 6562         	ld	a0, 0x18(sp)
80003aae: 75a2         	ld	a1, 0x28(sp)
80003ab0: 460d         	li	a2, 0x3
80003ab2: 4689         	li	a3, 0x2
80003ab4: ffffd097     	auipc	ra, 0xffffd
80003ab8: 100080e7     	jalr	0x100(ra) <lab4_kernel_task2::insert_vma::h8dc2d962862ec90e>
80003abc: 65e2         	ld	a1, 0x18(sp)
80003abe: 1808         	addi	a0, sp, 0x30
80003ac0: ffffe097     	auipc	ra, 0xffffe
80003ac4: 8c2080e7     	jalr	-0x73e(ra) <lab4_kernel_task2::walk_virtual::haeedce58dbcc1375>
80003ac8: 7526         	ld	a0, 0x68(sp)
80003aca: ffffe097     	auipc	ra, 0xffffe
80003ace: 8ae080e7     	jalr	-0x752(ra) <lab4_kernel_task2::pte_is_valid::hcf3d742da30fb2ce>
80003ad2: e02a         	sd	a0, 0x0(sp)

0000000080003ad4 <.Lpcrel_hi384>:
80003ad4: 00005517     	auipc	a0, 0x5
80003ad8: 66c50513     	addi	a0, a0, 0x66c
80003adc: e911         	bnez	a0, 0x80003af0 <.Lpcrel_hi385+0x10>
80003ade: a80d         	j	0x80003b10 <.Lpcrel_hi388>

0000000080003ae0 <.Lpcrel_hi385>:
80003ae0: 00004517     	auipc	a0, 0x4
80003ae4: c9850513     	addi	a0, a0, -0x368
80003ae8: 00002097     	auipc	ra, 0x2
80003aec: 354080e7     	jalr	0x354(ra) <core::panicking::panic_null_pointer_dereference::hbac6411af4f2e916>
80003af0: 6502         	ld	a0, 0x0(sp)
80003af2: fff54513     	not	a0, a0
80003af6: 8905         	andi	a0, a0, 0x1

0000000080003af8 <.Lpcrel_hi386>:
80003af8: 00005597     	auipc	a1, 0x5
80003afc: 64858593     	addi	a1, a1, 0x648
80003b00: 00a588a3     	sb	a0, 0x11(a1)

0000000080003b04 <.Lpcrel_hi387>:
80003b04: 00005517     	auipc	a0, 0x5
80003b08: 4fc50513     	addi	a0, a0, 0x4fc
80003b0c: e911         	bnez	a0, 0x80003b20 <.Lpcrel_hi389>
80003b0e: aa01         	j	0x80003c1e <.Lpcrel_hi392>

0000000080003b10 <.Lpcrel_hi388>:
80003b10: 00004517     	auipc	a0, 0x4
80003b14: c8050513     	addi	a0, a0, -0x380
80003b18: 00002097     	auipc	ra, 0x2
80003b1c: 324080e7     	jalr	0x324(ra) <core::panicking::panic_null_pointer_dereference::hbac6411af4f2e916>

0000000080003b20 <.Lpcrel_hi389>:
80003b20: 00005517     	auipc	a0, 0x5
80003b24: 4e050513     	addi	a0, a0, 0x4e0
80003b28: 7908         	ld	a0, 0x30(a0)
80003b2a: ed2a         	sd	a0, 0x98(sp)
80003b2c: 7526         	ld	a0, 0x68(sp)
80003b2e: ffffe097     	auipc	ra, 0xffffe
80003b32: 84a080e7     	jalr	-0x7b6(ra) <lab4_kernel_task2::pte_is_valid::hcf3d742da30fb2ce>
80003b36: 00154513     	xori	a0, a0, 0x1
80003b3a: 00000097     	auipc	ra, 0x0
80003b3e: 474080e7     	jalr	0x474(ra) <lab4_kernel_task2::pass_fail::h3905961ffd4ff8f2>
80003b42: f12a         	sd	a0, 0xa0(sp)
80003b44: f52e         	sd	a1, 0xa8(sp)
80003b46: 1008         	addi	a0, sp, 0x20
80003b48: f8aa         	sd	a0, 0x70(sp)
80003b4a: 0828         	addi	a0, sp, 0x18
80003b4c: fcaa         	sd	a0, 0x78(sp)
80003b4e: 1028         	addi	a0, sp, 0x28
80003b50: e12a         	sd	a0, 0x80(sp)
80003b52: 0928         	addi	a0, sp, 0x98
80003b54: e52a         	sd	a0, 0x88(sp)
80003b56: 1108         	addi	a0, sp, 0xa0
80003b58: e92a         	sd	a0, 0x90(sp)
80003b5a: 75c6         	ld	a1, 0x70(sp)
80003b5c: 0208         	addi	a0, sp, 0x100
80003b5e: 00001097     	auipc	ra, 0x1
80003b62: d30080e7     	jalr	-0x2d0(ra) <core::fmt::rt::Argument::new_display::h9aa9b8b69faee6ac>
80003b66: 75e6         	ld	a1, 0x78(sp)
80003b68: 0a08         	addi	a0, sp, 0x110
80003b6a: 00001097     	auipc	ra, 0x1
80003b6e: dac080e7     	jalr	-0x254(ra) <core::fmt::rt::Argument::new_lower_hex::ha3dbd086c79e0875>
80003b72: 658a         	ld	a1, 0x80(sp)
80003b74: 1208         	addi	a0, sp, 0x120
80003b76: 00001097     	auipc	ra, 0x1
80003b7a: da0080e7     	jalr	-0x260(ra) <core::fmt::rt::Argument::new_lower_hex::ha3dbd086c79e0875>
80003b7e: 65aa         	ld	a1, 0x88(sp)
80003b80: 1a08         	addi	a0, sp, 0x130
80003b82: 00001097     	auipc	ra, 0x1
80003b86: d0c080e7     	jalr	-0x2f4(ra) <core::fmt::rt::Argument::new_display::h9aa9b8b69faee6ac>
80003b8a: 65ca         	ld	a1, 0x90(sp)
80003b8c: 0288         	addi	a0, sp, 0x140
80003b8e: 00001097     	auipc	ra, 0x1
80003b92: d22080e7     	jalr	-0x2de(ra) <core::fmt::rt::Argument::new_display::ha3bba816af074122>
80003b96: 6532         	ld	a0, 0x108(sp)
80003b98: fd2a         	sd	a0, 0xb8(sp)
80003b9a: 6512         	ld	a0, 0x100(sp)
80003b9c: f92a         	sd	a0, 0xb0(sp)
80003b9e: 6572         	ld	a0, 0x118(sp)
80003ba0: e5aa         	sd	a0, 0xc8(sp)
80003ba2: 6552         	ld	a0, 0x110(sp)
80003ba4: e1aa         	sd	a0, 0xc0(sp)
80003ba6: 7532         	ld	a0, 0x128(sp)
80003ba8: edaa         	sd	a0, 0xd8(sp)
80003baa: 7512         	ld	a0, 0x120(sp)
80003bac: e9aa         	sd	a0, 0xd0(sp)
80003bae: 7572         	ld	a0, 0x138(sp)
80003bb0: f5aa         	sd	a0, 0xe8(sp)
80003bb2: 7552         	ld	a0, 0x130(sp)
80003bb4: f1aa         	sd	a0, 0xe0(sp)
80003bb6: 6536         	ld	a0, 0x148(sp)
80003bb8: fdaa         	sd	a0, 0xf8(sp)
80003bba: 6516         	ld	a0, 0x140(sp)
80003bbc: f9aa         	sd	a0, 0xf0(sp)

0000000080003bbe <.Lpcrel_hi390>:
80003bbe: 00004517     	auipc	a0, 0x4
80003bc2: c0250513     	addi	a0, a0, -0x3fe
80003bc6: 190c         	addi	a1, sp, 0xb0
80003bc8: ffffc097     	auipc	ra, 0xffffc
80003bcc: 640080e7     	jalr	0x640(ra) <core::fmt::Arguments::new::h1bb320816467ef92>
80003bd0: ffffc097     	auipc	ra, 0xffffc
80003bd4: 570080e7     	jalr	0x570(ra) <lab4_kernel_task2::console::print::h7473f0160e01bbb6>
80003bd8: 6662         	ld	a2, 0x18(sp)
80003bda: 7526         	ld	a0, 0x68(sp)
80003bdc: eb2a         	sd	a0, 0x190(sp)
80003bde: 7506         	ld	a0, 0x60(sp)
80003be0: e72a         	sd	a0, 0x188(sp)
80003be2: 6566         	ld	a0, 0x58(sp)
80003be4: e32a         	sd	a0, 0x180(sp)
80003be6: 6546         	ld	a0, 0x50(sp)
80003be8: feaa         	sd	a0, 0x178(sp)
80003bea: 6526         	ld	a0, 0x48(sp)
80003bec: faaa         	sd	a0, 0x170(sp)
80003bee: 6506         	ld	a0, 0x40(sp)
80003bf0: f6aa         	sd	a0, 0x168(sp)
80003bf2: 7562         	ld	a0, 0x38(sp)
80003bf4: f2aa         	sd	a0, 0x160(sp)
80003bf6: 7542         	ld	a0, 0x30(sp)
80003bf8: eeaa         	sd	a0, 0x158(sp)

0000000080003bfa <.Lpcrel_hi391>:
80003bfa: 00004517     	auipc	a0, 0x4
80003bfe: c2a50513     	addi	a0, a0, -0x3d6
80003c02: 45b5         	li	a1, 0xd
80003c04: 0ab4         	addi	a3, sp, 0x158
80003c06: ffffd097     	auipc	ra, 0xffffd
80003c0a: 284080e7     	jalr	0x284(ra) <lab4_kernel_task2::print_walk::hba181e23c4f2f5d4>
80003c0e: ffffd097     	auipc	ra, 0xffffd
80003c12: 0ea080e7     	jalr	0xea(ra) <lab4_kernel_task2::print_vmas::hd16bf6c74a53f911>
80003c16: 6562         	ld	a0, 0x18(sp)
80003c18: 60fa         	ld	ra, 0x198(sp)
80003c1a: 611d         	addi	sp, sp, 0x1a0
80003c1c: 8082         	ret

0000000080003c1e <.Lpcrel_hi392>:
80003c1e: 00004517     	auipc	a0, 0x4
80003c22: b8a50513     	addi	a0, a0, -0x476
80003c26: 00002097     	auipc	ra, 0x2
80003c2a: 216080e7     	jalr	0x216(ra) <core::panicking::panic_null_pointer_dereference::hbac6411af4f2e916>

0000000080003c2e <lab4_kernel_task2::sys_sbrk::hb3c9d0ca94496302>:
80003c2e: 7125         	addi	sp, sp, -0x1a0
80003c30: ef06         	sd	ra, 0x198(sp)
80003c32: eaaa         	sd	a0, 0x150(sp)
80003c34: 6585         	lui	a1, 0x1
80003c36: 00000097     	auipc	ra, 0x0
80003c3a: c9c080e7     	jalr	-0x364(ra) <lab4_kernel_task2::align_up::h4ce3dab9da091031>
80003c3e: f02a         	sd	a0, 0x20(sp)

0000000080003c40 <.Lpcrel_hi393>:
80003c40: 00004517     	auipc	a0, 0x4
80003c44: 66050513     	addi	a0, a0, 0x660
80003c48: cd0d         	beqz	a0, 0x80003c82 <.Lpcrel_hi396>
80003c4a: a009         	j	0x80003c4c <.Lpcrel_hi394>

0000000080003c4c <.Lpcrel_hi394>:
80003c4c: 00004517     	auipc	a0, 0x4
80003c50: 65450513     	addi	a0, a0, 0x654
80003c54: 6108         	ld	a0, 0x0(a0)
80003c56: ec2a         	sd	a0, 0x18(sp)
80003c58: 6562         	ld	a0, 0x18(sp)
80003c5a: 7582         	ld	a1, 0x20(sp)
80003c5c: ffffc097     	auipc	ra, 0xffffc
80003c60: 3b6080e7     	jalr	0x3b6(ra) <core::num::_$LT$impl$u20$usize$GT$::checked_add::h3b228a4726cac0bc>

0000000080003c64 <.Lpcrel_hi395>:
80003c64: 00004617     	auipc	a2, 0x4
80003c68: c0460613     	addi	a2, a2, -0x3fc
80003c6c: ffffd097     	auipc	ra, 0xffffd
80003c70: 950080e7     	jalr	-0x6b0(ra) <core::option::Option$LT$T$GT$::unwrap_or_else::ha9ec34859a4ac7b5>
80003c74: f42a         	sd	a0, 0x28(sp)
80003c76: 75a2         	ld	a1, 0x28(sp)
80003c78: 00420537     	lui	a0, 0x420
80003c7c: 02b56163     	bltu	a0, a1, 0x80003c9e <.Lpcrel_hi398>
80003c80: a809         	j	0x80003c92 <.Lpcrel_hi397>

0000000080003c82 <.Lpcrel_hi396>:
80003c82: 00004517     	auipc	a0, 0x4
80003c86: bce50513     	addi	a0, a0, -0x432
80003c8a: 00002097     	auipc	ra, 0x2
80003c8e: 1b2080e7     	jalr	0x1b2(ra) <core::panicking::panic_null_pointer_dereference::hbac6411af4f2e916>

0000000080003c92 <.Lpcrel_hi397>:
80003c92: 00004517     	auipc	a0, 0x4
80003c96: 60e50513     	addi	a0, a0, 0x60e
80003c9a: e919         	bnez	a0, 0x80003cb0 <.Lpcrel_hi398+0x12>
80003c9c: a035         	j	0x80003cc8 <.Lpcrel_hi401>

0000000080003c9e <.Lpcrel_hi398>:
80003c9e: 00004517     	auipc	a0, 0x4
80003ca2: cd150513     	addi	a0, a0, -0x32f
80003ca6: 45f9         	li	a1, 0x1e
80003ca8: ffffd097     	auipc	ra, 0xffffd
80003cac: 5f2080e7     	jalr	0x5f2(ra) <lab4_kernel_task2::kernel_fail::h81ee1edb0feee17d>
80003cb0: 7522         	ld	a0, 0x28(sp)

0000000080003cb2 <.Lpcrel_hi399>:
80003cb2: 00004597     	auipc	a1, 0x4
80003cb6: 5ee58593     	addi	a1, a1, 0x5ee
80003cba: e188         	sd	a0, 0x0(a1)

0000000080003cbc <.Lpcrel_hi400>:
80003cbc: 00005517     	auipc	a0, 0x5
80003cc0: 34450513     	addi	a0, a0, 0x344
80003cc4: e911         	bnez	a0, 0x80003cd8 <.Lpcrel_hi402>
80003cc6: a025         	j	0x80003cee <.Lpcrel_hi403>

0000000080003cc8 <.Lpcrel_hi401>:
80003cc8: 00004517     	auipc	a0, 0x4
80003ccc: bb850513     	addi	a0, a0, -0x448
80003cd0: 00002097     	auipc	ra, 0x2
80003cd4: 16c080e7     	jalr	0x16c(ra) <core::panicking::panic_null_pointer_dereference::hbac6411af4f2e916>

0000000080003cd8 <.Lpcrel_hi402>:
80003cd8: 00005517     	auipc	a0, 0x5
80003cdc: 32850513     	addi	a0, a0, 0x328
80003ce0: 610c         	ld	a1, 0x0(a0)
80003ce2: 00158513     	addi	a0, a1, 0x1
80003ce6: e82a         	sd	a0, 0x10(sp)
80003ce8: 02b56163     	bltu	a0, a1, 0x80003d0a <.Lpcrel_hi405>
80003cec: a809         	j	0x80003cfe <.Lpcrel_hi404>

0000000080003cee <.Lpcrel_hi403>:
80003cee: 00004517     	auipc	a0, 0x4
80003cf2: baa50513     	addi	a0, a0, -0x456
80003cf6: 00002097     	auipc	ra, 0x2
80003cfa: 146080e7     	jalr	0x146(ra) <core::panicking::panic_null_pointer_dereference::hbac6411af4f2e916>

0000000080003cfe <.Lpcrel_hi404>:
80003cfe: 00005517     	auipc	a0, 0x5
80003d02: 30250513     	addi	a0, a0, 0x302
80003d06: e911         	bnez	a0, 0x80003d1a <.Lpcrel_hi405+0x10>
80003d08: a00d         	j	0x80003d2a <.Lpcrel_hi407>

0000000080003d0a <.Lpcrel_hi405>:
80003d0a: 00004517     	auipc	a0, 0x4
80003d0e: b8e50513     	addi	a0, a0, -0x472
80003d12: 00002097     	auipc	ra, 0x2
80003d16: 046080e7     	jalr	0x46(ra) <core::panicking::panic_const::panic_const_add_overflow::h67cba067093910f8>
80003d1a: 65c2         	ld	a1, 0x10(sp)

0000000080003d1c <.Lpcrel_hi406>:
80003d1c: 00005517     	auipc	a0, 0x5
80003d20: 2e450513     	addi	a0, a0, 0x2e4
80003d24: e10c         	sd	a1, 0x0(a0)
80003d26: e911         	bnez	a0, 0x80003d3a <.Lpcrel_hi408>
80003d28: a025         	j	0x80003d50 <.Lpcrel_hi409>

0000000080003d2a <.Lpcrel_hi407>:
80003d2a: 00004517     	auipc	a0, 0x4
80003d2e: b6e50513     	addi	a0, a0, -0x492
80003d32: 00002097     	auipc	ra, 0x2
80003d36: 10a080e7     	jalr	0x10a(ra) <core::panicking::panic_null_pointer_dereference::hbac6411af4f2e916>

0000000080003d3a <.Lpcrel_hi408>:
80003d3a: 00005517     	auipc	a0, 0x5
80003d3e: 2c650513     	addi	a0, a0, 0x2c6
80003d42: 650c         	ld	a1, 0x8(a0)
80003d44: 00158513     	addi	a0, a1, 0x1
80003d48: e42a         	sd	a0, 0x8(sp)
80003d4a: 02b56163     	bltu	a0, a1, 0x80003d6c <.Lpcrel_hi411>
80003d4e: a809         	j	0x80003d60 <.Lpcrel_hi410>

0000000080003d50 <.Lpcrel_hi409>:
80003d50: 00004517     	auipc	a0, 0x4
80003d54: b6050513     	addi	a0, a0, -0x4a0
80003d58: 00002097     	auipc	ra, 0x2
80003d5c: 0e4080e7     	jalr	0xe4(ra) <core::panicking::panic_null_pointer_dereference::hbac6411af4f2e916>

0000000080003d60 <.Lpcrel_hi410>:
80003d60: 00005517     	auipc	a0, 0x5
80003d64: 2a050513     	addi	a0, a0, 0x2a0
80003d68: e911         	bnez	a0, 0x80003d7c <.Lpcrel_hi411+0x10>
80003d6a: a891         	j	0x80003dbe <.Lpcrel_hi414>

0000000080003d6c <.Lpcrel_hi411>:
80003d6c: 00004517     	auipc	a0, 0x4
80003d70: b4450513     	addi	a0, a0, -0x4bc
80003d74: 00002097     	auipc	ra, 0x2
80003d78: fe4080e7     	jalr	-0x1c(ra) <core::panicking::panic_const::panic_const_add_overflow::h67cba067093910f8>
80003d7c: 6522         	ld	a0, 0x8(sp)

0000000080003d7e <.Lpcrel_hi412>:
80003d7e: 00005597     	auipc	a1, 0x5
80003d82: 28258593     	addi	a1, a1, 0x282
80003d86: e588         	sd	a0, 0x8(a1)
80003d88: 7622         	ld	a2, 0x28(sp)
80003d8a: 4505         	li	a0, 0x1
80003d8c: 004105b7     	lui	a1, 0x410
80003d90: 468d         	li	a3, 0x3
80003d92: ffffd097     	auipc	ra, 0xffffd
80003d96: 2ca080e7     	jalr	0x2ca(ra) <lab4_kernel_task2::upsert_vma::hb4d12f0383b0ab1d>
80003d9a: 65e2         	ld	a1, 0x18(sp)
80003d9c: 1808         	addi	a0, sp, 0x30
80003d9e: ffffd097     	auipc	ra, 0xffffd
80003da2: 5e4080e7     	jalr	0x5e4(ra) <lab4_kernel_task2::walk_virtual::haeedce58dbcc1375>
80003da6: 7526         	ld	a0, 0x68(sp)
80003da8: ffffd097     	auipc	ra, 0xffffd
80003dac: 5d0080e7     	jalr	0x5d0(ra) <lab4_kernel_task2::pte_is_valid::hcf3d742da30fb2ce>
80003db0: e02a         	sd	a0, 0x0(sp)

0000000080003db2 <.Lpcrel_hi413>:
80003db2: 00005517     	auipc	a0, 0x5
80003db6: 38e50513     	addi	a0, a0, 0x38e
80003dba: e911         	bnez	a0, 0x80003dce <.Lpcrel_hi414+0x10>
80003dbc: a80d         	j	0x80003dee <.Lpcrel_hi417>

0000000080003dbe <.Lpcrel_hi414>:
80003dbe: 00004517     	auipc	a0, 0x4
80003dc2: af250513     	addi	a0, a0, -0x50e
80003dc6: 00002097     	auipc	ra, 0x2
80003dca: 076080e7     	jalr	0x76(ra) <core::panicking::panic_null_pointer_dereference::hbac6411af4f2e916>
80003dce: 6502         	ld	a0, 0x0(sp)
80003dd0: fff54513     	not	a0, a0
80003dd4: 8905         	andi	a0, a0, 0x1

0000000080003dd6 <.Lpcrel_hi415>:
80003dd6: 00005597     	auipc	a1, 0x5
80003dda: 36a58593     	addi	a1, a1, 0x36a
80003dde: 00a58823     	sb	a0, 0x10(a1)

0000000080003de2 <.Lpcrel_hi416>:
80003de2: 00005517     	auipc	a0, 0x5
80003de6: 21e50513     	addi	a0, a0, 0x21e
80003dea: e911         	bnez	a0, 0x80003dfe <.Lpcrel_hi418>
80003dec: aa01         	j	0x80003efc <.Lpcrel_hi421>

0000000080003dee <.Lpcrel_hi417>:
80003dee: 00004517     	auipc	a0, 0x4
80003df2: ada50513     	addi	a0, a0, -0x526
80003df6: 00002097     	auipc	ra, 0x2
80003dfa: 046080e7     	jalr	0x46(ra) <core::panicking::panic_null_pointer_dereference::hbac6411af4f2e916>

0000000080003dfe <.Lpcrel_hi418>:
80003dfe: 00005517     	auipc	a0, 0x5
80003e02: 20250513     	addi	a0, a0, 0x202
80003e06: 7908         	ld	a0, 0x30(a0)
80003e08: ed2a         	sd	a0, 0x98(sp)
80003e0a: 7526         	ld	a0, 0x68(sp)
80003e0c: ffffd097     	auipc	ra, 0xffffd
80003e10: 56c080e7     	jalr	0x56c(ra) <lab4_kernel_task2::pte_is_valid::hcf3d742da30fb2ce>
80003e14: 00154513     	xori	a0, a0, 0x1
80003e18: 00000097     	auipc	ra, 0x0
80003e1c: 196080e7     	jalr	0x196(ra) <lab4_kernel_task2::pass_fail::h3905961ffd4ff8f2>
80003e20: f12a         	sd	a0, 0xa0(sp)
80003e22: f52e         	sd	a1, 0xa8(sp)
80003e24: 1008         	addi	a0, sp, 0x20
80003e26: f8aa         	sd	a0, 0x70(sp)
80003e28: 0828         	addi	a0, sp, 0x18
80003e2a: fcaa         	sd	a0, 0x78(sp)
80003e2c: 1028         	addi	a0, sp, 0x28
80003e2e: e12a         	sd	a0, 0x80(sp)
80003e30: 0928         	addi	a0, sp, 0x98
80003e32: e52a         	sd	a0, 0x88(sp)
80003e34: 1108         	addi	a0, sp, 0xa0
80003e36: e92a         	sd	a0, 0x90(sp)
80003e38: 75c6         	ld	a1, 0x70(sp)
80003e3a: 0208         	addi	a0, sp, 0x100
80003e3c: 00001097     	auipc	ra, 0x1
80003e40: a52080e7     	jalr	-0x5ae(ra) <core::fmt::rt::Argument::new_display::h9aa9b8b69faee6ac>
80003e44: 75e6         	ld	a1, 0x78(sp)
80003e46: 0a08         	addi	a0, sp, 0x110
80003e48: 00001097     	auipc	ra, 0x1
80003e4c: ace080e7     	jalr	-0x532(ra) <core::fmt::rt::Argument::new_lower_hex::ha3dbd086c79e0875>
80003e50: 658a         	ld	a1, 0x80(sp)
80003e52: 1208         	addi	a0, sp, 0x120
80003e54: 00001097     	auipc	ra, 0x1
80003e58: ac2080e7     	jalr	-0x53e(ra) <core::fmt::rt::Argument::new_lower_hex::ha3dbd086c79e0875>
80003e5c: 65aa         	ld	a1, 0x88(sp)
80003e5e: 1a08         	addi	a0, sp, 0x130
80003e60: 00001097     	auipc	ra, 0x1
80003e64: a2e080e7     	jalr	-0x5d2(ra) <core::fmt::rt::Argument::new_display::h9aa9b8b69faee6ac>
80003e68: 65ca         	ld	a1, 0x90(sp)
80003e6a: 0288         	addi	a0, sp, 0x140
80003e6c: 00001097     	auipc	ra, 0x1
80003e70: a44080e7     	jalr	-0x5bc(ra) <core::fmt::rt::Argument::new_display::ha3bba816af074122>
80003e74: 6532         	ld	a0, 0x108(sp)
80003e76: fd2a         	sd	a0, 0xb8(sp)
80003e78: 6512         	ld	a0, 0x100(sp)
80003e7a: f92a         	sd	a0, 0xb0(sp)
80003e7c: 6572         	ld	a0, 0x118(sp)
80003e7e: e5aa         	sd	a0, 0xc8(sp)
80003e80: 6552         	ld	a0, 0x110(sp)
80003e82: e1aa         	sd	a0, 0xc0(sp)
80003e84: 7532         	ld	a0, 0x128(sp)
80003e86: edaa         	sd	a0, 0xd8(sp)
80003e88: 7512         	ld	a0, 0x120(sp)
80003e8a: e9aa         	sd	a0, 0xd0(sp)
80003e8c: 7572         	ld	a0, 0x138(sp)
80003e8e: f5aa         	sd	a0, 0xe8(sp)
80003e90: 7552         	ld	a0, 0x130(sp)
80003e92: f1aa         	sd	a0, 0xe0(sp)
80003e94: 6536         	ld	a0, 0x148(sp)
80003e96: fdaa         	sd	a0, 0xf8(sp)
80003e98: 6516         	ld	a0, 0x140(sp)
80003e9a: f9aa         	sd	a0, 0xf0(sp)

0000000080003e9c <.Lpcrel_hi419>:
80003e9c: 00004517     	auipc	a0, 0x4
80003ea0: a5c50513     	addi	a0, a0, -0x5a4
80003ea4: 190c         	addi	a1, sp, 0xb0
80003ea6: ffffc097     	auipc	ra, 0xffffc
80003eaa: 394080e7     	jalr	0x394(ra) <core::fmt::Arguments::new::h43e67dadd291747f>
80003eae: ffffc097     	auipc	ra, 0xffffc
80003eb2: 292080e7     	jalr	0x292(ra) <lab4_kernel_task2::console::print::h7473f0160e01bbb6>
80003eb6: 6662         	ld	a2, 0x18(sp)
80003eb8: 7526         	ld	a0, 0x68(sp)
80003eba: eb2a         	sd	a0, 0x190(sp)
80003ebc: 7506         	ld	a0, 0x60(sp)
80003ebe: e72a         	sd	a0, 0x188(sp)
80003ec0: 6566         	ld	a0, 0x58(sp)
80003ec2: e32a         	sd	a0, 0x180(sp)
80003ec4: 6546         	ld	a0, 0x50(sp)
80003ec6: feaa         	sd	a0, 0x178(sp)
80003ec8: 6526         	ld	a0, 0x48(sp)
80003eca: faaa         	sd	a0, 0x170(sp)
80003ecc: 6506         	ld	a0, 0x40(sp)
80003ece: f6aa         	sd	a0, 0x168(sp)
80003ed0: 7562         	ld	a0, 0x38(sp)
80003ed2: f2aa         	sd	a0, 0x160(sp)
80003ed4: 7542         	ld	a0, 0x30(sp)
80003ed6: eeaa         	sd	a0, 0x158(sp)

0000000080003ed8 <.Lpcrel_hi420>:
80003ed8: 00004517     	auipc	a0, 0x4
80003edc: a8a50513     	addi	a0, a0, -0x576
80003ee0: 45b5         	li	a1, 0xd
80003ee2: 0ab4         	addi	a3, sp, 0x158
80003ee4: ffffd097     	auipc	ra, 0xffffd
80003ee8: fa6080e7     	jalr	-0x5a(ra) <lab4_kernel_task2::print_walk::hba181e23c4f2f5d4>
80003eec: ffffd097     	auipc	ra, 0xffffd
80003ef0: e0c080e7     	jalr	-0x1f4(ra) <lab4_kernel_task2::print_vmas::hd16bf6c74a53f911>
80003ef4: 6562         	ld	a0, 0x18(sp)
80003ef6: 60fa         	ld	ra, 0x198(sp)
80003ef8: 611d         	addi	sp, sp, 0x1a0
80003efa: 8082         	ret

0000000080003efc <.Lpcrel_hi421>:
80003efc: 00004517     	auipc	a0, 0x4
80003f00: 9e450513     	addi	a0, a0, -0x61c
80003f04: 00002097     	auipc	ra, 0x2
80003f08: f38080e7     	jalr	-0xc8(ra) <core::panicking::panic_null_pointer_dereference::hbac6411af4f2e916>

0000000080003f0c <lab4_kernel_task2::LazyStats::zeroed::h07ca158531d294ac>:
80003f0c: 85aa         	mv	a1, a0
80003f0e: 4501         	li	a0, 0x0
80003f10: e188         	sd	a0, 0x0(a1)
80003f12: e588         	sd	a0, 0x8(a1)
80003f14: e988         	sd	a0, 0x10(a1)
80003f16: ed88         	sd	a0, 0x18(a1)
80003f18: f188         	sd	a0, 0x20(a1)
80003f1a: f588         	sd	a0, 0x28(a1)
80003f1c: f988         	sd	a0, 0x30(a1)
80003f1e: fd88         	sd	a0, 0x38(a1)
80003f20: 8082         	ret

0000000080003f22 <lab4_kernel_task2::clear_bss::h04b1c4240257811c>:
80003f22: 715d         	addi	sp, sp, -0x50
80003f24: e486         	sd	ra, 0x48(sp)

0000000080003f26 <.Lpcrel_hi422>:
80003f26: 00005517     	auipc	a0, 0x5
80003f2a: 0da50593     	addi	a1, a0, 0xda
80003f2e: ec2e         	sd	a1, 0x18(sp)

0000000080003f30 <.Lpcrel_hi423>:
80003f30: 0001f517     	auipc	a0, 0x1f
80003f34: 1b850513     	addi	a0, a0, 0x1b8
80003f38: f02a         	sd	a0, 0x20(sp)
80003f3a: 04b56d63     	bltu	a0, a1, 0x80003f94 <.Lpcrel_hi427>
80003f3e: a009         	j	0x80003f40 <.Lpcrel_hi424>

0000000080003f40 <.Lpcrel_hi424>:
80003f40: 00005517     	auipc	a0, 0x5
80003f44: 0c050513     	addi	a0, a0, 0xc0
80003f48: e02a         	sd	a0, 0x0(sp)
80003f4a: f82a         	sd	a0, 0x30(sp)
80003f4c: 4581         	li	a1, 0x0
80003f4e: e42e         	sd	a1, 0x8(sp)
80003f50: 02b10fa3     	sb	a1, 0x3f(sp)

0000000080003f54 <.Lpcrel_hi425>:
80003f54: 0001f597     	auipc	a1, 0x1f
80003f58: 19458593     	addi	a1, a1, 0x194
80003f5c: 8d89         	sub	a1, a1, a0
80003f5e: e82e         	sd	a1, 0x10(sp)
80003f60: e0ae         	sd	a1, 0x40(sp)
80003f62: 0015b593     	seqz	a1, a1
80003f66: 02b107a3     	sb	a1, 0x2f(sp)
80003f6a: 02f14603     	lbu	a2, 0x2f(sp)

0000000080003f6e <.Lpcrel_hi426>:
80003f6e: 00004597     	auipc	a1, 0x4
80003f72: a5258693     	addi	a3, a1, -0x5ae
80003f76: 4585         	li	a1, 0x1
80003f78: ffffc097     	auipc	ra, 0xffffc
80003f7c: 37c080e7     	jalr	0x37c(ra) <core::ptr::write_bytes::precondition_check::hb7be6038ea2643e9>
80003f80: 6502         	ld	a0, 0x0(sp)
80003f82: 65a2         	ld	a1, 0x8(sp)
80003f84: 6642         	ld	a2, 0x10(sp)
80003f86: 00002097     	auipc	ra, 0x2
80003f8a: 00a080e7     	jalr	0xa(ra) <memset>
80003f8e: 60a6         	ld	ra, 0x48(sp)
80003f90: 6161         	addi	sp, sp, 0x50
80003f92: 8082         	ret

0000000080003f94 <.Lpcrel_hi427>:
80003f94: 00004517     	auipc	a0, 0x4
80003f98: 9fc50513     	addi	a0, a0, -0x604
80003f9c: 00002097     	auipc	ra, 0x2
80003fa0: df8080e7     	jalr	-0x208(ra) <core::panicking::panic_const::panic_const_sub_overflow::hccc965ba9198de7c>

0000000080003fa4 <lab4_kernel_task2::clear_sum::h8cbee08d7cdaa203>:
80003fa4: 00040537     	lui	a0, 0x40
80003fa8: 10053073     	csrc	sstatus, a0
80003fac: 8082         	ret

0000000080003fae <lab4_kernel_task2::pass_fail::h3905961ffd4ff8f2>:
80003fae: 1101         	addi	sp, sp, -0x20
80003fb0: 00a10fa3     	sb	a0, 0x1f(sp)
80003fb4: e911         	bnez	a0, 0x80003fc8 <.Lpcrel_hi429>
80003fb6: a009         	j	0x80003fb8 <.Lpcrel_hi428>

0000000080003fb8 <.Lpcrel_hi428>:
80003fb8: 00003517     	auipc	a0, 0x3
80003fbc: f8450513     	addi	a0, a0, -0x7c
80003fc0: e42a         	sd	a0, 0x8(sp)
80003fc2: 4511         	li	a0, 0x4
80003fc4: e82a         	sd	a0, 0x10(sp)
80003fc6: a809         	j	0x80003fd8 <.Lpcrel_hi429+0x10>

0000000080003fc8 <.Lpcrel_hi429>:
80003fc8: 00003517     	auipc	a0, 0x3
80003fcc: f7c50513     	addi	a0, a0, -0x84
80003fd0: e42a         	sd	a0, 0x8(sp)
80003fd2: 4511         	li	a0, 0x4
80003fd4: e82a         	sd	a0, 0x10(sp)
80003fd6: a009         	j	0x80003fd8 <.Lpcrel_hi429+0x10>
80003fd8: 6522         	ld	a0, 0x8(sp)
80003fda: 65c2         	ld	a1, 0x10(sp)
80003fdc: 6105         	addi	sp, sp, 0x20
80003fde: 8082         	ret

0000000080003fe0 <lab4_kernel_task2::pte_to_pa::h4668a551d4fdc628>:
80003fe0: 1141         	addi	sp, sp, -0x10
80003fe2: e42a         	sd	a0, 0x8(sp)
80003fe4: 8129         	srli	a0, a0, 0xa
80003fe6: 0532         	slli	a0, a0, 0xc
80003fe8: 0141         	addi	sp, sp, 0x10
80003fea: 8082         	ret

0000000080003fec <lab4_kernel_task2::qemu_exit::h515f7665dae94ac6>:
80003fec: 1101         	addi	sp, sp, -0x20
80003fee: ec06         	sd	ra, 0x18(sp)
80003ff0: 85aa         	mv	a1, a0
80003ff2: e42e         	sd	a1, 0x8(sp)
80003ff4: ca2a         	sw	a0, 0x14(sp)
80003ff6: c919         	beqz	a0, 0x8000400c <lab4_kernel_task2::qemu_exit::h515f7665dae94ac6+0x20>
80003ff8: a009         	j	0x80003ffa <lab4_kernel_task2::qemu_exit::h515f7665dae94ac6+0xe>
80003ffa: 6522         	ld	a0, 0x8(sp)
80003ffc: 0105151b     	slliw	a0, a0, 0x10
80004000: 658d         	lui	a1, 0x3
80004002: 33358593     	addi	a1, a1, 0x333
80004006: 8d4d         	or	a0, a0, a1
80004008: c82a         	sw	a0, 0x10(sp)
8000400a: a031         	j	0x80004016 <lab4_kernel_task2::qemu_exit::h515f7665dae94ac6+0x2a>
8000400c: 6515         	lui	a0, 0x5
8000400e: 55550513     	addi	a0, a0, 0x555
80004012: c82a         	sw	a0, 0x10(sp)
80004014: a009         	j	0x80004016 <lab4_kernel_task2::qemu_exit::h515f7665dae94ac6+0x2a>
80004016: 45c2         	lw	a1, 0x10(sp)

0000000080004018 <.Lpcrel_hi430>:
80004018: 00004517     	auipc	a0, 0x4
8000401c: 99050613     	addi	a2, a0, -0x670
80004020: 00100537     	lui	a0, 0x100
80004024: 00000097     	auipc	ra, 0x0
80004028: 73a080e7     	jalr	0x73a(ra) <core::ptr::write_volatile::h078fc608e60963da>
8000402c: a009         	j	0x8000402e <.Lpcrel_hi430+0x16>
8000402e: 10500073     	wfi
80004032: bff5         	j	0x8000402e <.Lpcrel_hi430+0x16>

0000000080004034 <lab4_kernel_task2::read_satp::h5501709cb0937e0d>:
80004034: 1141         	addi	sp, sp, -0x10
80004036: 18002573     	csrr	a0, satp
8000403a: e42a         	sd	a0, 0x8(sp)
8000403c: 6522         	ld	a0, 0x8(sp)
8000403e: 0141         	addi	sp, sp, 0x10
80004040: 8082         	ret

0000000080004042 <lab4_kernel_task2::table_pte::hfc59d0a0b2f4dd2e>:
80004042: 1141         	addi	sp, sp, -0x10
80004044: e42a         	sd	a0, 0x8(sp)
80004046: 8131         	srli	a0, a0, 0xc
80004048: 052a         	slli	a0, a0, 0xa
8000404a: 0505         	addi	a0, a0, 0x1
8000404c: 0141         	addi	sp, sp, 0x10
8000404e: 8082         	ret

0000000080004050 <_$LT$lab4_kernel_task2..PteFlags$u20$as$u20$core..fmt..Display$GT$::fmt::h090c6b3ef0a94f17>:
80004050: 7129         	addi	sp, sp, -0x140
80004052: fe06         	sd	ra, 0x138(sp)
80004054: e82e         	sd	a1, 0x10(sp)
80004056: f9aa         	sd	a0, 0xf0(sp)
80004058: fdae         	sd	a1, 0xf8(sp)
8000405a: 6108         	ld	a0, 0x0(a0)
8000405c: ec2a         	sd	a0, 0x18(sp)
8000405e: e62a         	sd	a0, 0x108(sp)
80004060: 8905         	andi	a0, a0, 0x1
80004062: e511         	bnez	a0, 0x8000406e <_$LT$lab4_kernel_task2..PteFlags$u20$as$u20$core..fmt..Display$GT$::fmt::h090c6b3ef0a94f17+0x1e>
80004064: a009         	j	0x80004066 <_$LT$lab4_kernel_task2..PteFlags$u20$as$u20$core..fmt..Display$GT$::fmt::h090c6b3ef0a94f17+0x16>
80004066: 02d00513     	li	a0, 0x2d
8000406a: c4aa         	sw	a0, 0x48(sp)
8000406c: a029         	j	0x80004076 <_$LT$lab4_kernel_task2..PteFlags$u20$as$u20$core..fmt..Display$GT$::fmt::h090c6b3ef0a94f17+0x26>
8000406e: 05600513     	li	a0, 0x56
80004072: c4aa         	sw	a0, 0x48(sp)
80004074: a009         	j	0x80004076 <_$LT$lab4_kernel_task2..PteFlags$u20$as$u20$core..fmt..Display$GT$::fmt::h090c6b3ef0a94f17+0x26>
80004076: 6562         	ld	a0, 0x18(sp)
80004078: 8909         	andi	a0, a0, 0x2
8000407a: e511         	bnez	a0, 0x80004086 <_$LT$lab4_kernel_task2..PteFlags$u20$as$u20$core..fmt..Display$GT$::fmt::h090c6b3ef0a94f17+0x36>
8000407c: a009         	j	0x8000407e <_$LT$lab4_kernel_task2..PteFlags$u20$as$u20$core..fmt..Display$GT$::fmt::h090c6b3ef0a94f17+0x2e>
8000407e: 02d00513     	li	a0, 0x2d
80004082: c6aa         	sw	a0, 0x4c(sp)
80004084: a029         	j	0x8000408e <_$LT$lab4_kernel_task2..PteFlags$u20$as$u20$core..fmt..Display$GT$::fmt::h090c6b3ef0a94f17+0x3e>
80004086: 05200513     	li	a0, 0x52
8000408a: c6aa         	sw	a0, 0x4c(sp)
8000408c: a009         	j	0x8000408e <_$LT$lab4_kernel_task2..PteFlags$u20$as$u20$core..fmt..Display$GT$::fmt::h090c6b3ef0a94f17+0x3e>
8000408e: 6562         	ld	a0, 0x18(sp)
80004090: 8911         	andi	a0, a0, 0x4
80004092: e511         	bnez	a0, 0x8000409e <_$LT$lab4_kernel_task2..PteFlags$u20$as$u20$core..fmt..Display$GT$::fmt::h090c6b3ef0a94f17+0x4e>
80004094: a009         	j	0x80004096 <_$LT$lab4_kernel_task2..PteFlags$u20$as$u20$core..fmt..Display$GT$::fmt::h090c6b3ef0a94f17+0x46>
80004096: 02d00513     	li	a0, 0x2d
8000409a: c8aa         	sw	a0, 0x50(sp)
8000409c: a029         	j	0x800040a6 <_$LT$lab4_kernel_task2..PteFlags$u20$as$u20$core..fmt..Display$GT$::fmt::h090c6b3ef0a94f17+0x56>
8000409e: 05700513     	li	a0, 0x57
800040a2: c8aa         	sw	a0, 0x50(sp)
800040a4: a009         	j	0x800040a6 <_$LT$lab4_kernel_task2..PteFlags$u20$as$u20$core..fmt..Display$GT$::fmt::h090c6b3ef0a94f17+0x56>
800040a6: 6562         	ld	a0, 0x18(sp)
800040a8: 8921         	andi	a0, a0, 0x8
800040aa: e511         	bnez	a0, 0x800040b6 <_$LT$lab4_kernel_task2..PteFlags$u20$as$u20$core..fmt..Display$GT$::fmt::h090c6b3ef0a94f17+0x66>
800040ac: a009         	j	0x800040ae <_$LT$lab4_kernel_task2..PteFlags$u20$as$u20$core..fmt..Display$GT$::fmt::h090c6b3ef0a94f17+0x5e>
800040ae: 02d00513     	li	a0, 0x2d
800040b2: caaa         	sw	a0, 0x54(sp)
800040b4: a029         	j	0x800040be <_$LT$lab4_kernel_task2..PteFlags$u20$as$u20$core..fmt..Display$GT$::fmt::h090c6b3ef0a94f17+0x6e>
800040b6: 05800513     	li	a0, 0x58
800040ba: caaa         	sw	a0, 0x54(sp)
800040bc: a009         	j	0x800040be <_$LT$lab4_kernel_task2..PteFlags$u20$as$u20$core..fmt..Display$GT$::fmt::h090c6b3ef0a94f17+0x6e>
800040be: 6562         	ld	a0, 0x18(sp)
800040c0: 8941         	andi	a0, a0, 0x10
800040c2: e511         	bnez	a0, 0x800040ce <_$LT$lab4_kernel_task2..PteFlags$u20$as$u20$core..fmt..Display$GT$::fmt::h090c6b3ef0a94f17+0x7e>
800040c4: a009         	j	0x800040c6 <_$LT$lab4_kernel_task2..PteFlags$u20$as$u20$core..fmt..Display$GT$::fmt::h090c6b3ef0a94f17+0x76>
800040c6: 02d00513     	li	a0, 0x2d
800040ca: ccaa         	sw	a0, 0x58(sp)
800040cc: a029         	j	0x800040d6 <_$LT$lab4_kernel_task2..PteFlags$u20$as$u20$core..fmt..Display$GT$::fmt::h090c6b3ef0a94f17+0x86>
800040ce: 05500513     	li	a0, 0x55
800040d2: ccaa         	sw	a0, 0x58(sp)
800040d4: a009         	j	0x800040d6 <_$LT$lab4_kernel_task2..PteFlags$u20$as$u20$core..fmt..Display$GT$::fmt::h090c6b3ef0a94f17+0x86>
800040d6: 6562         	ld	a0, 0x18(sp)
800040d8: 02057513     	andi	a0, a0, 0x20
800040dc: e511         	bnez	a0, 0x800040e8 <_$LT$lab4_kernel_task2..PteFlags$u20$as$u20$core..fmt..Display$GT$::fmt::h090c6b3ef0a94f17+0x98>
800040de: a009         	j	0x800040e0 <_$LT$lab4_kernel_task2..PteFlags$u20$as$u20$core..fmt..Display$GT$::fmt::h090c6b3ef0a94f17+0x90>
800040e0: 02d00513     	li	a0, 0x2d
800040e4: ceaa         	sw	a0, 0x5c(sp)
800040e6: a029         	j	0x800040f0 <_$LT$lab4_kernel_task2..PteFlags$u20$as$u20$core..fmt..Display$GT$::fmt::h090c6b3ef0a94f17+0xa0>
800040e8: 04700513     	li	a0, 0x47
800040ec: ceaa         	sw	a0, 0x5c(sp)
800040ee: a009         	j	0x800040f0 <_$LT$lab4_kernel_task2..PteFlags$u20$as$u20$core..fmt..Display$GT$::fmt::h090c6b3ef0a94f17+0xa0>
800040f0: 6562         	ld	a0, 0x18(sp)
800040f2: 04057513     	andi	a0, a0, 0x40
800040f6: e511         	bnez	a0, 0x80004102 <_$LT$lab4_kernel_task2..PteFlags$u20$as$u20$core..fmt..Display$GT$::fmt::h090c6b3ef0a94f17+0xb2>
800040f8: a009         	j	0x800040fa <_$LT$lab4_kernel_task2..PteFlags$u20$as$u20$core..fmt..Display$GT$::fmt::h090c6b3ef0a94f17+0xaa>
800040fa: 02d00513     	li	a0, 0x2d
800040fe: d0aa         	sw	a0, 0x60(sp)
80004100: a029         	j	0x8000410a <_$LT$lab4_kernel_task2..PteFlags$u20$as$u20$core..fmt..Display$GT$::fmt::h090c6b3ef0a94f17+0xba>
80004102: 04100513     	li	a0, 0x41
80004106: d0aa         	sw	a0, 0x60(sp)
80004108: a009         	j	0x8000410a <_$LT$lab4_kernel_task2..PteFlags$u20$as$u20$core..fmt..Display$GT$::fmt::h090c6b3ef0a94f17+0xba>
8000410a: 6562         	ld	a0, 0x18(sp)
8000410c: 08057513     	andi	a0, a0, 0x80
80004110: e511         	bnez	a0, 0x8000411c <_$LT$lab4_kernel_task2..PteFlags$u20$as$u20$core..fmt..Display$GT$::fmt::h090c6b3ef0a94f17+0xcc>
80004112: a009         	j	0x80004114 <_$LT$lab4_kernel_task2..PteFlags$u20$as$u20$core..fmt..Display$GT$::fmt::h090c6b3ef0a94f17+0xc4>
80004114: 02d00513     	li	a0, 0x2d
80004118: d2aa         	sw	a0, 0x64(sp)
8000411a: a029         	j	0x80004124 <_$LT$lab4_kernel_task2..PteFlags$u20$as$u20$core..fmt..Display$GT$::fmt::h090c6b3ef0a94f17+0xd4>
8000411c: 04400513     	li	a0, 0x44
80004120: d2aa         	sw	a0, 0x64(sp)
80004122: a009         	j	0x80004124 <_$LT$lab4_kernel_task2..PteFlags$u20$as$u20$core..fmt..Display$GT$::fmt::h090c6b3ef0a94f17+0xd4>
80004124: 4526         	lw	a0, 0x48(sp)
80004126: d42a         	sw	a0, 0x28(sp)
80004128: 4536         	lw	a0, 0x4c(sp)
8000412a: d62a         	sw	a0, 0x2c(sp)
8000412c: 4546         	lw	a0, 0x50(sp)
8000412e: d82a         	sw	a0, 0x30(sp)
80004130: 4556         	lw	a0, 0x54(sp)
80004132: da2a         	sw	a0, 0x34(sp)
80004134: 4566         	lw	a0, 0x58(sp)
80004136: dc2a         	sw	a0, 0x38(sp)
80004138: 4576         	lw	a0, 0x5c(sp)
8000413a: de2a         	sw	a0, 0x3c(sp)
8000413c: 5506         	lw	a0, 0x60(sp)
8000413e: c0aa         	sw	a0, 0x40(sp)
80004140: 5516         	lw	a0, 0x64(sp)
80004142: c2aa         	sw	a0, 0x44(sp)
80004144: 04416503     	lwu	a0, 0x44(sp)
80004148: 1502         	slli	a0, a0, 0x20
8000414a: 04016583     	lwu	a1, 0x40(sp)
8000414e: 8d4d         	or	a0, a0, a1
80004150: f62a         	sd	a0, 0x128(sp)
80004152: 03c16503     	lwu	a0, 0x3c(sp)
80004156: 1502         	slli	a0, a0, 0x20
80004158: 03816583     	lwu	a1, 0x38(sp)
8000415c: 8d4d         	or	a0, a0, a1
8000415e: f22a         	sd	a0, 0x120(sp)
80004160: 03416503     	lwu	a0, 0x34(sp)
80004164: 1502         	slli	a0, a0, 0x20
80004166: 03016583     	lwu	a1, 0x30(sp)
8000416a: 8d4d         	or	a0, a0, a1
8000416c: ee2a         	sd	a0, 0x118(sp)
8000416e: 02c16503     	lwu	a0, 0x2c(sp)
80004172: 1502         	slli	a0, a0, 0x20
80004174: 02816583     	lwu	a1, 0x28(sp)
80004178: 8d4d         	or	a0, a0, a1
8000417a: ea2a         	sd	a0, 0x110(sp)
8000417c: 10a8         	addi	a0, sp, 0x68
8000417e: 0a0c         	addi	a1, sp, 0x110
80004180: ffffc097     	auipc	ra, 0xffffc
80004184: 59a080e7     	jalr	0x59a(ra) <core::array::iter::_$LT$impl$u20$core..iter..traits..collect..IntoIterator$u20$for$u20$$u5b$T$u3b$$u20$N$u5d$$GT$::into_iter::hcff5b8405ed5f548>
80004188: 654a         	ld	a0, 0x90(sp)
8000418a: e1aa         	sd	a0, 0xc0(sp)
8000418c: 652a         	ld	a0, 0x88(sp)
8000418e: fd2a         	sd	a0, 0xb8(sp)
80004190: 650a         	ld	a0, 0x80(sp)
80004192: f92a         	sd	a0, 0xb0(sp)
80004194: 7566         	ld	a0, 0x78(sp)
80004196: f52a         	sd	a0, 0xa8(sp)
80004198: 7546         	ld	a0, 0x70(sp)
8000419a: f12a         	sd	a0, 0xa0(sp)
8000419c: 7526         	ld	a0, 0x68(sp)
8000419e: ed2a         	sd	a0, 0x98(sp)
800041a0: a009         	j	0x800041a2 <_$LT$lab4_kernel_task2..PteFlags$u20$as$u20$core..fmt..Display$GT$::fmt::h090c6b3ef0a94f17+0x152>
800041a2: 0928         	addi	a0, sp, 0x98
800041a4: ffffc097     	auipc	ra, 0xffffc
800041a8: 62a080e7     	jalr	0x62a(ra) <_$LT$core..array..iter..IntoIter$LT$T$C$_$GT$$u20$as$u20$core..iter..traits..iterator..Iterator$GT$::next::h205b0bd0cd90941f>
800041ac: c5aa         	sw	a0, 0xc8(sp)
800041ae: 452e         	lw	a0, 0xc8(sp)
800041b0: 001105b7     	lui	a1, 0x110
800041b4: 04b50863     	beq	a0, a1, 0x80004204 <.Lpcrel_hi431+0x30>
800041b8: a009         	j	0x800041ba <_$LT$lab4_kernel_task2..PteFlags$u20$as$u20$core..fmt..Display$GT$::fmt::h090c6b3ef0a94f17+0x16a>
800041ba: 452e         	lw	a0, 0xc8(sp)
800041bc: c7aa         	sw	a0, 0xcc(sp)
800041be: 01ec         	addi	a1, sp, 0xcc
800041c0: fa2e         	sd	a1, 0x130(sp)
800041c2: 1188         	addi	a0, sp, 0xe0
800041c4: 00000097     	auipc	ra, 0x0
800041c8: 6a8080e7     	jalr	0x6a8(ra) <core::fmt::rt::Argument::new_display::h24276cf34e331af1>
800041cc: 752e         	ld	a0, 0xe8(sp)
800041ce: edaa         	sd	a0, 0xd8(sp)
800041d0: 750e         	ld	a0, 0xe0(sp)
800041d2: e9aa         	sd	a0, 0xd0(sp)

00000000800041d4 <.Lpcrel_hi431>:
800041d4: 00002517     	auipc	a0, 0x2
800041d8: 31850513     	addi	a0, a0, 0x318
800041dc: 098c         	addi	a1, sp, 0xd0
800041de: ffffc097     	auipc	ra, 0xffffc
800041e2: 052080e7     	jalr	0x52(ra) <core::fmt::Arguments::new::h41e2eee30b1621eb>
800041e6: 862a         	mv	a2, a0
800041e8: 6542         	ld	a0, 0x10(sp)
800041ea: e432         	sd	a2, 0x8(sp)
800041ec: 862e         	mv	a2, a1
800041ee: 65a2         	ld	a1, 0x8(sp)
800041f0: 00001097     	auipc	ra, 0x1
800041f4: aca080e7     	jalr	-0x536(ra) <core::fmt::Formatter::write_fmt::hd36476feb5eecf0a>
800041f8: 00000097     	auipc	ra, 0x0
800041fc: 64c080e7     	jalr	0x64c(ra) <_$LT$core..result..Result$LT$T$C$E$GT$$u20$as$u20$core..ops..try_trait..Try$GT$::branch::heeb17d6896b3dafa>
80004200: e105         	bnez	a0, 0x80004220 <.Lpcrel_hi432>
80004202: b745         	j	0x800041a2 <_$LT$lab4_kernel_task2..PteFlags$u20$as$u20$core..fmt..Display$GT$::fmt::h090c6b3ef0a94f17+0x152>
80004204: 0928         	addi	a0, sp, 0x98
80004206: ffffc097     	auipc	ra, 0xffffc
8000420a: fbc080e7     	jalr	-0x44(ra) <core::ptr::drop_in_place$LT$core..array..iter..IntoIter$LT$char$C$8_usize$GT$$GT$::h2f3077ab9c77c936>
8000420e: 4501         	li	a0, 0x0
80004210: 02a103a3     	sb	a0, 0x27(sp)
80004214: a009         	j	0x80004216 <.Lpcrel_hi431+0x42>
80004216: 02714503     	lbu	a0, 0x27(sp)
8000421a: 70f2         	ld	ra, 0x138(sp)
8000421c: 6131         	addi	sp, sp, 0x140
8000421e: 8082         	ret

0000000080004220 <.Lpcrel_hi432>:
80004220: 00003517     	auipc	a0, 0x3
80004224: 7d050513     	addi	a0, a0, 0x7d0
80004228: 00000097     	auipc	ra, 0x0
8000422c: 614080e7     	jalr	0x614(ra) <_$LT$core..result..Result$LT$T$C$F$GT$$u20$as$u20$core..ops..try_trait..FromResidual$LT$core..result..Result$LT$core..convert..Infallible$C$E$GT$$GT$$GT$::from_residual::h2f489179e71b4b46>
80004230: 02a103a3     	sb	a0, 0x27(sp)
80004234: 0928         	addi	a0, sp, 0x98
80004236: ffffc097     	auipc	ra, 0xffffc
8000423a: f8c080e7     	jalr	-0x74(ra) <core::ptr::drop_in_place$LT$core..array..iter..IntoIter$LT$char$C$8_usize$GT$$GT$::h2f3077ab9c77c936>
8000423e: bfe1         	j	0x80004216 <.Lpcrel_hi431+0x42>

0000000080004240 <handle_machine_trap>:
80004240: 7171         	addi	sp, sp, -0xb0
80004242: f506         	sd	ra, 0xa8(sp)
80004244: e42a         	sd	a0, 0x8(sp)
80004246: f12a         	sd	a0, 0xa0(sp)
80004248: ffffd097     	auipc	ra, 0xffffd
8000424c: 0a2080e7     	jalr	0xa2(ra) <lab4_kernel_task2::read_mcause::h75524f4b19e0613e>
80004250: 85aa         	mv	a1, a0
80004252: 6522         	ld	a0, 0x8(sp)
80004254: f82e         	sd	a1, 0x30(sp)
80004256: 0f850513     	addi	a0, a0, 0xf8
8000425a: e82a         	sd	a0, 0x10(sp)
8000425c: ffffd097     	auipc	ra, 0xffffd
80004260: de4080e7     	jalr	-0x21c(ra) <lab4_kernel_task2::read_mtval::hc2ae925ecd4a947f>
80004264: 85aa         	mv	a1, a0
80004266: 6542         	ld	a0, 0x10(sp)
80004268: fc2e         	sd	a1, 0x38(sp)
8000426a: 180c         	addi	a1, sp, 0x30
8000426c: ec2e         	sd	a1, 0x18(sp)
8000426e: f02a         	sd	a0, 0x20(sp)
80004270: 1828         	addi	a0, sp, 0x38
80004272: f42a         	sd	a0, 0x28(sp)
80004274: 65e2         	ld	a1, 0x18(sp)
80004276: 1888         	addi	a0, sp, 0x70
80004278: 00000097     	auipc	ra, 0x0
8000427c: 69e080e7     	jalr	0x69e(ra) <core::fmt::rt::Argument::new_lower_hex::ha3dbd086c79e0875>
80004280: 7582         	ld	a1, 0x20(sp)
80004282: 0108         	addi	a0, sp, 0x80
80004284: 00000097     	auipc	ra, 0x0
80004288: 692080e7     	jalr	0x692(ra) <core::fmt::rt::Argument::new_lower_hex::ha3dbd086c79e0875>
8000428c: 75a2         	ld	a1, 0x28(sp)
8000428e: 0908         	addi	a0, sp, 0x90
80004290: 00000097     	auipc	ra, 0x0
80004294: 686080e7     	jalr	0x686(ra) <core::fmt::rt::Argument::new_lower_hex::ha3dbd086c79e0875>
80004298: 7566         	ld	a0, 0x78(sp)
8000429a: e4aa         	sd	a0, 0x48(sp)
8000429c: 7546         	ld	a0, 0x70(sp)
8000429e: e0aa         	sd	a0, 0x40(sp)
800042a0: 652a         	ld	a0, 0x88(sp)
800042a2: ecaa         	sd	a0, 0x58(sp)
800042a4: 650a         	ld	a0, 0x80(sp)
800042a6: e8aa         	sd	a0, 0x50(sp)
800042a8: 656a         	ld	a0, 0x98(sp)
800042aa: f4aa         	sd	a0, 0x68(sp)
800042ac: 654a         	ld	a0, 0x90(sp)
800042ae: f0aa         	sd	a0, 0x60(sp)

00000000800042b0 <.Lpcrel_hi433>:
800042b0: 00003517     	auipc	a0, 0x3
800042b4: 75850513     	addi	a0, a0, 0x758
800042b8: 008c         	addi	a1, sp, 0x40
800042ba: ffffc097     	auipc	ra, 0xffffc
800042be: ff8080e7     	jalr	-0x8(ra) <core::fmt::Arguments::new::he3549fc266f146cd>
800042c2: ffffc097     	auipc	ra, 0xffffc
800042c6: e7e080e7     	jalr	-0x182(ra) <lab4_kernel_task2::console::print::h7473f0160e01bbb6>
800042ca: 4505         	li	a0, 0x1
800042cc: 00000097     	auipc	ra, 0x0
800042d0: d20080e7     	jalr	-0x2e0(ra) <lab4_kernel_task2::qemu_exit::h515f7665dae94ac6>

00000000800042d4 <handle_supervisor_trap>:
800042d4: 7115         	addi	sp, sp, -0xe0
800042d6: ed86         	sd	ra, 0xd8(sp)
800042d8: e42a         	sd	a0, 0x8(sp)
800042da: e9aa         	sd	a0, 0xd0(sp)
800042dc: ffffd097     	auipc	ra, 0xffffd
800042e0: 01c080e7     	jalr	0x1c(ra) <lab4_kernel_task2::read_scause::hc3c3b9fa9e627ee0>
800042e4: ec2a         	sd	a0, 0x18(sp)
800042e6: ffffd097     	auipc	ra, 0xffffd
800042ea: d68080e7     	jalr	-0x298(ra) <lab4_kernel_task2::read_stval::h3f6d9b7ebd1a8744>
800042ee: f02a         	sd	a0, 0x20(sp)
800042f0: 6562         	ld	a0, 0x18(sp)
800042f2: e82a         	sd	a0, 0x10(sp)
800042f4: 45a1         	li	a1, 0x8
800042f6: 0ab50963     	beq	a0, a1, 0x800043a8 <.Lpcrel_hi434+0x24>
800042fa: a009         	j	0x800042fc <handle_supervisor_trap+0x28>
800042fc: 6542         	ld	a0, 0x10(sp)
800042fe: 45b5         	li	a1, 0xd
80004300: 0ab50a63     	beq	a0, a1, 0x800043b4 <.Lpcrel_hi434+0x30>
80004304: a009         	j	0x80004306 <handle_supervisor_trap+0x32>
80004306: 6542         	ld	a0, 0x10(sp)
80004308: 45bd         	li	a1, 0xf
8000430a: 0ab50563     	beq	a0, a1, 0x800043b4 <.Lpcrel_hi434+0x30>
8000430e: a009         	j	0x80004310 <handle_supervisor_trap+0x3c>
80004310: 6522         	ld	a0, 0x8(sp)
80004312: 0f850513     	addi	a0, a0, 0xf8
80004316: e02a         	sd	a0, 0x0(sp)
80004318: 00000097     	auipc	ra, 0x0
8000431c: d1c080e7     	jalr	-0x2e4(ra) <lab4_kernel_task2::read_satp::h5501709cb0937e0d>
80004320: 85aa         	mv	a1, a0
80004322: 6502         	ld	a0, 0x0(sp)
80004324: e4ae         	sd	a1, 0x48(sp)
80004326: 082c         	addi	a1, sp, 0x18
80004328: f42e         	sd	a1, 0x28(sp)
8000432a: f82a         	sd	a0, 0x30(sp)
8000432c: 1008         	addi	a0, sp, 0x20
8000432e: fc2a         	sd	a0, 0x38(sp)
80004330: 00a8         	addi	a0, sp, 0x48
80004332: e0aa         	sd	a0, 0x40(sp)
80004334: 75a2         	ld	a1, 0x28(sp)
80004336: 0908         	addi	a0, sp, 0x90
80004338: 00000097     	auipc	ra, 0x0
8000433c: 5de080e7     	jalr	0x5de(ra) <core::fmt::rt::Argument::new_lower_hex::ha3dbd086c79e0875>
80004340: 75c2         	ld	a1, 0x30(sp)
80004342: 1108         	addi	a0, sp, 0xa0
80004344: 00000097     	auipc	ra, 0x0
80004348: 5d2080e7     	jalr	0x5d2(ra) <core::fmt::rt::Argument::new_lower_hex::ha3dbd086c79e0875>
8000434c: 75e2         	ld	a1, 0x38(sp)
8000434e: 1908         	addi	a0, sp, 0xb0
80004350: 00000097     	auipc	ra, 0x0
80004354: 5c6080e7     	jalr	0x5c6(ra) <core::fmt::rt::Argument::new_lower_hex::ha3dbd086c79e0875>
80004358: 6586         	ld	a1, 0x40(sp)
8000435a: 0188         	addi	a0, sp, 0xc0
8000435c: 00000097     	auipc	ra, 0x0
80004360: 5ba080e7     	jalr	0x5ba(ra) <core::fmt::rt::Argument::new_lower_hex::ha3dbd086c79e0875>
80004364: 656a         	ld	a0, 0x98(sp)
80004366: ecaa         	sd	a0, 0x58(sp)
80004368: 654a         	ld	a0, 0x90(sp)
8000436a: e8aa         	sd	a0, 0x50(sp)
8000436c: 752a         	ld	a0, 0xa8(sp)
8000436e: f4aa         	sd	a0, 0x68(sp)
80004370: 750a         	ld	a0, 0xa0(sp)
80004372: f0aa         	sd	a0, 0x60(sp)
80004374: 756a         	ld	a0, 0xb8(sp)
80004376: fcaa         	sd	a0, 0x78(sp)
80004378: 754a         	ld	a0, 0xb0(sp)
8000437a: f8aa         	sd	a0, 0x70(sp)
8000437c: 652e         	ld	a0, 0xc8(sp)
8000437e: e52a         	sd	a0, 0x88(sp)
80004380: 650e         	ld	a0, 0xc0(sp)
80004382: e12a         	sd	a0, 0x80(sp)

0000000080004384 <.Lpcrel_hi434>:
80004384: 00003517     	auipc	a0, 0x3
80004388: 6cf50513     	addi	a0, a0, 0x6cf
8000438c: 088c         	addi	a1, sp, 0x50
8000438e: ffffc097     	auipc	ra, 0xffffc
80004392: f1a080e7     	jalr	-0xe6(ra) <core::fmt::Arguments::new::he28bc68f45f34556>
80004396: ffffc097     	auipc	ra, 0xffffc
8000439a: daa080e7     	jalr	-0x256(ra) <lab4_kernel_task2::console::print::h7473f0160e01bbb6>
8000439e: 4505         	li	a0, 0x1
800043a0: 00000097     	auipc	ra, 0x0
800043a4: c4c080e7     	jalr	-0x3b4(ra) <lab4_kernel_task2::qemu_exit::h515f7665dae94ac6>
800043a8: 6522         	ld	a0, 0x8(sp)
800043aa: ffffe097     	auipc	ra, 0xffffe
800043ae: cd8080e7     	jalr	-0x328(ra) <lab4_kernel_task2::handle_user_ecall::h85e6356ac5634d26>
800043b2: a809         	j	0x800043c4 <.Lpcrel_hi434+0x40>
800043b4: 6522         	ld	a0, 0x8(sp)
800043b6: 65e2         	ld	a1, 0x18(sp)
800043b8: 7602         	ld	a2, 0x20(sp)
800043ba: fffff097     	auipc	ra, 0xfffff
800043be: b98080e7     	jalr	-0x468(ra) <lab4_kernel_task2::handle_lazy_page_fault::h0eac2dc1c607711b>
800043c2: a009         	j	0x800043c4 <.Lpcrel_hi434+0x40>
800043c4: 60ee         	ld	ra, 0xd8(sp)
800043c6: 612d         	addi	sp, sp, 0xe0
800043c8: 8082         	ret

00000000800043ca <start_machine>:
800043ca: 1141         	addi	sp, sp, -0x10
800043cc: e406         	sd	ra, 0x8(sp)
800043ce: 00000097     	auipc	ra, 0x0
800043d2: b54080e7     	jalr	-0x4ac(ra) <lab4_kernel_task2::clear_bss::h04b1c4240257811c>
800043d6: ffffd097     	auipc	ra, 0xffffd
800043da: 21c080e7     	jalr	0x21c(ra) <lab4_kernel_task2::configure_pmp::hd2e1b8f3188179a2>
800043de: ffffc097     	auipc	ra, 0xffffc
800043e2: cb4080e7     	jalr	-0x34c(ra) <lab4_kernel_task2::trap::init_machine_trap_vector::h0f906ebb7e558150>
800043e6: fffff097     	auipc	ra, 0xfffff
800043ea: 45c080e7     	jalr	0x45c(ra) <lab4_kernel_task2::delegate_user_exceptions_to_supervisor::h0fe8ace8eaee3467>
800043ee: fffff097     	auipc	ra, 0xfffff
800043f2: 22a080e7     	jalr	0x22a(ra) <lab4_kernel_task2::machine_trap_stack_top::hdeb7ae555cfc91c4>
800043f6: 34051073     	csrw	mscratch, a0
800043fa: ffffd097     	auipc	ra, 0xffffd
800043fe: 564080e7     	jalr	0x564(ra) <lab4_kernel_task2::kernel_stack_top::haf93decafb9864e7>
80004402: 85aa         	mv	a1, a0

0000000080004404 <.Lpcrel_hi435>:
80004404: 00000517     	auipc	a0, 0x0
80004408: 01050513     	addi	a0, a0, 0x10
8000440c: ffffc097     	auipc	ra, 0xffffc
80004410: 3e4080e7     	jalr	0x3e4(ra) <enter_supervisor>

0000000080004414 <start_supervisor>:
80004414: cd010113     	addi	sp, sp, -0x330
80004418: 32113423     	sd	ra, 0x328(sp)
8000441c: ffffc097     	auipc	ra, 0xffffc
80004420: c84080e7     	jalr	-0x37c(ra) <lab4_kernel_task2::trap::init_supervisor_trap_vector::hd4fda2d3bf2de367>
80004424: 00000097     	auipc	ra, 0x0
80004428: b80080e7     	jalr	-0x480(ra) <lab4_kernel_task2::clear_sum::h8cbee08d7cdaa203>
8000442c: fffff097     	auipc	ra, 0xfffff
80004430: 1f6080e7     	jalr	0x1f6(ra) <lab4_kernel_task2::initialize_lazy_runtime::h2c63c66ee558a9c0>
80004434: fffff097     	auipc	ra, 0xfffff
80004438: 8aa080e7     	jalr	-0x756(ra) <lab4_kernel_task2::initialize_user_pages::hc7f741e419cb8782>
8000443c: ffffd097     	auipc	ra, 0xffffd
80004440: 570080e7     	jalr	0x570(ra) <lab4_kernel_task2::build_page_tables::hb937c8549d376f87>
80004444: fffff097     	auipc	ra, 0xfffff
80004448: abc080e7     	jalr	-0x544(ra) <lab4_kernel_task2::activate_address_space::h94ee94f7b6a6863c>
8000444c: ffffe097     	auipc	ra, 0xffffe
80004450: 03a080e7     	jalr	0x3a(ra) <lab4_kernel_task2::prepare_user_frame::hd354839830c102f4>

0000000080004454 <.Lpcrel_hi436>:
80004454: 00003517     	auipc	a0, 0x3
80004458: 65950513     	addi	a0, a0, 0x659
8000445c: 02c00593     	li	a1, 0x2c
80004460: 00001097     	auipc	ra, 0x1
80004464: 84c080e7     	jalr	-0x7b4(ra) <core::fmt::Arguments::from_str::he5a021e025a7e189>
80004468: ffffc097     	auipc	ra, 0xffffc
8000446c: cd8080e7     	jalr	-0x328(ra) <lab4_kernel_task2::console::print::h7473f0160e01bbb6>

0000000080004470 <.Lpcrel_hi437>:
80004470: 00003517     	auipc	a0, 0x3
80004474: 66950513     	addi	a0, a0, 0x669
80004478: 03100593     	li	a1, 0x31
8000447c: 00001097     	auipc	ra, 0x1
80004480: 830080e7     	jalr	-0x7d0(ra) <core::fmt::Arguments::from_str::he5a021e025a7e189>
80004484: ffffc097     	auipc	ra, 0xffffc
80004488: cbc080e7     	jalr	-0x344(ra) <lab4_kernel_task2::console::print::h7473f0160e01bbb6>

000000008000448c <.Lpcrel_hi438>:
8000448c: 00003517     	auipc	a0, 0x3
80004490: 67e50513     	addi	a0, a0, 0x67e
80004494: 07e00593     	li	a1, 0x7e
80004498: 00001097     	auipc	ra, 0x1
8000449c: 814080e7     	jalr	-0x7ec(ra) <core::fmt::Arguments::from_str::he5a021e025a7e189>
800044a0: ffffc097     	auipc	ra, 0xffffc
800044a4: ca0080e7     	jalr	-0x360(ra) <lab4_kernel_task2::console::print::h7473f0160e01bbb6>

00000000800044a8 <.Lpcrel_hi439>:
800044a8: 0001f517     	auipc	a0, 0x1f
800044ac: c3850513     	addi	a0, a0, -0x3c8
800044b0: 26050863     	beqz	a0, 0x80004720 <.Lpcrel_hi456>
800044b4: a009         	j	0x800044b6 <.Lpcrel_hi440>

00000000800044b6 <.Lpcrel_hi440>:
800044b6: 0001f517     	auipc	a0, 0x1f
800044ba: c2a50513     	addi	a0, a0, -0x3d6
800044be: 6108         	ld	a0, 0x0(a0)
800044c0: f8aa         	sd	a0, 0x70(sp)
800044c2: ffffe097     	auipc	ra, 0xffffe
800044c6: 052080e7     	jalr	0x52(ra) <lab4_kernel_task2::root_page_table_pa::h50ea20d77bcc61fb>
800044ca: fcaa         	sd	a0, 0x78(sp)
800044cc: 188c         	addi	a1, sp, 0x70
800044ce: 30b13423     	sd	a1, 0x308(sp)
800044d2: 18a8         	addi	a0, sp, 0x78
800044d4: e02a         	sd	a0, 0x0(sp)
800044d6: 30a13823     	sd	a0, 0x310(sp)
800044da: 1108         	addi	a0, sp, 0xa0
800044dc: 00000097     	auipc	ra, 0x0
800044e0: 43a080e7     	jalr	0x43a(ra) <core::fmt::rt::Argument::new_lower_hex::ha3dbd086c79e0875>
800044e4: 6582         	ld	a1, 0x0(sp)
800044e6: 1908         	addi	a0, sp, 0xb0
800044e8: 00000097     	auipc	ra, 0x0
800044ec: 42e080e7     	jalr	0x42e(ra) <core::fmt::rt::Argument::new_lower_hex::ha3dbd086c79e0875>
800044f0: 752a         	ld	a0, 0xa8(sp)
800044f2: e52a         	sd	a0, 0x88(sp)
800044f4: 750a         	ld	a0, 0xa0(sp)
800044f6: e12a         	sd	a0, 0x80(sp)
800044f8: 756a         	ld	a0, 0xb8(sp)
800044fa: ed2a         	sd	a0, 0x98(sp)
800044fc: 754a         	ld	a0, 0xb0(sp)
800044fe: e92a         	sd	a0, 0x90(sp)

0000000080004500 <.Lpcrel_hi441>:
80004500: 00003517     	auipc	a0, 0x3
80004504: 6a050513     	addi	a0, a0, 0x6a0
80004508: 010c         	addi	a1, sp, 0x80
8000450a: ffffc097     	auipc	ra, 0xffffc
8000450e: db2080e7     	jalr	-0x24e(ra) <core::fmt::Arguments::new::hf000f7ecc3363f91>
80004512: ffffc097     	auipc	ra, 0xffffc
80004516: c2e080e7     	jalr	-0x3d2(ra) <lab4_kernel_task2::console::print::h7473f0160e01bbb6>

000000008000451a <.Lpcrel_hi442>:
8000451a: 00002517     	auipc	a0, 0x2
8000451e: 7b650513     	addi	a0, a0, 0x7b6
80004522: f0aa         	sd	a0, 0x60(sp)
80004524: e1aa         	sd	a0, 0xc0(sp)

0000000080004526 <.Lpcrel_hi443>:
80004526: 00002517     	auipc	a0, 0x2
8000452a: 78a50513     	addi	a0, a0, 0x78a
8000452e: e5aa         	sd	a0, 0xc8(sp)

0000000080004530 <.Lpcrel_hi444>:
80004530: 00002517     	auipc	a0, 0x2
80004534: 7b850513     	addi	a0, a0, 0x7b8
80004538: e9aa         	sd	a0, 0xd0(sp)

000000008000453a <.Lpcrel_hi445>:
8000453a: 00002517     	auipc	a0, 0x2
8000453e: 79e50513     	addi	a0, a0, 0x79e
80004542: edaa         	sd	a0, 0xd8(sp)

0000000080004544 <.Lpcrel_hi446>:
80004544: 00002517     	auipc	a0, 0x2
80004548: 75c50513     	addi	a0, a0, 0x75c
8000454c: f1aa         	sd	a0, 0xe0(sp)
8000454e: 658e         	ld	a1, 0xc0(sp)
80004550: 1a28         	addi	a0, sp, 0x138
80004552: 00000097     	auipc	ra, 0x0
80004556: 3c4080e7     	jalr	0x3c4(ra) <core::fmt::rt::Argument::new_lower_hex::ha3dbd086c79e0875>
8000455a: 65ae         	ld	a1, 0xc8(sp)
8000455c: 02a8         	addi	a0, sp, 0x148
8000455e: 00000097     	auipc	ra, 0x0
80004562: 3b8080e7     	jalr	0x3b8(ra) <core::fmt::rt::Argument::new_lower_hex::ha3dbd086c79e0875>
80004566: 65ce         	ld	a1, 0xd0(sp)
80004568: 0aa8         	addi	a0, sp, 0x158
8000456a: 00000097     	auipc	ra, 0x0
8000456e: 3ac080e7     	jalr	0x3ac(ra) <core::fmt::rt::Argument::new_lower_hex::ha3dbd086c79e0875>
80004572: 65ee         	ld	a1, 0xd8(sp)
80004574: 12a8         	addi	a0, sp, 0x168
80004576: 00000097     	auipc	ra, 0x0
8000457a: 3a0080e7     	jalr	0x3a0(ra) <core::fmt::rt::Argument::new_lower_hex::ha3dbd086c79e0875>
8000457e: 758e         	ld	a1, 0xe0(sp)
80004580: 1aa8         	addi	a0, sp, 0x178
80004582: 00000097     	auipc	ra, 0x0
80004586: 394080e7     	jalr	0x394(ra) <core::fmt::rt::Argument::new_lower_hex::ha3dbd086c79e0875>
8000458a: 6516         	ld	a0, 0x140(sp)
8000458c: f9aa         	sd	a0, 0xf0(sp)
8000458e: 7572         	ld	a0, 0x138(sp)
80004590: f5aa         	sd	a0, 0xe8(sp)
80004592: 6556         	ld	a0, 0x150(sp)
80004594: e22a         	sd	a0, 0x100(sp)
80004596: 6536         	ld	a0, 0x148(sp)
80004598: fdaa         	sd	a0, 0xf8(sp)
8000459a: 7516         	ld	a0, 0x160(sp)
8000459c: ea2a         	sd	a0, 0x110(sp)
8000459e: 6576         	ld	a0, 0x158(sp)
800045a0: e62a         	sd	a0, 0x108(sp)
800045a2: 7556         	ld	a0, 0x170(sp)
800045a4: f22a         	sd	a0, 0x120(sp)
800045a6: 7536         	ld	a0, 0x168(sp)
800045a8: ee2a         	sd	a0, 0x118(sp)
800045aa: 651a         	ld	a0, 0x180(sp)
800045ac: fa2a         	sd	a0, 0x130(sp)
800045ae: 7576         	ld	a0, 0x178(sp)
800045b0: f62a         	sd	a0, 0x128(sp)

00000000800045b2 <.Lpcrel_hi447>:
800045b2: 00003517     	auipc	a0, 0x3
800045b6: 61a50513     	addi	a0, a0, 0x61a
800045ba: 11ac         	addi	a1, sp, 0xe8
800045bc: ffffc097     	auipc	ra, 0xffffc
800045c0: cce080e7     	jalr	-0x332(ra) <core::fmt::Arguments::new::h8c704b6e7d85085b>
800045c4: ffffc097     	auipc	ra, 0xffffc
800045c8: b7c080e7     	jalr	-0x484(ra) <lab4_kernel_task2::console::print::h7473f0160e01bbb6>
800045cc: 0328         	addi	a0, sp, 0x188
800045ce: e82a         	sd	a0, 0x10(sp)
800045d0: 004005b7     	lui	a1, 0x400
800045d4: e42e         	sd	a1, 0x8(sp)
800045d6: ffffd097     	auipc	ra, 0xffffd
800045da: dac080e7     	jalr	-0x254(ra) <lab4_kernel_task2::walk_virtual::haeedce58dbcc1375>
800045de: 6622         	ld	a2, 0x8(sp)
800045e0: 66c2         	ld	a3, 0x10(sp)

00000000800045e2 <.Lpcrel_hi448>:
800045e2: 00003517     	auipc	a0, 0x3
800045e6: 65950513     	addi	a0, a0, 0x659
800045ea: 45a5         	li	a1, 0x9
800045ec: ffffd097     	auipc	ra, 0xffffd
800045f0: 89e080e7     	jalr	-0x762(ra) <lab4_kernel_task2::print_walk::hba181e23c4f2f5d4>
800045f4: 03a8         	addi	a0, sp, 0x1c8
800045f6: f02a         	sd	a0, 0x20(sp)
800045f8: 004015b7     	lui	a1, 0x401
800045fc: ec2e         	sd	a1, 0x18(sp)
800045fe: ffffd097     	auipc	ra, 0xffffd
80004602: d84080e7     	jalr	-0x27c(ra) <lab4_kernel_task2::walk_virtual::haeedce58dbcc1375>
80004606: 6662         	ld	a2, 0x18(sp)
80004608: 7682         	ld	a3, 0x20(sp)

000000008000460a <.Lpcrel_hi449>:
8000460a: 00003517     	auipc	a0, 0x3
8000460e: 63a50513     	addi	a0, a0, 0x63a
80004612: 45ad         	li	a1, 0xb
80004614: ffffd097     	auipc	ra, 0xffffd
80004618: 876080e7     	jalr	-0x78a(ra) <lab4_kernel_task2::print_walk::hba181e23c4f2f5d4>
8000461c: 0428         	addi	a0, sp, 0x208
8000461e: f82a         	sd	a0, 0x30(sp)
80004620: 004025b7     	lui	a1, 0x402
80004624: f42e         	sd	a1, 0x28(sp)
80004626: ffffd097     	auipc	ra, 0xffffd
8000462a: d5c080e7     	jalr	-0x2a4(ra) <lab4_kernel_task2::walk_virtual::haeedce58dbcc1375>
8000462e: 7622         	ld	a2, 0x28(sp)
80004630: 76c2         	ld	a3, 0x30(sp)

0000000080004632 <.Lpcrel_hi450>:
80004632: 00003517     	auipc	a0, 0x3
80004636: 61d50513     	addi	a0, a0, 0x61d
8000463a: 45a9         	li	a1, 0xa
8000463c: ffffd097     	auipc	ra, 0xffffd
80004640: 84e080e7     	jalr	-0x7b2(ra) <lab4_kernel_task2::print_walk::hba181e23c4f2f5d4>
80004644: 04a8         	addi	a0, sp, 0x248
80004646: e0aa         	sd	a0, 0x40(sp)
80004648: 004105b7     	lui	a1, 0x410
8000464c: fc2e         	sd	a1, 0x38(sp)
8000464e: ffffd097     	auipc	ra, 0xffffd
80004652: d34080e7     	jalr	-0x2cc(ra) <lab4_kernel_task2::walk_virtual::haeedce58dbcc1375>
80004656: 7662         	ld	a2, 0x38(sp)
80004658: 6686         	ld	a3, 0x40(sp)

000000008000465a <.Lpcrel_hi451>:
8000465a: 00003517     	auipc	a0, 0x3
8000465e: 5ff50513     	addi	a0, a0, 0x5ff
80004662: 45cd         	li	a1, 0x13
80004664: e4ae         	sd	a1, 0x48(sp)
80004666: ffffd097     	auipc	ra, 0xffffd
8000466a: 824080e7     	jalr	-0x7dc(ra) <lab4_kernel_task2::print_walk::hba181e23c4f2f5d4>
8000466e: 0528         	addi	a0, sp, 0x288
80004670: ecaa         	sd	a0, 0x58(sp)
80004672: 004205b7     	lui	a1, 0x420
80004676: e8ae         	sd	a1, 0x50(sp)
80004678: ffffd097     	auipc	ra, 0xffffd
8000467c: d0a080e7     	jalr	-0x2f6(ra) <lab4_kernel_task2::walk_virtual::haeedce58dbcc1375>
80004680: 65a6         	ld	a1, 0x48(sp)
80004682: 6646         	ld	a2, 0x50(sp)
80004684: 66e6         	ld	a3, 0x58(sp)

0000000080004686 <.Lpcrel_hi452>:
80004686: 00003517     	auipc	a0, 0x3
8000468a: 5e650513     	addi	a0, a0, 0x5e6
8000468e: ffffc097     	auipc	ra, 0xffffc
80004692: 7fc080e7     	jalr	0x7fc(ra) <lab4_kernel_task2::print_walk::hba181e23c4f2f5d4>
80004696: 7586         	ld	a1, 0x60(sp)
80004698: 30b13c23     	sd	a1, 0x318(sp)

000000008000469c <.Lpcrel_hi453>:
8000469c: 00002517     	auipc	a0, 0x2
800046a0: 64450513     	addi	a0, a0, 0x644
800046a4: f4aa         	sd	a0, 0x68(sp)
800046a6: 32a13023     	sd	a0, 0x320(sp)
800046aa: 15a8         	addi	a0, sp, 0x2e8
800046ac: 00000097     	auipc	ra, 0x0
800046b0: 26a080e7     	jalr	0x26a(ra) <core::fmt::rt::Argument::new_lower_hex::ha3dbd086c79e0875>
800046b4: 75a6         	ld	a1, 0x68(sp)
800046b6: 1da8         	addi	a0, sp, 0x2f8
800046b8: 00000097     	auipc	ra, 0x0
800046bc: 25e080e7     	jalr	0x25e(ra) <core::fmt::rt::Argument::new_lower_hex::ha3dbd086c79e0875>
800046c0: 2f013503     	ld	a0, 0x2f0(sp)
800046c4: 2ca13823     	sd	a0, 0x2d0(sp)
800046c8: 2e813503     	ld	a0, 0x2e8(sp)
800046cc: 2ca13423     	sd	a0, 0x2c8(sp)
800046d0: 30013503     	ld	a0, 0x300(sp)
800046d4: 2ea13023     	sd	a0, 0x2e0(sp)
800046d8: 2f813503     	ld	a0, 0x2f8(sp)
800046dc: 2ca13c23     	sd	a0, 0x2d8(sp)

00000000800046e0 <.Lpcrel_hi454>:
800046e0: 00003517     	auipc	a0, 0x3
800046e4: 59f50513     	addi	a0, a0, 0x59f
800046e8: 05ac         	addi	a1, sp, 0x2c8
800046ea: ffffc097     	auipc	ra, 0xffffc
800046ee: b5a080e7     	jalr	-0x4a6(ra) <core::fmt::Arguments::new::h503c74d2cc1a6574>
800046f2: ffffc097     	auipc	ra, 0xffffc
800046f6: a4e080e7     	jalr	-0x5b2(ra) <lab4_kernel_task2::console::print::h7473f0160e01bbb6>
800046fa: fffff097     	auipc	ra, 0xfffff
800046fe: 13e080e7     	jalr	0x13e(ra) <lab4_kernel_task2::supervisor_trap_stack_top::ha0d3fe225e224844>
80004702: 14051073     	csrw	sscratch, a0
80004706: fffff097     	auipc	ra, 0xfffff
8000470a: 132080e7     	jalr	0x132(ra) <lab4_kernel_task2::supervisor_trap_stack_top::ha0d3fe225e224844>
8000470e: 85aa         	mv	a1, a0

0000000080004710 <.Lpcrel_hi455>:
80004710: 00005517     	auipc	a0, 0x5
80004714: 93050513     	addi	a0, a0, -0x6d0
80004718: ffffc097     	auipc	ra, 0xffffc
8000471c: 0fe080e7     	jalr	0xfe(ra) <enter_user_task>

0000000080004720 <.Lpcrel_hi456>:
80004720: 00003517     	auipc	a0, 0x3
80004724: 46850513     	addi	a0, a0, 0x468
80004728: 00001097     	auipc	ra, 0x1
8000472c: 714080e7     	jalr	0x714(ra) <core::panicking::panic_null_pointer_dereference::hbac6411af4f2e916>

0000000080004730 <core::slice::raw::from_raw_parts::h9e7de5e3295b8974>:
80004730: 7179         	addi	sp, sp, -0x30
80004732: f406         	sd	ra, 0x28(sp)
80004734: e032         	sd	a2, 0x0(sp)
80004736: e42e         	sd	a1, 0x8(sp)
80004738: e82a         	sd	a0, 0x10(sp)
8000473a: ec2a         	sd	a0, 0x18(sp)
8000473c: f02e         	sd	a1, 0x20(sp)
8000473e: a009         	j	0x80004740 <core::slice::raw::from_raw_parts::h9e7de5e3295b8974+0x10>
80004740: 6702         	ld	a4, 0x0(sp)
80004742: 66a2         	ld	a3, 0x8(sp)
80004744: 6542         	ld	a0, 0x10(sp)
80004746: 4605         	li	a2, 0x1
80004748: 85b2         	mv	a1, a2
8000474a: 00000097     	auipc	ra, 0x0
8000474e: 2ec080e7     	jalr	0x2ec(ra) <core::slice::raw::from_raw_parts::precondition_check::h742e524aa6a91f4e>
80004752: a009         	j	0x80004754 <core::slice::raw::from_raw_parts::h9e7de5e3295b8974+0x24>
80004754: 65a2         	ld	a1, 0x8(sp)
80004756: 6542         	ld	a0, 0x10(sp)
80004758: 70a2         	ld	ra, 0x28(sp)
8000475a: 6145         	addi	sp, sp, 0x30
8000475c: 8082         	ret

000000008000475e <core::ptr::write_volatile::h078fc608e60963da>:
8000475e: 7179         	addi	sp, sp, -0x30
80004760: f406         	sd	ra, 0x28(sp)
80004762: e032         	sd	a2, 0x0(sp)
80004764: e42a         	sd	a0, 0x8(sp)
80004766: 862e         	mv	a2, a1
80004768: e832         	sd	a2, 0x10(sp)
8000476a: ec2a         	sd	a0, 0x18(sp)
8000476c: d22e         	sw	a1, 0x24(sp)
8000476e: a009         	j	0x80004770 <core::ptr::write_volatile::h078fc608e60963da+0x12>
80004770: 6602         	ld	a2, 0x0(sp)
80004772: 6522         	ld	a0, 0x8(sp)
80004774: 4591         	li	a1, 0x4
80004776: ffffc097     	auipc	ra, 0xffffc
8000477a: bd6080e7     	jalr	-0x42a(ra) <core::ptr::write_volatile::precondition_check::hef6e31747b89ab5e>
8000477e: a009         	j	0x80004780 <core::ptr::write_volatile::h078fc608e60963da+0x22>
80004780: 6542         	ld	a0, 0x10(sp)
80004782: 65a2         	ld	a1, 0x8(sp)
80004784: c188         	sw	a0, 0x0(a1)
80004786: 70a2         	ld	ra, 0x28(sp)
80004788: 6145         	addi	sp, sp, 0x30
8000478a: 8082         	ret

000000008000478c <core::ptr::write_volatile::h83645ac48518bb63>:
8000478c: 7179         	addi	sp, sp, -0x30
8000478e: f406         	sd	ra, 0x28(sp)
80004790: e032         	sd	a2, 0x0(sp)
80004792: e42a         	sd	a0, 0x8(sp)
80004794: 862e         	mv	a2, a1
80004796: e832         	sd	a2, 0x10(sp)
80004798: ec2a         	sd	a0, 0x18(sp)
8000479a: 02b103a3     	sb	a1, 0x27(sp)
8000479e: a009         	j	0x800047a0 <core::ptr::write_volatile::h83645ac48518bb63+0x14>
800047a0: 6602         	ld	a2, 0x0(sp)
800047a2: 6522         	ld	a0, 0x8(sp)
800047a4: 4585         	li	a1, 0x1
800047a6: ffffc097     	auipc	ra, 0xffffc
800047aa: ba6080e7     	jalr	-0x45a(ra) <core::ptr::write_volatile::precondition_check::hef6e31747b89ab5e>
800047ae: a009         	j	0x800047b0 <core::ptr::write_volatile::h83645ac48518bb63+0x24>
800047b0: 6542         	ld	a0, 0x10(sp)
800047b2: 65a2         	ld	a1, 0x8(sp)
800047b4: 00a58023     	sb	a0, 0x0(a1)
800047b8: 70a2         	ld	ra, 0x28(sp)
800047ba: 6145         	addi	sp, sp, 0x30
800047bc: 8082         	ret

00000000800047be <core::ub_checks::maybe_is_nonoverlapping::runtime::ha83d3b8e068fd983>:
800047be: 7119         	addi	sp, sp, -0x80
800047c0: fc2a         	sd	a0, 0x38(sp)
800047c2: e0ae         	sd	a1, 0x40(sp)
800047c4: e4b2         	sd	a2, 0x48(sp)
800047c6: e8b6         	sd	a3, 0x50(sp)
800047c8: 872a         	mv	a4, a0
800047ca: e43a         	sd	a4, 0x8(sp)
800047cc: ecaa         	sd	a0, 0x58(sp)
800047ce: 852e         	mv	a0, a1
800047d0: e82a         	sd	a0, 0x10(sp)
800047d2: f0ae         	sd	a1, 0x60(sp)
800047d4: 02d605b3     	mul	a1, a2, a3
800047d8: ec2e         	sd	a1, 0x18(sp)
800047da: 02d63533     	mulhu	a0, a2, a3
800047de: 00a03633     	snez	a2, a0
800047e2: 06c107a3     	sb	a2, 0x6f(sp)
800047e6: f8ae         	sd	a1, 0x70(sp)
800047e8: ed11         	bnez	a0, 0x80004804 <.Lpcrel_hi0>
800047ea: a009         	j	0x800047ec <core::ub_checks::maybe_is_nonoverlapping::runtime::ha83d3b8e068fd983+0x2e>
800047ec: 6522         	ld	a0, 0x8(sp)
800047ee: 65c2         	ld	a1, 0x10(sp)
800047f0: 6662         	ld	a2, 0x18(sp)
800047f2: f432         	sd	a2, 0x28(sp)
800047f4: 4605         	li	a2, 0x1
800047f6: f032         	sd	a2, 0x20(sp)
800047f8: 7622         	ld	a2, 0x28(sp)
800047fa: e032         	sd	a2, 0x0(sp)
800047fc: fcb2         	sd	a2, 0x78(sp)
800047fe: 02b56263     	bltu	a0, a1, 0x80004822 <.Lpcrel_hi0+0x1e>
80004802: a819         	j	0x80004818 <.Lpcrel_hi0+0x14>

0000000080004804 <.Lpcrel_hi0>:
80004804: 00003517     	auipc	a0, 0x3
80004808: 4cb50513     	addi	a0, a0, 0x4cb
8000480c: 03d00593     	li	a1, 0x3d
80004810: 00001097     	auipc	ra, 0x1
80004814: 5a2080e7     	jalr	0x5a2(ra) <core::panicking::panic_nounwind::hf19a354d0b2d9097>
80004818: 6522         	ld	a0, 0x8(sp)
8000481a: 65c2         	ld	a1, 0x10(sp)
8000481c: 8d0d         	sub	a0, a0, a1
8000481e: f82a         	sd	a0, 0x30(sp)
80004820: a031         	j	0x8000482c <.Lpcrel_hi0+0x28>
80004822: 6542         	ld	a0, 0x10(sp)
80004824: 65a2         	ld	a1, 0x8(sp)
80004826: 8d0d         	sub	a0, a0, a1
80004828: f82a         	sd	a0, 0x30(sp)
8000482a: a009         	j	0x8000482c <.Lpcrel_hi0+0x28>
8000482c: 6582         	ld	a1, 0x0(sp)
8000482e: 7542         	ld	a0, 0x30(sp)
80004830: 00b53533     	sltu	a0, a0, a1
80004834: 00154513     	xori	a0, a0, 0x1
80004838: 6109         	addi	sp, sp, 0x80
8000483a: 8082         	ret

000000008000483c <_$LT$core..result..Result$LT$T$C$F$GT$$u20$as$u20$core..ops..try_trait..FromResidual$LT$core..result..Result$LT$core..convert..Infallible$C$E$GT$$GT$$GT$::from_residual::h2f489179e71b4b46>:
8000483c: 1141         	addi	sp, sp, -0x10
8000483e: 4505         	li	a0, 0x1
80004840: 0141         	addi	sp, sp, 0x10
80004842: 8082         	ret

0000000080004844 <_$LT$core..result..Result$LT$T$C$E$GT$$u20$as$u20$core..ops..try_trait..Try$GT$::branch::heeb17d6896b3dafa>:
80004844: 1141         	addi	sp, sp, -0x10
80004846: 00a10623     	sb	a0, 0xc(sp)
8000484a: 00c14503     	lbu	a0, 0xc(sp)
8000484e: 8905         	andi	a0, a0, 0x1
80004850: c511         	beqz	a0, 0x8000485c <_$LT$core..result..Result$LT$T$C$E$GT$$u20$as$u20$core..ops..try_trait..Try$GT$::branch::heeb17d6896b3dafa+0x18>
80004852: a009         	j	0x80004854 <_$LT$core..result..Result$LT$T$C$E$GT$$u20$as$u20$core..ops..try_trait..Try$GT$::branch::heeb17d6896b3dafa+0x10>
80004854: 4505         	li	a0, 0x1
80004856: 00a106a3     	sb	a0, 0xd(sp)
8000485a: a029         	j	0x80004864 <_$LT$core..result..Result$LT$T$C$E$GT$$u20$as$u20$core..ops..try_trait..Try$GT$::branch::heeb17d6896b3dafa+0x20>
8000485c: 4501         	li	a0, 0x0
8000485e: 00a106a3     	sb	a0, 0xd(sp)
80004862: a009         	j	0x80004864 <_$LT$core..result..Result$LT$T$C$E$GT$$u20$as$u20$core..ops..try_trait..Try$GT$::branch::heeb17d6896b3dafa+0x20>
80004864: 00d14503     	lbu	a0, 0xd(sp)
80004868: 0141         	addi	sp, sp, 0x10
8000486a: 8082         	ret

000000008000486c <core::fmt::rt::Argument::new_display::h24276cf34e331af1>:
8000486c: 1101         	addi	sp, sp, -0x20
8000486e: e02e         	sd	a1, 0x0(sp)
80004870: 85aa         	mv	a1, a0
80004872: 6502         	ld	a0, 0x0(sp)
80004874: ec2a         	sd	a0, 0x18(sp)
80004876: e42a         	sd	a0, 0x8(sp)

0000000080004878 <.Lpcrel_hi0>:
80004878: 00000517     	auipc	a0, 0x0
8000487c: 6ce50513     	addi	a0, a0, 0x6ce
80004880: e82a         	sd	a0, 0x10(sp)
80004882: 6542         	ld	a0, 0x10(sp)
80004884: e588         	sd	a0, 0x8(a1)
80004886: 6522         	ld	a0, 0x8(sp)
80004888: e188         	sd	a0, 0x0(a1)
8000488a: 6105         	addi	sp, sp, 0x20
8000488c: 8082         	ret

000000008000488e <core::fmt::rt::Argument::new_display::h9aa9b8b69faee6ac>:
8000488e: 1101         	addi	sp, sp, -0x20
80004890: e02e         	sd	a1, 0x0(sp)
80004892: 85aa         	mv	a1, a0
80004894: 6502         	ld	a0, 0x0(sp)
80004896: ec2a         	sd	a0, 0x18(sp)
80004898: e42a         	sd	a0, 0x8(sp)

000000008000489a <.Lpcrel_hi1>:
8000489a: 00001517     	auipc	a0, 0x1
8000489e: bc650513     	addi	a0, a0, -0x43a
800048a2: e82a         	sd	a0, 0x10(sp)
800048a4: 6542         	ld	a0, 0x10(sp)
800048a6: e588         	sd	a0, 0x8(a1)
800048a8: 6522         	ld	a0, 0x8(sp)
800048aa: e188         	sd	a0, 0x0(a1)
800048ac: 6105         	addi	sp, sp, 0x20
800048ae: 8082         	ret

00000000800048b0 <core::fmt::rt::Argument::new_display::ha3bba816af074122>:
800048b0: 1101         	addi	sp, sp, -0x20
800048b2: e02e         	sd	a1, 0x0(sp)
800048b4: 85aa         	mv	a1, a0
800048b6: 6502         	ld	a0, 0x0(sp)
800048b8: ec2a         	sd	a0, 0x18(sp)
800048ba: e42a         	sd	a0, 0x8(sp)

00000000800048bc <.Lpcrel_hi2>:
800048bc: ffffc517     	auipc	a0, 0xffffc
800048c0: 92e50513     	addi	a0, a0, -0x6d2
800048c4: e82a         	sd	a0, 0x10(sp)
800048c6: 6542         	ld	a0, 0x10(sp)
800048c8: e588         	sd	a0, 0x8(a1)
800048ca: 6522         	ld	a0, 0x8(sp)
800048cc: e188         	sd	a0, 0x0(a1)
800048ce: 6105         	addi	sp, sp, 0x20
800048d0: 8082         	ret

00000000800048d2 <core::fmt::rt::Argument::new_display::ha91086b5e2ab1d77>:
800048d2: 1101         	addi	sp, sp, -0x20
800048d4: e02e         	sd	a1, 0x0(sp)
800048d6: 85aa         	mv	a1, a0
800048d8: 6502         	ld	a0, 0x0(sp)
800048da: ec2a         	sd	a0, 0x18(sp)
800048dc: e42a         	sd	a0, 0x8(sp)

00000000800048de <.Lpcrel_hi3>:
800048de: ffffc517     	auipc	a0, 0xffffc
800048e2: 9f250513     	addi	a0, a0, -0x60e
800048e6: e82a         	sd	a0, 0x10(sp)
800048e8: 6542         	ld	a0, 0x10(sp)
800048ea: e588         	sd	a0, 0x8(a1)
800048ec: 6522         	ld	a0, 0x8(sp)
800048ee: e188         	sd	a0, 0x0(a1)
800048f0: 6105         	addi	sp, sp, 0x20
800048f2: 8082         	ret

00000000800048f4 <core::fmt::rt::Argument::new_display::he9a61a9b186bb081>:
800048f4: 1101         	addi	sp, sp, -0x20
800048f6: e02e         	sd	a1, 0x0(sp)
800048f8: 85aa         	mv	a1, a0
800048fa: 6502         	ld	a0, 0x0(sp)
800048fc: ec2a         	sd	a0, 0x18(sp)
800048fe: e42a         	sd	a0, 0x8(sp)

0000000080004900 <.Lpcrel_hi4>:
80004900: fffff517     	auipc	a0, 0xfffff
80004904: 75050513     	addi	a0, a0, 0x750
80004908: e82a         	sd	a0, 0x10(sp)
8000490a: 6542         	ld	a0, 0x10(sp)
8000490c: e588         	sd	a0, 0x8(a1)
8000490e: 6522         	ld	a0, 0x8(sp)
80004910: e188         	sd	a0, 0x0(a1)
80004912: 6105         	addi	sp, sp, 0x20
80004914: 8082         	ret

0000000080004916 <core::fmt::rt::Argument::new_lower_hex::ha3dbd086c79e0875>:
80004916: 1101         	addi	sp, sp, -0x20
80004918: e02e         	sd	a1, 0x0(sp)
8000491a: 85aa         	mv	a1, a0
8000491c: 6502         	ld	a0, 0x0(sp)
8000491e: ec2a         	sd	a0, 0x18(sp)
80004920: e42a         	sd	a0, 0x8(sp)

0000000080004922 <.Lpcrel_hi5>:
80004922: 00001517     	auipc	a0, 0x1
80004926: b8a50513     	addi	a0, a0, -0x476
8000492a: e82a         	sd	a0, 0x10(sp)
8000492c: 6542         	ld	a0, 0x10(sp)
8000492e: e588         	sd	a0, 0x8(a1)
80004930: 6522         	ld	a0, 0x8(sp)
80004932: e188         	sd	a0, 0x0(a1)
80004934: 6105         	addi	sp, sp, 0x20
80004936: 8082         	ret

0000000080004938 <core::fmt::rt::Argument::new_lower_hex::hb5471ebe86759598>:
80004938: 1101         	addi	sp, sp, -0x20
8000493a: e02e         	sd	a1, 0x0(sp)
8000493c: 85aa         	mv	a1, a0
8000493e: 6502         	ld	a0, 0x0(sp)
80004940: ec2a         	sd	a0, 0x18(sp)
80004942: e42a         	sd	a0, 0x8(sp)

0000000080004944 <.Lpcrel_hi6>:
80004944: 00001517     	auipc	a0, 0x1
80004948: b6850513     	addi	a0, a0, -0x498
8000494c: e82a         	sd	a0, 0x10(sp)
8000494e: 6542         	ld	a0, 0x10(sp)
80004950: e588         	sd	a0, 0x8(a1)
80004952: 6522         	ld	a0, 0x8(sp)
80004954: e188         	sd	a0, 0x0(a1)
80004956: 6105         	addi	sp, sp, 0x20
80004958: 8082         	ret

000000008000495a <_$LT$usize$u20$as$u20$core..iter..range..Step$GT$::forward_unchecked::h751953b5cbae0f65>:
8000495a: 7179         	addi	sp, sp, -0x30
8000495c: f406         	sd	ra, 0x28(sp)
8000495e: e42e         	sd	a1, 0x8(sp)
80004960: e82a         	sd	a0, 0x10(sp)
80004962: ec2a         	sd	a0, 0x18(sp)
80004964: f02e         	sd	a1, 0x20(sp)
80004966: a009         	j	0x80004968 <_$LT$usize$u20$as$u20$core..iter..range..Step$GT$::forward_unchecked::h751953b5cbae0f65+0xe>
80004968: 65a2         	ld	a1, 0x8(sp)
8000496a: 6542         	ld	a0, 0x10(sp)

000000008000496c <.Lpcrel_hi0>:
8000496c: 00003617     	auipc	a2, 0x3
80004970: 3a460613     	addi	a2, a2, 0x3a4
80004974: ffffb097     	auipc	ra, 0xffffb
80004978: 6e4080e7     	jalr	0x6e4(ra) <core::num::_$LT$impl$u20$usize$GT$::unchecked_add::precondition_check::h64681f27f0cb7859>
8000497c: a009         	j	0x8000497e <.Lpcrel_hi0+0x12>
8000497e: 6542         	ld	a0, 0x10(sp)
80004980: 65a2         	ld	a1, 0x8(sp)
80004982: 952e         	add	a0, a0, a1
80004984: 70a2         	ld	ra, 0x28(sp)
80004986: 6145         	addi	sp, sp, 0x30
80004988: 8082         	ret

000000008000498a <core::iter::range::_$LT$impl$u20$core..iter..traits..iterator..Iterator$u20$for$u20$core..ops..range..Range$LT$A$GT$$GT$::next::h1cbf565076fd6def>:
8000498a: 1141         	addi	sp, sp, -0x10
8000498c: e406         	sd	ra, 0x8(sp)
8000498e: e02a         	sd	a0, 0x0(sp)
80004990: 00000097     	auipc	ra, 0x0
80004994: 018080e7     	jalr	0x18(ra) <_$LT$core..ops..range..Range$LT$T$GT$$u20$as$u20$core..iter..range..RangeIteratorImpl$GT$::spec_next::hc9d375d3d759315e>
80004998: 60a2         	ld	ra, 0x8(sp)
8000499a: 0141         	addi	sp, sp, 0x10
8000499c: 8082         	ret

000000008000499e <_$LT$I$u20$as$u20$core..iter..traits..collect..IntoIterator$GT$::into_iter::h1fc85f52cf5a3515>:
8000499e: 1141         	addi	sp, sp, -0x10
800049a0: e02a         	sd	a0, 0x0(sp)
800049a2: e42e         	sd	a1, 0x8(sp)
800049a4: 0141         	addi	sp, sp, 0x10
800049a6: 8082         	ret

00000000800049a8 <_$LT$core..ops..range..Range$LT$T$GT$$u20$as$u20$core..iter..range..RangeIteratorImpl$GT$::spec_next::hc9d375d3d759315e>:
800049a8: 715d         	addi	sp, sp, -0x50
800049aa: e486         	sd	ra, 0x48(sp)
800049ac: 85aa         	mv	a1, a0
800049ae: e82e         	sd	a1, 0x10(sp)
800049b0: f42e         	sd	a1, 0x28(sp)
800049b2: 00858513     	addi	a0, a1, 0x8
800049b6: fc2e         	sd	a1, 0x38(sp)
800049b8: e0aa         	sd	a0, 0x40(sp)
800049ba: 6188         	ld	a0, 0x0(a1)
800049bc: 658c         	ld	a1, 0x8(a1)
800049be: 00b56663     	bltu	a0, a1, 0x800049ca <_$LT$core..ops..range..Range$LT$T$GT$$u20$as$u20$core..iter..range..RangeIteratorImpl$GT$::spec_next::hc9d375d3d759315e+0x22>
800049c2: a009         	j	0x800049c4 <_$LT$core..ops..range..Range$LT$T$GT$$u20$as$u20$core..iter..range..RangeIteratorImpl$GT$::spec_next::hc9d375d3d759315e+0x1c>
800049c4: 4501         	li	a0, 0x0
800049c6: ec2a         	sd	a0, 0x18(sp)
800049c8: a01d         	j	0x800049ee <_$LT$core..ops..range..Range$LT$T$GT$$u20$as$u20$core..iter..range..RangeIteratorImpl$GT$::spec_next::hc9d375d3d759315e+0x46>
800049ca: 6542         	ld	a0, 0x10(sp)
800049cc: 6108         	ld	a0, 0x0(a0)
800049ce: e02a         	sd	a0, 0x0(sp)
800049d0: f82a         	sd	a0, 0x30(sp)
800049d2: 4585         	li	a1, 0x1
800049d4: e42e         	sd	a1, 0x8(sp)
800049d6: 00000097     	auipc	ra, 0x0
800049da: f84080e7     	jalr	-0x7c(ra) <_$LT$usize$u20$as$u20$core..iter..range..Step$GT$::forward_unchecked::h751953b5cbae0f65>
800049de: 66c2         	ld	a3, 0x10(sp)
800049e0: 6582         	ld	a1, 0x0(sp)
800049e2: 862a         	mv	a2, a0
800049e4: 6522         	ld	a0, 0x8(sp)
800049e6: e290         	sd	a2, 0x0(a3)
800049e8: f02e         	sd	a1, 0x20(sp)
800049ea: ec2a         	sd	a0, 0x18(sp)
800049ec: a009         	j	0x800049ee <_$LT$core..ops..range..Range$LT$T$GT$$u20$as$u20$core..iter..range..RangeIteratorImpl$GT$::spec_next::hc9d375d3d759315e+0x46>
800049ee: 6562         	ld	a0, 0x18(sp)
800049f0: 7582         	ld	a1, 0x20(sp)
800049f2: 60a6         	ld	ra, 0x48(sp)
800049f4: 6161         	addi	sp, sp, 0x50
800049f6: 8082         	ret

00000000800049f8 <lab4_kernel_task2::handle_lazy_page_fault::_$u7b$$u7b$closure$u7d$$u7d$::he0dc969af613f2fd>:
800049f8: 1141         	addi	sp, sp, -0x10

00000000800049fa <.Lpcrel_hi0>:
800049fa: 00003517     	auipc	a0, 0x3
800049fe: 32e50513     	addi	a0, a0, 0x32e
80004a02: 02300593     	li	a1, 0x23
80004a06: ffffd097     	auipc	ra, 0xffffd
80004a0a: 894080e7     	jalr	-0x76c(ra) <lab4_kernel_task2::kernel_fail::h81ee1edb0feee17d>

0000000080004a0e <lab4_kernel_task2::sys_mmap::_$u7b$$u7b$closure$u7d$$u7d$::hf4fab3b45c6f9634>:
80004a0e: 1141         	addi	sp, sp, -0x10

0000000080004a10 <.Lpcrel_hi1>:
80004a10: 00003517     	auipc	a0, 0x3
80004a14: 33b50513     	addi	a0, a0, 0x33b
80004a18: 45e5         	li	a1, 0x19
80004a1a: ffffd097     	auipc	ra, 0xffffd
80004a1e: 880080e7     	jalr	-0x780(ra) <lab4_kernel_task2::kernel_fail::h81ee1edb0feee17d>

0000000080004a22 <lab4_kernel_task2::sys_sbrk::_$u7b$$u7b$closure$u7d$$u7d$::hcfc1ff9edc618c45>:
80004a22: 1141         	addi	sp, sp, -0x10

0000000080004a24 <.Lpcrel_hi2>:
80004a24: 00003517     	auipc	a0, 0x3
80004a28: 34050513     	addi	a0, a0, 0x340
80004a2c: 45cd         	li	a1, 0x13
80004a2e: ffffd097     	auipc	ra, 0xffffd
80004a32: 86c080e7     	jalr	-0x794(ra) <lab4_kernel_task2::kernel_fail::h81ee1edb0feee17d>

0000000080004a36 <core::slice::raw::from_raw_parts::precondition_check::h742e524aa6a91f4e>:
80004a36: 7119         	addi	sp, sp, -0x80
80004a38: fc86         	sd	ra, 0x78(sp)
80004a3a: e43a         	sd	a4, 0x8(sp)
80004a3c: e836         	sd	a3, 0x10(sp)
80004a3e: ec32         	sd	a2, 0x18(sp)
80004a40: 862e         	mv	a2, a1
80004a42: 65e2         	ld	a1, 0x18(sp)
80004a44: f032         	sd	a2, 0x20(sp)
80004a46: f42a         	sd	a0, 0x28(sp)
80004a48: fc2a         	sd	a0, 0x38(sp)
80004a4a: e0b2         	sd	a2, 0x40(sp)
80004a4c: e4ae         	sd	a1, 0x48(sp)
80004a4e: e8b6         	sd	a3, 0x50(sp)
80004a50: 4601         	li	a2, 0x0
80004a52: 04c10fa3     	sb	a2, 0x5f(sp)
80004a56: f0aa         	sd	a0, 0x60(sp)
80004a58: 00000097     	auipc	ra, 0x0
80004a5c: 122080e7     	jalr	0x122(ra) <core::ptr::const_ptr::_$LT$impl$u20$$BP$const$u20$T$GT$::is_aligned_to::h4c8226da7274faff>
80004a60: e119         	bnez	a0, 0x80004a66 <core::slice::raw::from_raw_parts::precondition_check::h742e524aa6a91f4e+0x30>
80004a62: a009         	j	0x80004a64 <core::slice::raw::from_raw_parts::precondition_check::h742e524aa6a91f4e+0x2e>
80004a64: a021         	j	0x80004a6c <core::slice::raw::from_raw_parts::precondition_check::h742e524aa6a91f4e+0x36>
80004a66: 7522         	ld	a0, 0x28(sp)
80004a68: e119         	bnez	a0, 0x80004a6e <core::slice::raw::from_raw_parts::precondition_check::h742e524aa6a91f4e+0x38>
80004a6a: a009         	j	0x80004a6c <core::slice::raw::from_raw_parts::precondition_check::h742e524aa6a91f4e+0x36>
80004a6c: a039         	j	0x80004a7a <core::slice::raw::from_raw_parts::precondition_check::h742e524aa6a91f4e+0x44>
80004a6e: 7502         	ld	a0, 0x20(sp)
80004a70: 00153593     	seqz	a1, a0
80004a74: e02e         	sd	a1, 0x0(sp)
80004a76: c115         	beqz	a0, 0x80004a9a <.Lpcrel_hi0+0x1e>
80004a78: a025         	j	0x80004aa0 <.Lpcrel_hi0+0x24>
80004a7a: 66a2         	ld	a3, 0x8(sp)

0000000080004a7c <.Lpcrel_hi0>:
80004a7c: 00003517     	auipc	a0, 0x3
80004a80: 31450513     	addi	a0, a0, 0x314
80004a84: f4aa         	sd	a0, 0x68(sp)
80004a86: 11700593     	li	a1, 0x117
80004a8a: f8ae         	sd	a1, 0x70(sp)
80004a8c: 22f00593     	li	a1, 0x22f
80004a90: 4601         	li	a2, 0x0
80004a92: 00001097     	auipc	ra, 0x1
80004a96: 37a080e7     	jalr	0x37a(ra) <core::panicking::panic_nounwind_fmt::h2e018e50a8d3bc73>
80004a9a: 557d         	li	a0, -0x1
80004a9c: f82a         	sd	a0, 0x30(sp)
80004a9e: a029         	j	0x80004aa8 <.Lpcrel_hi0+0x2c>
80004aa0: 6502         	ld	a0, 0x0(sp)
80004aa2: 8905         	andi	a0, a0, 0x1
80004aa4: ed11         	bnez	a0, 0x80004ac0 <.Lpcrel_hi1>
80004aa6: a031         	j	0x80004ab2 <.Lpcrel_hi0+0x36>
80004aa8: 65c2         	ld	a1, 0x10(sp)
80004aaa: 7542         	ld	a0, 0x30(sp)
80004aac: 02b57363     	bgeu	a0, a1, 0x80004ad2 <.Lpcrel_hi1+0x12>
80004ab0: a005         	j	0x80004ad0 <.Lpcrel_hi1+0x10>
80004ab2: 7582         	ld	a1, 0x20(sp)
80004ab4: 557d         	li	a0, -0x1
80004ab6: 8105         	srli	a0, a0, 0x1
80004ab8: 02b55533     	divu	a0, a0, a1
80004abc: f82a         	sd	a0, 0x30(sp)
80004abe: b7ed         	j	0x80004aa8 <.Lpcrel_hi0+0x2c>

0000000080004ac0 <.Lpcrel_hi1>:
80004ac0: 00003517     	auipc	a0, 0x3
80004ac4: 2b850513     	addi	a0, a0, 0x2b8
80004ac8: 00001097     	auipc	ra, 0x1
80004acc: 272080e7     	jalr	0x272(ra) <core::panicking::panic_const::panic_const_div_by_zero::hcfde4c26e8ecfc4b>
80004ad0: b76d         	j	0x80004a7a <core::slice::raw::from_raw_parts::precondition_check::h742e524aa6a91f4e+0x44>
80004ad2: 70e6         	ld	ra, 0x78(sp)
80004ad4: 6109         	addi	sp, sp, 0x80
80004ad6: 8082         	ret

0000000080004ad8 <core::slice::raw::from_raw_parts_mut::precondition_check::hd4a1e027296ee1fa>:
80004ad8: 7119         	addi	sp, sp, -0x80
80004ada: fc86         	sd	ra, 0x78(sp)
80004adc: e43a         	sd	a4, 0x8(sp)
80004ade: e836         	sd	a3, 0x10(sp)
80004ae0: ec32         	sd	a2, 0x18(sp)
80004ae2: 862e         	mv	a2, a1
80004ae4: 65e2         	ld	a1, 0x18(sp)
80004ae6: f032         	sd	a2, 0x20(sp)
80004ae8: f42a         	sd	a0, 0x28(sp)
80004aea: fc2a         	sd	a0, 0x38(sp)
80004aec: e0b2         	sd	a2, 0x40(sp)
80004aee: e4ae         	sd	a1, 0x48(sp)
80004af0: e8b6         	sd	a3, 0x50(sp)
80004af2: 4601         	li	a2, 0x0
80004af4: 04c10fa3     	sb	a2, 0x5f(sp)
80004af8: f0aa         	sd	a0, 0x60(sp)
80004afa: 00000097     	auipc	ra, 0x0
80004afe: 080080e7     	jalr	0x80(ra) <core::ptr::const_ptr::_$LT$impl$u20$$BP$const$u20$T$GT$::is_aligned_to::h4c8226da7274faff>
80004b02: e119         	bnez	a0, 0x80004b08 <core::slice::raw::from_raw_parts_mut::precondition_check::hd4a1e027296ee1fa+0x30>
80004b04: a009         	j	0x80004b06 <core::slice::raw::from_raw_parts_mut::precondition_check::hd4a1e027296ee1fa+0x2e>
80004b06: a021         	j	0x80004b0e <core::slice::raw::from_raw_parts_mut::precondition_check::hd4a1e027296ee1fa+0x36>
80004b08: 7522         	ld	a0, 0x28(sp)
80004b0a: e119         	bnez	a0, 0x80004b10 <core::slice::raw::from_raw_parts_mut::precondition_check::hd4a1e027296ee1fa+0x38>
80004b0c: a009         	j	0x80004b0e <core::slice::raw::from_raw_parts_mut::precondition_check::hd4a1e027296ee1fa+0x36>
80004b0e: a039         	j	0x80004b1c <core::slice::raw::from_raw_parts_mut::precondition_check::hd4a1e027296ee1fa+0x44>
80004b10: 7502         	ld	a0, 0x20(sp)
80004b12: 00153593     	seqz	a1, a0
80004b16: e02e         	sd	a1, 0x0(sp)
80004b18: c115         	beqz	a0, 0x80004b3c <.Lpcrel_hi2+0x1e>
80004b1a: a025         	j	0x80004b42 <.Lpcrel_hi2+0x24>
80004b1c: 66a2         	ld	a3, 0x8(sp)

0000000080004b1e <.Lpcrel_hi2>:
80004b1e: 00003517     	auipc	a0, 0x3
80004b22: 38950513     	addi	a0, a0, 0x389
80004b26: f4aa         	sd	a0, 0x68(sp)
80004b28: 11b00593     	li	a1, 0x11b
80004b2c: f8ae         	sd	a1, 0x70(sp)
80004b2e: 23700593     	li	a1, 0x237
80004b32: 4601         	li	a2, 0x0
80004b34: 00001097     	auipc	ra, 0x1
80004b38: 2d8080e7     	jalr	0x2d8(ra) <core::panicking::panic_nounwind_fmt::h2e018e50a8d3bc73>
80004b3c: 557d         	li	a0, -0x1
80004b3e: f82a         	sd	a0, 0x30(sp)
80004b40: a029         	j	0x80004b4a <.Lpcrel_hi2+0x2c>
80004b42: 6502         	ld	a0, 0x0(sp)
80004b44: 8905         	andi	a0, a0, 0x1
80004b46: ed11         	bnez	a0, 0x80004b62 <.Lpcrel_hi3>
80004b48: a031         	j	0x80004b54 <.Lpcrel_hi2+0x36>
80004b4a: 65c2         	ld	a1, 0x10(sp)
80004b4c: 7542         	ld	a0, 0x30(sp)
80004b4e: 02b57363     	bgeu	a0, a1, 0x80004b74 <.Lpcrel_hi3+0x12>
80004b52: a005         	j	0x80004b72 <.Lpcrel_hi3+0x10>
80004b54: 7582         	ld	a1, 0x20(sp)
80004b56: 557d         	li	a0, -0x1
80004b58: 8105         	srli	a0, a0, 0x1
80004b5a: 02b55533     	divu	a0, a0, a1
80004b5e: f82a         	sd	a0, 0x30(sp)
80004b60: b7ed         	j	0x80004b4a <.Lpcrel_hi2+0x2c>

0000000080004b62 <.Lpcrel_hi3>:
80004b62: 00003517     	auipc	a0, 0x3
80004b66: 21650513     	addi	a0, a0, 0x216
80004b6a: 00001097     	auipc	ra, 0x1
80004b6e: 1d0080e7     	jalr	0x1d0(ra) <core::panicking::panic_const::panic_const_div_by_zero::hcfde4c26e8ecfc4b>
80004b72: b76d         	j	0x80004b1c <core::slice::raw::from_raw_parts_mut::precondition_check::hd4a1e027296ee1fa+0x44>
80004b74: 70e6         	ld	ra, 0x78(sp)
80004b76: 6109         	addi	sp, sp, 0x80
80004b78: 8082         	ret

0000000080004b7a <core::ptr::const_ptr::_$LT$impl$u20$$BP$const$u20$T$GT$::is_aligned_to::h4c8226da7274faff>:
80004b7a: 7139         	addi	sp, sp, -0x40
80004b7c: e42e         	sd	a1, 0x8(sp)
80004b7e: e82a         	sd	a0, 0x10(sp)
80004b80: ec2a         	sd	a0, 0x18(sp)
80004b82: f02e         	sd	a1, 0x20(sp)
80004b84: 0015d513     	srli	a0, a1, 0x1
80004b88: 55555637     	lui	a2, 0x55555
80004b8c: 55560613     	addi	a2, a2, 0x555
80004b90: 02061693     	slli	a3, a2, 0x20
80004b94: 9636         	add	a2, a2, a3
80004b96: 8d71         	and	a0, a0, a2
80004b98: 8d89         	sub	a1, a1, a0
80004b9a: 33333537     	lui	a0, 0x33333
80004b9e: 33350513     	addi	a0, a0, 0x333
80004ba2: 02051613     	slli	a2, a0, 0x20
80004ba6: 962a         	add	a2, a2, a0
80004ba8: 00c5f533     	and	a0, a1, a2
80004bac: 8189         	srli	a1, a1, 0x2
80004bae: 8df1         	and	a1, a1, a2
80004bb0: 952e         	add	a0, a0, a1
80004bb2: 00455593     	srli	a1, a0, 0x4
80004bb6: 952e         	add	a0, a0, a1
80004bb8: 0f0f15b7     	lui	a1, 0xf0f1
80004bbc: f0f58593     	addi	a1, a1, -0xf1
80004bc0: 02059613     	slli	a2, a1, 0x20
80004bc4: 95b2         	add	a1, a1, a2
80004bc6: 8d6d         	and	a0, a0, a1
80004bc8: 010105b7     	lui	a1, 0x1010
80004bcc: 10158593     	addi	a1, a1, 0x101
80004bd0: 02059613     	slli	a2, a1, 0x20
80004bd4: 95b2         	add	a1, a1, a2
80004bd6: 02b50533     	mul	a0, a0, a1
80004bda: 9161         	srli	a0, a0, 0x38
80004bdc: d62a         	sw	a0, 0x2c(sp)
80004bde: 5532         	lw	a0, 0x2c(sp)
80004be0: 4585         	li	a1, 0x1
80004be2: 00b51b63     	bne	a0, a1, 0x80004bf8 <.Lpcrel_hi0>
80004be6: a009         	j	0x80004be8 <core::ptr::const_ptr::_$LT$impl$u20$$BP$const$u20$T$GT$::is_aligned_to::h4c8226da7274faff+0x6e>
80004be8: 6542         	ld	a0, 0x10(sp)
80004bea: 65a2         	ld	a1, 0x8(sp)
80004bec: 15fd         	addi	a1, a1, -0x1
80004bee: 8d6d         	and	a0, a0, a1
80004bf0: 00153513     	seqz	a0, a0
80004bf4: 6121         	addi	sp, sp, 0x40
80004bf6: 8082         	ret

0000000080004bf8 <.Lpcrel_hi0>:
80004bf8: 00003517     	auipc	a0, 0x3
80004bfc: 3ca50513     	addi	a0, a0, 0x3ca
80004c00: f82a         	sd	a0, 0x30(sp)
80004c02: 02a00593     	li	a1, 0x2a
80004c06: fc2e         	sd	a1, 0x38(sp)

0000000080004c08 <.Lpcrel_hi1>:
80004c08: 00003597     	auipc	a1, 0x3
80004c0c: 3e858613     	addi	a2, a1, 0x3e8
80004c10: 05500593     	li	a1, 0x55
80004c14: 00001097     	auipc	ra, 0x1
80004c18: 288080e7     	jalr	0x288(ra) <core::panicking::panic_fmt::h767dc8ac4dd44648>

0000000080004c1c <core::fmt::Arguments::as_statically_known_str::hcec1384625b83a33>:
80004c1c: 7119         	addi	sp, sp, -0x80
80004c1e: fc86         	sd	ra, 0x78(sp)
80004c20: ec2a         	sd	a0, 0x18(sp)
80004c22: fc2a         	sd	a0, 0x38(sp)
80004c24: 6508         	ld	a0, 0x8(a0)
80004c26: f02a         	sd	a0, 0x20(sp)
80004c28: e0aa         	sd	a0, 0x40(sp)
80004c2a: 8905         	andi	a0, a0, 0x1
80004c2c: cd01         	beqz	a0, 0x80004c44 <.Lpcrel_hi0>
80004c2e: a009         	j	0x80004c30 <core::fmt::Arguments::as_statically_known_str::hcec1384625b83a33+0x14>
80004c30: 7502         	ld	a0, 0x20(sp)
80004c32: 65e2         	ld	a1, 0x18(sp)
80004c34: 618c         	ld	a1, 0x0(a1)
80004c36: e42e         	sd	a1, 0x8(sp)
80004c38: e4ae         	sd	a1, 0x48(sp)
80004c3a: e8ae         	sd	a1, 0x50(sp)
80004c3c: 8105         	srli	a0, a0, 0x1
80004c3e: e82a         	sd	a0, 0x10(sp)
80004c40: ecaa         	sd	a0, 0x58(sp)
80004c42: a811         	j	0x80004c56 <.Lpcrel_hi0+0x12>

0000000080004c44 <.Lpcrel_hi0>:
80004c44: 00001517     	auipc	a0, 0x1
80004c48: 5ac50513     	addi	a0, a0, 0x5ac
80004c4c: 610c         	ld	a1, 0x0(a0)
80004c4e: 6508         	ld	a0, 0x8(a0)
80004c50: f42e         	sd	a1, 0x28(sp)
80004c52: f82a         	sd	a0, 0x30(sp)
80004c54: a02d         	j	0x80004c7e <.Lpcrel_hi1+0x24>
80004c56: 66c2         	ld	a3, 0x10(sp)
80004c58: 6522         	ld	a0, 0x8(sp)

0000000080004c5a <.Lpcrel_hi1>:
80004c5a: 00003597     	auipc	a1, 0x3
80004c5e: 3ae58713     	addi	a4, a1, 0x3ae
80004c62: 4605         	li	a2, 0x1
80004c64: 85b2         	mv	a1, a2
80004c66: 00000097     	auipc	ra, 0x0
80004c6a: dd0080e7     	jalr	-0x230(ra) <core::slice::raw::from_raw_parts::precondition_check::h742e524aa6a91f4e>
80004c6e: a009         	j	0x80004c70 <.Lpcrel_hi1+0x16>
80004c70: 6542         	ld	a0, 0x10(sp)
80004c72: 65a2         	ld	a1, 0x8(sp)
80004c74: f0ae         	sd	a1, 0x60(sp)
80004c76: f4aa         	sd	a0, 0x68(sp)
80004c78: f42e         	sd	a1, 0x28(sp)
80004c7a: f82a         	sd	a0, 0x30(sp)
80004c7c: a009         	j	0x80004c7e <.Lpcrel_hi1+0x24>
80004c7e: 4501         	li	a0, 0x0
80004c80: 06a10ba3     	sb	a0, 0x77(sp)
80004c84: 07714503     	lbu	a0, 0x77(sp)
80004c88: 8905         	andi	a0, a0, 0x1
80004c8a: e919         	bnez	a0, 0x80004ca0 <.Lpcrel_hi2+0x12>
80004c8c: a009         	j	0x80004c8e <.Lpcrel_hi2>

0000000080004c8e <.Lpcrel_hi2>:
80004c8e: 00001517     	auipc	a0, 0x1
80004c92: 56250513     	addi	a0, a0, 0x562
80004c96: 610c         	ld	a1, 0x0(a0)
80004c98: 6508         	ld	a0, 0x8(a0)
80004c9a: f42e         	sd	a1, 0x28(sp)
80004c9c: f82a         	sd	a0, 0x30(sp)
80004c9e: a011         	j	0x80004ca2 <.Lpcrel_hi2+0x14>
80004ca0: a009         	j	0x80004ca2 <.Lpcrel_hi2+0x14>
80004ca2: 7522         	ld	a0, 0x28(sp)
80004ca4: 75c2         	ld	a1, 0x30(sp)
80004ca6: 70e6         	ld	ra, 0x78(sp)
80004ca8: 6109         	addi	sp, sp, 0x80
80004caa: 8082         	ret

0000000080004cac <core::fmt::Arguments::from_str::he5a021e025a7e189>:
80004cac: 1141         	addi	sp, sp, -0x10
80004cae: e02a         	sd	a0, 0x0(sp)
80004cb0: e42e         	sd	a1, 0x8(sp)
80004cb2: 0586         	slli	a1, a1, 0x1
80004cb4: 0585         	addi	a1, a1, 0x1
80004cb6: 0141         	addi	sp, sp, 0x10
80004cb8: 8082         	ret

0000000080004cba <core::fmt::Formatter::write_fmt::hd36476feb5eecf0a>:
80004cba: 715d         	addi	sp, sp, -0x50
80004cbc: e486         	sd	ra, 0x48(sp)
80004cbe: e02a         	sd	a0, 0x0(sp)
80004cc0: e42e         	sd	a1, 0x8(sp)
80004cc2: e832         	sd	a2, 0x10(sp)
80004cc4: f82a         	sd	a0, 0x30(sp)
80004cc6: 0028         	addi	a0, sp, 0x8
80004cc8: 00000097     	auipc	ra, 0x0
80004ccc: f54080e7     	jalr	-0xac(ra) <core::fmt::Arguments::as_statically_known_str::hcec1384625b83a33>
80004cd0: f02a         	sd	a0, 0x20(sp)
80004cd2: f42e         	sd	a1, 0x28(sp)
80004cd4: 7502         	ld	a0, 0x20(sp)
80004cd6: cd11         	beqz	a0, 0x80004cf2 <core::fmt::Formatter::write_fmt::hd36476feb5eecf0a+0x38>
80004cd8: a009         	j	0x80004cda <core::fmt::Formatter::write_fmt::hd36476feb5eecf0a+0x20>
80004cda: 6682         	ld	a3, 0x0(sp)
80004cdc: 7582         	ld	a1, 0x20(sp)
80004cde: 7622         	ld	a2, 0x28(sp)
80004ce0: fc2e         	sd	a1, 0x38(sp)
80004ce2: e0b2         	sd	a2, 0x40(sp)
80004ce4: 6288         	ld	a0, 0x0(a3)
80004ce6: 6694         	ld	a3, 0x8(a3)
80004ce8: 6e94         	ld	a3, 0x18(a3)
80004cea: 9682         	jalr	a3
80004cec: 00a10fa3     	sb	a0, 0x1f(sp)
80004cf0: a829         	j	0x80004d0a <core::fmt::Formatter::write_fmt::hd36476feb5eecf0a+0x50>
80004cf2: 6582         	ld	a1, 0x0(sp)
80004cf4: 6188         	ld	a0, 0x0(a1)
80004cf6: 658c         	ld	a1, 0x8(a1)
80004cf8: 6622         	ld	a2, 0x8(sp)
80004cfa: 66c2         	ld	a3, 0x10(sp)
80004cfc: 00001097     	auipc	ra, 0x1
80004d00: 864080e7     	jalr	-0x79c(ra) <core::fmt::write::hfd17e9e8e823b619>
80004d04: 00a10fa3     	sb	a0, 0x1f(sp)
80004d08: a009         	j	0x80004d0a <core::fmt::Formatter::write_fmt::hd36476feb5eecf0a+0x50>
80004d0a: 01f14503     	lbu	a0, 0x1f(sp)
80004d0e: 60a6         	ld	ra, 0x48(sp)
80004d10: 6161         	addi	sp, sp, 0x50
80004d12: 8082         	ret

0000000080004d14 <core::char::methods::encode_utf8_raw::h6ebce0ae71f04624>:
80004d14: 715d         	addi	sp, sp, -0x50
80004d16: e486         	sd	ra, 0x48(sp)
80004d18: e032         	sd	a2, 0x0(sp)
80004d1a: e42e         	sd	a1, 0x8(sp)
80004d1c: 86aa         	mv	a3, a0
80004d1e: e836         	sd	a3, 0x10(sp)
80004d20: d22a         	sw	a0, 0x24(sp)
80004d22: f42e         	sd	a1, 0x28(sp)
80004d24: f832         	sd	a2, 0x30(sp)
80004d26: 08000593     	li	a1, 0x80
80004d2a: 00b56863     	bltu	a0, a1, 0x80004d3a <core::char::methods::encode_utf8_raw::h6ebce0ae71f04624+0x26>
80004d2e: a009         	j	0x80004d30 <core::char::methods::encode_utf8_raw::h6ebce0ae71f04624+0x1c>
80004d30: 6542         	ld	a0, 0x10(sp)
80004d32: 00b5551b     	srliw	a0, a0, 0xb
80004d36: c911         	beqz	a0, 0x80004d4a <core::char::methods::encode_utf8_raw::h6ebce0ae71f04624+0x36>
80004d38: a021         	j	0x80004d40 <core::char::methods::encode_utf8_raw::h6ebce0ae71f04624+0x2c>
80004d3a: 4505         	li	a0, 0x1
80004d3c: ec2a         	sd	a0, 0x18(sp)
80004d3e: a839         	j	0x80004d5c <core::char::methods::encode_utf8_raw::h6ebce0ae71f04624+0x48>
80004d40: 6542         	ld	a0, 0x10(sp)
80004d42: 0105551b     	srliw	a0, a0, 0x10
80004d46: c901         	beqz	a0, 0x80004d56 <core::char::methods::encode_utf8_raw::h6ebce0ae71f04624+0x42>
80004d48: a021         	j	0x80004d50 <core::char::methods::encode_utf8_raw::h6ebce0ae71f04624+0x3c>
80004d4a: 4509         	li	a0, 0x2
80004d4c: ec2a         	sd	a0, 0x18(sp)
80004d4e: a039         	j	0x80004d5c <core::char::methods::encode_utf8_raw::h6ebce0ae71f04624+0x48>
80004d50: 4511         	li	a0, 0x4
80004d52: ec2a         	sd	a0, 0x18(sp)
80004d54: a021         	j	0x80004d5c <core::char::methods::encode_utf8_raw::h6ebce0ae71f04624+0x48>
80004d56: 450d         	li	a0, 0x3
80004d58: ec2a         	sd	a0, 0x18(sp)
80004d5a: a009         	j	0x80004d5c <core::char::methods::encode_utf8_raw::h6ebce0ae71f04624+0x48>
80004d5c: 6502         	ld	a0, 0x0(sp)
80004d5e: fc2a         	sd	a0, 0x38(sp)
80004d60: 65e2         	ld	a1, 0x18(sp)
80004d62: 00b56d63     	bltu	a0, a1, 0x80004d7c <core::char::methods::encode_utf8_raw::h6ebce0ae71f04624+0x68>
80004d66: a009         	j	0x80004d68 <core::char::methods::encode_utf8_raw::h6ebce0ae71f04624+0x54>
80004d68: 65a2         	ld	a1, 0x8(sp)
80004d6a: 6542         	ld	a0, 0x10(sp)
80004d6c: 2501         	sext.w	a0, a0
80004d6e: 00000097     	auipc	ra, 0x0
80004d72: 0cc080e7     	jalr	0xcc(ra) <core::char::methods::encode_utf8_raw_unchecked::h8c9dac622932bd27>
80004d76: 6522         	ld	a0, 0x8(sp)
80004d78: e0aa         	sd	a0, 0x40(sp)
80004d7a: a829         	j	0x80004d94 <.Lpcrel_hi0+0x10>
80004d7c: 6602         	ld	a2, 0x0(sp)
80004d7e: 6542         	ld	a0, 0x10(sp)
80004d80: 65e2         	ld	a1, 0x18(sp)
80004d82: 2501         	sext.w	a0, a0

0000000080004d84 <.Lpcrel_hi0>:
80004d84: 00003697     	auipc	a3, 0x3
80004d88: 2b468693     	addi	a3, a3, 0x2b4
80004d8c: 00000097     	auipc	ra, 0x0
80004d90: 02c080e7     	jalr	0x2c(ra) <core::char::methods::encode_utf8_raw::do_panic::runtime::h6f6106024b605a8d>
80004d94: 6522         	ld	a0, 0x8(sp)
80004d96: 66e2         	ld	a3, 0x18(sp)

0000000080004d98 <.Lpcrel_hi1>:
80004d98: 00003597     	auipc	a1, 0x3
80004d9c: 28858713     	addi	a4, a1, 0x288
80004da0: 4605         	li	a2, 0x1
80004da2: 85b2         	mv	a1, a2
80004da4: 00000097     	auipc	ra, 0x0
80004da8: d34080e7     	jalr	-0x2cc(ra) <core::slice::raw::from_raw_parts_mut::precondition_check::hd4a1e027296ee1fa>
80004dac: a009         	j	0x80004dae <.Lpcrel_hi1+0x16>
80004dae: 6522         	ld	a0, 0x8(sp)
80004db0: 65e2         	ld	a1, 0x18(sp)
80004db2: 60a6         	ld	ra, 0x48(sp)
80004db4: 6161         	addi	sp, sp, 0x50
80004db6: 8082         	ret

0000000080004db8 <core::char::methods::encode_utf8_raw::do_panic::runtime::h6f6106024b605a8d>:
80004db8: 7115         	addi	sp, sp, -0xe0
80004dba: e036         	sd	a3, 0x0(sp)
80004dbc: 86b2         	mv	a3, a2
80004dbe: 6602         	ld	a2, 0x0(sp)
80004dc0: e436         	sd	a3, 0x8(sp)
80004dc2: 86aa         	mv	a3, a0
80004dc4: 6522         	ld	a0, 0x8(sp)
80004dc6: ca36         	sw	a3, 0x14(sp)
80004dc8: ec2e         	sd	a1, 0x18(sp)
80004dca: f02a         	sd	a0, 0x20(sp)

0000000080004dcc <.Lpcrel_hi2>:
80004dcc: 00003517     	auipc	a0, 0x3
80004dd0: 28450513     	addi	a0, a0, 0x284
80004dd4: fd2a         	sd	a0, 0xb8(sp)
80004dd6: 082c         	addi	a1, sp, 0x18
80004dd8: e1ae         	sd	a1, 0xc0(sp)
80004dda: 0858         	addi	a4, sp, 0x14
80004ddc: e5ba         	sd	a4, 0xc8(sp)
80004dde: 1014         	addi	a3, sp, 0x20
80004de0: e9b6         	sd	a3, 0xd0(sp)
80004de2: e52e         	sd	a1, 0x88(sp)

0000000080004de4 <.Lpcrel_hi3>:
80004de4: 00000597     	auipc	a1, 0x0
80004de8: 67c58593     	addi	a1, a1, 0x67c
80004dec: e92e         	sd	a1, 0x90(sp)
80004dee: 67ca         	ld	a5, 0x90(sp)
80004df0: f0be         	sd	a5, 0x60(sp)
80004df2: 67aa         	ld	a5, 0x88(sp)
80004df4: ecbe         	sd	a5, 0x58(sp)
80004df6: ed3a         	sd	a4, 0x98(sp)

0000000080004df8 <.Lpcrel_hi4>:
80004df8: 00000717     	auipc	a4, 0x0
80004dfc: 70c70713     	addi	a4, a4, 0x70c
80004e00: f13a         	sd	a4, 0xa0(sp)
80004e02: 770a         	ld	a4, 0xa0(sp)
80004e04: f8ba         	sd	a4, 0x70(sp)
80004e06: 676a         	ld	a4, 0x98(sp)
80004e08: f4ba         	sd	a4, 0x68(sp)
80004e0a: f536         	sd	a3, 0xa8(sp)
80004e0c: f92e         	sd	a1, 0xb0(sp)
80004e0e: 75ca         	ld	a1, 0xb0(sp)
80004e10: e12e         	sd	a1, 0x80(sp)
80004e12: 75aa         	ld	a1, 0xa8(sp)
80004e14: fcae         	sd	a1, 0x78(sp)
80004e16: 7586         	ld	a1, 0x60(sp)
80004e18: f82e         	sd	a1, 0x30(sp)
80004e1a: 65e6         	ld	a1, 0x58(sp)
80004e1c: f42e         	sd	a1, 0x28(sp)
80004e1e: 75c6         	ld	a1, 0x70(sp)
80004e20: e0ae         	sd	a1, 0x40(sp)
80004e22: 75a6         	ld	a1, 0x68(sp)
80004e24: fc2e         	sd	a1, 0x38(sp)
80004e26: 658a         	ld	a1, 0x80(sp)
80004e28: e8ae         	sd	a1, 0x50(sp)
80004e2a: 75e6         	ld	a1, 0x78(sp)
80004e2c: e4ae         	sd	a1, 0x48(sp)
80004e2e: 102c         	addi	a1, sp, 0x28
80004e30: edae         	sd	a1, 0xd8(sp)
80004e32: 00001097     	auipc	ra, 0x1
80004e36: 06a080e7     	jalr	0x6a(ra) <core::panicking::panic_fmt::h767dc8ac4dd44648>

0000000080004e3a <core::char::methods::encode_utf8_raw_unchecked::h8c9dac622932bd27>:
80004e3a: 7119         	addi	sp, sp, -0x80
80004e3c: f02e         	sd	a1, 0x20(sp)
80004e3e: 862a         	mv	a2, a0
80004e40: f432         	sd	a2, 0x28(sp)
80004e42: de2a         	sw	a0, 0x3c(sp)
80004e44: e0ae         	sd	a1, 0x40(sp)
80004e46: 4585         	li	a1, 0x1
80004e48: e4ae         	sd	a1, 0x48(sp)
80004e4a: e8ae         	sd	a1, 0x50(sp)
80004e4c: ecae         	sd	a1, 0x58(sp)
80004e4e: 4589         	li	a1, 0x2
80004e50: f0ae         	sd	a1, 0x60(sp)
80004e52: f4ae         	sd	a1, 0x68(sp)
80004e54: 458d         	li	a1, 0x3
80004e56: f8ae         	sd	a1, 0x70(sp)
80004e58: 08000593     	li	a1, 0x80
80004e5c: 00b56863     	bltu	a0, a1, 0x80004e6c <core::char::methods::encode_utf8_raw_unchecked::h8c9dac622932bd27+0x32>
80004e60: a009         	j	0x80004e62 <core::char::methods::encode_utf8_raw_unchecked::h8c9dac622932bd27+0x28>
80004e62: 7522         	ld	a0, 0x28(sp)
80004e64: 00b5551b     	srliw	a0, a0, 0xb
80004e68: cd11         	beqz	a0, 0x80004e84 <core::char::methods::encode_utf8_raw_unchecked::h8c9dac622932bd27+0x4a>
80004e6a: a801         	j	0x80004e7a <core::char::methods::encode_utf8_raw_unchecked::h8c9dac622932bd27+0x40>
80004e6c: 7522         	ld	a0, 0x28(sp)
80004e6e: 7582         	ld	a1, 0x20(sp)
80004e70: 4605         	li	a2, 0x1
80004e72: f832         	sd	a2, 0x30(sp)
80004e74: 00a58023     	sb	a0, 0x0(a1)
80004e78: a049         	j	0x80004efa <core::char::methods::encode_utf8_raw_unchecked::h8c9dac622932bd27+0xc0>
80004e7a: 7522         	ld	a0, 0x28(sp)
80004e7c: 0105551b     	srliw	a0, a0, 0x10
80004e80: c901         	beqz	a0, 0x80004e90 <core::char::methods::encode_utf8_raw_unchecked::h8c9dac622932bd27+0x56>
80004e82: a021         	j	0x80004e8a <core::char::methods::encode_utf8_raw_unchecked::h8c9dac622932bd27+0x50>
80004e84: 4509         	li	a0, 0x2
80004e86: f82a         	sd	a0, 0x30(sp)
80004e88: a039         	j	0x80004e96 <core::char::methods::encode_utf8_raw_unchecked::h8c9dac622932bd27+0x5c>
80004e8a: 4511         	li	a0, 0x4
80004e8c: f82a         	sd	a0, 0x30(sp)
80004e8e: a021         	j	0x80004e96 <core::char::methods::encode_utf8_raw_unchecked::h8c9dac622932bd27+0x5c>
80004e90: 450d         	li	a0, 0x3
80004e92: f82a         	sd	a0, 0x30(sp)
80004e94: a009         	j	0x80004e96 <core::char::methods::encode_utf8_raw_unchecked::h8c9dac622932bd27+0x5c>
80004e96: 7522         	ld	a0, 0x28(sp)
80004e98: 03f57593     	andi	a1, a0, 0x3f
80004e9c: f805859b     	addiw	a1, a1, -0x80
80004ea0: e02e         	sd	a1, 0x0(sp)
80004ea2: 06b10e23     	sb	a1, 0x7c(sp)
80004ea6: 03451593     	slli	a1, a0, 0x34
80004eaa: 91e9         	srli	a1, a1, 0x3a
80004eac: f805859b     	addiw	a1, a1, -0x80
80004eb0: e42e         	sd	a1, 0x8(sp)
80004eb2: 06b10ea3     	sb	a1, 0x7d(sp)
80004eb6: 02e51593     	slli	a1, a0, 0x2e
80004eba: 91e9         	srli	a1, a1, 0x3a
80004ebc: f805859b     	addiw	a1, a1, -0x80
80004ec0: e82e         	sd	a1, 0x10(sp)
80004ec2: 06b10f23     	sb	a1, 0x7e(sp)
80004ec6: 8149         	srli	a0, a0, 0x12
80004ec8: ff056513     	ori	a0, a0, -0x10
80004ecc: ec2a         	sd	a0, 0x18(sp)
80004ece: 06a10fa3     	sb	a0, 0x7f(sp)
80004ed2: 7542         	ld	a0, 0x30(sp)
80004ed4: 4589         	li	a1, 0x2
80004ed6: 00b51d63     	bne	a0, a1, 0x80004ef0 <core::char::methods::encode_utf8_raw_unchecked::h8c9dac622932bd27+0xb6>
80004eda: a009         	j	0x80004edc <core::char::methods::encode_utf8_raw_unchecked::h8c9dac622932bd27+0xa2>
80004edc: 6502         	ld	a0, 0x0(sp)
80004ede: 7582         	ld	a1, 0x20(sp)
80004ee0: 6622         	ld	a2, 0x8(sp)
80004ee2: 0c066613     	ori	a2, a2, 0xc0
80004ee6: 00c58023     	sb	a2, 0x0(a1)
80004eea: 00a580a3     	sb	a0, 0x1(a1)
80004eee: a031         	j	0x80004efa <core::char::methods::encode_utf8_raw_unchecked::h8c9dac622932bd27+0xc0>
80004ef0: 7542         	ld	a0, 0x30(sp)
80004ef2: 458d         	li	a1, 0x3
80004ef4: 00b50463     	beq	a0, a1, 0x80004efc <core::char::methods::encode_utf8_raw_unchecked::h8c9dac622932bd27+0xc2>
80004ef8: a839         	j	0x80004f16 <core::char::methods::encode_utf8_raw_unchecked::h8c9dac622932bd27+0xdc>
80004efa: a825         	j	0x80004f32 <core::char::methods::encode_utf8_raw_unchecked::h8c9dac622932bd27+0xf8>
80004efc: 6502         	ld	a0, 0x0(sp)
80004efe: 7582         	ld	a1, 0x20(sp)
80004f00: 6622         	ld	a2, 0x8(sp)
80004f02: 66c2         	ld	a3, 0x10(sp)
80004f04: 0e06e693     	ori	a3, a3, 0xe0
80004f08: 00d58023     	sb	a3, 0x0(a1)
80004f0c: 00c580a3     	sb	a2, 0x1(a1)
80004f10: 00a58123     	sb	a0, 0x2(a1)
80004f14: b7dd         	j	0x80004efa <core::char::methods::encode_utf8_raw_unchecked::h8c9dac622932bd27+0xc0>
80004f16: 6502         	ld	a0, 0x0(sp)
80004f18: 7582         	ld	a1, 0x20(sp)
80004f1a: 6622         	ld	a2, 0x8(sp)
80004f1c: 66c2         	ld	a3, 0x10(sp)
80004f1e: 6762         	ld	a4, 0x18(sp)
80004f20: 00e58023     	sb	a4, 0x0(a1)
80004f24: 00d580a3     	sb	a3, 0x1(a1)
80004f28: 00c58123     	sb	a2, 0x2(a1)
80004f2c: 00a581a3     	sb	a0, 0x3(a1)
80004f30: a009         	j	0x80004f32 <core::char::methods::encode_utf8_raw_unchecked::h8c9dac622932bd27+0xf8>
80004f32: 6109         	addi	sp, sp, 0x80
80004f34: 8082         	ret

0000000080004f36 <_$LT$str$u20$as$u20$core..fmt..Display$GT$::fmt::h53474d83e2b0968b>:
80004f36: 86ae         	mv	a3, a1
80004f38: 85aa         	mv	a1, a0
80004f3a: 8532         	mv	a0, a2
80004f3c: 8636         	mv	a2, a3
80004f3e: 00001317     	auipc	t1, 0x1
80004f42: aa430067     	jr	-0x55c(t1) <core::fmt::Formatter::pad::h239e525174ab4a17>

0000000080004f46 <_$LT$char$u20$as$u20$core..fmt..Display$GT$::fmt::h793d1df9ddfe9696>:
80004f46: 86ae         	mv	a3, a1
80004f48: 0135c603     	lbu	a2, 0x13(a1)
80004f4c: 410c         	lw	a1, 0x0(a0)
80004f4e: 8a61         	andi	a2, a2, 0x18
80004f50: ce19         	beqz	a2, 0x80004f6e <_$LT$char$u20$as$u20$core..fmt..Display$GT$::fmt::h793d1df9ddfe9696+0x28>
80004f52: 1101         	addi	sp, sp, -0x20
80004f54: ec06         	sd	ra, 0x18(sp)
80004f56: e822         	sd	s0, 0x10(sp)
80004f58: 1000         	addi	s0, sp, 0x20
80004f5a: 08000513     	li	a0, 0x80
80004f5e: fe042623     	sw	zero, -0x14(s0)
80004f62: 00a5fa63     	bgeu	a1, a0, 0x80004f76 <_$LT$char$u20$as$u20$core..fmt..Display$GT$::fmt::h793d1df9ddfe9696+0x30>
80004f66: feb40623     	sb	a1, -0x14(s0)
80004f6a: 4605         	li	a2, 0x1
80004f6c: a88d         	j	0x80004fde <_$LT$char$u20$as$u20$core..fmt..Display$GT$::fmt::h793d1df9ddfe9696+0x98>
80004f6e: 6690         	ld	a2, 0x8(a3)
80004f70: 6288         	ld	a0, 0x0(a3)
80004f72: 721c         	ld	a5, 0x20(a2)
80004f74: 8782         	jr	a5
80004f76: 00b5d71b     	srliw	a4, a1, 0xb
80004f7a: 03f5f513     	andi	a0, a1, 0x3f
80004f7e: f8050513     	addi	a0, a0, -0x80
80004f82: 0065d61b     	srliw	a2, a1, 0x6
80004f86: eb09         	bnez	a4, 0x80004f98 <_$LT$char$u20$as$u20$core..fmt..Display$GT$::fmt::h793d1df9ddfe9696+0x52>
80004f88: 0c066593     	ori	a1, a2, 0xc0
80004f8c: feb40623     	sb	a1, -0x14(s0)
80004f90: fea406a3     	sb	a0, -0x13(s0)
80004f94: 4609         	li	a2, 0x2
80004f96: a0a1         	j	0x80004fde <_$LT$char$u20$as$u20$core..fmt..Display$GT$::fmt::h793d1df9ddfe9696+0x98>
80004f98: 03f67613     	andi	a2, a2, 0x3f
80004f9c: 0105d79b     	srliw	a5, a1, 0x10
80004fa0: f8060613     	addi	a2, a2, -0x80
80004fa4: 00c5d71b     	srliw	a4, a1, 0xc
80004fa8: eb99         	bnez	a5, 0x80004fbe <_$LT$char$u20$as$u20$core..fmt..Display$GT$::fmt::h793d1df9ddfe9696+0x78>
80004faa: 0e076593     	ori	a1, a4, 0xe0
80004fae: feb40623     	sb	a1, -0x14(s0)
80004fb2: fec406a3     	sb	a2, -0x13(s0)
80004fb6: fea40723     	sb	a0, -0x12(s0)
80004fba: 460d         	li	a2, 0x3
80004fbc: a00d         	j	0x80004fde <_$LT$char$u20$as$u20$core..fmt..Display$GT$::fmt::h793d1df9ddfe9696+0x98>
80004fbe: 03f77713     	andi	a4, a4, 0x3f
80004fc2: 81c9         	srli	a1, a1, 0x12
80004fc4: f8070713     	addi	a4, a4, -0x80
80004fc8: ff05e593     	ori	a1, a1, -0x10
80004fcc: feb40623     	sb	a1, -0x14(s0)
80004fd0: fee406a3     	sb	a4, -0x13(s0)
80004fd4: fec40723     	sb	a2, -0x12(s0)
80004fd8: fea407a3     	sb	a0, -0x11(s0)
80004fdc: 4611         	li	a2, 0x4
80004fde: fec40593     	addi	a1, s0, -0x14
80004fe2: 8536         	mv	a0, a3
80004fe4: 00001097     	auipc	ra, 0x1
80004fe8: 9fe080e7     	jalr	-0x602(ra) <core::fmt::Formatter::pad::h239e525174ab4a17>
80004fec: 60e2         	ld	ra, 0x18(sp)
80004fee: 6442         	ld	s0, 0x10(sp)
80004ff0: 6105         	addi	sp, sp, 0x20
80004ff2: 8082         	ret

0000000080004ff4 <_$LT$$RF$T$u20$as$u20$core..fmt..Display$GT$::fmt::h60cf88dbe6a53042>:
80004ff4: 6114         	ld	a3, 0x0(a0)
80004ff6: 6510         	ld	a2, 0x8(a0)
80004ff8: 852e         	mv	a0, a1
80004ffa: 85b6         	mv	a1, a3
80004ffc: 00001317     	auipc	t1, 0x1
80005000: 9e630067     	jr	-0x61a(t1) <core::fmt::Formatter::pad::h239e525174ab4a17>

0000000080005004 <core::fmt::num::imp::_$LT$impl$u20$u32$GT$::_fmt_inner::h2c8ef1aec4279901>:
80005004: 7139         	addi	sp, sp, -0x40
80005006: fc06         	sd	ra, 0x38(sp)
80005008: f822         	sd	s0, 0x30(sp)
8000500a: f426         	sd	s1, 0x28(sp)
8000500c: f04a         	sd	s2, 0x20(sp)
8000500e: ec4e         	sd	s3, 0x18(sp)
80005010: e852         	sd	s4, 0x10(sp)
80005012: e456         	sd	s5, 0x8(sp)
80005014: 0080         	addi	s0, sp, 0x40
80005016: 3e800693     	li	a3, 0x3e8
8000501a: 882a         	mv	a6, a0
8000501c: 8732         	mv	a4, a2
8000501e: 0cd56163     	bltu	a0, a3, 0x800050e0 <.Lpcrel_hi74+0xac>
80005022: 4f01         	li	t5, 0x0
80005024: ffe58f93     	addi	t6, a1, -0x2
80005028: d1b71837     	lui	a6, 0xd1b71
8000502c: 6709         	lui	a4, 0x2
8000502e: 6785         	lui	a5, 0x1
80005030: 06400893     	li	a7, 0x64

0000000080005034 <.Lpcrel_hi74>:
80005034: 00003497     	auipc	s1, 0x3
80005038: 009896b7     	lui	a3, 0x989
8000503c: 75980e13     	addi	t3, a6, 0x759
80005040: 71070293     	addi	t0, a4, 0x710
80005044: 47b78313     	addi	t1, a5, 0x47b
80005048: 06348393     	addi	t2, s1, 0x63
8000504c: 1e02         	slli	t3, t3, 0x20
8000504e: 67f68e93     	addi	t4, a3, 0x67f
80005052: 882a         	mv	a6, a0
80005054: 01e60a33     	add	s4, a2, t5
80005058: ffca0693     	addi	a3, s4, -0x4
8000505c: 14c6fe63     	bgeu	a3, a2, 0x800051b8 <.Lpcrel_hi80>
80005060: 8942         	mv	s2, a6
80005062: 02081693     	slli	a3, a6, 0x20
80005066: 03c6b6b3     	mulhu	a3, a3, t3
8000506a: 02d6d813     	srli	a6, a3, 0x2d
8000506e: 025806b3     	mul	a3, a6, t0
80005072: 40d909bb     	subw	s3, s2, a3
80005076: 03099693     	slli	a3, s3, 0x30
8000507a: 92c9         	srli	a3, a3, 0x32
8000507c: 026687b3     	mul	a5, a3, t1
80005080: 83c5         	srli	a5, a5, 0x11
80005082: 00179713     	slli	a4, a5, 0x1
80005086: 971e         	add	a4, a4, t2
80005088: 00074a83     	lbu	s5, 0x0(a4)
8000508c: 00cf84b3     	add	s1, t6, a2
80005090: ffda0693     	addi	a3, s4, -0x3
80005094: ff548f23     	sb	s5, -0x2(s1)
80005098: 10c6f563     	bgeu	a3, a2, 0x800051a2 <.Lpcrel_hi81>
8000509c: 00174703     	lbu	a4, 0x1(a4)
800050a0: ffea0693     	addi	a3, s4, -0x2
800050a4: fee48fa3     	sb	a4, -0x1(s1)
800050a8: 0ec6f263     	bgeu	a3, a2, 0x8000518c <.Lpcrel_hi82>
800050ac: 031786b3     	mul	a3, a5, a7
800050b0: 40d986b3     	sub	a3, s3, a3
800050b4: 16c6         	slli	a3, a3, 0x31
800050b6: 92c1         	srli	a3, a3, 0x30
800050b8: 00d38733     	add	a4, t2, a3
800050bc: 00074783     	lbu	a5, 0x0(a4)
800050c0: fffa0693     	addi	a3, s4, -0x1
800050c4: 00f48023     	sb	a5, 0x0(s1)
800050c8: 0ac6f763     	bgeu	a3, a2, 0x80005176 <.Lpcrel_hi83>
800050cc: 00174683     	lbu	a3, 0x1(a4)
800050d0: 1f71         	addi	t5, t5, -0x4
800050d2: 00d480a3     	sb	a3, 0x1(s1)
800050d6: 1ff1         	addi	t6, t6, -0x4
800050d8: f72eeee3     	bltu	t4, s2, 0x80005054 <.Lpcrel_hi74+0x20>
800050dc: 01e60733     	add	a4, a2, t5
800050e0: 46a5         	li	a3, 0x9
800050e2: 0506fd63     	bgeu	a3, a6, 0x8000513c <.Lpcrel_hi75+0x3a>
800050e6: ffe70693     	addi	a3, a4, -0x2
800050ea: 0ec6f263     	bgeu	a3, a2, 0x800051ce <.Lpcrel_hi76>
800050ee: 03081793     	slli	a5, a6, 0x30
800050f2: 6485         	lui	s1, 0x1
800050f4: 06400893     	li	a7, 0x64
800050f8: 93c9         	srli	a5, a5, 0x32
800050fa: 47b48493     	addi	s1, s1, 0x47b
800050fe: 029787b3     	mul	a5, a5, s1

0000000080005102 <.Lpcrel_hi75>:
80005102: 00003297     	auipc	t0, 0x3
80005106: 83c5         	srli	a5, a5, 0x11
80005108: 031784b3     	mul	s1, a5, a7
8000510c: 409804bb     	subw	s1, a6, s1
80005110: 14c6         	slli	s1, s1, 0x31
80005112: 0304d813     	srli	a6, s1, 0x30
80005116: f9528493     	addi	s1, t0, -0x6b
8000511a: 94c2         	add	s1, s1, a6
8000511c: 0004c803     	lbu	a6, 0x0(s1)
80005120: 00d588b3     	add	a7, a1, a3
80005124: 177d         	addi	a4, a4, -0x1
80005126: 01088023     	sb	a6, 0x0(a7)
8000512a: 0ac77d63     	bgeu	a4, a2, 0x800051e4 <.Lpcrel_hi77>
8000512e: 0014c483     	lbu	s1, 0x1(s1)
80005132: 972e         	add	a4, a4, a1
80005134: 00970023     	sb	s1, 0x0(a4)
80005138: e509         	bnez	a0, 0x80005142 <.Lpcrel_hi75+0x40>
8000513a: a029         	j	0x80005144 <.Lpcrel_hi75+0x42>
8000513c: 87c2         	mv	a5, a6
8000513e: 86ba         	mv	a3, a4
80005140: c111         	beqz	a0, 0x80005144 <.Lpcrel_hi75+0x42>
80005142: c385         	beqz	a5, 0x80005162 <.Lpcrel_hi79+0x14>
80005144: 16fd         	addi	a3, a3, -0x1
80005146: 0ac6fa63     	bgeu	a3, a2, 0x800051fa <.Lpcrel_hi78>
8000514a: 0017951b     	slliw	a0, a5, 0x1

000000008000514e <.Lpcrel_hi79>:
8000514e: 00003617     	auipc	a2, 0x3
80005152: f4960613     	addi	a2, a2, -0xb7
80005156: 9532         	add	a0, a0, a2
80005158: 00154503     	lbu	a0, 0x1(a0)
8000515c: 95b6         	add	a1, a1, a3
8000515e: 00a58023     	sb	a0, 0x0(a1)
80005162: 8536         	mv	a0, a3
80005164: 70e2         	ld	ra, 0x38(sp)
80005166: 7442         	ld	s0, 0x30(sp)
80005168: 74a2         	ld	s1, 0x28(sp)
8000516a: 7902         	ld	s2, 0x20(sp)
8000516c: 69e2         	ld	s3, 0x18(sp)
8000516e: 6a42         	ld	s4, 0x10(sp)
80005170: 6aa2         	ld	s5, 0x8(sp)
80005172: 6121         	addi	sp, sp, 0x40
80005174: 8082         	ret

0000000080005176 <.Lpcrel_hi83>:
80005176: 00003517     	auipc	a0, 0x3
8000517a: fea50713     	addi	a4, a0, -0x16
8000517e: 8536         	mv	a0, a3
80005180: 85b2         	mv	a1, a2
80005182: 863a         	mv	a2, a4
80005184: 00001097     	auipc	ra, 0x1
80005188: c4c080e7     	jalr	-0x3b4(ra) <core::panicking::panic_bounds_check::h6aaee0d15e0261eb>

000000008000518c <.Lpcrel_hi82>:
8000518c: 00003517     	auipc	a0, 0x3
80005190: fd450713     	addi	a4, a0, -0x2c
80005194: 8536         	mv	a0, a3
80005196: 85b2         	mv	a1, a2
80005198: 863a         	mv	a2, a4
8000519a: 00001097     	auipc	ra, 0x1
8000519e: c36080e7     	jalr	-0x3ca(ra) <core::panicking::panic_bounds_check::h6aaee0d15e0261eb>

00000000800051a2 <.Lpcrel_hi81>:
800051a2: 00003517     	auipc	a0, 0x3
800051a6: fbe50713     	addi	a4, a0, -0x42
800051aa: 8536         	mv	a0, a3
800051ac: 85b2         	mv	a1, a2
800051ae: 863a         	mv	a2, a4
800051b0: 00001097     	auipc	ra, 0x1
800051b4: c20080e7     	jalr	-0x3e0(ra) <core::panicking::panic_bounds_check::h6aaee0d15e0261eb>

00000000800051b8 <.Lpcrel_hi80>:
800051b8: 00003517     	auipc	a0, 0x3
800051bc: fa850713     	addi	a4, a0, -0x58
800051c0: 8536         	mv	a0, a3
800051c2: 85b2         	mv	a1, a2
800051c4: 863a         	mv	a2, a4
800051c6: 00001097     	auipc	ra, 0x1
800051ca: c0a080e7     	jalr	-0x3f6(ra) <core::panicking::panic_bounds_check::h6aaee0d15e0261eb>

00000000800051ce <.Lpcrel_hi76>:
800051ce: 00003517     	auipc	a0, 0x3
800051d2: f9250713     	addi	a4, a0, -0x6e
800051d6: 8536         	mv	a0, a3
800051d8: 85b2         	mv	a1, a2
800051da: 863a         	mv	a2, a4
800051dc: 00001097     	auipc	ra, 0x1
800051e0: bf4080e7     	jalr	-0x40c(ra) <core::panicking::panic_bounds_check::h6aaee0d15e0261eb>

00000000800051e4 <.Lpcrel_hi77>:
800051e4: 00003517     	auipc	a0, 0x3
800051e8: f7c50693     	addi	a3, a0, -0x84
800051ec: 853a         	mv	a0, a4
800051ee: 85b2         	mv	a1, a2
800051f0: 8636         	mv	a2, a3
800051f2: 00001097     	auipc	ra, 0x1
800051f6: bde080e7     	jalr	-0x422(ra) <core::panicking::panic_bounds_check::h6aaee0d15e0261eb>

00000000800051fa <.Lpcrel_hi78>:
800051fa: 00003517     	auipc	a0, 0x3
800051fe: f6650713     	addi	a4, a0, -0x9a
80005202: 8536         	mv	a0, a3
80005204: 85b2         	mv	a1, a2
80005206: 863a         	mv	a2, a4
80005208: 00001097     	auipc	ra, 0x1
8000520c: bc8080e7     	jalr	-0x438(ra) <core::panicking::panic_bounds_check::h6aaee0d15e0261eb>

0000000080005210 <core::fmt::num::imp::_$LT$impl$u20$u64$GT$::_fmt_inner::habf36a285bd59e0b>:
80005210: 7139         	addi	sp, sp, -0x40
80005212: fc06         	sd	ra, 0x38(sp)
80005214: f822         	sd	s0, 0x30(sp)
80005216: f426         	sd	s1, 0x28(sp)
80005218: f04a         	sd	s2, 0x20(sp)
8000521a: ec4e         	sd	s3, 0x18(sp)
8000521c: e852         	sd	s4, 0x10(sp)
8000521e: e456         	sd	s5, 0x8(sp)
80005220: 0080         	addi	s0, sp, 0x40
80005222: 3e800693     	li	a3, 0x3e8
80005226: 882a         	mv	a6, a0
80005228: 8732         	mv	a4, a2
8000522a: 0ad56e63     	bltu	a0, a3, 0x800052e6 <.Lpcrel_hi85+0x9a>
8000522e: 4f01         	li	t5, 0x0
80005230: ffe58f93     	addi	t6, a1, -0x2

0000000080005234 <.Lpcrel_hi84>:
80005234: 00002697     	auipc	a3, 0x2
80005238: 6709         	lui	a4, 0x2
8000523a: 6785         	lui	a5, 0x1
8000523c: 06400893     	li	a7, 0x64
80005240: a8c6b283     	ld	t0, -0x574(a3)
80005244: 71070313     	addi	t1, a4, 0x710
80005248: 47b78393     	addi	t2, a5, 0x47b

000000008000524c <.Lpcrel_hi85>:
8000524c: 00003697     	auipc	a3, 0x3
80005250: e4b68e13     	addi	t3, a3, -0x1b5
80005254: 009896b7     	lui	a3, 0x989
80005258: 67f68e93     	addi	t4, a3, 0x67f
8000525c: 882a         	mv	a6, a0
8000525e: 01e60a33     	add	s4, a2, t5
80005262: ffca0693     	addi	a3, s4, -0x4
80005266: 14c6fb63     	bgeu	a3, a2, 0x800053bc <.Lpcrel_hi91>
8000526a: 8942         	mv	s2, a6
8000526c: 025836b3     	mulhu	a3, a6, t0
80005270: 00b6d813     	srli	a6, a3, 0xb
80005274: 026806b3     	mul	a3, a6, t1
80005278: 40d909b3     	sub	s3, s2, a3
8000527c: 03099693     	slli	a3, s3, 0x30
80005280: 92c9         	srli	a3, a3, 0x32
80005282: 027687b3     	mul	a5, a3, t2
80005286: 83c5         	srli	a5, a5, 0x11
80005288: 00179713     	slli	a4, a5, 0x1
8000528c: 9772         	add	a4, a4, t3
8000528e: 00074a83     	lbu	s5, 0x0(a4)
80005292: 00cf84b3     	add	s1, t6, a2
80005296: ffda0693     	addi	a3, s4, -0x3
8000529a: ff548f23     	sb	s5, -0x2(s1)
8000529e: 10c6f463     	bgeu	a3, a2, 0x800053a6 <.Lpcrel_hi92>
800052a2: 00174703     	lbu	a4, 0x1(a4)
800052a6: ffea0693     	addi	a3, s4, -0x2
800052aa: fee48fa3     	sb	a4, -0x1(s1)
800052ae: 0ec6f163     	bgeu	a3, a2, 0x80005390 <.Lpcrel_hi93>
800052b2: 031786b3     	mul	a3, a5, a7
800052b6: 40d986b3     	sub	a3, s3, a3
800052ba: 16c6         	slli	a3, a3, 0x31
800052bc: 92c1         	srli	a3, a3, 0x30
800052be: 00de0733     	add	a4, t3, a3
800052c2: 00074783     	lbu	a5, 0x0(a4)
800052c6: fffa0693     	addi	a3, s4, -0x1
800052ca: 00f48023     	sb	a5, 0x0(s1)
800052ce: 0ac6f663     	bgeu	a3, a2, 0x8000537a <.Lpcrel_hi94>
800052d2: 00174683     	lbu	a3, 0x1(a4)
800052d6: 1f71         	addi	t5, t5, -0x4
800052d8: 00d480a3     	sb	a3, 0x1(s1)
800052dc: 1ff1         	addi	t6, t6, -0x4
800052de: f92ee0e3     	bltu	t4, s2, 0x8000525e <.Lpcrel_hi85+0x12>
800052e2: 01e60733     	add	a4, a2, t5
800052e6: 46a5         	li	a3, 0x9
800052e8: 0506fd63     	bgeu	a3, a6, 0x80005342 <.Lpcrel_hi86+0x3a>
800052ec: ffe70693     	addi	a3, a4, -0x2
800052f0: 0ec6f163     	bgeu	a3, a2, 0x800053d2 <.Lpcrel_hi87>
800052f4: 03081793     	slli	a5, a6, 0x30
800052f8: 6485         	lui	s1, 0x1
800052fa: 06400893     	li	a7, 0x64
800052fe: 93c9         	srli	a5, a5, 0x32
80005300: 47b48493     	addi	s1, s1, 0x47b
80005304: 029787b3     	mul	a5, a5, s1

0000000080005308 <.Lpcrel_hi86>:
80005308: 00003297     	auipc	t0, 0x3
8000530c: 83c5         	srli	a5, a5, 0x11
8000530e: 031784b3     	mul	s1, a5, a7
80005312: 409804bb     	subw	s1, a6, s1
80005316: 14c6         	slli	s1, s1, 0x31
80005318: 0304d813     	srli	a6, s1, 0x30
8000531c: d8f28493     	addi	s1, t0, -0x271
80005320: 94c2         	add	s1, s1, a6
80005322: 0004c803     	lbu	a6, 0x0(s1)
80005326: 00d588b3     	add	a7, a1, a3
8000532a: 177d         	addi	a4, a4, -0x1
8000532c: 01088023     	sb	a6, 0x0(a7)
80005330: 0ac77c63     	bgeu	a4, a2, 0x800053e8 <.Lpcrel_hi88>
80005334: 0014c483     	lbu	s1, 0x1(s1)
80005338: 972e         	add	a4, a4, a1
8000533a: 00970023     	sb	s1, 0x0(a4)
8000533e: e509         	bnez	a0, 0x80005348 <.Lpcrel_hi86+0x40>
80005340: a029         	j	0x8000534a <.Lpcrel_hi86+0x42>
80005342: 87c2         	mv	a5, a6
80005344: 86ba         	mv	a3, a4
80005346: c111         	beqz	a0, 0x8000534a <.Lpcrel_hi86+0x42>
80005348: cf99         	beqz	a5, 0x80005366 <.Lpcrel_hi90+0x14>
8000534a: 16fd         	addi	a3, a3, -0x1
8000534c: 0ac6f963     	bgeu	a3, a2, 0x800053fe <.Lpcrel_hi89>
80005350: 0786         	slli	a5, a5, 0x1

0000000080005352 <.Lpcrel_hi90>:
80005352: 00003517     	auipc	a0, 0x3
80005356: d4550513     	addi	a0, a0, -0x2bb
8000535a: 953e         	add	a0, a0, a5
8000535c: 00154503     	lbu	a0, 0x1(a0)
80005360: 95b6         	add	a1, a1, a3
80005362: 00a58023     	sb	a0, 0x0(a1)
80005366: 8536         	mv	a0, a3
80005368: 70e2         	ld	ra, 0x38(sp)
8000536a: 7442         	ld	s0, 0x30(sp)
8000536c: 74a2         	ld	s1, 0x28(sp)
8000536e: 7902         	ld	s2, 0x20(sp)
80005370: 69e2         	ld	s3, 0x18(sp)
80005372: 6a42         	ld	s4, 0x10(sp)
80005374: 6aa2         	ld	s5, 0x8(sp)
80005376: 6121         	addi	sp, sp, 0x40
80005378: 8082         	ret

000000008000537a <.Lpcrel_hi94>:
8000537a: 00003517     	auipc	a0, 0x3
8000537e: de650713     	addi	a4, a0, -0x21a
80005382: 8536         	mv	a0, a3
80005384: 85b2         	mv	a1, a2
80005386: 863a         	mv	a2, a4
80005388: 00001097     	auipc	ra, 0x1
8000538c: a48080e7     	jalr	-0x5b8(ra) <core::panicking::panic_bounds_check::h6aaee0d15e0261eb>

0000000080005390 <.Lpcrel_hi93>:
80005390: 00003517     	auipc	a0, 0x3
80005394: dd050713     	addi	a4, a0, -0x230
80005398: 8536         	mv	a0, a3
8000539a: 85b2         	mv	a1, a2
8000539c: 863a         	mv	a2, a4
8000539e: 00001097     	auipc	ra, 0x1
800053a2: a32080e7     	jalr	-0x5ce(ra) <core::panicking::panic_bounds_check::h6aaee0d15e0261eb>

00000000800053a6 <.Lpcrel_hi92>:
800053a6: 00003517     	auipc	a0, 0x3
800053aa: dba50713     	addi	a4, a0, -0x246
800053ae: 8536         	mv	a0, a3
800053b0: 85b2         	mv	a1, a2
800053b2: 863a         	mv	a2, a4
800053b4: 00001097     	auipc	ra, 0x1
800053b8: a1c080e7     	jalr	-0x5e4(ra) <core::panicking::panic_bounds_check::h6aaee0d15e0261eb>

00000000800053bc <.Lpcrel_hi91>:
800053bc: 00003517     	auipc	a0, 0x3
800053c0: da450713     	addi	a4, a0, -0x25c
800053c4: 8536         	mv	a0, a3
800053c6: 85b2         	mv	a1, a2
800053c8: 863a         	mv	a2, a4
800053ca: 00001097     	auipc	ra, 0x1
800053ce: a06080e7     	jalr	-0x5fa(ra) <core::panicking::panic_bounds_check::h6aaee0d15e0261eb>

00000000800053d2 <.Lpcrel_hi87>:
800053d2: 00003517     	auipc	a0, 0x3
800053d6: d8e50713     	addi	a4, a0, -0x272
800053da: 8536         	mv	a0, a3
800053dc: 85b2         	mv	a1, a2
800053de: 863a         	mv	a2, a4
800053e0: 00001097     	auipc	ra, 0x1
800053e4: 9f0080e7     	jalr	-0x610(ra) <core::panicking::panic_bounds_check::h6aaee0d15e0261eb>

00000000800053e8 <.Lpcrel_hi88>:
800053e8: 00003517     	auipc	a0, 0x3
800053ec: d7850693     	addi	a3, a0, -0x288
800053f0: 853a         	mv	a0, a4
800053f2: 85b2         	mv	a1, a2
800053f4: 8636         	mv	a2, a3
800053f6: 00001097     	auipc	ra, 0x1
800053fa: 9da080e7     	jalr	-0x626(ra) <core::panicking::panic_bounds_check::h6aaee0d15e0261eb>

00000000800053fe <.Lpcrel_hi89>:
800053fe: 00003517     	auipc	a0, 0x3
80005402: d6250713     	addi	a4, a0, -0x29e
80005406: 8536         	mv	a0, a3
80005408: 85b2         	mv	a1, a2
8000540a: 863a         	mv	a2, a4
8000540c: 00001097     	auipc	ra, 0x1
80005410: 9c4080e7     	jalr	-0x63c(ra) <core::panicking::panic_bounds_check::h6aaee0d15e0261eb>

0000000080005414 <core::fmt::num::imp::_$LT$impl$u20$core..fmt..Display$u20$for$u20$u32$GT$::fmt::hc19fd54e2a0ceeb1>:
80005414: 7139         	addi	sp, sp, -0x40
80005416: fc06         	sd	ra, 0x38(sp)
80005418: f822         	sd	s0, 0x30(sp)
8000541a: f426         	sd	s1, 0x28(sp)
8000541c: f04a         	sd	s2, 0x20(sp)
8000541e: ec4e         	sd	s3, 0x18(sp)
80005420: 0080         	addi	s0, sp, 0x40
80005422: 4108         	lw	a0, 0x0(a0)
80005424: 84ae         	mv	s1, a1
80005426: fce40913     	addi	s2, s0, -0x32
8000542a: fce40593     	addi	a1, s0, -0x32
8000542e: 4629         	li	a2, 0xa
80005430: 49a9         	li	s3, 0xa
80005432: 00000097     	auipc	ra, 0x0
80005436: bd2080e7     	jalr	-0x42e(ra) <core::fmt::num::imp::_$LT$impl$u20$u32$GT$::_fmt_inner::h2c8ef1aec4279901>
8000543a: 40a987b3     	sub	a5, s3, a0
8000543e: 00a90733     	add	a4, s2, a0
80005442: 4585         	li	a1, 0x1
80005444: 4605         	li	a2, 0x1
80005446: 8526         	mv	a0, s1
80005448: 4681         	li	a3, 0x0
8000544a: 00000097     	auipc	ra, 0x0
8000544e: 348080e7     	jalr	0x348(ra) <core::fmt::Formatter::pad_integral::h0745a9fd037e4d44>
80005452: 70e2         	ld	ra, 0x38(sp)
80005454: 7442         	ld	s0, 0x30(sp)
80005456: 74a2         	ld	s1, 0x28(sp)
80005458: 7902         	ld	s2, 0x20(sp)
8000545a: 69e2         	ld	s3, 0x18(sp)
8000545c: 6121         	addi	sp, sp, 0x40
8000545e: 8082         	ret

0000000080005460 <core::fmt::num::imp::_$LT$impl$u20$core..fmt..Display$u20$for$u20$usize$GT$::fmt::h566085f0242c3154>:
80005460: 7139         	addi	sp, sp, -0x40
80005462: fc06         	sd	ra, 0x38(sp)
80005464: f822         	sd	s0, 0x30(sp)
80005466: f426         	sd	s1, 0x28(sp)
80005468: f04a         	sd	s2, 0x20(sp)
8000546a: ec4e         	sd	s3, 0x18(sp)
8000546c: 0080         	addi	s0, sp, 0x40
8000546e: 6108         	ld	a0, 0x0(a0)
80005470: 84ae         	mv	s1, a1
80005472: fc440913     	addi	s2, s0, -0x3c
80005476: fc440593     	addi	a1, s0, -0x3c
8000547a: 4651         	li	a2, 0x14
8000547c: 49d1         	li	s3, 0x14
8000547e: 00000097     	auipc	ra, 0x0
80005482: d92080e7     	jalr	-0x26e(ra) <core::fmt::num::imp::_$LT$impl$u20$u64$GT$::_fmt_inner::habf36a285bd59e0b>
80005486: 40a987b3     	sub	a5, s3, a0
8000548a: 00a90733     	add	a4, s2, a0
8000548e: 4585         	li	a1, 0x1
80005490: 4605         	li	a2, 0x1
80005492: 8526         	mv	a0, s1
80005494: 4681         	li	a3, 0x0
80005496: 00000097     	auipc	ra, 0x0
8000549a: 2fc080e7     	jalr	0x2fc(ra) <core::fmt::Formatter::pad_integral::h0745a9fd037e4d44>
8000549e: 70e2         	ld	ra, 0x38(sp)
800054a0: 7442         	ld	s0, 0x30(sp)
800054a2: 74a2         	ld	s1, 0x28(sp)
800054a4: 7902         	ld	s2, 0x20(sp)
800054a6: 69e2         	ld	s3, 0x18(sp)
800054a8: 6121         	addi	sp, sp, 0x40
800054aa: 8082         	ret

00000000800054ac <core::fmt::num::_$LT$impl$u20$core..fmt..LowerHex$u20$for$u20$usize$GT$::fmt::hcb99b156cc230e11>:
800054ac: 1101         	addi	sp, sp, -0x20
800054ae: ec06         	sd	ra, 0x18(sp)
800054b0: e822         	sd	s0, 0x10(sp)
800054b2: 1000         	addi	s0, sp, 0x20
800054b4: 882e         	mv	a6, a1
800054b6: 4781         	li	a5, 0x0
800054b8: 6108         	ld	a0, 0x0(a0)
800054ba: fef40593     	addi	a1, s0, -0x11

00000000800054be <.Lpcrel_hi209>:
800054be: 00001617     	auipc	a2, 0x1
800054c2: d4260613     	addi	a2, a2, -0x2be
800054c6: 00f57693     	andi	a3, a0, 0xf
800054ca: 96b2         	add	a3, a3, a2
800054cc: 0006c683     	lbu	a3, 0x0(a3)
800054d0: 8111         	srli	a0, a0, 0x4
800054d2: 0785         	addi	a5, a5, 0x1
800054d4: 00d58023     	sb	a3, 0x0(a1)
800054d8: 15fd         	addi	a1, a1, -0x1
800054da: f575         	bnez	a0, 0x800054c6 <.Lpcrel_hi209+0x8>
800054dc: fe040513     	addi	a0, s0, -0x20
800054e0: 8d1d         	sub	a0, a0, a5
800054e2: 01050713     	addi	a4, a0, 0x10

00000000800054e6 <.Lpcrel_hi210>:
800054e6: 00003517     	auipc	a0, 0x3
800054ea: 4585         	li	a1, 0x1
800054ec: c9250613     	addi	a2, a0, -0x36e
800054f0: 4689         	li	a3, 0x2
800054f2: 8542         	mv	a0, a6
800054f4: 00000097     	auipc	ra, 0x0
800054f8: 29e080e7     	jalr	0x29e(ra) <core::fmt::Formatter::pad_integral::h0745a9fd037e4d44>
800054fc: 60e2         	ld	ra, 0x18(sp)
800054fe: 6442         	ld	s0, 0x10(sp)
80005500: 6105         	addi	sp, sp, 0x20
80005502: 8082         	ret

0000000080005504 <core::fmt::num::_$LT$impl$u20$core..fmt..UpperHex$u20$for$u20$u32$GT$::fmt::h07f6b7b2f3968c14>:
80005504: 1101         	addi	sp, sp, -0x20
80005506: ec06         	sd	ra, 0x18(sp)
80005508: e822         	sd	s0, 0x10(sp)
8000550a: 1000         	addi	s0, sp, 0x20
8000550c: 882e         	mv	a6, a1
8000550e: 4781         	li	a5, 0x0
80005510: 4110         	lw	a2, 0x0(a0)
80005512: fef40513     	addi	a0, s0, -0x11

0000000080005516 <.Lpcrel_hi219>:
80005516: 00001597     	auipc	a1, 0x1
8000551a: cba58593     	addi	a1, a1, -0x346
8000551e: 00f67693     	andi	a3, a2, 0xf
80005522: 96ae         	add	a3, a3, a1
80005524: 0006c683     	lbu	a3, 0x0(a3)
80005528: 0046571b     	srliw	a4, a2, 0x4
8000552c: 0785         	addi	a5, a5, 0x1
8000552e: 00d50023     	sb	a3, 0x0(a0)
80005532: 157d         	addi	a0, a0, -0x1
80005534: 863a         	mv	a2, a4
80005536: f765         	bnez	a4, 0x8000551e <.Lpcrel_hi219+0x8>
80005538: fe840513     	addi	a0, s0, -0x18
8000553c: 8d1d         	sub	a0, a0, a5
8000553e: 00850713     	addi	a4, a0, 0x8

0000000080005542 <.Lpcrel_hi220>:
80005542: 00003517     	auipc	a0, 0x3
80005546: 4585         	li	a1, 0x1
80005548: c3650613     	addi	a2, a0, -0x3ca
8000554c: 4689         	li	a3, 0x2
8000554e: 8542         	mv	a0, a6
80005550: 00000097     	auipc	ra, 0x0
80005554: 242080e7     	jalr	0x242(ra) <core::fmt::Formatter::pad_integral::h0745a9fd037e4d44>
80005558: 60e2         	ld	ra, 0x18(sp)
8000555a: 6442         	ld	s0, 0x10(sp)
8000555c: 6105         	addi	sp, sp, 0x20
8000555e: 8082         	ret

0000000080005560 <core::fmt::write::hfd17e9e8e823b619>:
80005560: 7119         	addi	sp, sp, -0x80
80005562: fc86         	sd	ra, 0x78(sp)
80005564: f8a2         	sd	s0, 0x70(sp)
80005566: f4a6         	sd	s1, 0x68(sp)
80005568: f0ca         	sd	s2, 0x60(sp)
8000556a: ecce         	sd	s3, 0x58(sp)
8000556c: e8d2         	sd	s4, 0x50(sp)
8000556e: e4d6         	sd	s5, 0x48(sp)
80005570: e0da         	sd	s6, 0x40(sp)
80005572: fc5e         	sd	s7, 0x38(sp)
80005574: f862         	sd	s8, 0x30(sp)
80005576: f466         	sd	s9, 0x28(sp)
80005578: f06a         	sd	s10, 0x20(sp)
8000557a: 0100         	addi	s0, sp, 0x80
8000557c: 89b6         	mv	s3, a3
8000557e: 892e         	mv	s2, a1
80005580: 0016f593     	andi	a1, a3, 0x1
80005584: 8a2a         	mv	s4, a0
80005586: 16059063     	bnez	a1, 0x800056e6 <core::fmt::write::hfd17e9e8e823b619+0x186>
8000558a: 00064483     	lbu	s1, 0x0(a2)
8000558e: 18048163     	beqz	s1, 0x80005710 <core::fmt::write::hfd17e9e8e823b619+0x1b0>
80005592: 4c81         	li	s9, 0x0
80005594: 01893b03     	ld	s6, 0x18(s2)
80005598: 08000b93     	li	s7, 0x80
8000559c: 0c000c13     	li	s8, 0xc0
800055a0: 60000537     	lui	a0, 0x60000
800055a4: 02050d13     	addi	s10, a0, 0x20
800055a8: a805         	j	0x800055d8 <core::fmt::write::hfd17e9e8e823b619+0x78>
800055aa: 004c9513     	slli	a0, s9, 0x4
800055ae: 00a985b3     	add	a1, s3, a0
800055b2: 6188         	ld	a0, 0x0(a1)
800055b4: 6590         	ld	a2, 0x8(a1)
800055b6: f9443423     	sd	s4, -0x78(s0)
800055ba: f9243823     	sd	s2, -0x70(s0)
800055be: f9a43c23     	sd	s10, -0x68(s0)
800055c2: f8840593     	addi	a1, s0, -0x78
800055c6: 9602         	jalr	a2
800055c8: 14051663     	bnez	a0, 0x80005714 <core::fmt::write::hfd17e9e8e823b619+0x1b4>
800055cc: 0c85         	addi	s9, s9, 0x1
800055ce: 000ac483     	lbu	s1, 0x0(s5)
800055d2: 8656         	mv	a2, s5
800055d4: 12048e63     	beqz	s1, 0x80005710 <core::fmt::write::hfd17e9e8e823b619+0x1b0>
800055d8: 03849513     	slli	a0, s1, 0x38
800055dc: 00160a93     	addi	s5, a2, 0x1
800055e0: 00054a63     	bltz	a0, 0x800055f4 <core::fmt::write::hfd17e9e8e823b619+0x94>
800055e4: 8552         	mv	a0, s4
800055e6: 85d6         	mv	a1, s5
800055e8: 8626         	mv	a2, s1
800055ea: 9b02         	jalr	s6
800055ec: 12051463     	bnez	a0, 0x80005714 <core::fmt::write::hfd17e9e8e823b619+0x1b4>
800055f0: 9aa6         	add	s5, s5, s1
800055f2: bff1         	j	0x800055ce <core::fmt::write::hfd17e9e8e823b619+0x6e>
800055f4: 05748b63     	beq	s1, s7, 0x8000564a <core::fmt::write::hfd17e9e8e823b619+0xea>
800055f8: fb8489e3     	beq	s1, s8, 0x800055aa <core::fmt::write::hfd17e9e8e823b619+0x4a>
800055fc: 0014f513     	andi	a0, s1, 0x1
80005600: 85ea         	mv	a1, s10
80005602: c115         	beqz	a0, 0x80005626 <core::fmt::write::hfd17e9e8e823b619+0xc6>
80005604: 00264503     	lbu	a0, 0x2(a2)
80005608: 00164583     	lbu	a1, 0x1(a2)
8000560c: 00364683     	lbu	a3, 0x3(a2)
80005610: 00464703     	lbu	a4, 0x4(a2)
80005614: 0522         	slli	a0, a0, 0x8
80005616: 8d4d         	or	a0, a0, a1
80005618: 06c2         	slli	a3, a3, 0x10
8000561a: 0762         	slli	a4, a4, 0x18
8000561c: 00d765b3     	or	a1, a4, a3
80005620: 8dc9         	or	a1, a1, a0
80005622: 00560a93     	addi	s5, a2, 0x5
80005626: 0024f513     	andi	a0, s1, 0x2
8000562a: e121         	bnez	a0, 0x8000566a <core::fmt::write::hfd17e9e8e823b619+0x10a>
8000562c: 4601         	li	a2, 0x0
8000562e: 0044f513     	andi	a0, s1, 0x4
80005632: c531         	beqz	a0, 0x8000567e <core::fmt::write::hfd17e9e8e823b619+0x11e>
80005634: 001ac503     	lbu	a0, 0x1(s5)
80005638: 000ac683     	lbu	a3, 0x0(s5)
8000563c: 0522         	slli	a0, a0, 0x8
8000563e: 8ec9         	or	a3, a3, a0
80005640: 0a89         	addi	s5, s5, 0x2
80005642: 0084f513     	andi	a0, s1, 0x8
80005646: e121         	bnez	a0, 0x80005686 <core::fmt::write::hfd17e9e8e823b619+0x126>
80005648: a0b9         	j	0x80005696 <core::fmt::write::hfd17e9e8e823b619+0x136>
8000564a: 00264503     	lbu	a0, 0x2(a2)
8000564e: 00164583     	lbu	a1, 0x1(a2)
80005652: 0522         	slli	a0, a0, 0x8
80005654: 00b56ab3     	or	s5, a0, a1
80005658: 00360493     	addi	s1, a2, 0x3
8000565c: 8552         	mv	a0, s4
8000565e: 85a6         	mv	a1, s1
80005660: 8656         	mv	a2, s5
80005662: 9b02         	jalr	s6
80005664: e945         	bnez	a0, 0x80005714 <core::fmt::write::hfd17e9e8e823b619+0x1b4>
80005666: 9aa6         	add	s5, s5, s1
80005668: b79d         	j	0x800055ce <core::fmt::write::hfd17e9e8e823b619+0x6e>
8000566a: 001ac503     	lbu	a0, 0x1(s5)
8000566e: 000ac603     	lbu	a2, 0x0(s5)
80005672: 0522         	slli	a0, a0, 0x8
80005674: 8e49         	or	a2, a2, a0
80005676: 0a89         	addi	s5, s5, 0x2
80005678: 0044f513     	andi	a0, s1, 0x4
8000567c: fd45         	bnez	a0, 0x80005634 <core::fmt::write::hfd17e9e8e823b619+0xd4>
8000567e: 4681         	li	a3, 0x0
80005680: 0084f513     	andi	a0, s1, 0x8
80005684: c909         	beqz	a0, 0x80005696 <core::fmt::write::hfd17e9e8e823b619+0x136>
80005686: 001ac503     	lbu	a0, 0x1(s5)
8000568a: 000ac703     	lbu	a4, 0x0(s5)
8000568e: 0522         	slli	a0, a0, 0x8
80005690: 00e56cb3     	or	s9, a0, a4
80005694: 0a89         	addi	s5, s5, 0x2
80005696: 0104f513     	andi	a0, s1, 0x10
8000569a: ed15         	bnez	a0, 0x800056d6 <core::fmt::write::hfd17e9e8e823b619+0x176>
8000569c: 0204f513     	andi	a0, s1, 0x20
800056a0: c509         	beqz	a0, 0x800056aa <core::fmt::write::hfd17e9e8e823b619+0x14a>
800056a2: 0692         	slli	a3, a3, 0x4
800056a4: 96ce         	add	a3, a3, s3
800056a6: 0086d683     	lhu	a3, 0x8(a3)
800056aa: 004c9513     	slli	a0, s9, 0x4
800056ae: 00a98733     	add	a4, s3, a0
800056b2: 6308         	ld	a0, 0x0(a4)
800056b4: 6718         	ld	a4, 0x8(a4)
800056b6: f9443423     	sd	s4, -0x78(s0)
800056ba: f9243823     	sd	s2, -0x70(s0)
800056be: f8b42c23     	sw	a1, -0x68(s0)
800056c2: f8c41e23     	sh	a2, -0x64(s0)
800056c6: f8d41f23     	sh	a3, -0x62(s0)
800056ca: f8840593     	addi	a1, s0, -0x78
800056ce: 9702         	jalr	a4
800056d0: ee050ee3     	beqz	a0, 0x800055cc <core::fmt::write::hfd17e9e8e823b619+0x6c>
800056d4: a081         	j	0x80005714 <core::fmt::write::hfd17e9e8e823b619+0x1b4>
800056d6: 0612         	slli	a2, a2, 0x4
800056d8: 964e         	add	a2, a2, s3
800056da: 00865603     	lhu	a2, 0x8(a2)
800056de: 0204f513     	andi	a0, s1, 0x20
800056e2: f161         	bnez	a0, 0x800056a2 <core::fmt::write::hfd17e9e8e823b619+0x142>
800056e4: b7d9         	j	0x800056aa <core::fmt::write::hfd17e9e8e823b619+0x14a>
800056e6: 01893783     	ld	a5, 0x18(s2)
800056ea: 0019d693     	srli	a3, s3, 0x1
800056ee: 8552         	mv	a0, s4
800056f0: 85b2         	mv	a1, a2
800056f2: 8636         	mv	a2, a3
800056f4: 70e6         	ld	ra, 0x78(sp)
800056f6: 7446         	ld	s0, 0x70(sp)
800056f8: 74a6         	ld	s1, 0x68(sp)
800056fa: 7906         	ld	s2, 0x60(sp)
800056fc: 69e6         	ld	s3, 0x58(sp)
800056fe: 6a46         	ld	s4, 0x50(sp)
80005700: 6aa6         	ld	s5, 0x48(sp)
80005702: 6b06         	ld	s6, 0x40(sp)
80005704: 7be2         	ld	s7, 0x38(sp)
80005706: 7c42         	ld	s8, 0x30(sp)
80005708: 7ca2         	ld	s9, 0x28(sp)
8000570a: 7d02         	ld	s10, 0x20(sp)
8000570c: 6109         	addi	sp, sp, 0x80
8000570e: 8782         	jr	a5
80005710: 4501         	li	a0, 0x0
80005712: a011         	j	0x80005716 <core::fmt::write::hfd17e9e8e823b619+0x1b6>
80005714: 4505         	li	a0, 0x1
80005716: 70e6         	ld	ra, 0x78(sp)
80005718: 7446         	ld	s0, 0x70(sp)
8000571a: 74a6         	ld	s1, 0x68(sp)
8000571c: 7906         	ld	s2, 0x60(sp)
8000571e: 69e6         	ld	s3, 0x58(sp)
80005720: 6a46         	ld	s4, 0x50(sp)
80005722: 6aa6         	ld	s5, 0x48(sp)
80005724: 6b06         	ld	s6, 0x40(sp)
80005726: 7be2         	ld	s7, 0x38(sp)
80005728: 7c42         	ld	s8, 0x30(sp)
8000572a: 7ca2         	ld	s9, 0x28(sp)
8000572c: 7d02         	ld	s10, 0x20(sp)
8000572e: 6109         	addi	sp, sp, 0x80
80005730: 8082         	ret

0000000080005732 <core::fmt::Formatter::pad_integral::write_prefix::hfc34f482b9af976a>:
80005732: 7179         	addi	sp, sp, -0x30
80005734: f406         	sd	ra, 0x28(sp)
80005736: f022         	sd	s0, 0x20(sp)
80005738: ec26         	sd	s1, 0x18(sp)
8000573a: e84a         	sd	s2, 0x10(sp)
8000573c: e44e         	sd	s3, 0x8(sp)
8000573e: e052         	sd	s4, 0x0(sp)
80005740: 1800         	addi	s0, sp, 0x30
80005742: 893a         	mv	s2, a4
80005744: 8a36         	mv	s4, a3
80005746: 89ae         	mv	s3, a1
80005748: 001105b7     	lui	a1, 0x110
8000574c: 00b60c63     	beq	a2, a1, 0x80005764 <core::fmt::Formatter::pad_integral::write_prefix::hfc34f482b9af976a+0x32>
80005750: 0209b683     	ld	a3, 0x20(s3)
80005754: 84aa         	mv	s1, a0
80005756: 85b2         	mv	a1, a2
80005758: 9682         	jalr	a3
8000575a: 85aa         	mv	a1, a0
8000575c: 8526         	mv	a0, s1
8000575e: c199         	beqz	a1, 0x80005764 <core::fmt::Formatter::pad_integral::write_prefix::hfc34f482b9af976a+0x32>
80005760: 4505         	li	a0, 0x1
80005762: a005         	j	0x80005782 <core::fmt::Formatter::pad_integral::write_prefix::hfc34f482b9af976a+0x50>
80005764: 000a0e63     	beqz	s4, 0x80005780 <core::fmt::Formatter::pad_integral::write_prefix::hfc34f482b9af976a+0x4e>
80005768: 0189b783     	ld	a5, 0x18(s3)
8000576c: 85d2         	mv	a1, s4
8000576e: 864a         	mv	a2, s2
80005770: 70a2         	ld	ra, 0x28(sp)
80005772: 7402         	ld	s0, 0x20(sp)
80005774: 64e2         	ld	s1, 0x18(sp)
80005776: 6942         	ld	s2, 0x10(sp)
80005778: 69a2         	ld	s3, 0x8(sp)
8000577a: 6a02         	ld	s4, 0x0(sp)
8000577c: 6145         	addi	sp, sp, 0x30
8000577e: 8782         	jr	a5
80005780: 4501         	li	a0, 0x0
80005782: 70a2         	ld	ra, 0x28(sp)
80005784: 7402         	ld	s0, 0x20(sp)
80005786: 64e2         	ld	s1, 0x18(sp)
80005788: 6942         	ld	s2, 0x10(sp)
8000578a: 69a2         	ld	s3, 0x8(sp)
8000578c: 6a02         	ld	s4, 0x0(sp)
8000578e: 6145         	addi	sp, sp, 0x30
80005790: 8082         	ret

0000000080005792 <core::fmt::Formatter::pad_integral::h0745a9fd037e4d44>:
80005792: 7119         	addi	sp, sp, -0x80
80005794: fc86         	sd	ra, 0x78(sp)
80005796: f8a2         	sd	s0, 0x70(sp)
80005798: f4a6         	sd	s1, 0x68(sp)
8000579a: f0ca         	sd	s2, 0x60(sp)
8000579c: ecce         	sd	s3, 0x58(sp)
8000579e: e8d2         	sd	s4, 0x50(sp)
800057a0: e4d6         	sd	s5, 0x48(sp)
800057a2: e0da         	sd	s6, 0x40(sp)
800057a4: fc5e         	sd	s7, 0x38(sp)
800057a6: f862         	sd	s8, 0x30(sp)
800057a8: f466         	sd	s9, 0x28(sp)
800057aa: f06a         	sd	s10, 0x20(sp)
800057ac: ec6e         	sd	s11, 0x18(sp)
800057ae: 0100         	addi	s0, sp, 0x80
800057b0: 89be         	mv	s3, a5
800057b2: 8d3a         	mv	s10, a4
800057b4: 8a36         	mv	s4, a3
800057b6: 8ab2         	mv	s5, a2
800057b8: 8baa         	mv	s7, a0
800057ba: cdbd         	beqz	a1, 0x80005838 <core::fmt::Formatter::pad_integral::h0745a9fd037e4d44+0xa6>
800057bc: 010bec03     	lwu	s8, 0x10(s7)
800057c0: 00200537     	lui	a0, 0x200
800057c4: 00ac7533     	and	a0, s8, a0
800057c8: 00110b37     	lui	s6, 0x110
800057cc: c119         	beqz	a0, 0x800057d2 <core::fmt::Formatter::pad_integral::h0745a9fd037e4d44+0x40>
800057ce: 02b00b13     	li	s6, 0x2b
800057d2: 8155         	srli	a0, a0, 0x15
800057d4: 00a98cb3     	add	s9, s3, a0
800057d8: 028c1513     	slli	a0, s8, 0x28
800057dc: 06055863     	bgez	a0, 0x8000584c <core::fmt::Formatter::pad_integral::h0745a9fd037e4d44+0xba>
800057e0: 02000513     	li	a0, 0x20
800057e4: 0aaa7a63     	bgeu	s4, a0, 0x80005898 <core::fmt::Formatter::pad_integral::h0745a9fd037e4d44+0x106>
800057e8: 4501         	li	a0, 0x0
800057ea: 000a0f63     	beqz	s4, 0x80005808 <core::fmt::Formatter::pad_integral::h0745a9fd037e4d44+0x76>
800057ee: 014a85b3     	add	a1, s5, s4
800057f2: 8656         	mv	a2, s5
800057f4: 00060683     	lb	a3, 0x0(a2)
800057f8: 0605         	addi	a2, a2, 0x1
800057fa: fc06a693     	slti	a3, a3, -0x40
800057fe: 0016c693     	xori	a3, a3, 0x1
80005802: 9536         	add	a0, a0, a3
80005804: feb618e3     	bne	a2, a1, 0x800057f4 <core::fmt::Formatter::pad_integral::h0745a9fd037e4d44+0x62>
80005808: 9caa         	add	s9, s9, a0
8000580a: 014bd903     	lhu	s2, 0x14(s7)
8000580e: 052cf463     	bgeu	s9, s2, 0x80005856 <core::fmt::Formatter::pad_integral::h0745a9fd037e4d44+0xc4>
80005812: 027c1513     	slli	a0, s8, 0x27
80005816: f9a43823     	sd	s10, -0x70(s0)
8000581a: 08054b63     	bltz	a0, 0x800058b0 <core::fmt::Formatter::pad_integral::h0745a9fd037e4d44+0x11e>
8000581e: 41990633     	sub	a2, s2, s9
80005822: 021c1513     	slli	a0, s8, 0x21
80005826: 9179         	srli	a0, a0, 0x3e
80005828: 4585         	li	a1, 0x1
8000582a: 1c2e         	slli	s8, s8, 0x2b
8000582c: 0ea5c263     	blt	a1, a0, 0x80005910 <core::fmt::Formatter::pad_integral::h0745a9fd037e4d44+0x17e>
80005830: 10051563     	bnez	a0, 0x8000593a <core::fmt::Formatter::pad_integral::h0745a9fd037e4d44+0x1a8>
80005834: 4d81         	li	s11, 0x0
80005836: a219         	j	0x8000593c <core::fmt::Formatter::pad_integral::h0745a9fd037e4d44+0x1aa>
80005838: 010bac03     	lw	s8, 0x10(s7)
8000583c: 00198c93     	addi	s9, s3, 0x1
80005840: 02d00b13     	li	s6, 0x2d
80005844: 028c1513     	slli	a0, s8, 0x28
80005848: f8054ce3     	bltz	a0, 0x800057e0 <core::fmt::Formatter::pad_integral::h0745a9fd037e4d44+0x4e>
8000584c: 4a81         	li	s5, 0x0
8000584e: 014bd903     	lhu	s2, 0x14(s7)
80005852: fd2ce0e3     	bltu	s9, s2, 0x80005812 <core::fmt::Formatter::pad_integral::h0745a9fd037e4d44+0x80>
80005856: 000bbc03     	ld	s8, 0x0(s7)
8000585a: 008bb483     	ld	s1, 0x8(s7)
8000585e: 8562         	mv	a0, s8
80005860: 85a6         	mv	a1, s1
80005862: 865a         	mv	a2, s6
80005864: 86d6         	mv	a3, s5
80005866: 8752         	mv	a4, s4
80005868: 00000097     	auipc	ra, 0x0
8000586c: eca080e7     	jalr	-0x136(ra) <core::fmt::Formatter::pad_integral::write_prefix::hfc34f482b9af976a>
80005870: ed75         	bnez	a0, 0x8000596c <core::fmt::Formatter::pad_integral::h0745a9fd037e4d44+0x1da>
80005872: 6c9c         	ld	a5, 0x18(s1)
80005874: 8562         	mv	a0, s8
80005876: 85ea         	mv	a1, s10
80005878: 864e         	mv	a2, s3
8000587a: 70e6         	ld	ra, 0x78(sp)
8000587c: 7446         	ld	s0, 0x70(sp)
8000587e: 74a6         	ld	s1, 0x68(sp)
80005880: 7906         	ld	s2, 0x60(sp)
80005882: 69e6         	ld	s3, 0x58(sp)
80005884: 6a46         	ld	s4, 0x50(sp)
80005886: 6aa6         	ld	s5, 0x48(sp)
80005888: 6b06         	ld	s6, 0x40(sp)
8000588a: 7be2         	ld	s7, 0x38(sp)
8000588c: 7c42         	ld	s8, 0x30(sp)
8000588e: 7ca2         	ld	s9, 0x28(sp)
80005890: 7d02         	ld	s10, 0x20(sp)
80005892: 6de2         	ld	s11, 0x18(sp)
80005894: 6109         	addi	sp, sp, 0x80
80005896: 8782         	jr	a5
80005898: 8556         	mv	a0, s5
8000589a: 85d2         	mv	a1, s4
8000589c: 00000097     	auipc	ra, 0x0
800058a0: 30c080e7     	jalr	0x30c(ra) <core::str::count::do_count_chars::h6ce55074ab2fe9d1>
800058a4: 9caa         	add	s9, s9, a0
800058a6: 014bd903     	lhu	s2, 0x14(s7)
800058aa: fb2cf6e3     	bgeu	s9, s2, 0x80005856 <core::fmt::Formatter::pad_integral::h0745a9fd037e4d44+0xc4>
800058ae: b795         	j	0x80005812 <core::fmt::Formatter::pad_integral::h0745a9fd037e4d44+0x80>
800058b0: 010bbd03     	ld	s10, 0x10(s7)
800058b4: 000bbc03     	ld	s8, 0x0(s7)
800058b8: 008bbd83     	ld	s11, 0x8(s7)
800058bc: 9fe00537     	lui	a0, 0x9fe00
800058c0: 200005b7     	lui	a1, 0x20000
800058c4: 00ad7533     	and	a0, s10, a0
800058c8: 03058593     	addi	a1, a1, 0x30
800058cc: 8d4d         	or	a0, a0, a1
800058ce: 00aba823     	sw	a0, 0x10(s7)
800058d2: 8562         	mv	a0, s8
800058d4: 85ee         	mv	a1, s11
800058d6: 865a         	mv	a2, s6
800058d8: 86d6         	mv	a3, s5
800058da: 8752         	mv	a4, s4
800058dc: 00000097     	auipc	ra, 0x0
800058e0: e56080e7     	jalr	-0x1aa(ra) <core::fmt::Formatter::pad_integral::write_prefix::hfc34f482b9af976a>
800058e4: 4a05         	li	s4, 0x1
800058e6: e541         	bnez	a0, 0x8000596e <core::fmt::Formatter::pad_integral::h0745a9fd037e4d44+0x1dc>
800058e8: 4481         	li	s1, 0x0
800058ea: 41990533     	sub	a0, s2, s9
800058ee: 6941         	lui	s2, 0x10
800058f0: 197d         	addi	s2, s2, -0x1
800058f2: 01257ab3     	and	s5, a0, s2
800058f6: 0124f533     	and	a0, s1, s2
800058fa: 03557463     	bgeu	a0, s5, 0x80005922 <core::fmt::Formatter::pad_integral::h0745a9fd037e4d44+0x190>
800058fe: 020db603     	ld	a2, 0x20(s11)
80005902: 0485         	addi	s1, s1, 0x1
80005904: 03000593     	li	a1, 0x30
80005908: 8562         	mv	a0, s8
8000590a: 9602         	jalr	a2
8000590c: d56d         	beqz	a0, 0x800058f6 <core::fmt::Formatter::pad_integral::h0745a9fd037e4d44+0x164>
8000590e: a085         	j	0x8000596e <core::fmt::Formatter::pad_integral::h0745a9fd037e4d44+0x1dc>
80005910: 4589         	li	a1, 0x2
80005912: 8db2         	mv	s11, a2
80005914: 02b51463     	bne	a0, a1, 0x8000593c <core::fmt::Formatter::pad_integral::h0745a9fd037e4d44+0x1aa>
80005918: 03061513     	slli	a0, a2, 0x30
8000591c: 03155d93     	srli	s11, a0, 0x31
80005920: a831         	j	0x8000593c <core::fmt::Formatter::pad_integral::h0745a9fd037e4d44+0x1aa>
80005922: 018db683     	ld	a3, 0x18(s11)
80005926: 8562         	mv	a0, s8
80005928: f9043583     	ld	a1, -0x70(s0)
8000592c: 864e         	mv	a2, s3
8000592e: 9682         	jalr	a3
80005930: ed1d         	bnez	a0, 0x8000596e <core::fmt::Formatter::pad_integral::h0745a9fd037e4d44+0x1dc>
80005932: 4a01         	li	s4, 0x0
80005934: 01abb823     	sd	s10, 0x10(s7)
80005938: a81d         	j	0x8000596e <core::fmt::Formatter::pad_integral::h0745a9fd037e4d44+0x1dc>
8000593a: 8db2         	mv	s11, a2
8000593c: f8c43423     	sd	a2, -0x78(s0)
80005940: 4d01         	li	s10, 0x0
80005942: 02bc5c13     	srli	s8, s8, 0x2b
80005946: 000bbc83     	ld	s9, 0x0(s7)
8000594a: 008bbb83     	ld	s7, 0x8(s7)
8000594e: 64c1         	lui	s1, 0x10
80005950: 14fd         	addi	s1, s1, -0x1
80005952: 009df933     	and	s2, s11, s1
80005956: 009d7533     	and	a0, s10, s1
8000595a: 03257a63     	bgeu	a0, s2, 0x8000598e <core::fmt::Formatter::pad_integral::h0745a9fd037e4d44+0x1fc>
8000595e: 020bb603     	ld	a2, 0x20(s7)
80005962: 0d05         	addi	s10, s10, 0x1
80005964: 8566         	mv	a0, s9
80005966: 85e2         	mv	a1, s8
80005968: 9602         	jalr	a2
8000596a: d575         	beqz	a0, 0x80005956 <core::fmt::Formatter::pad_integral::h0745a9fd037e4d44+0x1c4>
8000596c: 4a05         	li	s4, 0x1
8000596e: 8552         	mv	a0, s4
80005970: 70e6         	ld	ra, 0x78(sp)
80005972: 7446         	ld	s0, 0x70(sp)
80005974: 74a6         	ld	s1, 0x68(sp)
80005976: 7906         	ld	s2, 0x60(sp)
80005978: 69e6         	ld	s3, 0x58(sp)
8000597a: 6a46         	ld	s4, 0x50(sp)
8000597c: 6aa6         	ld	s5, 0x48(sp)
8000597e: 6b06         	ld	s6, 0x40(sp)
80005980: 7be2         	ld	s7, 0x38(sp)
80005982: 7c42         	ld	s8, 0x30(sp)
80005984: 7ca2         	ld	s9, 0x28(sp)
80005986: 7d02         	ld	s10, 0x20(sp)
80005988: 6de2         	ld	s11, 0x18(sp)
8000598a: 6109         	addi	sp, sp, 0x80
8000598c: 8082         	ret
8000598e: 8566         	mv	a0, s9
80005990: 85de         	mv	a1, s7
80005992: 865a         	mv	a2, s6
80005994: 86d6         	mv	a3, s5
80005996: 8752         	mv	a4, s4
80005998: 00000097     	auipc	ra, 0x0
8000599c: d9a080e7     	jalr	-0x266(ra) <core::fmt::Formatter::pad_integral::write_prefix::hfc34f482b9af976a>
800059a0: 4a05         	li	s4, 0x1
800059a2: f571         	bnez	a0, 0x8000596e <core::fmt::Formatter::pad_integral::h0745a9fd037e4d44+0x1dc>
800059a4: 018bb683     	ld	a3, 0x18(s7)
800059a8: 8566         	mv	a0, s9
800059aa: f9043583     	ld	a1, -0x70(s0)
800059ae: 864e         	mv	a2, s3
800059b0: 9682         	jalr	a3
800059b2: fd55         	bnez	a0, 0x8000596e <core::fmt::Formatter::pad_integral::h0745a9fd037e4d44+0x1dc>
800059b4: 4481         	li	s1, 0x0
800059b6: f8843503     	ld	a0, -0x78(s0)
800059ba: 41b50533     	sub	a0, a0, s11
800059be: 6941         	lui	s2, 0x10
800059c0: 197d         	addi	s2, s2, -0x1
800059c2: 012579b3     	and	s3, a0, s2
800059c6: 0124f533     	and	a0, s1, s2
800059ca: 01353a33     	sltu	s4, a0, s3
800059ce: fb3570e3     	bgeu	a0, s3, 0x8000596e <core::fmt::Formatter::pad_integral::h0745a9fd037e4d44+0x1dc>
800059d2: 020bb603     	ld	a2, 0x20(s7)
800059d6: 0485         	addi	s1, s1, 0x1
800059d8: 8566         	mv	a0, s9
800059da: 85e2         	mv	a1, s8
800059dc: 9602         	jalr	a2
800059de: d565         	beqz	a0, 0x800059c6 <core::fmt::Formatter::pad_integral::h0745a9fd037e4d44+0x234>
800059e0: b779         	j	0x8000596e <core::fmt::Formatter::pad_integral::h0745a9fd037e4d44+0x1dc>

00000000800059e2 <core::fmt::Formatter::pad::h239e525174ab4a17>:
800059e2: 711d         	addi	sp, sp, -0x60
800059e4: ec86         	sd	ra, 0x58(sp)
800059e6: e8a2         	sd	s0, 0x50(sp)
800059e8: e4a6         	sd	s1, 0x48(sp)
800059ea: e0ca         	sd	s2, 0x40(sp)
800059ec: fc4e         	sd	s3, 0x38(sp)
800059ee: f852         	sd	s4, 0x30(sp)
800059f0: f456         	sd	s5, 0x28(sp)
800059f2: f05a         	sd	s6, 0x20(sp)
800059f4: ec5e         	sd	s7, 0x18(sp)
800059f6: e862         	sd	s8, 0x10(sp)
800059f8: e466         	sd	s9, 0x8(sp)
800059fa: e06a         	sd	s10, 0x0(sp)
800059fc: 1080         	addi	s0, sp, 0x60
800059fe: 89b2         	mv	s3, a2
80005a00: 01056483     	lwu	s1, 0x10(a0)
80005a04: 18000637     	lui	a2, 0x18000
80005a08: 8e65         	and	a2, a2, s1
80005a0a: 892e         	mv	s2, a1
80005a0c: ce45         	beqz	a2, 0x80005ac4 <core::fmt::Formatter::pad::h239e525174ab4a17+0xe2>
80005a0e: 02349593     	slli	a1, s1, 0x23
80005a12: 0405c863     	bltz	a1, 0x80005a62 <core::fmt::Formatter::pad::h239e525174ab4a17+0x80>
80005a16: 02000593     	li	a1, 0x20
80005a1a: 0cb9f863     	bgeu	s3, a1, 0x80005aea <core::fmt::Formatter::pad::h239e525174ab4a17+0x108>
80005a1e: 4581         	li	a1, 0x0
80005a20: 00098f63     	beqz	s3, 0x80005a3e <core::fmt::Formatter::pad::h239e525174ab4a17+0x5c>
80005a24: 01390633     	add	a2, s2, s3
80005a28: 86ca         	mv	a3, s2
80005a2a: 00068703     	lb	a4, 0x0(a3)
80005a2e: 0685         	addi	a3, a3, 0x1
80005a30: fc072713     	slti	a4, a4, -0x40
80005a34: 00174713     	xori	a4, a4, 0x1
80005a38: 95ba         	add	a1, a1, a4
80005a3a: fec698e3     	bne	a3, a2, 0x80005a2a <core::fmt::Formatter::pad::h239e525174ab4a17+0x48>
80005a3e: 01455603     	lhu	a2, 0x14(a0)
80005a42: 08c5f163     	bgeu	a1, a2, 0x80005ac4 <core::fmt::Formatter::pad::h239e525174ab4a17+0xe2>
80005a46: 4b81         	li	s7, 0x0
80005a48: 40b60b33     	sub	s6, a2, a1
80005a4c: 02149613     	slli	a2, s1, 0x21
80005a50: 9279         	srli	a2, a2, 0x3e
80005a52: 4685         	li	a3, 0x1
80005a54: 02b49593     	slli	a1, s1, 0x2b
80005a58: 0ac6c763     	blt	a3, a2, 0x80005b06 <core::fmt::Formatter::pad::h239e525174ab4a17+0x124>
80005a5c: ce45         	beqz	a2, 0x80005b14 <core::fmt::Formatter::pad::h239e525174ab4a17+0x132>
80005a5e: 8bda         	mv	s7, s6
80005a60: a855         	j	0x80005b14 <core::fmt::Formatter::pad::h239e525174ab4a17+0x132>
80005a62: 01655583     	lhu	a1, 0x16(a0)
80005a66: 10058563     	beqz	a1, 0x80005b70 <core::fmt::Formatter::pad::h239e525174ab4a17+0x18e>
80005a6a: 013906b3     	add	a3, s2, s3
80005a6e: 0e000893     	li	a7, 0xe0
80005a72: 0f000813     	li	a6, 0xf0
80005a76: 87ca         	mv	a5, s2
80005a78: 862e         	mv	a2, a1
80005a7a: 4981         	li	s3, 0x0
80005a7c: a811         	j	0x80005a90 <core::fmt::Formatter::pad::h239e525174ab4a17+0xae>
80005a7e: 00178713     	addi	a4, a5, 0x1
80005a82: 413787b3     	sub	a5, a5, s3
80005a86: 167d         	addi	a2, a2, -0x1
80005a88: 40f709b3     	sub	s3, a4, a5
80005a8c: 87ba         	mv	a5, a4
80005a8e: c615         	beqz	a2, 0x80005aba <core::fmt::Formatter::pad::h239e525174ab4a17+0xd8>
80005a90: 02d78563     	beq	a5, a3, 0x80005aba <core::fmt::Formatter::pad::h239e525174ab4a17+0xd8>
80005a94: 00078703     	lb	a4, 0x0(a5)
80005a98: fe0753e3     	bgez	a4, 0x80005a7e <core::fmt::Formatter::pad::h239e525174ab4a17+0x9c>
80005a9c: 0ff77713     	zext.b	a4, a4
80005aa0: 01176763     	bltu	a4, a7, 0x80005aae <core::fmt::Formatter::pad::h239e525174ab4a17+0xcc>
80005aa4: 01076863     	bltu	a4, a6, 0x80005ab4 <core::fmt::Formatter::pad::h239e525174ab4a17+0xd2>
80005aa8: 00478713     	addi	a4, a5, 0x4
80005aac: bfd9         	j	0x80005a82 <core::fmt::Formatter::pad::h239e525174ab4a17+0xa0>
80005aae: 00278713     	addi	a4, a5, 0x2
80005ab2: bfc1         	j	0x80005a82 <core::fmt::Formatter::pad::h239e525174ab4a17+0xa0>
80005ab4: 00378713     	addi	a4, a5, 0x3
80005ab8: b7e9         	j	0x80005a82 <core::fmt::Formatter::pad::h239e525174ab4a17+0xa0>
80005aba: 8d91         	sub	a1, a1, a2
80005abc: 01455603     	lhu	a2, 0x14(a0)
80005ac0: f8c5e3e3     	bltu	a1, a2, 0x80005a46 <core::fmt::Formatter::pad::h239e525174ab4a17+0x64>
80005ac4: 650c         	ld	a1, 0x8(a0)
80005ac6: 6108         	ld	a0, 0x0(a0)
80005ac8: 6d9c         	ld	a5, 0x18(a1)
80005aca: 85ca         	mv	a1, s2
80005acc: 864e         	mv	a2, s3
80005ace: 60e6         	ld	ra, 0x58(sp)
80005ad0: 6446         	ld	s0, 0x50(sp)
80005ad2: 64a6         	ld	s1, 0x48(sp)
80005ad4: 6906         	ld	s2, 0x40(sp)
80005ad6: 79e2         	ld	s3, 0x38(sp)
80005ad8: 7a42         	ld	s4, 0x30(sp)
80005ada: 7aa2         	ld	s5, 0x28(sp)
80005adc: 7b02         	ld	s6, 0x20(sp)
80005ade: 6be2         	ld	s7, 0x18(sp)
80005ae0: 6c42         	ld	s8, 0x10(sp)
80005ae2: 6ca2         	ld	s9, 0x8(sp)
80005ae4: 6d02         	ld	s10, 0x0(sp)
80005ae6: 6125         	addi	sp, sp, 0x60
80005ae8: 8782         	jr	a5
80005aea: 8a2a         	mv	s4, a0
80005aec: 854a         	mv	a0, s2
80005aee: 85ce         	mv	a1, s3
80005af0: 00000097     	auipc	ra, 0x0
80005af4: 0b8080e7     	jalr	0xb8(ra) <core::str::count::do_count_chars::h6ce55074ab2fe9d1>
80005af8: 85aa         	mv	a1, a0
80005afa: 8552         	mv	a0, s4
80005afc: 014a5603     	lhu	a2, 0x14(s4)
80005b00: fcc5f2e3     	bgeu	a1, a2, 0x80005ac4 <core::fmt::Formatter::pad::h239e525174ab4a17+0xe2>
80005b04: b789         	j	0x80005a46 <core::fmt::Formatter::pad::h239e525174ab4a17+0x64>
80005b06: 4689         	li	a3, 0x2
80005b08: 00d61663     	bne	a2, a3, 0x80005b14 <core::fmt::Formatter::pad::h239e525174ab4a17+0x132>
80005b0c: 030b1613     	slli	a2, s6, 0x30
80005b10: 03165b93     	srli	s7, a2, 0x31
80005b14: 4481         	li	s1, 0x0
80005b16: 02b5da13     	srli	s4, a1, 0x2b
80005b1a: 00053a83     	ld	s5, 0x0(a0)
80005b1e: 00853c03     	ld	s8, 0x8(a0)
80005b22: 6cc1         	lui	s9, 0x10
80005b24: 1cfd         	addi	s9, s9, -0x1
80005b26: 019bfd33     	and	s10, s7, s9
80005b2a: 0194f533     	and	a0, s1, s9
80005b2e: 01a57a63     	bgeu	a0, s10, 0x80005b42 <core::fmt::Formatter::pad::h239e525174ab4a17+0x160>
80005b32: 020c3603     	ld	a2, 0x20(s8)
80005b36: 0485         	addi	s1, s1, 0x1
80005b38: 8556         	mv	a0, s5
80005b3a: 85d2         	mv	a1, s4
80005b3c: 9602         	jalr	a2
80005b3e: d575         	beqz	a0, 0x80005b2a <core::fmt::Formatter::pad::h239e525174ab4a17+0x148>
80005b40: a801         	j	0x80005b50 <core::fmt::Formatter::pad::h239e525174ab4a17+0x16e>
80005b42: 018c3683     	ld	a3, 0x18(s8)
80005b46: 8556         	mv	a0, s5
80005b48: 85ca         	mv	a1, s2
80005b4a: 864e         	mv	a2, s3
80005b4c: 9682         	jalr	a3
80005b4e: c905         	beqz	a0, 0x80005b7e <core::fmt::Formatter::pad::h239e525174ab4a17+0x19c>
80005b50: 4905         	li	s2, 0x1
80005b52: 854a         	mv	a0, s2
80005b54: 60e6         	ld	ra, 0x58(sp)
80005b56: 6446         	ld	s0, 0x50(sp)
80005b58: 64a6         	ld	s1, 0x48(sp)
80005b5a: 6906         	ld	s2, 0x40(sp)
80005b5c: 79e2         	ld	s3, 0x38(sp)
80005b5e: 7a42         	ld	s4, 0x30(sp)
80005b60: 7aa2         	ld	s5, 0x28(sp)
80005b62: 7b02         	ld	s6, 0x20(sp)
80005b64: 6be2         	ld	s7, 0x18(sp)
80005b66: 6c42         	ld	s8, 0x10(sp)
80005b68: 6ca2         	ld	s9, 0x8(sp)
80005b6a: 6d02         	ld	s10, 0x0(sp)
80005b6c: 6125         	addi	sp, sp, 0x60
80005b6e: 8082         	ret
80005b70: 4981         	li	s3, 0x0
80005b72: 85ae         	mv	a1, a1
80005b74: 01455603     	lhu	a2, 0x14(a0)
80005b78: ecc5e7e3     	bltu	a1, a2, 0x80005a46 <core::fmt::Formatter::pad::h239e525174ab4a17+0x64>
80005b7c: b7a1         	j	0x80005ac4 <core::fmt::Formatter::pad::h239e525174ab4a17+0xe2>
80005b7e: 4481         	li	s1, 0x0
80005b80: 417b0533     	sub	a0, s6, s7
80005b84: 69c1         	lui	s3, 0x10
80005b86: 19fd         	addi	s3, s3, -0x1
80005b88: 01357b33     	and	s6, a0, s3
80005b8c: 0134f533     	and	a0, s1, s3
80005b90: 01653933     	sltu	s2, a0, s6
80005b94: fb657fe3     	bgeu	a0, s6, 0x80005b52 <core::fmt::Formatter::pad::h239e525174ab4a17+0x170>
80005b98: 020c3603     	ld	a2, 0x20(s8)
80005b9c: 0485         	addi	s1, s1, 0x1
80005b9e: 8556         	mv	a0, s5
80005ba0: 85d2         	mv	a1, s4
80005ba2: 9602         	jalr	a2
80005ba4: d565         	beqz	a0, 0x80005b8c <core::fmt::Formatter::pad::h239e525174ab4a17+0x1aa>
80005ba6: b775         	j	0x80005b52 <core::fmt::Formatter::pad::h239e525174ab4a17+0x170>

0000000080005ba8 <core::str::count::do_count_chars::h6ce55074ab2fe9d1>:
80005ba8: 1141         	addi	sp, sp, -0x10
80005baa: e422         	sd	s0, 0x8(sp)
80005bac: 862a         	mv	a2, a0
80005bae: 00750693     	addi	a3, a0, 0x7
80005bb2: 9ae1         	andi	a3, a3, -0x8
80005bb4: 40a68333     	sub	t1, a3, a0
80005bb8: 0265f263     	bgeu	a1, t1, 0x80005bdc <core::str::count::do_count_chars::h6ce55074ab2fe9d1+0x34>
80005bbc: 4501         	li	a0, 0x0
80005bbe: cd81         	beqz	a1, 0x80005bd6 <core::str::count::do_count_chars::h6ce55074ab2fe9d1+0x2e>
80005bc0: 95b2         	add	a1, a1, a2
80005bc2: 00060683     	lb	a3, 0x0(a2)
80005bc6: 0605         	addi	a2, a2, 0x1
80005bc8: fc06a693     	slti	a3, a3, -0x40
80005bcc: 0016c693     	xori	a3, a3, 0x1
80005bd0: 9536         	add	a0, a0, a3
80005bd2: feb618e3     	bne	a2, a1, 0x80005bc2 <core::str::count::do_count_chars::h6ce55074ab2fe9d1+0x1a>
80005bd6: 6422         	ld	s0, 0x8(sp)
80005bd8: 0141         	addi	sp, sp, 0x10
80005bda: 8082         	ret
80005bdc: 40658733     	sub	a4, a1, t1
80005be0: 00375393     	srli	t2, a4, 0x3
80005be4: fc038ce3     	beqz	t2, 0x80005bbc <core::str::count::do_count_chars::h6ce55074ab2fe9d1+0x14>
80005be8: 9332         	add	t1, t1, a2
80005bea: 00777813     	andi	a6, a4, 0x7
80005bee: 4501         	li	a0, 0x0
80005bf0: 00c68c63     	beq	a3, a2, 0x80005c08 <core::str::count::do_count_chars::h6ce55074ab2fe9d1+0x60>
80005bf4: 00060583     	lb	a1, 0x0(a2)
80005bf8: 0605         	addi	a2, a2, 0x1
80005bfa: fc05a593     	slti	a1, a1, -0x40
80005bfe: 0015c593     	xori	a1, a1, 0x1
80005c02: 952e         	add	a0, a0, a1
80005c04: fe6618e3     	bne	a2, t1, 0x80005bf4 <core::str::count::do_count_chars::h6ce55074ab2fe9d1+0x4c>
80005c08: 4581         	li	a1, 0x0
80005c0a: 02080363     	beqz	a6, 0x80005c30 <core::str::count::do_count_chars::h6ce55074ab2fe9d1+0x88>
80005c0e: 96c2         	add	a3, a3, a6
80005c10: 5645         	li	a2, -0xf
80005c12: 8205         	srli	a2, a2, 0x1
80005c14: 8f71         	and	a4, a4, a2
80005c16: 00e30633     	add	a2, t1, a4
80005c1a: 96ba         	add	a3, a3, a4
80005c1c: 00060703     	lb	a4, 0x0(a2)
80005c20: 0605         	addi	a2, a2, 0x1
80005c22: fc072713     	slti	a4, a4, -0x40
80005c26: 00174713     	xori	a4, a4, 0x1
80005c2a: 95ba         	add	a1, a1, a4
80005c2c: fed618e3     	bne	a2, a3, 0x80005c1c <core::str::count::do_count_chars::h6ce55074ab2fe9d1+0x74>
80005c30: 01010637     	lui	a2, 0x1010
80005c34: 00ff06b7     	lui	a3, 0xff0
80005c38: 6741         	lui	a4, 0x10
80005c3a: 10160613     	addi	a2, a2, 0x101
80005c3e: 0ff68893     	addi	a7, a3, 0xff
80005c42: 00170813     	addi	a6, a4, 0x1
80005c46: 02061713     	slli	a4, a2, 0x20
80005c4a: 00e60f33     	add	t5, a2, a4
80005c4e: 02089613     	slli	a2, a7, 0x20
80005c52: 98b2         	add	a7, a7, a2
80005c54: 02081613     	slli	a2, a6, 0x20
80005c58: 9832         	add	a6, a6, a2
80005c5a: 952e         	add	a0, a0, a1
80005c5c: a015         	j	0x80005c80 <core::str::count::do_count_chars::h6ce55074ab2fe9d1+0xd8>
80005c5e: 9372         	add	t1, t1, t3
80005c60: 405383b3     	sub	t2, t2, t0
80005c64: 0032f793     	andi	a5, t0, 0x3
80005c68: 011ff5b3     	and	a1, t6, a7
80005c6c: 008fd613     	srli	a2, t6, 0x8
80005c70: 01167633     	and	a2, a2, a7
80005c74: 95b2         	add	a1, a1, a2
80005c76: 030585b3     	mul	a1, a1, a6
80005c7a: 91c1         	srli	a1, a1, 0x30
80005c7c: 952e         	add	a0, a0, a1
80005c7e: efad         	bnez	a5, 0x80005cf8 <core::str::count::do_count_chars::h6ce55074ab2fe9d1+0x150>
80005c80: f4038be3     	beqz	t2, 0x80005bd6 <core::str::count::do_count_chars::h6ce55074ab2fe9d1+0x2e>
80005c84: 8e1a         	mv	t3, t1
80005c86: 0c000593     	li	a1, 0xc0
80005c8a: 829e         	mv	t0, t2
80005c8c: 00b3e463     	bltu	t2, a1, 0x80005c94 <core::str::count::do_count_chars::h6ce55074ab2fe9d1+0xec>
80005c90: 0c000293     	li	t0, 0xc0
80005c94: 00329313     	slli	t1, t0, 0x3
80005c98: 4f81         	li	t6, 0x0
80005c9a: 7e037793     	andi	a5, t1, 0x7e0
80005c9e: d3e1         	beqz	a5, 0x80005c5e <core::str::count::do_count_chars::h6ce55074ab2fe9d1+0xb6>
80005ca0: 00fe0eb3     	add	t4, t3, a5
80005ca4: 85f2         	mv	a1, t3
80005ca6: 6194         	ld	a3, 0x0(a1)
80005ca8: 659c         	ld	a5, 0x8(a1)
80005caa: 6998         	ld	a4, 0x10(a1)
80005cac: 6d90         	ld	a2, 0x18(a1)
80005cae: fff6c413     	not	s0, a3
80005cb2: 8299         	srli	a3, a3, 0x6
80005cb4: 801d         	srli	s0, s0, 0x7
80005cb6: 8ec1         	or	a3, a3, s0
80005cb8: fff7c413     	not	s0, a5
80005cbc: 8399         	srli	a5, a5, 0x6
80005cbe: 801d         	srli	s0, s0, 0x7
80005cc0: 8fc1         	or	a5, a5, s0
80005cc2: fff74413     	not	s0, a4
80005cc6: 8319         	srli	a4, a4, 0x6
80005cc8: 801d         	srli	s0, s0, 0x7
80005cca: 8f41         	or	a4, a4, s0
80005ccc: fff64413     	not	s0, a2
80005cd0: 8219         	srli	a2, a2, 0x6
80005cd2: 801d         	srli	s0, s0, 0x7
80005cd4: 8e41         	or	a2, a2, s0
80005cd6: 01e6f6b3     	and	a3, a3, t5
80005cda: 96fe         	add	a3, a3, t6
80005cdc: 01e7f7b3     	and	a5, a5, t5
80005ce0: 01e77733     	and	a4, a4, t5
80005ce4: 01e67fb3     	and	t6, a2, t5
80005ce8: 973e         	add	a4, a4, a5
80005cea: 96ba         	add	a3, a3, a4
80005cec: 02058593     	addi	a1, a1, 0x20
80005cf0: 9fb6         	add	t6, t6, a3
80005cf2: fbd59ae3     	bne	a1, t4, 0x80005ca6 <core::str::count::do_count_chars::h6ce55074ab2fe9d1+0xfe>
80005cf6: b7a5         	j	0x80005c5e <core::str::count::do_count_chars::h6ce55074ab2fe9d1+0xb6>
80005cf8: 4581         	li	a1, 0x0
80005cfa: 0fc2f613     	andi	a2, t0, 0xfc
80005cfe: 060e         	slli	a2, a2, 0x3
80005d00: 00ce06b3     	add	a3, t3, a2
80005d04: 00379613     	slli	a2, a5, 0x3
80005d08: 6298         	ld	a4, 0x0(a3)
80005d0a: 06a1         	addi	a3, a3, 0x8
80005d0c: fff74793     	not	a5, a4
80005d10: 8319         	srli	a4, a4, 0x6
80005d12: 839d         	srli	a5, a5, 0x7
80005d14: 8f5d         	or	a4, a4, a5
80005d16: 01e77733     	and	a4, a4, t5
80005d1a: 1661         	addi	a2, a2, -0x8
80005d1c: 95ba         	add	a1, a1, a4
80005d1e: f66d         	bnez	a2, 0x80005d08 <core::str::count::do_count_chars::h6ce55074ab2fe9d1+0x160>
80005d20: 0115f633     	and	a2, a1, a7
80005d24: 81a1         	srli	a1, a1, 0x8
80005d26: 0115f5b3     	and	a1, a1, a7
80005d2a: 95b2         	add	a1, a1, a2
80005d2c: 030585b3     	mul	a1, a1, a6
80005d30: 91c1         	srli	a1, a1, 0x30
80005d32: 952e         	add	a0, a0, a1
80005d34: 6422         	ld	s0, 0x8(sp)
80005d36: 0141         	addi	sp, sp, 0x10
80005d38: 8082         	ret

0000000080005d3a <core::panicking::panic_const::panic_const_div_by_zero::hcfde4c26e8ecfc4b>:
80005d3a: 1141         	addi	sp, sp, -0x10
80005d3c: e406         	sd	ra, 0x8(sp)
80005d3e: e022         	sd	s0, 0x0(sp)
80005d40: 0800         	addi	s0, sp, 0x10
80005d42: 862a         	mv	a2, a0

0000000080005d44 <.Lpcrel_hi967>:
80005d44: 00002517     	auipc	a0, 0x2
80005d48: 49450513     	addi	a0, a0, 0x494
80005d4c: 03300593     	li	a1, 0x33
80005d50: 00000097     	auipc	ra, 0x0
80005d54: 14c080e7     	jalr	0x14c(ra) <core::panicking::panic_fmt::h767dc8ac4dd44648>

0000000080005d58 <core::panicking::panic_const::panic_const_add_overflow::h67cba067093910f8>:
80005d58: 1141         	addi	sp, sp, -0x10
80005d5a: e406         	sd	ra, 0x8(sp)
80005d5c: e022         	sd	s0, 0x0(sp)
80005d5e: 0800         	addi	s0, sp, 0x10
80005d60: 862a         	mv	a2, a0

0000000080005d62 <.Lpcrel_hi970>:
80005d62: 00002517     	auipc	a0, 0x2
80005d66: 41850513     	addi	a0, a0, 0x418
80005d6a: 03900593     	li	a1, 0x39
80005d6e: 00000097     	auipc	ra, 0x0
80005d72: 12e080e7     	jalr	0x12e(ra) <core::panicking::panic_fmt::h767dc8ac4dd44648>

0000000080005d76 <core::panicking::panic_const::panic_const_mul_overflow::h67897feae7531d51>:
80005d76: 1141         	addi	sp, sp, -0x10
80005d78: e406         	sd	ra, 0x8(sp)
80005d7a: e022         	sd	s0, 0x0(sp)
80005d7c: 0800         	addi	s0, sp, 0x10
80005d7e: 862a         	mv	a2, a0

0000000080005d80 <.Lpcrel_hi972>:
80005d80: 00002517     	auipc	a0, 0x2
80005d84: 41650513     	addi	a0, a0, 0x416
80005d88: 04300593     	li	a1, 0x43
80005d8c: 00000097     	auipc	ra, 0x0
80005d90: 110080e7     	jalr	0x110(ra) <core::panicking::panic_fmt::h767dc8ac4dd44648>

0000000080005d94 <core::panicking::panic_const::panic_const_sub_overflow::hccc965ba9198de7c>:
80005d94: 1141         	addi	sp, sp, -0x10
80005d96: e406         	sd	ra, 0x8(sp)
80005d98: e022         	sd	s0, 0x0(sp)
80005d9a: 0800         	addi	s0, sp, 0x10
80005d9c: 862a         	mv	a2, a0

0000000080005d9e <.Lpcrel_hi977>:
80005d9e: 00002517     	auipc	a0, 0x2
80005da2: 41950513     	addi	a0, a0, 0x419
80005da6: 04300593     	li	a1, 0x43
80005daa: 00000097     	auipc	ra, 0x0
80005dae: 0f2080e7     	jalr	0xf2(ra) <core::panicking::panic_fmt::h767dc8ac4dd44648>

0000000080005db2 <core::panicking::panic_nounwind::hf19a354d0b2d9097>:
80005db2: 1141         	addi	sp, sp, -0x10
80005db4: e406         	sd	ra, 0x8(sp)
80005db6: e022         	sd	s0, 0x0(sp)
80005db8: 0800         	addi	s0, sp, 0x10
80005dba: 0586         	slli	a1, a1, 0x1
80005dbc: 0585         	addi	a1, a1, 0x1

0000000080005dbe <.Lpcrel_hi992>:
80005dbe: 00002617     	auipc	a2, 0x2
80005dc2: 43a60693     	addi	a3, a2, 0x43a
80005dc6: 4601         	li	a2, 0x0
80005dc8: 00000097     	auipc	ra, 0x0
80005dcc: 044080e7     	jalr	0x44(ra) <core::panicking::panic_nounwind_fmt::h2e018e50a8d3bc73>

0000000080005dd0 <core::panicking::panic_bounds_check::h6aaee0d15e0261eb>:
80005dd0: 7139         	addi	sp, sp, -0x40
80005dd2: fc06         	sd	ra, 0x38(sp)
80005dd4: f822         	sd	s0, 0x30(sp)
80005dd6: 0080         	addi	s0, sp, 0x40
80005dd8: f0040713     	addi	a4, s0, -0x100
80005ddc: e368         	sd	a0, 0xc0(a4)
80005dde: e76c         	sd	a1, 0xc8(a4)
80005de0: fc840513     	addi	a0, s0, -0x38

0000000080005de4 <.Lpcrel_hi997>:
80005de4: fffff597     	auipc	a1, 0xfffff
80005de8: fc040693     	addi	a3, s0, -0x40
80005dec: 67c58593     	addi	a1, a1, 0x67c
80005df0: eb68         	sd	a0, 0xd0(a4)
80005df2: ef6c         	sd	a1, 0xd8(a4)
80005df4: f374         	sd	a3, 0xe0(a4)
80005df6: f76c         	sd	a1, 0xe8(a4)

0000000080005df8 <.Lpcrel_hi998>:
80005df8: 00000517     	auipc	a0, 0x0
80005dfc: 7a550513     	addi	a0, a0, 0x7a5
80005e00: fd040593     	addi	a1, s0, -0x30
80005e04: 00000097     	auipc	ra, 0x0
80005e08: 098080e7     	jalr	0x98(ra) <core::panicking::panic_fmt::h767dc8ac4dd44648>

0000000080005e0c <core::panicking::panic_nounwind_fmt::h2e018e50a8d3bc73>:
80005e0c: 7139         	addi	sp, sp, -0x40
80005e0e: fc06         	sd	ra, 0x38(sp)
80005e10: f822         	sd	s0, 0x30(sp)
80005e12: 0080         	addi	s0, sp, 0x40
80005e14: fca43423     	sd	a0, -0x38(s0)
80005e18: fcb43823     	sd	a1, -0x30(s0)
80005e1c: fc840513     	addi	a0, s0, -0x38
80005e20: fca43c23     	sd	a0, -0x28(s0)
80005e24: fed43023     	sd	a3, -0x20(s0)
80005e28: fe040423     	sb	zero, -0x18(s0)
80005e2c: fec404a3     	sb	a2, -0x17(s0)
80005e30: fd840513     	addi	a0, s0, -0x28
80005e34: ffffb097     	auipc	ra, 0xffffb
80005e38: cf8080e7     	jalr	-0x308(ra) <__user_program_end>

0000000080005e3c <core::panicking::panic_null_pointer_dereference::hbac6411af4f2e916>:
80005e3c: 1141         	addi	sp, sp, -0x10
80005e3e: e406         	sd	ra, 0x8(sp)
80005e40: e022         	sd	s0, 0x0(sp)
80005e42: 0800         	addi	s0, sp, 0x10
80005e44: 86aa         	mv	a3, a0

0000000080005e46 <.Lpcrel_hi1010>:
80005e46: 00002517     	auipc	a0, 0x2
80005e4a: 3ca50513     	addi	a0, a0, 0x3ca
80005e4e: 04300593     	li	a1, 0x43
80005e52: 4601         	li	a2, 0x0
80005e54: 00000097     	auipc	ra, 0x0
80005e58: fb8080e7     	jalr	-0x48(ra) <core::panicking::panic_nounwind_fmt::h2e018e50a8d3bc73>

0000000080005e5c <core::panicking::panic_misaligned_pointer_dereference::hda85f7fb51d959f0>:
80005e5c: 7139         	addi	sp, sp, -0x40
80005e5e: fc06         	sd	ra, 0x38(sp)
80005e60: f822         	sd	s0, 0x30(sp)
80005e62: 0080         	addi	s0, sp, 0x40
80005e64: 86b2         	mv	a3, a2
80005e66: f0040713     	addi	a4, s0, -0x100
80005e6a: e368         	sd	a0, 0xc0(a4)
80005e6c: e76c         	sd	a1, 0xc8(a4)
80005e6e: fc040513     	addi	a0, s0, -0x40

0000000080005e72 <.Lpcrel_hi1013>:
80005e72: fffff597     	auipc	a1, 0xfffff
80005e76: fc840613     	addi	a2, s0, -0x38
80005e7a: 63a58593     	addi	a1, a1, 0x63a
80005e7e: eb68         	sd	a0, 0xd0(a4)
80005e80: ef6c         	sd	a1, 0xd8(a4)
80005e82: f370         	sd	a2, 0xe0(a4)
80005e84: f76c         	sd	a1, 0xe8(a4)

0000000080005e86 <.Lpcrel_hi1014>:
80005e86: 00002517     	auipc	a0, 0x2
80005e8a: 3ab50513     	addi	a0, a0, 0x3ab
80005e8e: fd040593     	addi	a1, s0, -0x30
80005e92: 4601         	li	a2, 0x0
80005e94: 00000097     	auipc	ra, 0x0
80005e98: f78080e7     	jalr	-0x88(ra) <core::panicking::panic_nounwind_fmt::h2e018e50a8d3bc73>

0000000080005e9c <core::panicking::panic_fmt::h767dc8ac4dd44648>:
80005e9c: 7139         	addi	sp, sp, -0x40
80005e9e: fc06         	sd	ra, 0x38(sp)
80005ea0: f822         	sd	s0, 0x30(sp)
80005ea2: 0080         	addi	s0, sp, 0x40
80005ea4: fca43423     	sd	a0, -0x38(s0)
80005ea8: fcb43823     	sd	a1, -0x30(s0)
80005eac: fc840513     	addi	a0, s0, -0x38
80005eb0: 4585         	li	a1, 0x1
80005eb2: fca43c23     	sd	a0, -0x28(s0)
80005eb6: fec43023     	sd	a2, -0x20(s0)
80005eba: feb41423     	sh	a1, -0x18(s0)
80005ebe: fd840513     	addi	a0, s0, -0x28
80005ec2: ffffb097     	auipc	ra, 0xffffb
80005ec6: c6a080e7     	jalr	-0x396(ra) <__user_program_end>

0000000080005eca <_$LT$core..panic..panic_info..PanicInfo$u20$as$u20$core..fmt..Display$GT$::fmt::hcccb3fed5b673506>:
80005eca: 7119         	addi	sp, sp, -0x80
80005ecc: fc86         	sd	ra, 0x78(sp)
80005ece: f8a2         	sd	s0, 0x70(sp)
80005ed0: f4a6         	sd	s1, 0x68(sp)
80005ed2: f0ca         	sd	s2, 0x60(sp)
80005ed4: ecce         	sd	s3, 0x58(sp)
80005ed6: e8d2         	sd	s4, 0x50(sp)
80005ed8: e4d6         	sd	s5, 0x48(sp)
80005eda: 0100         	addi	s0, sp, 0x80
80005edc: 0085b903     	ld	s2, 0x8(a1)
80005ee0: 6184         	ld	s1, 0x0(a1)
80005ee2: 01893a83     	ld	s5, 0x18(s2)
80005ee6: 89aa         	mv	s3, a0

0000000080005ee8 <.Lpcrel_hi1258>:
80005ee8: 00002517     	auipc	a0, 0x2
80005eec: 39c50593     	addi	a1, a0, 0x39c
80005ef0: 4631         	li	a2, 0xc
80005ef2: 8526         	mv	a0, s1
80005ef4: 9a82         	jalr	s5
80005ef6: 4a05         	li	s4, 0x1
80005ef8: e151         	bnez	a0, 0x80005f7c <.Lpcrel_hi1262+0x26>
80005efa: 0089b503     	ld	a0, 0x8(s3)
80005efe: f8840813     	addi	a6, s0, -0x78

0000000080005f02 <.Lpcrel_hi1259>:
80005f02: fffff617     	auipc	a2, 0xfffff

0000000080005f06 <.Lpcrel_hi1260>:
80005f06: fffff697     	auipc	a3, 0xfffff
80005f0a: 0f260613     	addi	a2, a2, 0xf2
80005f0e: 50e68693     	addi	a3, a3, 0x50e
80005f12: 6118         	ld	a4, 0x0(a0)
80005f14: 651c         	ld	a5, 0x8(a0)
80005f16: 01050593     	addi	a1, a0, 0x10
80005f1a: 0551         	addi	a0, a0, 0x14
80005f1c: f9043c23     	sd	a6, -0x68(s0)
80005f20: fac43023     	sd	a2, -0x60(s0)
80005f24: fab43423     	sd	a1, -0x58(s0)
80005f28: fad43823     	sd	a3, -0x50(s0)
80005f2c: f8e43423     	sd	a4, -0x78(s0)
80005f30: f8f43823     	sd	a5, -0x70(s0)
80005f34: faa43c23     	sd	a0, -0x48(s0)
80005f38: fcd43023     	sd	a3, -0x40(s0)

0000000080005f3c <.Lpcrel_hi1261>:
80005f3c: 00001517     	auipc	a0, 0x1
80005f40: 81050613     	addi	a2, a0, -0x7f0
80005f44: f9840693     	addi	a3, s0, -0x68
80005f48: 8526         	mv	a0, s1
80005f4a: 85ca         	mv	a1, s2
80005f4c: fffff097     	auipc	ra, 0xfffff
80005f50: 614080e7     	jalr	0x614(ra) <core::fmt::write::hfd17e9e8e823b619>
80005f54: e505         	bnez	a0, 0x80005f7c <.Lpcrel_hi1262+0x26>

0000000080005f56 <.Lpcrel_hi1262>:
80005f56: 00002517     	auipc	a0, 0x2
80005f5a: 33a50593     	addi	a1, a0, 0x33a
80005f5e: 4609         	li	a2, 0x2
80005f60: 8526         	mv	a0, s1
80005f62: 9a82         	jalr	s5
80005f64: ed01         	bnez	a0, 0x80005f7c <.Lpcrel_hi1262+0x26>
80005f66: 0009b503     	ld	a0, 0x0(s3)
80005f6a: 6110         	ld	a2, 0x0(a0)
80005f6c: 6514         	ld	a3, 0x8(a0)
80005f6e: 8526         	mv	a0, s1
80005f70: 85ca         	mv	a1, s2
80005f72: fffff097     	auipc	ra, 0xfffff
80005f76: 5ee080e7     	jalr	0x5ee(ra) <core::fmt::write::hfd17e9e8e823b619>
80005f7a: 8a2a         	mv	s4, a0
80005f7c: 8552         	mv	a0, s4
80005f7e: 70e6         	ld	ra, 0x78(sp)
80005f80: 7446         	ld	s0, 0x70(sp)
80005f82: 74a6         	ld	s1, 0x68(sp)
80005f84: 7906         	ld	s2, 0x60(sp)
80005f86: 69e6         	ld	s3, 0x58(sp)
80005f88: 6a46         	ld	s4, 0x50(sp)
80005f8a: 6aa6         	ld	s5, 0x48(sp)
80005f8c: 6109         	addi	sp, sp, 0x80
80005f8e: 8082         	ret

0000000080005f90 <memset>:
80005f90: 46c1         	li	a3, 0x10
80005f92: 06d66463     	bltu	a2, a3, 0x80005ffa <memset+0x6a>
80005f96: 40a006bb     	negw	a3, a0
80005f9a: 0076f813     	andi	a6, a3, 0x7
80005f9e: 01050733     	add	a4, a0, a6
80005fa2: 00e57963     	bgeu	a0, a4, 0x80005fb4 <memset+0x24>
80005fa6: 87c2         	mv	a5, a6
80005fa8: 86aa         	mv	a3, a0
80005faa: 00b68023     	sb	a1, 0x0(a3)
80005fae: 17fd         	addi	a5, a5, -0x1
80005fb0: 0685         	addi	a3, a3, 0x1
80005fb2: ffe5         	bnez	a5, 0x80005faa <memset+0x1a>
80005fb4: 41060633     	sub	a2, a2, a6
80005fb8: ff867693     	andi	a3, a2, -0x8
80005fbc: 96ba         	add	a3, a3, a4
80005fbe: 02d77363     	bgeu	a4, a3, 0x80005fe4 <memset+0x54>
80005fc2: 03859813     	slli	a6, a1, 0x38
80005fc6: 101017b7     	lui	a5, 0x10101
80005fca: 0792         	slli	a5, a5, 0x4
80005fcc: 10078793     	addi	a5, a5, 0x100
80005fd0: 02f83833     	mulhu	a6, a6, a5
80005fd4: 02081793     	slli	a5, a6, 0x20
80005fd8: 0107e7b3     	or	a5, a5, a6
80005fdc: e31c         	sd	a5, 0x0(a4)
80005fde: 0721         	addi	a4, a4, 0x8
80005fe0: fed76ee3     	bltu	a4, a3, 0x80005fdc <memset+0x4c>
80005fe4: 8a1d         	andi	a2, a2, 0x7
80005fe6: 00c68733     	add	a4, a3, a2
80005fea: 00e6f763     	bgeu	a3, a4, 0x80005ff8 <memset+0x68>
80005fee: 00b68023     	sb	a1, 0x0(a3)
80005ff2: 167d         	addi	a2, a2, -0x1
80005ff4: 0685         	addi	a3, a3, 0x1
80005ff6: fe65         	bnez	a2, 0x80005fee <memset+0x5e>
80005ff8: 8082         	ret
80005ffa: 86aa         	mv	a3, a0
80005ffc: 00c50733     	add	a4, a0, a2
80006000: fee567e3     	bltu	a0, a4, 0x80005fee <memset+0x5e>
80006004: bfd5         	j	0x80005ff8 <memset+0x68>

0000000080006006 <memcpy>:
80006006: 00000317     	auipc	t1, 0x0
8000600a: 00830067     	jr	0x8(t1) <compiler_builtins::mem::memcpy::hee8635bcefabc13a>

000000008000600e <compiler_builtins::mem::memcpy::hee8635bcefabc13a>:
8000600e: 1101         	addi	sp, sp, -0x20
80006010: ec22         	sd	s0, 0x18(sp)
80006012: e826         	sd	s1, 0x10(sp)
80006014: 46c1         	li	a3, 0x10
80006016: 06d66363     	bltu	a2, a3, 0x8000607c <compiler_builtins::mem::memcpy::hee8635bcefabc13a+0x6e>
8000601a: 40a006bb     	negw	a3, a0
8000601e: 0076f813     	andi	a6, a3, 0x7
80006022: 01050fb3     	add	t6, a0, a6
80006026: 01f57d63     	bgeu	a0, t6, 0x80006040 <compiler_builtins::mem::memcpy::hee8635bcefabc13a+0x32>
8000602a: 8742         	mv	a4, a6
8000602c: 86aa         	mv	a3, a0
8000602e: 87ae         	mv	a5, a1
80006030: 0007c883     	lbu	a7, 0x0(a5)
80006034: 177d         	addi	a4, a4, -0x1
80006036: 01168023     	sb	a7, 0x0(a3)
8000603a: 0685         	addi	a3, a3, 0x1
8000603c: 0785         	addi	a5, a5, 0x1
8000603e: fb6d         	bnez	a4, 0x80006030 <compiler_builtins::mem::memcpy::hee8635bcefabc13a+0x22>
80006040: 010584b3     	add	s1, a1, a6
80006044: 41060633     	sub	a2, a2, a6
80006048: ff867713     	andi	a4, a2, -0x8
8000604c: 0074f813     	andi	a6, s1, 0x7
80006050: 00ef86b3     	add	a3, t6, a4
80006054: 04081563     	bnez	a6, 0x8000609e <compiler_builtins::mem::memcpy::hee8635bcefabc13a+0x90>
80006058: 00dffa63     	bgeu	t6, a3, 0x8000606c <compiler_builtins::mem::memcpy::hee8635bcefabc13a+0x5e>
8000605c: 87a6         	mv	a5, s1
8000605e: 638c         	ld	a1, 0x0(a5)
80006060: 00bfb023     	sd	a1, 0x0(t6)
80006064: 0fa1         	addi	t6, t6, 0x8
80006066: 07a1         	addi	a5, a5, 0x8
80006068: fedfebe3     	bltu	t6, a3, 0x8000605e <compiler_builtins::mem::memcpy::hee8635bcefabc13a+0x50>
8000606c: 00e485b3     	add	a1, s1, a4
80006070: 8a1d         	andi	a2, a2, 0x7
80006072: 00c68733     	add	a4, a3, a2
80006076: 00e6e863     	bltu	a3, a4, 0x80006086 <compiler_builtins::mem::memcpy::hee8635bcefabc13a+0x78>
8000607a: a831         	j	0x80006096 <compiler_builtins::mem::memcpy::hee8635bcefabc13a+0x88>
8000607c: 86aa         	mv	a3, a0
8000607e: 00c50733     	add	a4, a0, a2
80006082: 00e57a63     	bgeu	a0, a4, 0x80006096 <compiler_builtins::mem::memcpy::hee8635bcefabc13a+0x88>
80006086: 0005c703     	lbu	a4, 0x0(a1)
8000608a: 167d         	addi	a2, a2, -0x1
8000608c: 00e68023     	sb	a4, 0x0(a3)
80006090: 0685         	addi	a3, a3, 0x1
80006092: 0585         	addi	a1, a1, 0x1
80006094: fa6d         	bnez	a2, 0x80006086 <compiler_builtins::mem::memcpy::hee8635bcefabc13a+0x78>
80006096: 6462         	ld	s0, 0x18(sp)
80006098: 64c2         	ld	s1, 0x10(sp)
8000609a: 6105         	addi	sp, sp, 0x20
8000609c: 8082         	ret
8000609e: 4881         	li	a7, 0x0
800060a0: 47a1         	li	a5, 0x8
800060a2: e402         	sd	zero, 0x8(sp)
800060a4: 41078333     	sub	t1, a5, a6
800060a8: 00810293     	addi	t0, sp, 0x8
800060ac: 00137793     	andi	a5, t1, 0x1
800060b0: 0102e2b3     	or	t0, t0, a6
800060b4: ebb1         	bnez	a5, 0x80006108 <compiler_builtins::mem::memcpy::hee8635bcefabc13a+0xfa>
800060b6: 00237793     	andi	a5, t1, 0x2
800060ba: efb9         	bnez	a5, 0x80006118 <compiler_builtins::mem::memcpy::hee8635bcefabc13a+0x10a>
800060bc: 00437793     	andi	a5, t1, 0x4
800060c0: eba5         	bnez	a5, 0x80006130 <compiler_builtins::mem::memcpy::hee8635bcefabc13a+0x122>
800060c2: 63a2         	ld	t2, 0x8(sp)
800060c4: 00381893     	slli	a7, a6, 0x3
800060c8: 008f8793     	addi	a5, t6, 0x8
800060cc: 41048f33     	sub	t5, s1, a6
800060d0: 06d7ff63     	bgeu	a5, a3, 0x8000614e <compiler_builtins::mem::memcpy::hee8635bcefabc13a+0x140>
800060d4: 411007bb     	negw	a5, a7
800060d8: 0387fe13     	andi	t3, a5, 0x38
800060dc: 008f3303     	ld	t1, 0x8(t5)
800060e0: 008f0e93     	addi	t4, t5, 0x8
800060e4: 0113d3b3     	srl	t2, t2, a7
800060e8: 008f8293     	addi	t0, t6, 0x8
800060ec: 01c317b3     	sll	a5, t1, t3
800060f0: 0077e7b3     	or	a5, a5, t2
800060f4: 010f8413     	addi	s0, t6, 0x10
800060f8: 00ffb023     	sd	a5, 0x0(t6)
800060fc: 8f96         	mv	t6, t0
800060fe: 839a         	mv	t2, t1
80006100: 8f76         	mv	t5, t4
80006102: fcd46de3     	bltu	s0, a3, 0x800060dc <compiler_builtins::mem::memcpy::hee8635bcefabc13a+0xce>
80006106: a0b9         	j	0x80006154 <compiler_builtins::mem::memcpy::hee8635bcefabc13a+0x146>
80006108: 0004c783     	lbu	a5, 0x0(s1)
8000610c: 00f28023     	sb	a5, 0x0(t0)
80006110: 4885         	li	a7, 0x1
80006112: 00237793     	andi	a5, t1, 0x2
80006116: d3dd         	beqz	a5, 0x800060bc <compiler_builtins::mem::memcpy::hee8635bcefabc13a+0xae>
80006118: 011487b3     	add	a5, s1, a7
8000611c: 00079383     	lh	t2, 0x0(a5)
80006120: 011287b3     	add	a5, t0, a7
80006124: 00779023     	sh	t2, 0x0(a5)
80006128: 2889         	addiw	a7, a7, 0x2
8000612a: 00437793     	andi	a5, t1, 0x4
8000612e: dbd1         	beqz	a5, 0x800060c2 <compiler_builtins::mem::memcpy::hee8635bcefabc13a+0xb4>
80006130: 011487b3     	add	a5, s1, a7
80006134: 439c         	lw	a5, 0x0(a5)
80006136: 9896         	add	a7, a7, t0
80006138: 00f8a023     	sw	a5, 0x0(a7)
8000613c: 63a2         	ld	t2, 0x8(sp)
8000613e: 00381893     	slli	a7, a6, 0x3
80006142: 008f8793     	addi	a5, t6, 0x8
80006146: 41048f33     	sub	t5, s1, a6
8000614a: f8d7e5e3     	bltu	a5, a3, 0x800060d4 <compiler_builtins::mem::memcpy::hee8635bcefabc13a+0xc6>
8000614e: 8efa         	mv	t4, t5
80006150: 82fe         	mv	t0, t6
80006152: 831e         	mv	t1, t2
80006154: 4781         	li	a5, 0x0
80006156: 008e8393     	addi	t2, t4, 0x8
8000615a: 4411         	li	s0, 0x4
8000615c: e402         	sd	zero, 0x8(sp)
8000615e: 04887363     	bgeu	a6, s0, 0x800061a4 <compiler_builtins::mem::memcpy::hee8635bcefabc13a+0x196>
80006162: 0024f593     	andi	a1, s1, 0x2
80006166: e5b1         	bnez	a1, 0x800061b2 <compiler_builtins::mem::memcpy::hee8635bcefabc13a+0x1a4>
80006168: 0014f593     	andi	a1, s1, 0x1
8000616c: c981         	beqz	a1, 0x8000617c <compiler_builtins::mem::memcpy::hee8635bcefabc13a+0x16e>
8000616e: 93be         	add	t2, t2, a5
80006170: 0003c583     	lbu	a1, 0x0(t2)
80006174: 0020         	addi	s0, sp, 0x8
80006176: 8fc1         	or	a5, a5, s0
80006178: 00b78023     	sb	a1, 0x0(a5)
8000617c: 65a2         	ld	a1, 0x8(sp)
8000617e: 011357b3     	srl	a5, t1, a7
80006182: 4110043b     	negw	s0, a7
80006186: 03847413     	andi	s0, s0, 0x38
8000618a: 008595b3     	sll	a1, a1, s0
8000618e: 8ddd         	or	a1, a1, a5
80006190: 00b2b023     	sd	a1, 0x0(t0)
80006194: 00e485b3     	add	a1, s1, a4
80006198: 8a1d         	andi	a2, a2, 0x7
8000619a: 00c68733     	add	a4, a3, a2
8000619e: eee6e4e3     	bltu	a3, a4, 0x80006086 <compiler_builtins::mem::memcpy::hee8635bcefabc13a+0x78>
800061a2: bdd5         	j	0x80006096 <compiler_builtins::mem::memcpy::hee8635bcefabc13a+0x88>
800061a4: 0003a783     	lw	a5, 0x0(t2)
800061a8: c43e         	sw	a5, 0x8(sp)
800061aa: 4791         	li	a5, 0x4
800061ac: 0024f593     	andi	a1, s1, 0x2
800061b0: ddc5         	beqz	a1, 0x80006168 <compiler_builtins::mem::memcpy::hee8635bcefabc13a+0x15a>
800061b2: 00f385b3     	add	a1, t2, a5
800061b6: 00059583     	lh	a1, 0x0(a1)
800061ba: 0020         	addi	s0, sp, 0x8
800061bc: 8c5d         	or	s0, s0, a5
800061be: 00b41023     	sh	a1, 0x0(s0)
800061c2: 2789         	addiw	a5, a5, 0x2
800061c4: 0014f593     	andi	a1, s1, 0x1
800061c8: f1dd         	bnez	a1, 0x8000616e <compiler_builtins::mem::memcpy::hee8635bcefabc13a+0x160>
800061ca: bf4d         	j	0x8000617c <compiler_builtins::mem::memcpy::hee8635bcefabc13a+0x16e>
800061cc: 0000         	unimp
800061ce: 0000         	unimp
800061d0: 3130         	fld	fa2, 0x60(a0)
800061d2: 3332         	fld	ft6, 0x128(sp)
800061d4: 3534         	fld	fa3, 0x68(a0)
800061d6: 3736         	fld	fa4, 0x168(sp)
800061d8: 3938         	fld	fa4, 0x70(a0)
800061da: 4241         	li	tp, 0x10
800061dc: 46454443     	<unknown>
800061e0: 2074756f     	jal	a0, 0x8004dbe6 <__machine_trap_stack_top+0x22af6>
800061e4: 5620666f     	jal	a2, 0x8000c746 <lab4_kernel_task2::LAZY_PAGE_POOL::h56635cd15111303d+0x2746>
800061e8: 414d         	li	sp, 0x13
800061ea: 7320         	ld	s0, 0x60(a4)
800061ec: 6f6c         	ld	a1, 0xd8(a4)
800061ee: 7374         	ld	a3, 0xe0(a4)
		...
80006200: 3130         	fld	fa2, 0x60(a0)
80006202: 3332         	fld	ft6, 0x128(sp)
80006204: 3534         	fld	fa3, 0x68(a0)
80006206: 3736         	fld	fa4, 0x168(sp)
80006208: 3938         	fld	fa4, 0x70(a0)
8000620a: 6261         	lui	tp, 0x18
8000620c: 66656463     	bltu	a0, t1, 0x80006874 <.Lanon.e85f2032c8db99908e86d3b357040114.2+0xc>

0000000080006210 <.Lanon.2adae5f4e4fedcf195863aa497197716.1>:
80006210: 75 6e 73 61 66 65 20 70         unsafe p
80006218: 72 65 63 6f 6e 64 69 74         recondit
80006220: 69 6f 6e 28 73 29 20 76         ion(s) v
80006228: 69 6f 6c 61 74 65 64 3a         iolated:
80006230: 20 75 73 69 7a 65 3a 3a          usize::
80006238: 75 6e 63 68 65 63 6b 65         unchecke
80006240: 64 5f 61 64 64 20 63 61         d_add ca
80006248: 6e 6e 6f 74 20 6f 76 65         nnot ove
80006250: 72 66 6c 6f 77 0a 0a 54         rflow..T
80006258: 68 69 73 20 69 6e 64 69         his indi
80006260: 63 61 74 65 73 20 61 20         cates a 
80006268: 62 75 67 20 69 6e 20 74         bug in t
80006270: 68 65 20 70 72 6f 67 72         he progr
80006278: 61 6d 2e 20 54 68 69 73         am. This
80006280: 20 55 6e 64 65 66 69 6e          Undefin
80006288: 65 64 20 42 65 68 61 76         ed Behav
80006290: 69 6f 72 20 63 68 65 63         ior chec
80006298: 6b 20 69 73 20 6f 70 74         k is opt
800062a0: 69 6f 6e 61 6c 2c 20 61         ional, a
800062a8: 6e 64 20 63 61 6e 6e 6f         nd canno
800062b0: 74 20 62 65 20 72 65 6c         t be rel
800062b8: 69 65 64 20 6f 6e 20 66         ied on f
800062c0: 6f 72 20 73 61 66 65 74         or safet
800062c8: 79 2e 12 5b 6b 65 72 6e         y..[kern
800062d0: 65 6c 5d 20 66 61 69 6c         el] fail
800062d8: 75 72 65 3a 20 c0 01 0a         ure: ...
800062e0: 00 73 72 63 2f 6d 61 69         .src/mai
800062e8: 6e 2e 72 73 00 2f 72 75         n.rs./ru
800062f0: 73 74 63 2f 65 34 30 38         stc/e408
800062f8: 39 34 37 62 66 64 32 30         947bfd20
80006300: 30 61 66 34 32 64 62 33         0af42db3
80006308: 32 32 64 61 66 30 66 61         22daf0fa
80006310: 64 66 65 37 65 32 36 64         dfe7e26d
80006318: 33 62 64 31 2f 6c 69 62         3bd1/lib
80006320: 72 61 72 79 2f 63 6f 72         rary/cor
80006328: 65 2f 73 72 63 2f 70 74         e/src/pt
80006330: 72 2f 6d 6f 64 2e 72 73         r/mod.rs
80006338: 00 10 5b 6b 65 72 6e 65         ..[kerne
80006340: 6c 5d 20 70 61 6e 69 63         l] panic
80006348: 3a 20 c0 01 0a 00 2f 72         : ..../r
80006350: 75 73 74 63 2f 65 34 30         ustc/e40
80006358: 38 39 34 37 62 66 64 32         8947bfd2
80006360: 30 30 61 66 34 32 64 62         00af42db
80006368: 33 32 32 64 61 66 30 66         322daf0f
80006370: 61 64 66 65 37 65 32 36         adfe7e26
80006378: 64 33 62 64 31 2f 6c 69         d3bd1/li
80006380: 62 72 61 72 79 2f 63 6f         brary/co
80006388: 72 65 2f 73 72 63 2f 6f         re/src/o
80006390: 70 73 2f 69 6e 64 65 78         ps/index
80006398: 5f 72 61 6e 67 65 2e 72         _range.r
800063a0: 73 00 5a 5b 6b 65 72 6e         s.Z[kern
800063a8: 65 6c 5d 20 61 63 63 65         el] acce
800063b0: 70 74 61 6e 63 65 20 6c         ptance l
800063b8: 6f 61 64 2f 73 74 6f 72         oad/stor
800063c0: 65 20 70 61 67 65 20 66         e page f
800063c8: 61 75 6c 74 20 61 6c 6c         ault all
800063d0: 6f 63 61 74 65 73 20 70         ocates p
800063d8: 61 67 65 20 61 6e 64 20         age and 
800063e0: 69 6e 73 74 61 6c 6c 73         installs
800063e8: 20 75 73 65 72 20 50 54          user PT
800063f0: 45 20 6f 6e 20 64 65 6d         E on dem
800063f8: 61 6e 64 3a 20 c0 01 0a         and: ...
80006400: 00 61 5b 6b 65 72 6e 65         .a[kerne
80006408: 6c 5d 20 61 63 63 65 70         l] accep
80006410: 74 61 6e 63 65 20 75 73         tance us
80006418: 65 72 2d 73 69 64 65 20         er-side 
80006420: 68 65 61 70 2f 6d 6d 61         heap/mma
80006428: 70 20 61 63 63 65 73 73         p access
80006430: 65 73 20 6f 62 73 65 72         es obser
80006438: 76 65 20 65 78 70 65 63         ve expec
80006440: 74 65 64 20 7a 65 72 6f         ted zero
80006448: 2d 66 69 6c 6c 20 61 6e         -fill an
80006450: 64 20 72 65 61 64 62 61         d readba
80006458: 63 6b 20 76 61 6c 75 65         ck value
80006460: 73 3a 20 c0 01 0a 00 1c         s: .....
80006468: 5b 6b 65 72 6e 65 6c 5d         [kernel]
80006470: 20 63 6f 75 6e 74 65 72          counter
80006478: 73 3a 20 72 65 73 65 72         s: reser
80006480: 76 65 73 3d c0 0c 20 73         ves=.. s
80006488: 62 72 6b 5f 63 61 6c 6c         brk_call
80006490: 73 3d c0 0c 20 6d 6d 61         s=.. mma
80006498: 70 5f 63 61 6c 6c 73 3d         p_calls=
800064a0: c0 0d 20 70 61 67 65 5f         .. page_
800064a8: 66 61 75 6c 74 73 3d c0         faults=.
800064b0: 0d 20 6c 6f 61 64 5f 66         . load_f
800064b8: 61 75 6c 74 73 3d c0 0e         aults=..
800064c0: 20 73 74 6f 72 65 5f 66          store_f
800064c8: 61 75 6c 74 73 3d c0 08         aults=..
800064d0: 20 61 6c 6c 6f 63 73 3d          allocs=
800064d8: c0 0e 20 6d 61 70 5f 69         .. map_i
800064e0: 6e 73 74 61 6c 6c 73 3d         nstalls=
800064e8: c0 01 0a 00 c0 00 2f 72         ....../r
800064f0: 75 73 74 63 2f 65 34 30         ustc/e40
800064f8: 38 39 34 37 62 66 64 32         8947bfd2
80006500: 30 30 61 66 34 32 64 62         00af42db
80006508: 33 32 32 64 61 66 30 66         322daf0f
80006510: 61 64 66 65 37 65 32 36         adfe7e26
80006518: 64 33 62 64 31 2f 6c 69         d3bd1/li
80006520: 62 72 61 72 79 2f 63 6f         brary/co
80006528: 72 65 2f 73 72 63 2f 63         re/src/c
80006530: 68 61 72 2f 6d 65 74 68         har/meth
80006538: 6f 64 73 2e 72 73 00 59         ods.rs.Y
80006540: 5b 6b 65 72 6e 65 6c 5d         [kernel]
80006548: 20 61 63 63 65 70 74 61          accepta
80006550: 6e 63 65 20 73 79 73 5f         nce sys_
80006558: 73 62 72 6b 2f 73 79 73         sbrk/sys
80006560: 5f 6d 6d 61 70 20 72 65         _mmap re
80006568: 73 65 72 76 65 20 56 4d         serve VM
80006570: 41 20 77 69 74 68 6f 75         A withou
80006578: 74 20 69 6d 6d 65 64 69         t immedi
80006580: 61 74 65 20 70 68 79 73         ate phys
80006588: 69 63 61 6c 20 61 6c 6c         ical all
80006590: 6f 63 61 74 69 6f 6e 3a         ocation:
80006598: 20 c0 01 0a 00 20 69 6e          .... in
800065a0: 64 65 78 20 6f 75 74 20         dex out 
800065a8: 6f 66 20 62 6f 75 6e 64         of bound
800065b0: 73 3a 20 74 68 65 20 6c         s: the l
800065b8: 65 6e 20 69 73 20 c0 12         en is ..
800065c0: 20 62 75 74 20 74 68 65          but the
800065c8: 20 69 6e 64 65 78 20 69          index i
800065d0: 73 20 c0 00 2f 72 75 73         s ../rus
800065d8: 74 63 2f 65 34 30 38 39         tc/e4089
800065e0: 34 37 62 66 64 32 30 30         47bfd200
800065e8: 61 66 34 32 64 62 33 32         af42db32
800065f0: 32 64 61 66 30 66 61 64         2daf0fad
800065f8: 66 65 37 65 32 36 64 33         fe7e26d3
80006600: 62 64 31 2f 6c 69 62 72         bd1/libr
80006608: 61 72 79 2f 63 6f 72 65         ary/core
80006610: 2f 73 72 63 2f 66 6d 74         /src/fmt
80006618: 2f 6d 6f 64 2e 72 73 00         /mod.rs.
80006620: 73 72 63 2f 63 6f 6e 73         src/cons
80006628: 6f 6c 65 2e 72 73 00 2f         ole.rs./
80006630: 5b 6b 65 72 6e 65 6c 5d         [kernel]
80006638: 20 75 73 65 72 20 70 72          user pr
80006640: 6f 67 72 61 6d 20 72 65         ogram re
80006648: 71 75 65 73 74 65 64 20         quested 
80006650: 65 78 69 74 20 77 69 74         exit wit
80006658: 68 20 63 6f 64 65 3d c0         h code=.
80006660: 01 0a 00 2f 72 75 73 74         .../rust
80006668: 63 2f 65 34 30 38 39 34         c/e40894
80006670: 37 62 66 64 32 30 30 61         7bfd200a
80006678: 66 34 32 64 62 33 32 32         f42db322
80006680: 64 61 66 30 66 61 64 66         daf0fadf
80006688: 65 37 65 32 36 64 33 62         e7e26d3b
80006690: 64 31 2f 6c 69 62 72 61         d1/libra
80006698: 72 79 2f 63 6f 72 65 2f         ry/core/
800066a0: 73 72 63 2f 69 74 65 72         src/iter
800066a8: 2f 72 61 6e 67 65 2e 72         /range.r
800066b0: 73 00 2f 72 75 73 74 63         s./rustc
800066b8: 2f 65 34 30 38 39 34 37         /e408947
800066c0: 62 66 64 32 30 30 61 66         bfd200af
800066c8: 34 32 64 62 33 32 32 64         42db322d
800066d0: 61 66 30 66 61 64 66 65         af0fadfe
800066d8: 37 65 32 36 64 33 62 64         7e26d3bd
800066e0: 31 2f 6c 69 62 72 61 72         1/librar
800066e8: 79 2f 63 6f 72 65 2f 73         y/core/s
800066f0: 72 63 2f 66 6d 74 2f 6e         rc/fmt/n
800066f8: 75 6d 2e 72 73 00 2f 72         um.rs./r
80006700: 75 73 74 63 2f 65 34 30         ustc/e40
80006708: 38 39 34 37 62 66 64 32         8947bfd2
80006710: 30 30 61 66 34 32 64 62         00af42db
80006718: 33 32 32 64 61 66 30 66         322daf0f
80006720: 61 64 66 65 37 65 32 36         adfe7e26
80006728: 64 33 62 64 31 2f 6c 69         d3bd1/li
80006730: 62 72 61 72 79 2f 63 6f         brary/co
80006738: 72 65 2f 73 72 63 2f 75         re/src/u
80006740: 62 5f 63 68 65 63 6b 73         b_checks
80006748: 2e 72 73 00 c0 01 3a c0         .rs...:.
80006750: 01 3a c0 00 2f 72 75 73         .:../rus
80006758: 74 63 2f 65 34 30 38 39         tc/e4089
80006760: 34 37 62 66 64 32 30 30         47bfd200
80006768: 61 66 34 32 64 62 33 32         af42db32
80006770: 32 64 61 66 30 66 61 64         2daf0fad
80006778: 66 65 37 65 32 36 64 33         fe7e26d3
80006780: 62 64 31 2f 6c 69 62 72         bd1/libr
80006788: 61 72 79 2f 63 6f 72 65         ary/core
80006790: 2f 73 72 63 2f 70 74 72         /src/ptr
80006798: 2f 63 6f 6e 73 74 5f 70         /const_p
800067a0: 74 72 2e 72 73 00 2f 72         tr.rs./r
800067a8: 75 73 74 63 2f 65 34 30         ustc/e40
800067b0: 38 39 34 37 62 66 64 32         8947bfd2
800067b8: 30 30 61 66 34 32 64 62         00af42db
800067c0: 33 32 32 64 61 66 30 66         322daf0f
800067c8: 61 64 66 65 37 65 32 36         adfe7e26
800067d0: 64 33 62 64 31 2f 6c 69         d3bd1/li
800067d8: 62 72 61 72 79 2f 63 6f         brary/co
800067e0: 72 65 2f 73 72 63 2f 61         re/src/a
800067e8: 72 72 61 79 2f 69 74 65         rray/ite
800067f0: 72 2f 69 74 65 72 5f 69         r/iter_i
800067f8: 6e 6e 65 72 2e 72 73 00         nner.rs.
80006800: 2f 72 75 73 74 63 2f 65         /rustc/e
80006808: 34 30 38 39 34 37 62 66         408947bf
80006810: 64 32 30 30 61 66 34 32         d200af42
80006818: 64 62 33 32 32 64 61 66         db322daf
80006820: 30 66 61 64 66 65 37 65         0fadfe7e
80006828: 32 36 64 33 62 64 31 2f         26d3bd1/
80006830: 6c 69 62 72 61 72 79 2f         library/
80006838: 63 6f 72 65 2f 73 72 63         core/src
80006840: 2f 70 61 6e 69 63 6b 69         /panicki
80006848: 6e 67 2e 72 73 00 00 00         ng.rs...

0000000080006850 <.Lanon.e85f2032c8db99908e86d3b357040114.1>:
80006850: 20 66 00 80 00 00 00 00          f......
80006858: 0e 00 00 00 00 00 00 00         ........
80006860: 09 00 00 00 0d 00 00 00         ........

0000000080006868 <.Lanon.e85f2032c8db99908e86d3b357040114.2>:
80006868: 20 66 00 80 00 00 00 00          f......
80006870: 0e 00 00 00 00 00 00 00         ........
80006878: 0b 00 00 00 09 00 00 00         ........

0000000080006880 <.Lanon.2bdc9bf9399b9ef1c074185546ed9b0a.0>:
80006880: 75 6e 73 61 66 65 20 70         unsafe p
80006888: 72 65 63 6f 6e 64 69 74         recondit
80006890: 69 6f 6e 28 73 29 20 76         ion(s) v
80006898: 69 6f 6c 61 74 65 64 3a         iolated:
800068a0: 20 70 74 72 3a 3a 77 72          ptr::wr
800068a8: 69 74 65 5f 62 79 74 65         ite_byte
800068b0: 73 20 72 65 71 75 69 72         s requir
800068b8: 65 73 20 74 68 61 74 20         es that 
800068c0: 74 68 65 20 64 65 73 74         the dest
800068c8: 69 6e 61 74 69 6f 6e 20         ination 
800068d0: 70 6f 69 6e 74 65 72 20         pointer 
800068d8: 69 73 20 61 6c 69 67 6e         is align
800068e0: 65 64 20 61 6e 64 20 6e         ed and n
800068e8: 6f 6e 2d 6e 75 6c 6c 0a         on-null.
800068f0: 0a 54 68 69 73 20 69 6e         .This in
800068f8: 64 69 63 61 74 65 73 20         dicates 
80006900: 61 20 62 75 67 20 69 6e         a bug in
80006908: 20 74 68 65 20 70 72 6f          the pro
80006910: 67 72 61 6d 2e 20 54 68         gram. Th
80006918: 69 73 20 55 6e 64 65 66         is Undef
80006920: 69 6e 65 64 20 42 65 68         ined Beh
80006928: 61 76 69 6f 72 20 63 68         avior ch
80006930: 65 63 6b 20 69 73 20 6f         eck is o
80006938: 70 74 69 6f 6e 61 6c 2c         ptional,
80006940: 20 61 6e 64 20 63 61 6e          and can
80006948: 6e 6f 74 20 62 65 20 72         not be r
80006950: 65 6c 69 65 64 20 6f 6e         elied on
80006958: 20 66 6f 72 20 73 61 66          for saf
80006960: 65 74 79 2e                     ety.

0000000080006964 <.Lanon.2bdc9bf9399b9ef1c074185546ed9b0a.1>:
80006964: 75 6e 73 61 66 65 20 70         unsafe p
8000696c: 72 65 63 6f 6e 64 69 74         recondit
80006974: 69 6f 6e 28 73 29 20 76         ion(s) v
8000697c: 69 6f 6c 61 74 65 64 3a         iolated:
80006984: 20 70 74 72 3a 3a 77 72          ptr::wr
8000698c: 69 74 65 5f 76 6f 6c 61         ite_vola
80006994: 74 69 6c 65 20 72 65 71         tile req
8000699c: 75 69 72 65 73 20 74 68         uires th
800069a4: 61 74 20 74 68 65 20 70         at the p
800069ac: 6f 69 6e 74 65 72 20 61         ointer a
800069b4: 72 67 75 6d 65 6e 74 20         rgument 
800069bc: 69 73 20 61 6c 69 67 6e         is align
800069c4: 65 64 0a 0a 54 68 69 73         ed..This
800069cc: 20 69 6e 64 69 63 61 74          indicat
800069d4: 65 73 20 61 20 62 75 67         es a bug
800069dc: 20 69 6e 20 74 68 65 20          in the 
800069e4: 70 72 6f 67 72 61 6d 2e         program.
800069ec: 20 54 68 69 73 20 55 6e          This Un
800069f4: 64 65 66 69 6e 65 64 20         defined 
800069fc: 42 65 68 61 76 69 6f 72         Behavior
80006a04: 20 63 68 65 63 6b 20 69          check i
80006a0c: 73 20 6f 70 74 69 6f 6e         s option
80006a14: 61 6c 2c 20 61 6e 64 20         al, and 
80006a1c: 63 61 6e 6e 6f 74 20 62         cannot b
80006a24: 65 20 72 65 6c 69 65 64         e relied
80006a2c: 20 6f 6e 20 66 6f 72 20          on for 
80006a34: 73 61 66 65 74 79 2e            safety.

0000000080006a3b <.Lanon.2bdc9bf9399b9ef1c074185546ed9b0a.2>:
80006a3b: 75 6e 73 61 66 65 20 70         unsafe p
80006a43: 72 65 63 6f 6e 64 69 74         recondit
80006a4b: 69 6f 6e 28 73 29 20 76         ion(s) v
80006a53: 69 6f 6c 61 74 65 64 3a         iolated:
80006a5b: 20 70 74 72 3a 3a 63 6f          ptr::co
80006a63: 70 79 5f 6e 6f 6e 6f 76         py_nonov
80006a6b: 65 72 6c 61 70 70 69 6e         erlappin
80006a73: 67 20 72 65 71 75 69 72         g requir
80006a7b: 65 73 20 74 68 61 74 20         es that 
80006a83: 62 6f 74 68 20 70 6f 69         both poi
80006a8b: 6e 74 65 72 20 61 72 67         nter arg
80006a93: 75 6d 65 6e 74 73 20 61         uments a
80006a9b: 72 65 20 61 6c 69 67 6e         re align
80006aa3: 65 64 20 61 6e 64 20 6e         ed and n
80006aab: 6f 6e 2d 6e 75 6c 6c 20         on-null 
80006ab3: 61 6e 64 20 74 68 65 20         and the 
80006abb: 73 70 65 63 69 66 69 65         specifie
80006ac3: 64 20 6d 65 6d 6f 72 79         d memory
80006acb: 20 72 61 6e 67 65 73 20          ranges 
80006ad3: 64 6f 20 6e 6f 74 20 6f         do not o
80006adb: 76 65 72 6c 61 70 0a 0a         verlap..
80006ae3: 54 68 69 73 20 69 6e 64         This ind
80006aeb: 69 63 61 74 65 73 20 61         icates a
80006af3: 20 62 75 67 20 69 6e 20          bug in 
80006afb: 74 68 65 20 70 72 6f 67         the prog
80006b03: 72 61 6d 2e 20 54 68 69         ram. Thi
80006b0b: 73 20 55 6e 64 65 66 69         s Undefi
80006b13: 6e 65 64 20 42 65 68 61         ned Beha
80006b1b: 76 69 6f 72 20 63 68 65         vior che
80006b23: 63 6b 20 69 73 20 6f 70         ck is op
80006b2b: 74 69 6f 6e 61 6c 2c 20         tional, 
80006b33: 61 6e 64 20 63 61 6e 6e         and cann
80006b3b: 6f 74 20 62 65 20 72 65         ot be re
80006b43: 6c 69 65 64 20 6f 6e 20         lied on 
80006b4b: 66 6f 72 20 73 61 66 65         for safe
80006b53: 74 79 2e                        ty.

0000000080006b56 <.Lanon.ae6c0876e156dea92d8bf2b1950e3e6d.0>:
80006b56: 75 6e 73 61 66 65 20 70         unsafe p
80006b5e: 72 65 63 6f 6e 64 69 74         recondit
80006b66: 69 6f 6e 28 73 29 20 76         ion(s) v
80006b6e: 69 6f 6c 61 74 65 64 3a         iolated:
80006b76: 20 73 6c 69 63 65 3a 3a          slice::
80006b7e: 67 65 74 5f 75 6e 63 68         get_unch
80006b86: 65 63 6b 65 64 20 72 65         ecked re
80006b8e: 71 75 69 72 65 73 20 74         quires t
80006b96: 68 61 74 20 74 68 65 20         hat the 
80006b9e: 69 6e 64 65 78 20 69 73         index is
80006ba6: 20 77 69 74 68 69 6e 20          within 
80006bae: 74 68 65 20 73 6c 69 63         the slic
80006bb6: 65 0a 0a 54 68 69 73 20         e..This 
80006bbe: 69 6e 64 69 63 61 74 65         indicate
80006bc6: 73 20 61 20 62 75 67 20         s a bug 
80006bce: 69 6e 20 74 68 65 20 70         in the p
80006bd6: 72 6f 67 72 61 6d 2e 20         rogram. 
80006bde: 54 68 69 73 20 55 6e 64         This Und
80006be6: 65 66 69 6e 65 64 20 42         efined B
80006bee: 65 68 61 76 69 6f 72 20         ehavior 
80006bf6: 63 68 65 63 6b 20 69 73         check is
80006bfe: 20 6f 70 74 69 6f 6e 61          optiona
80006c06: 6c 2c 20 61 6e 64 20 63         l, and c
80006c0e: 61 6e 6e 6f 74 20 62 65         annot be
80006c16: 20 72 65 6c 69 65 64 20          relied 
80006c1e: 6f 6e 20 66 6f 72 20 73         on for s
80006c26: 61 66 65 74 79 2e 00 00         afety...
80006c2e: 00 00                           ..

0000000080006c30 <.Lanon.eb627c6dbccec7553ad36054ea8a2412.2>:
80006c30: 4e 63 00 80 00 00 00 00         Nc......
80006c38: 53 00 00 00 00 00 00 00         S.......
80006c40: 3f 00 00 00 25 00 00 00         ?...%...

0000000080006c48 <.Lanon.eb627c6dbccec7553ad36054ea8a2412.4>:
80006c48: a6 67 00 80 00 00 00 00         .g......
80006c50: 59 00 00 00 00 00 00 00         Y.......
80006c58: ae 00 00 00 20 00 00 00         .... ...

0000000080006c60 <.Lanon.0671c842451699e214217974fc7c9301.0>:
80006c60: 00 00 00 00 00 00 00 00         ........

0000000080006c68 <.Lanon.de904cf2c30ddd29ae2b5ed1963a8530.0>:
80006c68: 00 00 00 00 00 00 00 00         ........
80006c70: 00 00 00 00 00 00 00 00         ........
80006c78: 01 00 00 00 00 00 00 00         ........
80006c80: 5e 01 00 80 00 00 00 00         ^.......
80006c88: 64 06 00 80 00 00 00 00         d.......
80006c90: a4 06 00 80 00 00 00 00         ........
80006c98: 44 44 33 33 22 22 11 11         DD33""..
80006ca0: 00 00 42 00 00 00 00 00         ..B.....
80006ca8: 01 00 ff ff ee ee dd dd         ........
80006cb0: 00 10 40 00 00 00 00 00         ..@.....
80006cb8: 88 88 77 77 66 66 55 55         ..wwffUU
80006cc0: 4b 59 86 38 d6 c5 6d 34         KY.8..m4
80006cc8: cc cc bb bb aa aa 99 99         ........
80006cd0: 00 00 40 00 00 00 00 00         ..@.....
80006cd8: 00 00 41 00 00 00 00 00         ..A.....
80006ce0: 00 30 40 00 00 00 00 00         .0@.....
80006ce8: 00 20 40 00 00 00 00 00         . @.....

0000000080006cf0 <.Lanon.b57d2bc1a027e2936361707b17234b59.2>:
80006cf0: e1 62 00 80 00 00 00 00         .b......
80006cf8: 0b 00 00 00 00 00 00 00         ........
80006d00: ba 03 00 00 0e 00 00 00         ........

0000000080006d08 <.Lanon.b57d2bc1a027e2936361707b17234b59.4>:
80006d08: e1 62 00 80 00 00 00 00         .b......
80006d10: 0b 00 00 00 00 00 00 00         ........
80006d18: ff 02 00 00 11 00 00 00         ........

0000000080006d20 <.Lanon.b57d2bc1a027e2936361707b17234b59.5>:
80006d20: e1 62 00 80 00 00 00 00         .b......
80006d28: 0b 00 00 00 00 00 00 00         ........
80006d30: 00 03 00 00 11 00 00 00         ........

0000000080006d38 <.Lanon.b57d2bc1a027e2936361707b17234b59.6>:
80006d38: e1 62 00 80 00 00 00 00         .b......
80006d40: 0b 00 00 00 00 00 00 00         ........
80006d48: 48 03 00 00 1c 00 00 00         H.......

0000000080006d50 <.Lanon.b57d2bc1a027e2936361707b17234b59.7>:
80006d50: 0b 5b 76 6d 61 5d 20 73         .[vma] s
80006d58: 6c 6f 74 3d c0 06 20 6b         lot=.. k
80006d60: 69 6e 64 3d c0 08 20 72         ind=.. r
80006d68: 61 6e 67 65 3d 5b c1 20         ange=[. 
80006d70: 00 80 60 02 2c 20 c1 20         ..`., . 
80006d78: 00 80 60 08 29 20 66 6c         ..`.) fl
80006d80: 61 67 73 3d c0 08 20 66         ags=.. f
80006d88: 61 75 6c 74 73 3d c0 0e         aults=..
80006d90: 20 6d 61 70 70 65 64 5f          mapped_
80006d98: 70 61 67 65 73 3d c0 01         pages=..
80006da0: 0a 00                           ..

0000000080006da2 <.Lanon.b57d2bc1a027e2936361707b17234b59.8>:
80006da2: 05 5b 70 74 5d 20 c0 04         .[pt] ..
80006daa: 20 76 61 3d c1 20 00 80          va=. ..
80006db2: 60 06 20 76 70 6e 3d 28         `. vpn=(
80006dba: c0 01 2c c0 01 2c c0 08         ..,..,..
80006dc2: 29 20 6c 65 76 65 6c 3d         ) level=
80006dca: c0 0a 20 72 6f 6f 74 5f         .. root_
80006dd2: 70 74 65 3d c3 20 00 80         pte=. ..
80006dda: 69 12 00 08 20 6c 31 5f         i... l1_
80006de2: 70 74 65 3d c3 20 00 80         pte=. ..
80006dea: 69 12 00 08 20 6c 30 5f         i... l0_
80006df2: 70 74 65 3d c3 20 00 80         pte=. ..
80006dfa: 69 12 00 0a 20 6c 65 61         i... lea
80006e02: 66 5f 70 74 65 3d c3 20         f_pte=. 
80006e0a: 00 80 69 12 00 09 20 6c         ..i... l
80006e12: 65 61 66 5f 70 61 3d c1         eaf_pa=.
80006e1a: 20 00 80 60 07 20 66 6c          ..`. fl
80006e22: 61 67 73 3d c0 01 0a 00         ags=....
80006e2a: 00 00 00 00 00 00               ......

0000000080006e30 <.Lanon.b57d2bc1a027e2936361707b17234b59.9>:
80006e30: e1 62 00 80 00 00 00 00         .b......
80006e38: 0b 00 00 00 00 00 00 00         ........
80006e40: f0 02 00 00 10 00 00 00         ........

0000000080006e48 <.Lanon.b57d2bc1a027e2936361707b17234b59.10>:
80006e48: e1 62 00 80 00 00 00 00         .b......
80006e50: 0b 00 00 00 00 00 00 00         ........
80006e58: f0 02 00 00 26 00 00 00         ....&...

0000000080006e60 <.Lanon.b57d2bc1a027e2936361707b17234b59.11>:
80006e60: e1 62 00 80 00 00 00 00         .b......
80006e68: 0b 00 00 00 00 00 00 00         ........
80006e70: f1 02 00 00 11 00 00 00         ........

0000000080006e78 <.Lanon.b57d2bc1a027e2936361707b17234b59.12>:
80006e78: e1 62 00 80 00 00 00 00         .b......
80006e80: 0b 00 00 00 00 00 00 00         ........
80006e88: f2 02 00 00 11 00 00 00         ........

0000000080006e90 <.Lanon.b57d2bc1a027e2936361707b17234b59.13>:
80006e90: e1 62 00 80 00 00 00 00         .b......
80006e98: 0b 00 00 00 00 00 00 00         ........
80006ea0: f3 02 00 00 11 00 00 00         ........

0000000080006ea8 <.Lanon.b57d2bc1a027e2936361707b17234b59.15>:
80006ea8: e1 62 00 80 00 00 00 00         .b......
80006eb0: 0b 00 00 00 00 00 00 00         ........
80006eb8: 46 04 00 00 0e 00 00 00         F.......

0000000080006ec0 <.Lanon.b57d2bc1a027e2936361707b17234b59.16>:
80006ec0: e1 62 00 80 00 00 00 00         .b......
80006ec8: 0b 00 00 00 00 00 00 00         ........
80006ed0: 71 03 00 00 20 00 00 00         q... ...

0000000080006ed8 <.Lanon.b57d2bc1a027e2936361707b17234b59.17>:
80006ed8: e1 62 00 80 00 00 00 00         .b......
80006ee0: 0b 00 00 00 00 00 00 00         ........
80006ee8: 79 03 00 00 17 00 00 00         y.......

0000000080006ef0 <.Lanon.b57d2bc1a027e2936361707b17234b59.18>:
80006ef0: e1 62 00 80 00 00 00 00         .b......
80006ef8: 0b 00 00 00 00 00 00 00         ........
80006f00: 7a 03 00 00 15 00 00 00         z.......

0000000080006f08 <.Lanon.b57d2bc1a027e2936361707b17234b59.19>:
80006f08: e1 62 00 80 00 00 00 00         .b......
80006f10: 0b 00 00 00 00 00 00 00         ........
80006f18: 82 03 00 00 17 00 00 00         ........

0000000080006f20 <.Lanon.b57d2bc1a027e2936361707b17234b59.20>:
80006f20: e1 62 00 80 00 00 00 00         .b......
80006f28: 0b 00 00 00 00 00 00 00         ........
80006f30: 83 03 00 00 15 00 00 00         ........
80006f38: 6c 6f 61 64 46 41 49 4c         loadFAIL
80006f40: 6d 6d 61 70 50 41 53 53         mmapPASS
80006f48: 68 65 61 70                     heap

0000000080006f4c <.Lanon.b57d2bc1a027e2936361707b17234b59.23>:
80006f4c: 75 6e 6b 6e 6f 77 6e 00         unknown.
80006f54: 00 00 00 00                     ....

0000000080006f58 <.Lanon.b57d2bc1a027e2936361707b17234b59.24>:
80006f58: e1 62 00 80 00 00 00 00         .b......
80006f60: 0b 00 00 00 00 00 00 00         ........
80006f68: 13 03 00 00 1c 00 00 00         ........

0000000080006f70 <.Lanon.b57d2bc1a027e2936361707b17234b59.25>:
80006f70: 2d                              -

0000000080006f71 <.Lanon.b57d2bc1a027e2936361707b17234b59.26>:
80006f71: 77                              w

0000000080006f72 <.Lanon.b57d2bc1a027e2936361707b17234b59.27>:
80006f72: 72                              r

0000000080006f73 <.Lanon.b57d2bc1a027e2936361707b17234b59.28>:
80006f73: 72 77                           rw

0000000080006f75 <.Lanon.b57d2bc1a027e2936361707b17234b59.30>:
80006f75: 73 74 6f 72 65                  store

0000000080006f7a <.Lanon.b57d2bc1a027e2936361707b17234b59.31>:
80006f7a: 4c 30 2d 34 4b                  L0-4K

0000000080006f7f <.Lanon.b57d2bc1a027e2936361707b17234b59.32>:
80006f7f: 4c 31 2d 32 4d                  L1-2M

0000000080006f84 <.Lanon.b57d2bc1a027e2936361707b17234b59.33>:
80006f84: 4c 32 2d 31 47                  L2-1G

0000000080006f89 <.Lanon.b57d2bc1a027e2936361707b17234b59.34>:
80006f89: 69 6e 76 61 6c 69 64            invalid

0000000080006f90 <.Lanon.b57d2bc1a027e2936361707b17234b59.35>:
80006f90: e1 62 00 80 00 00 00 00         .b......
80006f98: 0b 00 00 00 00 00 00 00         ........
80006fa0: 4a 04 00 00 0e 00 00 00         J.......

0000000080006fa8 <.Lanon.b57d2bc1a027e2936361707b17234b59.36>:
80006fa8: e1 62 00 80 00 00 00 00         .b......
80006fb0: 0b 00 00 00 00 00 00 00         ........
80006fb8: b0 03 00 00 0d 00 00 00         ........

0000000080006fc0 <.Lanon.b57d2bc1a027e2936361707b17234b59.37>:
80006fc0: e1 62 00 80 00 00 00 00         .b......
80006fc8: 0b 00 00 00 00 00 00 00         ........
80006fd0: 4e 04 00 00 05 00 00 00         N.......

0000000080006fd8 <.Lanon.b57d2bc1a027e2936361707b17234b59.38>:
80006fd8: e1 62 00 80 00 00 00 00         .b......
80006fe0: 0b 00 00 00 00 00 00 00         ........
80006fe8: c0 02 00 00 09 00 00 00         ........

0000000080006ff0 <.Lanon.b57d2bc1a027e2936361707b17234b59.39>:
80006ff0: e1 62 00 80 00 00 00 00         .b......
80006ff8: 0b 00 00 00 00 00 00 00         ........
80007000: c1 02 00 00 09 00 00 00         ........

0000000080007008 <.Lanon.b57d2bc1a027e2936361707b17234b59.40>:
80007008: e1 62 00 80 00 00 00 00         .b......
80007010: 0b 00 00 00 00 00 00 00         ........
80007018: c3 02 00 00 09 00 00 00         ........

0000000080007020 <.Lanon.b57d2bc1a027e2936361707b17234b59.41>:
80007020: e1 62 00 80 00 00 00 00         .b......
80007028: 0b 00 00 00 00 00 00 00         ........
80007030: c4 02 00 00 09 00 00 00         ........

0000000080007038 <.Lanon.b57d2bc1a027e2936361707b17234b59.42>:
80007038: e1 62 00 80 00 00 00 00         .b......
80007040: 0b 00 00 00 00 00 00 00         ........
80007048: c7 02 00 00 09 00 00 00         ........

0000000080007050 <.Lanon.b57d2bc1a027e2936361707b17234b59.43>:
80007050: e1 62 00 80 00 00 00 00         .b......
80007058: 0b 00 00 00 00 00 00 00         ........
80007060: ca 02 00 00 09 00 00 00         ........

0000000080007068 <.Lanon.b57d2bc1a027e2936361707b17234b59.44>:
80007068: e1 62 00 80 00 00 00 00         .b......
80007070: 0b 00 00 00 00 00 00 00         ........
80007078: cb 02 00 00 09 00 00 00         ........

0000000080007080 <.Lanon.b57d2bc1a027e2936361707b17234b59.45>:
80007080: e1 62 00 80 00 00 00 00         .b......
80007088: 0b 00 00 00 00 00 00 00         ........
80007090: cd 02 00 00 09 00 00 00         ........

0000000080007098 <.Lanon.b57d2bc1a027e2936361707b17234b59.46>:
80007098: e1 62 00 80 00 00 00 00         .b......
800070a0: 0b 00 00 00 00 00 00 00         ........
800070a8: cf 02 00 00 09 00 00 00         ........

00000000800070b0 <.Lanon.b57d2bc1a027e2936361707b17234b59.47>:
800070b0: e1 62 00 80 00 00 00 00         .b......
800070b8: 0b 00 00 00 00 00 00 00         ........
800070c0: d3 02 00 00 24 00 00 00         ....$...

00000000800070c8 <.Lanon.b57d2bc1a027e2936361707b17234b59.48>:
800070c8: e1 62 00 80 00 00 00 00         .b......
800070d0: 0b 00 00 00 00 00 00 00         ........
800070d8: d3 02 00 00 16 00 00 00         ........

00000000800070e0 <.Lanon.b57d2bc1a027e2936361707b17234b59.49>:
800070e0: e1 62 00 80 00 00 00 00         .b......
800070e8: 0b 00 00 00 00 00 00 00         ........
800070f0: d4 02 00 00 0d 00 00 00         ........

00000000800070f8 <.Lanon.b57d2bc1a027e2936361707b17234b59.50>:
800070f8: e1 62 00 80 00 00 00 00         .b......
80007100: 0b 00 00 00 00 00 00 00         ........
80007108: 8b 01 00 00 05 00 00 00         ........

0000000080007110 <.Lanon.b57d2bc1a027e2936361707b17234b59.51>:
80007110: e1 62 00 80 00 00 00 00         .b......
80007118: 0b 00 00 00 00 00 00 00         ........
80007120: 9c 01 00 00 11 00 00 00         ........

0000000080007128 <.Lanon.b57d2bc1a027e2936361707b17234b59.52>:
80007128: 1f 5b 6b 65 72 6e 65 6c         .[kernel
80007130: 5d 20 75 6e 65 78 70 65         ] unexpe
80007138: 63 74 65 64 20 73 79 73         cted sys
80007140: 63 61 6c 6c 20 61 37 3d         call a7=
80007148: c0 04 20 61 30 3d c1 20         .. a0=. 
80007150: 00 80 60 06 20 73 65 70         ..`. sep
80007158: 63 3d c1 20 00 80 60 01         c=. ..`.
80007160: 0a 00 00 00 00 00 00 00         ........

0000000080007168 <.Lanon.b57d2bc1a027e2936361707b17234b59.53>:
80007168: e1 62 00 80 00 00 00 00         .b......
80007170: 0b 00 00 00 00 00 00 00         ........
80007178: 2d 03 00 00 1f 00 00 00         -.......

0000000080007180 <.Lanon.b57d2bc1a027e2936361707b17234b59.54>:
80007180: e1 62 00 80 00 00 00 00         .b......
80007188: 0b 00 00 00 00 00 00 00         ........
80007190: 2d 03 00 00 1a 00 00 00         -.......

0000000080007198 <.Lanon.b57d2bc1a027e2936361707b17234b59.55>:
80007198: e1 62 00 80 00 00 00 00         .b......
800071a0: 0b 00 00 00 00 00 00 00         ........
800071a8: 36 03 00 00 09 00 00 00         6.......

00000000800071b0 <.Lanon.b57d2bc1a027e2936361707b17234b59.56>:
800071b0: 61 74 74 65 6d 70 74 65         attempte
800071b8: 64 20 74 6f 20 69 6e 73         d to ins
800071c0: 74 61 6c 6c 20 61 6e 20         tall an 
800071c8: 61 6c 72 65 61 64 79 2d         already-
800071d0: 70 72 65 73 65 6e 74 20         present 
800071d8: 6c 61 7a 79 20 50 54 45         lazy PTE

00000000800071e0 <.Lanon.b57d2bc1a027e2936361707b17234b59.57>:
800071e0: e1 62 00 80 00 00 00 00         .b......
800071e8: 0b 00 00 00 00 00 00 00         ........
800071f0: 1c 03 00 00 1f 00 00 00         ........

00000000800071f8 <.Lanon.b57d2bc1a027e2936361707b17234b59.58>:
800071f8: e1 62 00 80 00 00 00 00         .b......
80007200: 0b 00 00 00 00 00 00 00         ........
80007208: 21 03 00 00 24 00 00 00         !...$...

0000000080007210 <.Lanon.b57d2bc1a027e2936361707b17234b59.59>:
80007210: e1 62 00 80 00 00 00 00         .b......
80007218: 0b 00 00 00 00 00 00 00         ........
80007220: 21 03 00 00 0e 00 00 00         !.......

0000000080007228 <.Lanon.b57d2bc1a027e2936361707b17234b59.60>:
80007228: e1 62 00 80 00 00 00 00         .b......
80007230: 0b 00 00 00 00 00 00 00         ........
80007238: 25 03 00 00 09 00 00 00         %.......

0000000080007240 <.Lanon.b57d2bc1a027e2936361707b17234b59.61>:
80007240: e1 62 00 80 00 00 00 00         .b......
80007248: 0b 00 00 00 00 00 00 00         ........
80007250: 26 03 00 00 09 00 00 00         &.......

0000000080007258 <.Lanon.b57d2bc1a027e2936361707b17234b59.62>:
80007258: 6c 61 7a 79 20 70 61 67         lazy pag
80007260: 65 20 70 6f 6f 6c 20 65         e pool e
80007268: 78 68 61 75 73 74 65 64         xhausted

0000000080007270 <.Lanon.b57d2bc1a027e2936361707b17234b59.63>:
80007270: e1 62 00 80 00 00 00 00         .b......
80007278: 0b 00 00 00 00 00 00 00         ........
80007280: e7 02 00 00 09 00 00 00         ........

0000000080007288 <.Lanon.b57d2bc1a027e2936361707b17234b59.64>:
80007288: e1 62 00 80 00 00 00 00         .b......
80007290: 0b 00 00 00 00 00 00 00         ........
80007298: e8 02 00 00 09 00 00 00         ........

00000000800072a0 <.Lanon.b57d2bc1a027e2936361707b17234b59.65>:
800072a0: e1 62 00 80 00 00 00 00         .b......
800072a8: 0b 00 00 00 00 00 00 00         ........
800072b0: e9 02 00 00 09 00 00 00         ........

00000000800072b8 <.Lanon.b57d2bc1a027e2936361707b17234b59.66>:
800072b8: e1 62 00 80 00 00 00 00         .b......
800072c0: 0b 00 00 00 00 00 00 00         ........
800072c8: 33 02 00 00 1a 00 00 00         3.......

00000000800072d0 <.Lanon.b57d2bc1a027e2936361707b17234b59.67>:
800072d0: e1 62 00 80 00 00 00 00         .b......
800072d8: 0b 00 00 00 00 00 00 00         ........
800072e0: 34 02 00 00 1d 00 00 00         4.......

00000000800072e8 <.Lanon.b57d2bc1a027e2936361707b17234b59.70>:
800072e8: 1e 5b 6b 65 72 6e 65 6c         .[kernel
800072f0: 5d 20 75 73 65 72 20 65         ] user e
800072f8: 76 69 64 65 6e 63 65 3a         vidence:
80007300: 20 73 74 61 67 65 3d c3          stage=.
80007308: 20 00 80 69 12 00 0b 20          ..i... 
80007310: 68 65 61 70 5f 62 61 73         heap_bas
80007318: 65 3d c1 20 00 80 60 0b         e=. ..`.
80007320: 20 6d 6d 61 70 5f 62 61          mmap_ba
80007328: 73 65 3d c1 20 00 80 60         se=. ..`
80007330: 07 20 68 65 61 70 30 3d         . heap0=
80007338: c3 20 00 80 69 12 00 07         . ..i...
80007340: 20 68 65 61 70 31 3d c3          heap1=.
80007348: 20 00 80 69 12 00 0f 20          ..i... 
80007350: 6d 6d 61 70 30 5f 69 6e         mmap0_in
80007358: 69 74 69 61 6c 3d c3 20         itial=. 
80007360: 00 80 69 12 00 07 20 6d         ..i... m
80007368: 6d 61 70 30 3d c3 20 00         map0=. .
80007370: 80 69 12 00 0f 20 6d 6d         .i... mm
80007378: 61 70 31 5f 69 6e 69 74         ap1_init
80007380: 69 61 6c 3d c3 20 00 80         ial=. ..
80007388: 69 12 00 07 20 6d 6d 61         i... mma
80007390: 70 31 3d c3 20 00 80 69         p1=. ..i
80007398: 12 00 01 0a 00                  .....

000000008000739d <.Lanon.b57d2bc1a027e2936361707b17234b59.71>:
8000739d: 68 65 61 70 5f 70 61 67         heap_pag
800073a5: 65 30                           e0

00000000800073a7 <.Lanon.b57d2bc1a027e2936361707b17234b59.72>:
800073a7: 68 65 61 70 5f 70 61 67         heap_pag
800073af: 65 31                           e1

00000000800073b1 <.Lanon.b57d2bc1a027e2936361707b17234b59.73>:
800073b1: 6d 6d 61 70 5f 70 61 67         mmap_pag
800073b9: 65 30                           e0

00000000800073bb <.Lanon.b57d2bc1a027e2936361707b17234b59.74>:
800073bb: 6d 6d 61 70 5f 70 61 67         mmap_pag
800073c3: 65 31 00 00 00                  e1...

00000000800073c8 <.Lanon.b57d2bc1a027e2936361707b17234b59.78>:
800073c8: e1 62 00 80 00 00 00 00         .b......
800073d0: 0b 00 00 00 00 00 00 00         ........
800073d8: 9b 02 00 00 09 00 00 00         ........

00000000800073e0 <.Lanon.b57d2bc1a027e2936361707b17234b59.79>:
800073e0: e1 62 00 80 00 00 00 00         .b......
800073e8: 0b 00 00 00 00 00 00 00         ........
800073f0: 9c 02 00 00 09 00 00 00         ........

00000000800073f8 <.Lanon.b57d2bc1a027e2936361707b17234b59.80>:
800073f8: e1 62 00 80 00 00 00 00         .b......
80007400: 0b 00 00 00 00 00 00 00         ........
80007408: 9d 02 00 00 09 00 00 00         ........

0000000080007410 <.Lanon.b57d2bc1a027e2936361707b17234b59.81>:
80007410: e1 62 00 80 00 00 00 00         .b......
80007418: 0b 00 00 00 00 00 00 00         ........
80007420: a1 02 00 00 12 00 00 00         ........

0000000080007428 <.Lanon.b57d2bc1a027e2936361707b17234b59.82>:
80007428: e1 62 00 80 00 00 00 00         .b......
80007430: 0b 00 00 00 00 00 00 00         ........
80007438: de 02 00 00 09 00 00 00         ........

0000000080007440 <.Lanon.b57d2bc1a027e2936361707b17234b59.83>:
80007440: e1 62 00 80 00 00 00 00         .b......
80007448: 0b 00 00 00 00 00 00 00         ........
80007450: f7 01 00 00 09 00 00 00         ........

0000000080007458 <.Lanon.b57d2bc1a027e2936361707b17234b59.84>:
80007458: e1 62 00 80 00 00 00 00         .b......
80007460: 0b 00 00 00 00 00 00 00         ........
80007468: fb 01 00 00 0d 00 00 00         ........

0000000080007470 <.Lanon.b57d2bc1a027e2936361707b17234b59.85>:
80007470: e1 62 00 80 00 00 00 00         .b......
80007478: 0b 00 00 00 00 00 00 00         ........
80007480: f9 01 00 00 0d 00 00 00         ........

0000000080007488 <.Lanon.b57d2bc1a027e2936361707b17234b59.86>:
80007488: e1 62 00 80 00 00 00 00         .b......
80007490: 0b 00 00 00 00 00 00 00         ........
80007498: fe 01 00 00 0d 00 00 00         ........

00000000800074a0 <.Lanon.b57d2bc1a027e2936361707b17234b59.87>:
800074a0: e1 62 00 80 00 00 00 00         .b......
800074a8: 0b 00 00 00 00 00 00 00         ........
800074b0: ff 01 00 00 0d 00 00 00         ........

00000000800074b8 <.Lanon.b57d2bc1a027e2936361707b17234b59.88>:
800074b8: e1 62 00 80 00 00 00 00         .b......
800074c0: 0b 00 00 00 00 00 00 00         ........
800074c8: 00 02 00 00 3c 00 00 00         ....<...

00000000800074d0 <.Lanon.b57d2bc1a027e2936361707b17234b59.89>:
800074d0: e1 62 00 80 00 00 00 00         .b......
800074d8: 0b 00 00 00 00 00 00 00         ........
800074e0: 00 02 00 00 0d 00 00 00         ........

00000000800074e8 <.Lanon.b57d2bc1a027e2936361707b17234b59.90>:
800074e8: e1 62 00 80 00 00 00 00         .b......
800074f0: 0b 00 00 00 00 00 00 00         ........
800074f8: 05 02 00 00 0a 00 00 00         ........

0000000080007500 <.Lanon.b57d2bc1a027e2936361707b17234b59.91>:
80007500: e1 62 00 80 00 00 00 00         .b......
80007508: 0b 00 00 00 00 00 00 00         ........
80007510: 0c 02 00 00 32 00 00 00         ....2...

0000000080007518 <.Lanon.b57d2bc1a027e2936361707b17234b59.92>:
80007518: e1 62 00 80 00 00 00 00         .b......
80007520: 0b 00 00 00 00 00 00 00         ........
80007528: 10 02 00 00 09 00 00 00         ........

0000000080007530 <.Lanon.b57d2bc1a027e2936361707b17234b59.93>:
80007530: e1 62 00 80 00 00 00 00         .b......
80007538: 0b 00 00 00 00 00 00 00         ........
80007540: 11 02 00 00 09 00 00 00         ........

0000000080007548 <.Lanon.b57d2bc1a027e2936361707b17234b59.94>:
80007548: e1 62 00 80 00 00 00 00         .b......
80007550: 0b 00 00 00 00 00 00 00         ........
80007558: 1b 02 00 00 0d 00 00 00         ........

0000000080007560 <.Lanon.b57d2bc1a027e2936361707b17234b59.95>:
80007560: e1 62 00 80 00 00 00 00         .b......
80007568: 0b 00 00 00 00 00 00 00         ........
80007570: 25 02 00 00 20 00 00 00         %... ...

0000000080007578 <.Lanon.b57d2bc1a027e2936361707b17234b59.96>:
80007578: 19 5b 6b 65 72 6e 65 6c         .[kernel
80007580: 5d 20 6c 61 7a 79 20 66         ] lazy f
80007588: 61 75 6c 74 20 6b 69 6e         ault kin
80007590: 64 3d c0 06 20 73 65 70         d=.. sep
80007598: 63 3d c1 20 00 80 60 07         c=. ..`.
800075a0: 20 73 74 76 61 6c 3d c1          stval=.
800075a8: 20 00 80 60 06 20 70 61          ..`. pa
800075b0: 67 65 3d c1 20 00 80 60         ge=. ..`
800075b8: 05 20 76 6d 61 3d c0 10         . vma=..
800075c0: 20 62 65 66 6f 72 65 5f          before_
800075c8: 70 72 65 73 65 6e 74 3d         present=
800075d0: c0 0a 20 61 6c 6c 6f 63         .. alloc
800075d8: 5f 70 61 3d c1 20 00 80         _pa=. ..
800075e0: 60 01 0a 00                     `...

00000000800075e4 <.Lanon.b57d2bc1a027e2936361707b17234b59.97>:
800075e4: 66 61 75 6c 74 5f 62 65         fault_be
800075ec: 66 6f 72 65                     fore

00000000800075f0 <.Lanon.b57d2bc1a027e2936361707b17234b59.98>:
800075f0: 66 61 75 6c 74 5f 61 66         fault_af
800075f8: 74 65 72                        ter

00000000800075fb <.Lanon.b57d2bc1a027e2936361707b17234b59.99>:
800075fb: 70 61 67 65 20 66 61 75         page fau
80007603: 6c 74 20 68 69 74 20 61         lt hit a
8000760b: 6e 20 61 6c 72 65 61 64         n alread
80007613: 79 2d 6d 61 70 70 65 64         y-mapped
8000761b: 20 6c 65 61 66                   leaf

0000000080007620 <.Lanon.b57d2bc1a027e2936361707b17234b59.100>:
80007620: e1 62 00 80 00 00 00 00         .b......
80007628: 0b 00 00 00 00 00 00 00         ........
80007630: 8b 02 00 00 09 00 00 00         ........

0000000080007638 <.Lanon.b57d2bc1a027e2936361707b17234b59.101>:
80007638: e1 62 00 80 00 00 00 00         .b......
80007640: 0b 00 00 00 00 00 00 00         ........
80007648: 8c 02 00 00 09 00 00 00         ........

0000000080007650 <.Lanon.b57d2bc1a027e2936361707b17234b59.102>:
80007650: e1 62 00 80 00 00 00 00         .b......
80007658: 0b 00 00 00 00 00 00 00         ........
80007660: 8d 02 00 00 09 00 00 00         ........

0000000080007668 <.Lanon.b57d2bc1a027e2936361707b17234b59.103>:
80007668: e1 62 00 80 00 00 00 00         .b......
80007670: 0b 00 00 00 00 00 00 00         ........
80007678: 8e 02 00 00 09 00 00 00         ........

0000000080007680 <.Lanon.b57d2bc1a027e2936361707b17234b59.104>:
80007680: e1 62 00 80 00 00 00 00         .b......
80007688: 0b 00 00 00 00 00 00 00         ........
80007690: 8f 02 00 00 09 00 00 00         ........

0000000080007698 <.Lanon.b57d2bc1a027e2936361707b17234b59.105>:
80007698: e1 62 00 80 00 00 00 00         .b......
800076a0: 0b 00 00 00 00 00 00 00         ........
800076a8: 90 02 00 00 09 00 00 00         ........

00000000800076b0 <.Lanon.b57d2bc1a027e2936361707b17234b59.106>:
800076b0: e1 62 00 80 00 00 00 00         .b......
800076b8: 0b 00 00 00 00 00 00 00         ........
800076c0: 94 02 00 00 0d 00 00 00         ........

00000000800076c8 <.Lanon.b57d2bc1a027e2936361707b17234b59.107>:
800076c8: 4e 4f                           NO

00000000800076ca <.Lanon.b57d2bc1a027e2936361707b17234b59.108>:
800076ca: 59 45 53 00 00 00               YES...

00000000800076d0 <.Lanon.b57d2bc1a027e2936361707b17234b59.109>:
800076d0: e1 62 00 80 00 00 00 00         .b......
800076d8: 0b 00 00 00 00 00 00 00         ........
800076e0: b6 03 00 00 06 00 00 00         ........

00000000800076e8 <.Lanon.b57d2bc1a027e2936361707b17234b59.110>:
800076e8: e1 62 00 80 00 00 00 00         .b......
800076f0: 0b 00 00 00 00 00 00 00         ........
800076f8: b6 03 00 00 05 00 00 00         ........

0000000080007700 <.Lanon.b57d2bc1a027e2936361707b17234b59.111>:
80007700: e1 62 00 80 00 00 00 00         .b......
80007708: 0b 00 00 00 00 00 00 00         ........
80007710: b6 03 00 00 1c 00 00 00         ........

0000000080007718 <.Lanon.b57d2bc1a027e2936361707b17234b59.112>:
80007718: e1 62 00 80 00 00 00 00         .b......
80007720: 0b 00 00 00 00 00 00 00         ........
80007728: cf 01 00 00 19 00 00 00         ........

0000000080007730 <.Lanon.b57d2bc1a027e2936361707b17234b59.113>:
80007730: e1 62 00 80 00 00 00 00         .b......
80007738: 0b 00 00 00 00 00 00 00         ........
80007740: d2 01 00 00 0a 00 00 00         ........

0000000080007748 <.Lanon.b57d2bc1a027e2936361707b17234b59.114>:
80007748: e1 62 00 80 00 00 00 00         .b......
80007750: 0b 00 00 00 00 00 00 00         ........
80007758: d9 01 00 00 09 00 00 00         ........

0000000080007760 <.Lanon.b57d2bc1a027e2936361707b17234b59.115>:
80007760: e1 62 00 80 00 00 00 00         .b......
80007768: 0b 00 00 00 00 00 00 00         ........
80007770: da 01 00 00 09 00 00 00         ........

0000000080007778 <.Lanon.b57d2bc1a027e2936361707b17234b59.116>:
80007778: e1 62 00 80 00 00 00 00         .b......
80007780: 0b 00 00 00 00 00 00 00         ........
80007788: db 01 00 00 09 00 00 00         ........

0000000080007790 <.Lanon.b57d2bc1a027e2936361707b17234b59.117>:
80007790: e1 62 00 80 00 00 00 00         .b......
80007798: 0b 00 00 00 00 00 00 00         ........
800077a0: e2 01 00 00 09 00 00 00         ........

00000000800077a8 <.Lanon.b57d2bc1a027e2936361707b17234b59.118>:
800077a8: e1 62 00 80 00 00 00 00         .b......
800077b0: 0b 00 00 00 00 00 00 00         ........
800077b8: ea 01 00 00 12 00 00 00         ........

00000000800077c0 <.Lanon.b57d2bc1a027e2936361707b17234b59.119>:
800077c0: 16 5b 6b 65 72 6e 65 6c         .[kernel
800077c8: 5d 20 73 79 73 5f 6d 6d         ] sys_mm
800077d0: 61 70 20 6c 65 6e 3d c0         ap len=.
800077d8: 09 20 2d 3e 20 62 61 73         . -> bas
800077e0: 65 3d c1 20 00 80 60 05         e=. ..`.
800077e8: 20 65 6e 64 3d c1 20 00          end=. .
800077f0: 80 60 0d 20 61 6c 6c 6f         .`. allo
800077f8: 63 5f 63 6f 75 6e 74 3d         c_count=
80007800: c0 1e 20 73 74 69 6c 6c         .. still
80007808: 5f 75 6e 6d 61 70 70 65         _unmappe
80007810: 64 5f 61 66 74 65 72 5f         d_after_
80007818: 72 65 73 65 72 76 65 3d         reserve=
80007820: c0 01 0a 00                     ....

0000000080007824 <.Lanon.b57d2bc1a027e2936361707b17234b59.120>:
80007824: 6d 6d 61 70 5f 72 65 73         mmap_res
8000782c: 65 72 76 65 64                  erved

0000000080007831 <.Lanon.b57d2bc1a027e2936361707b17234b59.121>:
80007831: 6d 6d 61 70 20 72 65 73         mmap res
80007839: 65 72 76 61 74 69 6f 6e         ervation
80007841: 20 65 78 63 65 65 64 73          exceeds
80007849: 20 6c 69 6d 69 74 00             limit.

0000000080007850 <.Lanon.b57d2bc1a027e2936361707b17234b59.122>:
80007850: e1 62 00 80 00 00 00 00         .b......
80007858: 0b 00 00 00 00 00 00 00         ........
80007860: a5 01 00 00 1e 00 00 00         ........

0000000080007868 <.Lanon.b57d2bc1a027e2936361707b17234b59.123>:
80007868: e1 62 00 80 00 00 00 00         .b......
80007870: 0b 00 00 00 00 00 00 00         ........
80007878: a8 01 00 00 0a 00 00 00         ........

0000000080007880 <.Lanon.b57d2bc1a027e2936361707b17234b59.124>:
80007880: e1 62 00 80 00 00 00 00         .b......
80007888: 0b 00 00 00 00 00 00 00         ........
80007890: af 01 00 00 09 00 00 00         ........

0000000080007898 <.Lanon.b57d2bc1a027e2936361707b17234b59.125>:
80007898: e1 62 00 80 00 00 00 00         .b......
800078a0: 0b 00 00 00 00 00 00 00         ........
800078a8: b0 01 00 00 09 00 00 00         ........

00000000800078b0 <.Lanon.b57d2bc1a027e2936361707b17234b59.126>:
800078b0: e1 62 00 80 00 00 00 00         .b......
800078b8: 0b 00 00 00 00 00 00 00         ........
800078c0: b1 01 00 00 09 00 00 00         ........

00000000800078c8 <.Lanon.b57d2bc1a027e2936361707b17234b59.127>:
800078c8: e1 62 00 80 00 00 00 00         .b......
800078d0: 0b 00 00 00 00 00 00 00         ........
800078d8: bd 01 00 00 09 00 00 00         ........

00000000800078e0 <.Lanon.b57d2bc1a027e2936361707b17234b59.128>:
800078e0: e1 62 00 80 00 00 00 00         .b......
800078e8: 0b 00 00 00 00 00 00 00         ........
800078f0: c5 01 00 00 12 00 00 00         ........

00000000800078f8 <.Lanon.b57d2bc1a027e2936361707b17234b59.129>:
800078f8: 16 5b 6b 65 72 6e 65 6c         .[kernel
80007900: 5d 20 73 79 73 5f 73 62         ] sys_sb
80007908: 72 6b 20 6c 65 6e 3d c0         rk len=.
80007910: 09 20 2d 3e 20 62 61 73         . -> bas
80007918: 65 3d c1 20 00 80 60 0b         e=. ..`.
80007920: 20 6e 65 77 5f 62 72 65          new_bre
80007928: 61 6b 3d c1 20 00 80 60         ak=. ..`
80007930: 0d 20 61 6c 6c 6f 63 5f         . alloc_
80007938: 63 6f 75 6e 74 3d c0 1e         count=..
80007940: 20 73 74 69 6c 6c 5f 75          still_u
80007948: 6e 6d 61 70 70 65 64 5f         nmapped_
80007950: 61 66 74 65 72 5f 72 65         after_re
80007958: 73 65 72 76 65 3d c0 01         serve=..
80007960: 0a 00                           ..

0000000080007962 <.Lanon.b57d2bc1a027e2936361707b17234b59.130>:
80007962: 68 65 61 70 5f 72 65 73         heap_res
8000796a: 65 72 76 65 64                  erved

000000008000796f <.Lanon.b57d2bc1a027e2936361707b17234b59.131>:
8000796f: 68 65 61 70 20 72 65 73         heap res
80007977: 65 72 76 61 74 69 6f 6e         ervation
8000797f: 20 65 78 63 65 65 64 73          exceeds
80007987: 20 6c 69 6d 69 74 00 00          limit..
8000798f: 00                              .

0000000080007990 <.Lanon.b57d2bc1a027e2936361707b17234b59.132>:
80007990: e1 62 00 80 00 00 00 00         .b......
80007998: 0b 00 00 00 00 00 00 00         ........
800079a0: 61 04 00 00 24 00 00 00         a...$...

00000000800079a8 <.Lanon.b57d2bc1a027e2936361707b17234b59.135>:
800079a8: e1 62 00 80 00 00 00 00         .b......
800079b0: 0b 00 00 00 00 00 00 00         ........
800079b8: 72 04 00 00 09 00 00 00         r.......

00000000800079c0 <.Lanon.b57d2bc1a027e2936361707b17234b59.137>:
800079c0: ed 62 00 80 00 00 00 00         .b......
800079c8: 4b 00 00 00 00 00 00 00         K.......
800079d0: bc 02 00 00 09 00 00 00         ........

00000000800079d8 <.Lanon.b57d2bc1a027e2936361707b17234b59.138>:
800079d8: ed 62 00 80 00 00 00 00         .b......
800079e0: 4b 00 00 00 00 00 00 00         K.......
800079e8: 0f 02 00 00 05 00 00 00         ........

00000000800079f0 <.Lanon.b57d2bc1a027e2936361707b17234b59.140>:
800079f0: e1 62 00 80 00 00 00 00         .b......
800079f8: 0b 00 00 00 00 00 00 00         ........
80007a00: f5 00 00 00 0d 00 00 00         ........

0000000080007a08 <.Lanon.b57d2bc1a027e2936361707b17234b59.141>:
80007a08: 29 5b 6b 65 72 6e 65 6c         )[kernel
80007a10: 5d 20 75 6e 65 78 70 65         ] unexpe
80007a18: 63 74 65 64 20 6d 61 63         cted mac
80007a20: 68 69 6e 65 20 74 72 61         hine tra
80007a28: 70 3a 20 6d 63 61 75 73         p: mcaus
80007a30: 65 3d c1 20 00 80 60 06         e=. ..`.
80007a38: 20 6d 65 70 63 3d c1 20          mepc=. 
80007a40: 00 80 60 07 20 6d 74 76         ..`. mtv
80007a48: 61 6c 3d c1 20 00 80 60         al=. ..`
80007a50: 01 0a 00                        ...

0000000080007a53 <.Lanon.b57d2bc1a027e2936361707b17234b59.142>:
80007a53: 2c 5b 6b 65 72 6e 65 6c         ,[kernel
80007a5b: 5d 20 75 6e 65 78 70 65         ] unexpe
80007a63: 63 74 65 64 20 73 75 70         cted sup
80007a6b: 65 72 76 69 73 6f 72 20         ervisor 
80007a73: 74 72 61 70 3a 20 73 63         trap: sc
80007a7b: 61 75 73 65 3d c1 20 00         ause=. .
80007a83: 80 60 06 20 73 65 70 63         .`. sepc
80007a8b: 3d c1 20 00 80 60 07 20         =. ..`. 
80007a93: 73 74 76 61 6c 3d c1 20         stval=. 
80007a9b: 00 80 60 06 20 73 61 74         ..`. sat
80007aa3: 70 3d c1 20 00 80 60 01         p=. ..`.
80007aab: 0a 00                           ..

0000000080007aad <.Lanon.b57d2bc1a027e2936361707b17234b59.143>:
80007aad: 5b 6b 65 72 6e 65 6c 5d         [kernel]
80007ab5: 20 62 6f 6f 74 65 64 20          booted 
80007abd: 69 6e 20 53 2d 6d 6f 64         in S-mod
80007ac5: 65 20 77 69 74 68 20 53         e with S
80007acd: 76 33 39 20 65 6e 61 62         v39 enab
80007ad5: 6c 65 64 0a                     led.

0000000080007ad9 <.Lanon.b57d2bc1a027e2936361707b17234b59.144>:
80007ad9: 5b 6b 65 72 6e 65 6c 5d         [kernel]
80007ae1: 20 4c 41 42 34 20 6b 65          LAB4 ke
80007ae9: 72 6e 65 6c 20 74 61 73         rnel tas
80007af1: 6b 32 20 6c 61 7a 79 20         k2 lazy 
80007af9: 61 6e 6f 6e 79 6d 6f 75         anonymou
80007b01: 73 20 70 61 67 69 6e 67         s paging
80007b09: 0a                              .

0000000080007b0a <.Lanon.b57d2bc1a027e2936361707b17234b59.145>:
80007b0a: 5b 6b 65 72 6e 65 6c 5d         [kernel]
80007b12: 20 70 6f 6c 69 63 79 3a          policy:
80007b1a: 20 73 79 73 5f 73 62 72          sys_sbr
80007b22: 6b 2f 73 79 73 5f 6d 6d         k/sys_mm
80007b2a: 61 70 20 72 65 73 65 72         ap reser
80007b32: 76 65 20 56 4d 41 20 6f         ve VMA o
80007b3a: 6e 6c 79 3b 20 6c 6f 61         nly; loa
80007b42: 64 2f 73 74 6f 72 65 20         d/store 
80007b4a: 70 61 67 65 20 66 61 75         page fau
80007b52: 6c 74 20 61 6c 6c 6f 63         lt alloc
80007b5a: 61 74 65 73 20 70 68 79         ates phy
80007b62: 73 69 63 61 6c 20 70 61         sical pa
80007b6a: 67 65 20 61 6e 64 20 69         ge and i
80007b72: 6e 73 74 61 6c 6c 73 20         nstalls 
80007b7a: 75 73 65 72 20 6c 65 61         user lea
80007b82: 66 20 50 54 45 0a               f PTE.

0000000080007b88 <.Lanon.b57d2bc1a027e2936361707b17234b59.146>:
80007b88: e1 62 00 80 00 00 00 00         .b......
80007b90: 0b 00 00 00 00 00 00 00         ........
80007b98: 40 01 00 00 12 00 00 00         @.......

0000000080007ba0 <.Lanon.b57d2bc1a027e2936361707b17234b59.147>:
80007ba0: 14 5b 6b 65 72 6e 65 6c         .[kernel
80007ba8: 5d 20 73 61 74 70 28 72         ] satp(r
80007bb0: 6f 6f 74 29 3d c1 20 00         oot)=. .
80007bb8: 80 60 09 20 72 6f 6f 74         .`. root
80007bc0: 5f 70 61 3d c1 20 00 80         _pa=. ..
80007bc8: 60 01 0a 00                     `...

0000000080007bcc <.Lanon.b57d2bc1a027e2936361707b17234b59.153>:
80007bcc: 23 5b 6b 65 72 6e 65 6c         #[kernel
80007bd4: 5d 20 65 61 67 65 72 20         ] eager 
80007bdc: 75 73 65 72 20 6d 61 70         user map
80007be4: 70 69 6e 67 73 3a 20 74         pings: t
80007bec: 65 78 74 3d c1 20 00 80         ext=. ..
80007bf4: 60 08 20 73 68 61 72 65         `. share
80007bfc: 64 3d c1 20 00 80 60 07         d=. ..`.
80007c04: 20 73 74 61 63 6b 3d c1          stack=.
80007c0c: 20 00 80 60 11 3b 20 6c          ..`.; l
80007c14: 61 7a 79 20 68 65 61 70         azy heap
80007c1c: 5f 62 61 73 65 3d c1 20         _base=. 
80007c24: 00 80 60 0b 20 6d 6d 61         ..`. mma
80007c2c: 70 5f 62 61 73 65 3d c1         p_base=.
80007c34: 20 00 80 60 01 0a 00             ..`...

0000000080007c3b <.Lanon.b57d2bc1a027e2936361707b17234b59.154>:
80007c3b: 75 73 65 72 5f 74 65 78         user_tex
80007c43: 74                              t

0000000080007c44 <.Lanon.b57d2bc1a027e2936361707b17234b59.155>:
80007c44: 75 73 65 72 5f 73 68 61         user_sha
80007c4c: 72 65 64                        red

0000000080007c4f <.Lanon.b57d2bc1a027e2936361707b17234b59.156>:
80007c4f: 75 73 65 72 5f 73 74 61         user_sta
80007c57: 63 6b                           ck

0000000080007c59 <.Lanon.b57d2bc1a027e2936361707b17234b59.157>:
80007c59: 68 65 61 70 5f 62 65 66         heap_bef
80007c61: 6f 72 65 5f 72 65 73 65         ore_rese
80007c69: 72 76 65                        rve

0000000080007c6c <.Lanon.b57d2bc1a027e2936361707b17234b59.158>:
80007c6c: 6d 6d 61 70 5f 62 65 66         mmap_bef
80007c74: 6f 72 65 5f 72 65 73 65         ore_rese
80007c7c: 72 76 65                        rve

0000000080007c7f <.Lanon.b57d2bc1a027e2936361707b17234b59.160>:
80007c7f: 38 5b 6b 65 72 6e 65 6c         8[kernel
80007c87: 5d 20 65 6e 74 65 72 69         ] enteri
80007c8f: 6e 67 20 55 2d 6d 6f 64         ng U-mod
80007c97: 65 20 6c 61 7a 79 2d 70         e lazy-p
80007c9f: 61 67 69 6e 67 20 70 72         aging pr
80007ca7: 6f 62 65 20 61 74 20 75         obe at u
80007caf: 73 65 72 5f 74 65 78 74         ser_text
80007cb7: 3d c1 20 00 80 60 09 20         =. ..`. 
80007cbf: 75 73 65 72 5f 73 70 3d         user_sp=
80007cc7: c1 20 00 80 60 01 0a 00         . ..`...

0000000080007ccf <.Lanon.b1184e47eeebf7abf58c2453ca06efba.0>:
80007ccf: 69 73 5f 6e 6f 6e 6f 76         is_nonov
80007cd7: 65 72 6c 61 70 70 69 6e         erlappin
80007cdf: 67 3a 20 60 73 69 7a 65         g: `size
80007ce7: 5f 6f 66 3a 3a 3c 54 3e         _of::<T>
80007cef: 28 29 20 2a 20 63 6f 75         () * cou
80007cf7: 6e 74 60 20 6f 76 65 72         nt` over
80007cff: 66 6c 6f 77 73 20 61 20         flows a 
80007d07: 75 73 69 7a 65 00 00 00         usize...
80007d0f: 00                              .

0000000080007d10 <.Lanon.7d504f7fe323ad19be9c96eb375a4d10.1>:
80007d10: 63 66 00 80 00 00 00 00         cf......
80007d18: 4e 00 00 00 00 00 00 00         N.......
80007d20: b2 01 00 00 01 00 00 00         ........

0000000080007d28 <.Lanon.8912b968adab172865f0ea1355ee7dc6.0>:
80007d28: 70 61 67 65 20 66 61 75         page fau
80007d30: 6c 74 20 69 73 20 6f 75         lt is ou
80007d38: 74 73 69 64 65 20 61 6c         tside al
80007d40: 6c 20 6c 61 7a 79 20 56         l lazy V
80007d48: 4d 41 73                        MAs

0000000080007d4b <.Lanon.8912b968adab172865f0ea1355ee7dc6.1>:
80007d4b: 6d 6d 61 70 20 72 65 73         mmap res
80007d53: 65 72 76 61 74 69 6f 6e         ervation
80007d5b: 20 6f 76 65 72 66 6c 6f          overflo
80007d63: 77                              w

0000000080007d64 <.Lanon.8912b968adab172865f0ea1355ee7dc6.2>:
80007d64: 68 65 61 70 20 62 72 65         heap bre
80007d6c: 61 6b 20 6f 76 65 72 66         ak overf
80007d74: 6c 6f 77 00                     low.

0000000080007d78 <.Lanon.3cea8b0dd824267d10aaeee19bbcc060.1>:
80007d78: fe 66 00 80 00 00 00 00         .f......
80007d80: 4d 00 00 00 00 00 00 00         M.......
80007d88: 94 00 00 00 36 00 00 00         ....6...

0000000080007d90 <.Lanon.3cea8b0dd824267d10aaeee19bbcc060.2>:
80007d90: 75 6e 73 61 66 65 20 70         unsafe p
80007d98: 72 65 63 6f 6e 64 69 74         recondit
80007da0: 69 6f 6e 28 73 29 20 76         ion(s) v
80007da8: 69 6f 6c 61 74 65 64 3a         iolated:
80007db0: 20 73 6c 69 63 65 3a 3a          slice::
80007db8: 66 72 6f 6d 5f 72 61 77         from_raw
80007dc0: 5f 70 61 72 74 73 20 72         _parts r
80007dc8: 65 71 75 69 72 65 73 20         equires 
80007dd0: 74 68 65 20 70 6f 69 6e         the poin
80007dd8: 74 65 72 20 74 6f 20 62         ter to b
80007de0: 65 20 61 6c 69 67 6e 65         e aligne
80007de8: 64 20 61 6e 64 20 6e 6f         d and no
80007df0: 6e 2d 6e 75 6c 6c 2c 20         n-null, 
80007df8: 61 6e 64 20 74 68 65 20         and the 
80007e00: 74 6f 74 61 6c 20 73 69         total si
80007e08: 7a 65 20 6f 66 20 74 68         ze of th
80007e10: 65 20 73 6c 69 63 65 20         e slice 
80007e18: 6e 6f 74 20 74 6f 20 65         not to e
80007e20: 78 63 65 65 64 20 60 69         xceed `i
80007e28: 73 69 7a 65 3a 3a 4d 41         size::MA
80007e30: 58 60 0a 0a 54 68 69 73         X`..This
80007e38: 20 69 6e 64 69 63 61 74          indicat
80007e40: 65 73 20 61 20 62 75 67         es a bug
80007e48: 20 69 6e 20 74 68 65 20          in the 
80007e50: 70 72 6f 67 72 61 6d 2e         program.
80007e58: 20 54 68 69 73 20 55 6e          This Un
80007e60: 64 65 66 69 6e 65 64 20         defined 
80007e68: 42 65 68 61 76 69 6f 72         Behavior
80007e70: 20 63 68 65 63 6b 20 69          check i
80007e78: 73 20 6f 70 74 69 6f 6e         s option
80007e80: 61 6c 2c 20 61 6e 64 20         al, and 
80007e88: 63 61 6e 6e 6f 74 20 62         cannot b
80007e90: 65 20 72 65 6c 69 65 64         e relied
80007e98: 20 6f 6e 20 66 6f 72 20          on for 
80007ea0: 73 61 66 65 74 79 2e            safety.

0000000080007ea7 <.Lanon.3cea8b0dd824267d10aaeee19bbcc060.3>:
80007ea7: 75 6e 73 61 66 65 20 70         unsafe p
80007eaf: 72 65 63 6f 6e 64 69 74         recondit
80007eb7: 69 6f 6e 28 73 29 20 76         ion(s) v
80007ebf: 69 6f 6c 61 74 65 64 3a         iolated:
80007ec7: 20 73 6c 69 63 65 3a 3a          slice::
80007ecf: 66 72 6f 6d 5f 72 61 77         from_raw
80007ed7: 5f 70 61 72 74 73 5f 6d         _parts_m
80007edf: 75 74 20 72 65 71 75 69         ut requi
80007ee7: 72 65 73 20 74 68 65 20         res the 
80007eef: 70 6f 69 6e 74 65 72 20         pointer 
80007ef7: 74 6f 20 62 65 20 61 6c         to be al
80007eff: 69 67 6e 65 64 20 61 6e         igned an
80007f07: 64 20 6e 6f 6e 2d 6e 75         d non-nu
80007f0f: 6c 6c 2c 20 61 6e 64 20         ll, and 
80007f17: 74 68 65 20 74 6f 74 61         the tota
80007f1f: 6c 20 73 69 7a 65 20 6f         l size o
80007f27: 66 20 74 68 65 20 73 6c         f the sl
80007f2f: 69 63 65 20 6e 6f 74 20         ice not 
80007f37: 74 6f 20 65 78 63 65 65         to excee
80007f3f: 64 20 60 69 73 69 7a 65         d `isize
80007f47: 3a 3a 4d 41 58 60 0a 0a         ::MAX`..
80007f4f: 54 68 69 73 20 69 6e 64         This ind
80007f57: 69 63 61 74 65 73 20 61         icates a
80007f5f: 20 62 75 67 20 69 6e 20          bug in 
80007f67: 74 68 65 20 70 72 6f 67         the prog
80007f6f: 72 61 6d 2e 20 54 68 69         ram. Thi
80007f77: 73 20 55 6e 64 65 66 69         s Undefi
80007f7f: 6e 65 64 20 42 65 68 61         ned Beha
80007f87: 76 69 6f 72 20 63 68 65         vior che
80007f8f: 63 6b 20 69 73 20 6f 70         ck is op
80007f97: 74 69 6f 6e 61 6c 2c 20         tional, 
80007f9f: 61 6e 64 20 63 61 6e 6e         and cann
80007fa7: 6f 74 20 62 65 20 72 65         ot be re
80007faf: 6c 69 65 64 20 6f 6e 20         lied on 
80007fb7: 66 6f 72 20 73 61 66 65         for safe
80007fbf: 74 79 2e                        ty.

0000000080007fc2 <.Lanon.22070d4841969b165c45f13ce5ad0391.0>:
80007fc2: 69 73 5f 61 6c 69 67 6e         is_align
80007fca: 65 64 5f 74 6f 3a 20 61         ed_to: a
80007fd2: 6c 69 67 6e 20 69 73 20         lign is 
80007fda: 6e 6f 74 20 61 20 70 6f         not a po
80007fe2: 77 65 72 2d 6f 66 2d 74         wer-of-t
80007fea: 77 6f 00 00 00 00               wo....

0000000080007ff0 <.Lanon.22070d4841969b165c45f13ce5ad0391.2>:
80007ff0: 54 67 00 80 00 00 00 00         Tg......
80007ff8: 51 00 00 00 00 00 00 00         Q.......
80008000: 5e 05 00 00 0d 00 00 00         ^.......

0000000080008008 <.Lanon.65e93eb3bf0ec357bad2cb3a51b59245.1>:
80008008: d4 65 00 80 00 00 00 00         .e......
80008010: 4b 00 00 00 00 00 00 00         K.......
80008018: 71 03 00 00 2a 00 00 00         q...*...

0000000080008020 <.Lanon.8d3e02fd3fde28e2cf4420769f5ac089.1>:
80008020: ee 64 00 80 00 00 00 00         .d......
80008028: 50 00 00 00 00 00 00 00         P.......
80008030: 62 07 00 00 0e 00 00 00         b.......

0000000080008038 <.Lanon.8d3e02fd3fde28e2cf4420769f5ac089.2>:
80008038: ee 64 00 80 00 00 00 00         .d......
80008040: 50 00 00 00 00 00 00 00         P.......
80008048: 55 07 00 00 09 00 00 00         U.......

0000000080008050 <.Lanon.8d3e02fd3fde28e2cf4420769f5ac089.3>:
80008050: 12 65 6e 63 6f 64 65 5f         .encode_
80008058: 75 74 66 38 3a 20 6e 65         utf8: ne
80008060: 65 64 20 c0 13 20 62 79         ed .. by
80008068: 74 65 73 20 74 6f 20 65         tes to e
80008070: 6e 63 6f 64 65 20 55 2b         ncode U+
80008078: c3 20 00 00 69 04 00 15         . ..i...
80008080: 20 62 75 74 20 62 75 66          but buf
80008088: 66 65 72 20 68 61 73 20         fer has 
80008090: 6a 75 73 74 20 c0 00            just ..

0000000080008097 <.Lanon.536f2323b683c81b361b85010efd6979.10>:
80008097: 30 30 30 31 30 32 30 33         00010203
8000809f: 30 34 30 35 30 36 30 37         04050607
800080a7: 30 38 30 39 31 30 31 31         08091011
800080af: 31 32 31 33 31 34 31 35         12131415
800080b7: 31 36 31 37 31 38 31 39         16171819
800080bf: 32 30 32 31 32 32 32 33         20212223
800080c7: 32 34 32 35 32 36 32 37         24252627
800080cf: 32 38 32 39 33 30 33 31         28293031
800080d7: 33 32 33 33 33 34 33 35         32333435
800080df: 33 36 33 37 33 38 33 39         36373839
800080e7: 34 30 34 31 34 32 34 33         40414243
800080ef: 34 34 34 35 34 36 34 37         44454647
800080f7: 34 38 34 39 35 30 35 31         48495051
800080ff: 35 32 35 33 35 34 35 35         52535455
80008107: 35 36 35 37 35 38 35 39         56575859
8000810f: 36 30 36 31 36 32 36 33         60616263
80008117: 36 34 36 35 36 36 36 37         64656667
8000811f: 36 38 36 39 37 30 37 31         68697071
80008127: 37 32 37 33 37 34 37 35         72737475
8000812f: 37 36 37 37 37 38 37 39         76777879
80008137: 38 30 38 31 38 32 38 33         80818283
8000813f: 38 34 38 35 38 36 38 37         84858687
80008147: 38 38 38 39 39 30 39 31         88899091
8000814f: 39 32 39 33 39 34 39 35         92939495
80008157: 39 36 39 37 39 38 39 39         96979899
8000815f: 00                              .

0000000080008160 <.Lanon.536f2323b683c81b361b85010efd6979.22>:
80008160: b2 66 00 80 00 00 00 00         .f......
80008168: 4b 00 00 00 00 00 00 00         K.......
80008170: 57 02 00 00 05 00 00 00         W.......

0000000080008178 <.Lanon.536f2323b683c81b361b85010efd6979.31>:
80008178: 30 78                           0x

000000008000817a <.Lanon.536f2323b683c81b361b85010efd6979.80>:
8000817a: 61 74 74 65 6d 70 74 20         attempt 
80008182: 74 6f 20 61 64 64 20 77         to add w
8000818a: 69 74 68 20 6f 76 65 72         ith over
80008192: 66 6c 6f 77                     flow

0000000080008196 <.Lanon.536f2323b683c81b361b85010efd6979.82>:
80008196: 61 74 74 65 6d 70 74 20         attempt 
8000819e: 74 6f 20 6d 75 6c 74 69         to multi
800081a6: 70 6c 79 20 77 69 74 68         ply with
800081ae: 20 6f 76 65 72 66 6c 6f          overflo
800081b6: 77                              w

00000000800081b7 <.Lanon.536f2323b683c81b361b85010efd6979.87>:
800081b7: 61 74 74 65 6d 70 74 20         attempt 
800081bf: 74 6f 20 73 75 62 74 72         to subtr
800081c7: 61 63 74 20 77 69 74 68         act with
800081cf: 20 6f 76 65 72 66 6c 6f          overflo
800081d7: 77                              w

00000000800081d8 <.Lanon.536f2323b683c81b361b85010efd6979.259>:
800081d8: 61 74 74 65 6d 70 74 20         attempt 
800081e0: 74 6f 20 64 69 76 69 64         to divid
800081e8: 65 20 62 79 20 7a 65 72         e by zer
800081f0: 6f 00 00 00 00 00 00 00         o.......

00000000800081f8 <.Lanon.536f2323b683c81b361b85010efd6979.277>:
800081f8: 00 68 00 80 00 00 00 00         .h......
80008200: 4d 00 00 00 00 00 00 00         M.......
80008208: e1 00 00 00 05 00 00 00         ........

0000000080008210 <.Lanon.536f2323b683c81b361b85010efd6979.288>:
80008210: 6e 75 6c 6c 20 70 6f 69         null poi
80008218: 6e 74 65 72 20 64 65 72         nter der
80008220: 65 66 65 72 65 6e 63 65         eference
80008228: 20 6f 63 63 75 72 72 65          occurre
80008230: 64                              d

0000000080008231 <.Lanon.536f2323b683c81b361b85010efd6979.290>:
80008231: 3e 6d 69 73 61 6c 69 67         >misalig
80008239: 6e 65 64 20 70 6f 69 6e         ned poin
80008241: 74 65 72 20 64 65 72 65         ter dere
80008249: 66 65 72 65 6e 63 65 3a         ference:
80008251: 20 61 64 64 72 65 73 73          address
80008259: 20 6d 75 73 74 20 62 65          must be
80008261: 20 61 20 6d 75 6c 74 69          a multi
80008269: 70 6c 65 20 6f 66 20 c1         ple of .
80008271: 20 00 80 60 08 20 62 75          ..`. bu
80008279: 74 20 69 73 20 c1 20 00         t is . .
80008281: 80 60 00                        .`.

0000000080008284 <.Lanon.536f2323b683c81b361b85010efd6979.399>:
80008284: 70 61 6e 69 63 6b 65 64         panicked
8000828c: 20 61 74 20                      at 

0000000080008290 <.Lanon.536f2323b683c81b361b85010efd6979.400>:
80008290: 3a 0a                           :.
