    Finished `dev` profile [unoptimized + debuginfo] target(s) in 0.01s

lab7_kernel_task1:	file format elf64-littleriscv

Disassembly of section .text:

0000000080000000 <_start>:
80000000: 00023117     	auipc	sp, 0x23
80000004: 01010113     	addi	sp, sp, 0x10
80000008: 00005097     	auipc	ra, 0x5
8000000c: b5e080e7     	jalr	-0x4a2(ra) <start_machine>
80000010: a001         	j	0x80000010 <_start+0x10>

0000000080000012 <core::fmt::rt::Argument::new_display::h393722377107d105>:
80000012: 1101         	addi	sp, sp, -0x20
80000014: e02e         	sd	a1, 0x0(sp)
80000016: 85aa         	mv	a1, a0
80000018: 6502         	ld	a0, 0x0(sp)
8000001a: ec2a         	sd	a0, 0x18(sp)
8000001c: e42a         	sd	a0, 0x8(sp)

000000008000001e <.Lpcrel_hi0>:
8000001e: 00005517     	auipc	a0, 0x5
80000022: e6250513     	addi	a0, a0, -0x19e
80000026: e82a         	sd	a0, 0x10(sp)
80000028: 6542         	ld	a0, 0x10(sp)
8000002a: e588         	sd	a0, 0x8(a1)
8000002c: 6522         	ld	a0, 0x8(sp)
8000002e: e188         	sd	a0, 0x0(a1)
80000030: 6105         	addi	sp, sp, 0x20
80000032: 8082         	ret

0000000080000034 <core::fmt::rt::Argument::new_display::h48d813f7f5d25d2b>:
80000034: 1101         	addi	sp, sp, -0x20
80000036: e02e         	sd	a1, 0x0(sp)
80000038: 85aa         	mv	a1, a0
8000003a: 6502         	ld	a0, 0x0(sp)
8000003c: ec2a         	sd	a0, 0x18(sp)
8000003e: e42a         	sd	a0, 0x8(sp)

0000000080000040 <.Lpcrel_hi1>:
80000040: 00000517     	auipc	a0, 0x0
80000044: 1c850513     	addi	a0, a0, 0x1c8
80000048: e82a         	sd	a0, 0x10(sp)
8000004a: 6542         	ld	a0, 0x10(sp)
8000004c: e588         	sd	a0, 0x8(a1)
8000004e: 6522         	ld	a0, 0x8(sp)
80000050: e188         	sd	a0, 0x0(a1)
80000052: 6105         	addi	sp, sp, 0x20
80000054: 8082         	ret

0000000080000056 <core::fmt::rt::Argument::new_display::h575eeb8f853dfbc3>:
80000056: 1101         	addi	sp, sp, -0x20
80000058: e02e         	sd	a1, 0x0(sp)
8000005a: 85aa         	mv	a1, a0
8000005c: 6502         	ld	a0, 0x0(sp)
8000005e: ec2a         	sd	a0, 0x18(sp)
80000060: e42a         	sd	a0, 0x8(sp)

0000000080000062 <.Lpcrel_hi2>:
80000062: 00004517     	auipc	a0, 0x4
80000066: 46850513     	addi	a0, a0, 0x468
8000006a: e82a         	sd	a0, 0x10(sp)
8000006c: 6542         	ld	a0, 0x10(sp)
8000006e: e588         	sd	a0, 0x8(a1)
80000070: 6522         	ld	a0, 0x8(sp)
80000072: e188         	sd	a0, 0x0(a1)
80000074: 6105         	addi	sp, sp, 0x20
80000076: 8082         	ret

0000000080000078 <core::fmt::rt::Argument::new_display::ha62cb5597af22ae5>:
80000078: 1101         	addi	sp, sp, -0x20
8000007a: e02e         	sd	a1, 0x0(sp)
8000007c: 85aa         	mv	a1, a0
8000007e: 6502         	ld	a0, 0x0(sp)
80000080: ec2a         	sd	a0, 0x18(sp)
80000082: e42a         	sd	a0, 0x8(sp)

0000000080000084 <.Lpcrel_hi3>:
80000084: 00005517     	auipc	a0, 0x5
80000088: 31650513     	addi	a0, a0, 0x316
8000008c: e82a         	sd	a0, 0x10(sp)
8000008e: 6542         	ld	a0, 0x10(sp)
80000090: e588         	sd	a0, 0x8(a1)
80000092: 6522         	ld	a0, 0x8(sp)
80000094: e188         	sd	a0, 0x0(a1)
80000096: 6105         	addi	sp, sp, 0x20
80000098: 8082         	ret

000000008000009a <core::fmt::rt::Argument::new_display::hef6ce7468e7801bc>:
8000009a: 1101         	addi	sp, sp, -0x20
8000009c: e02e         	sd	a1, 0x0(sp)
8000009e: 85aa         	mv	a1, a0
800000a0: 6502         	ld	a0, 0x0(sp)
800000a2: ec2a         	sd	a0, 0x18(sp)
800000a4: e42a         	sd	a0, 0x8(sp)

00000000800000a6 <.Lpcrel_hi4>:
800000a6: 00005517     	auipc	a0, 0x5
800000aa: db250513     	addi	a0, a0, -0x24e
800000ae: e82a         	sd	a0, 0x10(sp)
800000b0: 6542         	ld	a0, 0x10(sp)
800000b2: e588         	sd	a0, 0x8(a1)
800000b4: 6522         	ld	a0, 0x8(sp)
800000b6: e188         	sd	a0, 0x0(a1)
800000b8: 6105         	addi	sp, sp, 0x20
800000ba: 8082         	ret

00000000800000bc <core::fmt::rt::Argument::new_lower_hex::h97cd78ad3a047fe9>:
800000bc: 1101         	addi	sp, sp, -0x20
800000be: e02e         	sd	a1, 0x0(sp)
800000c0: 85aa         	mv	a1, a0
800000c2: 6502         	ld	a0, 0x0(sp)
800000c4: ec2a         	sd	a0, 0x18(sp)
800000c6: e42a         	sd	a0, 0x8(sp)

00000000800000c8 <.Lpcrel_hi5>:
800000c8: 00005517     	auipc	a0, 0x5
800000cc: 31e50513     	addi	a0, a0, 0x31e
800000d0: e82a         	sd	a0, 0x10(sp)
800000d2: 6542         	ld	a0, 0x10(sp)
800000d4: e588         	sd	a0, 0x8(a1)
800000d6: 6522         	ld	a0, 0x8(sp)
800000d8: e188         	sd	a0, 0x0(a1)
800000da: 6105         	addi	sp, sp, 0x20
800000dc: 8082         	ret

00000000800000de <core::fmt::rt::Argument::new_lower_hex::hc0e20b6dd24f901a>:
800000de: 1101         	addi	sp, sp, -0x20
800000e0: e02e         	sd	a1, 0x0(sp)
800000e2: 85aa         	mv	a1, a0
800000e4: 6502         	ld	a0, 0x0(sp)
800000e6: ec2a         	sd	a0, 0x18(sp)
800000e8: e42a         	sd	a0, 0x8(sp)

00000000800000ea <.Lpcrel_hi6>:
800000ea: 00005517     	auipc	a0, 0x5
800000ee: 2fc50513     	addi	a0, a0, 0x2fc
800000f2: e82a         	sd	a0, 0x10(sp)
800000f4: 6542         	ld	a0, 0x10(sp)
800000f6: e588         	sd	a0, 0x8(a1)
800000f8: 6522         	ld	a0, 0x8(sp)
800000fa: e188         	sd	a0, 0x0(a1)
800000fc: 6105         	addi	sp, sp, 0x20
800000fe: 8082         	ret

0000000080000100 <core::ptr::read_volatile::h7f4703e1409c8474>:
80000100: 7179         	addi	sp, sp, -0x30
80000102: f406         	sd	ra, 0x28(sp)
80000104: e42e         	sd	a1, 0x8(sp)
80000106: e82a         	sd	a0, 0x10(sp)
80000108: ec2a         	sd	a0, 0x18(sp)
8000010a: a009         	j	0x8000010c <core::ptr::read_volatile::h7f4703e1409c8474+0xc>
8000010c: 6622         	ld	a2, 0x8(sp)
8000010e: 6542         	ld	a0, 0x10(sp)
80000110: 45a1         	li	a1, 0x8
80000112: 00000097     	auipc	ra, 0x0
80000116: 68e080e7     	jalr	0x68e(ra) <core::ptr::read_volatile::precondition_check::h83ca6869f25b3716>
8000011a: a009         	j	0x8000011c <core::ptr::read_volatile::h7f4703e1409c8474+0x1c>
8000011c: 6542         	ld	a0, 0x10(sp)
8000011e: 6108         	ld	a0, 0x0(a0)
80000120: f02a         	sd	a0, 0x20(sp)
80000122: 7502         	ld	a0, 0x20(sp)
80000124: 70a2         	ld	ra, 0x28(sp)
80000126: 6145         	addi	sp, sp, 0x30
80000128: 8082         	ret

000000008000012a <core::ptr::write_volatile::h0682dcaad04569f0>:
8000012a: 7179         	addi	sp, sp, -0x30
8000012c: f406         	sd	ra, 0x28(sp)
8000012e: e032         	sd	a2, 0x0(sp)
80000130: e42a         	sd	a0, 0x8(sp)
80000132: 862e         	mv	a2, a1
80000134: e832         	sd	a2, 0x10(sp)
80000136: ec2a         	sd	a0, 0x18(sp)
80000138: 02b103a3     	sb	a1, 0x27(sp)
8000013c: a009         	j	0x8000013e <core::ptr::write_volatile::h0682dcaad04569f0+0x14>
8000013e: 6602         	ld	a2, 0x0(sp)
80000140: 6522         	ld	a0, 0x8(sp)
80000142: 4585         	li	a1, 0x1
80000144: 00000097     	auipc	ra, 0x0
80000148: 698080e7     	jalr	0x698(ra) <core::ptr::write_volatile::precondition_check::h084ecb084b19e157>
8000014c: a009         	j	0x8000014e <core::ptr::write_volatile::h0682dcaad04569f0+0x24>
8000014e: 6542         	ld	a0, 0x10(sp)
80000150: 65a2         	ld	a1, 0x8(sp)
80000152: 00a58023     	sb	a0, 0x0(a1)
80000156: 70a2         	ld	ra, 0x28(sp)
80000158: 6145         	addi	sp, sp, 0x30
8000015a: 8082         	ret

000000008000015c <core::ptr::write_volatile::h08f9f03d7df33f64>:
8000015c: 7179         	addi	sp, sp, -0x30
8000015e: f406         	sd	ra, 0x28(sp)
80000160: e032         	sd	a2, 0x0(sp)
80000162: e42a         	sd	a0, 0x8(sp)
80000164: 862e         	mv	a2, a1
80000166: e832         	sd	a2, 0x10(sp)
80000168: ec2a         	sd	a0, 0x18(sp)
8000016a: d22e         	sw	a1, 0x24(sp)
8000016c: a009         	j	0x8000016e <core::ptr::write_volatile::h08f9f03d7df33f64+0x12>
8000016e: 6602         	ld	a2, 0x0(sp)
80000170: 6522         	ld	a0, 0x8(sp)
80000172: 4591         	li	a1, 0x4
80000174: 00000097     	auipc	ra, 0x0
80000178: 668080e7     	jalr	0x668(ra) <core::ptr::write_volatile::precondition_check::h084ecb084b19e157>
8000017c: a009         	j	0x8000017e <core::ptr::write_volatile::h08f9f03d7df33f64+0x22>
8000017e: 6542         	ld	a0, 0x10(sp)
80000180: 65a2         	ld	a1, 0x8(sp)
80000182: c188         	sw	a0, 0x0(a1)
80000184: 70a2         	ld	ra, 0x28(sp)
80000186: 6145         	addi	sp, sp, 0x30
80000188: 8082         	ret

000000008000018a <core::ub_checks::maybe_is_nonoverlapping::runtime::hce93b31132c01a9c>:
8000018a: 7119         	addi	sp, sp, -0x80
8000018c: fc2a         	sd	a0, 0x38(sp)
8000018e: e0ae         	sd	a1, 0x40(sp)
80000190: e4b2         	sd	a2, 0x48(sp)
80000192: e8b6         	sd	a3, 0x50(sp)
80000194: 872a         	mv	a4, a0
80000196: e43a         	sd	a4, 0x8(sp)
80000198: ecaa         	sd	a0, 0x58(sp)
8000019a: 852e         	mv	a0, a1
8000019c: e82a         	sd	a0, 0x10(sp)
8000019e: f0ae         	sd	a1, 0x60(sp)
800001a0: 02d605b3     	mul	a1, a2, a3
800001a4: ec2e         	sd	a1, 0x18(sp)
800001a6: 02d63533     	mulhu	a0, a2, a3
800001aa: 00a03633     	snez	a2, a0
800001ae: 06c107a3     	sb	a2, 0x6f(sp)
800001b2: f8ae         	sd	a1, 0x70(sp)
800001b4: ed11         	bnez	a0, 0x800001d0 <.Lpcrel_hi0>
800001b6: a009         	j	0x800001b8 <core::ub_checks::maybe_is_nonoverlapping::runtime::hce93b31132c01a9c+0x2e>
800001b8: 6522         	ld	a0, 0x8(sp)
800001ba: 65c2         	ld	a1, 0x10(sp)
800001bc: 6662         	ld	a2, 0x18(sp)
800001be: f432         	sd	a2, 0x28(sp)
800001c0: 4605         	li	a2, 0x1
800001c2: f032         	sd	a2, 0x20(sp)
800001c4: 7622         	ld	a2, 0x28(sp)
800001c6: e032         	sd	a2, 0x0(sp)
800001c8: fcb2         	sd	a2, 0x78(sp)
800001ca: 02b56263     	bltu	a0, a1, 0x800001ee <.Lpcrel_hi0+0x1e>
800001ce: a819         	j	0x800001e4 <.Lpcrel_hi0+0x14>

00000000800001d0 <.Lpcrel_hi0>:
800001d0: 00006517     	auipc	a0, 0x6
800001d4: f3650513     	addi	a0, a0, -0xca
800001d8: 03d00593     	li	a1, 0x3d
800001dc: 00006097     	auipc	ra, 0x6
800001e0: b10080e7     	jalr	-0x4f0(ra) <core::panicking::panic_nounwind::hf19a354d0b2d9097>
800001e4: 6522         	ld	a0, 0x8(sp)
800001e6: 65c2         	ld	a1, 0x10(sp)
800001e8: 8d0d         	sub	a0, a0, a1
800001ea: f82a         	sd	a0, 0x30(sp)
800001ec: a031         	j	0x800001f8 <.Lpcrel_hi0+0x28>
800001ee: 6542         	ld	a0, 0x10(sp)
800001f0: 65a2         	ld	a1, 0x8(sp)
800001f2: 8d0d         	sub	a0, a0, a1
800001f4: f82a         	sd	a0, 0x30(sp)
800001f6: a009         	j	0x800001f8 <.Lpcrel_hi0+0x28>
800001f8: 6582         	ld	a1, 0x0(sp)
800001fa: 7542         	ld	a0, 0x30(sp)
800001fc: 00b53533     	sltu	a0, a0, a1
80000200: 00154513     	xori	a0, a0, 0x1
80000204: 6109         	addi	sp, sp, 0x80
80000206: 8082         	ret

0000000080000208 <_$LT$$RF$T$u20$as$u20$core..fmt..Display$GT$::fmt::hba32f8ece3fe4868>:
80000208: 1101         	addi	sp, sp, -0x20
8000020a: ec06         	sd	ra, 0x18(sp)
8000020c: 862e         	mv	a2, a1
8000020e: 85aa         	mv	a1, a0
80000210: e42e         	sd	a1, 0x8(sp)
80000212: e832         	sd	a2, 0x10(sp)
80000214: 6188         	ld	a0, 0x0(a1)
80000216: 658c         	ld	a1, 0x8(a1)
80000218: 00005097     	auipc	ra, 0x5
8000021c: c58080e7     	jalr	-0x3a8(ra) <_$LT$str$u20$as$u20$core..fmt..Display$GT$::fmt::h53474d83e2b0968b>
80000220: 60e2         	ld	ra, 0x18(sp)
80000222: 6105         	addi	sp, sp, 0x20
80000224: 8082         	ret

0000000080000226 <core::fmt::Arguments::new::h04edb05b143dbe8b>:
80000226: 1141         	addi	sp, sp, -0x10
80000228: e02a         	sd	a0, 0x0(sp)
8000022a: e42e         	sd	a1, 0x8(sp)
8000022c: 0141         	addi	sp, sp, 0x10
8000022e: 8082         	ret

0000000080000230 <core::fmt::Arguments::new::h1b88f14f20c81a9d>:
80000230: 1141         	addi	sp, sp, -0x10
80000232: e02a         	sd	a0, 0x0(sp)
80000234: e42e         	sd	a1, 0x8(sp)
80000236: 0141         	addi	sp, sp, 0x10
80000238: 8082         	ret

000000008000023a <core::fmt::Arguments::new::h297b901e5bbc895c>:
8000023a: 1141         	addi	sp, sp, -0x10
8000023c: e02a         	sd	a0, 0x0(sp)
8000023e: e42e         	sd	a1, 0x8(sp)
80000240: 0141         	addi	sp, sp, 0x10
80000242: 8082         	ret

0000000080000244 <core::fmt::Arguments::new::h2e182e5a0309a5e5>:
80000244: 1141         	addi	sp, sp, -0x10
80000246: e02a         	sd	a0, 0x0(sp)
80000248: e42e         	sd	a1, 0x8(sp)
8000024a: 0141         	addi	sp, sp, 0x10
8000024c: 8082         	ret

000000008000024e <core::fmt::Arguments::new::h34019cdcd51c6bce>:
8000024e: 1141         	addi	sp, sp, -0x10
80000250: e02a         	sd	a0, 0x0(sp)
80000252: e42e         	sd	a1, 0x8(sp)
80000254: 0141         	addi	sp, sp, 0x10
80000256: 8082         	ret

0000000080000258 <core::fmt::Arguments::new::h40c86365facc2623>:
80000258: 1141         	addi	sp, sp, -0x10
8000025a: e02a         	sd	a0, 0x0(sp)
8000025c: e42e         	sd	a1, 0x8(sp)
8000025e: 0141         	addi	sp, sp, 0x10
80000260: 8082         	ret

0000000080000262 <core::fmt::Arguments::new::h43de279e99e0fe70>:
80000262: 1141         	addi	sp, sp, -0x10
80000264: e02a         	sd	a0, 0x0(sp)
80000266: e42e         	sd	a1, 0x8(sp)
80000268: 0141         	addi	sp, sp, 0x10
8000026a: 8082         	ret

000000008000026c <core::fmt::Arguments::new::h490576d3b4a2ba1e>:
8000026c: 1141         	addi	sp, sp, -0x10
8000026e: e02a         	sd	a0, 0x0(sp)
80000270: e42e         	sd	a1, 0x8(sp)
80000272: 0141         	addi	sp, sp, 0x10
80000274: 8082         	ret

0000000080000276 <core::fmt::Arguments::new::h561cb67d47df8af3>:
80000276: 1141         	addi	sp, sp, -0x10
80000278: e02a         	sd	a0, 0x0(sp)
8000027a: e42e         	sd	a1, 0x8(sp)
8000027c: 0141         	addi	sp, sp, 0x10
8000027e: 8082         	ret

0000000080000280 <core::fmt::Arguments::new::h7dbb233737938ff5>:
80000280: 1141         	addi	sp, sp, -0x10
80000282: e02a         	sd	a0, 0x0(sp)
80000284: e42e         	sd	a1, 0x8(sp)
80000286: 0141         	addi	sp, sp, 0x10
80000288: 8082         	ret

000000008000028a <core::fmt::Arguments::new::h8562e8c24410ea16>:
8000028a: 1141         	addi	sp, sp, -0x10
8000028c: e02a         	sd	a0, 0x0(sp)
8000028e: e42e         	sd	a1, 0x8(sp)
80000290: 0141         	addi	sp, sp, 0x10
80000292: 8082         	ret

0000000080000294 <core::fmt::Arguments::new::h95800068d6bb5b6b>:
80000294: 1141         	addi	sp, sp, -0x10
80000296: e02a         	sd	a0, 0x0(sp)
80000298: e42e         	sd	a1, 0x8(sp)
8000029a: 0141         	addi	sp, sp, 0x10
8000029c: 8082         	ret

000000008000029e <core::fmt::Arguments::new::h97a4bdfdfb1110c1>:
8000029e: 1141         	addi	sp, sp, -0x10
800002a0: e02a         	sd	a0, 0x0(sp)
800002a2: e42e         	sd	a1, 0x8(sp)
800002a4: 0141         	addi	sp, sp, 0x10
800002a6: 8082         	ret

00000000800002a8 <core::fmt::Arguments::new::h9b4eb0a260c7e386>:
800002a8: 1141         	addi	sp, sp, -0x10
800002aa: e02a         	sd	a0, 0x0(sp)
800002ac: e42e         	sd	a1, 0x8(sp)
800002ae: 0141         	addi	sp, sp, 0x10
800002b0: 8082         	ret

00000000800002b2 <core::fmt::Arguments::new::h9d0234536c440cee>:
800002b2: 1141         	addi	sp, sp, -0x10
800002b4: e02a         	sd	a0, 0x0(sp)
800002b6: e42e         	sd	a1, 0x8(sp)
800002b8: 0141         	addi	sp, sp, 0x10
800002ba: 8082         	ret

00000000800002bc <core::fmt::Arguments::new::hb2fd2e4ec0566688>:
800002bc: 1141         	addi	sp, sp, -0x10
800002be: e02a         	sd	a0, 0x0(sp)
800002c0: e42e         	sd	a1, 0x8(sp)
800002c2: 0141         	addi	sp, sp, 0x10
800002c4: 8082         	ret

00000000800002c6 <core::fmt::Arguments::new::hc5dd450f05646112>:
800002c6: 1141         	addi	sp, sp, -0x10
800002c8: e02a         	sd	a0, 0x0(sp)
800002ca: e42e         	sd	a1, 0x8(sp)
800002cc: 0141         	addi	sp, sp, 0x10
800002ce: 8082         	ret

00000000800002d0 <core::fmt::Arguments::new::hcf2884cd2e3e70a5>:
800002d0: 1141         	addi	sp, sp, -0x10
800002d2: e02a         	sd	a0, 0x0(sp)
800002d4: e42e         	sd	a1, 0x8(sp)
800002d6: 0141         	addi	sp, sp, 0x10
800002d8: 8082         	ret

00000000800002da <core::fmt::Arguments::new::hf41ed715533663c3>:
800002da: 1141         	addi	sp, sp, -0x10
800002dc: e02a         	sd	a0, 0x0(sp)
800002de: e42e         	sd	a1, 0x8(sp)
800002e0: 0141         	addi	sp, sp, 0x10
800002e2: 8082         	ret

00000000800002e4 <core::slice::raw::from_raw_parts::precondition_check::hee1fd7d55a467e31>:
800002e4: 7119         	addi	sp, sp, -0x80
800002e6: fc86         	sd	ra, 0x78(sp)
800002e8: e43a         	sd	a4, 0x8(sp)
800002ea: e836         	sd	a3, 0x10(sp)
800002ec: ec32         	sd	a2, 0x18(sp)
800002ee: 862e         	mv	a2, a1
800002f0: 65e2         	ld	a1, 0x18(sp)
800002f2: f032         	sd	a2, 0x20(sp)
800002f4: f42a         	sd	a0, 0x28(sp)
800002f6: fc2a         	sd	a0, 0x38(sp)
800002f8: e0b2         	sd	a2, 0x40(sp)
800002fa: e4ae         	sd	a1, 0x48(sp)
800002fc: e8b6         	sd	a3, 0x50(sp)
800002fe: 4601         	li	a2, 0x0
80000300: 04c10fa3     	sb	a2, 0x5f(sp)
80000304: f0aa         	sd	a0, 0x60(sp)
80000306: 00000097     	auipc	ra, 0x0
8000030a: 122080e7     	jalr	0x122(ra) <core::ptr::const_ptr::_$LT$impl$u20$$BP$const$u20$T$GT$::is_aligned_to::h6fcd483f3e036159>
8000030e: e119         	bnez	a0, 0x80000314 <core::slice::raw::from_raw_parts::precondition_check::hee1fd7d55a467e31+0x30>
80000310: a009         	j	0x80000312 <core::slice::raw::from_raw_parts::precondition_check::hee1fd7d55a467e31+0x2e>
80000312: a021         	j	0x8000031a <core::slice::raw::from_raw_parts::precondition_check::hee1fd7d55a467e31+0x36>
80000314: 7522         	ld	a0, 0x28(sp)
80000316: e119         	bnez	a0, 0x8000031c <core::slice::raw::from_raw_parts::precondition_check::hee1fd7d55a467e31+0x38>
80000318: a009         	j	0x8000031a <core::slice::raw::from_raw_parts::precondition_check::hee1fd7d55a467e31+0x36>
8000031a: a039         	j	0x80000328 <core::slice::raw::from_raw_parts::precondition_check::hee1fd7d55a467e31+0x44>
8000031c: 7502         	ld	a0, 0x20(sp)
8000031e: 00153593     	seqz	a1, a0
80000322: e02e         	sd	a1, 0x0(sp)
80000324: c115         	beqz	a0, 0x80000348 <.Lpcrel_hi0+0x1e>
80000326: a025         	j	0x8000034e <.Lpcrel_hi0+0x24>
80000328: 66a2         	ld	a3, 0x8(sp)

000000008000032a <.Lpcrel_hi0>:
8000032a: 00006517     	auipc	a0, 0x6
8000032e: 29650513     	addi	a0, a0, 0x296
80000332: f4aa         	sd	a0, 0x68(sp)
80000334: 11700593     	li	a1, 0x117
80000338: f8ae         	sd	a1, 0x70(sp)
8000033a: 22f00593     	li	a1, 0x22f
8000033e: 4601         	li	a2, 0x0
80000340: 00006097     	auipc	ra, 0x6
80000344: a06080e7     	jalr	-0x5fa(ra) <core::panicking::panic_nounwind_fmt::h2e018e50a8d3bc73>
80000348: 557d         	li	a0, -0x1
8000034a: f82a         	sd	a0, 0x30(sp)
8000034c: a029         	j	0x80000356 <.Lpcrel_hi0+0x2c>
8000034e: 6502         	ld	a0, 0x0(sp)
80000350: 8905         	andi	a0, a0, 0x1
80000352: ed11         	bnez	a0, 0x8000036e <.Lpcrel_hi1>
80000354: a031         	j	0x80000360 <.Lpcrel_hi0+0x36>
80000356: 65c2         	ld	a1, 0x10(sp)
80000358: 7542         	ld	a0, 0x30(sp)
8000035a: 02b57363     	bgeu	a0, a1, 0x80000380 <.Lpcrel_hi1+0x12>
8000035e: a005         	j	0x8000037e <.Lpcrel_hi1+0x10>
80000360: 7582         	ld	a1, 0x20(sp)
80000362: 557d         	li	a0, -0x1
80000364: 8105         	srli	a0, a0, 0x1
80000366: 02b55533     	divu	a0, a0, a1
8000036a: f82a         	sd	a0, 0x30(sp)
8000036c: b7ed         	j	0x80000356 <.Lpcrel_hi0+0x2c>

000000008000036e <.Lpcrel_hi1>:
8000036e: 00006517     	auipc	a0, 0x6
80000372: 23a50513     	addi	a0, a0, 0x23a
80000376: 00006097     	auipc	ra, 0x6
8000037a: 8fe080e7     	jalr	-0x702(ra) <core::panicking::panic_const::panic_const_div_by_zero::hcfde4c26e8ecfc4b>
8000037e: b76d         	j	0x80000328 <core::slice::raw::from_raw_parts::precondition_check::hee1fd7d55a467e31+0x44>
80000380: 70e6         	ld	ra, 0x78(sp)
80000382: 6109         	addi	sp, sp, 0x80
80000384: 8082         	ret

0000000080000386 <core::slice::raw::from_raw_parts_mut::precondition_check::h4d2922c6beb41826>:
80000386: 7119         	addi	sp, sp, -0x80
80000388: fc86         	sd	ra, 0x78(sp)
8000038a: e43a         	sd	a4, 0x8(sp)
8000038c: e836         	sd	a3, 0x10(sp)
8000038e: ec32         	sd	a2, 0x18(sp)
80000390: 862e         	mv	a2, a1
80000392: 65e2         	ld	a1, 0x18(sp)
80000394: f032         	sd	a2, 0x20(sp)
80000396: f42a         	sd	a0, 0x28(sp)
80000398: fc2a         	sd	a0, 0x38(sp)
8000039a: e0b2         	sd	a2, 0x40(sp)
8000039c: e4ae         	sd	a1, 0x48(sp)
8000039e: e8b6         	sd	a3, 0x50(sp)
800003a0: 4601         	li	a2, 0x0
800003a2: 04c10fa3     	sb	a2, 0x5f(sp)
800003a6: f0aa         	sd	a0, 0x60(sp)
800003a8: 00000097     	auipc	ra, 0x0
800003ac: 080080e7     	jalr	0x80(ra) <core::ptr::const_ptr::_$LT$impl$u20$$BP$const$u20$T$GT$::is_aligned_to::h6fcd483f3e036159>
800003b0: e119         	bnez	a0, 0x800003b6 <core::slice::raw::from_raw_parts_mut::precondition_check::h4d2922c6beb41826+0x30>
800003b2: a009         	j	0x800003b4 <core::slice::raw::from_raw_parts_mut::precondition_check::h4d2922c6beb41826+0x2e>
800003b4: a021         	j	0x800003bc <core::slice::raw::from_raw_parts_mut::precondition_check::h4d2922c6beb41826+0x36>
800003b6: 7522         	ld	a0, 0x28(sp)
800003b8: e119         	bnez	a0, 0x800003be <core::slice::raw::from_raw_parts_mut::precondition_check::h4d2922c6beb41826+0x38>
800003ba: a009         	j	0x800003bc <core::slice::raw::from_raw_parts_mut::precondition_check::h4d2922c6beb41826+0x36>
800003bc: a039         	j	0x800003ca <core::slice::raw::from_raw_parts_mut::precondition_check::h4d2922c6beb41826+0x44>
800003be: 7502         	ld	a0, 0x20(sp)
800003c0: 00153593     	seqz	a1, a0
800003c4: e02e         	sd	a1, 0x0(sp)
800003c6: c115         	beqz	a0, 0x800003ea <.Lpcrel_hi2+0x1e>
800003c8: a025         	j	0x800003f0 <.Lpcrel_hi2+0x24>
800003ca: 66a2         	ld	a3, 0x8(sp)

00000000800003cc <.Lpcrel_hi2>:
800003cc: 00006517     	auipc	a0, 0x6
800003d0: 30b50513     	addi	a0, a0, 0x30b
800003d4: f4aa         	sd	a0, 0x68(sp)
800003d6: 11b00593     	li	a1, 0x11b
800003da: f8ae         	sd	a1, 0x70(sp)
800003dc: 23700593     	li	a1, 0x237
800003e0: 4601         	li	a2, 0x0
800003e2: 00006097     	auipc	ra, 0x6
800003e6: 964080e7     	jalr	-0x69c(ra) <core::panicking::panic_nounwind_fmt::h2e018e50a8d3bc73>
800003ea: 557d         	li	a0, -0x1
800003ec: f82a         	sd	a0, 0x30(sp)
800003ee: a029         	j	0x800003f8 <.Lpcrel_hi2+0x2c>
800003f0: 6502         	ld	a0, 0x0(sp)
800003f2: 8905         	andi	a0, a0, 0x1
800003f4: ed11         	bnez	a0, 0x80000410 <.Lpcrel_hi3>
800003f6: a031         	j	0x80000402 <.Lpcrel_hi2+0x36>
800003f8: 65c2         	ld	a1, 0x10(sp)
800003fa: 7542         	ld	a0, 0x30(sp)
800003fc: 02b57363     	bgeu	a0, a1, 0x80000422 <.Lpcrel_hi3+0x12>
80000400: a005         	j	0x80000420 <.Lpcrel_hi3+0x10>
80000402: 7582         	ld	a1, 0x20(sp)
80000404: 557d         	li	a0, -0x1
80000406: 8105         	srli	a0, a0, 0x1
80000408: 02b55533     	divu	a0, a0, a1
8000040c: f82a         	sd	a0, 0x30(sp)
8000040e: b7ed         	j	0x800003f8 <.Lpcrel_hi2+0x2c>

0000000080000410 <.Lpcrel_hi3>:
80000410: 00006517     	auipc	a0, 0x6
80000414: 19850513     	addi	a0, a0, 0x198
80000418: 00006097     	auipc	ra, 0x6
8000041c: 85c080e7     	jalr	-0x7a4(ra) <core::panicking::panic_const::panic_const_div_by_zero::hcfde4c26e8ecfc4b>
80000420: b76d         	j	0x800003ca <core::slice::raw::from_raw_parts_mut::precondition_check::h4d2922c6beb41826+0x44>
80000422: 70e6         	ld	ra, 0x78(sp)
80000424: 6109         	addi	sp, sp, 0x80
80000426: 8082         	ret

0000000080000428 <core::ptr::const_ptr::_$LT$impl$u20$$BP$const$u20$T$GT$::is_aligned_to::h6fcd483f3e036159>:
80000428: 7139         	addi	sp, sp, -0x40
8000042a: e42e         	sd	a1, 0x8(sp)
8000042c: e82a         	sd	a0, 0x10(sp)
8000042e: ec2a         	sd	a0, 0x18(sp)
80000430: f02e         	sd	a1, 0x20(sp)
80000432: 0015d513     	srli	a0, a1, 0x1
80000436: 55555637     	lui	a2, 0x55555
8000043a: 55560613     	addi	a2, a2, 0x555
8000043e: 02061693     	slli	a3, a2, 0x20
80000442: 9636         	add	a2, a2, a3
80000444: 8d71         	and	a0, a0, a2
80000446: 8d89         	sub	a1, a1, a0
80000448: 33333537     	lui	a0, 0x33333
8000044c: 33350513     	addi	a0, a0, 0x333
80000450: 02051613     	slli	a2, a0, 0x20
80000454: 962a         	add	a2, a2, a0
80000456: 00c5f533     	and	a0, a1, a2
8000045a: 8189         	srli	a1, a1, 0x2
8000045c: 8df1         	and	a1, a1, a2
8000045e: 952e         	add	a0, a0, a1
80000460: 00455593     	srli	a1, a0, 0x4
80000464: 952e         	add	a0, a0, a1
80000466: 0f0f15b7     	lui	a1, 0xf0f1
8000046a: f0f58593     	addi	a1, a1, -0xf1
8000046e: 02059613     	slli	a2, a1, 0x20
80000472: 95b2         	add	a1, a1, a2
80000474: 8d6d         	and	a0, a0, a1
80000476: 010105b7     	lui	a1, 0x1010
8000047a: 10158593     	addi	a1, a1, 0x101
8000047e: 02059613     	slli	a2, a1, 0x20
80000482: 95b2         	add	a1, a1, a2
80000484: 02b50533     	mul	a0, a0, a1
80000488: 9161         	srli	a0, a0, 0x38
8000048a: d62a         	sw	a0, 0x2c(sp)
8000048c: 5532         	lw	a0, 0x2c(sp)
8000048e: 4585         	li	a1, 0x1
80000490: 00b51b63     	bne	a0, a1, 0x800004a6 <.Lpcrel_hi0>
80000494: a009         	j	0x80000496 <core::ptr::const_ptr::_$LT$impl$u20$$BP$const$u20$T$GT$::is_aligned_to::h6fcd483f3e036159+0x6e>
80000496: 6542         	ld	a0, 0x10(sp)
80000498: 65a2         	ld	a1, 0x8(sp)
8000049a: 15fd         	addi	a1, a1, -0x1
8000049c: 8d6d         	and	a0, a0, a1
8000049e: 00153513     	seqz	a0, a0
800004a2: 6121         	addi	sp, sp, 0x40
800004a4: 8082         	ret

00000000800004a6 <.Lpcrel_hi0>:
800004a6: 00006517     	auipc	a0, 0x6
800004aa: 34c50513     	addi	a0, a0, 0x34c
800004ae: f82a         	sd	a0, 0x30(sp)
800004b0: 02a00593     	li	a1, 0x2a
800004b4: fc2e         	sd	a1, 0x38(sp)

00000000800004b6 <.Lpcrel_hi1>:
800004b6: 00006597     	auipc	a1, 0x6
800004ba: 36a58613     	addi	a2, a1, 0x36a
800004be: 05500593     	li	a1, 0x55
800004c2: 00006097     	auipc	ra, 0x6
800004c6: 914080e7     	jalr	-0x6ec(ra) <core::panicking::panic_fmt::h767dc8ac4dd44648>

00000000800004ca <core::char::methods::encode_utf8_raw::he4700f13d35977e2>:
800004ca: 715d         	addi	sp, sp, -0x50
800004cc: e486         	sd	ra, 0x48(sp)
800004ce: e032         	sd	a2, 0x0(sp)
800004d0: e42e         	sd	a1, 0x8(sp)
800004d2: 86aa         	mv	a3, a0
800004d4: e836         	sd	a3, 0x10(sp)
800004d6: d22a         	sw	a0, 0x24(sp)
800004d8: f42e         	sd	a1, 0x28(sp)
800004da: f832         	sd	a2, 0x30(sp)
800004dc: 08000593     	li	a1, 0x80
800004e0: 00b56863     	bltu	a0, a1, 0x800004f0 <core::char::methods::encode_utf8_raw::he4700f13d35977e2+0x26>
800004e4: a009         	j	0x800004e6 <core::char::methods::encode_utf8_raw::he4700f13d35977e2+0x1c>
800004e6: 6542         	ld	a0, 0x10(sp)
800004e8: 00b5551b     	srliw	a0, a0, 0xb
800004ec: c911         	beqz	a0, 0x80000500 <core::char::methods::encode_utf8_raw::he4700f13d35977e2+0x36>
800004ee: a021         	j	0x800004f6 <core::char::methods::encode_utf8_raw::he4700f13d35977e2+0x2c>
800004f0: 4505         	li	a0, 0x1
800004f2: ec2a         	sd	a0, 0x18(sp)
800004f4: a839         	j	0x80000512 <core::char::methods::encode_utf8_raw::he4700f13d35977e2+0x48>
800004f6: 6542         	ld	a0, 0x10(sp)
800004f8: 0105551b     	srliw	a0, a0, 0x10
800004fc: c901         	beqz	a0, 0x8000050c <core::char::methods::encode_utf8_raw::he4700f13d35977e2+0x42>
800004fe: a021         	j	0x80000506 <core::char::methods::encode_utf8_raw::he4700f13d35977e2+0x3c>
80000500: 4509         	li	a0, 0x2
80000502: ec2a         	sd	a0, 0x18(sp)
80000504: a039         	j	0x80000512 <core::char::methods::encode_utf8_raw::he4700f13d35977e2+0x48>
80000506: 4511         	li	a0, 0x4
80000508: ec2a         	sd	a0, 0x18(sp)
8000050a: a021         	j	0x80000512 <core::char::methods::encode_utf8_raw::he4700f13d35977e2+0x48>
8000050c: 450d         	li	a0, 0x3
8000050e: ec2a         	sd	a0, 0x18(sp)
80000510: a009         	j	0x80000512 <core::char::methods::encode_utf8_raw::he4700f13d35977e2+0x48>
80000512: 6502         	ld	a0, 0x0(sp)
80000514: fc2a         	sd	a0, 0x38(sp)
80000516: 65e2         	ld	a1, 0x18(sp)
80000518: 00b56d63     	bltu	a0, a1, 0x80000532 <core::char::methods::encode_utf8_raw::he4700f13d35977e2+0x68>
8000051c: a009         	j	0x8000051e <core::char::methods::encode_utf8_raw::he4700f13d35977e2+0x54>
8000051e: 65a2         	ld	a1, 0x8(sp)
80000520: 6542         	ld	a0, 0x10(sp)
80000522: 2501         	sext.w	a0, a0
80000524: 00000097     	auipc	ra, 0x0
80000528: 0cc080e7     	jalr	0xcc(ra) <core::char::methods::encode_utf8_raw_unchecked::ha23917fb9dcfc9f4>
8000052c: 6522         	ld	a0, 0x8(sp)
8000052e: e0aa         	sd	a0, 0x40(sp)
80000530: a829         	j	0x8000054a <.Lpcrel_hi0+0x10>
80000532: 6602         	ld	a2, 0x0(sp)
80000534: 6542         	ld	a0, 0x10(sp)
80000536: 65e2         	ld	a1, 0x18(sp)
80000538: 2501         	sext.w	a0, a0

000000008000053a <.Lpcrel_hi0>:
8000053a: 00006697     	auipc	a3, 0x6
8000053e: 31668693     	addi	a3, a3, 0x316
80000542: 00000097     	auipc	ra, 0x0
80000546: 02c080e7     	jalr	0x2c(ra) <core::char::methods::encode_utf8_raw::do_panic::runtime::h3599f4e13c9f5678>
8000054a: 6522         	ld	a0, 0x8(sp)
8000054c: 66e2         	ld	a3, 0x18(sp)

000000008000054e <.Lpcrel_hi1>:
8000054e: 00006597     	auipc	a1, 0x6
80000552: 2ea58713     	addi	a4, a1, 0x2ea
80000556: 4605         	li	a2, 0x1
80000558: 85b2         	mv	a1, a2
8000055a: 00000097     	auipc	ra, 0x0
8000055e: e2c080e7     	jalr	-0x1d4(ra) <core::slice::raw::from_raw_parts_mut::precondition_check::h4d2922c6beb41826>
80000562: a009         	j	0x80000564 <.Lpcrel_hi1+0x16>
80000564: 6522         	ld	a0, 0x8(sp)
80000566: 65e2         	ld	a1, 0x18(sp)
80000568: 60a6         	ld	ra, 0x48(sp)
8000056a: 6161         	addi	sp, sp, 0x50
8000056c: 8082         	ret

000000008000056e <core::char::methods::encode_utf8_raw::do_panic::runtime::h3599f4e13c9f5678>:
8000056e: 7115         	addi	sp, sp, -0xe0
80000570: e036         	sd	a3, 0x0(sp)
80000572: 86b2         	mv	a3, a2
80000574: 6602         	ld	a2, 0x0(sp)
80000576: e436         	sd	a3, 0x8(sp)
80000578: 86aa         	mv	a3, a0
8000057a: 6522         	ld	a0, 0x8(sp)
8000057c: ca36         	sw	a3, 0x14(sp)
8000057e: ec2e         	sd	a1, 0x18(sp)
80000580: f02a         	sd	a0, 0x20(sp)

0000000080000582 <.Lpcrel_hi2>:
80000582: 00006517     	auipc	a0, 0x6
80000586: 2e650513     	addi	a0, a0, 0x2e6
8000058a: fd2a         	sd	a0, 0xb8(sp)
8000058c: 082c         	addi	a1, sp, 0x18
8000058e: e1ae         	sd	a1, 0xc0(sp)
80000590: 0858         	addi	a4, sp, 0x14
80000592: e5ba         	sd	a4, 0xc8(sp)
80000594: 1014         	addi	a3, sp, 0x20
80000596: e9b6         	sd	a3, 0xd0(sp)
80000598: e52e         	sd	a1, 0x88(sp)

000000008000059a <.Lpcrel_hi3>:
8000059a: 00005597     	auipc	a1, 0x5
8000059e: e0058593     	addi	a1, a1, -0x200
800005a2: e92e         	sd	a1, 0x90(sp)
800005a4: 67ca         	ld	a5, 0x90(sp)
800005a6: f0be         	sd	a5, 0x60(sp)
800005a8: 67aa         	ld	a5, 0x88(sp)
800005aa: ecbe         	sd	a5, 0x58(sp)
800005ac: ed3a         	sd	a4, 0x98(sp)

00000000800005ae <.Lpcrel_hi4>:
800005ae: 00005717     	auipc	a4, 0x5
800005b2: e9070713     	addi	a4, a4, -0x170
800005b6: f13a         	sd	a4, 0xa0(sp)
800005b8: 770a         	ld	a4, 0xa0(sp)
800005ba: f8ba         	sd	a4, 0x70(sp)
800005bc: 676a         	ld	a4, 0x98(sp)
800005be: f4ba         	sd	a4, 0x68(sp)
800005c0: f536         	sd	a3, 0xa8(sp)
800005c2: f92e         	sd	a1, 0xb0(sp)
800005c4: 75ca         	ld	a1, 0xb0(sp)
800005c6: e12e         	sd	a1, 0x80(sp)
800005c8: 75aa         	ld	a1, 0xa8(sp)
800005ca: fcae         	sd	a1, 0x78(sp)
800005cc: 7586         	ld	a1, 0x60(sp)
800005ce: f82e         	sd	a1, 0x30(sp)
800005d0: 65e6         	ld	a1, 0x58(sp)
800005d2: f42e         	sd	a1, 0x28(sp)
800005d4: 75c6         	ld	a1, 0x70(sp)
800005d6: e0ae         	sd	a1, 0x40(sp)
800005d8: 75a6         	ld	a1, 0x68(sp)
800005da: fc2e         	sd	a1, 0x38(sp)
800005dc: 658a         	ld	a1, 0x80(sp)
800005de: e8ae         	sd	a1, 0x50(sp)
800005e0: 75e6         	ld	a1, 0x78(sp)
800005e2: e4ae         	sd	a1, 0x48(sp)
800005e4: 102c         	addi	a1, sp, 0x28
800005e6: edae         	sd	a1, 0xd8(sp)
800005e8: 00005097     	auipc	ra, 0x5
800005ec: 7ee080e7     	jalr	0x7ee(ra) <core::panicking::panic_fmt::h767dc8ac4dd44648>

00000000800005f0 <core::char::methods::encode_utf8_raw_unchecked::ha23917fb9dcfc9f4>:
800005f0: 7119         	addi	sp, sp, -0x80
800005f2: f02e         	sd	a1, 0x20(sp)
800005f4: 862a         	mv	a2, a0
800005f6: f432         	sd	a2, 0x28(sp)
800005f8: de2a         	sw	a0, 0x3c(sp)
800005fa: e0ae         	sd	a1, 0x40(sp)
800005fc: 4585         	li	a1, 0x1
800005fe: e4ae         	sd	a1, 0x48(sp)
80000600: e8ae         	sd	a1, 0x50(sp)
80000602: ecae         	sd	a1, 0x58(sp)
80000604: 4589         	li	a1, 0x2
80000606: f0ae         	sd	a1, 0x60(sp)
80000608: f4ae         	sd	a1, 0x68(sp)
8000060a: 458d         	li	a1, 0x3
8000060c: f8ae         	sd	a1, 0x70(sp)
8000060e: 08000593     	li	a1, 0x80
80000612: 00b56863     	bltu	a0, a1, 0x80000622 <core::char::methods::encode_utf8_raw_unchecked::ha23917fb9dcfc9f4+0x32>
80000616: a009         	j	0x80000618 <core::char::methods::encode_utf8_raw_unchecked::ha23917fb9dcfc9f4+0x28>
80000618: 7522         	ld	a0, 0x28(sp)
8000061a: 00b5551b     	srliw	a0, a0, 0xb
8000061e: cd11         	beqz	a0, 0x8000063a <core::char::methods::encode_utf8_raw_unchecked::ha23917fb9dcfc9f4+0x4a>
80000620: a801         	j	0x80000630 <core::char::methods::encode_utf8_raw_unchecked::ha23917fb9dcfc9f4+0x40>
80000622: 7522         	ld	a0, 0x28(sp)
80000624: 7582         	ld	a1, 0x20(sp)
80000626: 4605         	li	a2, 0x1
80000628: f832         	sd	a2, 0x30(sp)
8000062a: 00a58023     	sb	a0, 0x0(a1)
8000062e: a049         	j	0x800006b0 <core::char::methods::encode_utf8_raw_unchecked::ha23917fb9dcfc9f4+0xc0>
80000630: 7522         	ld	a0, 0x28(sp)
80000632: 0105551b     	srliw	a0, a0, 0x10
80000636: c901         	beqz	a0, 0x80000646 <core::char::methods::encode_utf8_raw_unchecked::ha23917fb9dcfc9f4+0x56>
80000638: a021         	j	0x80000640 <core::char::methods::encode_utf8_raw_unchecked::ha23917fb9dcfc9f4+0x50>
8000063a: 4509         	li	a0, 0x2
8000063c: f82a         	sd	a0, 0x30(sp)
8000063e: a039         	j	0x8000064c <core::char::methods::encode_utf8_raw_unchecked::ha23917fb9dcfc9f4+0x5c>
80000640: 4511         	li	a0, 0x4
80000642: f82a         	sd	a0, 0x30(sp)
80000644: a021         	j	0x8000064c <core::char::methods::encode_utf8_raw_unchecked::ha23917fb9dcfc9f4+0x5c>
80000646: 450d         	li	a0, 0x3
80000648: f82a         	sd	a0, 0x30(sp)
8000064a: a009         	j	0x8000064c <core::char::methods::encode_utf8_raw_unchecked::ha23917fb9dcfc9f4+0x5c>
8000064c: 7522         	ld	a0, 0x28(sp)
8000064e: 03f57593     	andi	a1, a0, 0x3f
80000652: f805859b     	addiw	a1, a1, -0x80
80000656: e02e         	sd	a1, 0x0(sp)
80000658: 06b10e23     	sb	a1, 0x7c(sp)
8000065c: 03451593     	slli	a1, a0, 0x34
80000660: 91e9         	srli	a1, a1, 0x3a
80000662: f805859b     	addiw	a1, a1, -0x80
80000666: e42e         	sd	a1, 0x8(sp)
80000668: 06b10ea3     	sb	a1, 0x7d(sp)
8000066c: 02e51593     	slli	a1, a0, 0x2e
80000670: 91e9         	srli	a1, a1, 0x3a
80000672: f805859b     	addiw	a1, a1, -0x80
80000676: e82e         	sd	a1, 0x10(sp)
80000678: 06b10f23     	sb	a1, 0x7e(sp)
8000067c: 8149         	srli	a0, a0, 0x12
8000067e: ff056513     	ori	a0, a0, -0x10
80000682: ec2a         	sd	a0, 0x18(sp)
80000684: 06a10fa3     	sb	a0, 0x7f(sp)
80000688: 7542         	ld	a0, 0x30(sp)
8000068a: 4589         	li	a1, 0x2
8000068c: 00b51d63     	bne	a0, a1, 0x800006a6 <core::char::methods::encode_utf8_raw_unchecked::ha23917fb9dcfc9f4+0xb6>
80000690: a009         	j	0x80000692 <core::char::methods::encode_utf8_raw_unchecked::ha23917fb9dcfc9f4+0xa2>
80000692: 6502         	ld	a0, 0x0(sp)
80000694: 7582         	ld	a1, 0x20(sp)
80000696: 6622         	ld	a2, 0x8(sp)
80000698: 0c066613     	ori	a2, a2, 0xc0
8000069c: 00c58023     	sb	a2, 0x0(a1)
800006a0: 00a580a3     	sb	a0, 0x1(a1)
800006a4: a031         	j	0x800006b0 <core::char::methods::encode_utf8_raw_unchecked::ha23917fb9dcfc9f4+0xc0>
800006a6: 7542         	ld	a0, 0x30(sp)
800006a8: 458d         	li	a1, 0x3
800006aa: 00b50463     	beq	a0, a1, 0x800006b2 <core::char::methods::encode_utf8_raw_unchecked::ha23917fb9dcfc9f4+0xc2>
800006ae: a839         	j	0x800006cc <core::char::methods::encode_utf8_raw_unchecked::ha23917fb9dcfc9f4+0xdc>
800006b0: a825         	j	0x800006e8 <core::char::methods::encode_utf8_raw_unchecked::ha23917fb9dcfc9f4+0xf8>
800006b2: 6502         	ld	a0, 0x0(sp)
800006b4: 7582         	ld	a1, 0x20(sp)
800006b6: 6622         	ld	a2, 0x8(sp)
800006b8: 66c2         	ld	a3, 0x10(sp)
800006ba: 0e06e693     	ori	a3, a3, 0xe0
800006be: 00d58023     	sb	a3, 0x0(a1)
800006c2: 00c580a3     	sb	a2, 0x1(a1)
800006c6: 00a58123     	sb	a0, 0x2(a1)
800006ca: b7dd         	j	0x800006b0 <core::char::methods::encode_utf8_raw_unchecked::ha23917fb9dcfc9f4+0xc0>
800006cc: 6502         	ld	a0, 0x0(sp)
800006ce: 7582         	ld	a1, 0x20(sp)
800006d0: 6622         	ld	a2, 0x8(sp)
800006d2: 66c2         	ld	a3, 0x10(sp)
800006d4: 6762         	ld	a4, 0x18(sp)
800006d6: 00e58023     	sb	a4, 0x0(a1)
800006da: 00d580a3     	sb	a3, 0x1(a1)
800006de: 00c58123     	sb	a2, 0x2(a1)
800006e2: 00a581a3     	sb	a0, 0x3(a1)
800006e6: a009         	j	0x800006e8 <core::char::methods::encode_utf8_raw_unchecked::ha23917fb9dcfc9f4+0xf8>
800006e8: 6109         	addi	sp, sp, 0x80
800006ea: 8082         	ret

00000000800006ec <core::ptr::drop_in_place$LT$core..array..iter..IntoIter$LT$char$C$9_usize$GT$$GT$::h16d49d2f2af1bf89>:
800006ec: 1141         	addi	sp, sp, -0x10
800006ee: e406         	sd	ra, 0x8(sp)
800006f0: e02a         	sd	a0, 0x0(sp)
800006f2: 00000097     	auipc	ra, 0x0
800006f6: 00e080e7     	jalr	0xe(ra) <_$LT$core..array..iter..IntoIter$LT$T$C$_$GT$$u20$as$u20$core..ops..drop..Drop$GT$::drop::h5696df1af07e5a82>
800006fa: 60a2         	ld	ra, 0x8(sp)
800006fc: 0141         	addi	sp, sp, 0x10
800006fe: 8082         	ret

0000000080000700 <_$LT$core..array..iter..IntoIter$LT$T$C$_$GT$$u20$as$u20$core..ops..drop..Drop$GT$::drop::h5696df1af07e5a82>:
80000700: 1141         	addi	sp, sp, -0x10
80000702: e42a         	sd	a0, 0x8(sp)
80000704: a009         	j	0x80000706 <_$LT$core..array..iter..IntoIter$LT$T$C$_$GT$$u20$as$u20$core..ops..drop..Drop$GT$::drop::h5696df1af07e5a82+0x6>
80000706: 0141         	addi	sp, sp, 0x10
80000708: 8082         	ret

000000008000070a <_$LT$usize$u20$as$u20$core..slice..index..SliceIndex$LT$$u5b$T$u5d$$GT$$GT$::get_unchecked::precondition_check::h1a0880c5182ab523>:
8000070a: 7179         	addi	sp, sp, -0x30
8000070c: e432         	sd	a2, 0x8(sp)
8000070e: e82a         	sd	a0, 0x10(sp)
80000710: ec2e         	sd	a1, 0x18(sp)
80000712: 02b56363     	bltu	a0, a1, 0x80000738 <.Lpcrel_hi0+0x1e>
80000716: a009         	j	0x80000718 <_$LT$usize$u20$as$u20$core..slice..index..SliceIndex$LT$$u5b$T$u5d$$GT$$GT$::get_unchecked::precondition_check::h1a0880c5182ab523+0xe>
80000718: 66a2         	ld	a3, 0x8(sp)

000000008000071a <.Lpcrel_hi0>:
8000071a: 00006517     	auipc	a0, 0x6
8000071e: 19550513     	addi	a0, a0, 0x195
80000722: f02a         	sd	a0, 0x20(sp)
80000724: 0d600593     	li	a1, 0xd6
80000728: f42e         	sd	a1, 0x28(sp)
8000072a: 1ad00593     	li	a1, 0x1ad
8000072e: 4601         	li	a2, 0x0
80000730: 00005097     	auipc	ra, 0x5
80000734: 616080e7     	jalr	0x616(ra) <core::panicking::panic_nounwind_fmt::h2e018e50a8d3bc73>
80000738: 6145         	addi	sp, sp, 0x30
8000073a: 8082         	ret

000000008000073c <core::str::_$LT$impl$u20$str$GT$::bytes::h680ddacee7d932de>:
8000073c: 1141         	addi	sp, sp, -0x10
8000073e: e02a         	sd	a0, 0x0(sp)
80000740: e42e         	sd	a1, 0x8(sp)
80000742: 95aa         	add	a1, a1, a0
80000744: 0141         	addi	sp, sp, 0x10
80000746: 8082         	ret

0000000080000748 <core::ptr::write_bytes::precondition_check::ha2a8c0b9362eecea>:
80000748: 715d         	addi	sp, sp, -0x50
8000074a: e486         	sd	ra, 0x48(sp)
8000074c: e436         	sd	a3, 0x8(sp)
8000074e: e82a         	sd	a0, 0x10(sp)
80000750: 86b2         	mv	a3, a2
80000752: ec36         	sd	a3, 0x18(sp)
80000754: f02a         	sd	a0, 0x20(sp)
80000756: f42e         	sd	a1, 0x28(sp)
80000758: 02c10ba3     	sb	a2, 0x37(sp)
8000075c: 00000097     	auipc	ra, 0x0
80000760: ccc080e7     	jalr	-0x334(ra) <core::ptr::const_ptr::_$LT$impl$u20$$BP$const$u20$T$GT$::is_aligned_to::h6fcd483f3e036159>
80000764: e119         	bnez	a0, 0x8000076a <core::ptr::write_bytes::precondition_check::ha2a8c0b9362eecea+0x22>
80000766: a009         	j	0x80000768 <core::ptr::write_bytes::precondition_check::ha2a8c0b9362eecea+0x20>
80000768: a029         	j	0x80000772 <core::ptr::write_bytes::precondition_check::ha2a8c0b9362eecea+0x2a>
8000076a: 6562         	ld	a0, 0x18(sp)
8000076c: 8905         	andi	a0, a0, 0x1
8000076e: e50d         	bnez	a0, 0x80000798 <.Lpcrel_hi0+0x24>
80000770: a00d         	j	0x80000792 <.Lpcrel_hi0+0x1e>
80000772: 66a2         	ld	a3, 0x8(sp)

0000000080000774 <.Lpcrel_hi0>:
80000774: 00006517     	auipc	a0, 0x6
80000778: 21150513     	addi	a0, a0, 0x211
8000077c: fc2a         	sd	a0, 0x38(sp)
8000077e: 0e400593     	li	a1, 0xe4
80000782: e0ae         	sd	a1, 0x40(sp)
80000784: 1c900593     	li	a1, 0x1c9
80000788: 4601         	li	a2, 0x0
8000078a: 00005097     	auipc	ra, 0x5
8000078e: 5bc080e7     	jalr	0x5bc(ra) <core::panicking::panic_nounwind_fmt::h2e018e50a8d3bc73>
80000792: 6542         	ld	a0, 0x10(sp)
80000794: e119         	bnez	a0, 0x8000079a <.Lpcrel_hi0+0x26>
80000796: bff1         	j	0x80000772 <core::ptr::write_bytes::precondition_check::ha2a8c0b9362eecea+0x2a>
80000798: a009         	j	0x8000079a <.Lpcrel_hi0+0x26>
8000079a: 60a6         	ld	ra, 0x48(sp)
8000079c: 6161         	addi	sp, sp, 0x50
8000079e: 8082         	ret

00000000800007a0 <core::ptr::read_volatile::precondition_check::h83ca6869f25b3716>:
800007a0: 7179         	addi	sp, sp, -0x30
800007a2: f406         	sd	ra, 0x28(sp)
800007a4: e032         	sd	a2, 0x0(sp)
800007a6: e42a         	sd	a0, 0x8(sp)
800007a8: e82e         	sd	a1, 0x10(sp)
800007aa: 00000097     	auipc	ra, 0x0
800007ae: c7e080e7     	jalr	-0x382(ra) <core::ptr::const_ptr::_$LT$impl$u20$$BP$const$u20$T$GT$::is_aligned_to::h6fcd483f3e036159>
800007b2: e115         	bnez	a0, 0x800007d6 <.Lpcrel_hi1+0x1e>
800007b4: a009         	j	0x800007b6 <core::ptr::read_volatile::precondition_check::h83ca6869f25b3716+0x16>
800007b6: 6682         	ld	a3, 0x0(sp)

00000000800007b8 <.Lpcrel_hi1>:
800007b8: 00006517     	auipc	a0, 0x6
800007bc: 2b150513     	addi	a0, a0, 0x2b1
800007c0: ec2a         	sd	a0, 0x18(sp)
800007c2: 0d600593     	li	a1, 0xd6
800007c6: f02e         	sd	a1, 0x20(sp)
800007c8: 1ad00593     	li	a1, 0x1ad
800007cc: 4601         	li	a2, 0x0
800007ce: 00005097     	auipc	ra, 0x5
800007d2: 578080e7     	jalr	0x578(ra) <core::panicking::panic_nounwind_fmt::h2e018e50a8d3bc73>
800007d6: 70a2         	ld	ra, 0x28(sp)
800007d8: 6145         	addi	sp, sp, 0x30
800007da: 8082         	ret

00000000800007dc <core::ptr::write_volatile::precondition_check::h084ecb084b19e157>:
800007dc: 7139         	addi	sp, sp, -0x40
800007de: fc06         	sd	ra, 0x38(sp)
800007e0: e432         	sd	a2, 0x8(sp)
800007e2: e82a         	sd	a0, 0x10(sp)
800007e4: ec2e         	sd	a1, 0x18(sp)
800007e6: f02a         	sd	a0, 0x20(sp)
800007e8: 00000097     	auipc	ra, 0x0
800007ec: c40080e7     	jalr	-0x3c0(ra) <core::ptr::const_ptr::_$LT$impl$u20$$BP$const$u20$T$GT$::is_aligned_to::h6fcd483f3e036159>
800007f0: e115         	bnez	a0, 0x80000814 <.Lpcrel_hi2+0x1e>
800007f2: a009         	j	0x800007f4 <core::ptr::write_volatile::precondition_check::h084ecb084b19e157+0x18>
800007f4: 66a2         	ld	a3, 0x8(sp)

00000000800007f6 <.Lpcrel_hi2>:
800007f6: 00006517     	auipc	a0, 0x6
800007fa: 34950513     	addi	a0, a0, 0x349
800007fe: f42a         	sd	a0, 0x28(sp)
80000800: 0d700593     	li	a1, 0xd7
80000804: f82e         	sd	a1, 0x30(sp)
80000806: 1af00593     	li	a1, 0x1af
8000080a: 4601         	li	a2, 0x0
8000080c: 00005097     	auipc	ra, 0x5
80000810: 53a080e7     	jalr	0x53a(ra) <core::panicking::panic_nounwind_fmt::h2e018e50a8d3bc73>
80000814: 70e2         	ld	ra, 0x38(sp)
80000816: 6121         	addi	sp, sp, 0x40
80000818: 8082         	ret

000000008000081a <core::ptr::copy_nonoverlapping::precondition_check::hb701bd79c5042e0e>:
8000081a: 7175         	addi	sp, sp, -0x90
8000081c: e506         	sd	ra, 0x88(sp)
8000081e: e43e         	sd	a5, 0x8(sp)
80000820: e83a         	sd	a4, 0x10(sp)
80000822: ec36         	sd	a3, 0x18(sp)
80000824: f032         	sd	a2, 0x20(sp)
80000826: f42e         	sd	a1, 0x28(sp)
80000828: f82a         	sd	a0, 0x30(sp)
8000082a: e0aa         	sd	a0, 0x40(sp)
8000082c: e4ae         	sd	a1, 0x48(sp)
8000082e: e8b2         	sd	a2, 0x50(sp)
80000830: ecb6         	sd	a3, 0x58(sp)
80000832: f0ba         	sd	a4, 0x60(sp)
80000834: e711         	bnez	a4, 0x80000840 <core::ptr::copy_nonoverlapping::precondition_check::hb701bd79c5042e0e+0x26>
80000836: a009         	j	0x80000838 <core::ptr::copy_nonoverlapping::precondition_check::hb701bd79c5042e0e+0x1e>
80000838: 4505         	li	a0, 0x1
8000083a: 02a10fa3     	sb	a0, 0x3f(sp)
8000083e: a039         	j	0x8000084c <core::ptr::copy_nonoverlapping::precondition_check::hb701bd79c5042e0e+0x32>
80000840: 7502         	ld	a0, 0x20(sp)
80000842: 00153513     	seqz	a0, a0
80000846: 02a10fa3     	sb	a0, 0x3f(sp)
8000084a: a009         	j	0x8000084c <core::ptr::copy_nonoverlapping::precondition_check::hb701bd79c5042e0e+0x32>
8000084c: 65e2         	ld	a1, 0x18(sp)
8000084e: 7542         	ld	a0, 0x30(sp)
80000850: 03f14603     	lbu	a2, 0x3f(sp)
80000854: e032         	sd	a2, 0x0(sp)
80000856: 06c107a3     	sb	a2, 0x6f(sp)
8000085a: 00000097     	auipc	ra, 0x0
8000085e: bce080e7     	jalr	-0x432(ra) <core::ptr::const_ptr::_$LT$impl$u20$$BP$const$u20$T$GT$::is_aligned_to::h6fcd483f3e036159>
80000862: e119         	bnez	a0, 0x80000868 <core::ptr::copy_nonoverlapping::precondition_check::hb701bd79c5042e0e+0x4e>
80000864: a009         	j	0x80000866 <core::ptr::copy_nonoverlapping::precondition_check::hb701bd79c5042e0e+0x4c>
80000866: a029         	j	0x80000870 <core::ptr::copy_nonoverlapping::precondition_check::hb701bd79c5042e0e+0x56>
80000868: 6502         	ld	a0, 0x0(sp)
8000086a: 8905         	andi	a0, a0, 0x1
8000086c: e511         	bnez	a0, 0x80000878 <core::ptr::copy_nonoverlapping::precondition_check::hb701bd79c5042e0e+0x5e>
8000086e: a011         	j	0x80000872 <core::ptr::copy_nonoverlapping::precondition_check::hb701bd79c5042e0e+0x58>
80000870: a831         	j	0x8000088c <core::ptr::copy_nonoverlapping::precondition_check::hb701bd79c5042e0e+0x72>
80000872: 7542         	ld	a0, 0x30(sp)
80000874: e119         	bnez	a0, 0x8000087a <core::ptr::copy_nonoverlapping::precondition_check::hb701bd79c5042e0e+0x60>
80000876: bfed         	j	0x80000870 <core::ptr::copy_nonoverlapping::precondition_check::hb701bd79c5042e0e+0x56>
80000878: a009         	j	0x8000087a <core::ptr::copy_nonoverlapping::precondition_check::hb701bd79c5042e0e+0x60>
8000087a: 65e2         	ld	a1, 0x18(sp)
8000087c: 7522         	ld	a0, 0x28(sp)
8000087e: f8aa         	sd	a0, 0x70(sp)
80000880: 00000097     	auipc	ra, 0x0
80000884: ba8080e7     	jalr	-0x458(ra) <core::ptr::const_ptr::_$LT$impl$u20$$BP$const$u20$T$GT$::is_aligned_to::h6fcd483f3e036159>
80000888: e501         	bnez	a0, 0x80000890 <core::ptr::copy_nonoverlapping::precondition_check::hb701bd79c5042e0e+0x76>
8000088a: a011         	j	0x8000088e <core::ptr::copy_nonoverlapping::precondition_check::hb701bd79c5042e0e+0x74>
8000088c: a035         	j	0x800008b8 <core::ptr::copy_nonoverlapping::precondition_check::hb701bd79c5042e0e+0x9e>
8000088e: a031         	j	0x8000089a <core::ptr::copy_nonoverlapping::precondition_check::hb701bd79c5042e0e+0x80>
80000890: 03f14503     	lbu	a0, 0x3f(sp)
80000894: 8905         	andi	a0, a0, 0x1
80000896: e511         	bnez	a0, 0x800008a2 <core::ptr::copy_nonoverlapping::precondition_check::hb701bd79c5042e0e+0x88>
80000898: a011         	j	0x8000089c <core::ptr::copy_nonoverlapping::precondition_check::hb701bd79c5042e0e+0x82>
8000089a: bfcd         	j	0x8000088c <core::ptr::copy_nonoverlapping::precondition_check::hb701bd79c5042e0e+0x72>
8000089c: 7522         	ld	a0, 0x28(sp)
8000089e: e119         	bnez	a0, 0x800008a4 <core::ptr::copy_nonoverlapping::precondition_check::hb701bd79c5042e0e+0x8a>
800008a0: bfed         	j	0x8000089a <core::ptr::copy_nonoverlapping::precondition_check::hb701bd79c5042e0e+0x80>
800008a2: a009         	j	0x800008a4 <core::ptr::copy_nonoverlapping::precondition_check::hb701bd79c5042e0e+0x8a>
800008a4: 66c2         	ld	a3, 0x10(sp)
800008a6: 7602         	ld	a2, 0x20(sp)
800008a8: 75a2         	ld	a1, 0x28(sp)
800008aa: 7542         	ld	a0, 0x30(sp)
800008ac: 00000097     	auipc	ra, 0x0
800008b0: 8de080e7     	jalr	-0x722(ra) <core::ub_checks::maybe_is_nonoverlapping::runtime::hce93b31132c01a9c>
800008b4: e115         	bnez	a0, 0x800008d8 <.Lpcrel_hi3+0x1e>
800008b6: a009         	j	0x800008b8 <core::ptr::copy_nonoverlapping::precondition_check::hb701bd79c5042e0e+0x9e>
800008b8: 66a2         	ld	a3, 0x8(sp)

00000000800008ba <.Lpcrel_hi3>:
800008ba: 00006517     	auipc	a0, 0x6
800008be: 35c50513     	addi	a0, a0, 0x35c
800008c2: fcaa         	sd	a0, 0x78(sp)
800008c4: 11b00593     	li	a1, 0x11b
800008c8: e12e         	sd	a1, 0x80(sp)
800008ca: 23700593     	li	a1, 0x237
800008ce: 4601         	li	a2, 0x0
800008d0: 00005097     	auipc	ra, 0x5
800008d4: 476080e7     	jalr	0x476(ra) <core::panicking::panic_nounwind_fmt::h2e018e50a8d3bc73>
800008d8: 60aa         	ld	ra, 0x88(sp)
800008da: 6149         	addi	sp, sp, 0x90
800008dc: 8082         	ret

00000000800008de <_$LT$usize$u20$as$u20$core..iter..range..Step$GT$::forward_unchecked::h555c2e2ac94d575c>:
800008de: 7179         	addi	sp, sp, -0x30
800008e0: f406         	sd	ra, 0x28(sp)
800008e2: e42e         	sd	a1, 0x8(sp)
800008e4: e82a         	sd	a0, 0x10(sp)
800008e6: ec2a         	sd	a0, 0x18(sp)
800008e8: f02e         	sd	a1, 0x20(sp)
800008ea: a009         	j	0x800008ec <_$LT$usize$u20$as$u20$core..iter..range..Step$GT$::forward_unchecked::h555c2e2ac94d575c+0xe>
800008ec: 65a2         	ld	a1, 0x8(sp)
800008ee: 6542         	ld	a0, 0x10(sp)

00000000800008f0 <.Lpcrel_hi0>:
800008f0: 00006617     	auipc	a2, 0x6
800008f4: 44860613     	addi	a2, a2, 0x448
800008f8: 00000097     	auipc	ra, 0x0
800008fc: 084080e7     	jalr	0x84(ra) <core::num::_$LT$impl$u20$usize$GT$::unchecked_add::precondition_check::he910f430ddef667b>
80000900: a009         	j	0x80000902 <.Lpcrel_hi0+0x12>
80000902: 6542         	ld	a0, 0x10(sp)
80000904: 65a2         	ld	a1, 0x8(sp)
80000906: 952e         	add	a0, a0, a1
80000908: 70a2         	ld	ra, 0x28(sp)
8000090a: 6145         	addi	sp, sp, 0x30
8000090c: 8082         	ret

000000008000090e <core::iter::range::_$LT$impl$u20$core..iter..traits..iterator..Iterator$u20$for$u20$core..ops..range..Range$LT$A$GT$$GT$::next::he20788f8e9740484>:
8000090e: 1141         	addi	sp, sp, -0x10
80000910: e406         	sd	ra, 0x8(sp)
80000912: e02a         	sd	a0, 0x0(sp)
80000914: 00000097     	auipc	ra, 0x0
80000918: 018080e7     	jalr	0x18(ra) <_$LT$core..ops..range..Range$LT$T$GT$$u20$as$u20$core..iter..range..RangeIteratorImpl$GT$::spec_next::h9764ca4341f23220>
8000091c: 60a2         	ld	ra, 0x8(sp)
8000091e: 0141         	addi	sp, sp, 0x10
80000920: 8082         	ret

0000000080000922 <_$LT$I$u20$as$u20$core..iter..traits..collect..IntoIterator$GT$::into_iter::h5822f301be3c3603>:
80000922: 1141         	addi	sp, sp, -0x10
80000924: e02a         	sd	a0, 0x0(sp)
80000926: e42e         	sd	a1, 0x8(sp)
80000928: 0141         	addi	sp, sp, 0x10
8000092a: 8082         	ret

000000008000092c <_$LT$core..ops..range..Range$LT$T$GT$$u20$as$u20$core..iter..range..RangeIteratorImpl$GT$::spec_next::h9764ca4341f23220>:
8000092c: 715d         	addi	sp, sp, -0x50
8000092e: e486         	sd	ra, 0x48(sp)
80000930: 85aa         	mv	a1, a0
80000932: e82e         	sd	a1, 0x10(sp)
80000934: f42e         	sd	a1, 0x28(sp)
80000936: 00858513     	addi	a0, a1, 0x8
8000093a: fc2e         	sd	a1, 0x38(sp)
8000093c: e0aa         	sd	a0, 0x40(sp)
8000093e: 6188         	ld	a0, 0x0(a1)
80000940: 658c         	ld	a1, 0x8(a1)
80000942: 00b56663     	bltu	a0, a1, 0x8000094e <_$LT$core..ops..range..Range$LT$T$GT$$u20$as$u20$core..iter..range..RangeIteratorImpl$GT$::spec_next::h9764ca4341f23220+0x22>
80000946: a009         	j	0x80000948 <_$LT$core..ops..range..Range$LT$T$GT$$u20$as$u20$core..iter..range..RangeIteratorImpl$GT$::spec_next::h9764ca4341f23220+0x1c>
80000948: 4501         	li	a0, 0x0
8000094a: ec2a         	sd	a0, 0x18(sp)
8000094c: a01d         	j	0x80000972 <_$LT$core..ops..range..Range$LT$T$GT$$u20$as$u20$core..iter..range..RangeIteratorImpl$GT$::spec_next::h9764ca4341f23220+0x46>
8000094e: 6542         	ld	a0, 0x10(sp)
80000950: 6108         	ld	a0, 0x0(a0)
80000952: e02a         	sd	a0, 0x0(sp)
80000954: f82a         	sd	a0, 0x30(sp)
80000956: 4585         	li	a1, 0x1
80000958: e42e         	sd	a1, 0x8(sp)
8000095a: 00000097     	auipc	ra, 0x0
8000095e: f84080e7     	jalr	-0x7c(ra) <_$LT$usize$u20$as$u20$core..iter..range..Step$GT$::forward_unchecked::h555c2e2ac94d575c>
80000962: 66c2         	ld	a3, 0x10(sp)
80000964: 6582         	ld	a1, 0x0(sp)
80000966: 862a         	mv	a2, a0
80000968: 6522         	ld	a0, 0x8(sp)
8000096a: e290         	sd	a2, 0x0(a3)
8000096c: f02e         	sd	a1, 0x20(sp)
8000096e: ec2a         	sd	a0, 0x18(sp)
80000970: a009         	j	0x80000972 <_$LT$core..ops..range..Range$LT$T$GT$$u20$as$u20$core..iter..range..RangeIteratorImpl$GT$::spec_next::h9764ca4341f23220+0x46>
80000972: 6562         	ld	a0, 0x18(sp)
80000974: 7582         	ld	a1, 0x20(sp)
80000976: 60a6         	ld	ra, 0x48(sp)
80000978: 6161         	addi	sp, sp, 0x50
8000097a: 8082         	ret

000000008000097c <core::num::_$LT$impl$u20$usize$GT$::unchecked_add::precondition_check::he910f430ddef667b>:
8000097c: 7179         	addi	sp, sp, -0x30
8000097e: e032         	sd	a2, 0x0(sp)
80000980: e42e         	sd	a1, 0x8(sp)
80000982: 85aa         	mv	a1, a0
80000984: 6522         	ld	a0, 0x8(sp)
80000986: e82e         	sd	a1, 0x10(sp)
80000988: ec2a         	sd	a0, 0x18(sp)
8000098a: 952e         	add	a0, a0, a1
8000098c: 00b56563     	bltu	a0, a1, 0x80000996 <core::num::_$LT$impl$u20$usize$GT$::unchecked_add::precondition_check::he910f430ddef667b+0x1a>
80000990: a009         	j	0x80000992 <core::num::_$LT$impl$u20$usize$GT$::unchecked_add::precondition_check::he910f430ddef667b+0x16>
80000992: 6145         	addi	sp, sp, 0x30
80000994: 8082         	ret
80000996: 6682         	ld	a3, 0x0(sp)

0000000080000998 <.Lpcrel_hi0>:
80000998: 00006517     	auipc	a0, 0x6
8000099c: 3b850513     	addi	a0, a0, 0x3b8
800009a0: f02a         	sd	a0, 0x20(sp)
800009a2: 0ba00593     	li	a1, 0xba
800009a6: f42e         	sd	a1, 0x28(sp)
800009a8: 17500593     	li	a1, 0x175
800009ac: 4601         	li	a2, 0x0
800009ae: 00005097     	auipc	ra, 0x5
800009b2: 398080e7     	jalr	0x398(ra) <core::panicking::panic_nounwind_fmt::h2e018e50a8d3bc73>

00000000800009b6 <_$LT$core..str..iter..Bytes$u20$as$u20$core..iter..traits..iterator..Iterator$GT$::next::h93b04a4e13a8e085>:
800009b6: 7179         	addi	sp, sp, -0x30
800009b8: f406         	sd	ra, 0x28(sp)
800009ba: ec2a         	sd	a0, 0x18(sp)
800009bc: 00000097     	auipc	ra, 0x0
800009c0: 25a080e7     	jalr	0x25a(ra) <_$LT$core..slice..iter..Iter$LT$T$GT$$u20$as$u20$core..iter..traits..iterator..Iterator$GT$::next::h1251594a6f590c48>
800009c4: e82a         	sd	a0, 0x10(sp)
800009c6: 6542         	ld	a0, 0x10(sp)
800009c8: cd09         	beqz	a0, 0x800009e2 <.Lpcrel_hi0>
800009ca: a009         	j	0x800009cc <_$LT$core..str..iter..Bytes$u20$as$u20$core..iter..traits..iterator..Iterator$GT$::next::h93b04a4e13a8e085+0x16>
800009cc: 6542         	ld	a0, 0x10(sp)
800009ce: 00054503     	lbu	a0, 0x0(a0)
800009d2: 02a103a3     	sb	a0, 0x27(sp)
800009d6: 00a107a3     	sb	a0, 0xf(sp)
800009da: 4505         	li	a0, 0x1
800009dc: 00a10723     	sb	a0, 0xe(sp)
800009e0: a831         	j	0x800009fc <.Lpcrel_hi0+0x1a>

00000000800009e2 <.Lpcrel_hi0>:
800009e2: 00006517     	auipc	a0, 0x6
800009e6: 42850513     	addi	a0, a0, 0x428
800009ea: 00054583     	lbu	a1, 0x0(a0)
800009ee: 00154503     	lbu	a0, 0x1(a0)
800009f2: 00b10723     	sb	a1, 0xe(sp)
800009f6: 00a107a3     	sb	a0, 0xf(sp)
800009fa: a009         	j	0x800009fc <.Lpcrel_hi0+0x1a>
800009fc: 00e14503     	lbu	a0, 0xe(sp)
80000a00: 00f14583     	lbu	a1, 0xf(sp)
80000a04: 70a2         	ld	ra, 0x28(sp)
80000a06: 6145         	addi	sp, sp, 0x30
80000a08: 8082         	ret

0000000080000a0a <_$LT$core..result..Result$LT$T$C$F$GT$$u20$as$u20$core..ops..try_trait..FromResidual$LT$core..result..Result$LT$core..convert..Infallible$C$E$GT$$GT$$GT$::from_residual::h83ebc86119b825d8>:
80000a0a: 1141         	addi	sp, sp, -0x10
80000a0c: 4505         	li	a0, 0x1
80000a0e: 0141         	addi	sp, sp, 0x10
80000a10: 8082         	ret

0000000080000a12 <_$LT$core..result..Result$LT$T$C$E$GT$$u20$as$u20$core..ops..try_trait..Try$GT$::branch::h2b255c49348333a2>:
80000a12: 1141         	addi	sp, sp, -0x10
80000a14: 00a10623     	sb	a0, 0xc(sp)
80000a18: 00c14503     	lbu	a0, 0xc(sp)
80000a1c: 8905         	andi	a0, a0, 0x1
80000a1e: c511         	beqz	a0, 0x80000a2a <_$LT$core..result..Result$LT$T$C$E$GT$$u20$as$u20$core..ops..try_trait..Try$GT$::branch::h2b255c49348333a2+0x18>
80000a20: a009         	j	0x80000a22 <_$LT$core..result..Result$LT$T$C$E$GT$$u20$as$u20$core..ops..try_trait..Try$GT$::branch::h2b255c49348333a2+0x10>
80000a22: 4505         	li	a0, 0x1
80000a24: 00a106a3     	sb	a0, 0xd(sp)
80000a28: a029         	j	0x80000a32 <_$LT$core..result..Result$LT$T$C$E$GT$$u20$as$u20$core..ops..try_trait..Try$GT$::branch::h2b255c49348333a2+0x20>
80000a2a: 4501         	li	a0, 0x0
80000a2c: 00a106a3     	sb	a0, 0xd(sp)
80000a30: a009         	j	0x80000a32 <_$LT$core..result..Result$LT$T$C$E$GT$$u20$as$u20$core..ops..try_trait..Try$GT$::branch::h2b255c49348333a2+0x20>
80000a32: 00d14503     	lbu	a0, 0xd(sp)
80000a36: 0141         	addi	sp, sp, 0x10
80000a38: 8082         	ret

0000000080000a3a <core::fmt::Write::write_char::h6b794886eba9f0b3>:
80000a3a: 711d         	addi	sp, sp, -0x60
80000a3c: ec86         	sd	ra, 0x58(sp)
80000a3e: e42e         	sd	a1, 0x8(sp)
80000a40: 85aa         	mv	a1, a0
80000a42: 6522         	ld	a0, 0x8(sp)
80000a44: e82e         	sd	a1, 0x10(sp)
80000a46: f42e         	sd	a1, 0x28(sp)
80000a48: da2a         	sw	a0, 0x34(sp)
80000a4a: 4581         	li	a1, 0x0
80000a4c: d22e         	sw	a1, 0x24(sp)
80000a4e: 104c         	addi	a1, sp, 0x24
80000a50: fc2e         	sd	a1, 0x38(sp)
80000a52: 4611         	li	a2, 0x4
80000a54: e0b2         	sd	a2, 0x40(sp)
80000a56: 00000097     	auipc	ra, 0x0
80000a5a: a74080e7     	jalr	-0x58c(ra) <core::char::methods::encode_utf8_raw::he4700f13d35977e2>
80000a5e: 862a         	mv	a2, a0
80000a60: 6542         	ld	a0, 0x10(sp)
80000a62: ec32         	sd	a2, 0x18(sp)
80000a64: 862e         	mv	a2, a1
80000a66: 65e2         	ld	a1, 0x18(sp)
80000a68: e4ae         	sd	a1, 0x48(sp)
80000a6a: e8b2         	sd	a2, 0x50(sp)
80000a6c: 00000097     	auipc	ra, 0x0
80000a70: 388080e7     	jalr	0x388(ra) <_$LT$lab7_kernel_task1..console..KernelConsole$u20$as$u20$core..fmt..Write$GT$::write_str::h04cf8a2087466644>
80000a74: 60e6         	ld	ra, 0x58(sp)
80000a76: 6125         	addi	sp, sp, 0x60
80000a78: 8082         	ret

0000000080000a7a <core::fmt::Write::write_fmt::h429107e03c648885>:
80000a7a: 1101         	addi	sp, sp, -0x20
80000a7c: ec06         	sd	ra, 0x18(sp)
80000a7e: e02a         	sd	a0, 0x0(sp)
80000a80: e42e         	sd	a1, 0x8(sp)
80000a82: e832         	sd	a2, 0x10(sp)
80000a84: 00000097     	auipc	ra, 0x0
80000a88: 00e080e7     	jalr	0xe(ra) <_$LT$$RF$mut$u20$W$u20$as$u20$core..fmt..Write..write_fmt..SpecWriteFmt$GT$::spec_write_fmt::h00477950c491fb02>
80000a8c: 60e2         	ld	ra, 0x18(sp)
80000a8e: 6105         	addi	sp, sp, 0x20
80000a90: 8082         	ret

0000000080000a92 <_$LT$$RF$mut$u20$W$u20$as$u20$core..fmt..Write..write_fmt..SpecWriteFmt$GT$::spec_write_fmt::h00477950c491fb02>:
80000a92: 715d         	addi	sp, sp, -0x50
80000a94: e486         	sd	ra, 0x48(sp)
80000a96: e02a         	sd	a0, 0x0(sp)
80000a98: e42e         	sd	a1, 0x8(sp)
80000a9a: e832         	sd	a2, 0x10(sp)
80000a9c: f82a         	sd	a0, 0x30(sp)
80000a9e: 0028         	addi	a0, sp, 0x8
80000aa0: 00000097     	auipc	ra, 0x0
80000aa4: 07e080e7     	jalr	0x7e(ra) <core::fmt::Arguments::as_statically_known_str::hdb6153fba5f05788>
80000aa8: f02a         	sd	a0, 0x20(sp)
80000aaa: f42e         	sd	a1, 0x28(sp)
80000aac: 7502         	ld	a0, 0x20(sp)
80000aae: cd11         	beqz	a0, 0x80000aca <_$LT$$RF$mut$u20$W$u20$as$u20$core..fmt..Write..write_fmt..SpecWriteFmt$GT$::spec_write_fmt::h00477950c491fb02+0x38>
80000ab0: a009         	j	0x80000ab2 <_$LT$$RF$mut$u20$W$u20$as$u20$core..fmt..Write..write_fmt..SpecWriteFmt$GT$::spec_write_fmt::h00477950c491fb02+0x20>
80000ab2: 6502         	ld	a0, 0x0(sp)
80000ab4: 7582         	ld	a1, 0x20(sp)
80000ab6: 7622         	ld	a2, 0x28(sp)
80000ab8: fc2e         	sd	a1, 0x38(sp)
80000aba: e0b2         	sd	a2, 0x40(sp)
80000abc: 00000097     	auipc	ra, 0x0
80000ac0: 338080e7     	jalr	0x338(ra) <_$LT$lab7_kernel_task1..console..KernelConsole$u20$as$u20$core..fmt..Write$GT$::write_str::h04cf8a2087466644>
80000ac4: 00a10fa3     	sb	a0, 0x1f(sp)
80000ac8: a839         	j	0x80000ae6 <.Lpcrel_hi0+0x16>
80000aca: 6502         	ld	a0, 0x0(sp)
80000acc: 6622         	ld	a2, 0x8(sp)
80000ace: 66c2         	ld	a3, 0x10(sp)

0000000080000ad0 <.Lpcrel_hi0>:
80000ad0: 00006597     	auipc	a1, 0x6
80000ad4: 34058593     	addi	a1, a1, 0x340
80000ad8: 00005097     	auipc	ra, 0x5
80000adc: 9c2080e7     	jalr	-0x63e(ra) <core::fmt::write::hfd17e9e8e823b619>
80000ae0: 00a10fa3     	sb	a0, 0x1f(sp)
80000ae4: a009         	j	0x80000ae6 <.Lpcrel_hi0+0x16>
80000ae6: 01f14503     	lbu	a0, 0x1f(sp)
80000aea: 60a6         	ld	ra, 0x48(sp)
80000aec: 6161         	addi	sp, sp, 0x50
80000aee: 8082         	ret

0000000080000af0 <core::slice::raw::from_raw_parts::hbbde328e39f19402>:
80000af0: 7179         	addi	sp, sp, -0x30
80000af2: f406         	sd	ra, 0x28(sp)
80000af4: e032         	sd	a2, 0x0(sp)
80000af6: e42e         	sd	a1, 0x8(sp)
80000af8: e82a         	sd	a0, 0x10(sp)
80000afa: ec2a         	sd	a0, 0x18(sp)
80000afc: f02e         	sd	a1, 0x20(sp)
80000afe: a009         	j	0x80000b00 <core::slice::raw::from_raw_parts::hbbde328e39f19402+0x10>
80000b00: 6702         	ld	a4, 0x0(sp)
80000b02: 66a2         	ld	a3, 0x8(sp)
80000b04: 6542         	ld	a0, 0x10(sp)
80000b06: 4605         	li	a2, 0x1
80000b08: 85b2         	mv	a1, a2
80000b0a: fffff097     	auipc	ra, 0xfffff
80000b0e: 7da080e7     	jalr	0x7da(ra) <core::slice::raw::from_raw_parts::precondition_check::hee1fd7d55a467e31>
80000b12: a009         	j	0x80000b14 <core::slice::raw::from_raw_parts::hbbde328e39f19402+0x24>
80000b14: 65a2         	ld	a1, 0x8(sp)
80000b16: 6542         	ld	a0, 0x10(sp)
80000b18: 70a2         	ld	ra, 0x28(sp)
80000b1a: 6145         	addi	sp, sp, 0x30
80000b1c: 8082         	ret

0000000080000b1e <core::fmt::Arguments::as_statically_known_str::hdb6153fba5f05788>:
80000b1e: 7119         	addi	sp, sp, -0x80
80000b20: fc86         	sd	ra, 0x78(sp)
80000b22: ec2a         	sd	a0, 0x18(sp)
80000b24: fc2a         	sd	a0, 0x38(sp)
80000b26: 6508         	ld	a0, 0x8(a0)
80000b28: f02a         	sd	a0, 0x20(sp)
80000b2a: e0aa         	sd	a0, 0x40(sp)
80000b2c: 8905         	andi	a0, a0, 0x1
80000b2e: cd01         	beqz	a0, 0x80000b46 <.Lpcrel_hi0>
80000b30: a009         	j	0x80000b32 <core::fmt::Arguments::as_statically_known_str::hdb6153fba5f05788+0x14>
80000b32: 7502         	ld	a0, 0x20(sp)
80000b34: 65e2         	ld	a1, 0x18(sp)
80000b36: 618c         	ld	a1, 0x0(a1)
80000b38: e42e         	sd	a1, 0x8(sp)
80000b3a: e4ae         	sd	a1, 0x48(sp)
80000b3c: e8ae         	sd	a1, 0x50(sp)
80000b3e: 8105         	srli	a0, a0, 0x1
80000b40: e82a         	sd	a0, 0x10(sp)
80000b42: ecaa         	sd	a0, 0x58(sp)
80000b44: a811         	j	0x80000b58 <.Lpcrel_hi0+0x12>

0000000080000b46 <.Lpcrel_hi0>:
80000b46: 00006517     	auipc	a0, 0x6
80000b4a: 32250513     	addi	a0, a0, 0x322
80000b4e: 610c         	ld	a1, 0x0(a0)
80000b50: 6508         	ld	a0, 0x8(a0)
80000b52: f42e         	sd	a1, 0x28(sp)
80000b54: f82a         	sd	a0, 0x30(sp)
80000b56: a02d         	j	0x80000b80 <.Lpcrel_hi1+0x24>
80000b58: 66c2         	ld	a3, 0x10(sp)
80000b5a: 6522         	ld	a0, 0x8(sp)

0000000080000b5c <.Lpcrel_hi1>:
80000b5c: 00006597     	auipc	a1, 0x6
80000b60: 2e458713     	addi	a4, a1, 0x2e4
80000b64: 4605         	li	a2, 0x1
80000b66: 85b2         	mv	a1, a2
80000b68: fffff097     	auipc	ra, 0xfffff
80000b6c: 77c080e7     	jalr	0x77c(ra) <core::slice::raw::from_raw_parts::precondition_check::hee1fd7d55a467e31>
80000b70: a009         	j	0x80000b72 <.Lpcrel_hi1+0x16>
80000b72: 6542         	ld	a0, 0x10(sp)
80000b74: 65a2         	ld	a1, 0x8(sp)
80000b76: f0ae         	sd	a1, 0x60(sp)
80000b78: f4aa         	sd	a0, 0x68(sp)
80000b7a: f42e         	sd	a1, 0x28(sp)
80000b7c: f82a         	sd	a0, 0x30(sp)
80000b7e: a009         	j	0x80000b80 <.Lpcrel_hi1+0x24>
80000b80: 4501         	li	a0, 0x0
80000b82: 06a10ba3     	sb	a0, 0x77(sp)
80000b86: 07714503     	lbu	a0, 0x77(sp)
80000b8a: 8905         	andi	a0, a0, 0x1
80000b8c: e919         	bnez	a0, 0x80000ba2 <.Lpcrel_hi2+0x12>
80000b8e: a009         	j	0x80000b90 <.Lpcrel_hi2>

0000000080000b90 <.Lpcrel_hi2>:
80000b90: 00006517     	auipc	a0, 0x6
80000b94: 2d850513     	addi	a0, a0, 0x2d8
80000b98: 610c         	ld	a1, 0x0(a0)
80000b9a: 6508         	ld	a0, 0x8(a0)
80000b9c: f42e         	sd	a1, 0x28(sp)
80000b9e: f82a         	sd	a0, 0x30(sp)
80000ba0: a011         	j	0x80000ba4 <.Lpcrel_hi2+0x14>
80000ba2: a009         	j	0x80000ba4 <.Lpcrel_hi2+0x14>
80000ba4: 7522         	ld	a0, 0x28(sp)
80000ba6: 75c2         	ld	a1, 0x30(sp)
80000ba8: 70e6         	ld	ra, 0x78(sp)
80000baa: 6109         	addi	sp, sp, 0x80
80000bac: 8082         	ret

0000000080000bae <core::fmt::Arguments::from_str::h75d1bb1c6aa86bac>:
80000bae: 1141         	addi	sp, sp, -0x10
80000bb0: e02a         	sd	a0, 0x0(sp)
80000bb2: e42e         	sd	a1, 0x8(sp)
80000bb4: 0586         	slli	a1, a1, 0x1
80000bb6: 0585         	addi	a1, a1, 0x1
80000bb8: 0141         	addi	sp, sp, 0x10
80000bba: 8082         	ret

0000000080000bbc <core::fmt::Formatter::write_fmt::h4f9530dd08fe60da>:
80000bbc: 715d         	addi	sp, sp, -0x50
80000bbe: e486         	sd	ra, 0x48(sp)
80000bc0: e02a         	sd	a0, 0x0(sp)
80000bc2: e42e         	sd	a1, 0x8(sp)
80000bc4: e832         	sd	a2, 0x10(sp)
80000bc6: f82a         	sd	a0, 0x30(sp)
80000bc8: 0028         	addi	a0, sp, 0x8
80000bca: 00000097     	auipc	ra, 0x0
80000bce: f54080e7     	jalr	-0xac(ra) <core::fmt::Arguments::as_statically_known_str::hdb6153fba5f05788>
80000bd2: f02a         	sd	a0, 0x20(sp)
80000bd4: f42e         	sd	a1, 0x28(sp)
80000bd6: 7502         	ld	a0, 0x20(sp)
80000bd8: cd11         	beqz	a0, 0x80000bf4 <core::fmt::Formatter::write_fmt::h4f9530dd08fe60da+0x38>
80000bda: a009         	j	0x80000bdc <core::fmt::Formatter::write_fmt::h4f9530dd08fe60da+0x20>
80000bdc: 6682         	ld	a3, 0x0(sp)
80000bde: 7582         	ld	a1, 0x20(sp)
80000be0: 7622         	ld	a2, 0x28(sp)
80000be2: fc2e         	sd	a1, 0x38(sp)
80000be4: e0b2         	sd	a2, 0x40(sp)
80000be6: 6288         	ld	a0, 0x0(a3)
80000be8: 6694         	ld	a3, 0x8(a3)
80000bea: 6e94         	ld	a3, 0x18(a3)
80000bec: 9682         	jalr	a3
80000bee: 00a10fa3     	sb	a0, 0x1f(sp)
80000bf2: a829         	j	0x80000c0c <core::fmt::Formatter::write_fmt::h4f9530dd08fe60da+0x50>
80000bf4: 6582         	ld	a1, 0x0(sp)
80000bf6: 6188         	ld	a0, 0x0(a1)
80000bf8: 658c         	ld	a1, 0x8(a1)
80000bfa: 6622         	ld	a2, 0x8(sp)
80000bfc: 66c2         	ld	a3, 0x10(sp)
80000bfe: 00005097     	auipc	ra, 0x5
80000c02: 89c080e7     	jalr	-0x764(ra) <core::fmt::write::hfd17e9e8e823b619>
80000c06: 00a10fa3     	sb	a0, 0x1f(sp)
80000c0a: a009         	j	0x80000c0c <core::fmt::Formatter::write_fmt::h4f9530dd08fe60da+0x50>
80000c0c: 01f14503     	lbu	a0, 0x1f(sp)
80000c10: 60a6         	ld	ra, 0x48(sp)
80000c12: 6161         	addi	sp, sp, 0x50
80000c14: 8082         	ret

0000000080000c16 <_$LT$core..slice..iter..Iter$LT$T$GT$$u20$as$u20$core..iter..traits..iterator..Iterator$GT$::next::h1251594a6f590c48>:
80000c16: 715d         	addi	sp, sp, -0x50
80000c18: e42a         	sd	a0, 0x8(sp)
80000c1a: f42a         	sd	a0, 0x28(sp)
80000c1c: 4585         	li	a1, 0x1
80000c1e: f82e         	sd	a1, 0x30(sp)
80000c20: fc2e         	sd	a1, 0x38(sp)
80000c22: 610c         	ld	a1, 0x0(a0)
80000c24: e82e         	sd	a1, 0x10(sp)
80000c26: e0ae         	sd	a1, 0x40(sp)
80000c28: 6508         	ld	a0, 0x8(a0)
80000c2a: ec2a         	sd	a0, 0x18(sp)
80000c2c: e4aa         	sd	a0, 0x48(sp)
80000c2e: a009         	j	0x80000c30 <_$LT$core..slice..iter..Iter$LT$T$GT$$u20$as$u20$core..iter..traits..iterator..Iterator$GT$::next::h1251594a6f590c48+0x1a>
80000c30: 6542         	ld	a0, 0x10(sp)
80000c32: 65e2         	ld	a1, 0x18(sp)
80000c34: 00b50863     	beq	a0, a1, 0x80000c44 <_$LT$core..slice..iter..Iter$LT$T$GT$$u20$as$u20$core..iter..traits..iterator..Iterator$GT$::next::h1251594a6f590c48+0x2e>
80000c38: a009         	j	0x80000c3a <_$LT$core..slice..iter..Iter$LT$T$GT$$u20$as$u20$core..iter..traits..iterator..Iterator$GT$::next::h1251594a6f590c48+0x24>
80000c3a: 65a2         	ld	a1, 0x8(sp)
80000c3c: 6542         	ld	a0, 0x10(sp)
80000c3e: 0505         	addi	a0, a0, 0x1
80000c40: e188         	sd	a0, 0x0(a1)
80000c42: a021         	j	0x80000c4a <_$LT$core..slice..iter..Iter$LT$T$GT$$u20$as$u20$core..iter..traits..iterator..Iterator$GT$::next::h1251594a6f590c48+0x34>
80000c44: 4501         	li	a0, 0x0
80000c46: f02a         	sd	a0, 0x20(sp)
80000c48: a039         	j	0x80000c56 <_$LT$core..slice..iter..Iter$LT$T$GT$$u20$as$u20$core..iter..traits..iterator..Iterator$GT$::next::h1251594a6f590c48+0x40>
80000c4a: 6542         	ld	a0, 0x10(sp)
80000c4c: f02a         	sd	a0, 0x20(sp)
80000c4e: a009         	j	0x80000c50 <_$LT$core..slice..iter..Iter$LT$T$GT$$u20$as$u20$core..iter..traits..iterator..Iterator$GT$::next::h1251594a6f590c48+0x3a>
80000c50: 7502         	ld	a0, 0x20(sp)
80000c52: 6161         	addi	sp, sp, 0x50
80000c54: 8082         	ret
80000c56: bfed         	j	0x80000c50 <_$LT$core..slice..iter..Iter$LT$T$GT$$u20$as$u20$core..iter..traits..iterator..Iterator$GT$::next::h1251594a6f590c48+0x3a>

0000000080000c58 <core::array::iter::iter_inner::PolymorphicIter$LT$$u5b$core..mem..maybe_uninit..MaybeUninit$LT$T$GT$$u5d$$GT$::next::hf33dc65704f0d5d4>:
80000c58: 7131         	addi	sp, sp, -0xc0
80000c5a: fd06         	sd	ra, 0xb8(sp)
80000c5c: ec2e         	sd	a1, 0x18(sp)
80000c5e: 85aa         	mv	a1, a0
80000c60: 6562         	ld	a0, 0x18(sp)
80000c62: f02e         	sd	a1, 0x20(sp)
80000c64: f0ae         	sd	a1, 0x60(sp)
80000c66: f4aa         	sd	a0, 0x68(sp)
80000c68: 4505         	li	a0, 0x1
80000c6a: f8aa         	sd	a0, 0x70(sp)
80000c6c: 6588         	ld	a0, 0x8(a1)
80000c6e: 618c         	ld	a1, 0x0(a1)
80000c70: 8d0d         	sub	a0, a0, a1
80000c72: e51d         	bnez	a0, 0x80000ca0 <.Lpcrel_hi0+0x26>
80000c74: a009         	j	0x80000c76 <core::array::iter::iter_inner::PolymorphicIter$LT$$u5b$core..mem..maybe_uninit..MaybeUninit$LT$T$GT$$u5d$$GT$::next::hf33dc65704f0d5d4+0x1e>
80000c76: 6562         	ld	a0, 0x18(sp)
80000c78: 7582         	ld	a1, 0x20(sp)

0000000080000c7a <.Lpcrel_hi0>:
80000c7a: 00006617     	auipc	a2, 0x6
80000c7e: 1ee60613     	addi	a2, a2, 0x1ee
80000c82: 6214         	ld	a3, 0x0(a2)
80000c84: 6610         	ld	a2, 0x8(a2)
80000c86: f836         	sd	a3, 0x30(sp)
80000c88: fc32         	sd	a2, 0x38(sp)
80000c8a: 05c1         	addi	a1, a1, 0x10
80000c8c: e0ae         	sd	a1, 0x40(sp)
80000c8e: e4aa         	sd	a0, 0x48(sp)
80000c90: 6586         	ld	a1, 0x40(sp)
80000c92: 6526         	ld	a0, 0x48(sp)
80000c94: e8ae         	sd	a1, 0x50(sp)
80000c96: ecaa         	sd	a0, 0x58(sp)
80000c98: 00110537     	lui	a0, 0x110
80000c9c: d62a         	sw	a0, 0x2c(sp)
80000c9e: a031         	j	0x80000caa <.Lpcrel_hi0+0x30>
80000ca0: 7502         	ld	a0, 0x20(sp)
80000ca2: 6108         	ld	a0, 0x0(a0)
80000ca4: e82a         	sd	a0, 0x10(sp)
80000ca6: fcaa         	sd	a0, 0x78(sp)
80000ca8: a029         	j	0x80000cb2 <.Lpcrel_hi0+0x38>
80000caa: 5532         	lw	a0, 0x2c(sp)
80000cac: 70ea         	ld	ra, 0xb8(sp)
80000cae: 6129         	addi	sp, sp, 0xc0
80000cb0: 8082         	ret
80000cb2: 6542         	ld	a0, 0x10(sp)

0000000080000cb4 <.Lpcrel_hi1>:
80000cb4: 00006597     	auipc	a1, 0x6
80000cb8: 1d458613     	addi	a2, a1, 0x1d4
80000cbc: 4585         	li	a1, 0x1
80000cbe: 00000097     	auipc	ra, 0x0
80000cc2: cbe080e7     	jalr	-0x342(ra) <core::num::_$LT$impl$u20$usize$GT$::unchecked_add::precondition_check::he910f430ddef667b>
80000cc6: a009         	j	0x80000cc8 <.Lpcrel_hi1+0x14>
80000cc8: 6562         	ld	a0, 0x18(sp)
80000cca: 7582         	ld	a1, 0x20(sp)
80000ccc: 6642         	ld	a2, 0x10(sp)
80000cce: 00160693     	addi	a3, a2, 0x1
80000cd2: e194         	sd	a3, 0x0(a1)
80000cd4: fc32         	sd	a2, 0x38(sp)
80000cd6: 4605         	li	a2, 0x1
80000cd8: f832         	sd	a2, 0x30(sp)
80000cda: 05c1         	addi	a1, a1, 0x10
80000cdc: e0ae         	sd	a1, 0x40(sp)
80000cde: e4aa         	sd	a0, 0x48(sp)
80000ce0: 6586         	ld	a1, 0x40(sp)
80000ce2: 6526         	ld	a0, 0x48(sp)
80000ce4: e8ae         	sd	a1, 0x50(sp)
80000ce6: ecaa         	sd	a0, 0x58(sp)
80000ce8: 7562         	ld	a0, 0x38(sp)
80000cea: e42a         	sd	a0, 0x8(sp)
80000cec: e12a         	sd	a0, 0x80(sp)
80000cee: 6586         	ld	a1, 0x40(sp)
80000cf0: 6526         	ld	a0, 0x48(sp)
80000cf2: e52e         	sd	a1, 0x88(sp)
80000cf4: e92a         	sd	a0, 0x90(sp)
80000cf6: 6586         	ld	a1, 0x40(sp)
80000cf8: 6526         	ld	a0, 0x48(sp)
80000cfa: ed2e         	sd	a1, 0x98(sp)
80000cfc: f12a         	sd	a0, 0xa0(sp)
80000cfe: a009         	j	0x80000d00 <.Lpcrel_hi1+0x4c>
80000d00: 6522         	ld	a0, 0x8(sp)
80000d02: 65a6         	ld	a1, 0x48(sp)

0000000080000d04 <.Lpcrel_hi2>:
80000d04: 00006617     	auipc	a2, 0x6
80000d08: 19c60613     	addi	a2, a2, 0x19c
80000d0c: 00000097     	auipc	ra, 0x0
80000d10: 9fe080e7     	jalr	-0x602(ra) <_$LT$usize$u20$as$u20$core..slice..index..SliceIndex$LT$$u5b$T$u5d$$GT$$GT$::get_unchecked::precondition_check::h1a0880c5182ab523>
80000d14: a009         	j	0x80000d16 <.Lpcrel_hi2+0x12>
80000d16: 65a2         	ld	a1, 0x8(sp)
80000d18: 6506         	ld	a0, 0x40(sp)
80000d1a: 058a         	slli	a1, a1, 0x2
80000d1c: 952e         	add	a0, a0, a1
80000d1e: f52a         	sd	a0, 0xa8(sp)
80000d20: f92a         	sd	a0, 0xb0(sp)
80000d22: 4108         	lw	a0, 0x0(a0)
80000d24: d62a         	sw	a0, 0x2c(sp)
80000d26: b751         	j	0x80000caa <.Lpcrel_hi0+0x30>

0000000080000d28 <lab7_kernel_task1::trap::init_machine_trap_vector::h6e312c418a7bded3>:
80000d28: 00000517     	auipc	a0, 0x0
80000d2c: 21850513     	addi	a0, a0, 0x218
80000d30: 30551073     	csrw	mtvec, a0
80000d34: 8082         	ret

0000000080000d36 <lab7_kernel_task1::trap::init_supervisor_trap_vector::hbd1df54451d22e14>:
80000d36: 00000517     	auipc	a0, 0x0
80000d3a: 2ba50513     	addi	a0, a0, 0x2ba
80000d3e: 10551073     	csrw	stvec, a0
80000d42: 8082         	ret

0000000080000d44 <lab7_kernel_task1::trap::TrapFrame::zeroed::h1f7331e6716eb185>:
80000d44: 85aa         	mv	a1, a0
80000d46: 4501         	li	a0, 0x0
80000d48: e188         	sd	a0, 0x0(a1)
80000d4a: e588         	sd	a0, 0x8(a1)
80000d4c: e988         	sd	a0, 0x10(a1)
80000d4e: ed88         	sd	a0, 0x18(a1)
80000d50: f188         	sd	a0, 0x20(a1)
80000d52: f588         	sd	a0, 0x28(a1)
80000d54: f988         	sd	a0, 0x30(a1)
80000d56: fd88         	sd	a0, 0x38(a1)
80000d58: e1a8         	sd	a0, 0x40(a1)
80000d5a: e5a8         	sd	a0, 0x48(a1)
80000d5c: e9a8         	sd	a0, 0x50(a1)
80000d5e: eda8         	sd	a0, 0x58(a1)
80000d60: f1a8         	sd	a0, 0x60(a1)
80000d62: f5a8         	sd	a0, 0x68(a1)
80000d64: f9a8         	sd	a0, 0x70(a1)
80000d66: fda8         	sd	a0, 0x78(a1)
80000d68: e1c8         	sd	a0, 0x80(a1)
80000d6a: e5c8         	sd	a0, 0x88(a1)
80000d6c: e9c8         	sd	a0, 0x90(a1)
80000d6e: edc8         	sd	a0, 0x98(a1)
80000d70: f1c8         	sd	a0, 0xa0(a1)
80000d72: f5c8         	sd	a0, 0xa8(a1)
80000d74: f9c8         	sd	a0, 0xb0(a1)
80000d76: fdc8         	sd	a0, 0xb8(a1)
80000d78: e1e8         	sd	a0, 0xc0(a1)
80000d7a: e5e8         	sd	a0, 0xc8(a1)
80000d7c: e9e8         	sd	a0, 0xd0(a1)
80000d7e: ede8         	sd	a0, 0xd8(a1)
80000d80: f1e8         	sd	a0, 0xe0(a1)
80000d82: f5e8         	sd	a0, 0xe8(a1)
80000d84: f9e8         	sd	a0, 0xf0(a1)
80000d86: fde8         	sd	a0, 0xf8(a1)
80000d88: 8082         	ret

0000000080000d8a <lab7_kernel_task1::console::write_byte::h8a1e7120012af035>:
80000d8a: 1101         	addi	sp, sp, -0x20
80000d8c: ec06         	sd	ra, 0x18(sp)
80000d8e: 85aa         	mv	a1, a0
80000d90: e42e         	sd	a1, 0x8(sp)
80000d92: 00a10ba3     	sb	a0, 0x17(sp)
80000d96: 45a9         	li	a1, 0xa
80000d98: 02b50363     	beq	a0, a1, 0x80000dbe <.Lpcrel_hi1>
80000d9c: a009         	j	0x80000d9e <lab7_kernel_task1::console::write_byte::h8a1e7120012af035+0x14>
80000d9e: 6522         	ld	a0, 0x8(sp)
80000da0: 0ff57593     	zext.b	a1, a0

0000000080000da4 <.Lpcrel_hi0>:
80000da4: 00006517     	auipc	a0, 0x6
80000da8: 12c50613     	addi	a2, a0, 0x12c
80000dac: 10000537     	lui	a0, 0x10000
80000db0: fffff097     	auipc	ra, 0xfffff
80000db4: 37a080e7     	jalr	0x37a(ra) <core::ptr::write_volatile::h0682dcaad04569f0>
80000db8: 60e2         	ld	ra, 0x18(sp)
80000dba: 6105         	addi	sp, sp, 0x20
80000dbc: 8082         	ret

0000000080000dbe <.Lpcrel_hi1>:
80000dbe: 00006517     	auipc	a0, 0x6
80000dc2: 0fa50613     	addi	a2, a0, 0xfa
80000dc6: 10000537     	lui	a0, 0x10000
80000dca: 45b5         	li	a1, 0xd
80000dcc: fffff097     	auipc	ra, 0xfffff
80000dd0: 35e080e7     	jalr	0x35e(ra) <core::ptr::write_volatile::h0682dcaad04569f0>
80000dd4: b7e9         	j	0x80000d9e <lab7_kernel_task1::console::write_byte::h8a1e7120012af035+0x14>

0000000080000dd6 <lab7_kernel_task1::console::print::h4532f48a1410ef53>:
80000dd6: 7179         	addi	sp, sp, -0x30
80000dd8: f406         	sd	ra, 0x28(sp)
80000dda: 862e         	mv	a2, a1
80000ddc: 85aa         	mv	a1, a0
80000dde: e82e         	sd	a1, 0x10(sp)
80000de0: ec32         	sd	a2, 0x18(sp)
80000de2: 00f10513     	addi	a0, sp, 0xf
80000de6: 00000097     	auipc	ra, 0x0
80000dea: c94080e7     	jalr	-0x36c(ra) <core::fmt::Write::write_fmt::h429107e03c648885>
80000dee: 70a2         	ld	ra, 0x28(sp)
80000df0: 6145         	addi	sp, sp, 0x30
80000df2: 8082         	ret

0000000080000df4 <_$LT$lab7_kernel_task1..console..KernelConsole$u20$as$u20$core..fmt..Write$GT$::write_str::h04cf8a2087466644>:
80000df4: 715d         	addi	sp, sp, -0x50
80000df6: e486         	sd	ra, 0x48(sp)
80000df8: e032         	sd	a2, 0x0(sp)
80000dfa: 862e         	mv	a2, a1
80000dfc: 6582         	ld	a1, 0x0(sp)
80000dfe: e432         	sd	a2, 0x8(sp)
80000e00: 862a         	mv	a2, a0
80000e02: 6522         	ld	a0, 0x8(sp)
80000e04: f432         	sd	a2, 0x28(sp)
80000e06: f82a         	sd	a0, 0x30(sp)
80000e08: fc2e         	sd	a1, 0x38(sp)
80000e0a: 00000097     	auipc	ra, 0x0
80000e0e: 932080e7     	jalr	-0x6ce(ra) <core::str::_$LT$impl$u20$str$GT$::bytes::h680ddacee7d932de>
80000e12: 00000097     	auipc	ra, 0x0
80000e16: 046080e7     	jalr	0x46(ra) <_$LT$I$u20$as$u20$core..iter..traits..collect..IntoIterator$GT$::into_iter::h51c80c3d21fd21fe>
80000e1a: e82a         	sd	a0, 0x10(sp)
80000e1c: ec2e         	sd	a1, 0x18(sp)
80000e1e: a009         	j	0x80000e20 <_$LT$lab7_kernel_task1..console..KernelConsole$u20$as$u20$core..fmt..Write$GT$::write_str::h04cf8a2087466644+0x2c>
80000e20: 0808         	addi	a0, sp, 0x10
80000e22: 00000097     	auipc	ra, 0x0
80000e26: b94080e7     	jalr	-0x46c(ra) <_$LT$core..str..iter..Bytes$u20$as$u20$core..iter..traits..iterator..Iterator$GT$::next::h93b04a4e13a8e085>
80000e2a: 8905         	andi	a0, a0, 0x1
80000e2c: 02a10323     	sb	a0, 0x26(sp)
80000e30: 02b103a3     	sb	a1, 0x27(sp)
80000e34: 02614503     	lbu	a0, 0x26(sp)
80000e38: 8905         	andi	a0, a0, 0x1
80000e3a: c919         	beqz	a0, 0x80000e50 <_$LT$lab7_kernel_task1..console..KernelConsole$u20$as$u20$core..fmt..Write$GT$::write_str::h04cf8a2087466644+0x5c>
80000e3c: a009         	j	0x80000e3e <_$LT$lab7_kernel_task1..console..KernelConsole$u20$as$u20$core..fmt..Write$GT$::write_str::h04cf8a2087466644+0x4a>
80000e3e: 02714503     	lbu	a0, 0x27(sp)
80000e42: 04a103a3     	sb	a0, 0x47(sp)
80000e46: 00000097     	auipc	ra, 0x0
80000e4a: f44080e7     	jalr	-0xbc(ra) <lab7_kernel_task1::console::write_byte::h8a1e7120012af035>
80000e4e: bfc9         	j	0x80000e20 <_$LT$lab7_kernel_task1..console..KernelConsole$u20$as$u20$core..fmt..Write$GT$::write_str::h04cf8a2087466644+0x2c>
80000e50: 4501         	li	a0, 0x0
80000e52: 60a6         	ld	ra, 0x48(sp)
80000e54: 6161         	addi	sp, sp, 0x50
80000e56: 8082         	ret

0000000080000e58 <_$LT$I$u20$as$u20$core..iter..traits..collect..IntoIterator$GT$::into_iter::h51c80c3d21fd21fe>:
80000e58: 1141         	addi	sp, sp, -0x10
80000e5a: e02a         	sd	a0, 0x0(sp)
80000e5c: e42e         	sd	a1, 0x8(sp)
80000e5e: 0141         	addi	sp, sp, 0x10
80000e60: 8082         	ret
		...
80000e6e: 0000         	unimp

0000000080000e70 <enter_supervisor>:
80000e70: 34151073     	csrw	mepc, a0
80000e74: 300022f3     	csrr	t0, mstatus
80000e78: 430d         	li	t1, 0x3
80000e7a: 032e         	slli	t1, t1, 0xb
80000e7c: fff34313     	not	t1, t1
80000e80: 0062f2b3     	and	t0, t0, t1
80000e84: 4305         	li	t1, 0x1
80000e86: 032e         	slli	t1, t1, 0xb
80000e88: 0062e2b3     	or	t0, t0, t1
80000e8c: 30029073     	csrw	mstatus, t0
80000e90: 812e         	mv	sp, a1
80000e92: 30200073     	mret

0000000080000e96 <enter_user_task>:
80000e96: 8faa         	mv	t6, a0
80000e98: 14059073     	csrw	sscratch, a1
80000e9c: 0f8fb283     	ld	t0, 0xf8(t6)
80000ea0: 14129073     	csrw	sepc, t0
80000ea4: 100022f3     	csrr	t0, sstatus
80000ea8: 12200313     	li	t1, 0x122
80000eac: fff34313     	not	t1, t1
80000eb0: 0062f2b3     	and	t0, t0, t1
80000eb4: 02000313     	li	t1, 0x20
80000eb8: 0062e2b3     	or	t0, t0, t1
80000ebc: 10029073     	csrw	sstatus, t0
80000ec0: 000fb083     	ld	ra, 0x0(t6)
80000ec4: 008fb183     	ld	gp, 0x8(t6)
80000ec8: 010fb203     	ld	tp, 0x10(t6)
80000ecc: 018fb283     	ld	t0, 0x18(t6)
80000ed0: 020fb303     	ld	t1, 0x20(t6)
80000ed4: 028fb383     	ld	t2, 0x28(t6)
80000ed8: 030fb403     	ld	s0, 0x30(t6)
80000edc: 038fb483     	ld	s1, 0x38(t6)
80000ee0: 040fb503     	ld	a0, 0x40(t6)
80000ee4: 048fb583     	ld	a1, 0x48(t6)
80000ee8: 050fb603     	ld	a2, 0x50(t6)
80000eec: 058fb683     	ld	a3, 0x58(t6)
80000ef0: 060fb703     	ld	a4, 0x60(t6)
80000ef4: 068fb783     	ld	a5, 0x68(t6)
80000ef8: 070fb803     	ld	a6, 0x70(t6)
80000efc: 078fb883     	ld	a7, 0x78(t6)
80000f00: 080fb903     	ld	s2, 0x80(t6)
80000f04: 088fb983     	ld	s3, 0x88(t6)
80000f08: 090fba03     	ld	s4, 0x90(t6)
80000f0c: 098fba83     	ld	s5, 0x98(t6)
80000f10: 0a0fbb03     	ld	s6, 0xa0(t6)
80000f14: 0a8fbb83     	ld	s7, 0xa8(t6)
80000f18: 0b0fbc03     	ld	s8, 0xb0(t6)
80000f1c: 0b8fbc83     	ld	s9, 0xb8(t6)
80000f20: 0c0fbd03     	ld	s10, 0xc0(t6)
80000f24: 0c8fbd83     	ld	s11, 0xc8(t6)
80000f28: 0d0fbe03     	ld	t3, 0xd0(t6)
80000f2c: 0d8fbe83     	ld	t4, 0xd8(t6)
80000f30: 0e0fbf03     	ld	t5, 0xe0(t6)
80000f34: 0f0fb103     	ld	sp, 0xf0(t6)
80000f38: 0e8fbf83     	ld	t6, 0xe8(t6)
80000f3c: 10200073     	sret

0000000080000f40 <machine_trap_entry>:
80000f40: 34011173     	csrrw	sp, mscratch, sp
80000f44: 7111         	addi	sp, sp, -0x100
80000f46: e006         	sd	ra, 0x0(sp)
80000f48: e40e         	sd	gp, 0x8(sp)
80000f4a: e812         	sd	tp, 0x10(sp)
80000f4c: ec16         	sd	t0, 0x18(sp)
80000f4e: f01a         	sd	t1, 0x20(sp)
80000f50: f41e         	sd	t2, 0x28(sp)
80000f52: f822         	sd	s0, 0x30(sp)
80000f54: fc26         	sd	s1, 0x38(sp)
80000f56: e0aa         	sd	a0, 0x40(sp)
80000f58: e4ae         	sd	a1, 0x48(sp)
80000f5a: e8b2         	sd	a2, 0x50(sp)
80000f5c: ecb6         	sd	a3, 0x58(sp)
80000f5e: f0ba         	sd	a4, 0x60(sp)
80000f60: f4be         	sd	a5, 0x68(sp)
80000f62: f8c2         	sd	a6, 0x70(sp)
80000f64: fcc6         	sd	a7, 0x78(sp)
80000f66: e14a         	sd	s2, 0x80(sp)
80000f68: e54e         	sd	s3, 0x88(sp)
80000f6a: e952         	sd	s4, 0x90(sp)
80000f6c: ed56         	sd	s5, 0x98(sp)
80000f6e: f15a         	sd	s6, 0xa0(sp)
80000f70: f55e         	sd	s7, 0xa8(sp)
80000f72: f962         	sd	s8, 0xb0(sp)
80000f74: fd66         	sd	s9, 0xb8(sp)
80000f76: e1ea         	sd	s10, 0xc0(sp)
80000f78: e5ee         	sd	s11, 0xc8(sp)
80000f7a: e9f2         	sd	t3, 0xd0(sp)
80000f7c: edf6         	sd	t4, 0xd8(sp)
80000f7e: f1fa         	sd	t5, 0xe0(sp)
80000f80: f5fe         	sd	t6, 0xe8(sp)
80000f82: 340022f3     	csrr	t0, mscratch
80000f86: f996         	sd	t0, 0xf0(sp)
80000f88: 341022f3     	csrr	t0, mepc
80000f8c: fd96         	sd	t0, 0xf8(sp)
80000f8e: 850a         	mv	a0, sp
80000f90: 00003097     	auipc	ra, 0x3
80000f94: 766080e7     	jalr	0x766(ra) <handle_machine_trap>
80000f98: 72ee         	ld	t0, 0xf8(sp)
80000f9a: 34129073     	csrw	mepc, t0
80000f9e: 72ce         	ld	t0, 0xf0(sp)
80000fa0: 34029073     	csrw	mscratch, t0
80000fa4: 6082         	ld	ra, 0x0(sp)
80000fa6: 61a2         	ld	gp, 0x8(sp)
80000fa8: 6242         	ld	tp, 0x10(sp)
80000faa: 62e2         	ld	t0, 0x18(sp)
80000fac: 7302         	ld	t1, 0x20(sp)
80000fae: 73a2         	ld	t2, 0x28(sp)
80000fb0: 7442         	ld	s0, 0x30(sp)
80000fb2: 74e2         	ld	s1, 0x38(sp)
80000fb4: 6506         	ld	a0, 0x40(sp)
80000fb6: 65a6         	ld	a1, 0x48(sp)
80000fb8: 6646         	ld	a2, 0x50(sp)
80000fba: 66e6         	ld	a3, 0x58(sp)
80000fbc: 7706         	ld	a4, 0x60(sp)
80000fbe: 77a6         	ld	a5, 0x68(sp)
80000fc0: 7846         	ld	a6, 0x70(sp)
80000fc2: 78e6         	ld	a7, 0x78(sp)
80000fc4: 690a         	ld	s2, 0x80(sp)
80000fc6: 69aa         	ld	s3, 0x88(sp)
80000fc8: 6a4a         	ld	s4, 0x90(sp)
80000fca: 6aea         	ld	s5, 0x98(sp)
80000fcc: 7b0a         	ld	s6, 0xa0(sp)
80000fce: 7baa         	ld	s7, 0xa8(sp)
80000fd0: 7c4a         	ld	s8, 0xb0(sp)
80000fd2: 7cea         	ld	s9, 0xb8(sp)
80000fd4: 6d0e         	ld	s10, 0xc0(sp)
80000fd6: 6dae         	ld	s11, 0xc8(sp)
80000fd8: 6e4e         	ld	t3, 0xd0(sp)
80000fda: 6eee         	ld	t4, 0xd8(sp)
80000fdc: 7f0e         	ld	t5, 0xe0(sp)
80000fde: 7fae         	ld	t6, 0xe8(sp)
80000fe0: 6111         	addi	sp, sp, 0x100
80000fe2: 34011173     	csrrw	sp, mscratch, sp
80000fe6: 30200073     	mret
80000fea: 0001         	nop
80000fec: 00000013     	nop

0000000080000ff0 <supervisor_trap_entry>:
80000ff0: 14011173     	csrrw	sp, sscratch, sp
80000ff4: 7111         	addi	sp, sp, -0x100
80000ff6: e006         	sd	ra, 0x0(sp)
80000ff8: e40e         	sd	gp, 0x8(sp)
80000ffa: e812         	sd	tp, 0x10(sp)
80000ffc: ec16         	sd	t0, 0x18(sp)
80000ffe: f01a         	sd	t1, 0x20(sp)
80001000: f41e         	sd	t2, 0x28(sp)
80001002: f822         	sd	s0, 0x30(sp)
80001004: fc26         	sd	s1, 0x38(sp)
80001006: e0aa         	sd	a0, 0x40(sp)
80001008: e4ae         	sd	a1, 0x48(sp)
8000100a: e8b2         	sd	a2, 0x50(sp)
8000100c: ecb6         	sd	a3, 0x58(sp)
8000100e: f0ba         	sd	a4, 0x60(sp)
80001010: f4be         	sd	a5, 0x68(sp)
80001012: f8c2         	sd	a6, 0x70(sp)
80001014: fcc6         	sd	a7, 0x78(sp)
80001016: e14a         	sd	s2, 0x80(sp)
80001018: e54e         	sd	s3, 0x88(sp)
8000101a: e952         	sd	s4, 0x90(sp)
8000101c: ed56         	sd	s5, 0x98(sp)
8000101e: f15a         	sd	s6, 0xa0(sp)
80001020: f55e         	sd	s7, 0xa8(sp)
80001022: f962         	sd	s8, 0xb0(sp)
80001024: fd66         	sd	s9, 0xb8(sp)
80001026: e1ea         	sd	s10, 0xc0(sp)
80001028: e5ee         	sd	s11, 0xc8(sp)
8000102a: e9f2         	sd	t3, 0xd0(sp)
8000102c: edf6         	sd	t4, 0xd8(sp)
8000102e: f1fa         	sd	t5, 0xe0(sp)
80001030: f5fe         	sd	t6, 0xe8(sp)
80001032: 140022f3     	csrr	t0, sscratch
80001036: f996         	sd	t0, 0xf0(sp)
80001038: 141022f3     	csrr	t0, sepc
8000103c: fd96         	sd	t0, 0xf8(sp)
8000103e: 850a         	mv	a0, sp
80001040: 00003097     	auipc	ra, 0x3
80001044: 74a080e7     	jalr	0x74a(ra) <handle_supervisor_trap>
80001048: 72ee         	ld	t0, 0xf8(sp)
8000104a: 14129073     	csrw	sepc, t0
8000104e: 72ce         	ld	t0, 0xf0(sp)
80001050: 14029073     	csrw	sscratch, t0
80001054: 6082         	ld	ra, 0x0(sp)
80001056: 61a2         	ld	gp, 0x8(sp)
80001058: 6242         	ld	tp, 0x10(sp)
8000105a: 62e2         	ld	t0, 0x18(sp)
8000105c: 7302         	ld	t1, 0x20(sp)
8000105e: 73a2         	ld	t2, 0x28(sp)
80001060: 7442         	ld	s0, 0x30(sp)
80001062: 74e2         	ld	s1, 0x38(sp)
80001064: 6506         	ld	a0, 0x40(sp)
80001066: 65a6         	ld	a1, 0x48(sp)
80001068: 6646         	ld	a2, 0x50(sp)
8000106a: 66e6         	ld	a3, 0x58(sp)
8000106c: 7706         	ld	a4, 0x60(sp)
8000106e: 77a6         	ld	a5, 0x68(sp)
80001070: 7846         	ld	a6, 0x70(sp)
80001072: 78e6         	ld	a7, 0x78(sp)
80001074: 690a         	ld	s2, 0x80(sp)
80001076: 69aa         	ld	s3, 0x88(sp)
80001078: 6a4a         	ld	s4, 0x90(sp)
8000107a: 6aea         	ld	s5, 0x98(sp)
8000107c: 7b0a         	ld	s6, 0xa0(sp)
8000107e: 7baa         	ld	s7, 0xa8(sp)
80001080: 7c4a         	ld	s8, 0xb0(sp)
80001082: 7cea         	ld	s9, 0xb8(sp)
80001084: 6d0e         	ld	s10, 0xc0(sp)
80001086: 6dae         	ld	s11, 0xc8(sp)
80001088: 6e4e         	ld	t3, 0xd0(sp)
8000108a: 6eee         	ld	t4, 0xd8(sp)
8000108c: 7f0e         	ld	t5, 0xe0(sp)
8000108e: 7fae         	ld	t6, 0xe8(sp)
80001090: 6111         	addi	sp, sp, 0x100
80001092: 14011173     	csrrw	sp, sscratch, sp
80001096: 10200073     	sret
8000109a: 0001         	nop
8000109c: 00000013     	nop

00000000800010a0 <__user_program_start>:
800010a0: 00402437     	lui	s0, 0x402
800010a4: 004054b7     	lui	s1, 0x405
800010a8: 4895         	li	a7, 0x5
800010aa: 00000073     	ecall
800010ae: 892a         	mv	s2, a0
800010b0: 08054c63     	bltz	a0, 0x80001148 <fail>
800010b4: 854a         	mv	a0, s2
800010b6: 85a2         	mv	a1, s0
800010b8: 4899         	li	a7, 0x6
800010ba: 00000073     	ecall
800010be: 08054563     	bltz	a0, 0x80001148 <fail>
800010c2: 004442b7     	lui	t0, 0x444
800010c6: 48928293     	addi	t0, t0, 0x489
800010ca: 02b2         	slli	t0, t0, 0xc
800010cc: 88d28293     	addi	t0, t0, -0x773
800010d0: 02b2         	slli	t0, t0, 0xc
800010d2: ccd28293     	addi	t0, t0, -0x333
800010d6: 02ba         	slli	t0, t0, 0xe
800010d8: 44428293     	addi	t0, t0, 0x444
800010dc: 00543023     	sd	t0, 0x0(s0)
800010e0: 8996         	mv	s3, t0
800010e2: 4885         	li	a7, 0x1
800010e4: 00000073     	ecall
800010e8: ed0d         	bnez	a0, 0x80001122 <parent_path>

00000000800010ea <child_path>:
800010ea: 854a         	mv	a0, s2
800010ec: 85a6         	mv	a1, s1
800010ee: 4899         	li	a7, 0x6
800010f0: 00000073     	ecall
800010f4: 04054a63     	bltz	a0, 0x80001148 <fail>
800010f8: 0004ba03     	ld	s4, 0x0(s1)
800010fc: 00608337     	lui	t1, 0x608
80001100: 135d         	addi	t1, t1, -0x9
80001102: 1316         	slli	t1, t1, 0x25
80001104: 0305         	addi	t1, t1, 0x1
80001106: 0064b023     	sd	t1, 0x0(s1)
8000110a: 0004ba83     	ld	s5, 0x0(s1)
8000110e: 85d2         	mv	a1, s4
80001110: 8656         	mv	a2, s5
80001112: 4681         	li	a3, 0x0
80001114: 488d         	li	a7, 0x3
80001116: 00000073     	ecall
8000111a: 4501         	li	a0, 0x0
8000111c: 4891         	li	a7, 0x4
8000111e: 00000073     	ecall

0000000080001122 <parent_path>:
80001122: 4889         	li	a7, 0x2
80001124: 00000073     	ecall
80001128: 00043b03     	ld	s6, 0x0(s0)
8000112c: 85ce         	mv	a1, s3
8000112e: 865a         	mv	a2, s6
80001130: 006086b7     	lui	a3, 0x608
80001134: 16dd         	addi	a3, a3, -0x9
80001136: 1696         	slli	a3, a3, 0x25
80001138: 0685         	addi	a3, a3, 0x1
8000113a: 488d         	li	a7, 0x3
8000113c: 00000073     	ecall
80001140: 4501         	li	a0, 0x0
80001142: 4891         	li	a7, 0x4
80001144: 00000073     	ecall

0000000080001148 <fail>:
80001148: 4505         	li	a0, 0x1
8000114a: 4891         	li	a7, 0x4
8000114c: 00000073     	ecall

0000000080001150 <__user_program_end>:
80001150: 7139         	addi	sp, sp, -0x40
80001152: fc06         	sd	ra, 0x38(sp)
80001154: e42a         	sd	a0, 0x8(sp)
80001156: 002c         	addi	a1, sp, 0x8
80001158: f82e         	sd	a1, 0x30(sp)
8000115a: 1008         	addi	a0, sp, 0x20
8000115c: fffff097     	auipc	ra, 0xfffff
80001160: f3e080e7     	jalr	-0xc2(ra) <core::fmt::rt::Argument::new_display::hef6ce7468e7801bc>
80001164: 7522         	ld	a0, 0x28(sp)
80001166: ec2a         	sd	a0, 0x18(sp)
80001168: 7502         	ld	a0, 0x20(sp)
8000116a: e82a         	sd	a0, 0x10(sp)

000000008000116c <.Lpcrel_hi1>:
8000116c: 00005517     	auipc	a0, 0x5
80001170: 04650513     	addi	a0, a0, 0x46
80001174: 080c         	addi	a1, sp, 0x10
80001176: fffff097     	auipc	ra, 0xfffff
8000117a: 150080e7     	jalr	0x150(ra) <core::fmt::Arguments::new::hc5dd450f05646112>
8000117e: 00000097     	auipc	ra, 0x0
80001182: c58080e7     	jalr	-0x3a8(ra) <lab7_kernel_task1::console::print::h4532f48a1410ef53>
80001186: 4505         	li	a0, 0x1
80001188: 00003097     	auipc	ra, 0x3
8000118c: 28c080e7     	jalr	0x28c(ra) <lab7_kernel_task1::qemu_exit::h3658abe717466651>

0000000080001190 <lab7_kernel_task1::WalkResult::zeroed::h409688c884421735>:
80001190: 85aa         	mv	a1, a0
80001192: 4501         	li	a0, 0x0
80001194: e188         	sd	a0, 0x0(a1)
80001196: e588         	sd	a0, 0x8(a1)
80001198: e988         	sd	a0, 0x10(a1)
8000119a: ed88         	sd	a0, 0x18(a1)
8000119c: f188         	sd	a0, 0x20(a1)
8000119e: f588         	sd	a0, 0x28(a1)
800011a0: 567d         	li	a2, -0x1
800011a2: f990         	sd	a2, 0x30(a1)
800011a4: fd88         	sd	a0, 0x38(a1)
800011a6: 8082         	ret

00000000800011a8 <lab7_kernel_task1::print_walk::h3a0e8dd3bad6c6e7>:
800011a8: 7175         	addi	sp, sp, -0x90
800011aa: e506         	sd	ra, 0x88(sp)
800011ac: ec36         	sd	a3, 0x18(sp)
800011ae: 86b2         	mv	a3, a2
800011b0: 6662         	ld	a2, 0x18(sp)
800011b2: e836         	sd	a3, 0x10(sp)
800011b4: 86ae         	mv	a3, a1
800011b6: 65c2         	ld	a1, 0x10(sp)
800011b8: e436         	sd	a3, 0x8(sp)
800011ba: 86aa         	mv	a3, a0
800011bc: 6522         	ld	a0, 0x8(sp)
800011be: e036         	sd	a3, 0x0(sp)
800011c0: f4b6         	sd	a3, 0x68(sp)
800011c2: f8aa         	sd	a0, 0x70(sp)
800011c4: fcae         	sd	a1, 0x78(sp)
800011c6: e132         	sd	a2, 0x80(sp)
800011c8: 1028         	addi	a0, sp, 0x28
800011ca: f02a         	sd	a0, 0x20(sp)
800011cc: 00002097     	auipc	ra, 0x2
800011d0: 84c080e7     	jalr	-0x7b4(ra) <lab7_kernel_task1::walk_proc_virtual::h3487b7495baaae21>
800011d4: 6502         	ld	a0, 0x0(sp)
800011d6: 65a2         	ld	a1, 0x8(sp)
800011d8: 6642         	ld	a2, 0x10(sp)
800011da: 66e2         	ld	a3, 0x18(sp)
800011dc: 7702         	ld	a4, 0x20(sp)
800011de: 00001097     	auipc	ra, 0x1
800011e2: 652080e7     	jalr	0x652(ra) <lab7_kernel_task1::print_walk_result::h2b05bcea9c811e04>
800011e6: 60aa         	ld	ra, 0x88(sp)
800011e8: 6149         	addi	sp, sp, 0x90
800011ea: 8082         	ret

00000000800011ec <lab7_kernel_task1::read_mtval::hc6418bd891f3e3df>:
800011ec: 1141         	addi	sp, sp, -0x10
800011ee: 34302573     	csrr	a0, mtval
800011f2: e42a         	sd	a0, 0x8(sp)
800011f4: 6522         	ld	a0, 0x8(sp)
800011f6: 0141         	addi	sp, sp, 0x10
800011f8: 8082         	ret

00000000800011fa <lab7_kernel_task1::read_stval::h64cf80d8cb711c90>:
800011fa: 1141         	addi	sp, sp, -0x10
800011fc: 14302573     	csrr	a0, stval
80001200: e42a         	sd	a0, 0x8(sp)
80001202: 6522         	ld	a0, 0x8(sp)
80001204: 0141         	addi	sp, sp, 0x10
80001206: 8082         	ret

0000000080001208 <lab7_kernel_task1::vpn0_index::h03dd3a93713d0e2e>:
80001208: 1141         	addi	sp, sp, -0x10
8000120a: e42a         	sd	a0, 0x8(sp)
8000120c: 152e         	slli	a0, a0, 0x2b
8000120e: 915d         	srli	a0, a0, 0x37
80001210: 0141         	addi	sp, sp, 0x10
80001212: 8082         	ret

0000000080001214 <lab7_kernel_task1::vpn1_index::h0628f166b261c512>:
80001214: 1141         	addi	sp, sp, -0x10
80001216: e42a         	sd	a0, 0x8(sp)
80001218: 150a         	slli	a0, a0, 0x22
8000121a: 915d         	srli	a0, a0, 0x37
8000121c: 0141         	addi	sp, sp, 0x10
8000121e: 8082         	ret

0000000080001220 <lab7_kernel_task1::vpn2_index::h9a2fc6925fb82563>:
80001220: 1141         	addi	sp, sp, -0x10
80001222: e42a         	sd	a0, 0x8(sp)
80001224: 0566         	slli	a0, a0, 0x19
80001226: 915d         	srli	a0, a0, 0x37
80001228: 0141         	addi	sp, sp, 0x10
8000122a: 8082         	ret

000000008000122c <lab7_kernel_task1::kernel_fail::hfd169aa4d2aaf36c>:
8000122c: 7139         	addi	sp, sp, -0x40
8000122e: fc06         	sd	ra, 0x38(sp)
80001230: e02a         	sd	a0, 0x0(sp)
80001232: e42e         	sd	a1, 0x8(sp)
80001234: 858a         	mv	a1, sp
80001236: f82e         	sd	a1, 0x30(sp)
80001238: 1008         	addi	a0, sp, 0x20
8000123a: fffff097     	auipc	ra, 0xfffff
8000123e: dfa080e7     	jalr	-0x206(ra) <core::fmt::rt::Argument::new_display::h48d813f7f5d25d2b>
80001242: 7522         	ld	a0, 0x28(sp)
80001244: ec2a         	sd	a0, 0x18(sp)
80001246: 7502         	ld	a0, 0x20(sp)
80001248: e82a         	sd	a0, 0x10(sp)

000000008000124a <.Lpcrel_hi2>:
8000124a: 00005517     	auipc	a0, 0x5
8000124e: ef950513     	addi	a0, a0, -0x107
80001252: 080c         	addi	a1, sp, 0x10
80001254: fffff097     	auipc	ra, 0xfffff
80001258: 02c080e7     	jalr	0x2c(ra) <core::fmt::Arguments::new::h7dbb233737938ff5>
8000125c: 00000097     	auipc	ra, 0x0
80001260: b7a080e7     	jalr	-0x486(ra) <lab7_kernel_task1::console::print::h4532f48a1410ef53>
80001264: 4505         	li	a0, 0x1
80001266: 00003097     	auipc	ra, 0x3
8000126a: 1ae080e7     	jalr	0x1ae(ra) <lab7_kernel_task1::qemu_exit::h3658abe717466651>

000000008000126e <lab7_kernel_task1::pte_is_leaf::h21854ef84756cb20>:
8000126e: 1141         	addi	sp, sp, -0x10
80001270: e42a         	sd	a0, 0x8(sp)
80001272: 8939         	andi	a0, a0, 0xe
80001274: 00a03533     	snez	a0, a0
80001278: 0141         	addi	sp, sp, 0x10
8000127a: 8082         	ret

000000008000127c <lab7_kernel_task1::read_mcause::hab44109e8853bf2a>:
8000127c: 1141         	addi	sp, sp, -0x10
8000127e: 34202573     	csrr	a0, mcause
80001282: e42a         	sd	a0, 0x8(sp)
80001284: 6522         	ld	a0, 0x8(sp)
80001286: 0141         	addi	sp, sp, 0x10
80001288: 8082         	ret

000000008000128a <lab7_kernel_task1::read_scause::h03afc25a89efca0c>:
8000128a: 1141         	addi	sp, sp, -0x10
8000128c: 14202573     	csrr	a0, scause
80001290: e42a         	sd	a0, 0x8(sp)
80001292: 6522         	ld	a0, 0x8(sp)
80001294: 0141         	addi	sp, sp, 0x10
80001296: 8082         	ret

0000000080001298 <lab7_kernel_task1::pte_is_valid::hcc4e5218d3abcea7>:
80001298: 1141         	addi	sp, sp, -0x10
8000129a: e42a         	sd	a0, 0x8(sp)
8000129c: 8905         	andi	a0, a0, 0x1
8000129e: 0141         	addi	sp, sp, 0x10
800012a0: 8082         	ret

00000000800012a2 <lab7_kernel_task1::ProcessReport::empty::h17f58037c81b1012>:
800012a2: 85aa         	mv	a1, a0
800012a4: 4501         	li	a0, 0x0
800012a6: 00a58c23     	sb	a0, 0x18(a1)
800012aa: e188         	sd	a0, 0x0(a1)
800012ac: e588         	sd	a0, 0x8(a1)
800012ae: e988         	sd	a0, 0x10(a1)
800012b0: 8082         	ret

00000000800012b2 <lab7_kernel_task1::build_process::h9a0ced696b13b2c0>:
800012b2: 7135         	addi	sp, sp, -0xa0
800012b4: ed06         	sd	ra, 0x98(sp)
800012b6: f0aa         	sd	a0, 0x60(sp)
800012b8: e92a         	sd	a0, 0x90(sp)
800012ba: 00002097     	auipc	ra, 0x2
800012be: 032080e7     	jalr	0x32(ra) <lab7_kernel_task1::proc_root_table_ptr::hf9893ff416a48b5e>
800012c2: 00001097     	auipc	ra, 0x1
800012c6: 98a080e7     	jalr	-0x676(ra) <lab7_kernel_task1::clear_page_table::h8ca5e429a123d989>
800012ca: 7506         	ld	a0, 0x60(sp)
800012cc: 00002097     	auipc	ra, 0x2
800012d0: 610080e7     	jalr	0x610(ra) <lab7_kernel_task1::proc_low_l1_table_ptr::he78fd751b538fa03>
800012d4: 00001097     	auipc	ra, 0x1
800012d8: 978080e7     	jalr	-0x688(ra) <lab7_kernel_task1::clear_page_table::h8ca5e429a123d989>
800012dc: 7506         	ld	a0, 0x60(sp)
800012de: 00002097     	auipc	ra, 0x2
800012e2: 6fc080e7     	jalr	0x6fc(ra) <lab7_kernel_task1::proc_user_l0_table_ptr::h92a59938cf003d6f>
800012e6: 00001097     	auipc	ra, 0x1
800012ea: 966080e7     	jalr	-0x69a(ra) <lab7_kernel_task1::clear_page_table::h8ca5e429a123d989>
800012ee: 00002097     	auipc	ra, 0x2
800012f2: fbc080e7     	jalr	-0x44(ra) <lab7_kernel_task1::kernel_l1_table_pa::h98bcd75e5adf8340>
800012f6: 00003097     	auipc	ra, 0x3
800012fa: 166080e7     	jalr	0x166(ra) <lab7_kernel_task1::table_pte::hfe1f5823935e125b>
800012fe: 7586         	ld	a1, 0x60(sp)
80001300: f4aa         	sd	a0, 0x68(sp)
80001302: 4505         	li	a0, 0x1
80001304: 02b56063     	bltu	a0, a1, 0x80001324 <lab7_kernel_task1::build_process::h9a0ced696b13b2c0+0x72>
80001308: a009         	j	0x8000130a <lab7_kernel_task1::build_process::h9a0ced696b13b2c0+0x58>
8000130a: 4505         	li	a0, 0x1
8000130c: 057e         	slli	a0, a0, 0x1f
8000130e: 00000097     	auipc	ra, 0x0
80001312: f12080e7     	jalr	-0xee(ra) <lab7_kernel_task1::vpn2_index::h9a2fc6925fb82563>
80001316: 85aa         	mv	a1, a0
80001318: ecae         	sd	a1, 0x58(sp)
8000131a: 20000593     	li	a1, 0x200
8000131e: 00b56d63     	bltu	a0, a1, 0x80001338 <.Lpcrel_hi4>
80001322: a015         	j	0x80001346 <.Lpcrel_hi4+0xe>
80001324: 7506         	ld	a0, 0x60(sp)

0000000080001326 <.Lpcrel_hi3>:
80001326: 00006597     	auipc	a1, 0x6
8000132a: c2258613     	addi	a2, a1, -0x3de
8000132e: 4589         	li	a1, 0x2
80001330: 00005097     	auipc	ra, 0x5
80001334: 9da080e7     	jalr	-0x626(ra) <core::panicking::panic_bounds_check::h6aaee0d15e0261eb>

0000000080001338 <.Lpcrel_hi4>:
80001338: 00010517     	auipc	a0, 0x10
8000133c: cc850513     	addi	a0, a0, -0x338
80001340: 1552         	slli	a0, a0, 0x34
80001342: cd09         	beqz	a0, 0x8000135c <.Lpcrel_hi6>
80001344: a015         	j	0x80001368 <.Lpcrel_hi7>
80001346: 6566         	ld	a0, 0x58(sp)

0000000080001348 <.Lpcrel_hi5>:
80001348: 00006597     	auipc	a1, 0x6
8000134c: c0058613     	addi	a2, a1, -0x400
80001350: 20000593     	li	a1, 0x200
80001354: 00005097     	auipc	ra, 0x5
80001358: 9b6080e7     	jalr	-0x64a(ra) <core::panicking::panic_bounds_check::h6aaee0d15e0261eb>

000000008000135c <.Lpcrel_hi6>:
8000135c: 00010517     	auipc	a0, 0x10
80001360: ca450513     	addi	a0, a0, -0x35c
80001364: ed19         	bnez	a0, 0x80001382 <.Lpcrel_hi8+0x12>
80001366: a891         	j	0x800013ba <.Lpcrel_hi10>

0000000080001368 <.Lpcrel_hi7>:
80001368: 00010517     	auipc	a0, 0x10
8000136c: c9850593     	addi	a1, a0, -0x368

0000000080001370 <.Lpcrel_hi8>:
80001370: 00006517     	auipc	a0, 0x6
80001374: bd850613     	addi	a2, a0, -0x428
80001378: 6505         	lui	a0, 0x1
8000137a: 00005097     	auipc	ra, 0x5
8000137e: a1c080e7     	jalr	-0x5e4(ra) <core::panicking::panic_misaligned_pointer_dereference::hda85f7fb51d959f0>
80001382: 7506         	ld	a0, 0x60(sp)
80001384: 75a6         	ld	a1, 0x68(sp)
80001386: 66e6         	ld	a3, 0x58(sp)
80001388: 00c51713     	slli	a4, a0, 0xc

000000008000138c <.Lpcrel_hi9>:
8000138c: 00010617     	auipc	a2, 0x10
80001390: c7460613     	addi	a2, a2, -0x38c
80001394: 963a         	add	a2, a2, a4
80001396: 068e         	slli	a3, a3, 0x3
80001398: 9636         	add	a2, a2, a3
8000139a: e20c         	sd	a1, 0x0(a2)
8000139c: 00002097     	auipc	ra, 0x2
800013a0: 17a080e7     	jalr	0x17a(ra) <lab7_kernel_task1::proc_low_l1_table_pa::hf6c49c1658bc601e>
800013a4: 00003097     	auipc	ra, 0x3
800013a8: 0b8080e7     	jalr	0xb8(ra) <lab7_kernel_task1::table_pte::hfe1f5823935e125b>
800013ac: 85aa         	mv	a1, a0
800013ae: 7506         	ld	a0, 0x60(sp)
800013b0: e8ae         	sd	a1, 0x50(sp)
800013b2: 4589         	li	a1, 0x2
800013b4: 00b56b63     	bltu	a0, a1, 0x800013ca <.Lpcrel_hi10+0x10>
800013b8: a035         	j	0x800013e4 <.Lpcrel_hi10+0x2a>

00000000800013ba <.Lpcrel_hi10>:
800013ba: 00006517     	auipc	a0, 0x6
800013be: b8e50513     	addi	a0, a0, -0x472
800013c2: 00005097     	auipc	ra, 0x5
800013c6: 9b4080e7     	jalr	-0x64c(ra) <core::panicking::panic_null_pointer_dereference::hbac6411af4f2e916>
800013ca: 00400537     	lui	a0, 0x400
800013ce: 00000097     	auipc	ra, 0x0
800013d2: e52080e7     	jalr	-0x1ae(ra) <lab7_kernel_task1::vpn2_index::h9a2fc6925fb82563>
800013d6: 85aa         	mv	a1, a0
800013d8: e4ae         	sd	a1, 0x48(sp)
800013da: 20000593     	li	a1, 0x200
800013de: 00b56d63     	bltu	a0, a1, 0x800013f8 <.Lpcrel_hi12>
800013e2: a015         	j	0x80001406 <.Lpcrel_hi12+0xe>
800013e4: 7506         	ld	a0, 0x60(sp)

00000000800013e6 <.Lpcrel_hi11>:
800013e6: 00006597     	auipc	a1, 0x6
800013ea: b7a58613     	addi	a2, a1, -0x486
800013ee: 4589         	li	a1, 0x2
800013f0: 00005097     	auipc	ra, 0x5
800013f4: 91a080e7     	jalr	-0x6e6(ra) <core::panicking::panic_bounds_check::h6aaee0d15e0261eb>

00000000800013f8 <.Lpcrel_hi12>:
800013f8: 00010517     	auipc	a0, 0x10
800013fc: c0850513     	addi	a0, a0, -0x3f8
80001400: 1552         	slli	a0, a0, 0x34
80001402: cd09         	beqz	a0, 0x8000141c <.Lpcrel_hi14>
80001404: a015         	j	0x80001428 <.Lpcrel_hi15>
80001406: 6526         	ld	a0, 0x48(sp)

0000000080001408 <.Lpcrel_hi13>:
80001408: 00006597     	auipc	a1, 0x6
8000140c: b5858613     	addi	a2, a1, -0x4a8
80001410: 20000593     	li	a1, 0x200
80001414: 00005097     	auipc	ra, 0x5
80001418: 8f6080e7     	jalr	-0x70a(ra) <core::panicking::panic_bounds_check::h6aaee0d15e0261eb>

000000008000141c <.Lpcrel_hi14>:
8000141c: 00010517     	auipc	a0, 0x10
80001420: be450513     	addi	a0, a0, -0x41c
80001424: ed19         	bnez	a0, 0x80001442 <.Lpcrel_hi16+0x12>
80001426: a891         	j	0x8000147a <.Lpcrel_hi18>

0000000080001428 <.Lpcrel_hi15>:
80001428: 00010517     	auipc	a0, 0x10
8000142c: bd850593     	addi	a1, a0, -0x428

0000000080001430 <.Lpcrel_hi16>:
80001430: 00006517     	auipc	a0, 0x6
80001434: b3050613     	addi	a2, a0, -0x4d0
80001438: 6505         	lui	a0, 0x1
8000143a: 00005097     	auipc	ra, 0x5
8000143e: 95c080e7     	jalr	-0x6a4(ra) <core::panicking::panic_misaligned_pointer_dereference::hda85f7fb51d959f0>
80001442: 7586         	ld	a1, 0x60(sp)
80001444: 6546         	ld	a0, 0x50(sp)
80001446: 6626         	ld	a2, 0x48(sp)
80001448: 00c59693     	slli	a3, a1, 0xc

000000008000144c <.Lpcrel_hi17>:
8000144c: 00010597     	auipc	a1, 0x10
80001450: bb458593     	addi	a1, a1, -0x44c
80001454: 95b6         	add	a1, a1, a3
80001456: 060e         	slli	a2, a2, 0x3
80001458: 95b2         	add	a1, a1, a2
8000145a: e188         	sd	a0, 0x0(a1)
8000145c: 00000097     	auipc	ra, 0x0
80001460: 71a080e7     	jalr	0x71a(ra) <lab7_kernel_task1::dev_l0_table_pa::h93de83069b3fa498>
80001464: 00003097     	auipc	ra, 0x3
80001468: ff8080e7     	jalr	-0x8(ra) <lab7_kernel_task1::table_pte::hfe1f5823935e125b>
8000146c: 85aa         	mv	a1, a0
8000146e: 7506         	ld	a0, 0x60(sp)
80001470: e0ae         	sd	a1, 0x40(sp)
80001472: 4589         	li	a1, 0x2
80001474: 00b56b63     	bltu	a0, a1, 0x8000148a <.Lpcrel_hi18+0x10>
80001478: a035         	j	0x800014a4 <.Lpcrel_hi18+0x2a>

000000008000147a <.Lpcrel_hi18>:
8000147a: 00006517     	auipc	a0, 0x6
8000147e: ae650513     	addi	a0, a0, -0x51a
80001482: 00005097     	auipc	ra, 0x5
80001486: 8f4080e7     	jalr	-0x70c(ra) <core::panicking::panic_null_pointer_dereference::hbac6411af4f2e916>
8000148a: 00100537     	lui	a0, 0x100
8000148e: 00000097     	auipc	ra, 0x0
80001492: d86080e7     	jalr	-0x27a(ra) <lab7_kernel_task1::vpn1_index::h0628f166b261c512>
80001496: 85aa         	mv	a1, a0
80001498: fc2e         	sd	a1, 0x38(sp)
8000149a: 20000593     	li	a1, 0x200
8000149e: 00b56d63     	bltu	a0, a1, 0x800014b8 <.Lpcrel_hi20>
800014a2: a015         	j	0x800014c6 <.Lpcrel_hi20+0xe>
800014a4: 7506         	ld	a0, 0x60(sp)

00000000800014a6 <.Lpcrel_hi19>:
800014a6: 00006597     	auipc	a1, 0x6
800014aa: ad258613     	addi	a2, a1, -0x52e
800014ae: 4589         	li	a1, 0x2
800014b0: 00005097     	auipc	ra, 0x5
800014b4: 85a080e7     	jalr	-0x7a6(ra) <core::panicking::panic_bounds_check::h6aaee0d15e0261eb>

00000000800014b8 <.Lpcrel_hi20>:
800014b8: 00013517     	auipc	a0, 0x13
800014bc: b4850513     	addi	a0, a0, -0x4b8
800014c0: 1552         	slli	a0, a0, 0x34
800014c2: cd09         	beqz	a0, 0x800014dc <.Lpcrel_hi22>
800014c4: a015         	j	0x800014e8 <.Lpcrel_hi23>
800014c6: 7562         	ld	a0, 0x38(sp)

00000000800014c8 <.Lpcrel_hi21>:
800014c8: 00006597     	auipc	a1, 0x6
800014cc: ab058613     	addi	a2, a1, -0x550
800014d0: 20000593     	li	a1, 0x200
800014d4: 00005097     	auipc	ra, 0x5
800014d8: 836080e7     	jalr	-0x7ca(ra) <core::panicking::panic_bounds_check::h6aaee0d15e0261eb>

00000000800014dc <.Lpcrel_hi22>:
800014dc: 00013517     	auipc	a0, 0x13
800014e0: b2450513     	addi	a0, a0, -0x4dc
800014e4: ed19         	bnez	a0, 0x80001502 <.Lpcrel_hi24+0x12>
800014e6: a891         	j	0x8000153a <.Lpcrel_hi26>

00000000800014e8 <.Lpcrel_hi23>:
800014e8: 00013517     	auipc	a0, 0x13
800014ec: b1850593     	addi	a1, a0, -0x4e8

00000000800014f0 <.Lpcrel_hi24>:
800014f0: 00006517     	auipc	a0, 0x6
800014f4: a8850613     	addi	a2, a0, -0x578
800014f8: 6505         	lui	a0, 0x1
800014fa: 00005097     	auipc	ra, 0x5
800014fe: 89c080e7     	jalr	-0x764(ra) <core::panicking::panic_misaligned_pointer_dereference::hda85f7fb51d959f0>
80001502: 7586         	ld	a1, 0x60(sp)
80001504: 6506         	ld	a0, 0x40(sp)
80001506: 7662         	ld	a2, 0x38(sp)
80001508: 00c59693     	slli	a3, a1, 0xc

000000008000150c <.Lpcrel_hi25>:
8000150c: 00013597     	auipc	a1, 0x13
80001510: af458593     	addi	a1, a1, -0x50c
80001514: 95b6         	add	a1, a1, a3
80001516: 060e         	slli	a2, a2, 0x3
80001518: 95b2         	add	a1, a1, a2
8000151a: e188         	sd	a0, 0x0(a1)
8000151c: 10000537     	lui	a0, 0x10000
80001520: 0c600593     	li	a1, 0xc6
80001524: 00003097     	auipc	ra, 0x3
80001528: df8080e7     	jalr	-0x208(ra) <lab7_kernel_task1::leaf_pte::hb726d55f476e21c9>
8000152c: 85aa         	mv	a1, a0
8000152e: 7506         	ld	a0, 0x60(sp)
80001530: f82e         	sd	a1, 0x30(sp)
80001532: 4589         	li	a1, 0x2
80001534: 00b56b63     	bltu	a0, a1, 0x8000154a <.Lpcrel_hi26+0x10>
80001538: a035         	j	0x80001564 <.Lpcrel_hi26+0x2a>

000000008000153a <.Lpcrel_hi26>:
8000153a: 00006517     	auipc	a0, 0x6
8000153e: a3e50513     	addi	a0, a0, -0x5c2
80001542: 00005097     	auipc	ra, 0x5
80001546: 834080e7     	jalr	-0x7cc(ra) <core::panicking::panic_null_pointer_dereference::hbac6411af4f2e916>
8000154a: 10000537     	lui	a0, 0x10000
8000154e: 00000097     	auipc	ra, 0x0
80001552: cc6080e7     	jalr	-0x33a(ra) <lab7_kernel_task1::vpn1_index::h0628f166b261c512>
80001556: 85aa         	mv	a1, a0
80001558: f42e         	sd	a1, 0x28(sp)
8000155a: 20000593     	li	a1, 0x200
8000155e: 00b56d63     	bltu	a0, a1, 0x80001578 <.Lpcrel_hi28>
80001562: a015         	j	0x80001586 <.Lpcrel_hi28+0xe>
80001564: 7506         	ld	a0, 0x60(sp)

0000000080001566 <.Lpcrel_hi27>:
80001566: 00006597     	auipc	a1, 0x6
8000156a: a2a58613     	addi	a2, a1, -0x5d6
8000156e: 4589         	li	a1, 0x2
80001570: 00004097     	auipc	ra, 0x4
80001574: 79a080e7     	jalr	0x79a(ra) <core::panicking::panic_bounds_check::h6aaee0d15e0261eb>

0000000080001578 <.Lpcrel_hi28>:
80001578: 00013517     	auipc	a0, 0x13
8000157c: a8850513     	addi	a0, a0, -0x578
80001580: 1552         	slli	a0, a0, 0x34
80001582: cd09         	beqz	a0, 0x8000159c <.Lpcrel_hi30>
80001584: a015         	j	0x800015a8 <.Lpcrel_hi31>
80001586: 7522         	ld	a0, 0x28(sp)

0000000080001588 <.Lpcrel_hi29>:
80001588: 00006597     	auipc	a1, 0x6
8000158c: a0858613     	addi	a2, a1, -0x5f8
80001590: 20000593     	li	a1, 0x200
80001594: 00004097     	auipc	ra, 0x4
80001598: 776080e7     	jalr	0x776(ra) <core::panicking::panic_bounds_check::h6aaee0d15e0261eb>

000000008000159c <.Lpcrel_hi30>:
8000159c: 00013517     	auipc	a0, 0x13
800015a0: a6450513     	addi	a0, a0, -0x59c
800015a4: ed19         	bnez	a0, 0x800015c2 <.Lpcrel_hi32+0x12>
800015a6: a891         	j	0x800015fa <.Lpcrel_hi34>

00000000800015a8 <.Lpcrel_hi31>:
800015a8: 00013517     	auipc	a0, 0x13
800015ac: a5850593     	addi	a1, a0, -0x5a8

00000000800015b0 <.Lpcrel_hi32>:
800015b0: 00006517     	auipc	a0, 0x6
800015b4: 9e050613     	addi	a2, a0, -0x620
800015b8: 6505         	lui	a0, 0x1
800015ba: 00004097     	auipc	ra, 0x4
800015be: 7dc080e7     	jalr	0x7dc(ra) <core::panicking::panic_misaligned_pointer_dereference::hda85f7fb51d959f0>
800015c2: 7506         	ld	a0, 0x60(sp)
800015c4: 75c2         	ld	a1, 0x30(sp)
800015c6: 76a2         	ld	a3, 0x28(sp)
800015c8: 00c51713     	slli	a4, a0, 0xc

00000000800015cc <.Lpcrel_hi33>:
800015cc: 00013617     	auipc	a2, 0x13
800015d0: a3460613     	addi	a2, a2, -0x5cc
800015d4: 963a         	add	a2, a2, a4
800015d6: 068e         	slli	a3, a3, 0x3
800015d8: 9636         	add	a2, a2, a3
800015da: e20c         	sd	a1, 0x0(a2)
800015dc: 00002097     	auipc	ra, 0x2
800015e0: 338080e7     	jalr	0x338(ra) <lab7_kernel_task1::proc_user_l0_table_pa::h33af185fe017704c>
800015e4: 00003097     	auipc	ra, 0x3
800015e8: e78080e7     	jalr	-0x188(ra) <lab7_kernel_task1::table_pte::hfe1f5823935e125b>
800015ec: 85aa         	mv	a1, a0
800015ee: 7506         	ld	a0, 0x60(sp)
800015f0: f02e         	sd	a1, 0x20(sp)
800015f2: 4589         	li	a1, 0x2
800015f4: 00b56b63     	bltu	a0, a1, 0x8000160a <.Lpcrel_hi34+0x10>
800015f8: a035         	j	0x80001624 <.Lpcrel_hi34+0x2a>

00000000800015fa <.Lpcrel_hi34>:
800015fa: 00006517     	auipc	a0, 0x6
800015fe: 99650513     	addi	a0, a0, -0x66a
80001602: 00004097     	auipc	ra, 0x4
80001606: 774080e7     	jalr	0x774(ra) <core::panicking::panic_null_pointer_dereference::hbac6411af4f2e916>
8000160a: 00400537     	lui	a0, 0x400
8000160e: 00000097     	auipc	ra, 0x0
80001612: c06080e7     	jalr	-0x3fa(ra) <lab7_kernel_task1::vpn1_index::h0628f166b261c512>
80001616: 85aa         	mv	a1, a0
80001618: ec2e         	sd	a1, 0x18(sp)
8000161a: 20000593     	li	a1, 0x200
8000161e: 00b56d63     	bltu	a0, a1, 0x80001638 <.Lpcrel_hi36>
80001622: a015         	j	0x80001646 <.Lpcrel_hi36+0xe>
80001624: 7506         	ld	a0, 0x60(sp)

0000000080001626 <.Lpcrel_hi35>:
80001626: 00006597     	auipc	a1, 0x6
8000162a: 98258613     	addi	a2, a1, -0x67e
8000162e: 4589         	li	a1, 0x2
80001630: 00004097     	auipc	ra, 0x4
80001634: 6da080e7     	jalr	0x6da(ra) <core::panicking::panic_bounds_check::h6aaee0d15e0261eb>

0000000080001638 <.Lpcrel_hi36>:
80001638: 00013517     	auipc	a0, 0x13
8000163c: 9c850513     	addi	a0, a0, -0x638
80001640: 1552         	slli	a0, a0, 0x34
80001642: cd09         	beqz	a0, 0x8000165c <.Lpcrel_hi38>
80001644: a015         	j	0x80001668 <.Lpcrel_hi39>
80001646: 6562         	ld	a0, 0x18(sp)

0000000080001648 <.Lpcrel_hi37>:
80001648: 00006597     	auipc	a1, 0x6
8000164c: 96058613     	addi	a2, a1, -0x6a0
80001650: 20000593     	li	a1, 0x200
80001654: 00004097     	auipc	ra, 0x4
80001658: 6b6080e7     	jalr	0x6b6(ra) <core::panicking::panic_bounds_check::h6aaee0d15e0261eb>

000000008000165c <.Lpcrel_hi38>:
8000165c: 00013517     	auipc	a0, 0x13
80001660: 9a450513     	addi	a0, a0, -0x65c
80001664: ed19         	bnez	a0, 0x80001682 <.Lpcrel_hi40+0x12>
80001666: a8a1         	j	0x800016be <.Lpcrel_hi42>

0000000080001668 <.Lpcrel_hi39>:
80001668: 00013517     	auipc	a0, 0x13
8000166c: 99850593     	addi	a1, a0, -0x668

0000000080001670 <.Lpcrel_hi40>:
80001670: 00006517     	auipc	a0, 0x6
80001674: 93850613     	addi	a2, a0, -0x6c8
80001678: 6505         	lui	a0, 0x1
8000167a: 00004097     	auipc	ra, 0x4
8000167e: 71c080e7     	jalr	0x71c(ra) <core::panicking::panic_misaligned_pointer_dereference::hda85f7fb51d959f0>
80001682: 7586         	ld	a1, 0x60(sp)
80001684: 7502         	ld	a0, 0x20(sp)
80001686: 6662         	ld	a2, 0x18(sp)
80001688: 00c59693     	slli	a3, a1, 0xc

000000008000168c <.Lpcrel_hi41>:
8000168c: 00013597     	auipc	a1, 0x13
80001690: 97458593     	addi	a1, a1, -0x68c
80001694: 95b6         	add	a1, a1, a3
80001696: 060e         	slli	a2, a2, 0x3
80001698: 95b2         	add	a1, a1, a2
8000169a: e188         	sd	a0, 0x0(a1)
8000169c: 00001097     	auipc	ra, 0x1
800016a0: 372080e7     	jalr	0x372(ra) <lab7_kernel_task1::user_code_page_pa::h12b3c2eec482ec06>
800016a4: 05a00593     	li	a1, 0x5a
800016a8: 00003097     	auipc	ra, 0x3
800016ac: c74080e7     	jalr	-0x38c(ra) <lab7_kernel_task1::leaf_pte::hb726d55f476e21c9>
800016b0: 85aa         	mv	a1, a0
800016b2: 7506         	ld	a0, 0x60(sp)
800016b4: e82e         	sd	a1, 0x10(sp)
800016b6: 4589         	li	a1, 0x2
800016b8: 00b56b63     	bltu	a0, a1, 0x800016ce <.Lpcrel_hi42+0x10>
800016bc: a035         	j	0x800016e8 <.Lpcrel_hi42+0x2a>

00000000800016be <.Lpcrel_hi42>:
800016be: 00006517     	auipc	a0, 0x6
800016c2: 8ea50513     	addi	a0, a0, -0x716
800016c6: 00004097     	auipc	ra, 0x4
800016ca: 6b0080e7     	jalr	0x6b0(ra) <core::panicking::panic_null_pointer_dereference::hbac6411af4f2e916>
800016ce: 00400537     	lui	a0, 0x400
800016d2: 00000097     	auipc	ra, 0x0
800016d6: b36080e7     	jalr	-0x4ca(ra) <lab7_kernel_task1::vpn0_index::h03dd3a93713d0e2e>
800016da: 85aa         	mv	a1, a0
800016dc: e42e         	sd	a1, 0x8(sp)
800016de: 20000593     	li	a1, 0x200
800016e2: 00b56d63     	bltu	a0, a1, 0x800016fc <.Lpcrel_hi44>
800016e6: a015         	j	0x8000170a <.Lpcrel_hi44+0xe>
800016e8: 7506         	ld	a0, 0x60(sp)

00000000800016ea <.Lpcrel_hi43>:
800016ea: 00006597     	auipc	a1, 0x6
800016ee: 8d658613     	addi	a2, a1, -0x72a
800016f2: 4589         	li	a1, 0x2
800016f4: 00004097     	auipc	ra, 0x4
800016f8: 616080e7     	jalr	0x616(ra) <core::panicking::panic_bounds_check::h6aaee0d15e0261eb>

00000000800016fc <.Lpcrel_hi44>:
800016fc: 00016517     	auipc	a0, 0x16
80001700: 90450513     	addi	a0, a0, -0x6fc
80001704: 1552         	slli	a0, a0, 0x34
80001706: cd09         	beqz	a0, 0x80001720 <.Lpcrel_hi46>
80001708: a015         	j	0x8000172c <.Lpcrel_hi47>
8000170a: 6522         	ld	a0, 0x8(sp)

000000008000170c <.Lpcrel_hi45>:
8000170c: 00006597     	auipc	a1, 0x6
80001710: 8b458613     	addi	a2, a1, -0x74c
80001714: 20000593     	li	a1, 0x200
80001718: 00004097     	auipc	ra, 0x4
8000171c: 5f2080e7     	jalr	0x5f2(ra) <core::panicking::panic_bounds_check::h6aaee0d15e0261eb>

0000000080001720 <.Lpcrel_hi46>:
80001720: 00016517     	auipc	a0, 0x16
80001724: 8e050513     	addi	a0, a0, -0x720
80001728: ed19         	bnez	a0, 0x80001746 <.Lpcrel_hi48+0x12>
8000172a: a0ad         	j	0x80001794 <.Lpcrel_hi50>

000000008000172c <.Lpcrel_hi47>:
8000172c: 00016517     	auipc	a0, 0x16
80001730: 8d450593     	addi	a1, a0, -0x72c

0000000080001734 <.Lpcrel_hi48>:
80001734: 00006517     	auipc	a0, 0x6
80001738: 88c50613     	addi	a2, a0, -0x774
8000173c: 6505         	lui	a0, 0x1
8000173e: 00004097     	auipc	ra, 0x4
80001742: 658080e7     	jalr	0x658(ra) <core::panicking::panic_misaligned_pointer_dereference::hda85f7fb51d959f0>
80001746: 7586         	ld	a1, 0x60(sp)
80001748: 6542         	ld	a0, 0x10(sp)
8000174a: 6622         	ld	a2, 0x8(sp)
8000174c: 00c59693     	slli	a3, a1, 0xc

0000000080001750 <.Lpcrel_hi49>:
80001750: 00016597     	auipc	a1, 0x16
80001754: 8b058593     	addi	a1, a1, -0x750
80001758: 95b6         	add	a1, a1, a3
8000175a: 060e         	slli	a2, a2, 0x3
8000175c: 95b2         	add	a1, a1, a2
8000175e: e188         	sd	a0, 0x0(a1)
80001760: 00001097     	auipc	ra, 0x1
80001764: 51e080e7     	jalr	0x51e(ra) <lab7_kernel_task1::allocate_data_page::h702f3dc23d6e4bd1>
80001768: 85aa         	mv	a1, a0
8000176a: 7506         	ld	a0, 0x60(sp)
8000176c: 00000097     	auipc	ra, 0x0
80001770: 30e080e7     	jalr	0x30e(ra) <lab7_kernel_task1::map_stack_page::h619ff164edb6f727>
80001774: 7506         	ld	a0, 0x60(sp)
80001776: 00002097     	auipc	ra, 0x2
8000177a: b3e080e7     	jalr	-0x4c2(ra) <lab7_kernel_task1::proc_root_table_pa::h0e662a33a3441b58>
8000177e: 00000097     	auipc	ra, 0x0
80001782: 212080e7     	jalr	0x212(ra) <lab7_kernel_task1::satp_for_root::h687e32a682fd0bdc>
80001786: 85aa         	mv	a1, a0
80001788: 7506         	ld	a0, 0x60(sp)
8000178a: e02e         	sd	a1, 0x0(sp)
8000178c: 4589         	li	a1, 0x2
8000178e: 00b56b63     	bltu	a0, a1, 0x800017a4 <.Lpcrel_hi51>
80001792: a839         	j	0x800017b0 <.Lpcrel_hi51+0xc>

0000000080001794 <.Lpcrel_hi50>:
80001794: 00006517     	auipc	a0, 0x6
80001798: 82c50513     	addi	a0, a0, -0x7d4
8000179c: 00004097     	auipc	ra, 0x4
800017a0: 5da080e7     	jalr	0x5da(ra) <core::panicking::panic_null_pointer_dereference::hbac6411af4f2e916>

00000000800017a4 <.Lpcrel_hi51>:
800017a4: 00008517     	auipc	a0, 0x8
800017a8: 86450513     	addi	a0, a0, -0x79c
800017ac: ed01         	bnez	a0, 0x800017c4 <.Lpcrel_hi52+0x12>
800017ae: a82d         	j	0x800017e8 <.Lpcrel_hi54>
800017b0: 7506         	ld	a0, 0x60(sp)

00000000800017b2 <.Lpcrel_hi52>:
800017b2: 00006597     	auipc	a1, 0x6
800017b6: 82658613     	addi	a2, a1, -0x7da
800017ba: 4589         	li	a1, 0x2
800017bc: 00004097     	auipc	ra, 0x4
800017c0: 54e080e7     	jalr	0x54e(ra) <core::panicking::panic_bounds_check::h6aaee0d15e0261eb>
800017c4: 7506         	ld	a0, 0x60(sp)
800017c6: 6582         	ld	a1, 0x0(sp)
800017c8: 00351693     	slli	a3, a0, 0x3
800017cc: 00551613     	slli	a2, a0, 0x5
800017d0: 40d606b3     	sub	a3, a2, a3

00000000800017d4 <.Lpcrel_hi53>:
800017d4: 00008617     	auipc	a2, 0x8
800017d8: 83460613     	addi	a2, a2, -0x7cc
800017dc: 9636         	add	a2, a2, a3
800017de: e60c         	sd	a1, 0x8(a2)
800017e0: 4589         	li	a1, 0x2
800017e2: 00b56b63     	bltu	a0, a1, 0x800017f8 <.Lpcrel_hi55>
800017e6: a839         	j	0x80001804 <.Lpcrel_hi55+0xc>

00000000800017e8 <.Lpcrel_hi54>:
800017e8: 00005517     	auipc	a0, 0x5
800017ec: 7f050513     	addi	a0, a0, 0x7f0
800017f0: 00004097     	auipc	ra, 0x4
800017f4: 586080e7     	jalr	0x586(ra) <core::panicking::panic_null_pointer_dereference::hbac6411af4f2e916>

00000000800017f8 <.Lpcrel_hi55>:
800017f8: 00008517     	auipc	a0, 0x8
800017fc: 81050513     	addi	a0, a0, -0x7f0
80001800: ed01         	bnez	a0, 0x80001818 <.Lpcrel_hi56+0x12>
80001802: a82d         	j	0x8000183c <.Lpcrel_hi58>
80001804: 7506         	ld	a0, 0x60(sp)

0000000080001806 <.Lpcrel_hi56>:
80001806: 00005597     	auipc	a1, 0x5
8000180a: 7ea58613     	addi	a2, a1, 0x7ea
8000180e: 4589         	li	a1, 0x2
80001810: 00004097     	auipc	ra, 0x4
80001814: 4fa080e7     	jalr	0x4fa(ra) <core::panicking::panic_bounds_check::h6aaee0d15e0261eb>
80001818: 7506         	ld	a0, 0x60(sp)
8000181a: 00351613     	slli	a2, a0, 0x3
8000181e: 00551593     	slli	a1, a0, 0x5
80001822: 40c58633     	sub	a2, a1, a2

0000000080001826 <.Lpcrel_hi57>:
80001826: 00007597     	auipc	a1, 0x7
8000182a: 7e258593     	addi	a1, a1, 0x7e2
8000182e: 962e         	add	a2, a2, a1
80001830: 4585         	li	a1, 0x1
80001832: e20c         	sd	a1, 0x0(a2)
80001834: 4589         	li	a1, 0x2
80001836: 00b56b63     	bltu	a0, a1, 0x8000184c <.Lpcrel_hi59>
8000183a: a839         	j	0x80001858 <.Lpcrel_hi59+0xc>

000000008000183c <.Lpcrel_hi58>:
8000183c: 00005517     	auipc	a0, 0x5
80001840: 7b450513     	addi	a0, a0, 0x7b4
80001844: 00004097     	auipc	ra, 0x4
80001848: 532080e7     	jalr	0x532(ra) <core::panicking::panic_null_pointer_dereference::hbac6411af4f2e916>

000000008000184c <.Lpcrel_hi59>:
8000184c: 00007517     	auipc	a0, 0x7
80001850: 7bc50513     	addi	a0, a0, 0x7bc
80001854: ed01         	bnez	a0, 0x8000186c <.Lpcrel_hi60+0x12>
80001856: a091         	j	0x8000189a <.Lpcrel_hi62>
80001858: 7506         	ld	a0, 0x60(sp)

000000008000185a <.Lpcrel_hi60>:
8000185a: 00005597     	auipc	a1, 0x5
8000185e: 7ae58613     	addi	a2, a1, 0x7ae
80001862: 4589         	li	a1, 0x2
80001864: 00004097     	auipc	ra, 0x4
80001868: 4a6080e7     	jalr	0x4a6(ra) <core::panicking::panic_bounds_check::h6aaee0d15e0261eb>
8000186c: 7506         	ld	a0, 0x60(sp)
8000186e: 00351593     	slli	a1, a0, 0x3
80001872: 0516         	slli	a0, a0, 0x5
80001874: 40b505b3     	sub	a1, a0, a1

0000000080001878 <.Lpcrel_hi61>:
80001878: 00007517     	auipc	a0, 0x7
8000187c: 79050513     	addi	a0, a0, 0x790
80001880: 95aa         	add	a1, a1, a0
80001882: 4501         	li	a0, 0x0
80001884: e988         	sd	a0, 0x10(a1)
80001886: 1888         	addi	a0, sp, 0x70
80001888: 00000097     	auipc	ra, 0x0
8000188c: a1a080e7     	jalr	-0x5e6(ra) <lab7_kernel_task1::ProcessReport::empty::h17f58037c81b1012>
80001890: 7506         	ld	a0, 0x60(sp)
80001892: 4589         	li	a1, 0x2
80001894: 00b56b63     	bltu	a0, a1, 0x800018aa <.Lpcrel_hi63>
80001898: a839         	j	0x800018b6 <.Lpcrel_hi63+0xc>

000000008000189a <.Lpcrel_hi62>:
8000189a: 00005517     	auipc	a0, 0x5
8000189e: 76e50513     	addi	a0, a0, 0x76e
800018a2: 00004097     	auipc	ra, 0x4
800018a6: 4d4080e7     	jalr	0x4d4(ra) <core::panicking::panic_null_pointer_dereference::hbac6411af4f2e916>

00000000800018aa <.Lpcrel_hi63>:
800018aa: 0000e517     	auipc	a0, 0xe
800018ae: 75650513     	addi	a0, a0, 0x756
800018b2: ed01         	bnez	a0, 0x800018ca <.Lpcrel_hi64+0x12>
800018b4: a835         	j	0x800018f0 <.Lpcrel_hi66>
800018b6: 7506         	ld	a0, 0x60(sp)

00000000800018b8 <.Lpcrel_hi64>:
800018b8: 00005597     	auipc	a1, 0x5
800018bc: 76858613     	addi	a2, a1, 0x768
800018c0: 4589         	li	a1, 0x2
800018c2: 00004097     	auipc	ra, 0x4
800018c6: 448080e7     	jalr	0x448(ra) <core::panicking::panic_bounds_check::h6aaee0d15e0261eb>
800018ca: 7506         	ld	a0, 0x60(sp)
800018cc: 00551593     	slli	a1, a0, 0x5

00000000800018d0 <.Lpcrel_hi65>:
800018d0: 0000e517     	auipc	a0, 0xe
800018d4: 73050513     	addi	a0, a0, 0x730
800018d8: 95aa         	add	a1, a1, a0
800018da: 652a         	ld	a0, 0x88(sp)
800018dc: ed88         	sd	a0, 0x18(a1)
800018de: 650a         	ld	a0, 0x80(sp)
800018e0: e988         	sd	a0, 0x10(a1)
800018e2: 7566         	ld	a0, 0x78(sp)
800018e4: e588         	sd	a0, 0x8(a1)
800018e6: 7546         	ld	a0, 0x70(sp)
800018e8: e188         	sd	a0, 0x0(a1)
800018ea: 60ea         	ld	ra, 0x98(sp)
800018ec: 610d         	addi	sp, sp, 0xa0
800018ee: 8082         	ret

00000000800018f0 <.Lpcrel_hi66>:
800018f0: 00005517     	auipc	a0, 0x5
800018f4: 73050513     	addi	a0, a0, 0x730
800018f8: 00004097     	auipc	ra, 0x4
800018fc: 47e080e7     	jalr	0x47e(ra) <core::panicking::panic_null_pointer_dereference::hbac6411af4f2e916>

0000000080001900 <lab7_kernel_task1::configure_pmp::h0960290244b3be79>:
80001900: 557d         	li	a0, -0x1
80001902: 8109         	srli	a0, a0, 0x2
80001904: 3b051073     	csrw	pmpaddr0, a0
80001908: 457d         	li	a0, 0x1f
8000190a: 3a051073     	csrw	pmpcfg0, a0
8000190e: 8082         	ret

0000000080001910 <lab7_kernel_task1::read_user_u64::hfac043fe6072b434>:
80001910: 7159         	addi	sp, sp, -0x70
80001912: f486         	sd	ra, 0x68(sp)
80001914: 862e         	mv	a2, a1
80001916: e432         	sd	a2, 0x8(sp)
80001918: 85aa         	mv	a1, a0
8000191a: e8ae         	sd	a1, 0x50(sp)
8000191c: ecb2         	sd	a2, 0x58(sp)
8000191e: 0808         	addi	a0, sp, 0x10
80001920: 00001097     	auipc	ra, 0x1
80001924: 0f8080e7     	jalr	0xf8(ra) <lab7_kernel_task1::walk_proc_virtual::h3487b7495baaae21>
80001928: 6526         	ld	a0, 0x48(sp)
8000192a: 00000097     	auipc	ra, 0x0
8000192e: 96e080e7     	jalr	-0x692(ra) <lab7_kernel_task1::pte_is_valid::hcc4e5218d3abcea7>
80001932: ed01         	bnez	a0, 0x8000194a <.Lpcrel_hi67+0x14>
80001934: a009         	j	0x80001936 <.Lpcrel_hi67>

0000000080001936 <.Lpcrel_hi67>:
80001936: 00005517     	auipc	a0, 0x5
8000193a: 70250513     	addi	a0, a0, 0x702
8000193e: 02600593     	li	a1, 0x26
80001942: 00000097     	auipc	ra, 0x0
80001946: 8ea080e7     	jalr	-0x716(ra) <lab7_kernel_task1::kernel_fail::hfd169aa4d2aaf36c>
8000194a: 6526         	ld	a0, 0x48(sp)
8000194c: 00003097     	auipc	ra, 0x3
80001950: abc080e7     	jalr	-0x544(ra) <lab7_kernel_task1::pte_to_pa::h6dbbb41ce7ba67ed>
80001954: 85aa         	mv	a1, a0
80001956: 6522         	ld	a0, 0x8(sp)
80001958: 1552         	slli	a0, a0, 0x34
8000195a: 9151         	srli	a0, a0, 0x34
8000195c: 952e         	add	a0, a0, a1
8000195e: e02a         	sd	a0, 0x0(sp)
80001960: 02b56063     	bltu	a0, a1, 0x80001980 <.Lpcrel_hi69>
80001964: a009         	j	0x80001966 <.Lpcrel_hi67+0x30>
80001966: 6502         	ld	a0, 0x0(sp)
80001968: f0aa         	sd	a0, 0x60(sp)

000000008000196a <.Lpcrel_hi68>:
8000196a: 00005597     	auipc	a1, 0x5
8000196e: 70e58593     	addi	a1, a1, 0x70e
80001972: ffffe097     	auipc	ra, 0xffffe
80001976: 78e080e7     	jalr	0x78e(ra) <core::ptr::read_volatile::h7f4703e1409c8474>
8000197a: 70a6         	ld	ra, 0x68(sp)
8000197c: 6165         	addi	sp, sp, 0x70
8000197e: 8082         	ret

0000000080001980 <.Lpcrel_hi69>:
80001980: 00005517     	auipc	a0, 0x5
80001984: 6e050513     	addi	a0, a0, 0x6e0
80001988: 00004097     	auipc	ra, 0x4
8000198c: 30a080e7     	jalr	0x30a(ra) <core::panicking::panic_const::panic_const_add_overflow::h67cba067093910f8>

0000000080001990 <lab7_kernel_task1::satp_for_root::h687e32a682fd0bdc>:
80001990: 1141         	addi	sp, sp, -0x10
80001992: e42a         	sd	a0, 0x8(sp)
80001994: 8131         	srli	a0, a0, 0xc
80001996: 55fd         	li	a1, -0x1
80001998: 15fe         	slli	a1, a1, 0x3f
8000199a: 8d4d         	or	a0, a0, a1
8000199c: 0141         	addi	sp, sp, 0x10
8000199e: 8082         	ret

00000000800019a0 <lab7_kernel_task1::ProcessControl::empty::h14f79c684faccc4e>:
800019a0: 85aa         	mv	a1, a0
800019a2: 4501         	li	a0, 0x0
800019a4: e188         	sd	a0, 0x0(a1)
800019a6: e588         	sd	a0, 0x8(a1)
800019a8: e988         	sd	a0, 0x10(a1)
800019aa: 8082         	ret

00000000800019ac <lab7_kernel_task1::install_va_pte::hc4a890e7677af6a2>:
800019ac: 715d         	addi	sp, sp, -0x50
800019ae: e486         	sd	ra, 0x48(sp)
800019b0: e832         	sd	a2, 0x10(sp)
800019b2: ec2e         	sd	a1, 0x18(sp)
800019b4: 85aa         	mv	a1, a0
800019b6: 6562         	ld	a0, 0x18(sp)
800019b8: f02e         	sd	a1, 0x20(sp)
800019ba: f42e         	sd	a1, 0x28(sp)
800019bc: f82a         	sd	a0, 0x30(sp)
800019be: fc32         	sd	a2, 0x38(sp)
800019c0: 4505         	li	a0, 0x1
800019c2: 00b56a63     	bltu	a0, a1, 0x800019d6 <.Lpcrel_hi70+0xe>
800019c6: a009         	j	0x800019c8 <.Lpcrel_hi70>

00000000800019c8 <.Lpcrel_hi70>:
800019c8: 00015517     	auipc	a0, 0x15
800019cc: 63850513     	addi	a0, a0, 0x638
800019d0: 1552         	slli	a0, a0, 0x34
800019d2: cd01         	beqz	a0, 0x800019ea <.Lpcrel_hi72>
800019d4: a00d         	j	0x800019f6 <.Lpcrel_hi73>
800019d6: 7502         	ld	a0, 0x20(sp)

00000000800019d8 <.Lpcrel_hi71>:
800019d8: 00005597     	auipc	a1, 0x5
800019dc: 6b858613     	addi	a2, a1, 0x6b8
800019e0: 4589         	li	a1, 0x2
800019e2: 00004097     	auipc	ra, 0x4
800019e6: 328080e7     	jalr	0x328(ra) <core::panicking::panic_bounds_check::h6aaee0d15e0261eb>

00000000800019ea <.Lpcrel_hi72>:
800019ea: 00015517     	auipc	a0, 0x15
800019ee: 61650513     	addi	a0, a0, 0x616
800019f2: ed19         	bnez	a0, 0x80001a10 <.Lpcrel_hi74+0x12>
800019f4: a0a1         	j	0x80001a3c <.Lpcrel_hi76>

00000000800019f6 <.Lpcrel_hi73>:
800019f6: 00015517     	auipc	a0, 0x15
800019fa: 60a50593     	addi	a1, a0, 0x60a

00000000800019fe <.Lpcrel_hi74>:
800019fe: 00005517     	auipc	a0, 0x5
80001a02: 6aa50613     	addi	a2, a0, 0x6aa
80001a06: 6505         	lui	a0, 0x1
80001a08: 00004097     	auipc	ra, 0x4
80001a0c: 38e080e7     	jalr	0x38e(ra) <core::panicking::panic_misaligned_pointer_dereference::hda85f7fb51d959f0>
80001a10: 6562         	ld	a0, 0x18(sp)
80001a12: 7582         	ld	a1, 0x20(sp)
80001a14: 00c59613     	slli	a2, a1, 0xc

0000000080001a18 <.Lpcrel_hi75>:
80001a18: 00015597     	auipc	a1, 0x15
80001a1c: 5e858593     	addi	a1, a1, 0x5e8
80001a20: 95b2         	add	a1, a1, a2
80001a22: e02e         	sd	a1, 0x0(sp)
80001a24: e0ae         	sd	a1, 0x40(sp)
80001a26: fffff097     	auipc	ra, 0xfffff
80001a2a: 7e2080e7     	jalr	0x7e2(ra) <lab7_kernel_task1::vpn0_index::h03dd3a93713d0e2e>
80001a2e: 85aa         	mv	a1, a0
80001a30: e42e         	sd	a1, 0x8(sp)
80001a32: 20000593     	li	a1, 0x200
80001a36: 00b56b63     	bltu	a0, a1, 0x80001a4c <.Lpcrel_hi76+0x10>
80001a3a: a02d         	j	0x80001a64 <.Lpcrel_hi76+0x28>

0000000080001a3c <.Lpcrel_hi76>:
80001a3c: 00005517     	auipc	a0, 0x5
80001a40: 66c50513     	addi	a0, a0, 0x66c
80001a44: 00004097     	auipc	ra, 0x4
80001a48: 332080e7     	jalr	0x332(ra) <core::panicking::panic_null_pointer_dereference::hbac6411af4f2e916>
80001a4c: 6562         	ld	a0, 0x18(sp)
80001a4e: 65c2         	ld	a1, 0x10(sp)
80001a50: 6602         	ld	a2, 0x0(sp)
80001a52: 66a2         	ld	a3, 0x8(sp)
80001a54: 068e         	slli	a3, a3, 0x3
80001a56: 9636         	add	a2, a2, a3
80001a58: e20c         	sd	a1, 0x0(a2)
80001a5a: 12050073     	sfence.vma	a0
80001a5e: 60a6         	ld	ra, 0x48(sp)
80001a60: 6161         	addi	sp, sp, 0x50
80001a62: 8082         	ret
80001a64: 6522         	ld	a0, 0x8(sp)

0000000080001a66 <.Lpcrel_hi77>:
80001a66: 00005597     	auipc	a1, 0x5
80001a6a: 65a58613     	addi	a2, a1, 0x65a
80001a6e: 20000593     	li	a1, 0x200
80001a72: 00004097     	auipc	ra, 0x4
80001a76: 298080e7     	jalr	0x298(ra) <core::panicking::panic_bounds_check::h6aaee0d15e0261eb>

0000000080001a7a <lab7_kernel_task1::map_stack_page::h619ff164edb6f727>:
80001a7a: 7179         	addi	sp, sp, -0x30
80001a7c: f406         	sd	ra, 0x28(sp)
80001a7e: e02e         	sd	a1, 0x0(sp)
80001a80: 85aa         	mv	a1, a0
80001a82: 6502         	ld	a0, 0x0(sp)
80001a84: e42e         	sd	a1, 0x8(sp)
80001a86: e82e         	sd	a1, 0x10(sp)
80001a88: ec2a         	sd	a0, 0x18(sp)
80001a8a: 0d600593     	li	a1, 0xd6
80001a8e: f02e         	sd	a1, 0x20(sp)
80001a90: 00003097     	auipc	ra, 0x3
80001a94: 88c080e7     	jalr	-0x774(ra) <lab7_kernel_task1::leaf_pte::hb726d55f476e21c9>
80001a98: 862a         	mv	a2, a0
80001a9a: 6522         	ld	a0, 0x8(sp)
80001a9c: 004035b7     	lui	a1, 0x403
80001aa0: 00000097     	auipc	ra, 0x0
80001aa4: f0c080e7     	jalr	-0xf4(ra) <lab7_kernel_task1::install_va_pte::hc4a890e7677af6a2>
80001aa8: 70a2         	ld	ra, 0x28(sp)
80001aaa: 6145         	addi	sp, sp, 0x30
80001aac: 8082         	ret

0000000080001aae <lab7_kernel_task1::data_page_index::h0397f6d811e6e48e>:
80001aae: 715d         	addi	sp, sp, -0x50
80001ab0: e486         	sd	ra, 0x48(sp)
80001ab2: f42a         	sd	a0, 0x28(sp)
80001ab4: fc2a         	sd	a0, 0x38(sp)
80001ab6: 00000097     	auipc	ra, 0x0
80001aba: 2ee080e7     	jalr	0x2ee(ra) <lab7_kernel_task1::data_page_pool_pa::h14f2267dfbdd78b5>
80001abe: 85aa         	mv	a1, a0
80001ac0: 7522         	ld	a0, 0x28(sp)
80001ac2: 862e         	mv	a2, a1
80001ac4: f832         	sd	a2, 0x30(sp)
80001ac6: e0ae         	sd	a1, 0x40(sp)
80001ac8: 00b56863     	bltu	a0, a1, 0x80001ad8 <.Lpcrel_hi78>
80001acc: a009         	j	0x80001ace <lab7_kernel_task1::data_page_index::h0397f6d811e6e48e+0x20>
80001ace: 6511         	lui	a0, 0x4
80001ad0: f02a         	sd	a0, 0x20(sp)
80001ad2: 4501         	li	a0, 0x0
80001ad4: e11d         	bnez	a0, 0x80001afa <.Lpcrel_hi79>
80001ad6: a819         	j	0x80001aec <.Lpcrel_hi78+0x14>

0000000080001ad8 <.Lpcrel_hi78>:
80001ad8: 00005517     	auipc	a0, 0x5
80001adc: 66050513     	addi	a0, a0, 0x660
80001ae0: 02f00593     	li	a1, 0x2f
80001ae4: fffff097     	auipc	ra, 0xfffff
80001ae8: 748080e7     	jalr	0x748(ra) <lab7_kernel_task1::kernel_fail::hfd169aa4d2aaf36c>
80001aec: 75c2         	ld	a1, 0x30(sp)
80001aee: 7502         	ld	a0, 0x20(sp)
80001af0: 952e         	add	a0, a0, a1
80001af2: ec2a         	sd	a0, 0x18(sp)
80001af4: 02b56063     	bltu	a0, a1, 0x80001b14 <.Lpcrel_hi80>
80001af8: a809         	j	0x80001b0a <.Lpcrel_hi79+0x10>

0000000080001afa <.Lpcrel_hi79>:
80001afa: 00005517     	auipc	a0, 0x5
80001afe: 5de50513     	addi	a0, a0, 0x5de
80001b02: 00004097     	auipc	ra, 0x4
80001b06: 1ae080e7     	jalr	0x1ae(ra) <core::panicking::panic_const::panic_const_mul_overflow::h67897feae7531d51>
80001b0a: 7522         	ld	a0, 0x28(sp)
80001b0c: 65e2         	ld	a1, 0x18(sp)
80001b0e: fcb575e3     	bgeu	a0, a1, 0x80001ad8 <.Lpcrel_hi78>
80001b12: a809         	j	0x80001b24 <.Lpcrel_hi80+0x10>

0000000080001b14 <.Lpcrel_hi80>:
80001b14: 00005517     	auipc	a0, 0x5
80001b18: 5dc50513     	addi	a0, a0, 0x5dc
80001b1c: 00004097     	auipc	ra, 0x4
80001b20: 176080e7     	jalr	0x176(ra) <core::panicking::panic_const::panic_const_add_overflow::h67cba067093910f8>
80001b24: 7522         	ld	a0, 0x28(sp)
80001b26: 75c2         	ld	a1, 0x30(sp)
80001b28: 40b50633     	sub	a2, a0, a1
80001b2c: e832         	sd	a2, 0x10(sp)
80001b2e: 00b56763     	bltu	a0, a1, 0x80001b3c <.Lpcrel_hi81>
80001b32: a009         	j	0x80001b34 <.Lpcrel_hi80+0x20>
80001b34: 6542         	ld	a0, 0x10(sp)
80001b36: 1552         	slli	a0, a0, 0x34
80001b38: f145         	bnez	a0, 0x80001ad8 <.Lpcrel_hi78>
80001b3a: a809         	j	0x80001b4c <.Lpcrel_hi81+0x10>

0000000080001b3c <.Lpcrel_hi81>:
80001b3c: 00005517     	auipc	a0, 0x5
80001b40: 5cc50513     	addi	a0, a0, 0x5cc
80001b44: 00004097     	auipc	ra, 0x4
80001b48: 18a080e7     	jalr	0x18a(ra) <core::panicking::panic_const::panic_const_sub_overflow::hccc965ba9198de7c>
80001b4c: 7522         	ld	a0, 0x28(sp)
80001b4e: 75c2         	ld	a1, 0x30(sp)
80001b50: 40b50633     	sub	a2, a0, a1
80001b54: e432         	sd	a2, 0x8(sp)
80001b56: 00b56863     	bltu	a0, a1, 0x80001b66 <.Lpcrel_hi82>
80001b5a: a009         	j	0x80001b5c <.Lpcrel_hi81+0x20>
80001b5c: 6522         	ld	a0, 0x8(sp)
80001b5e: 8131         	srli	a0, a0, 0xc
80001b60: 60a6         	ld	ra, 0x48(sp)
80001b62: 6161         	addi	sp, sp, 0x50
80001b64: 8082         	ret

0000000080001b66 <.Lpcrel_hi82>:
80001b66: 00005517     	auipc	a0, 0x5
80001b6a: 5ba50513     	addi	a0, a0, 0x5ba
80001b6e: 00004097     	auipc	ra, 0x4
80001b72: 160080e7     	jalr	0x160(ra) <core::panicking::panic_const::panic_const_sub_overflow::hccc965ba9198de7c>

0000000080001b76 <lab7_kernel_task1::dev_l0_table_pa::h93de83069b3fa498>:
80001b76: 00011517     	auipc	a0, 0x11
80001b7a: 48a50513     	addi	a0, a0, 0x48a
80001b7e: 8082         	ret

0000000080001b80 <lab7_kernel_task1::leaf_level_name::hf7d199cdfabd4603>:
80001b80: 1101         	addi	sp, sp, -0x20
80001b82: e02a         	sd	a0, 0x0(sp)
80001b84: ec2a         	sd	a0, 0x18(sp)
80001b86: c505         	beqz	a0, 0x80001bae <.Lpcrel_hi85>
80001b88: a009         	j	0x80001b8a <lab7_kernel_task1::leaf_level_name::hf7d199cdfabd4603+0xa>
80001b8a: 6502         	ld	a0, 0x0(sp)
80001b8c: 4585         	li	a1, 0x1
80001b8e: 02b50863     	beq	a0, a1, 0x80001bbe <.Lpcrel_hi86>
80001b92: a009         	j	0x80001b94 <lab7_kernel_task1::leaf_level_name::hf7d199cdfabd4603+0x14>
80001b94: 6502         	ld	a0, 0x0(sp)
80001b96: 4589         	li	a1, 0x2
80001b98: 02b50b63     	beq	a0, a1, 0x80001bce <.Lpcrel_hi87>
80001b9c: a009         	j	0x80001b9e <.Lpcrel_hi84>

0000000080001b9e <.Lpcrel_hi84>:
80001b9e: 00005517     	auipc	a0, 0x5
80001ba2: 5d850513     	addi	a0, a0, 0x5d8
80001ba6: e42a         	sd	a0, 0x8(sp)
80001ba8: 451d         	li	a0, 0x7
80001baa: e82a         	sd	a0, 0x10(sp)
80001bac: a80d         	j	0x80001bde <.Lpcrel_hi87+0x10>

0000000080001bae <.Lpcrel_hi85>:
80001bae: 00005517     	auipc	a0, 0x5
80001bb2: 5b950513     	addi	a0, a0, 0x5b9
80001bb6: e42a         	sd	a0, 0x8(sp)
80001bb8: 4515         	li	a0, 0x5
80001bba: e82a         	sd	a0, 0x10(sp)
80001bbc: a00d         	j	0x80001bde <.Lpcrel_hi87+0x10>

0000000080001bbe <.Lpcrel_hi86>:
80001bbe: 00005517     	auipc	a0, 0x5
80001bc2: 5ae50513     	addi	a0, a0, 0x5ae
80001bc6: e42a         	sd	a0, 0x8(sp)
80001bc8: 4515         	li	a0, 0x5
80001bca: e82a         	sd	a0, 0x10(sp)
80001bcc: a809         	j	0x80001bde <.Lpcrel_hi87+0x10>

0000000080001bce <.Lpcrel_hi87>:
80001bce: 00005517     	auipc	a0, 0x5
80001bd2: 5a350513     	addi	a0, a0, 0x5a3
80001bd6: e42a         	sd	a0, 0x8(sp)
80001bd8: 4515         	li	a0, 0x5
80001bda: e82a         	sd	a0, 0x10(sp)
80001bdc: a009         	j	0x80001bde <.Lpcrel_hi87+0x10>
80001bde: 6522         	ld	a0, 0x8(sp)
80001be0: 65c2         	ld	a1, 0x10(sp)
80001be2: 6105         	addi	sp, sp, 0x20
80001be4: 8082         	ret

0000000080001be6 <lab7_kernel_task1::activate_process::h32f70cf55c791193>:
80001be6: 1101         	addi	sp, sp, -0x20
80001be8: 85aa         	mv	a1, a0
80001bea: e42e         	sd	a1, 0x8(sp)
80001bec: e82e         	sd	a1, 0x10(sp)
80001bee: 4505         	li	a0, 0x1
80001bf0: 00b56963     	bltu	a0, a1, 0x80001c02 <.Lpcrel_hi88+0xc>
80001bf4: a009         	j	0x80001bf6 <.Lpcrel_hi88>

0000000080001bf6 <.Lpcrel_hi88>:
80001bf6: 00007517     	auipc	a0, 0x7
80001bfa: 41250513     	addi	a0, a0, 0x412
80001bfe: ed01         	bnez	a0, 0x80001c16 <.Lpcrel_hi89+0x12>
80001c00: a835         	j	0x80001c3c <.Lpcrel_hi91>
80001c02: 6522         	ld	a0, 0x8(sp)

0000000080001c04 <.Lpcrel_hi89>:
80001c04: 00005597     	auipc	a1, 0x5
80001c08: 57c58613     	addi	a2, a1, 0x57c
80001c0c: 4589         	li	a1, 0x2
80001c0e: 00004097     	auipc	ra, 0x4
80001c12: 0fc080e7     	jalr	0xfc(ra) <core::panicking::panic_bounds_check::h6aaee0d15e0261eb>
80001c16: 6522         	ld	a0, 0x8(sp)
80001c18: 00351593     	slli	a1, a0, 0x3
80001c1c: 0516         	slli	a0, a0, 0x5
80001c1e: 40b505b3     	sub	a1, a0, a1

0000000080001c22 <.Lpcrel_hi90>:
80001c22: 00007517     	auipc	a0, 0x7
80001c26: 3e650513     	addi	a0, a0, 0x3e6
80001c2a: 952e         	add	a0, a0, a1
80001c2c: 6508         	ld	a0, 0x8(a0)
80001c2e: ec2a         	sd	a0, 0x18(sp)
80001c30: 18051073     	csrw	satp, a0
80001c34: 12000073     	sfence.vma
80001c38: 6105         	addi	sp, sp, 0x20
80001c3a: 8082         	ret

0000000080001c3c <.Lpcrel_hi91>:
80001c3c: 00005517     	auipc	a0, 0x5
80001c40: 54450513     	addi	a0, a0, 0x544
80001c44: 00004097     	auipc	ra, 0x4
80001c48: 132080e7     	jalr	0x132(ra) <core::panicking::panic_null_pointer_dereference::hbac6411af4f2e916>

0000000080001c4c <lab7_kernel_task1::clear_page_table::h8ca5e429a123d989>:
80001c4c: 711d         	addi	sp, sp, -0x60
80001c4e: ec86         	sd	ra, 0x58(sp)
80001c50: f02a         	sd	a0, 0x20(sp)
80001c52: e4aa         	sd	a0, 0x48(sp)
80001c54: 4501         	li	a0, 0x0
80001c56: 20000593     	li	a1, 0x200
80001c5a: fffff097     	auipc	ra, 0xfffff
80001c5e: cc8080e7     	jalr	-0x338(ra) <_$LT$I$u20$as$u20$core..iter..traits..collect..IntoIterator$GT$::into_iter::h5822f301be3c3603>
80001c62: f42a         	sd	a0, 0x28(sp)
80001c64: f82e         	sd	a1, 0x30(sp)
80001c66: a009         	j	0x80001c68 <lab7_kernel_task1::clear_page_table::h8ca5e429a123d989+0x1c>
80001c68: 1028         	addi	a0, sp, 0x28
80001c6a: fffff097     	auipc	ra, 0xfffff
80001c6e: ca4080e7     	jalr	-0x35c(ra) <core::iter::range::_$LT$impl$u20$core..iter..traits..iterator..Iterator$u20$for$u20$core..ops..range..Range$LT$A$GT$$GT$::next::he20788f8e9740484>
80001c72: fc2a         	sd	a0, 0x38(sp)
80001c74: e0ae         	sd	a1, 0x40(sp)
80001c76: 7562         	ld	a0, 0x38(sp)
80001c78: 8905         	andi	a0, a0, 0x1
80001c7a: cd01         	beqz	a0, 0x80001c92 <lab7_kernel_task1::clear_page_table::h8ca5e429a123d989+0x46>
80001c7c: a009         	j	0x80001c7e <lab7_kernel_task1::clear_page_table::h8ca5e429a123d989+0x32>
80001c7e: 6506         	ld	a0, 0x40(sp)
80001c80: e82a         	sd	a0, 0x10(sp)
80001c82: e8aa         	sd	a0, 0x50(sp)
80001c84: 20000593     	li	a1, 0x200
80001c88: 862a         	mv	a2, a0
80001c8a: ec32         	sd	a2, 0x18(sp)
80001c8c: 00b56663     	bltu	a0, a1, 0x80001c98 <lab7_kernel_task1::clear_page_table::h8ca5e429a123d989+0x4c>
80001c90: a811         	j	0x80001ca4 <lab7_kernel_task1::clear_page_table::h8ca5e429a123d989+0x58>
80001c92: 60e6         	ld	ra, 0x58(sp)
80001c94: 6125         	addi	sp, sp, 0x60
80001c96: 8082         	ret
80001c98: 7502         	ld	a0, 0x20(sp)
80001c9a: 85aa         	mv	a1, a0
80001c9c: 1552         	slli	a0, a0, 0x34
80001c9e: e42e         	sd	a1, 0x8(sp)
80001ca0: cd09         	beqz	a0, 0x80001cba <.Lpcrel_hi92+0x14>
80001ca2: a839         	j	0x80001cc0 <.Lpcrel_hi92+0x1a>
80001ca4: 6562         	ld	a0, 0x18(sp)

0000000080001ca6 <.Lpcrel_hi92>:
80001ca6: 00005597     	auipc	a1, 0x5
80001caa: 4f258613     	addi	a2, a1, 0x4f2
80001cae: 20000593     	li	a1, 0x200
80001cb2: 00004097     	auipc	ra, 0x4
80001cb6: 058080e7     	jalr	0x58(ra) <core::panicking::panic_bounds_check::h6aaee0d15e0261eb>
80001cba: 7502         	ld	a0, 0x20(sp)
80001cbc: ed01         	bnez	a0, 0x80001cd4 <.Lpcrel_hi93+0x12>
80001cbe: a015         	j	0x80001ce2 <.Lpcrel_hi94>
80001cc0: 65a2         	ld	a1, 0x8(sp)

0000000080001cc2 <.Lpcrel_hi93>:
80001cc2: 00005517     	auipc	a0, 0x5
80001cc6: 4d650613     	addi	a2, a0, 0x4d6
80001cca: 6505         	lui	a0, 0x1
80001ccc: 00004097     	auipc	ra, 0x4
80001cd0: 0ca080e7     	jalr	0xca(ra) <core::panicking::panic_misaligned_pointer_dereference::hda85f7fb51d959f0>
80001cd4: 7502         	ld	a0, 0x20(sp)
80001cd6: 65c2         	ld	a1, 0x10(sp)
80001cd8: 058e         	slli	a1, a1, 0x3
80001cda: 95aa         	add	a1, a1, a0
80001cdc: 4501         	li	a0, 0x0
80001cde: e188         	sd	a0, 0x0(a1)
80001ce0: b761         	j	0x80001c68 <lab7_kernel_task1::clear_page_table::h8ca5e429a123d989+0x1c>

0000000080001ce2 <.Lpcrel_hi94>:
80001ce2: 00005517     	auipc	a0, 0x5
80001ce6: 4b650513     	addi	a0, a0, 0x4b6
80001cea: 00004097     	auipc	ra, 0x4
80001cee: 08c080e7     	jalr	0x8c(ra) <core::panicking::panic_null_pointer_dereference::hbac6411af4f2e916>

0000000080001cf2 <lab7_kernel_task1::kernel_stack_top::hae6901bbb3177164>:
80001cf2: 00021517     	auipc	a0, 0x21
80001cf6: 31e50513     	addi	a0, a0, 0x31e
80001cfa: 8082         	ret

0000000080001cfc <lab7_kernel_task1::user_program_len::he76386aa174a32e6>:
80001cfc: fffff517     	auipc	a0, 0xfffff
80001d00: 3a450593     	addi	a1, a0, 0x3a4

0000000080001d04 <.Lpcrel_hi97>:
80001d04: fffff517     	auipc	a0, 0xfffff
80001d08: 44c50513     	addi	a0, a0, 0x44c
80001d0c: 00b56d63     	bltu	a0, a1, 0x80001d26 <.Lpcrel_hi100>
80001d10: a009         	j	0x80001d12 <.Lpcrel_hi98>

0000000080001d12 <.Lpcrel_hi98>:
80001d12: fffff517     	auipc	a0, 0xfffff
80001d16: 38e50593     	addi	a1, a0, 0x38e

0000000080001d1a <.Lpcrel_hi99>:
80001d1a: fffff517     	auipc	a0, 0xfffff
80001d1e: 43650513     	addi	a0, a0, 0x436
80001d22: 8d0d         	sub	a0, a0, a1
80001d24: 8082         	ret

0000000080001d26 <.Lpcrel_hi100>:
80001d26: 00005517     	auipc	a0, 0x5
80001d2a: 48a50513     	addi	a0, a0, 0x48a
80001d2e: 00004097     	auipc	ra, 0x4
80001d32: fa0080e7     	jalr	-0x60(ra) <core::panicking::panic_const::panic_const_sub_overflow::hccc965ba9198de7c>

0000000080001d36 <lab7_kernel_task1::copy_user_program::h7176c069f46d46b0>:
80001d36: 711d         	addi	sp, sp, -0x60
80001d38: ec86         	sd	ra, 0x58(sp)
80001d3a: 00000097     	auipc	ra, 0x0
80001d3e: fc2080e7     	jalr	-0x3e(ra) <lab7_kernel_task1::user_program_len::he76386aa174a32e6>
80001d42: 85aa         	mv	a1, a0

0000000080001d44 <.Lpcrel_hi101>:
80001d44: fffff517     	auipc	a0, 0xfffff
80001d48: 35c50513     	addi	a0, a0, 0x35c

0000000080001d4c <.Lpcrel_hi102>:
80001d4c: 00005617     	auipc	a2, 0x5
80001d50: 47c60613     	addi	a2, a2, 0x47c
80001d54: fffff097     	auipc	ra, 0xfffff
80001d58: d9c080e7     	jalr	-0x264(ra) <core::slice::raw::from_raw_parts::hbbde328e39f19402>
80001d5c: e42a         	sd	a0, 0x8(sp)
80001d5e: 872e         	mv	a4, a1
80001d60: e83a         	sd	a4, 0x10(sp)
80001d62: ec2a         	sd	a0, 0x18(sp)
80001d64: f03a         	sd	a4, 0x20(sp)
80001d66: e4aa         	sd	a0, 0x48(sp)
80001d68: e8ba         	sd	a4, 0x50(sp)

0000000080001d6a <.Lpcrel_hi103>:
80001d6a: 0000d597     	auipc	a1, 0xd
80001d6e: 29658593     	addi	a1, a1, 0x296
80001d72: e02e         	sd	a1, 0x0(sp)
80001d74: e0ae         	sd	a1, 0x40(sp)
80001d76: f42a         	sd	a0, 0x28(sp)
80001d78: f82e         	sd	a1, 0x30(sp)
80001d7a: fc3a         	sd	a4, 0x38(sp)

0000000080001d7c <.Lpcrel_hi104>:
80001d7c: 00006617     	auipc	a2, 0x6
80001d80: f5460793     	addi	a5, a2, -0xac
80001d84: 4685         	li	a3, 0x1
80001d86: 8636         	mv	a2, a3
80001d88: fffff097     	auipc	ra, 0xfffff
80001d8c: a92080e7     	jalr	-0x56e(ra) <core::ptr::copy_nonoverlapping::precondition_check::hb701bd79c5042e0e>
80001d90: 6502         	ld	a0, 0x0(sp)
80001d92: 65a2         	ld	a1, 0x8(sp)
80001d94: 6642         	ld	a2, 0x10(sp)
80001d96: 00004097     	auipc	ra, 0x4
80001d9a: 1aa080e7     	jalr	0x1aa(ra) <memcpy>
80001d9e: 60e6         	ld	ra, 0x58(sp)
80001da0: 6125         	addi	sp, sp, 0x60
80001da2: 8082         	ret

0000000080001da4 <lab7_kernel_task1::data_page_pool_pa::h14f2267dfbdd78b5>:
80001da4: 00008517     	auipc	a0, 0x8
80001da8: 25c50513     	addi	a0, a0, 0x25c
80001dac: 8082         	ret

0000000080001dae <lab7_kernel_task1::finish_experiment::ha7280b6e693acc3a>:
80001dae: ca010113     	addi	sp, sp, -0x360
80001db2: 34113c23     	sd	ra, 0x358(sp)

0000000080001db6 <.Lpcrel_hi106>:
80001db6: 0000e517     	auipc	a0, 0xe
80001dba: 24a50513     	addi	a0, a0, 0x24a
80001dbe: c105         	beqz	a0, 0x80001dde <.Lpcrel_hi108>
80001dc0: a009         	j	0x80001dc2 <.Lpcrel_hi107>

0000000080001dc2 <.Lpcrel_hi107>:
80001dc2: 0000e517     	auipc	a0, 0xe
80001dc6: 23e50513     	addi	a0, a0, 0x23e
80001dca: 6d0c         	ld	a1, 0x18(a0)
80001dcc: e0ae         	sd	a1, 0x40(sp)
80001dce: 690c         	ld	a1, 0x10(a0)
80001dd0: fc2e         	sd	a1, 0x38(sp)
80001dd2: 650c         	ld	a1, 0x8(a0)
80001dd4: f82e         	sd	a1, 0x30(sp)
80001dd6: 610c         	ld	a1, 0x0(a0)
80001dd8: f42e         	sd	a1, 0x28(sp)
80001dda: e911         	bnez	a0, 0x80001dee <.Lpcrel_hi109>
80001ddc: a40d         	j	0x80001ffe <.Lpcrel_hi113>

0000000080001dde <.Lpcrel_hi108>:
80001dde: 00005517     	auipc	a0, 0x5
80001de2: 40250513     	addi	a0, a0, 0x402
80001de6: 00004097     	auipc	ra, 0x4
80001dea: f90080e7     	jalr	-0x70(ra) <core::panicking::panic_null_pointer_dereference::hbac6411af4f2e916>

0000000080001dee <.Lpcrel_hi109>:
80001dee: 0000e517     	auipc	a0, 0xe
80001df2: 21250513     	addi	a0, a0, 0x212
80001df6: 7d0c         	ld	a1, 0x38(a0)
80001df8: f0ae         	sd	a1, 0x60(sp)
80001dfa: 790c         	ld	a1, 0x30(a0)
80001dfc: ecae         	sd	a1, 0x58(sp)
80001dfe: 750c         	ld	a1, 0x28(a0)
80001e00: e8ae         	sd	a1, 0x50(sp)
80001e02: 7108         	ld	a0, 0x20(a0)
80001e04: e4aa         	sd	a0, 0x48(sp)
80001e06: 10a8         	addi	a0, sp, 0x68
80001e08: 4581         	li	a1, 0x0
80001e0a: e42e         	sd	a1, 0x8(sp)
80001e0c: 00402637     	lui	a2, 0x402
80001e10: e832         	sd	a2, 0x10(sp)
80001e12: 00001097     	auipc	ra, 0x1
80001e16: c06080e7     	jalr	-0x3fa(ra) <lab7_kernel_task1::walk_proc_virtual::h3487b7495baaae21>
80001e1a: 1128         	addi	a0, sp, 0xa8
80001e1c: 4585         	li	a1, 0x1
80001e1e: ec2e         	sd	a1, 0x18(sp)
80001e20: 00405637     	lui	a2, 0x405
80001e24: f032         	sd	a2, 0x20(sp)
80001e26: 00001097     	auipc	ra, 0x1
80001e2a: bf2080e7     	jalr	-0x40e(ra) <lab7_kernel_task1::walk_proc_virtual::h3487b7495baaae21>
80001e2e: 750a         	ld	a0, 0xa0(sp)
80001e30: 28a13023     	sd	a0, 0x280(sp)
80001e34: 656a         	ld	a0, 0x98(sp)
80001e36: 26a13c23     	sd	a0, 0x278(sp)
80001e3a: 654a         	ld	a0, 0x90(sp)
80001e3c: 26a13823     	sd	a0, 0x270(sp)
80001e40: 652a         	ld	a0, 0x88(sp)
80001e42: 26a13423     	sd	a0, 0x268(sp)
80001e46: 650a         	ld	a0, 0x80(sp)
80001e48: 26a13023     	sd	a0, 0x260(sp)
80001e4c: 7566         	ld	a0, 0x78(sp)
80001e4e: 24a13c23     	sd	a0, 0x258(sp)
80001e52: 7546         	ld	a0, 0x70(sp)
80001e54: 24a13823     	sd	a0, 0x250(sp)
80001e58: 7526         	ld	a0, 0x68(sp)
80001e5a: 24a13423     	sd	a0, 0x248(sp)
80001e5e: 04a8         	addi	a0, sp, 0x248
80001e60: 00003097     	auipc	ra, 0x3
80001e64: 882080e7     	jalr	-0x77e(ra) <_$LT$lab7_kernel_task1..WalkResult$u20$as$u20$lab7_kernel_task1..WalkPaExt$GT$::leaf_pte_to_pa::h7b1284f0231b7a88>
80001e68: f5aa         	sd	a0, 0xe8(sp)
80001e6a: 750e         	ld	a0, 0xe0(sp)
80001e6c: 2ca13023     	sd	a0, 0x2c0(sp)
80001e70: 656e         	ld	a0, 0xd8(sp)
80001e72: 2aa13c23     	sd	a0, 0x2b8(sp)
80001e76: 654e         	ld	a0, 0xd0(sp)
80001e78: 2aa13823     	sd	a0, 0x2b0(sp)
80001e7c: 652e         	ld	a0, 0xc8(sp)
80001e7e: 2aa13423     	sd	a0, 0x2a8(sp)
80001e82: 650e         	ld	a0, 0xc0(sp)
80001e84: 2aa13023     	sd	a0, 0x2a0(sp)
80001e88: 756a         	ld	a0, 0xb8(sp)
80001e8a: 28a13c23     	sd	a0, 0x298(sp)
80001e8e: 754a         	ld	a0, 0xb0(sp)
80001e90: 28a13823     	sd	a0, 0x290(sp)
80001e94: 752a         	ld	a0, 0xa8(sp)
80001e96: 28a13423     	sd	a0, 0x288(sp)
80001e9a: 0528         	addi	a0, sp, 0x288
80001e9c: 00003097     	auipc	ra, 0x3
80001ea0: 846080e7     	jalr	-0x7ba(ra) <_$LT$lab7_kernel_task1..WalkResult$u20$as$u20$lab7_kernel_task1..WalkPaExt$GT$::leaf_pte_to_pa::h7b1284f0231b7a88>
80001ea4: 65c2         	ld	a1, 0x10(sp)
80001ea6: 862a         	mv	a2, a0
80001ea8: 6522         	ld	a0, 0x8(sp)
80001eaa: f9b2         	sd	a2, 0xf0(sp)
80001eac: 00000097     	auipc	ra, 0x0
80001eb0: a64080e7     	jalr	-0x59c(ra) <lab7_kernel_task1::read_user_u64::hfac043fe6072b434>
80001eb4: 7582         	ld	a1, 0x20(sp)
80001eb6: 862a         	mv	a2, a0
80001eb8: 6562         	ld	a0, 0x18(sp)
80001eba: fdb2         	sd	a2, 0xf8(sp)
80001ebc: 00000097     	auipc	ra, 0x0
80001ec0: a54080e7     	jalr	-0x5ac(ra) <lab7_kernel_task1::read_user_u64::hfac043fe6072b434>
80001ec4: e22a         	sd	a0, 0x100(sp)
80001ec6: 752e         	ld	a0, 0xe8(sp)
80001ec8: 00001097     	auipc	ra, 0x1
80001ecc: fac080e7     	jalr	-0x54(ra) <lab7_kernel_task1::data_page_refcount::h2973ca6a59d5318c>
80001ed0: e62a         	sd	a0, 0x108(sp)
80001ed2: 11a8         	addi	a0, sp, 0xe8
80001ed4: ea2a         	sd	a0, 0x110(sp)
80001ed6: 1988         	addi	a0, sp, 0xf0
80001ed8: ee2a         	sd	a0, 0x118(sp)
80001eda: 19a8         	addi	a0, sp, 0xf8
80001edc: f22a         	sd	a0, 0x120(sp)
80001ede: 0208         	addi	a0, sp, 0x100
80001ee0: f62a         	sd	a0, 0x128(sp)
80001ee2: 0228         	addi	a0, sp, 0x108
80001ee4: fa2a         	sd	a0, 0x130(sp)
80001ee6: 65d2         	ld	a1, 0x110(sp)
80001ee8: 0328         	addi	a0, sp, 0x188
80001eea: ffffe097     	auipc	ra, 0xffffe
80001eee: 1f4080e7     	jalr	0x1f4(ra) <core::fmt::rt::Argument::new_lower_hex::hc0e20b6dd24f901a>
80001ef2: 65f2         	ld	a1, 0x118(sp)
80001ef4: 0b28         	addi	a0, sp, 0x198
80001ef6: ffffe097     	auipc	ra, 0xffffe
80001efa: 1e8080e7     	jalr	0x1e8(ra) <core::fmt::rt::Argument::new_lower_hex::hc0e20b6dd24f901a>
80001efe: 7592         	ld	a1, 0x120(sp)
80001f00: 1328         	addi	a0, sp, 0x1a8
80001f02: ffffe097     	auipc	ra, 0xffffe
80001f06: 1ba080e7     	jalr	0x1ba(ra) <core::fmt::rt::Argument::new_lower_hex::h97cd78ad3a047fe9>
80001f0a: 75b2         	ld	a1, 0x128(sp)
80001f0c: 1b28         	addi	a0, sp, 0x1b8
80001f0e: ffffe097     	auipc	ra, 0xffffe
80001f12: 1ae080e7     	jalr	0x1ae(ra) <core::fmt::rt::Argument::new_lower_hex::h97cd78ad3a047fe9>
80001f16: 75d2         	ld	a1, 0x130(sp)
80001f18: 03a8         	addi	a0, sp, 0x1c8
80001f1a: ffffe097     	auipc	ra, 0xffffe
80001f1e: 15e080e7     	jalr	0x15e(ra) <core::fmt::rt::Argument::new_display::ha62cb5597af22ae5>
80001f22: 655a         	ld	a0, 0x190(sp)
80001f24: e2aa         	sd	a0, 0x140(sp)
80001f26: 653a         	ld	a0, 0x188(sp)
80001f28: fe2a         	sd	a0, 0x138(sp)
80001f2a: 751a         	ld	a0, 0x1a0(sp)
80001f2c: eaaa         	sd	a0, 0x150(sp)
80001f2e: 657a         	ld	a0, 0x198(sp)
80001f30: e6aa         	sd	a0, 0x148(sp)
80001f32: 755a         	ld	a0, 0x1b0(sp)
80001f34: f2aa         	sd	a0, 0x160(sp)
80001f36: 753a         	ld	a0, 0x1a8(sp)
80001f38: eeaa         	sd	a0, 0x158(sp)
80001f3a: 651e         	ld	a0, 0x1c0(sp)
80001f3c: faaa         	sd	a0, 0x170(sp)
80001f3e: 757a         	ld	a0, 0x1b8(sp)
80001f40: f6aa         	sd	a0, 0x168(sp)
80001f42: 655e         	ld	a0, 0x1d0(sp)
80001f44: e32a         	sd	a0, 0x180(sp)
80001f46: 653e         	ld	a0, 0x1c8(sp)
80001f48: feaa         	sd	a0, 0x178(sp)

0000000080001f4a <.Lpcrel_hi110>:
80001f4a: 00005517     	auipc	a0, 0x5
80001f4e: 2c650513     	addi	a0, a0, 0x2c6
80001f52: 1a2c         	addi	a1, sp, 0x138
80001f54: ffffe097     	auipc	ra, 0xffffe
80001f58: 34a080e7     	jalr	0x34a(ra) <core::fmt::Arguments::new::h97a4bdfdfb1110c1>
80001f5c: fffff097     	auipc	ra, 0xfffff
80001f60: e7a080e7     	jalr	-0x186(ra) <lab7_kernel_task1::console::print::h4532f48a1410ef53>
80001f64: 6622         	ld	a2, 0x8(sp)
80001f66: 66c2         	ld	a3, 0x10(sp)
80001f68: 750a         	ld	a0, 0xa0(sp)
80001f6a: 30a13023     	sd	a0, 0x300(sp)
80001f6e: 656a         	ld	a0, 0x98(sp)
80001f70: 2ea13c23     	sd	a0, 0x2f8(sp)
80001f74: 654a         	ld	a0, 0x90(sp)
80001f76: 2ea13823     	sd	a0, 0x2f0(sp)
80001f7a: 652a         	ld	a0, 0x88(sp)
80001f7c: 2ea13423     	sd	a0, 0x2e8(sp)
80001f80: 650a         	ld	a0, 0x80(sp)
80001f82: 2ea13023     	sd	a0, 0x2e0(sp)
80001f86: 7566         	ld	a0, 0x78(sp)
80001f88: 2ca13c23     	sd	a0, 0x2d8(sp)
80001f8c: 7546         	ld	a0, 0x70(sp)
80001f8e: 2ca13823     	sd	a0, 0x2d0(sp)
80001f92: 7526         	ld	a0, 0x68(sp)
80001f94: 2ca13423     	sd	a0, 0x2c8(sp)

0000000080001f98 <.Lpcrel_hi111>:
80001f98: 00005517     	auipc	a0, 0x5
80001f9c: 2e950513     	addi	a0, a0, 0x2e9
80001fa0: 45b1         	li	a1, 0xc
80001fa2: 05b8         	addi	a4, sp, 0x2c8
80001fa4: 00001097     	auipc	ra, 0x1
80001fa8: 88c080e7     	jalr	-0x774(ra) <lab7_kernel_task1::print_walk_result::h2b05bcea9c811e04>
80001fac: 6662         	ld	a2, 0x18(sp)
80001fae: 7682         	ld	a3, 0x20(sp)
80001fb0: 750e         	ld	a0, 0xe0(sp)
80001fb2: 34a13023     	sd	a0, 0x340(sp)
80001fb6: 656e         	ld	a0, 0xd8(sp)
80001fb8: 32a13c23     	sd	a0, 0x338(sp)
80001fbc: 654e         	ld	a0, 0xd0(sp)
80001fbe: 32a13823     	sd	a0, 0x330(sp)
80001fc2: 652e         	ld	a0, 0xc8(sp)
80001fc4: 32a13423     	sd	a0, 0x328(sp)
80001fc8: 650e         	ld	a0, 0xc0(sp)
80001fca: 32a13023     	sd	a0, 0x320(sp)
80001fce: 756a         	ld	a0, 0xb8(sp)
80001fd0: 30a13c23     	sd	a0, 0x318(sp)
80001fd4: 754a         	ld	a0, 0xb0(sp)
80001fd6: 30a13823     	sd	a0, 0x310(sp)
80001fda: 752a         	ld	a0, 0xa8(sp)
80001fdc: 30a13423     	sd	a0, 0x308(sp)

0000000080001fe0 <.Lpcrel_hi112>:
80001fe0: 00005517     	auipc	a0, 0x5
80001fe4: 2ad50513     	addi	a0, a0, 0x2ad
80001fe8: 45ad         	li	a1, 0xb
80001fea: 0638         	addi	a4, sp, 0x308
80001fec: 00001097     	auipc	ra, 0x1
80001ff0: 844080e7     	jalr	-0x7bc(ra) <lab7_kernel_task1::print_walk_result::h2b05bcea9c811e04>
80001ff4: 04014503     	lbu	a0, 0x40(sp)
80001ff8: 8905         	andi	a0, a0, 0x1
80001ffa: ed11         	bnez	a0, 0x80002016 <.Lpcrel_hi113+0x18>
80001ffc: a809         	j	0x8000200e <.Lpcrel_hi113+0x10>

0000000080001ffe <.Lpcrel_hi113>:
80001ffe: 00005517     	auipc	a0, 0x5
80002002: 1fa50513     	addi	a0, a0, 0x1fa
80002006: 00004097     	auipc	ra, 0x4
8000200a: d70080e7     	jalr	-0x290(ra) <core::panicking::panic_null_pointer_dereference::hbac6411af4f2e916>
8000200e: 4501         	li	a0, 0x0
80002010: 1ca10f23     	sb	a0, 0x1de(sp)
80002014: a895         	j	0x80002088 <.Lpcrel_hi120+0xc>
80002016: 06014503     	lbu	a0, 0x60(sp)
8000201a: 8905         	andi	a0, a0, 0x1
8000201c: d96d         	beqz	a0, 0x8000200e <.Lpcrel_hi113+0x10>
8000201e: a009         	j	0x80002020 <.Lpcrel_hi114>

0000000080002020 <.Lpcrel_hi114>:
80002020: 00017517     	auipc	a0, 0x17
80002024: fe050513     	addi	a0, a0, -0x20
80002028: c919         	beqz	a0, 0x8000203e <.Lpcrel_hi116>
8000202a: a009         	j	0x8000202c <.Lpcrel_hi115>

000000008000202c <.Lpcrel_hi115>:
8000202c: 00017517     	auipc	a0, 0x17
80002030: fd450513     	addi	a0, a0, -0x2c
80002034: 6108         	ld	a0, 0x0(a0)
80002036: 4585         	li	a1, 0x1
80002038: 00b50b63     	beq	a0, a1, 0x8000204e <.Lpcrel_hi117>
8000203c: bfc9         	j	0x8000200e <.Lpcrel_hi113+0x10>

000000008000203e <.Lpcrel_hi116>:
8000203e: 00005517     	auipc	a0, 0x5
80002042: 25a50513     	addi	a0, a0, 0x25a
80002046: 00004097     	auipc	ra, 0x4
8000204a: d30080e7     	jalr	-0x2d0(ra) <core::panicking::panic_null_pointer_dereference::hbac6411af4f2e916>

000000008000204e <.Lpcrel_hi117>:
8000204e: 0000c517     	auipc	a0, 0xc
80002052: 1d250513     	addi	a0, a0, 0x1d2
80002056: c919         	beqz	a0, 0x8000206c <.Lpcrel_hi119>
80002058: a009         	j	0x8000205a <.Lpcrel_hi118>

000000008000205a <.Lpcrel_hi118>:
8000205a: 0000c517     	auipc	a0, 0xc
8000205e: 1c650513     	addi	a0, a0, 0x1c6
80002062: 00854503     	lbu	a0, 0x8(a0)
80002066: 8905         	andi	a0, a0, 0x1
80002068: e911         	bnez	a0, 0x8000207c <.Lpcrel_hi120>
8000206a: b755         	j	0x8000200e <.Lpcrel_hi113+0x10>

000000008000206c <.Lpcrel_hi119>:
8000206c: 00005517     	auipc	a0, 0x5
80002070: 24450513     	addi	a0, a0, 0x244
80002074: 00004097     	auipc	ra, 0x4
80002078: d02080e7     	jalr	-0x2fe(ra) <core::panicking::panic_null_pointer_dereference::hbac6411af4f2e916>

000000008000207c <.Lpcrel_hi120>:
8000207c: 0000c517     	auipc	a0, 0xc
80002080: 1a450513     	addi	a0, a0, 0x1a4
80002084: e919         	bnez	a0, 0x8000209a <.Lpcrel_hi122>
80002086: a01d         	j	0x800020ac <.Lpcrel_hi123>
80002088: 7522         	ld	a0, 0x28(sp)

000000008000208a <.Lpcrel_hi121>:
8000208a: 00005597     	auipc	a1, 0x5
8000208e: e5e58593     	addi	a1, a1, -0x1a2
80002092: 618c         	ld	a1, 0x0(a1)
80002094: 02b50863     	beq	a0, a1, 0x800020c4 <.Lpcrel_hi123+0x18>
80002098: a015         	j	0x800020bc <.Lpcrel_hi123+0x10>

000000008000209a <.Lpcrel_hi122>:
8000209a: 0000c517     	auipc	a0, 0xc
8000209e: 18650513     	addi	a0, a0, 0x186
800020a2: 00954503     	lbu	a0, 0x9(a0)
800020a6: 1ca10f23     	sb	a0, 0x1de(sp)
800020aa: bff9         	j	0x80002088 <.Lpcrel_hi120+0xc>

00000000800020ac <.Lpcrel_hi123>:
800020ac: 00005517     	auipc	a0, 0x5
800020b0: 21c50513     	addi	a0, a0, 0x21c
800020b4: 00004097     	auipc	ra, 0x4
800020b8: cc2080e7     	jalr	-0x33e(ra) <core::panicking::panic_null_pointer_dereference::hbac6411af4f2e916>
800020bc: 4501         	li	a0, 0x0
800020be: 1ca10fa3     	sb	a0, 0x1df(sp)
800020c2: a059         	j	0x80002148 <.Lpcrel_hi124+0x82>
800020c4: 6526         	ld	a0, 0x48(sp)

00000000800020c6 <.Lpcrel_hi124>:
800020c6: 00005597     	auipc	a1, 0x5
800020ca: e2258593     	addi	a1, a1, -0x1de
800020ce: 618c         	ld	a1, 0x0(a1)
800020d0: feb516e3     	bne	a0, a1, 0x800020bc <.Lpcrel_hi123+0x10>
800020d4: a009         	j	0x800020d6 <.Lpcrel_hi124+0x10>
800020d6: 6546         	ld	a0, 0x50(sp)
800020d8: 006085b7     	lui	a1, 0x608
800020dc: 15dd         	addi	a1, a1, -0x9
800020de: 1596         	slli	a1, a1, 0x25
800020e0: 0585         	addi	a1, a1, 0x1
800020e2: fcb51de3     	bne	a0, a1, 0x800020bc <.Lpcrel_hi123+0x10>
800020e6: a009         	j	0x800020e8 <.Lpcrel_hi124+0x22>
800020e8: 7542         	ld	a0, 0x30(sp)
800020ea: 006085b7     	lui	a1, 0x608
800020ee: 15dd         	addi	a1, a1, -0x9
800020f0: 1596         	slli	a1, a1, 0x25
800020f2: 0585         	addi	a1, a1, 0x1
800020f4: fcb514e3     	bne	a0, a1, 0x800020bc <.Lpcrel_hi123+0x10>
800020f8: a009         	j	0x800020fa <.Lpcrel_hi124+0x34>
800020fa: 7562         	ld	a0, 0x38(sp)
800020fc: 006085b7     	lui	a1, 0x608
80002100: 15dd         	addi	a1, a1, -0x9
80002102: 1596         	slli	a1, a1, 0x25
80002104: 0585         	addi	a1, a1, 0x1
80002106: fab51be3     	bne	a0, a1, 0x800020bc <.Lpcrel_hi123+0x10>
8000210a: a009         	j	0x8000210c <.Lpcrel_hi124+0x46>
8000210c: 756e         	ld	a0, 0xf8(sp)
8000210e: 006085b7     	lui	a1, 0x608
80002112: 15dd         	addi	a1, a1, -0x9
80002114: 1596         	slli	a1, a1, 0x25
80002116: 0585         	addi	a1, a1, 0x1
80002118: fab512e3     	bne	a0, a1, 0x800020bc <.Lpcrel_hi123+0x10>
8000211c: a009         	j	0x8000211e <.Lpcrel_hi124+0x58>
8000211e: 6512         	ld	a0, 0x100(sp)
80002120: 006085b7     	lui	a1, 0x608
80002124: 15dd         	addi	a1, a1, -0x9
80002126: 1596         	slli	a1, a1, 0x25
80002128: 0585         	addi	a1, a1, 0x1
8000212a: f8b519e3     	bne	a0, a1, 0x800020bc <.Lpcrel_hi123+0x10>
8000212e: a009         	j	0x80002130 <.Lpcrel_hi124+0x6a>
80002130: 752e         	ld	a0, 0xe8(sp)
80002132: 75ce         	ld	a1, 0xf0(sp)
80002134: f8b514e3     	bne	a0, a1, 0x800020bc <.Lpcrel_hi123+0x10>
80002138: a009         	j	0x8000213a <.Lpcrel_hi124+0x74>
8000213a: 6532         	ld	a0, 0x108(sp)
8000213c: 1575         	addi	a0, a0, -0x3
8000213e: 00153513     	seqz	a0, a0
80002142: 1ca10fa3     	sb	a0, 0x1df(sp)
80002146: a009         	j	0x80002148 <.Lpcrel_hi124+0x82>
80002148: 1de14503     	lbu	a0, 0x1de(sp)
8000214c: 00002097     	auipc	ra, 0x2
80002150: 28a080e7     	jalr	0x28a(ra) <lab7_kernel_task1::pass_fail::h4def3edbd25f0ddb>
80002154: f3aa         	sd	a0, 0x1e0(sp)
80002156: f7ae         	sd	a1, 0x1e8(sp)
80002158: 138c         	addi	a1, sp, 0x1e0
8000215a: 34b13423     	sd	a1, 0x348(sp)
8000215e: 0408         	addi	a0, sp, 0x200
80002160: ffffe097     	auipc	ra, 0xffffe
80002164: ed4080e7     	jalr	-0x12c(ra) <core::fmt::rt::Argument::new_display::h48d813f7f5d25d2b>
80002168: 20813503     	ld	a0, 0x208(sp)
8000216c: ffaa         	sd	a0, 0x1f8(sp)
8000216e: 20013503     	ld	a0, 0x200(sp)
80002172: fbaa         	sd	a0, 0x1f0(sp)

0000000080002174 <.Lpcrel_hi125>:
80002174: 00004517     	auipc	a0, 0x4
80002178: 15550513     	addi	a0, a0, 0x155
8000217c: 1b8c         	addi	a1, sp, 0x1f0
8000217e: ffffe097     	auipc	ra, 0xffffe
80002182: 0d0080e7     	jalr	0xd0(ra) <core::fmt::Arguments::new::h34019cdcd51c6bce>
80002186: fffff097     	auipc	ra, 0xfffff
8000218a: c50080e7     	jalr	-0x3b0(ra) <lab7_kernel_task1::console::print::h4532f48a1410ef53>
8000218e: 1df14503     	lbu	a0, 0x1df(sp)
80002192: 00002097     	auipc	ra, 0x2
80002196: 244080e7     	jalr	0x244(ra) <lab7_kernel_task1::pass_fail::h4def3edbd25f0ddb>
8000219a: 20a13823     	sd	a0, 0x210(sp)
8000219e: 20b13c23     	sd	a1, 0x218(sp)
800021a2: 0c0c         	addi	a1, sp, 0x210
800021a4: 34b13823     	sd	a1, 0x350(sp)
800021a8: 1c08         	addi	a0, sp, 0x230
800021aa: ffffe097     	auipc	ra, 0xffffe
800021ae: e8a080e7     	jalr	-0x176(ra) <core::fmt::rt::Argument::new_display::h48d813f7f5d25d2b>
800021b2: 23813503     	ld	a0, 0x238(sp)
800021b6: 22a13423     	sd	a0, 0x228(sp)
800021ba: 23013503     	ld	a0, 0x230(sp)
800021be: 22a13023     	sd	a0, 0x220(sp)

00000000800021c2 <.Lpcrel_hi126>:
800021c2: 00004517     	auipc	a0, 0x4
800021c6: 0ac50513     	addi	a0, a0, 0xac
800021ca: 140c         	addi	a1, sp, 0x220
800021cc: ffffe097     	auipc	ra, 0xffffe
800021d0: 06e080e7     	jalr	0x6e(ra) <core::fmt::Arguments::new::h297b901e5bbc895c>
800021d4: fffff097     	auipc	ra, 0xfffff
800021d8: c02080e7     	jalr	-0x3fe(ra) <lab7_kernel_task1::console::print::h4532f48a1410ef53>
800021dc: 1de14503     	lbu	a0, 0x1de(sp)
800021e0: 8905         	andi	a0, a0, 0x1
800021e2: e511         	bnez	a0, 0x800021ee <.Lpcrel_hi126+0x2c>
800021e4: a009         	j	0x800021e6 <.Lpcrel_hi126+0x24>
800021e6: 4505         	li	a0, 0x1
800021e8: 24a12223     	sw	a0, 0x244(sp)
800021ec: a811         	j	0x80002200 <.Lpcrel_hi126+0x3e>
800021ee: 1df14503     	lbu	a0, 0x1df(sp)
800021f2: 8905         	andi	a0, a0, 0x1
800021f4: d96d         	beqz	a0, 0x800021e6 <.Lpcrel_hi126+0x24>
800021f6: a009         	j	0x800021f8 <.Lpcrel_hi126+0x36>
800021f8: 4501         	li	a0, 0x0
800021fa: 24a12223     	sw	a0, 0x244(sp)
800021fe: a009         	j	0x80002200 <.Lpcrel_hi126+0x3e>
80002200: 24412503     	lw	a0, 0x244(sp)
80002204: 00002097     	auipc	ra, 0x2
80002208: 210080e7     	jalr	0x210(ra) <lab7_kernel_task1::qemu_exit::h3658abe717466651>

000000008000220c <lab7_kernel_task1::handle_user_ecall::hd8190b8324dbc207>:
8000220c: 7151         	addi	sp, sp, -0xf0
8000220e: f586         	sd	ra, 0xe8(sp)
80002210: f42a         	sd	a0, 0x28(sp)
80002212: 75a2         	ld	a1, 0x28(sp)
80002214: 4505         	li	a0, 0x1
80002216: 00b56963     	bltu	a0, a1, 0x80002228 <.Lpcrel_hi127+0xc>
8000221a: a009         	j	0x8000221c <.Lpcrel_hi127>

000000008000221c <.Lpcrel_hi127>:
8000221c: 0000c517     	auipc	a0, 0xc
80002220: e0450513     	addi	a0, a0, -0x1fc
80002224: ed01         	bnez	a0, 0x8000223c <.Lpcrel_hi128+0x12>
80002226: a815         	j	0x8000225a <.Lpcrel_hi130>
80002228: 7522         	ld	a0, 0x28(sp)

000000008000222a <.Lpcrel_hi128>:
8000222a: 00005597     	auipc	a1, 0x5
8000222e: 0b658613     	addi	a2, a1, 0xb6
80002232: 4589         	li	a1, 0x2
80002234: 00004097     	auipc	ra, 0x4
80002238: ad6080e7     	jalr	-0x52a(ra) <core::panicking::panic_bounds_check::h6aaee0d15e0261eb>
8000223c: 7522         	ld	a0, 0x28(sp)
8000223e: 00851593     	slli	a1, a0, 0x8

0000000080002242 <.Lpcrel_hi129>:
80002242: 0000c517     	auipc	a0, 0xc
80002246: dde50513     	addi	a0, a0, -0x222
8000224a: 952e         	add	a0, a0, a1
8000224c: 7d28         	ld	a0, 0x78(a0)
8000224e: e0aa         	sd	a0, 0x40(sp)
80002250: 7522         	ld	a0, 0x28(sp)
80002252: 4589         	li	a1, 0x2
80002254: 00b56b63     	bltu	a0, a1, 0x8000226a <.Lpcrel_hi131>
80002258: a839         	j	0x80002276 <.Lpcrel_hi131+0xc>

000000008000225a <.Lpcrel_hi130>:
8000225a: 00005517     	auipc	a0, 0x5
8000225e: 08650513     	addi	a0, a0, 0x86
80002262: 00004097     	auipc	ra, 0x4
80002266: b14080e7     	jalr	-0x4ec(ra) <core::panicking::panic_null_pointer_dereference::hbac6411af4f2e916>

000000008000226a <.Lpcrel_hi131>:
8000226a: 0000c517     	auipc	a0, 0xc
8000226e: db650513     	addi	a0, a0, -0x24a
80002272: ed01         	bnez	a0, 0x8000228a <.Lpcrel_hi132+0x12>
80002274: a815         	j	0x800022a8 <.Lpcrel_hi134>
80002276: 7522         	ld	a0, 0x28(sp)

0000000080002278 <.Lpcrel_hi132>:
80002278: 00005597     	auipc	a1, 0x5
8000227c: 08058613     	addi	a2, a1, 0x80
80002280: 4589         	li	a1, 0x2
80002282: 00004097     	auipc	ra, 0x4
80002286: a88080e7     	jalr	-0x578(ra) <core::panicking::panic_bounds_check::h6aaee0d15e0261eb>
8000228a: 7522         	ld	a0, 0x28(sp)
8000228c: 00851593     	slli	a1, a0, 0x8

0000000080002290 <.Lpcrel_hi133>:
80002290: 0000c517     	auipc	a0, 0xc
80002294: d9050513     	addi	a0, a0, -0x270
80002298: 952e         	add	a0, a0, a1
8000229a: 7d6c         	ld	a1, 0xf8(a0)
8000229c: 00458513     	addi	a0, a1, 0x4
800022a0: f02a         	sd	a0, 0x20(sp)
800022a2: 02b56163     	bltu	a0, a1, 0x800022c4 <.Lpcrel_hi136>
800022a6: a809         	j	0x800022b8 <.Lpcrel_hi135>

00000000800022a8 <.Lpcrel_hi134>:
800022a8: 00005517     	auipc	a0, 0x5
800022ac: 05050513     	addi	a0, a0, 0x50
800022b0: 00004097     	auipc	ra, 0x4
800022b4: ac6080e7     	jalr	-0x53a(ra) <core::panicking::panic_null_pointer_dereference::hbac6411af4f2e916>

00000000800022b8 <.Lpcrel_hi135>:
800022b8: 0000c517     	auipc	a0, 0xc
800022bc: d6850513     	addi	a0, a0, -0x298
800022c0: e911         	bnez	a0, 0x800022d4 <.Lpcrel_hi136+0x10>
800022c2: a0a1         	j	0x8000230a <.Lpcrel_hi139>

00000000800022c4 <.Lpcrel_hi136>:
800022c4: 00005517     	auipc	a0, 0x5
800022c8: 03450513     	addi	a0, a0, 0x34
800022cc: 00004097     	auipc	ra, 0x4
800022d0: 9c6080e7     	jalr	-0x63a(ra) <core::panicking::panic_const::panic_const_add_overflow::h67cba067093910f8>
800022d4: 7502         	ld	a0, 0x20(sp)
800022d6: 75a2         	ld	a1, 0x28(sp)
800022d8: 00859613     	slli	a2, a1, 0x8

00000000800022dc <.Lpcrel_hi137>:
800022dc: 0000c597     	auipc	a1, 0xc
800022e0: d4458593     	addi	a1, a1, -0x2bc
800022e4: 95b2         	add	a1, a1, a2
800022e6: fde8         	sd	a0, 0xf8(a1)
800022e8: 6506         	ld	a0, 0x40(sp)
800022ea: fff50593     	addi	a1, a0, -0x1
800022ee: ec2e         	sd	a1, 0x18(sp)
800022f0: 4515         	li	a0, 0x5
800022f2: 02b56463     	bltu	a0, a1, 0x8000231a <.Lpcrel_hi139+0x10>
800022f6: 6562         	ld	a0, 0x18(sp)
800022f8: 00351593     	slli	a1, a0, 0x3

00000000800022fc <.Lpcrel_hi138>:
800022fc: 00005517     	auipc	a0, 0x5
80002300: c1c50513     	addi	a0, a0, -0x3e4
80002304: 952e         	add	a0, a0, a1
80002306: 6108         	ld	a0, 0x0(a0)
80002308: 8502         	jr	a0

000000008000230a <.Lpcrel_hi139>:
8000230a: 00005517     	auipc	a0, 0x5
8000230e: fee50513     	addi	a0, a0, -0x12
80002312: 00004097     	auipc	ra, 0x4
80002316: a64080e7     	jalr	-0x59c(ra) <core::panicking::panic_null_pointer_dereference::hbac6411af4f2e916>
8000231a: 7522         	ld	a0, 0x28(sp)
8000231c: 4589         	li	a1, 0x2
8000231e: 20b56c63     	bltu	a0, a1, 0x80002536 <.Lpcrel_hi160>
80002322: a405         	j	0x80002542 <.Lpcrel_hi160+0xc>
80002324: 00002097     	auipc	ra, 0x2
80002328: a2a080e7     	jalr	-0x5d6(ra) <lab7_kernel_task1::do_fork::h581ada43d236a0d1>
8000232c: 7522         	ld	a0, 0x28(sp)
8000232e: fc2a         	sd	a0, 0x38(sp)
80002330: 4505         	li	a0, 0x1
80002332: f82a         	sd	a0, 0x30(sp)
80002334: a891         	j	0x80002388 <.Lpcrel_hi139+0x7e>
80002336: 7522         	ld	a0, 0x28(sp)
80002338: 00001097     	auipc	ra, 0x1
8000233c: 61e080e7     	jalr	0x61e(ra) <lab7_kernel_task1::other_runnable_or_self::h0f8ccea00fd102c0>
80002340: fc2a         	sd	a0, 0x38(sp)
80002342: 4505         	li	a0, 0x1
80002344: f82a         	sd	a0, 0x30(sp)
80002346: a089         	j	0x80002388 <.Lpcrel_hi139+0x7e>
80002348: 7522         	ld	a0, 0x28(sp)
8000234a: 00001097     	auipc	ra, 0x1
8000234e: 204080e7     	jalr	0x204(ra) <lab7_kernel_task1::store_process_report::h645e6e0ef8820e1f>
80002352: 7522         	ld	a0, 0x28(sp)
80002354: fc2a         	sd	a0, 0x38(sp)
80002356: 4505         	li	a0, 0x1
80002358: f82a         	sd	a0, 0x30(sp)
8000235a: a03d         	j	0x80002388 <.Lpcrel_hi139+0x7e>
8000235c: 7522         	ld	a0, 0x28(sp)
8000235e: 4589         	li	a1, 0x2
80002360: 02b56963     	bltu	a0, a1, 0x80002392 <.Lpcrel_hi140>
80002364: a82d         	j	0x8000239e <.Lpcrel_hi140+0xc>
80002366: 00001097     	auipc	ra, 0x1
8000236a: 02c080e7     	jalr	0x2c(ra) <lab7_kernel_task1::create_shared_region::hc3231aa64316ecb5>
8000236e: 85aa         	mv	a1, a0
80002370: e82e         	sd	a1, 0x10(sp)
80002372: e5aa         	sd	a0, 0xc8(sp)
80002374: 7522         	ld	a0, 0x28(sp)
80002376: 4589         	li	a1, 0x2
80002378: 06b56963     	bltu	a0, a1, 0x800023ea <.Lpcrel_hi144>
8000237c: a8ad         	j	0x800023f6 <.Lpcrel_hi144+0xc>
8000237e: 7522         	ld	a0, 0x28(sp)
80002380: 4589         	li	a1, 0x2
80002382: 0ab56b63     	bltu	a0, a1, 0x80002438 <.Lpcrel_hi148>
80002386: a87d         	j	0x80002444 <.Lpcrel_hi148+0xc>
80002388: 7542         	ld	a0, 0x30(sp)
8000238a: 75e2         	ld	a1, 0x38(sp)
8000238c: 70ae         	ld	ra, 0xe8(sp)
8000238e: 616d         	addi	sp, sp, 0xf0
80002390: 8082         	ret

0000000080002392 <.Lpcrel_hi140>:
80002392: 00007517     	auipc	a0, 0x7
80002396: c7650513     	addi	a0, a0, -0x38a
8000239a: ed01         	bnez	a0, 0x800023b2 <.Lpcrel_hi141+0x12>
8000239c: a83d         	j	0x800023da <.Lpcrel_hi143>
8000239e: 7522         	ld	a0, 0x28(sp)

00000000800023a0 <.Lpcrel_hi141>:
800023a0: 00005597     	auipc	a1, 0x5
800023a4: f7058613     	addi	a2, a1, -0x90
800023a8: 4589         	li	a1, 0x2
800023aa: 00004097     	auipc	ra, 0x4
800023ae: 960080e7     	jalr	-0x6a0(ra) <core::panicking::panic_bounds_check::h6aaee0d15e0261eb>
800023b2: 7522         	ld	a0, 0x28(sp)
800023b4: 00351593     	slli	a1, a0, 0x3
800023b8: 0516         	slli	a0, a0, 0x5
800023ba: 40b505b3     	sub	a1, a0, a1

00000000800023be <.Lpcrel_hi142>:
800023be: 00007517     	auipc	a0, 0x7
800023c2: c4a50513     	addi	a0, a0, -0x3b6
800023c6: 95aa         	add	a1, a1, a0
800023c8: 4509         	li	a0, 0x2
800023ca: e188         	sd	a0, 0x0(a1)
800023cc: 00001097     	auipc	ra, 0x1
800023d0: 646080e7     	jalr	0x646(ra) <lab7_kernel_task1::next_runnable_after_exit::h1eb94ca950738ab1>
800023d4: f82a         	sd	a0, 0x30(sp)
800023d6: fc2e         	sd	a1, 0x38(sp)
800023d8: bf45         	j	0x80002388 <.Lpcrel_hi139+0x7e>

00000000800023da <.Lpcrel_hi143>:
800023da: 00005517     	auipc	a0, 0x5
800023de: f3650513     	addi	a0, a0, -0xca
800023e2: 00004097     	auipc	ra, 0x4
800023e6: 994080e7     	jalr	-0x66c(ra) <core::panicking::panic_null_pointer_dereference::hbac6411af4f2e916>

00000000800023ea <.Lpcrel_hi144>:
800023ea: 0000c517     	auipc	a0, 0xc
800023ee: c3650513     	addi	a0, a0, -0x3ca
800023f2: ed01         	bnez	a0, 0x8000240a <.Lpcrel_hi145+0x12>
800023f4: a815         	j	0x80002428 <.Lpcrel_hi147>
800023f6: 7522         	ld	a0, 0x28(sp)

00000000800023f8 <.Lpcrel_hi145>:
800023f8: 00005597     	auipc	a1, 0x5
800023fc: f3058613     	addi	a2, a1, -0xd0
80002400: 4589         	li	a1, 0x2
80002402: 00004097     	auipc	ra, 0x4
80002406: 908080e7     	jalr	-0x6f8(ra) <core::panicking::panic_bounds_check::h6aaee0d15e0261eb>
8000240a: 6542         	ld	a0, 0x10(sp)
8000240c: 75a2         	ld	a1, 0x28(sp)
8000240e: 00859613     	slli	a2, a1, 0x8

0000000080002412 <.Lpcrel_hi146>:
80002412: 0000c597     	auipc	a1, 0xc
80002416: c0e58593     	addi	a1, a1, -0x3f2
8000241a: 95b2         	add	a1, a1, a2
8000241c: e1a8         	sd	a0, 0x40(a1)
8000241e: 7522         	ld	a0, 0x28(sp)
80002420: fc2a         	sd	a0, 0x38(sp)
80002422: 4505         	li	a0, 0x1
80002424: f82a         	sd	a0, 0x30(sp)
80002426: b78d         	j	0x80002388 <.Lpcrel_hi139+0x7e>

0000000080002428 <.Lpcrel_hi147>:
80002428: 00005517     	auipc	a0, 0x5
8000242c: f0050513     	addi	a0, a0, -0x100
80002430: 00004097     	auipc	ra, 0x4
80002434: 946080e7     	jalr	-0x6ba(ra) <core::panicking::panic_null_pointer_dereference::hbac6411af4f2e916>

0000000080002438 <.Lpcrel_hi148>:
80002438: 0000c517     	auipc	a0, 0xc
8000243c: be850513     	addi	a0, a0, -0x418
80002440: ed01         	bnez	a0, 0x80002458 <.Lpcrel_hi149+0x12>
80002442: a81d         	j	0x80002478 <.Lpcrel_hi151>
80002444: 7522         	ld	a0, 0x28(sp)

0000000080002446 <.Lpcrel_hi149>:
80002446: 00005597     	auipc	a1, 0x5
8000244a: efa58613     	addi	a2, a1, -0x106
8000244e: 4589         	li	a1, 0x2
80002450: 00004097     	auipc	ra, 0x4
80002454: 8ba080e7     	jalr	-0x746(ra) <core::panicking::panic_bounds_check::h6aaee0d15e0261eb>
80002458: 7522         	ld	a0, 0x28(sp)
8000245a: 00851593     	slli	a1, a0, 0x8

000000008000245e <.Lpcrel_hi150>:
8000245e: 0000c517     	auipc	a0, 0xc
80002462: bc250513     	addi	a0, a0, -0x43e
80002466: 952e         	add	a0, a0, a1
80002468: 6128         	ld	a0, 0x40(a0)
8000246a: e42a         	sd	a0, 0x8(sp)
8000246c: e9aa         	sd	a0, 0xd0(sp)
8000246e: 7522         	ld	a0, 0x28(sp)
80002470: 4589         	li	a1, 0x2
80002472: 00b56b63     	bltu	a0, a1, 0x80002488 <.Lpcrel_hi152>
80002476: a839         	j	0x80002494 <.Lpcrel_hi152+0xc>

0000000080002478 <.Lpcrel_hi151>:
80002478: 00005517     	auipc	a0, 0x5
8000247c: ec850513     	addi	a0, a0, -0x138
80002480: 00004097     	auipc	ra, 0x4
80002484: 8f6080e7     	jalr	-0x70a(ra) <core::panicking::panic_null_pointer_dereference::hbac6411af4f2e916>

0000000080002488 <.Lpcrel_hi152>:
80002488: 0000c517     	auipc	a0, 0xc
8000248c: b9850513     	addi	a0, a0, -0x468
80002490: ed01         	bnez	a0, 0x800024a8 <.Lpcrel_hi153+0x12>
80002492: a099         	j	0x800024d8 <.Lpcrel_hi155>
80002494: 7522         	ld	a0, 0x28(sp)

0000000080002496 <.Lpcrel_hi153>:
80002496: 00005597     	auipc	a1, 0x5
8000249a: ec258613     	addi	a2, a1, -0x13e
8000249e: 4589         	li	a1, 0x2
800024a0: 00004097     	auipc	ra, 0x4
800024a4: 86a080e7     	jalr	-0x796(ra) <core::panicking::panic_bounds_check::h6aaee0d15e0261eb>
800024a8: 65a2         	ld	a1, 0x8(sp)
800024aa: 7522         	ld	a0, 0x28(sp)
800024ac: 00851613     	slli	a2, a0, 0x8

00000000800024b0 <.Lpcrel_hi154>:
800024b0: 0000c517     	auipc	a0, 0xc
800024b4: b7050513     	addi	a0, a0, -0x490
800024b8: 9532         	add	a0, a0, a2
800024ba: 6530         	ld	a2, 0x48(a0)
800024bc: edb2         	sd	a2, 0xd8(sp)
800024be: 7522         	ld	a0, 0x28(sp)
800024c0: 00000097     	auipc	ra, 0x0
800024c4: 126080e7     	jalr	0x126(ra) <lab7_kernel_task1::map_shared_region::hf59d800f4d234b7e>
800024c8: 85aa         	mv	a1, a0
800024ca: e02e         	sd	a1, 0x0(sp)
800024cc: f1aa         	sd	a0, 0xe0(sp)
800024ce: 7522         	ld	a0, 0x28(sp)
800024d0: 4589         	li	a1, 0x2
800024d2: 00b56b63     	bltu	a0, a1, 0x800024e8 <.Lpcrel_hi156>
800024d6: a839         	j	0x800024f4 <.Lpcrel_hi156+0xc>

00000000800024d8 <.Lpcrel_hi155>:
800024d8: 00005517     	auipc	a0, 0x5
800024dc: e8050513     	addi	a0, a0, -0x180
800024e0: 00004097     	auipc	ra, 0x4
800024e4: 896080e7     	jalr	-0x76a(ra) <core::panicking::panic_null_pointer_dereference::hbac6411af4f2e916>

00000000800024e8 <.Lpcrel_hi156>:
800024e8: 0000c517     	auipc	a0, 0xc
800024ec: b3850513     	addi	a0, a0, -0x4c8
800024f0: ed01         	bnez	a0, 0x80002508 <.Lpcrel_hi157+0x12>
800024f2: a815         	j	0x80002526 <.Lpcrel_hi159>
800024f4: 7522         	ld	a0, 0x28(sp)

00000000800024f6 <.Lpcrel_hi157>:
800024f6: 00005597     	auipc	a1, 0x5
800024fa: e7a58613     	addi	a2, a1, -0x186
800024fe: 4589         	li	a1, 0x2
80002500: 00004097     	auipc	ra, 0x4
80002504: 80a080e7     	jalr	-0x7f6(ra) <core::panicking::panic_bounds_check::h6aaee0d15e0261eb>
80002508: 6502         	ld	a0, 0x0(sp)
8000250a: 75a2         	ld	a1, 0x28(sp)
8000250c: 00859613     	slli	a2, a1, 0x8

0000000080002510 <.Lpcrel_hi158>:
80002510: 0000c597     	auipc	a1, 0xc
80002514: b1058593     	addi	a1, a1, -0x4f0
80002518: 95b2         	add	a1, a1, a2
8000251a: e1a8         	sd	a0, 0x40(a1)
8000251c: 7522         	ld	a0, 0x28(sp)
8000251e: fc2a         	sd	a0, 0x38(sp)
80002520: 4505         	li	a0, 0x1
80002522: f82a         	sd	a0, 0x30(sp)
80002524: b595         	j	0x80002388 <.Lpcrel_hi139+0x7e>

0000000080002526 <.Lpcrel_hi159>:
80002526: 00005517     	auipc	a0, 0x5
8000252a: e4a50513     	addi	a0, a0, -0x1b6
8000252e: 00004097     	auipc	ra, 0x4
80002532: 848080e7     	jalr	-0x7b8(ra) <core::panicking::panic_null_pointer_dereference::hbac6411af4f2e916>

0000000080002536 <.Lpcrel_hi160>:
80002536: 0000c517     	auipc	a0, 0xc
8000253a: aea50513     	addi	a0, a0, -0x516
8000253e: ed01         	bnez	a0, 0x80002556 <.Lpcrel_hi161+0x12>
80002540: a859         	j	0x800025d6 <.Lpcrel_hi164>
80002542: 7522         	ld	a0, 0x28(sp)

0000000080002544 <.Lpcrel_hi161>:
80002544: 00005597     	auipc	a1, 0x5
80002548: e4458613     	addi	a2, a1, -0x1bc
8000254c: 4589         	li	a1, 0x2
8000254e: 00003097     	auipc	ra, 0x3
80002552: 7bc080e7     	jalr	0x7bc(ra) <core::panicking::panic_bounds_check::h6aaee0d15e0261eb>
80002556: 7522         	ld	a0, 0x28(sp)
80002558: 00851593     	slli	a1, a0, 0x8

000000008000255c <.Lpcrel_hi162>:
8000255c: 0000c517     	auipc	a0, 0xc
80002560: ac450513     	addi	a0, a0, -0x53c
80002564: 952e         	add	a0, a0, a1
80002566: 6128         	ld	a0, 0x40(a0)
80002568: f0aa         	sd	a0, 0x60(sp)
8000256a: 1028         	addi	a0, sp, 0x28
8000256c: e4aa         	sd	a0, 0x48(sp)
8000256e: 0088         	addi	a0, sp, 0x40
80002570: e8aa         	sd	a0, 0x50(sp)
80002572: 1088         	addi	a0, sp, 0x60
80002574: ecaa         	sd	a0, 0x58(sp)
80002576: 65a6         	ld	a1, 0x48(sp)
80002578: 0928         	addi	a0, sp, 0x98
8000257a: ffffe097     	auipc	ra, 0xffffe
8000257e: afe080e7     	jalr	-0x502(ra) <core::fmt::rt::Argument::new_display::ha62cb5597af22ae5>
80002582: 65c6         	ld	a1, 0x50(sp)
80002584: 1128         	addi	a0, sp, 0xa8
80002586: ffffe097     	auipc	ra, 0xffffe
8000258a: af2080e7     	jalr	-0x50e(ra) <core::fmt::rt::Argument::new_display::ha62cb5597af22ae5>
8000258e: 65e6         	ld	a1, 0x58(sp)
80002590: 1928         	addi	a0, sp, 0xb8
80002592: ffffe097     	auipc	ra, 0xffffe
80002596: b4c080e7     	jalr	-0x4b4(ra) <core::fmt::rt::Argument::new_lower_hex::hc0e20b6dd24f901a>
8000259a: 750a         	ld	a0, 0xa0(sp)
8000259c: f8aa         	sd	a0, 0x70(sp)
8000259e: 656a         	ld	a0, 0x98(sp)
800025a0: f4aa         	sd	a0, 0x68(sp)
800025a2: 754a         	ld	a0, 0xb0(sp)
800025a4: e12a         	sd	a0, 0x80(sp)
800025a6: 752a         	ld	a0, 0xa8(sp)
800025a8: fcaa         	sd	a0, 0x78(sp)
800025aa: 650e         	ld	a0, 0xc0(sp)
800025ac: e92a         	sd	a0, 0x90(sp)
800025ae: 756a         	ld	a0, 0xb8(sp)
800025b0: e52a         	sd	a0, 0x88(sp)

00000000800025b2 <.Lpcrel_hi163>:
800025b2: 00005517     	auipc	a0, 0x5
800025b6: dee50513     	addi	a0, a0, -0x212
800025ba: 10ac         	addi	a1, sp, 0x68
800025bc: ffffe097     	auipc	ra, 0xffffe
800025c0: cb0080e7     	jalr	-0x350(ra) <core::fmt::Arguments::new::h490576d3b4a2ba1e>
800025c4: fffff097     	auipc	ra, 0xfffff
800025c8: 812080e7     	jalr	-0x7ee(ra) <lab7_kernel_task1::console::print::h4532f48a1410ef53>
800025cc: 4505         	li	a0, 0x1
800025ce: 00002097     	auipc	ra, 0x2
800025d2: e46080e7     	jalr	-0x1ba(ra) <lab7_kernel_task1::qemu_exit::h3658abe717466651>

00000000800025d6 <.Lpcrel_hi164>:
800025d6: 00005517     	auipc	a0, 0x5
800025da: db250513     	addi	a0, a0, -0x24e
800025de: 00003097     	auipc	ra, 0x3
800025e2: 798080e7     	jalr	0x798(ra) <core::panicking::panic_null_pointer_dereference::hbac6411af4f2e916>

00000000800025e6 <lab7_kernel_task1::map_shared_region::hf59d800f4d234b7e>:
800025e6: 7165         	addi	sp, sp, -0x190
800025e8: e706         	sd	ra, 0x188(sp)
800025ea: e42a         	sd	a0, 0x8(sp)
800025ec: e82e         	sd	a1, 0x10(sp)
800025ee: ec32         	sd	a2, 0x18(sp)

00000000800025f0 <.Lpcrel_hi165>:
800025f0: 00017517     	auipc	a0, 0x17
800025f4: a1050513     	addi	a0, a0, -0x5f0
800025f8: c919         	beqz	a0, 0x8000260e <.Lpcrel_hi167>
800025fa: a009         	j	0x800025fc <.Lpcrel_hi166>

00000000800025fc <.Lpcrel_hi166>:
800025fc: 00017517     	auipc	a0, 0x17
80002600: a0450513     	addi	a0, a0, -0x5fc
80002604: 610c         	ld	a1, 0x0(a0)
80002606: 6542         	ld	a0, 0x10(sp)
80002608: 02b57063     	bgeu	a0, a1, 0x80002628 <.Lpcrel_hi167+0x1a>
8000260c: a809         	j	0x8000261e <.Lpcrel_hi167+0x10>

000000008000260e <.Lpcrel_hi167>:
8000260e: 00005517     	auipc	a0, 0x5
80002612: dca50513     	addi	a0, a0, -0x236
80002616: 00003097     	auipc	ra, 0x3
8000261a: 760080e7     	jalr	0x760(ra) <core::panicking::panic_null_pointer_dereference::hbac6411af4f2e916>
8000261e: 01815503     	lhu	a0, 0x18(sp)
80002622: 1552         	slli	a0, a0, 0x34
80002624: e919         	bnez	a0, 0x8000263a <.Lpcrel_hi167+0x2c>
80002626: a021         	j	0x8000262e <.Lpcrel_hi167+0x20>
80002628: 557d         	li	a0, -0x1
8000262a: f02a         	sd	a0, 0x20(sp)
8000262c: aaf5         	j	0x80002828 <.Lpcrel_hi174+0x18>
8000262e: 6562         	ld	a0, 0x18(sp)
80002630: 004035b7     	lui	a1, 0x403
80002634: 00b50b63     	beq	a0, a1, 0x8000264a <.Lpcrel_hi167+0x3c>
80002638: a021         	j	0x80002640 <.Lpcrel_hi167+0x32>
8000263a: 557d         	li	a0, -0x1
8000263c: f02a         	sd	a0, 0x20(sp)
8000263e: a2ed         	j	0x80002828 <.Lpcrel_hi174+0x18>
80002640: 6542         	ld	a0, 0x10(sp)
80002642: 4589         	li	a1, 0x2
80002644: 06b56763     	bltu	a0, a1, 0x800026b2 <.Lpcrel_hi169>
80002648: a89d         	j	0x800026be <.Lpcrel_hi169+0xc>
8000264a: 0028         	addi	a0, sp, 0x8
8000264c: f42a         	sd	a0, 0x28(sp)
8000264e: 0808         	addi	a0, sp, 0x10
80002650: f82a         	sd	a0, 0x30(sp)
80002652: 0828         	addi	a0, sp, 0x18
80002654: fc2a         	sd	a0, 0x38(sp)
80002656: 75a2         	ld	a1, 0x28(sp)
80002658: 1888         	addi	a0, sp, 0x70
8000265a: ffffe097     	auipc	ra, 0xffffe
8000265e: a1e080e7     	jalr	-0x5e2(ra) <core::fmt::rt::Argument::new_display::ha62cb5597af22ae5>
80002662: 75c2         	ld	a1, 0x30(sp)
80002664: 0108         	addi	a0, sp, 0x80
80002666: ffffe097     	auipc	ra, 0xffffe
8000266a: a12080e7     	jalr	-0x5ee(ra) <core::fmt::rt::Argument::new_display::ha62cb5597af22ae5>
8000266e: 75e2         	ld	a1, 0x38(sp)
80002670: 0908         	addi	a0, sp, 0x90
80002672: ffffe097     	auipc	ra, 0xffffe
80002676: a6c080e7     	jalr	-0x594(ra) <core::fmt::rt::Argument::new_lower_hex::hc0e20b6dd24f901a>
8000267a: 7566         	ld	a0, 0x78(sp)
8000267c: e4aa         	sd	a0, 0x48(sp)
8000267e: 7546         	ld	a0, 0x70(sp)
80002680: e0aa         	sd	a0, 0x40(sp)
80002682: 652a         	ld	a0, 0x88(sp)
80002684: ecaa         	sd	a0, 0x58(sp)
80002686: 650a         	ld	a0, 0x80(sp)
80002688: e8aa         	sd	a0, 0x50(sp)
8000268a: 656a         	ld	a0, 0x98(sp)
8000268c: f4aa         	sd	a0, 0x68(sp)
8000268e: 654a         	ld	a0, 0x90(sp)
80002690: f0aa         	sd	a0, 0x60(sp)

0000000080002692 <.Lpcrel_hi168>:
80002692: 00005517     	auipc	a0, 0x5
80002696: de250513     	addi	a0, a0, -0x21e
8000269a: 008c         	addi	a1, sp, 0x40
8000269c: ffffe097     	auipc	ra, 0xffffe
800026a0: c34080e7     	jalr	-0x3cc(ra) <core::fmt::Arguments::new::hcf2884cd2e3e70a5>
800026a4: ffffe097     	auipc	ra, 0xffffe
800026a8: 732080e7     	jalr	0x732(ra) <lab7_kernel_task1::console::print::h4532f48a1410ef53>
800026ac: 557d         	li	a0, -0x1
800026ae: f02a         	sd	a0, 0x20(sp)
800026b0: aaa5         	j	0x80002828 <.Lpcrel_hi174+0x18>

00000000800026b2 <.Lpcrel_hi169>:
800026b2: 0000c517     	auipc	a0, 0xc
800026b6: b6e50513     	addi	a0, a0, -0x492
800026ba: ed01         	bnez	a0, 0x800026d2 <.Lpcrel_hi170+0x12>
800026bc: a805         	j	0x800026ec <.Lpcrel_hi172>
800026be: 6542         	ld	a0, 0x10(sp)

00000000800026c0 <.Lpcrel_hi170>:
800026c0: 00005597     	auipc	a1, 0x5
800026c4: d3058613     	addi	a2, a1, -0x2d0
800026c8: 4589         	li	a1, 0x2
800026ca: 00003097     	auipc	ra, 0x3
800026ce: 640080e7     	jalr	0x640(ra) <core::panicking::panic_bounds_check::h6aaee0d15e0261eb>
800026d2: 6542         	ld	a0, 0x10(sp)
800026d4: 00451593     	slli	a1, a0, 0x4

00000000800026d8 <.Lpcrel_hi171>:
800026d8: 0000c517     	auipc	a0, 0xc
800026dc: b4850513     	addi	a0, a0, -0x4b8
800026e0: 952e         	add	a0, a0, a1
800026e2: e02a         	sd	a0, 0x0(sp)
800026e4: feaa         	sd	a0, 0x178(sp)
800026e6: 6522         	ld	a0, 0x8(sp)
800026e8: c105         	beqz	a0, 0x80002708 <.Lpcrel_hi172+0x1c>
800026ea: a809         	j	0x800026fc <.Lpcrel_hi172+0x10>

00000000800026ec <.Lpcrel_hi172>:
800026ec: 00005517     	auipc	a0, 0x5
800026f0: d1c50513     	addi	a0, a0, -0x2e4
800026f4: 00003097     	auipc	ra, 0x3
800026f8: 682080e7     	jalr	0x682(ra) <core::panicking::panic_null_pointer_dereference::hbac6411af4f2e916>
800026fc: 6502         	ld	a0, 0x0(sp)
800026fe: 00954503     	lbu	a0, 0x9(a0)
80002702: 0aa103a3     	sb	a0, 0xa7(sp)
80002706: a039         	j	0x80002714 <.Lpcrel_hi172+0x28>
80002708: 6502         	ld	a0, 0x0(sp)
8000270a: 00854503     	lbu	a0, 0x8(a0)
8000270e: 0aa103a3     	sb	a0, 0xa7(sp)
80002712: a009         	j	0x80002714 <.Lpcrel_hi172+0x28>
80002714: 0a714503     	lbu	a0, 0xa7(sp)
80002718: 8905         	andi	a0, a0, 0x1
8000271a: e50d         	bnez	a0, 0x80002744 <.Lpcrel_hi172+0x58>
8000271c: a009         	j	0x8000271e <.Lpcrel_hi172+0x32>
8000271e: 6502         	ld	a0, 0x0(sp)
80002720: 6108         	ld	a0, 0x0(a0)
80002722: 0d600593     	li	a1, 0xd6
80002726: 00002097     	auipc	ra, 0x2
8000272a: bf6080e7     	jalr	-0x40a(ra) <lab7_kernel_task1::leaf_pte::hb726d55f476e21c9>
8000272e: 862a         	mv	a2, a0
80002730: e332         	sd	a2, 0x180(sp)
80002732: 6522         	ld	a0, 0x8(sp)
80002734: 65e2         	ld	a1, 0x18(sp)
80002736: fffff097     	auipc	ra, 0xfffff
8000273a: 276080e7     	jalr	0x276(ra) <lab7_kernel_task1::install_va_pte::hc4a890e7677af6a2>
8000273e: 6522         	ld	a0, 0x8(sp)
80002740: c911         	beqz	a0, 0x80002754 <.Lpcrel_hi172+0x68>
80002742: a021         	j	0x8000274a <.Lpcrel_hi172+0x5e>
80002744: 557d         	li	a0, -0x1
80002746: f02a         	sd	a0, 0x20(sp)
80002748: a0c5         	j	0x80002828 <.Lpcrel_hi174+0x18>
8000274a: 6582         	ld	a1, 0x0(sp)
8000274c: 4505         	li	a0, 0x1
8000274e: 00a584a3     	sb	a0, 0x9(a1)
80002752: a031         	j	0x8000275e <.Lpcrel_hi172+0x72>
80002754: 6582         	ld	a1, 0x0(sp)
80002756: 4505         	li	a0, 0x1
80002758: 00a58423     	sb	a0, 0x8(a1)
8000275c: a009         	j	0x8000275e <.Lpcrel_hi172+0x72>
8000275e: 6502         	ld	a0, 0x0(sp)
80002760: 6108         	ld	a0, 0x0(a0)
80002762: 00001097     	auipc	ra, 0x1
80002766: 52e080e7     	jalr	0x52e(ra) <lab7_kernel_task1::increment_data_page_refcount::h6668795be4856271>
8000276a: 6502         	ld	a0, 0x0(sp)
8000276c: 6108         	ld	a0, 0x0(a0)
8000276e: 00000097     	auipc	ra, 0x0
80002772: 706080e7     	jalr	0x706(ra) <lab7_kernel_task1::data_page_refcount::h2973ca6a59d5318c>
80002776: 85aa         	mv	a1, a0
80002778: 6502         	ld	a0, 0x0(sp)
8000277a: e9ae         	sd	a1, 0xd0(sp)
8000277c: 002c         	addi	a1, sp, 0x8
8000277e: f52e         	sd	a1, 0xa8(sp)
80002780: 080c         	addi	a1, sp, 0x10
80002782: f92e         	sd	a1, 0xb0(sp)
80002784: 082c         	addi	a1, sp, 0x18
80002786: fd2e         	sd	a1, 0xb8(sp)
80002788: e1aa         	sd	a0, 0xc0(sp)
8000278a: 0988         	addi	a0, sp, 0xd0
8000278c: e5aa         	sd	a0, 0xc8(sp)
8000278e: 75aa         	ld	a1, 0xa8(sp)
80002790: 1228         	addi	a0, sp, 0x128
80002792: ffffe097     	auipc	ra, 0xffffe
80002796: 8e6080e7     	jalr	-0x71a(ra) <core::fmt::rt::Argument::new_display::ha62cb5597af22ae5>
8000279a: 75ca         	ld	a1, 0xb0(sp)
8000279c: 1a28         	addi	a0, sp, 0x138
8000279e: ffffe097     	auipc	ra, 0xffffe
800027a2: 8da080e7     	jalr	-0x726(ra) <core::fmt::rt::Argument::new_display::ha62cb5597af22ae5>
800027a6: 75ea         	ld	a1, 0xb8(sp)
800027a8: 02a8         	addi	a0, sp, 0x148
800027aa: ffffe097     	auipc	ra, 0xffffe
800027ae: 934080e7     	jalr	-0x6cc(ra) <core::fmt::rt::Argument::new_lower_hex::hc0e20b6dd24f901a>
800027b2: 658e         	ld	a1, 0xc0(sp)
800027b4: 0aa8         	addi	a0, sp, 0x158
800027b6: ffffe097     	auipc	ra, 0xffffe
800027ba: 928080e7     	jalr	-0x6d8(ra) <core::fmt::rt::Argument::new_lower_hex::hc0e20b6dd24f901a>
800027be: 65ae         	ld	a1, 0xc8(sp)
800027c0: 12a8         	addi	a0, sp, 0x168
800027c2: ffffe097     	auipc	ra, 0xffffe
800027c6: 8b6080e7     	jalr	-0x74a(ra) <core::fmt::rt::Argument::new_display::ha62cb5597af22ae5>
800027ca: 7552         	ld	a0, 0x130(sp)
800027cc: f1aa         	sd	a0, 0xe0(sp)
800027ce: 7532         	ld	a0, 0x128(sp)
800027d0: edaa         	sd	a0, 0xd8(sp)
800027d2: 6516         	ld	a0, 0x140(sp)
800027d4: f9aa         	sd	a0, 0xf0(sp)
800027d6: 7572         	ld	a0, 0x138(sp)
800027d8: f5aa         	sd	a0, 0xe8(sp)
800027da: 6556         	ld	a0, 0x150(sp)
800027dc: e22a         	sd	a0, 0x100(sp)
800027de: 6536         	ld	a0, 0x148(sp)
800027e0: fdaa         	sd	a0, 0xf8(sp)
800027e2: 7516         	ld	a0, 0x160(sp)
800027e4: ea2a         	sd	a0, 0x110(sp)
800027e6: 6576         	ld	a0, 0x158(sp)
800027e8: e62a         	sd	a0, 0x108(sp)
800027ea: 7556         	ld	a0, 0x170(sp)
800027ec: f22a         	sd	a0, 0x120(sp)
800027ee: 7536         	ld	a0, 0x168(sp)
800027f0: ee2a         	sd	a0, 0x118(sp)

00000000800027f2 <.Lpcrel_hi173>:
800027f2: 00005517     	auipc	a0, 0x5
800027f6: c2e50513     	addi	a0, a0, -0x3d2
800027fa: 09ac         	addi	a1, sp, 0xd8
800027fc: ffffe097     	auipc	ra, 0xffffe
80002800: a2a080e7     	jalr	-0x5d6(ra) <core::fmt::Arguments::new::h04edb05b143dbe8b>
80002804: ffffe097     	auipc	ra, 0xffffe
80002808: 5d2080e7     	jalr	0x5d2(ra) <lab7_kernel_task1::console::print::h4532f48a1410ef53>
8000280c: 6622         	ld	a2, 0x8(sp)
8000280e: 66e2         	ld	a3, 0x18(sp)

0000000080002810 <.Lpcrel_hi174>:
80002810: 00005517     	auipc	a0, 0x5
80002814: c5a50513     	addi	a0, a0, -0x3a6
80002818: 45a9         	li	a1, 0xa
8000281a: fffff097     	auipc	ra, 0xfffff
8000281e: 98e080e7     	jalr	-0x672(ra) <lab7_kernel_task1::print_walk::h3a0e8dd3bad6c6e7>
80002822: 4501         	li	a0, 0x0
80002824: f02a         	sd	a0, 0x20(sp)
80002826: a009         	j	0x80002828 <.Lpcrel_hi174+0x18>
80002828: 7502         	ld	a0, 0x20(sp)
8000282a: 60ba         	ld	ra, 0x188(sp)
8000282c: 6159         	addi	sp, sp, 0x190
8000282e: 8082         	ret

0000000080002830 <lab7_kernel_task1::print_walk_result::h2b05bcea9c811e04>:
80002830: d7010113     	addi	sp, sp, -0x290
80002834: 28113423     	sd	ra, 0x288(sp)
80002838: e43a         	sd	a4, 0x8(sp)
8000283a: e0aa         	sd	a0, 0x40(sp)
8000283c: e4ae         	sd	a1, 0x48(sp)
8000283e: e8b2         	sd	a2, 0x50(sp)
80002840: ecb6         	sd	a3, 0x58(sp)
80002842: 00870513     	addi	a0, a4, 0x8
80002846: e82a         	sd	a0, 0x10(sp)
80002848: 01070513     	addi	a0, a4, 0x10
8000284c: ec2a         	sd	a0, 0x18(sp)
8000284e: 7b08         	ld	a0, 0x30(a4)
80002850: fffff097     	auipc	ra, 0xfffff
80002854: 330080e7     	jalr	0x330(ra) <lab7_kernel_task1::leaf_level_name::hf7d199cdfabd4603>
80002858: 6722         	ld	a4, 0x8(sp)
8000285a: e5aa         	sd	a0, 0xc8(sp)
8000285c: e9ae         	sd	a1, 0xd0(sp)
8000285e: 01870513     	addi	a0, a4, 0x18
80002862: f02a         	sd	a0, 0x20(sp)
80002864: 02070513     	addi	a0, a4, 0x20
80002868: f42a         	sd	a0, 0x28(sp)
8000286a: 02870513     	addi	a0, a4, 0x28
8000286e: f82a         	sd	a0, 0x30(sp)
80002870: 03870513     	addi	a0, a4, 0x38
80002874: fc2a         	sd	a0, 0x38(sp)
80002876: 7f08         	ld	a0, 0x38(a4)
80002878: 00002097     	auipc	ra, 0x2
8000287c: b90080e7     	jalr	-0x470(ra) <lab7_kernel_task1::pte_to_pa::h6dbbb41ce7ba67ed>
80002880: 6822         	ld	a6, 0x8(sp)
80002882: 67c2         	ld	a5, 0x10(sp)
80002884: 6762         	ld	a4, 0x18(sp)
80002886: 7682         	ld	a3, 0x20(sp)
80002888: 7622         	ld	a2, 0x28(sp)
8000288a: 75c2         	ld	a1, 0x30(sp)
8000288c: 88aa         	mv	a7, a0
8000288e: 7562         	ld	a0, 0x38(sp)
80002890: edc6         	sd	a7, 0xd8(sp)
80002892: 03883883     	ld	a7, 0x38(a6)
80002896: f1c6         	sd	a7, 0xe0(sp)
80002898: 04010893     	addi	a7, sp, 0x40
8000289c: f0c6         	sd	a7, 0x60(sp)
8000289e: 05010893     	addi	a7, sp, 0x50
800028a2: f4c6         	sd	a7, 0x68(sp)
800028a4: 05810893     	addi	a7, sp, 0x58
800028a8: f8c6         	sd	a7, 0x70(sp)
800028aa: fcc2         	sd	a6, 0x78(sp)
800028ac: e13e         	sd	a5, 0x80(sp)
800028ae: e53a         	sd	a4, 0x88(sp)
800028b0: 01b8         	addi	a4, sp, 0xc8
800028b2: e93a         	sd	a4, 0x90(sp)
800028b4: ed36         	sd	a3, 0x98(sp)
800028b6: f132         	sd	a2, 0xa0(sp)
800028b8: f52e         	sd	a1, 0xa8(sp)
800028ba: f92a         	sd	a0, 0xb0(sp)
800028bc: 09a8         	addi	a0, sp, 0xd8
800028be: fd2a         	sd	a0, 0xb8(sp)
800028c0: 1188         	addi	a0, sp, 0xe0
800028c2: e1aa         	sd	a0, 0xc0(sp)
800028c4: 7586         	ld	a1, 0x60(sp)
800028c6: 1b28         	addi	a0, sp, 0x1b8
800028c8: ffffd097     	auipc	ra, 0xffffd
800028cc: 76c080e7     	jalr	0x76c(ra) <core::fmt::rt::Argument::new_display::h48d813f7f5d25d2b>
800028d0: 75a6         	ld	a1, 0x68(sp)
800028d2: 03a8         	addi	a0, sp, 0x1c8
800028d4: ffffd097     	auipc	ra, 0xffffd
800028d8: 7a4080e7     	jalr	0x7a4(ra) <core::fmt::rt::Argument::new_display::ha62cb5597af22ae5>
800028dc: 75c6         	ld	a1, 0x70(sp)
800028de: 0ba8         	addi	a0, sp, 0x1d8
800028e0: ffffd097     	auipc	ra, 0xffffd
800028e4: 7fe080e7     	jalr	0x7fe(ra) <core::fmt::rt::Argument::new_lower_hex::hc0e20b6dd24f901a>
800028e8: 75e6         	ld	a1, 0x78(sp)
800028ea: 13a8         	addi	a0, sp, 0x1e8
800028ec: ffffd097     	auipc	ra, 0xffffd
800028f0: 78c080e7     	jalr	0x78c(ra) <core::fmt::rt::Argument::new_display::ha62cb5597af22ae5>
800028f4: 658a         	ld	a1, 0x80(sp)
800028f6: 1ba8         	addi	a0, sp, 0x1f8
800028f8: ffffd097     	auipc	ra, 0xffffd
800028fc: 780080e7     	jalr	0x780(ra) <core::fmt::rt::Argument::new_display::ha62cb5597af22ae5>
80002900: 65aa         	ld	a1, 0x88(sp)
80002902: 0428         	addi	a0, sp, 0x208
80002904: ffffd097     	auipc	ra, 0xffffd
80002908: 774080e7     	jalr	0x774(ra) <core::fmt::rt::Argument::new_display::ha62cb5597af22ae5>
8000290c: 65ca         	ld	a1, 0x90(sp)
8000290e: 0c28         	addi	a0, sp, 0x218
80002910: ffffd097     	auipc	ra, 0xffffd
80002914: 724080e7     	jalr	0x724(ra) <core::fmt::rt::Argument::new_display::h48d813f7f5d25d2b>
80002918: 65ea         	ld	a1, 0x98(sp)
8000291a: 1428         	addi	a0, sp, 0x228
8000291c: ffffd097     	auipc	ra, 0xffffd
80002920: 7c2080e7     	jalr	0x7c2(ra) <core::fmt::rt::Argument::new_lower_hex::hc0e20b6dd24f901a>
80002924: 758a         	ld	a1, 0xa0(sp)
80002926: 1c28         	addi	a0, sp, 0x238
80002928: ffffd097     	auipc	ra, 0xffffd
8000292c: 7b6080e7     	jalr	0x7b6(ra) <core::fmt::rt::Argument::new_lower_hex::hc0e20b6dd24f901a>
80002930: 75aa         	ld	a1, 0xa8(sp)
80002932: 04a8         	addi	a0, sp, 0x248
80002934: ffffd097     	auipc	ra, 0xffffd
80002938: 7aa080e7     	jalr	0x7aa(ra) <core::fmt::rt::Argument::new_lower_hex::hc0e20b6dd24f901a>
8000293c: 75ca         	ld	a1, 0xb0(sp)
8000293e: 0ca8         	addi	a0, sp, 0x258
80002940: ffffd097     	auipc	ra, 0xffffd
80002944: 79e080e7     	jalr	0x79e(ra) <core::fmt::rt::Argument::new_lower_hex::hc0e20b6dd24f901a>
80002948: 75ea         	ld	a1, 0xb8(sp)
8000294a: 14a8         	addi	a0, sp, 0x268
8000294c: ffffd097     	auipc	ra, 0xffffd
80002950: 792080e7     	jalr	0x792(ra) <core::fmt::rt::Argument::new_lower_hex::hc0e20b6dd24f901a>
80002954: 658e         	ld	a1, 0xc0(sp)
80002956: 1ca8         	addi	a0, sp, 0x278
80002958: ffffd097     	auipc	ra, 0xffffd
8000295c: 6fe080e7     	jalr	0x6fe(ra) <core::fmt::rt::Argument::new_display::h575eeb8f853dfbc3>
80002960: 651e         	ld	a0, 0x1c0(sp)
80002962: f9aa         	sd	a0, 0xf0(sp)
80002964: 757a         	ld	a0, 0x1b8(sp)
80002966: f5aa         	sd	a0, 0xe8(sp)
80002968: 655e         	ld	a0, 0x1d0(sp)
8000296a: e22a         	sd	a0, 0x100(sp)
8000296c: 653e         	ld	a0, 0x1c8(sp)
8000296e: fdaa         	sd	a0, 0xf8(sp)
80002970: 751e         	ld	a0, 0x1e0(sp)
80002972: ea2a         	sd	a0, 0x110(sp)
80002974: 657e         	ld	a0, 0x1d8(sp)
80002976: e62a         	sd	a0, 0x108(sp)
80002978: 755e         	ld	a0, 0x1f0(sp)
8000297a: f22a         	sd	a0, 0x120(sp)
8000297c: 753e         	ld	a0, 0x1e8(sp)
8000297e: ee2a         	sd	a0, 0x118(sp)
80002980: 20013503     	ld	a0, 0x200(sp)
80002984: fa2a         	sd	a0, 0x130(sp)
80002986: 757e         	ld	a0, 0x1f8(sp)
80002988: f62a         	sd	a0, 0x128(sp)
8000298a: 21013503     	ld	a0, 0x210(sp)
8000298e: e2aa         	sd	a0, 0x140(sp)
80002990: 20813503     	ld	a0, 0x208(sp)
80002994: fe2a         	sd	a0, 0x138(sp)
80002996: 22013503     	ld	a0, 0x220(sp)
8000299a: eaaa         	sd	a0, 0x150(sp)
8000299c: 21813503     	ld	a0, 0x218(sp)
800029a0: e6aa         	sd	a0, 0x148(sp)
800029a2: 23013503     	ld	a0, 0x230(sp)
800029a6: f2aa         	sd	a0, 0x160(sp)
800029a8: 22813503     	ld	a0, 0x228(sp)
800029ac: eeaa         	sd	a0, 0x158(sp)
800029ae: 24013503     	ld	a0, 0x240(sp)
800029b2: faaa         	sd	a0, 0x170(sp)
800029b4: 23813503     	ld	a0, 0x238(sp)
800029b8: f6aa         	sd	a0, 0x168(sp)
800029ba: 25013503     	ld	a0, 0x250(sp)
800029be: e32a         	sd	a0, 0x180(sp)
800029c0: 24813503     	ld	a0, 0x248(sp)
800029c4: feaa         	sd	a0, 0x178(sp)
800029c6: 26013503     	ld	a0, 0x260(sp)
800029ca: eb2a         	sd	a0, 0x190(sp)
800029cc: 25813503     	ld	a0, 0x258(sp)
800029d0: e72a         	sd	a0, 0x188(sp)
800029d2: 27013503     	ld	a0, 0x270(sp)
800029d6: f32a         	sd	a0, 0x1a0(sp)
800029d8: 26813503     	ld	a0, 0x268(sp)
800029dc: ef2a         	sd	a0, 0x198(sp)
800029de: 28013503     	ld	a0, 0x280(sp)
800029e2: fb2a         	sd	a0, 0x1b0(sp)
800029e4: 27813503     	ld	a0, 0x278(sp)
800029e8: f72a         	sd	a0, 0x1a8(sp)

00000000800029ea <.Lpcrel_hi175>:
800029ea: 00005517     	auipc	a0, 0x5
800029ee: ad750513     	addi	a0, a0, -0x529
800029f2: 11ac         	addi	a1, sp, 0xe8
800029f4: ffffe097     	auipc	ra, 0xffffe
800029f8: 8a0080e7     	jalr	-0x760(ra) <core::fmt::Arguments::new::h95800068d6bb5b6b>
800029fc: ffffe097     	auipc	ra, 0xffffe
80002a00: 3da080e7     	jalr	0x3da(ra) <lab7_kernel_task1::console::print::h4532f48a1410ef53>
80002a04: 28813083     	ld	ra, 0x288(sp)
80002a08: 29010113     	addi	sp, sp, 0x290
80002a0c: 8082         	ret

0000000080002a0e <lab7_kernel_task1::user_code_page_pa::h12b3c2eec482ec06>:
80002a0e: 0000c517     	auipc	a0, 0xc
80002a12: 5f250513     	addi	a0, a0, 0x5f2
80002a16: 8082         	ret

0000000080002a18 <lab7_kernel_task1::walk_proc_virtual::h3487b7495baaae21>:
80002a18: 7155         	addi	sp, sp, -0xd0
80002a1a: e586         	sd	ra, 0xc8(sp)
80002a1c: e8b2         	sd	a2, 0x50(sp)
80002a1e: e0ae         	sd	a1, 0x40(sp)
80002a20: fc2a         	sd	a0, 0x38(sp)
80002a22: f12e         	sd	a1, 0xa0(sp)
80002a24: f532         	sd	a2, 0xa8(sp)
80002a26: 1088         	addi	a0, sp, 0x60
80002a28: ffffe097     	auipc	ra, 0xffffe
80002a2c: 768080e7     	jalr	0x768(ra) <lab7_kernel_task1::WalkResult::zeroed::h409688c884421735>
80002a30: 6506         	ld	a0, 0x40(sp)
80002a32: 00001097     	auipc	ra, 0x1
80002a36: 8ba080e7     	jalr	-0x746(ra) <lab7_kernel_task1::proc_root_table_ptr::hf9893ff416a48b5e>
80002a3a: 85aa         	mv	a1, a0
80002a3c: 6546         	ld	a0, 0x50(sp)
80002a3e: 862e         	mv	a2, a1
80002a40: e4b2         	sd	a2, 0x48(sp)
80002a42: f92e         	sd	a1, 0xb0(sp)
80002a44: ffffe097     	auipc	ra, 0xffffe
80002a48: 7dc080e7     	jalr	0x7dc(ra) <lab7_kernel_task1::vpn2_index::h9a2fc6925fb82563>
80002a4c: 85aa         	mv	a1, a0
80002a4e: 6546         	ld	a0, 0x50(sp)
80002a50: f0ae         	sd	a1, 0x60(sp)
80002a52: ffffe097     	auipc	ra, 0xffffe
80002a56: 7c2080e7     	jalr	0x7c2(ra) <lab7_kernel_task1::vpn1_index::h0628f166b261c512>
80002a5a: 85aa         	mv	a1, a0
80002a5c: 6546         	ld	a0, 0x50(sp)
80002a5e: f4ae         	sd	a1, 0x68(sp)
80002a60: ffffe097     	auipc	ra, 0xffffe
80002a64: 7a8080e7     	jalr	0x7a8(ra) <lab7_kernel_task1::vpn0_index::h03dd3a93713d0e2e>
80002a68: f8aa         	sd	a0, 0x70(sp)
80002a6a: 7586         	ld	a1, 0x60(sp)
80002a6c: ecae         	sd	a1, 0x58(sp)
80002a6e: 1ff00513     	li	a0, 0x1ff
80002a72: 00b56963     	bltu	a0, a1, 0x80002a84 <lab7_kernel_task1::walk_proc_virtual::h3487b7495baaae21+0x6c>
80002a76: a009         	j	0x80002a78 <lab7_kernel_task1::walk_proc_virtual::h3487b7495baaae21+0x60>
80002a78: 6526         	ld	a0, 0x48(sp)
80002a7a: 85aa         	mv	a1, a0
80002a7c: f82e         	sd	a1, 0x30(sp)
80002a7e: 1552         	slli	a0, a0, 0x34
80002a80: cd09         	beqz	a0, 0x80002a9a <.Lpcrel_hi177+0x14>
80002a82: a839         	j	0x80002aa0 <.Lpcrel_hi177+0x1a>
80002a84: 6566         	ld	a0, 0x58(sp)

0000000080002a86 <.Lpcrel_hi177>:
80002a86: 00005597     	auipc	a1, 0x5
80002a8a: aca58613     	addi	a2, a1, -0x536
80002a8e: 20000593     	li	a1, 0x200
80002a92: 00003097     	auipc	ra, 0x3
80002a96: 278080e7     	jalr	0x278(ra) <core::panicking::panic_bounds_check::h6aaee0d15e0261eb>
80002a9a: 6526         	ld	a0, 0x48(sp)
80002a9c: ed01         	bnez	a0, 0x80002ab4 <.Lpcrel_hi178+0x12>
80002a9e: a805         	j	0x80002ace <.Lpcrel_hi179>
80002aa0: 75c2         	ld	a1, 0x30(sp)

0000000080002aa2 <.Lpcrel_hi178>:
80002aa2: 00005517     	auipc	a0, 0x5
80002aa6: aae50613     	addi	a2, a0, -0x552
80002aaa: 6505         	lui	a0, 0x1
80002aac: 00003097     	auipc	ra, 0x3
80002ab0: 2ea080e7     	jalr	0x2ea(ra) <core::panicking::panic_misaligned_pointer_dereference::hda85f7fb51d959f0>
80002ab4: 6526         	ld	a0, 0x48(sp)
80002ab6: 65e6         	ld	a1, 0x58(sp)
80002ab8: 058e         	slli	a1, a1, 0x3
80002aba: 952e         	add	a0, a0, a1
80002abc: 6108         	ld	a0, 0x0(a0)
80002abe: fcaa         	sd	a0, 0x78(sp)
80002ac0: 7566         	ld	a0, 0x78(sp)
80002ac2: ffffe097     	auipc	ra, 0xffffe
80002ac6: 7d6080e7     	jalr	0x7d6(ra) <lab7_kernel_task1::pte_is_valid::hcc4e5218d3abcea7>
80002aca: e121         	bnez	a0, 0x80002b0a <.Lpcrel_hi179+0x3c>
80002acc: a809         	j	0x80002ade <.Lpcrel_hi179+0x10>

0000000080002ace <.Lpcrel_hi179>:
80002ace: 00005517     	auipc	a0, 0x5
80002ad2: a8250513     	addi	a0, a0, -0x57e
80002ad6: 00003097     	auipc	ra, 0x3
80002ada: 2a0080e7     	jalr	0x2a0(ra) <core::panicking::panic_null_pointer_dereference::hbac6411af4f2e916>
80002ade: 75e2         	ld	a1, 0x38(sp)
80002ae0: 4509         	li	a0, 0x2
80002ae2: e92a         	sd	a0, 0x90(sp)
80002ae4: 7566         	ld	a0, 0x78(sp)
80002ae6: ed2a         	sd	a0, 0x98(sp)
80002ae8: 656a         	ld	a0, 0x98(sp)
80002aea: fd88         	sd	a0, 0x38(a1)
80002aec: 654a         	ld	a0, 0x90(sp)
80002aee: f988         	sd	a0, 0x30(a1)
80002af0: 652a         	ld	a0, 0x88(sp)
80002af2: f588         	sd	a0, 0x28(a1)
80002af4: 650a         	ld	a0, 0x80(sp)
80002af6: f188         	sd	a0, 0x20(a1)
80002af8: 7566         	ld	a0, 0x78(sp)
80002afa: ed88         	sd	a0, 0x18(a1)
80002afc: 7546         	ld	a0, 0x70(sp)
80002afe: e988         	sd	a0, 0x10(a1)
80002b00: 7526         	ld	a0, 0x68(sp)
80002b02: e588         	sd	a0, 0x8(a1)
80002b04: 7506         	ld	a0, 0x60(sp)
80002b06: e188         	sd	a0, 0x0(a1)
80002b08: aa85         	j	0x80002c78 <.Lpcrel_hi185+0x14>
80002b0a: 7566         	ld	a0, 0x78(sp)
80002b0c: ffffe097     	auipc	ra, 0xffffe
80002b10: 762080e7     	jalr	0x762(ra) <lab7_kernel_task1::pte_is_leaf::h21854ef84756cb20>
80002b14: f569         	bnez	a0, 0x80002ade <.Lpcrel_hi179+0x10>
80002b16: a009         	j	0x80002b18 <.Lpcrel_hi179+0x4a>
80002b18: 7566         	ld	a0, 0x78(sp)
80002b1a: 00002097     	auipc	ra, 0x2
80002b1e: 8ee080e7     	jalr	-0x712(ra) <lab7_kernel_task1::pte_to_pa::h6dbbb41ce7ba67ed>
80002b22: 85aa         	mv	a1, a0
80002b24: f02e         	sd	a1, 0x20(sp)
80002b26: 85aa         	mv	a1, a0
80002b28: f42e         	sd	a1, 0x28(sp)
80002b2a: 1552         	slli	a0, a0, 0x34
80002b2c: e509         	bnez	a0, 0x80002b36 <.Lpcrel_hi179+0x68>
80002b2e: a009         	j	0x80002b30 <.Lpcrel_hi179+0x62>
80002b30: 7502         	ld	a0, 0x20(sp)
80002b32: ed01         	bnez	a0, 0x80002b4a <.Lpcrel_hi180+0x12>
80002b34: a025         	j	0x80002b5c <.Lpcrel_hi181>
80002b36: 75a2         	ld	a1, 0x28(sp)

0000000080002b38 <.Lpcrel_hi180>:
80002b38: 00005517     	auipc	a0, 0x5
80002b3c: a3050613     	addi	a2, a0, -0x5d0
80002b40: 6505         	lui	a0, 0x1
80002b42: 00003097     	auipc	ra, 0x3
80002b46: 254080e7     	jalr	0x254(ra) <core::panicking::panic_misaligned_pointer_dereference::hda85f7fb51d959f0>
80002b4a: 7502         	ld	a0, 0x20(sp)
80002b4c: fd2a         	sd	a0, 0xb8(sp)
80002b4e: 7526         	ld	a0, 0x68(sp)
80002b50: ec2a         	sd	a0, 0x18(sp)
80002b52: 20000593     	li	a1, 0x200
80002b56: 00b56b63     	bltu	a0, a1, 0x80002b6c <.Lpcrel_hi181+0x10>
80002b5a: a035         	j	0x80002b86 <.Lpcrel_hi181+0x2a>

0000000080002b5c <.Lpcrel_hi181>:
80002b5c: 00005517     	auipc	a0, 0x5
80002b60: a0c50513     	addi	a0, a0, -0x5f4
80002b64: 00003097     	auipc	ra, 0x3
80002b68: 212080e7     	jalr	0x212(ra) <core::panicking::panic_null_pointer_dereference::hbac6411af4f2e916>
80002b6c: 7502         	ld	a0, 0x20(sp)
80002b6e: 65e2         	ld	a1, 0x18(sp)
80002b70: 058e         	slli	a1, a1, 0x3
80002b72: 952e         	add	a0, a0, a1
80002b74: 6108         	ld	a0, 0x0(a0)
80002b76: e12a         	sd	a0, 0x80(sp)
80002b78: 650a         	ld	a0, 0x80(sp)
80002b7a: ffffe097     	auipc	ra, 0xffffe
80002b7e: 71e080e7     	jalr	0x71e(ra) <lab7_kernel_task1::pte_is_valid::hcc4e5218d3abcea7>
80002b82: e139         	bnez	a0, 0x80002bc8 <.Lpcrel_hi182+0x40>
80002b84: a821         	j	0x80002b9c <.Lpcrel_hi182+0x14>
80002b86: 6562         	ld	a0, 0x18(sp)

0000000080002b88 <.Lpcrel_hi182>:
80002b88: 00005597     	auipc	a1, 0x5
80002b8c: 9f858613     	addi	a2, a1, -0x608
80002b90: 20000593     	li	a1, 0x200
80002b94: 00003097     	auipc	ra, 0x3
80002b98: 176080e7     	jalr	0x176(ra) <core::panicking::panic_bounds_check::h6aaee0d15e0261eb>
80002b9c: 75e2         	ld	a1, 0x38(sp)
80002b9e: 4505         	li	a0, 0x1
80002ba0: e92a         	sd	a0, 0x90(sp)
80002ba2: 650a         	ld	a0, 0x80(sp)
80002ba4: ed2a         	sd	a0, 0x98(sp)
80002ba6: 656a         	ld	a0, 0x98(sp)
80002ba8: fd88         	sd	a0, 0x38(a1)
80002baa: 654a         	ld	a0, 0x90(sp)
80002bac: f988         	sd	a0, 0x30(a1)
80002bae: 652a         	ld	a0, 0x88(sp)
80002bb0: f588         	sd	a0, 0x28(a1)
80002bb2: 650a         	ld	a0, 0x80(sp)
80002bb4: f188         	sd	a0, 0x20(a1)
80002bb6: 7566         	ld	a0, 0x78(sp)
80002bb8: ed88         	sd	a0, 0x18(a1)
80002bba: 7546         	ld	a0, 0x70(sp)
80002bbc: e988         	sd	a0, 0x10(a1)
80002bbe: 7526         	ld	a0, 0x68(sp)
80002bc0: e588         	sd	a0, 0x8(a1)
80002bc2: 7506         	ld	a0, 0x60(sp)
80002bc4: e188         	sd	a0, 0x0(a1)
80002bc6: a84d         	j	0x80002c78 <.Lpcrel_hi185+0x14>
80002bc8: 650a         	ld	a0, 0x80(sp)
80002bca: ffffe097     	auipc	ra, 0xffffe
80002bce: 6a4080e7     	jalr	0x6a4(ra) <lab7_kernel_task1::pte_is_leaf::h21854ef84756cb20>
80002bd2: f569         	bnez	a0, 0x80002b9c <.Lpcrel_hi182+0x14>
80002bd4: a009         	j	0x80002bd6 <.Lpcrel_hi182+0x4e>
80002bd6: 650a         	ld	a0, 0x80(sp)
80002bd8: 00002097     	auipc	ra, 0x2
80002bdc: 830080e7     	jalr	-0x7d0(ra) <lab7_kernel_task1::pte_to_pa::h6dbbb41ce7ba67ed>
80002be0: 85aa         	mv	a1, a0
80002be2: e42e         	sd	a1, 0x8(sp)
80002be4: 85aa         	mv	a1, a0
80002be6: e82e         	sd	a1, 0x10(sp)
80002be8: 1552         	slli	a0, a0, 0x34
80002bea: e509         	bnez	a0, 0x80002bf4 <.Lpcrel_hi182+0x6c>
80002bec: a009         	j	0x80002bee <.Lpcrel_hi182+0x66>
80002bee: 6522         	ld	a0, 0x8(sp)
80002bf0: ed01         	bnez	a0, 0x80002c08 <.Lpcrel_hi183+0x12>
80002bf2: a025         	j	0x80002c1a <.Lpcrel_hi184>
80002bf4: 65c2         	ld	a1, 0x10(sp)

0000000080002bf6 <.Lpcrel_hi183>:
80002bf6: 00005517     	auipc	a0, 0x5
80002bfa: 9a250613     	addi	a2, a0, -0x65e
80002bfe: 6505         	lui	a0, 0x1
80002c00: 00003097     	auipc	ra, 0x3
80002c04: 196080e7     	jalr	0x196(ra) <core::panicking::panic_misaligned_pointer_dereference::hda85f7fb51d959f0>
80002c08: 6522         	ld	a0, 0x8(sp)
80002c0a: e1aa         	sd	a0, 0xc0(sp)
80002c0c: 7546         	ld	a0, 0x70(sp)
80002c0e: e02a         	sd	a0, 0x0(sp)
80002c10: 20000593     	li	a1, 0x200
80002c14: 00b56b63     	bltu	a0, a1, 0x80002c2a <.Lpcrel_hi184+0x10>
80002c18: a0a9         	j	0x80002c62 <.Lpcrel_hi184+0x48>

0000000080002c1a <.Lpcrel_hi184>:
80002c1a: 00005517     	auipc	a0, 0x5
80002c1e: 97e50513     	addi	a0, a0, -0x682
80002c22: 00003097     	auipc	ra, 0x3
80002c26: 154080e7     	jalr	0x154(ra) <core::panicking::panic_null_pointer_dereference::hbac6411af4f2e916>
80002c2a: 75e2         	ld	a1, 0x38(sp)
80002c2c: 6522         	ld	a0, 0x8(sp)
80002c2e: 6602         	ld	a2, 0x0(sp)
80002c30: 060e         	slli	a2, a2, 0x3
80002c32: 9532         	add	a0, a0, a2
80002c34: 6108         	ld	a0, 0x0(a0)
80002c36: e52a         	sd	a0, 0x88(sp)
80002c38: 4501         	li	a0, 0x0
80002c3a: e92a         	sd	a0, 0x90(sp)
80002c3c: 652a         	ld	a0, 0x88(sp)
80002c3e: ed2a         	sd	a0, 0x98(sp)
80002c40: 656a         	ld	a0, 0x98(sp)
80002c42: fd88         	sd	a0, 0x38(a1)
80002c44: 654a         	ld	a0, 0x90(sp)
80002c46: f988         	sd	a0, 0x30(a1)
80002c48: 652a         	ld	a0, 0x88(sp)
80002c4a: f588         	sd	a0, 0x28(a1)
80002c4c: 650a         	ld	a0, 0x80(sp)
80002c4e: f188         	sd	a0, 0x20(a1)
80002c50: 7566         	ld	a0, 0x78(sp)
80002c52: ed88         	sd	a0, 0x18(a1)
80002c54: 7546         	ld	a0, 0x70(sp)
80002c56: e988         	sd	a0, 0x10(a1)
80002c58: 7526         	ld	a0, 0x68(sp)
80002c5a: e588         	sd	a0, 0x8(a1)
80002c5c: 7506         	ld	a0, 0x60(sp)
80002c5e: e188         	sd	a0, 0x0(a1)
80002c60: a821         	j	0x80002c78 <.Lpcrel_hi185+0x14>
80002c62: 6502         	ld	a0, 0x0(sp)

0000000080002c64 <.Lpcrel_hi185>:
80002c64: 00005597     	auipc	a1, 0x5
80002c68: 94c58613     	addi	a2, a1, -0x6b4
80002c6c: 20000593     	li	a1, 0x200
80002c70: 00003097     	auipc	ra, 0x3
80002c74: 09a080e7     	jalr	0x9a(ra) <core::panicking::panic_bounds_check::h6aaee0d15e0261eb>
80002c78: 60ae         	ld	ra, 0xc8(sp)
80002c7a: 6169         	addi	sp, sp, 0xd0
80002c7c: 8082         	ret

0000000080002c7e <lab7_kernel_task1::allocate_data_page::h702f3dc23d6e4bd1>:
80002c7e: 7119         	addi	sp, sp, -0x80
80002c80: fc86         	sd	ra, 0x78(sp)

0000000080002c82 <.Lpcrel_hi186>:
80002c82: 00013517     	auipc	a0, 0x13
80002c86: 37e50513     	addi	a0, a0, 0x37e
80002c8a: cd09         	beqz	a0, 0x80002ca4 <.Lpcrel_hi188>
80002c8c: a009         	j	0x80002c8e <.Lpcrel_hi187>

0000000080002c8e <.Lpcrel_hi187>:
80002c8e: 00013517     	auipc	a0, 0x13
80002c92: 37250513     	addi	a0, a0, 0x372
80002c96: 610c         	ld	a1, 0x0(a0)
80002c98: e0ae         	sd	a1, 0x40(sp)
80002c9a: e4ae         	sd	a1, 0x48(sp)
80002c9c: 450d         	li	a0, 0x3
80002c9e: 02b56863     	bltu	a0, a1, 0x80002cce <.Lpcrel_hi189>
80002ca2: a809         	j	0x80002cb4 <.Lpcrel_hi188+0x10>

0000000080002ca4 <.Lpcrel_hi188>:
80002ca4: 00005517     	auipc	a0, 0x5
80002ca8: 92450513     	addi	a0, a0, -0x6dc
80002cac: 00003097     	auipc	ra, 0x3
80002cb0: 0ca080e7     	jalr	0xca(ra) <core::panicking::panic_null_pointer_dereference::hbac6411af4f2e916>
80002cb4: fffff097     	auipc	ra, 0xfffff
80002cb8: 0f0080e7     	jalr	0xf0(ra) <lab7_kernel_task1::data_page_pool_pa::h14f2267dfbdd78b5>
80002cbc: 6586         	ld	a1, 0x40(sp)
80002cbe: f82a         	sd	a0, 0x30(sp)
80002cc0: 00c59513     	slli	a0, a1, 0xc
80002cc4: fc2a         	sd	a0, 0x38(sp)
80002cc6: 8131         	srli	a0, a0, 0xc
80002cc8: 02b51363     	bne	a0, a1, 0x80002cee <.Lpcrel_hi190>
80002ccc: a811         	j	0x80002ce0 <.Lpcrel_hi189+0x12>

0000000080002cce <.Lpcrel_hi189>:
80002cce: 00005517     	auipc	a0, 0x5
80002cd2: 98a50513     	addi	a0, a0, -0x676
80002cd6: 45e1         	li	a1, 0x18
80002cd8: ffffe097     	auipc	ra, 0xffffe
80002cdc: 554080e7     	jalr	0x554(ra) <lab7_kernel_task1::kernel_fail::hfd169aa4d2aaf36c>
80002ce0: 75c2         	ld	a1, 0x30(sp)
80002ce2: 7562         	ld	a0, 0x38(sp)
80002ce4: 952e         	add	a0, a0, a1
80002ce6: f42a         	sd	a0, 0x28(sp)
80002ce8: 04b56e63     	bltu	a0, a1, 0x80002d44 <.Lpcrel_hi192>
80002cec: a809         	j	0x80002cfe <.Lpcrel_hi190+0x10>

0000000080002cee <.Lpcrel_hi190>:
80002cee: 00005517     	auipc	a0, 0x5
80002cf2: 8f250513     	addi	a0, a0, -0x70e
80002cf6: 00003097     	auipc	ra, 0x3
80002cfa: fba080e7     	jalr	-0x46(ra) <core::panicking::panic_const::panic_const_mul_overflow::h67897feae7531d51>
80002cfe: 7522         	ld	a0, 0x28(sp)
80002d00: e8aa         	sd	a0, 0x50(sp)
80002d02: f0aa         	sd	a0, 0x60(sp)
80002d04: 4581         	li	a1, 0x0
80002d06: ec2e         	sd	a1, 0x18(sp)
80002d08: 06b107a3     	sb	a1, 0x6f(sp)
80002d0c: 6605         	lui	a2, 0x1
80002d0e: f032         	sd	a2, 0x20(sp)
80002d10: f8b2         	sd	a2, 0x70(sp)
80002d12: 04b10fa3     	sb	a1, 0x5f(sp)
80002d16: 05f14603     	lbu	a2, 0x5f(sp)

0000000080002d1a <.Lpcrel_hi191>:
80002d1a: 00005597     	auipc	a1, 0x5
80002d1e: f9e58693     	addi	a3, a1, -0x62
80002d22: 4585         	li	a1, 0x1
80002d24: ffffe097     	auipc	ra, 0xffffe
80002d28: a24080e7     	jalr	-0x5dc(ra) <core::ptr::write_bytes::precondition_check::ha2a8c0b9362eecea>
80002d2c: 7522         	ld	a0, 0x28(sp)
80002d2e: 65e2         	ld	a1, 0x18(sp)
80002d30: 7602         	ld	a2, 0x20(sp)
80002d32: 00003097     	auipc	ra, 0x3
80002d36: 198080e7     	jalr	0x198(ra) <memset>
80002d3a: 6506         	ld	a0, 0x40(sp)
80002d3c: 4591         	li	a1, 0x4
80002d3e: 00b56b63     	bltu	a0, a1, 0x80002d54 <.Lpcrel_hi193>
80002d42: a839         	j	0x80002d60 <.Lpcrel_hi193+0xc>

0000000080002d44 <.Lpcrel_hi192>:
80002d44: 00005517     	auipc	a0, 0x5
80002d48: 8b450513     	addi	a0, a0, -0x74c
80002d4c: 00003097     	auipc	ra, 0x3
80002d50: f46080e7     	jalr	-0xba(ra) <core::panicking::panic_const::panic_const_add_overflow::h67cba067093910f8>

0000000080002d54 <.Lpcrel_hi193>:
80002d54: 0000b517     	auipc	a0, 0xb
80002d58: 2ac50513     	addi	a0, a0, 0x2ac
80002d5c: ed01         	bnez	a0, 0x80002d74 <.Lpcrel_hi194+0x12>
80002d5e: a81d         	j	0x80002d94 <.Lpcrel_hi197>
80002d60: 6506         	ld	a0, 0x40(sp)

0000000080002d62 <.Lpcrel_hi194>:
80002d62: 00005597     	auipc	a1, 0x5
80002d66: 8ae58613     	addi	a2, a1, -0x752
80002d6a: 4591         	li	a1, 0x4
80002d6c: 00003097     	auipc	ra, 0x3
80002d70: f9e080e7     	jalr	-0x62(ra) <core::panicking::panic_bounds_check::h6aaee0d15e0261eb>
80002d74: 6506         	ld	a0, 0x40(sp)
80002d76: 00351593     	slli	a1, a0, 0x3

0000000080002d7a <.Lpcrel_hi195>:
80002d7a: 0000b517     	auipc	a0, 0xb
80002d7e: 28650513     	addi	a0, a0, 0x286
80002d82: 95aa         	add	a1, a1, a0
80002d84: 4505         	li	a0, 0x1
80002d86: e188         	sd	a0, 0x0(a1)

0000000080002d88 <.Lpcrel_hi196>:
80002d88: 00013517     	auipc	a0, 0x13
80002d8c: 27850513     	addi	a0, a0, 0x278
80002d90: e911         	bnez	a0, 0x80002da4 <.Lpcrel_hi198>
80002d92: a025         	j	0x80002dba <.Lpcrel_hi199>

0000000080002d94 <.Lpcrel_hi197>:
80002d94: 00005517     	auipc	a0, 0x5
80002d98: 87c50513     	addi	a0, a0, -0x784
80002d9c: 00003097     	auipc	ra, 0x3
80002da0: fda080e7     	jalr	-0x26(ra) <core::panicking::panic_null_pointer_dereference::hbac6411af4f2e916>

0000000080002da4 <.Lpcrel_hi198>:
80002da4: 00013517     	auipc	a0, 0x13
80002da8: 25c50513     	addi	a0, a0, 0x25c
80002dac: 610c         	ld	a1, 0x0(a0)
80002dae: 00158513     	addi	a0, a1, 0x1
80002db2: e82a         	sd	a0, 0x10(sp)
80002db4: 02b56163     	bltu	a0, a1, 0x80002dd6 <.Lpcrel_hi201>
80002db8: a809         	j	0x80002dca <.Lpcrel_hi200>

0000000080002dba <.Lpcrel_hi199>:
80002dba: 00005517     	auipc	a0, 0x5
80002dbe: 86e50513     	addi	a0, a0, -0x792
80002dc2: 00003097     	auipc	ra, 0x3
80002dc6: fb4080e7     	jalr	-0x4c(ra) <core::panicking::panic_null_pointer_dereference::hbac6411af4f2e916>

0000000080002dca <.Lpcrel_hi200>:
80002dca: 00013517     	auipc	a0, 0x13
80002dce: 23650513     	addi	a0, a0, 0x236
80002dd2: e911         	bnez	a0, 0x80002de6 <.Lpcrel_hi201+0x10>
80002dd4: a02d         	j	0x80002dfe <.Lpcrel_hi204>

0000000080002dd6 <.Lpcrel_hi201>:
80002dd6: 00005517     	auipc	a0, 0x5
80002dda: 85250513     	addi	a0, a0, -0x7ae
80002dde: 00003097     	auipc	ra, 0x3
80002de2: eb4080e7     	jalr	-0x14c(ra) <core::panicking::panic_const::panic_const_add_overflow::h67cba067093910f8>
80002de6: 6542         	ld	a0, 0x10(sp)

0000000080002de8 <.Lpcrel_hi202>:
80002de8: 00013597     	auipc	a1, 0x13
80002dec: 21858593     	addi	a1, a1, 0x218
80002df0: e188         	sd	a0, 0x0(a1)

0000000080002df2 <.Lpcrel_hi203>:
80002df2: 00018517     	auipc	a0, 0x18
80002df6: 20e50513     	addi	a0, a0, 0x20e
80002dfa: e911         	bnez	a0, 0x80002e0e <.Lpcrel_hi205>
80002dfc: a025         	j	0x80002e24 <.Lpcrel_hi206>

0000000080002dfe <.Lpcrel_hi204>:
80002dfe: 00005517     	auipc	a0, 0x5
80002e02: 82a50513     	addi	a0, a0, -0x7d6
80002e06: 00003097     	auipc	ra, 0x3
80002e0a: f70080e7     	jalr	-0x90(ra) <core::panicking::panic_null_pointer_dereference::hbac6411af4f2e916>

0000000080002e0e <.Lpcrel_hi205>:
80002e0e: 00018517     	auipc	a0, 0x18
80002e12: 1f250513     	addi	a0, a0, 0x1f2
80002e16: 610c         	ld	a1, 0x0(a0)
80002e18: 00158513     	addi	a0, a1, 0x1
80002e1c: e42a         	sd	a0, 0x8(sp)
80002e1e: 02b56163     	bltu	a0, a1, 0x80002e40 <.Lpcrel_hi208>
80002e22: a809         	j	0x80002e34 <.Lpcrel_hi207>

0000000080002e24 <.Lpcrel_hi206>:
80002e24: 00005517     	auipc	a0, 0x5
80002e28: 81c50513     	addi	a0, a0, -0x7e4
80002e2c: 00003097     	auipc	ra, 0x3
80002e30: f4a080e7     	jalr	-0xb6(ra) <core::panicking::panic_null_pointer_dereference::hbac6411af4f2e916>

0000000080002e34 <.Lpcrel_hi207>:
80002e34: 00018517     	auipc	a0, 0x18
80002e38: 1cc50513     	addi	a0, a0, 0x1cc
80002e3c: e911         	bnez	a0, 0x80002e50 <.Lpcrel_hi208+0x10>
80002e3e: a01d         	j	0x80002e64 <.Lpcrel_hi210>

0000000080002e40 <.Lpcrel_hi208>:
80002e40: 00005517     	auipc	a0, 0x5
80002e44: 80050513     	addi	a0, a0, -0x800
80002e48: 00003097     	auipc	ra, 0x3
80002e4c: e4a080e7     	jalr	-0x1b6(ra) <core::panicking::panic_const::panic_const_add_overflow::h67cba067093910f8>
80002e50: 7522         	ld	a0, 0x28(sp)
80002e52: 65a2         	ld	a1, 0x8(sp)

0000000080002e54 <.Lpcrel_hi209>:
80002e54: 00018617     	auipc	a2, 0x18
80002e58: 1ac60613     	addi	a2, a2, 0x1ac
80002e5c: e20c         	sd	a1, 0x0(a2)
80002e5e: 70e6         	ld	ra, 0x78(sp)
80002e60: 6109         	addi	sp, sp, 0x80
80002e62: 8082         	ret

0000000080002e64 <.Lpcrel_hi210>:
80002e64: 00004517     	auipc	a0, 0x4
80002e68: 7dc50513     	addi	a0, a0, 0x7dc
80002e6c: 00003097     	auipc	ra, 0x3
80002e70: f0a080e7     	jalr	-0xf6(ra) <core::panicking::panic_null_pointer_dereference::hbac6411af4f2e916>

0000000080002e74 <lab7_kernel_task1::data_page_refcount::h2973ca6a59d5318c>:
80002e74: 1101         	addi	sp, sp, -0x20
80002e76: ec06         	sd	ra, 0x18(sp)
80002e78: e82a         	sd	a0, 0x10(sp)
80002e7a: fffff097     	auipc	ra, 0xfffff
80002e7e: c34080e7     	jalr	-0x3cc(ra) <lab7_kernel_task1::data_page_index::h0397f6d811e6e48e>
80002e82: 85aa         	mv	a1, a0
80002e84: 852e         	mv	a0, a1
80002e86: e42a         	sd	a0, 0x8(sp)
80002e88: 450d         	li	a0, 0x3
80002e8a: 00b56963     	bltu	a0, a1, 0x80002e9c <.Lpcrel_hi211+0xc>
80002e8e: a009         	j	0x80002e90 <.Lpcrel_hi211>

0000000080002e90 <.Lpcrel_hi211>:
80002e90: 0000b517     	auipc	a0, 0xb
80002e94: 17050513     	addi	a0, a0, 0x170
80002e98: ed01         	bnez	a0, 0x80002eb0 <.Lpcrel_hi212+0x12>
80002e9a: a03d         	j	0x80002ec8 <.Lpcrel_hi214>
80002e9c: 6522         	ld	a0, 0x8(sp)

0000000080002e9e <.Lpcrel_hi212>:
80002e9e: 00004597     	auipc	a1, 0x4
80002ea2: 7d258613     	addi	a2, a1, 0x7d2
80002ea6: 4591         	li	a1, 0x4
80002ea8: 00003097     	auipc	ra, 0x3
80002eac: e62080e7     	jalr	-0x19e(ra) <core::panicking::panic_bounds_check::h6aaee0d15e0261eb>
80002eb0: 6522         	ld	a0, 0x8(sp)
80002eb2: 00351593     	slli	a1, a0, 0x3

0000000080002eb6 <.Lpcrel_hi213>:
80002eb6: 0000b517     	auipc	a0, 0xb
80002eba: 14a50513     	addi	a0, a0, 0x14a
80002ebe: 952e         	add	a0, a0, a1
80002ec0: 6108         	ld	a0, 0x0(a0)
80002ec2: 60e2         	ld	ra, 0x18(sp)
80002ec4: 6105         	addi	sp, sp, 0x20
80002ec6: 8082         	ret

0000000080002ec8 <.Lpcrel_hi214>:
80002ec8: 00004517     	auipc	a0, 0x4
80002ecc: 7a850513     	addi	a0, a0, 0x7a8
80002ed0: 00003097     	auipc	ra, 0x3
80002ed4: ea6080e7     	jalr	-0x15a(ra) <core::panicking::panic_null_pointer_dereference::hbac6411af4f2e916>

0000000080002ed8 <lab7_kernel_task1::initialize_runtime::h3dd2652482735d3f>:
80002ed8: d3010113     	addi	sp, sp, -0x2d0
80002edc: 2c113423     	sd	ra, 0x2c8(sp)

0000000080002ee0 <.Lpcrel_hi215>:
80002ee0: 00013517     	auipc	a0, 0x13
80002ee4: 12050513     	addi	a0, a0, 0x120
80002ee8: cd11         	beqz	a0, 0x80002f04 <.Lpcrel_hi218>
80002eea: a009         	j	0x80002eec <.Lpcrel_hi216>

0000000080002eec <.Lpcrel_hi216>:
80002eec: 00013517     	auipc	a0, 0x13
80002ef0: 11450593     	addi	a1, a0, 0x114
80002ef4: 4501         	li	a0, 0x0
80002ef6: e188         	sd	a0, 0x0(a1)

0000000080002ef8 <.Lpcrel_hi217>:
80002ef8: 00018517     	auipc	a0, 0x18
80002efc: 10850513     	addi	a0, a0, 0x108
80002f00: e911         	bnez	a0, 0x80002f14 <.Lpcrel_hi219>
80002f02: a02d         	j	0x80002f2c <.Lpcrel_hi221>

0000000080002f04 <.Lpcrel_hi218>:
80002f04: 00004517     	auipc	a0, 0x4
80002f08: 78450513     	addi	a0, a0, 0x784
80002f0c: 00003097     	auipc	ra, 0x3
80002f10: e6a080e7     	jalr	-0x196(ra) <core::panicking::panic_null_pointer_dereference::hbac6411af4f2e916>

0000000080002f14 <.Lpcrel_hi219>:
80002f14: 00018517     	auipc	a0, 0x18
80002f18: 0ec50593     	addi	a1, a0, 0xec
80002f1c: 4501         	li	a0, 0x0
80002f1e: e188         	sd	a0, 0x0(a1)

0000000080002f20 <.Lpcrel_hi220>:
80002f20: 00006517     	auipc	a0, 0x6
80002f24: 0e050513     	addi	a0, a0, 0xe0
80002f28: e911         	bnez	a0, 0x80002f3c <.Lpcrel_hi222>
80002f2a: a02d         	j	0x80002f54 <.Lpcrel_hi224>

0000000080002f2c <.Lpcrel_hi221>:
80002f2c: 00004517     	auipc	a0, 0x4
80002f30: 77450513     	addi	a0, a0, 0x774
80002f34: 00003097     	auipc	ra, 0x3
80002f38: e42080e7     	jalr	-0x1be(ra) <core::panicking::panic_null_pointer_dereference::hbac6411af4f2e916>

0000000080002f3c <.Lpcrel_hi222>:
80002f3c: 00006517     	auipc	a0, 0x6
80002f40: 0c450593     	addi	a1, a0, 0xc4
80002f44: 4501         	li	a0, 0x0
80002f46: e188         	sd	a0, 0x0(a1)

0000000080002f48 <.Lpcrel_hi223>:
80002f48: 00016517     	auipc	a0, 0x16
80002f4c: 0b850513     	addi	a0, a0, 0xb8
80002f50: e911         	bnez	a0, 0x80002f64 <.Lpcrel_hi225>
80002f52: a0ad         	j	0x80002fbc <.Lpcrel_hi229>

0000000080002f54 <.Lpcrel_hi224>:
80002f54: 00004517     	auipc	a0, 0x4
80002f58: 76450513     	addi	a0, a0, 0x764
80002f5c: 00003097     	auipc	ra, 0x3
80002f60: e1a080e7     	jalr	-0x1e6(ra) <core::panicking::panic_null_pointer_dereference::hbac6411af4f2e916>

0000000080002f64 <.Lpcrel_hi225>:
80002f64: 00016517     	auipc	a0, 0x16
80002f68: 09c50593     	addi	a1, a0, 0x9c
80002f6c: 4501         	li	a0, 0x0
80002f6e: fc2a         	sd	a0, 0x38(sp)
80002f70: e188         	sd	a0, 0x0(a1)

0000000080002f72 <.Lpcrel_hi226>:
80002f72: 00010517     	auipc	a0, 0x10
80002f76: 08e50513     	addi	a0, a0, 0x8e
80002f7a: fffff097     	auipc	ra, 0xfffff
80002f7e: cd2080e7     	jalr	-0x32e(ra) <lab7_kernel_task1::clear_page_table::h8ca5e429a123d989>

0000000080002f82 <.Lpcrel_hi227>:
80002f82: 00017517     	auipc	a0, 0x17
80002f86: 07e50513     	addi	a0, a0, 0x7e
80002f8a: fffff097     	auipc	ra, 0xfffff
80002f8e: cc2080e7     	jalr	-0x33e(ra) <lab7_kernel_task1::clear_page_table::h8ca5e429a123d989>

0000000080002f92 <.Lpcrel_hi228>:
80002f92: 0000c517     	auipc	a0, 0xc
80002f96: 06e50513     	addi	a0, a0, 0x6e
80002f9a: 00001097     	auipc	ra, 0x1
80002f9e: 4d0080e7     	jalr	0x4d0(ra) <lab7_kernel_task1::zero_page::hf833b5d92e5342df>
80002fa2: 00000097     	auipc	ra, 0x0
80002fa6: 382080e7     	jalr	0x382(ra) <lab7_kernel_task1::zero_data_page_pool::h0344c9c23b52e451>
80002faa: 7562         	ld	a0, 0x38(sp)
80002fac: 4591         	li	a1, 0x4
80002fae: ffffe097     	auipc	ra, 0xffffe
80002fb2: 974080e7     	jalr	-0x68c(ra) <_$LT$I$u20$as$u20$core..iter..traits..collect..IntoIterator$GT$::into_iter::h5822f301be3c3603>
80002fb6: e0aa         	sd	a0, 0x40(sp)
80002fb8: e4ae         	sd	a1, 0x48(sp)
80002fba: a809         	j	0x80002fcc <.Lpcrel_hi229+0x10>

0000000080002fbc <.Lpcrel_hi229>:
80002fbc: 00004517     	auipc	a0, 0x4
80002fc0: 71450513     	addi	a0, a0, 0x714
80002fc4: 00003097     	auipc	ra, 0x3
80002fc8: db2080e7     	jalr	-0x24e(ra) <core::panicking::panic_null_pointer_dereference::hbac6411af4f2e916>
80002fcc: 0088         	addi	a0, sp, 0x40
80002fce: ffffe097     	auipc	ra, 0xffffe
80002fd2: 940080e7     	jalr	-0x6c0(ra) <core::iter::range::_$LT$impl$u20$core..iter..traits..iterator..Iterator$u20$for$u20$core..ops..range..Range$LT$A$GT$$GT$::next::he20788f8e9740484>
80002fd6: e8aa         	sd	a0, 0x50(sp)
80002fd8: ecae         	sd	a1, 0x58(sp)
80002fda: 6546         	ld	a0, 0x50(sp)
80002fdc: 8905         	andi	a0, a0, 0x1
80002fde: cd01         	beqz	a0, 0x80002ff6 <.Lpcrel_hi229+0x3a>
80002fe0: a009         	j	0x80002fe2 <.Lpcrel_hi229+0x26>
80002fe2: 6566         	ld	a0, 0x58(sp)
80002fe4: f42a         	sd	a0, 0x28(sp)
80002fe6: 2ca13023     	sd	a0, 0x2c0(sp)
80002fea: 4591         	li	a1, 0x4
80002fec: 862a         	mv	a2, a0
80002fee: f832         	sd	a2, 0x30(sp)
80002ff0: 26b56a63     	bltu	a0, a1, 0x80003264 <.Lpcrel_hi252>
80002ff4: acb5         	j	0x80003270 <.Lpcrel_hi252+0xc>
80002ff6: 4501         	li	a0, 0x0
80002ff8: 4589         	li	a1, 0x2
80002ffa: ffffe097     	auipc	ra, 0xffffe
80002ffe: 928080e7     	jalr	-0x6d8(ra) <_$LT$I$u20$as$u20$core..iter..traits..collect..IntoIterator$GT$::into_iter::h5822f301be3c3603>
80003002: f0aa         	sd	a0, 0x60(sp)
80003004: f4ae         	sd	a1, 0x68(sp)
80003006: a009         	j	0x80003008 <.Lpcrel_hi229+0x4c>
80003008: 1088         	addi	a0, sp, 0x60
8000300a: ffffe097     	auipc	ra, 0xffffe
8000300e: 904080e7     	jalr	-0x6fc(ra) <core::iter::range::_$LT$impl$u20$core..iter..traits..iterator..Iterator$u20$for$u20$core..ops..range..Range$LT$A$GT$$GT$::next::he20788f8e9740484>
80003012: f8aa         	sd	a0, 0x70(sp)
80003014: fcae         	sd	a1, 0x78(sp)
80003016: 7546         	ld	a0, 0x70(sp)
80003018: 8905         	andi	a0, a0, 0x1
8000301a: cd21         	beqz	a0, 0x80003072 <.Lpcrel_hi229+0xb6>
8000301c: a009         	j	0x8000301e <.Lpcrel_hi229+0x62>
8000301e: 7566         	ld	a0, 0x78(sp)
80003020: ec2a         	sd	a0, 0x18(sp)
80003022: 2aa13c23     	sd	a0, 0x2b8(sp)
80003026: 00000097     	auipc	ra, 0x0
8000302a: 2c6080e7     	jalr	0x2c6(ra) <lab7_kernel_task1::proc_root_table_ptr::hf9893ff416a48b5e>
8000302e: fffff097     	auipc	ra, 0xfffff
80003032: c1e080e7     	jalr	-0x3e2(ra) <lab7_kernel_task1::clear_page_table::h8ca5e429a123d989>
80003036: 6562         	ld	a0, 0x18(sp)
80003038: 00001097     	auipc	ra, 0x1
8000303c: 8a4080e7     	jalr	-0x75c(ra) <lab7_kernel_task1::proc_low_l1_table_ptr::he78fd751b538fa03>
80003040: fffff097     	auipc	ra, 0xfffff
80003044: c0c080e7     	jalr	-0x3f4(ra) <lab7_kernel_task1::clear_page_table::h8ca5e429a123d989>
80003048: 6562         	ld	a0, 0x18(sp)
8000304a: 00001097     	auipc	ra, 0x1
8000304e: 990080e7     	jalr	-0x670(ra) <lab7_kernel_task1::proc_user_l0_table_ptr::h92a59938cf003d6f>
80003052: fffff097     	auipc	ra, 0xfffff
80003056: bfa080e7     	jalr	-0x406(ra) <lab7_kernel_task1::clear_page_table::h8ca5e429a123d989>
8000305a: 0108         	addi	a0, sp, 0x80
8000305c: ffffe097     	auipc	ra, 0xffffe
80003060: ce8080e7     	jalr	-0x318(ra) <lab7_kernel_task1::trap::TrapFrame::zeroed::h1f7331e6716eb185>
80003064: 6562         	ld	a0, 0x18(sp)
80003066: 4589         	li	a1, 0x2
80003068: 862a         	mv	a2, a0
8000306a: f032         	sd	a2, 0x20(sp)
8000306c: 0cb56b63     	bltu	a0, a1, 0x80003142 <.Lpcrel_hi240>
80003070: a8f9         	j	0x8000314e <.Lpcrel_hi240+0xc>
80003072: fffff097     	auipc	ra, 0xfffff
80003076: cc4080e7     	jalr	-0x33c(ra) <lab7_kernel_task1::copy_user_program::h7176c069f46d46b0>
8000307a: 00001097     	auipc	ra, 0x1
8000307e: a4e080e7     	jalr	-0x5b2(ra) <lab7_kernel_task1::build_global_kernel_tables::hf7eea55769fe3077>
80003082: 4501         	li	a0, 0x0
80003084: ffffe097     	auipc	ra, 0xffffe
80003088: 22e080e7     	jalr	0x22e(ra) <lab7_kernel_task1::build_process::h9a0ced696b13b2c0>

000000008000308c <.Lpcrel_hi230>:
8000308c: 00006517     	auipc	a0, 0x6
80003090: f7c50513     	addi	a0, a0, -0x84
80003094: c11d         	beqz	a0, 0x800030ba <.Lpcrel_hi233>
80003096: a009         	j	0x80003098 <.Lpcrel_hi231>

0000000080003098 <.Lpcrel_hi231>:
80003098: 00006517     	auipc	a0, 0x6
8000309c: f7050593     	addi	a1, a0, -0x90
800030a0: 4505         	li	a0, 0x1
800030a2: e188         	sd	a0, 0x0(a1)
800030a4: 1b28         	addi	a0, sp, 0x1b8
800030a6: ffffe097     	auipc	ra, 0xffffe
800030aa: c9e080e7     	jalr	-0x362(ra) <lab7_kernel_task1::trap::TrapFrame::zeroed::h1f7331e6716eb185>

00000000800030ae <.Lpcrel_hi232>:
800030ae: 0000b517     	auipc	a0, 0xb
800030b2: f7250513     	addi	a0, a0, -0x8e
800030b6: e911         	bnez	a0, 0x800030ca <.Lpcrel_hi234>
800030b8: a805         	j	0x800030e8 <.Lpcrel_hi235>

00000000800030ba <.Lpcrel_hi233>:
800030ba: 00004517     	auipc	a0, 0x4
800030be: 62e50513     	addi	a0, a0, 0x62e
800030c2: 00003097     	auipc	ra, 0x3
800030c6: cb4080e7     	jalr	-0x34c(ra) <core::panicking::panic_null_pointer_dereference::hbac6411af4f2e916>

00000000800030ca <.Lpcrel_hi234>:
800030ca: 0000b517     	auipc	a0, 0xb
800030ce: f5650513     	addi	a0, a0, -0xaa
800030d2: e82a         	sd	a0, 0x10(sp)
800030d4: 1b2c         	addi	a1, sp, 0x1b8
800030d6: 10000613     	li	a2, 0x100
800030da: 00003097     	auipc	ra, 0x3
800030de: e66080e7     	jalr	-0x19a(ra) <memcpy>
800030e2: 6542         	ld	a0, 0x10(sp)
800030e4: e911         	bnez	a0, 0x800030f8 <.Lpcrel_hi236>
800030e6: a015         	j	0x8000310a <.Lpcrel_hi237>

00000000800030e8 <.Lpcrel_hi235>:
800030e8: 00004517     	auipc	a0, 0x4
800030ec: 61850513     	addi	a0, a0, 0x618
800030f0: 00003097     	auipc	ra, 0x3
800030f4: c86080e7     	jalr	-0x37a(ra) <core::panicking::panic_null_pointer_dereference::hbac6411af4f2e916>

00000000800030f8 <.Lpcrel_hi236>:
800030f8: 0000b517     	auipc	a0, 0xb
800030fc: f2850513     	addi	a0, a0, -0xd8
80003100: 004005b7     	lui	a1, 0x400
80003104: fd6c         	sd	a1, 0xf8(a0)
80003106: e911         	bnez	a0, 0x8000311a <.Lpcrel_hi238>
80003108: a02d         	j	0x80003132 <.Lpcrel_hi239>

000000008000310a <.Lpcrel_hi237>:
8000310a: 00004517     	auipc	a0, 0x4
8000310e: 60e50513     	addi	a0, a0, 0x60e
80003112: 00003097     	auipc	ra, 0x3
80003116: c64080e7     	jalr	-0x39c(ra) <core::panicking::panic_null_pointer_dereference::hbac6411af4f2e916>

000000008000311a <.Lpcrel_hi238>:
8000311a: 0000b517     	auipc	a0, 0xb
8000311e: f0650593     	addi	a1, a0, -0xfa
80003122: 00404537     	lui	a0, 0x404
80003126: f9e8         	sd	a0, 0xf0(a1)
80003128: 2c813083     	ld	ra, 0x2c8(sp)
8000312c: 2d010113     	addi	sp, sp, 0x2d0
80003130: 8082         	ret

0000000080003132 <.Lpcrel_hi239>:
80003132: 00004517     	auipc	a0, 0x4
80003136: 5fe50513     	addi	a0, a0, 0x5fe
8000313a: 00003097     	auipc	ra, 0x3
8000313e: c3c080e7     	jalr	-0x3c4(ra) <core::panicking::panic_null_pointer_dereference::hbac6411af4f2e916>

0000000080003142 <.Lpcrel_hi240>:
80003142: 0000b517     	auipc	a0, 0xb
80003146: ede50513     	addi	a0, a0, -0x122
8000314a: ed01         	bnez	a0, 0x80003162 <.Lpcrel_hi241+0x12>
8000314c: a0b1         	j	0x80003198 <.Lpcrel_hi243>
8000314e: 7502         	ld	a0, 0x20(sp)

0000000080003150 <.Lpcrel_hi241>:
80003150: 00004597     	auipc	a1, 0x4
80003154: 5f858613     	addi	a2, a1, 0x5f8
80003158: 4589         	li	a1, 0x2
8000315a: 00003097     	auipc	ra, 0x3
8000315e: bb0080e7     	jalr	-0x450(ra) <core::panicking::panic_bounds_check::h6aaee0d15e0261eb>
80003162: 6562         	ld	a0, 0x18(sp)
80003164: 00851593     	slli	a1, a0, 0x8

0000000080003168 <.Lpcrel_hi242>:
80003168: 0000b517     	auipc	a0, 0xb
8000316c: eb850513     	addi	a0, a0, -0x148
80003170: 952e         	add	a0, a0, a1
80003172: 010c         	addi	a1, sp, 0x80
80003174: 10000613     	li	a2, 0x100
80003178: 00003097     	auipc	ra, 0x3
8000317c: dc8080e7     	jalr	-0x238(ra) <memcpy>
80003180: 0308         	addi	a0, sp, 0x180
80003182: fffff097     	auipc	ra, 0xfffff
80003186: 81e080e7     	jalr	-0x7e2(ra) <lab7_kernel_task1::ProcessControl::empty::h14f79c684faccc4e>
8000318a: 6562         	ld	a0, 0x18(sp)
8000318c: 4589         	li	a1, 0x2
8000318e: 862a         	mv	a2, a0
80003190: e432         	sd	a2, 0x8(sp)
80003192: 00b56b63     	bltu	a0, a1, 0x800031a8 <.Lpcrel_hi244>
80003196: a839         	j	0x800031b4 <.Lpcrel_hi244+0xc>

0000000080003198 <.Lpcrel_hi243>:
80003198: 00004517     	auipc	a0, 0x4
8000319c: 5b050513     	addi	a0, a0, 0x5b0
800031a0: 00003097     	auipc	ra, 0x3
800031a4: bd6080e7     	jalr	-0x42a(ra) <core::panicking::panic_null_pointer_dereference::hbac6411af4f2e916>

00000000800031a8 <.Lpcrel_hi244>:
800031a8: 00006517     	auipc	a0, 0x6
800031ac: e6050513     	addi	a0, a0, -0x1a0
800031b0: ed01         	bnez	a0, 0x800031c8 <.Lpcrel_hi245+0x12>
800031b2: a881         	j	0x80003202 <.Lpcrel_hi247>
800031b4: 6522         	ld	a0, 0x8(sp)

00000000800031b6 <.Lpcrel_hi245>:
800031b6: 00004597     	auipc	a1, 0x4
800031ba: 5aa58613     	addi	a2, a1, 0x5aa
800031be: 4589         	li	a1, 0x2
800031c0: 00003097     	auipc	ra, 0x3
800031c4: b4a080e7     	jalr	-0x4b6(ra) <core::panicking::panic_bounds_check::h6aaee0d15e0261eb>
800031c8: 6562         	ld	a0, 0x18(sp)
800031ca: 00351593     	slli	a1, a0, 0x3
800031ce: 0516         	slli	a0, a0, 0x5
800031d0: 40b505b3     	sub	a1, a0, a1

00000000800031d4 <.Lpcrel_hi246>:
800031d4: 00006517     	auipc	a0, 0x6
800031d8: e3450513     	addi	a0, a0, -0x1cc
800031dc: 95aa         	add	a1, a1, a0
800031de: 655a         	ld	a0, 0x190(sp)
800031e0: e988         	sd	a0, 0x10(a1)
800031e2: 653a         	ld	a0, 0x188(sp)
800031e4: e588         	sd	a0, 0x8(a1)
800031e6: 651a         	ld	a0, 0x180(sp)
800031e8: e188         	sd	a0, 0x0(a1)
800031ea: 0b28         	addi	a0, sp, 0x198
800031ec: ffffe097     	auipc	ra, 0xffffe
800031f0: 0b6080e7     	jalr	0xb6(ra) <lab7_kernel_task1::ProcessReport::empty::h17f58037c81b1012>
800031f4: 6562         	ld	a0, 0x18(sp)
800031f6: 4589         	li	a1, 0x2
800031f8: 862a         	mv	a2, a0
800031fa: e032         	sd	a2, 0x0(sp)
800031fc: 00b56b63     	bltu	a0, a1, 0x80003212 <.Lpcrel_hi248>
80003200: a839         	j	0x8000321e <.Lpcrel_hi248+0xc>

0000000080003202 <.Lpcrel_hi247>:
80003202: 00004517     	auipc	a0, 0x4
80003206: 55e50513     	addi	a0, a0, 0x55e
8000320a: 00003097     	auipc	ra, 0x3
8000320e: b6c080e7     	jalr	-0x494(ra) <core::panicking::panic_null_pointer_dereference::hbac6411af4f2e916>

0000000080003212 <.Lpcrel_hi248>:
80003212: 0000d517     	auipc	a0, 0xd
80003216: dee50513     	addi	a0, a0, -0x212
8000321a: ed01         	bnez	a0, 0x80003232 <.Lpcrel_hi249+0x12>
8000321c: a825         	j	0x80003254 <.Lpcrel_hi251>
8000321e: 6502         	ld	a0, 0x0(sp)

0000000080003220 <.Lpcrel_hi249>:
80003220: 00004597     	auipc	a1, 0x4
80003224: 55858613     	addi	a2, a1, 0x558
80003228: 4589         	li	a1, 0x2
8000322a: 00003097     	auipc	ra, 0x3
8000322e: ae0080e7     	jalr	-0x520(ra) <core::panicking::panic_bounds_check::h6aaee0d15e0261eb>
80003232: 6562         	ld	a0, 0x18(sp)
80003234: 00551593     	slli	a1, a0, 0x5

0000000080003238 <.Lpcrel_hi250>:
80003238: 0000d517     	auipc	a0, 0xd
8000323c: dc850513     	addi	a0, a0, -0x238
80003240: 95aa         	add	a1, a1, a0
80003242: 755a         	ld	a0, 0x1b0(sp)
80003244: ed88         	sd	a0, 0x18(a1)
80003246: 753a         	ld	a0, 0x1a8(sp)
80003248: e988         	sd	a0, 0x10(a1)
8000324a: 751a         	ld	a0, 0x1a0(sp)
8000324c: e588         	sd	a0, 0x8(a1)
8000324e: 657a         	ld	a0, 0x198(sp)
80003250: e188         	sd	a0, 0x0(a1)
80003252: bb5d         	j	0x80003008 <.Lpcrel_hi229+0x4c>

0000000080003254 <.Lpcrel_hi251>:
80003254: 00004517     	auipc	a0, 0x4
80003258: 52450513     	addi	a0, a0, 0x524
8000325c: 00003097     	auipc	ra, 0x3
80003260: b1a080e7     	jalr	-0x4e6(ra) <core::panicking::panic_null_pointer_dereference::hbac6411af4f2e916>

0000000080003264 <.Lpcrel_hi252>:
80003264: 0000b517     	auipc	a0, 0xb
80003268: d9c50513     	addi	a0, a0, -0x264
8000326c: ed01         	bnez	a0, 0x80003284 <.Lpcrel_hi253+0x12>
8000326e: a035         	j	0x8000329a <.Lpcrel_hi255>
80003270: 7542         	ld	a0, 0x30(sp)

0000000080003272 <.Lpcrel_hi253>:
80003272: 00004597     	auipc	a1, 0x4
80003276: 51e58613     	addi	a2, a1, 0x51e
8000327a: 4591         	li	a1, 0x4
8000327c: 00003097     	auipc	ra, 0x3
80003280: a8e080e7     	jalr	-0x572(ra) <core::panicking::panic_bounds_check::h6aaee0d15e0261eb>
80003284: 7522         	ld	a0, 0x28(sp)
80003286: 00351593     	slli	a1, a0, 0x3

000000008000328a <.Lpcrel_hi254>:
8000328a: 0000b517     	auipc	a0, 0xb
8000328e: d7650513     	addi	a0, a0, -0x28a
80003292: 95aa         	add	a1, a1, a0
80003294: 4501         	li	a0, 0x0
80003296: e188         	sd	a0, 0x0(a1)
80003298: bb15         	j	0x80002fcc <.Lpcrel_hi229+0x10>

000000008000329a <.Lpcrel_hi255>:
8000329a: 00004517     	auipc	a0, 0x4
8000329e: 4f650513     	addi	a0, a0, 0x4f6
800032a2: 00003097     	auipc	ra, 0x3
800032a6: ad4080e7     	jalr	-0x52c(ra) <core::panicking::panic_null_pointer_dereference::hbac6411af4f2e916>

00000000800032aa <lab7_kernel_task1::kernel_l1_table_pa::h98bcd75e5adf8340>:
800032aa: 00017517     	auipc	a0, 0x17
800032ae: d5650513     	addi	a0, a0, -0x2aa
800032b2: 8082         	ret

00000000800032b4 <lab7_kernel_task1::proc_root_table_pa::h0e662a33a3441b58>:
800032b4: 1141         	addi	sp, sp, -0x10
800032b6: 85aa         	mv	a1, a0
800032b8: e02e         	sd	a1, 0x0(sp)
800032ba: e42e         	sd	a1, 0x8(sp)
800032bc: 4505         	li	a0, 0x1
800032be: 00b56d63     	bltu	a0, a1, 0x800032d8 <.Lpcrel_hi257+0xe>
800032c2: a009         	j	0x800032c4 <lab7_kernel_task1::proc_root_table_pa::h0e662a33a3441b58+0x10>
800032c4: 6502         	ld	a0, 0x0(sp)
800032c6: 00c51593     	slli	a1, a0, 0xc

00000000800032ca <.Lpcrel_hi257>:
800032ca: 0000e517     	auipc	a0, 0xe
800032ce: d3650513     	addi	a0, a0, -0x2ca
800032d2: 952e         	add	a0, a0, a1
800032d4: 0141         	addi	sp, sp, 0x10
800032d6: 8082         	ret
800032d8: 6502         	ld	a0, 0x0(sp)

00000000800032da <.Lpcrel_hi258>:
800032da: 00004597     	auipc	a1, 0x4
800032de: 4ce58613     	addi	a2, a1, 0x4ce
800032e2: 4589         	li	a1, 0x2
800032e4: 00003097     	auipc	ra, 0x3
800032e8: a26080e7     	jalr	-0x5da(ra) <core::panicking::panic_bounds_check::h6aaee0d15e0261eb>

00000000800032ec <lab7_kernel_task1::proc_root_table_ptr::hf9893ff416a48b5e>:
800032ec: 1141         	addi	sp, sp, -0x10
800032ee: 85aa         	mv	a1, a0
800032f0: e02e         	sd	a1, 0x0(sp)
800032f2: e42e         	sd	a1, 0x8(sp)
800032f4: 4505         	li	a0, 0x1
800032f6: 00b56d63     	bltu	a0, a1, 0x80003310 <.Lpcrel_hi259+0xe>
800032fa: a009         	j	0x800032fc <lab7_kernel_task1::proc_root_table_ptr::hf9893ff416a48b5e+0x10>
800032fc: 6502         	ld	a0, 0x0(sp)
800032fe: 00c51593     	slli	a1, a0, 0xc

0000000080003302 <.Lpcrel_hi259>:
80003302: 0000e517     	auipc	a0, 0xe
80003306: cfe50513     	addi	a0, a0, -0x302
8000330a: 952e         	add	a0, a0, a1
8000330c: 0141         	addi	sp, sp, 0x10
8000330e: 8082         	ret
80003310: 6502         	ld	a0, 0x0(sp)

0000000080003312 <.Lpcrel_hi260>:
80003312: 00004597     	auipc	a1, 0x4
80003316: 4ae58613     	addi	a2, a1, 0x4ae
8000331a: 4589         	li	a1, 0x2
8000331c: 00003097     	auipc	ra, 0x3
80003320: 9ee080e7     	jalr	-0x612(ra) <core::panicking::panic_bounds_check::h6aaee0d15e0261eb>

0000000080003324 <lab7_kernel_task1::zero_data_page_pool::h0344c9c23b52e451>:
80003324: 715d         	addi	sp, sp, -0x50
80003326: e486         	sd	ra, 0x48(sp)

0000000080003328 <.Lpcrel_hi261>:
80003328: 00007517     	auipc	a0, 0x7
8000332c: cd850513     	addi	a0, a0, -0x328
80003330: e0aa         	sd	a0, 0x40(sp)
80003332: 6511         	lui	a0, 0x4
80003334: ec2a         	sd	a0, 0x18(sp)
80003336: 4501         	li	a0, 0x0
80003338: e529         	bnez	a0, 0x80003382 <.Lpcrel_hi264>
8000333a: a009         	j	0x8000333c <.Lpcrel_hi261+0x14>
8000333c: 6662         	ld	a2, 0x18(sp)

000000008000333e <.Lpcrel_hi262>:
8000333e: 00007517     	auipc	a0, 0x7
80003342: cc250513     	addi	a0, a0, -0x33e
80003346: e42a         	sd	a0, 0x8(sp)
80003348: f42a         	sd	a0, 0x28(sp)
8000334a: 4581         	li	a1, 0x0
8000334c: e82e         	sd	a1, 0x10(sp)
8000334e: 02b10ba3     	sb	a1, 0x37(sp)
80003352: fc32         	sd	a2, 0x38(sp)
80003354: 02b103a3     	sb	a1, 0x27(sp)
80003358: 02714603     	lbu	a2, 0x27(sp)

000000008000335c <.Lpcrel_hi263>:
8000335c: 00005597     	auipc	a1, 0x5
80003360: 95c58693     	addi	a3, a1, -0x6a4
80003364: 4585         	li	a1, 0x1
80003366: ffffd097     	auipc	ra, 0xffffd
8000336a: 3e2080e7     	jalr	0x3e2(ra) <core::ptr::write_bytes::precondition_check::ha2a8c0b9362eecea>
8000336e: 6522         	ld	a0, 0x8(sp)
80003370: 65c2         	ld	a1, 0x10(sp)
80003372: 6662         	ld	a2, 0x18(sp)
80003374: 00003097     	auipc	ra, 0x3
80003378: b56080e7     	jalr	-0x4aa(ra) <memset>
8000337c: 60a6         	ld	ra, 0x48(sp)
8000337e: 6161         	addi	sp, sp, 0x50
80003380: 8082         	ret

0000000080003382 <.Lpcrel_hi264>:
80003382: 00004517     	auipc	a0, 0x4
80003386: 45650513     	addi	a0, a0, 0x456
8000338a: 00003097     	auipc	ra, 0x3
8000338e: 926080e7     	jalr	-0x6da(ra) <core::panicking::panic_const::panic_const_mul_overflow::h67897feae7531d51>

0000000080003392 <lab7_kernel_task1::create_shared_region::hc3231aa64316ecb5>:
80003392: 7175         	addi	sp, sp, -0x90
80003394: e506         	sd	ra, 0x88(sp)

0000000080003396 <.Lpcrel_hi265>:
80003396: 00016517     	auipc	a0, 0x16
8000339a: c6a50513     	addi	a0, a0, -0x396
8000339e: cd09         	beqz	a0, 0x800033b8 <.Lpcrel_hi267>
800033a0: a009         	j	0x800033a2 <.Lpcrel_hi266>

00000000800033a2 <.Lpcrel_hi266>:
800033a2: 00016517     	auipc	a0, 0x16
800033a6: c5e50513     	addi	a0, a0, -0x3a2
800033aa: 6108         	ld	a0, 0x0(a0)
800033ac: ec2a         	sd	a0, 0x18(sp)
800033ae: 65e2         	ld	a1, 0x18(sp)
800033b0: 4505         	li	a0, 0x1
800033b2: 02b56c63     	bltu	a0, a1, 0x800033ea <.Lpcrel_hi268>
800033b6: a809         	j	0x800033c8 <.Lpcrel_hi267+0x10>

00000000800033b8 <.Lpcrel_hi267>:
800033b8: 00004517     	auipc	a0, 0x4
800033bc: 43850513     	addi	a0, a0, 0x438
800033c0: 00003097     	auipc	ra, 0x3
800033c4: 9b6080e7     	jalr	-0x64a(ra) <core::panicking::panic_null_pointer_dereference::hbac6411af4f2e916>
800033c8: 00000097     	auipc	ra, 0x0
800033cc: 8b6080e7     	jalr	-0x74a(ra) <lab7_kernel_task1::allocate_data_page::h702f3dc23d6e4bd1>
800033d0: f02a         	sd	a0, 0x20(sp)
800033d2: 7502         	ld	a0, 0x20(sp)
800033d4: f42a         	sd	a0, 0x28(sp)
800033d6: 4501         	li	a0, 0x0
800033d8: 02a10823     	sb	a0, 0x30(sp)
800033dc: 02a108a3     	sb	a0, 0x31(sp)
800033e0: 6562         	ld	a0, 0x18(sp)
800033e2: 4589         	li	a1, 0x2
800033e4: 02b56463     	bltu	a0, a1, 0x8000340c <.Lpcrel_hi269>
800033e8: a805         	j	0x80003418 <.Lpcrel_hi269+0xc>

00000000800033ea <.Lpcrel_hi268>:
800033ea: 00004517     	auipc	a0, 0x4
800033ee: 47c50513     	addi	a0, a0, 0x47c
800033f2: 02600593     	li	a1, 0x26
800033f6: ffffd097     	auipc	ra, 0xffffd
800033fa: 7b8080e7     	jalr	0x7b8(ra) <core::fmt::Arguments::from_str::h75d1bb1c6aa86bac>
800033fe: ffffe097     	auipc	ra, 0xffffe
80003402: 9d8080e7     	jalr	-0x628(ra) <lab7_kernel_task1::console::print::h4532f48a1410ef53>
80003406: 557d         	li	a0, -0x1
80003408: e82a         	sd	a0, 0x10(sp)
8000340a: a211         	j	0x8000350e <.Lpcrel_hi280+0x10>

000000008000340c <.Lpcrel_hi269>:
8000340c: 0000b517     	auipc	a0, 0xb
80003410: e1450513     	addi	a0, a0, -0x1ec
80003414: ed01         	bnez	a0, 0x8000342c <.Lpcrel_hi270+0x12>
80003416: a82d         	j	0x80003450 <.Lpcrel_hi273>
80003418: 6562         	ld	a0, 0x18(sp)

000000008000341a <.Lpcrel_hi270>:
8000341a: 00004597     	auipc	a1, 0x4
8000341e: 3ee58613     	addi	a2, a1, 0x3ee
80003422: 4589         	li	a1, 0x2
80003424: 00003097     	auipc	ra, 0x3
80003428: 8e6080e7     	jalr	-0x71a(ra) <core::panicking::panic_bounds_check::h6aaee0d15e0261eb>
8000342c: 6562         	ld	a0, 0x18(sp)
8000342e: 00451593     	slli	a1, a0, 0x4

0000000080003432 <.Lpcrel_hi271>:
80003432: 0000b517     	auipc	a0, 0xb
80003436: dee50513     	addi	a0, a0, -0x212
8000343a: 95aa         	add	a1, a1, a0
8000343c: 7542         	ld	a0, 0x30(sp)
8000343e: e588         	sd	a0, 0x8(a1)
80003440: 7522         	ld	a0, 0x28(sp)
80003442: e188         	sd	a0, 0x0(a1)

0000000080003444 <.Lpcrel_hi272>:
80003444: 00016517     	auipc	a0, 0x16
80003448: bbc50513     	addi	a0, a0, -0x444
8000344c: e911         	bnez	a0, 0x80003460 <.Lpcrel_hi274>
8000344e: a025         	j	0x80003476 <.Lpcrel_hi275>

0000000080003450 <.Lpcrel_hi273>:
80003450: 00004517     	auipc	a0, 0x4
80003454: 3b850513     	addi	a0, a0, 0x3b8
80003458: 00003097     	auipc	ra, 0x3
8000345c: 91e080e7     	jalr	-0x6e2(ra) <core::panicking::panic_null_pointer_dereference::hbac6411af4f2e916>

0000000080003460 <.Lpcrel_hi274>:
80003460: 00016517     	auipc	a0, 0x16
80003464: ba050513     	addi	a0, a0, -0x460
80003468: 610c         	ld	a1, 0x0(a0)
8000346a: 00158513     	addi	a0, a1, 0x1
8000346e: e42a         	sd	a0, 0x8(sp)
80003470: 02b56163     	bltu	a0, a1, 0x80003492 <.Lpcrel_hi277>
80003474: a809         	j	0x80003486 <.Lpcrel_hi276>

0000000080003476 <.Lpcrel_hi275>:
80003476: 00004517     	auipc	a0, 0x4
8000347a: 3aa50513     	addi	a0, a0, 0x3aa
8000347e: 00003097     	auipc	ra, 0x3
80003482: 8f8080e7     	jalr	-0x708(ra) <core::panicking::panic_null_pointer_dereference::hbac6411af4f2e916>

0000000080003486 <.Lpcrel_hi276>:
80003486: 00016517     	auipc	a0, 0x16
8000348a: b7a50513     	addi	a0, a0, -0x486
8000348e: e911         	bnez	a0, 0x800034a2 <.Lpcrel_hi277+0x10>
80003490: a0bd         	j	0x800034fe <.Lpcrel_hi280>

0000000080003492 <.Lpcrel_hi277>:
80003492: 00004517     	auipc	a0, 0x4
80003496: 38e50513     	addi	a0, a0, 0x38e
8000349a: 00002097     	auipc	ra, 0x2
8000349e: 7f8080e7     	jalr	0x7f8(ra) <core::panicking::panic_const::panic_const_add_overflow::h67cba067093910f8>
800034a2: 6522         	ld	a0, 0x8(sp)

00000000800034a4 <.Lpcrel_hi278>:
800034a4: 00016597     	auipc	a1, 0x16
800034a8: b5c58593     	addi	a1, a1, -0x4a4
800034ac: e188         	sd	a0, 0x0(a1)
800034ae: 082c         	addi	a1, sp, 0x18
800034b0: fcae         	sd	a1, 0x78(sp)
800034b2: 1008         	addi	a0, sp, 0x20
800034b4: e02a         	sd	a0, 0x0(sp)
800034b6: e12a         	sd	a0, 0x80(sp)
800034b8: 08a8         	addi	a0, sp, 0x58
800034ba: ffffd097     	auipc	ra, 0xffffd
800034be: bbe080e7     	jalr	-0x442(ra) <core::fmt::rt::Argument::new_display::ha62cb5597af22ae5>
800034c2: 6582         	ld	a1, 0x0(sp)
800034c4: 10a8         	addi	a0, sp, 0x68
800034c6: ffffd097     	auipc	ra, 0xffffd
800034ca: c18080e7     	jalr	-0x3e8(ra) <core::fmt::rt::Argument::new_lower_hex::hc0e20b6dd24f901a>
800034ce: 7506         	ld	a0, 0x60(sp)
800034d0: e0aa         	sd	a0, 0x40(sp)
800034d2: 6566         	ld	a0, 0x58(sp)
800034d4: fc2a         	sd	a0, 0x38(sp)
800034d6: 7546         	ld	a0, 0x70(sp)
800034d8: e8aa         	sd	a0, 0x50(sp)
800034da: 7526         	ld	a0, 0x68(sp)
800034dc: e4aa         	sd	a0, 0x48(sp)

00000000800034de <.Lpcrel_hi279>:
800034de: 00004517     	auipc	a0, 0x4
800034e2: 35a50513     	addi	a0, a0, 0x35a
800034e6: 182c         	addi	a1, sp, 0x38
800034e8: ffffd097     	auipc	ra, 0xffffd
800034ec: dd4080e7     	jalr	-0x22c(ra) <core::fmt::Arguments::new::hb2fd2e4ec0566688>
800034f0: ffffe097     	auipc	ra, 0xffffe
800034f4: 8e6080e7     	jalr	-0x71a(ra) <lab7_kernel_task1::console::print::h4532f48a1410ef53>
800034f8: 6562         	ld	a0, 0x18(sp)
800034fa: e82a         	sd	a0, 0x10(sp)
800034fc: a809         	j	0x8000350e <.Lpcrel_hi280+0x10>

00000000800034fe <.Lpcrel_hi280>:
800034fe: 00004517     	auipc	a0, 0x4
80003502: 32250513     	addi	a0, a0, 0x322
80003506: 00003097     	auipc	ra, 0x3
8000350a: 870080e7     	jalr	-0x790(ra) <core::panicking::panic_null_pointer_dereference::hbac6411af4f2e916>
8000350e: 6542         	ld	a0, 0x10(sp)
80003510: 60aa         	ld	ra, 0x88(sp)
80003512: 6149         	addi	sp, sp, 0x90
80003514: 8082         	ret

0000000080003516 <lab7_kernel_task1::proc_low_l1_table_pa::hf6c49c1658bc601e>:
80003516: 1141         	addi	sp, sp, -0x10
80003518: 85aa         	mv	a1, a0
8000351a: e02e         	sd	a1, 0x0(sp)
8000351c: e42e         	sd	a1, 0x8(sp)
8000351e: 4505         	li	a0, 0x1
80003520: 00b56d63     	bltu	a0, a1, 0x8000353a <.Lpcrel_hi281+0xe>
80003524: a009         	j	0x80003526 <lab7_kernel_task1::proc_low_l1_table_pa::hf6c49c1658bc601e+0x10>
80003526: 6502         	ld	a0, 0x0(sp)
80003528: 00c51593     	slli	a1, a0, 0xc

000000008000352c <.Lpcrel_hi281>:
8000352c: 00011517     	auipc	a0, 0x11
80003530: ad450513     	addi	a0, a0, -0x52c
80003534: 952e         	add	a0, a0, a1
80003536: 0141         	addi	sp, sp, 0x10
80003538: 8082         	ret
8000353a: 6502         	ld	a0, 0x0(sp)

000000008000353c <.Lpcrel_hi282>:
8000353c: 00004597     	auipc	a1, 0x4
80003540: 35458613     	addi	a2, a1, 0x354
80003544: 4589         	li	a1, 0x2
80003546: 00002097     	auipc	ra, 0x2
8000354a: 7c4080e7     	jalr	0x7c4(ra) <core::panicking::panic_bounds_check::h6aaee0d15e0261eb>

000000008000354e <lab7_kernel_task1::store_process_report::h645e6e0ef8820e1f>:
8000354e: 7115         	addi	sp, sp, -0xe0
80003550: ed86         	sd	ra, 0xd8(sp)
80003552: ec2a         	sd	a0, 0x18(sp)
80003554: 65e2         	ld	a1, 0x18(sp)
80003556: 4505         	li	a0, 0x1
80003558: 00b56963     	bltu	a0, a1, 0x8000356a <.Lpcrel_hi283+0xc>
8000355c: a009         	j	0x8000355e <.Lpcrel_hi283>

000000008000355e <.Lpcrel_hi283>:
8000355e: 0000d517     	auipc	a0, 0xd
80003562: aa250513     	addi	a0, a0, -0x55e
80003566: ed01         	bnez	a0, 0x8000357e <.Lpcrel_hi284+0x12>
80003568: a81d         	j	0x8000359e <.Lpcrel_hi286>
8000356a: 6562         	ld	a0, 0x18(sp)

000000008000356c <.Lpcrel_hi284>:
8000356c: 00004597     	auipc	a1, 0x4
80003570: 33c58613     	addi	a2, a1, 0x33c
80003574: 4589         	li	a1, 0x2
80003576: 00002097     	auipc	ra, 0x2
8000357a: 794080e7     	jalr	0x794(ra) <core::panicking::panic_bounds_check::h6aaee0d15e0261eb>
8000357e: 6562         	ld	a0, 0x18(sp)
80003580: 00551593     	slli	a1, a0, 0x5

0000000080003584 <.Lpcrel_hi285>:
80003584: 0000d517     	auipc	a0, 0xd
80003588: a7c50513     	addi	a0, a0, -0x584
8000358c: 95aa         	add	a1, a1, a0
8000358e: 4505         	li	a0, 0x1
80003590: 00a58c23     	sb	a0, 0x18(a1)
80003594: 6562         	ld	a0, 0x18(sp)
80003596: 4589         	li	a1, 0x2
80003598: 00b56b63     	bltu	a0, a1, 0x800035ae <.Lpcrel_hi287>
8000359c: a839         	j	0x800035ba <.Lpcrel_hi287+0xc>

000000008000359e <.Lpcrel_hi286>:
8000359e: 00004517     	auipc	a0, 0x4
800035a2: 30a50513     	addi	a0, a0, 0x30a
800035a6: 00002097     	auipc	ra, 0x2
800035aa: 7d0080e7     	jalr	0x7d0(ra) <core::panicking::panic_null_pointer_dereference::hbac6411af4f2e916>

00000000800035ae <.Lpcrel_hi287>:
800035ae: 0000b517     	auipc	a0, 0xb
800035b2: a7250513     	addi	a0, a0, -0x58e
800035b6: ed01         	bnez	a0, 0x800035ce <.Lpcrel_hi288+0x12>
800035b8: a80d         	j	0x800035ea <.Lpcrel_hi290>
800035ba: 6562         	ld	a0, 0x18(sp)

00000000800035bc <.Lpcrel_hi288>:
800035bc: 00004597     	auipc	a1, 0x4
800035c0: 30458613     	addi	a2, a1, 0x304
800035c4: 4589         	li	a1, 0x2
800035c6: 00002097     	auipc	ra, 0x2
800035ca: 744080e7     	jalr	0x744(ra) <core::panicking::panic_bounds_check::h6aaee0d15e0261eb>
800035ce: 6562         	ld	a0, 0x18(sp)
800035d0: 00851613     	slli	a2, a0, 0x8

00000000800035d4 <.Lpcrel_hi289>:
800035d4: 0000b597     	auipc	a1, 0xb
800035d8: a4c58593     	addi	a1, a1, -0x5b4
800035dc: 95b2         	add	a1, a1, a2
800035de: 65ac         	ld	a1, 0x48(a1)
800035e0: e82e         	sd	a1, 0x10(sp)
800035e2: 4589         	li	a1, 0x2
800035e4: 00b56b63     	bltu	a0, a1, 0x800035fa <.Lpcrel_hi291>
800035e8: a839         	j	0x80003606 <.Lpcrel_hi291+0xc>

00000000800035ea <.Lpcrel_hi290>:
800035ea: 00004517     	auipc	a0, 0x4
800035ee: 2d650513     	addi	a0, a0, 0x2d6
800035f2: 00002097     	auipc	ra, 0x2
800035f6: 784080e7     	jalr	0x784(ra) <core::panicking::panic_null_pointer_dereference::hbac6411af4f2e916>

00000000800035fa <.Lpcrel_hi291>:
800035fa: 0000d517     	auipc	a0, 0xd
800035fe: a0650513     	addi	a0, a0, -0x5fa
80003602: ed01         	bnez	a0, 0x8000361a <.Lpcrel_hi292+0x12>
80003604: a815         	j	0x80003638 <.Lpcrel_hi294>
80003606: 6562         	ld	a0, 0x18(sp)

0000000080003608 <.Lpcrel_hi292>:
80003608: 00004597     	auipc	a1, 0x4
8000360c: 2d058613     	addi	a2, a1, 0x2d0
80003610: 4589         	li	a1, 0x2
80003612: 00002097     	auipc	ra, 0x2
80003616: 6f8080e7     	jalr	0x6f8(ra) <core::panicking::panic_bounds_check::h6aaee0d15e0261eb>
8000361a: 6542         	ld	a0, 0x10(sp)
8000361c: 65e2         	ld	a1, 0x18(sp)
8000361e: 00559613     	slli	a2, a1, 0x5

0000000080003622 <.Lpcrel_hi293>:
80003622: 0000d597     	auipc	a1, 0xd
80003626: 9de58593     	addi	a1, a1, -0x622
8000362a: 95b2         	add	a1, a1, a2
8000362c: e188         	sd	a0, 0x0(a1)
8000362e: 6562         	ld	a0, 0x18(sp)
80003630: 4589         	li	a1, 0x2
80003632: 00b56b63     	bltu	a0, a1, 0x80003648 <.Lpcrel_hi295>
80003636: a839         	j	0x80003654 <.Lpcrel_hi295+0xc>

0000000080003638 <.Lpcrel_hi294>:
80003638: 00004517     	auipc	a0, 0x4
8000363c: 2a050513     	addi	a0, a0, 0x2a0
80003640: 00002097     	auipc	ra, 0x2
80003644: 736080e7     	jalr	0x736(ra) <core::panicking::panic_null_pointer_dereference::hbac6411af4f2e916>

0000000080003648 <.Lpcrel_hi295>:
80003648: 0000b517     	auipc	a0, 0xb
8000364c: 9d850513     	addi	a0, a0, -0x628
80003650: ed01         	bnez	a0, 0x80003668 <.Lpcrel_hi296+0x12>
80003652: a80d         	j	0x80003684 <.Lpcrel_hi298>
80003654: 6562         	ld	a0, 0x18(sp)

0000000080003656 <.Lpcrel_hi296>:
80003656: 00004597     	auipc	a1, 0x4
8000365a: 29a58613     	addi	a2, a1, 0x29a
8000365e: 4589         	li	a1, 0x2
80003660: 00002097     	auipc	ra, 0x2
80003664: 6aa080e7     	jalr	0x6aa(ra) <core::panicking::panic_bounds_check::h6aaee0d15e0261eb>
80003668: 6562         	ld	a0, 0x18(sp)
8000366a: 00851613     	slli	a2, a0, 0x8

000000008000366e <.Lpcrel_hi297>:
8000366e: 0000b597     	auipc	a1, 0xb
80003672: 9b258593     	addi	a1, a1, -0x64e
80003676: 95b2         	add	a1, a1, a2
80003678: 69ac         	ld	a1, 0x50(a1)
8000367a: e42e         	sd	a1, 0x8(sp)
8000367c: 4589         	li	a1, 0x2
8000367e: 00b56b63     	bltu	a0, a1, 0x80003694 <.Lpcrel_hi299>
80003682: a839         	j	0x800036a0 <.Lpcrel_hi299+0xc>

0000000080003684 <.Lpcrel_hi298>:
80003684: 00004517     	auipc	a0, 0x4
80003688: 26c50513     	addi	a0, a0, 0x26c
8000368c: 00002097     	auipc	ra, 0x2
80003690: 6ea080e7     	jalr	0x6ea(ra) <core::panicking::panic_null_pointer_dereference::hbac6411af4f2e916>

0000000080003694 <.Lpcrel_hi299>:
80003694: 0000d517     	auipc	a0, 0xd
80003698: 96c50513     	addi	a0, a0, -0x694
8000369c: ed01         	bnez	a0, 0x800036b4 <.Lpcrel_hi300+0x12>
8000369e: a815         	j	0x800036d2 <.Lpcrel_hi302>
800036a0: 6562         	ld	a0, 0x18(sp)

00000000800036a2 <.Lpcrel_hi300>:
800036a2: 00004597     	auipc	a1, 0x4
800036a6: 26658613     	addi	a2, a1, 0x266
800036aa: 4589         	li	a1, 0x2
800036ac: 00002097     	auipc	ra, 0x2
800036b0: 65e080e7     	jalr	0x65e(ra) <core::panicking::panic_bounds_check::h6aaee0d15e0261eb>
800036b4: 6522         	ld	a0, 0x8(sp)
800036b6: 65e2         	ld	a1, 0x18(sp)
800036b8: 00559613     	slli	a2, a1, 0x5

00000000800036bc <.Lpcrel_hi301>:
800036bc: 0000d597     	auipc	a1, 0xd
800036c0: 94458593     	addi	a1, a1, -0x6bc
800036c4: 95b2         	add	a1, a1, a2
800036c6: e588         	sd	a0, 0x8(a1)
800036c8: 6562         	ld	a0, 0x18(sp)
800036ca: 4589         	li	a1, 0x2
800036cc: 00b56b63     	bltu	a0, a1, 0x800036e2 <.Lpcrel_hi303>
800036d0: a839         	j	0x800036ee <.Lpcrel_hi303+0xc>

00000000800036d2 <.Lpcrel_hi302>:
800036d2: 00004517     	auipc	a0, 0x4
800036d6: 23650513     	addi	a0, a0, 0x236
800036da: 00002097     	auipc	ra, 0x2
800036de: 69c080e7     	jalr	0x69c(ra) <core::panicking::panic_null_pointer_dereference::hbac6411af4f2e916>

00000000800036e2 <.Lpcrel_hi303>:
800036e2: 0000b517     	auipc	a0, 0xb
800036e6: 93e50513     	addi	a0, a0, -0x6c2
800036ea: ed01         	bnez	a0, 0x80003702 <.Lpcrel_hi304+0x12>
800036ec: a80d         	j	0x8000371e <.Lpcrel_hi306>
800036ee: 6562         	ld	a0, 0x18(sp)

00000000800036f0 <.Lpcrel_hi304>:
800036f0: 00004597     	auipc	a1, 0x4
800036f4: 23058613     	addi	a2, a1, 0x230
800036f8: 4589         	li	a1, 0x2
800036fa: 00002097     	auipc	ra, 0x2
800036fe: 610080e7     	jalr	0x610(ra) <core::panicking::panic_bounds_check::h6aaee0d15e0261eb>
80003702: 6562         	ld	a0, 0x18(sp)
80003704: 00851613     	slli	a2, a0, 0x8

0000000080003708 <.Lpcrel_hi305>:
80003708: 0000b597     	auipc	a1, 0xb
8000370c: 91858593     	addi	a1, a1, -0x6e8
80003710: 95b2         	add	a1, a1, a2
80003712: 6dac         	ld	a1, 0x58(a1)
80003714: e02e         	sd	a1, 0x0(sp)
80003716: 4589         	li	a1, 0x2
80003718: 00b56b63     	bltu	a0, a1, 0x8000372e <.Lpcrel_hi307>
8000371c: a839         	j	0x8000373a <.Lpcrel_hi307+0xc>

000000008000371e <.Lpcrel_hi306>:
8000371e: 00004517     	auipc	a0, 0x4
80003722: 20250513     	addi	a0, a0, 0x202
80003726: 00002097     	auipc	ra, 0x2
8000372a: 650080e7     	jalr	0x650(ra) <core::panicking::panic_null_pointer_dereference::hbac6411af4f2e916>

000000008000372e <.Lpcrel_hi307>:
8000372e: 0000d517     	auipc	a0, 0xd
80003732: 8d250513     	addi	a0, a0, -0x72e
80003736: ed01         	bnez	a0, 0x8000374e <.Lpcrel_hi308+0x12>
80003738: a815         	j	0x8000376c <.Lpcrel_hi310>
8000373a: 6562         	ld	a0, 0x18(sp)

000000008000373c <.Lpcrel_hi308>:
8000373c: 00004597     	auipc	a1, 0x4
80003740: 1fc58613     	addi	a2, a1, 0x1fc
80003744: 4589         	li	a1, 0x2
80003746: 00002097     	auipc	ra, 0x2
8000374a: 5c4080e7     	jalr	0x5c4(ra) <core::panicking::panic_bounds_check::h6aaee0d15e0261eb>
8000374e: 6502         	ld	a0, 0x0(sp)
80003750: 65e2         	ld	a1, 0x18(sp)
80003752: 00559613     	slli	a2, a1, 0x5

0000000080003756 <.Lpcrel_hi309>:
80003756: 0000d597     	auipc	a1, 0xd
8000375a: 8aa58593     	addi	a1, a1, -0x756
8000375e: 95b2         	add	a1, a1, a2
80003760: e988         	sd	a0, 0x10(a1)
80003762: 6562         	ld	a0, 0x18(sp)
80003764: 4589         	li	a1, 0x2
80003766: 00b56b63     	bltu	a0, a1, 0x8000377c <.Lpcrel_hi311>
8000376a: a839         	j	0x80003788 <.Lpcrel_hi311+0xc>

000000008000376c <.Lpcrel_hi310>:
8000376c: 00004517     	auipc	a0, 0x4
80003770: 1cc50513     	addi	a0, a0, 0x1cc
80003774: 00002097     	auipc	ra, 0x2
80003778: 602080e7     	jalr	0x602(ra) <core::panicking::panic_null_pointer_dereference::hbac6411af4f2e916>

000000008000377c <.Lpcrel_hi311>:
8000377c: 0000d517     	auipc	a0, 0xd
80003780: 88450513     	addi	a0, a0, -0x77c
80003784: ed01         	bnez	a0, 0x8000379c <.Lpcrel_hi312+0x12>
80003786: a815         	j	0x800037ba <.Lpcrel_hi314>
80003788: 6562         	ld	a0, 0x18(sp)

000000008000378a <.Lpcrel_hi312>:
8000378a: 00004597     	auipc	a1, 0x4
8000378e: 1c658613     	addi	a2, a1, 0x1c6
80003792: 4589         	li	a1, 0x2
80003794: 00002097     	auipc	ra, 0x2
80003798: 576080e7     	jalr	0x576(ra) <core::panicking::panic_bounds_check::h6aaee0d15e0261eb>
8000379c: 6562         	ld	a0, 0x18(sp)
8000379e: 00551593     	slli	a1, a0, 0x5

00000000800037a2 <.Lpcrel_hi313>:
800037a2: 0000d517     	auipc	a0, 0xd
800037a6: 85e50513     	addi	a0, a0, -0x7a2
800037aa: 952e         	add	a0, a0, a1
800037ac: 6108         	ld	a0, 0x0(a0)
800037ae: e0aa         	sd	a0, 0x40(sp)
800037b0: 6562         	ld	a0, 0x18(sp)
800037b2: 4589         	li	a1, 0x2
800037b4: 00b56b63     	bltu	a0, a1, 0x800037ca <.Lpcrel_hi315>
800037b8: a839         	j	0x800037d6 <.Lpcrel_hi315+0xc>

00000000800037ba <.Lpcrel_hi314>:
800037ba: 00004517     	auipc	a0, 0x4
800037be: 19650513     	addi	a0, a0, 0x196
800037c2: 00002097     	auipc	ra, 0x2
800037c6: 5b4080e7     	jalr	0x5b4(ra) <core::panicking::panic_null_pointer_dereference::hbac6411af4f2e916>

00000000800037ca <.Lpcrel_hi315>:
800037ca: 0000d517     	auipc	a0, 0xd
800037ce: 83650513     	addi	a0, a0, -0x7ca
800037d2: ed01         	bnez	a0, 0x800037ea <.Lpcrel_hi316+0x12>
800037d4: a815         	j	0x80003808 <.Lpcrel_hi318>
800037d6: 6562         	ld	a0, 0x18(sp)

00000000800037d8 <.Lpcrel_hi316>:
800037d8: 00004597     	auipc	a1, 0x4
800037dc: 19058613     	addi	a2, a1, 0x190
800037e0: 4589         	li	a1, 0x2
800037e2: 00002097     	auipc	ra, 0x2
800037e6: 528080e7     	jalr	0x528(ra) <core::panicking::panic_bounds_check::h6aaee0d15e0261eb>
800037ea: 6562         	ld	a0, 0x18(sp)
800037ec: 00551593     	slli	a1, a0, 0x5

00000000800037f0 <.Lpcrel_hi317>:
800037f0: 0000d517     	auipc	a0, 0xd
800037f4: 81050513     	addi	a0, a0, -0x7f0
800037f8: 952e         	add	a0, a0, a1
800037fa: 6508         	ld	a0, 0x8(a0)
800037fc: e4aa         	sd	a0, 0x48(sp)
800037fe: 6562         	ld	a0, 0x18(sp)
80003800: 4589         	li	a1, 0x2
80003802: 00b56b63     	bltu	a0, a1, 0x80003818 <.Lpcrel_hi319>
80003806: a839         	j	0x80003824 <.Lpcrel_hi319+0xc>

0000000080003808 <.Lpcrel_hi318>:
80003808: 00004517     	auipc	a0, 0x4
8000380c: 16050513     	addi	a0, a0, 0x160
80003810: 00002097     	auipc	ra, 0x2
80003814: 566080e7     	jalr	0x566(ra) <core::panicking::panic_null_pointer_dereference::hbac6411af4f2e916>

0000000080003818 <.Lpcrel_hi319>:
80003818: 0000c517     	auipc	a0, 0xc
8000381c: 7e850513     	addi	a0, a0, 0x7e8
80003820: ed01         	bnez	a0, 0x80003838 <.Lpcrel_hi320+0x12>
80003822: a06d         	j	0x800038cc <.Lpcrel_hi323>
80003824: 6562         	ld	a0, 0x18(sp)

0000000080003826 <.Lpcrel_hi320>:
80003826: 00004597     	auipc	a1, 0x4
8000382a: 15a58613     	addi	a2, a1, 0x15a
8000382e: 4589         	li	a1, 0x2
80003830: 00002097     	auipc	ra, 0x2
80003834: 4da080e7     	jalr	0x4da(ra) <core::panicking::panic_bounds_check::h6aaee0d15e0261eb>
80003838: 6562         	ld	a0, 0x18(sp)
8000383a: 00551593     	slli	a1, a0, 0x5

000000008000383e <.Lpcrel_hi321>:
8000383e: 0000c517     	auipc	a0, 0xc
80003842: 7c250513     	addi	a0, a0, 0x7c2
80003846: 952e         	add	a0, a0, a1
80003848: 6908         	ld	a0, 0x10(a0)
8000384a: e8aa         	sd	a0, 0x50(sp)
8000384c: 0828         	addi	a0, sp, 0x18
8000384e: f02a         	sd	a0, 0x20(sp)
80003850: 0088         	addi	a0, sp, 0x40
80003852: f42a         	sd	a0, 0x28(sp)
80003854: 00a8         	addi	a0, sp, 0x48
80003856: f82a         	sd	a0, 0x30(sp)
80003858: 0888         	addi	a0, sp, 0x50
8000385a: fc2a         	sd	a0, 0x38(sp)
8000385c: 7582         	ld	a1, 0x20(sp)
8000385e: 0928         	addi	a0, sp, 0x98
80003860: ffffd097     	auipc	ra, 0xffffd
80003864: 818080e7     	jalr	-0x7e8(ra) <core::fmt::rt::Argument::new_display::ha62cb5597af22ae5>
80003868: 75a2         	ld	a1, 0x28(sp)
8000386a: 1128         	addi	a0, sp, 0xa8
8000386c: ffffd097     	auipc	ra, 0xffffd
80003870: 850080e7     	jalr	-0x7b0(ra) <core::fmt::rt::Argument::new_lower_hex::h97cd78ad3a047fe9>
80003874: 75c2         	ld	a1, 0x30(sp)
80003876: 1928         	addi	a0, sp, 0xb8
80003878: ffffd097     	auipc	ra, 0xffffd
8000387c: 844080e7     	jalr	-0x7bc(ra) <core::fmt::rt::Argument::new_lower_hex::h97cd78ad3a047fe9>
80003880: 75e2         	ld	a1, 0x38(sp)
80003882: 01a8         	addi	a0, sp, 0xc8
80003884: ffffd097     	auipc	ra, 0xffffd
80003888: 838080e7     	jalr	-0x7c8(ra) <core::fmt::rt::Argument::new_lower_hex::h97cd78ad3a047fe9>
8000388c: 750a         	ld	a0, 0xa0(sp)
8000388e: f0aa         	sd	a0, 0x60(sp)
80003890: 656a         	ld	a0, 0x98(sp)
80003892: ecaa         	sd	a0, 0x58(sp)
80003894: 754a         	ld	a0, 0xb0(sp)
80003896: f8aa         	sd	a0, 0x70(sp)
80003898: 752a         	ld	a0, 0xa8(sp)
8000389a: f4aa         	sd	a0, 0x68(sp)
8000389c: 650e         	ld	a0, 0xc0(sp)
8000389e: e12a         	sd	a0, 0x80(sp)
800038a0: 756a         	ld	a0, 0xb8(sp)
800038a2: fcaa         	sd	a0, 0x78(sp)
800038a4: 654e         	ld	a0, 0xd0(sp)
800038a6: e92a         	sd	a0, 0x90(sp)
800038a8: 652e         	ld	a0, 0xc8(sp)
800038aa: e52a         	sd	a0, 0x88(sp)

00000000800038ac <.Lpcrel_hi322>:
800038ac: 00004517     	auipc	a0, 0x4
800038b0: 0ec50513     	addi	a0, a0, 0xec
800038b4: 08ac         	addi	a1, sp, 0x58
800038b6: ffffd097     	auipc	ra, 0xffffd
800038ba: 9d4080e7     	jalr	-0x62c(ra) <core::fmt::Arguments::new::h8562e8c24410ea16>
800038be: ffffd097     	auipc	ra, 0xffffd
800038c2: 518080e7     	jalr	0x518(ra) <lab7_kernel_task1::console::print::h4532f48a1410ef53>
800038c6: 60ee         	ld	ra, 0xd8(sp)
800038c8: 612d         	addi	sp, sp, 0xe0
800038ca: 8082         	ret

00000000800038cc <.Lpcrel_hi323>:
800038cc: 00004517     	auipc	a0, 0x4
800038d0: 0b450513     	addi	a0, a0, 0xb4
800038d4: 00002097     	auipc	ra, 0x2
800038d8: 4a2080e7     	jalr	0x4a2(ra) <core::panicking::panic_null_pointer_dereference::hbac6411af4f2e916>

00000000800038dc <lab7_kernel_task1::proc_low_l1_table_ptr::he78fd751b538fa03>:
800038dc: 1141         	addi	sp, sp, -0x10
800038de: 85aa         	mv	a1, a0
800038e0: e02e         	sd	a1, 0x0(sp)
800038e2: e42e         	sd	a1, 0x8(sp)
800038e4: 4505         	li	a0, 0x1
800038e6: 00b56d63     	bltu	a0, a1, 0x80003900 <.Lpcrel_hi324+0xe>
800038ea: a009         	j	0x800038ec <lab7_kernel_task1::proc_low_l1_table_ptr::he78fd751b538fa03+0x10>
800038ec: 6502         	ld	a0, 0x0(sp)
800038ee: 00c51593     	slli	a1, a0, 0xc

00000000800038f2 <.Lpcrel_hi324>:
800038f2: 00010517     	auipc	a0, 0x10
800038f6: 70e50513     	addi	a0, a0, 0x70e
800038fa: 952e         	add	a0, a0, a1
800038fc: 0141         	addi	sp, sp, 0x10
800038fe: 8082         	ret
80003900: 6502         	ld	a0, 0x0(sp)

0000000080003902 <.Lpcrel_hi325>:
80003902: 00004597     	auipc	a1, 0x4
80003906: 0de58613     	addi	a2, a1, 0xde
8000390a: 4589         	li	a1, 0x2
8000390c: 00002097     	auipc	ra, 0x2
80003910: 3fe080e7     	jalr	0x3fe(ra) <core::panicking::panic_bounds_check::h6aaee0d15e0261eb>

0000000080003914 <lab7_kernel_task1::proc_user_l0_table_pa::h33af185fe017704c>:
80003914: 1141         	addi	sp, sp, -0x10
80003916: 85aa         	mv	a1, a0
80003918: e02e         	sd	a1, 0x0(sp)
8000391a: e42e         	sd	a1, 0x8(sp)
8000391c: 4505         	li	a0, 0x1
8000391e: 00b56d63     	bltu	a0, a1, 0x80003938 <.Lpcrel_hi326+0xe>
80003922: a009         	j	0x80003924 <lab7_kernel_task1::proc_user_l0_table_pa::h33af185fe017704c+0x10>
80003924: 6502         	ld	a0, 0x0(sp)
80003926: 00c51593     	slli	a1, a0, 0xc

000000008000392a <.Lpcrel_hi326>:
8000392a: 00013517     	auipc	a0, 0x13
8000392e: 6d650513     	addi	a0, a0, 0x6d6
80003932: 952e         	add	a0, a0, a1
80003934: 0141         	addi	sp, sp, 0x10
80003936: 8082         	ret
80003938: 6502         	ld	a0, 0x0(sp)

000000008000393a <.Lpcrel_hi327>:
8000393a: 00004597     	auipc	a1, 0x4
8000393e: 0be58613     	addi	a2, a1, 0xbe
80003942: 4589         	li	a1, 0x2
80003944: 00002097     	auipc	ra, 0x2
80003948: 3c6080e7     	jalr	0x3c6(ra) <core::panicking::panic_bounds_check::h6aaee0d15e0261eb>

000000008000394c <lab7_kernel_task1::machine_trap_stack_top::hea818b958e0fc216>:
8000394c: 0002b517     	auipc	a0, 0x2b
80003950: 6c450513     	addi	a0, a0, 0x6c4
80003954: 8082         	ret

0000000080003956 <lab7_kernel_task1::other_runnable_or_self::h0f8ccea00fd102c0>:
80003956: 7179         	addi	sp, sp, -0x30
80003958: f406         	sd	ra, 0x28(sp)
8000395a: e02a         	sd	a0, 0x0(sp)
8000395c: ec2a         	sd	a0, 0x18(sp)
8000395e: 00001097     	auipc	ra, 0x1
80003962: a5e080e7     	jalr	-0x5a2(ra) <lab7_kernel_task1::other_pid::h12e3a7827db38f12>
80003966: 85aa         	mv	a1, a0
80003968: 852e         	mv	a0, a1
8000396a: e42a         	sd	a0, 0x8(sp)
8000396c: f02e         	sd	a1, 0x20(sp)
8000396e: 4505         	li	a0, 0x1
80003970: 00b56963     	bltu	a0, a1, 0x80003982 <.Lpcrel_hi329+0xc>
80003974: a009         	j	0x80003976 <.Lpcrel_hi329>

0000000080003976 <.Lpcrel_hi329>:
80003976: 00005517     	auipc	a0, 0x5
8000397a: 69250513     	addi	a0, a0, 0x692
8000397e: ed01         	bnez	a0, 0x80003996 <.Lpcrel_hi330+0x12>
80003980: a81d         	j	0x800039b6 <.Lpcrel_hi332>
80003982: 6522         	ld	a0, 0x8(sp)

0000000080003984 <.Lpcrel_hi330>:
80003984: 00004597     	auipc	a1, 0x4
80003988: 08c58613     	addi	a2, a1, 0x8c
8000398c: 4589         	li	a1, 0x2
8000398e: 00002097     	auipc	ra, 0x2
80003992: 37c080e7     	jalr	0x37c(ra) <core::panicking::panic_bounds_check::h6aaee0d15e0261eb>
80003996: 6522         	ld	a0, 0x8(sp)
80003998: 00351593     	slli	a1, a0, 0x3
8000399c: 0516         	slli	a0, a0, 0x5
8000399e: 40b505b3     	sub	a1, a0, a1

00000000800039a2 <.Lpcrel_hi331>:
800039a2: 00005517     	auipc	a0, 0x5
800039a6: 66650513     	addi	a0, a0, 0x666
800039aa: 952e         	add	a0, a0, a1
800039ac: 6108         	ld	a0, 0x0(a0)
800039ae: 4585         	li	a1, 0x1
800039b0: 00b50e63     	beq	a0, a1, 0x800039cc <.Lpcrel_hi332+0x16>
800039b4: a809         	j	0x800039c6 <.Lpcrel_hi332+0x10>

00000000800039b6 <.Lpcrel_hi332>:
800039b6: 00004517     	auipc	a0, 0x4
800039ba: 05a50513     	addi	a0, a0, 0x5a
800039be: 00002097     	auipc	ra, 0x2
800039c2: 3b8080e7     	jalr	0x3b8(ra) <core::panicking::panic_null_pointer_dereference::hbac6411af4f2e916>
800039c6: 6502         	ld	a0, 0x0(sp)
800039c8: e82a         	sd	a0, 0x10(sp)
800039ca: a021         	j	0x800039d2 <.Lpcrel_hi332+0x1c>
800039cc: 6522         	ld	a0, 0x8(sp)
800039ce: e82a         	sd	a0, 0x10(sp)
800039d0: a009         	j	0x800039d2 <.Lpcrel_hi332+0x1c>
800039d2: 6542         	ld	a0, 0x10(sp)
800039d4: 70a2         	ld	ra, 0x28(sp)
800039d6: 6145         	addi	sp, sp, 0x30
800039d8: 8082         	ret

00000000800039da <lab7_kernel_task1::proc_user_l0_table_ptr::h92a59938cf003d6f>:
800039da: 1141         	addi	sp, sp, -0x10
800039dc: 85aa         	mv	a1, a0
800039de: e02e         	sd	a1, 0x0(sp)
800039e0: e42e         	sd	a1, 0x8(sp)
800039e2: 4505         	li	a0, 0x1
800039e4: 00b56d63     	bltu	a0, a1, 0x800039fe <.Lpcrel_hi333+0xe>
800039e8: a009         	j	0x800039ea <lab7_kernel_task1::proc_user_l0_table_ptr::h92a59938cf003d6f+0x10>
800039ea: 6502         	ld	a0, 0x0(sp)
800039ec: 00c51593     	slli	a1, a0, 0xc

00000000800039f0 <.Lpcrel_hi333>:
800039f0: 00013517     	auipc	a0, 0x13
800039f4: 61050513     	addi	a0, a0, 0x610
800039f8: 952e         	add	a0, a0, a1
800039fa: 0141         	addi	sp, sp, 0x10
800039fc: 8082         	ret
800039fe: 6502         	ld	a0, 0x0(sp)

0000000080003a00 <.Lpcrel_hi334>:
80003a00: 00004597     	auipc	a1, 0x4
80003a04: 02858613     	addi	a2, a1, 0x28
80003a08: 4589         	li	a1, 0x2
80003a0a: 00002097     	auipc	ra, 0x2
80003a0e: 300080e7     	jalr	0x300(ra) <core::panicking::panic_bounds_check::h6aaee0d15e0261eb>

0000000080003a12 <lab7_kernel_task1::next_runnable_after_exit::h1eb94ca950738ab1>:
80003a12: 711d         	addi	sp, sp, -0x60
80003a14: ec86         	sd	ra, 0x58(sp)
80003a16: 4501         	li	a0, 0x0
80003a18: 4589         	li	a1, 0x2
80003a1a: ffffd097     	auipc	ra, 0xffffd
80003a1e: f08080e7     	jalr	-0xf8(ra) <_$LT$I$u20$as$u20$core..iter..traits..collect..IntoIterator$GT$::into_iter::h5822f301be3c3603>
80003a22: f82a         	sd	a0, 0x30(sp)
80003a24: fc2e         	sd	a1, 0x38(sp)
80003a26: a009         	j	0x80003a28 <lab7_kernel_task1::next_runnable_after_exit::h1eb94ca950738ab1+0x16>
80003a28: 1808         	addi	a0, sp, 0x30
80003a2a: ffffd097     	auipc	ra, 0xffffd
80003a2e: ee4080e7     	jalr	-0x11c(ra) <core::iter::range::_$LT$impl$u20$core..iter..traits..iterator..Iterator$u20$for$u20$core..ops..range..Range$LT$A$GT$$GT$::next::he20788f8e9740484>
80003a32: e0aa         	sd	a0, 0x40(sp)
80003a34: e4ae         	sd	a1, 0x48(sp)
80003a36: 6506         	ld	a0, 0x40(sp)
80003a38: 8905         	andi	a0, a0, 0x1
80003a3a: c919         	beqz	a0, 0x80003a50 <lab7_kernel_task1::next_runnable_after_exit::h1eb94ca950738ab1+0x3e>
80003a3c: a009         	j	0x80003a3e <lab7_kernel_task1::next_runnable_after_exit::h1eb94ca950738ab1+0x2c>
80003a3e: 6526         	ld	a0, 0x48(sp)
80003a40: e82a         	sd	a0, 0x10(sp)
80003a42: e8aa         	sd	a0, 0x50(sp)
80003a44: 4589         	li	a1, 0x2
80003a46: 862a         	mv	a2, a0
80003a48: ec32         	sd	a2, 0x18(sp)
80003a4a: 00b56b63     	bltu	a0, a1, 0x80003a60 <.Lpcrel_hi335>
80003a4e: a839         	j	0x80003a6c <.Lpcrel_hi335+0xc>
80003a50: 4501         	li	a0, 0x0
80003a52: f02a         	sd	a0, 0x20(sp)
80003a54: a009         	j	0x80003a56 <lab7_kernel_task1::next_runnable_after_exit::h1eb94ca950738ab1+0x44>
80003a56: 7502         	ld	a0, 0x20(sp)
80003a58: 75a2         	ld	a1, 0x28(sp)
80003a5a: 60e6         	ld	ra, 0x58(sp)
80003a5c: 6125         	addi	sp, sp, 0x60
80003a5e: 8082         	ret

0000000080003a60 <.Lpcrel_hi335>:
80003a60: 00005517     	auipc	a0, 0x5
80003a64: 5a850513     	addi	a0, a0, 0x5a8
80003a68: ed01         	bnez	a0, 0x80003a80 <.Lpcrel_hi336+0x12>
80003a6a: a82d         	j	0x80003aa4 <.Lpcrel_hi338>
80003a6c: 6562         	ld	a0, 0x18(sp)

0000000080003a6e <.Lpcrel_hi336>:
80003a6e: 00004597     	auipc	a1, 0x4
80003a72: fd258613     	addi	a2, a1, -0x2e
80003a76: 4589         	li	a1, 0x2
80003a78: 00002097     	auipc	ra, 0x2
80003a7c: 292080e7     	jalr	0x292(ra) <core::panicking::panic_bounds_check::h6aaee0d15e0261eb>
80003a80: 6642         	ld	a2, 0x10(sp)
80003a82: 00361593     	slli	a1, a2, 0x3
80003a86: 00561513     	slli	a0, a2, 0x5
80003a8a: 40b505b3     	sub	a1, a0, a1

0000000080003a8e <.Lpcrel_hi337>:
80003a8e: 00005517     	auipc	a0, 0x5
80003a92: 57a50513     	addi	a0, a0, 0x57a
80003a96: 952e         	add	a0, a0, a1
80003a98: 6108         	ld	a0, 0x0(a0)
80003a9a: 4585         	li	a1, 0x1
80003a9c: e432         	sd	a2, 0x8(sp)
80003a9e: 00b50b63     	beq	a0, a1, 0x80003ab4 <.Lpcrel_hi338+0x10>
80003aa2: b759         	j	0x80003a28 <lab7_kernel_task1::next_runnable_after_exit::h1eb94ca950738ab1+0x16>

0000000080003aa4 <.Lpcrel_hi338>:
80003aa4: 00004517     	auipc	a0, 0x4
80003aa8: f9c50513     	addi	a0, a0, -0x64
80003aac: 00002097     	auipc	ra, 0x2
80003ab0: 2ca080e7     	jalr	0x2ca(ra) <core::panicking::panic_null_pointer_dereference::hbac6411af4f2e916>
80003ab4: 6522         	ld	a0, 0x8(sp)
80003ab6: f42a         	sd	a0, 0x28(sp)
80003ab8: 4505         	li	a0, 0x1
80003aba: f02a         	sd	a0, 0x20(sp)
80003abc: bf69         	j	0x80003a56 <lab7_kernel_task1::next_runnable_after_exit::h1eb94ca950738ab1+0x44>

0000000080003abe <lab7_kernel_task1::supervisor_trap_stack_top::hb50641fd24dc6bd7>:
80003abe: 00027517     	auipc	a0, 0x27
80003ac2: 55250513     	addi	a0, a0, 0x552
80003ac6: 8082         	ret

0000000080003ac8 <lab7_kernel_task1::build_global_kernel_tables::hf7eea55769fe3077>:
80003ac8: 7119         	addi	sp, sp, -0x80
80003aca: fc86         	sd	ra, 0x78(sp)

0000000080003acc <.Lpcrel_hi340>:
80003acc: 0000f517     	auipc	a0, 0xf
80003ad0: 53450513     	addi	a0, a0, 0x534
80003ad4: ffffe097     	auipc	ra, 0xffffe
80003ad8: 178080e7     	jalr	0x178(ra) <lab7_kernel_task1::clear_page_table::h8ca5e429a123d989>

0000000080003adc <.Lpcrel_hi341>:
80003adc: 00016517     	auipc	a0, 0x16
80003ae0: 52450513     	addi	a0, a0, 0x524
80003ae4: ffffe097     	auipc	ra, 0xffffe
80003ae8: 168080e7     	jalr	0x168(ra) <lab7_kernel_task1::clear_page_table::h8ca5e429a123d989>
80003aec: 00100537     	lui	a0, 0x100
80003af0: f82a         	sd	a0, 0x30(sp)
80003af2: 0c600593     	li	a1, 0xc6
80003af6: 00001097     	auipc	ra, 0x1
80003afa: 826080e7     	jalr	-0x7da(ra) <lab7_kernel_task1::leaf_pte::hb726d55f476e21c9>
80003afe: 85aa         	mv	a1, a0
80003b00: 7542         	ld	a0, 0x30(sp)
80003b02: fc2e         	sd	a1, 0x38(sp)
80003b04: ffffd097     	auipc	ra, 0xffffd
80003b08: 704080e7     	jalr	0x704(ra) <lab7_kernel_task1::vpn0_index::h03dd3a93713d0e2e>
80003b0c: 85aa         	mv	a1, a0
80003b0e: 852e         	mv	a0, a1
80003b10: e0aa         	sd	a0, 0x40(sp)
80003b12: 1ff00513     	li	a0, 0x1ff
80003b16: 00b56a63     	bltu	a0, a1, 0x80003b2a <.Lpcrel_hi342+0xe>
80003b1a: a009         	j	0x80003b1c <.Lpcrel_hi342>

0000000080003b1c <.Lpcrel_hi342>:
80003b1c: 0000f517     	auipc	a0, 0xf
80003b20: 4e450513     	addi	a0, a0, 0x4e4
80003b24: 1552         	slli	a0, a0, 0x34
80003b26: cd09         	beqz	a0, 0x80003b40 <.Lpcrel_hi344>
80003b28: a015         	j	0x80003b4c <.Lpcrel_hi345>
80003b2a: 6506         	ld	a0, 0x40(sp)

0000000080003b2c <.Lpcrel_hi343>:
80003b2c: 00004597     	auipc	a1, 0x4
80003b30: f2c58613     	addi	a2, a1, -0xd4
80003b34: 20000593     	li	a1, 0x200
80003b38: 00002097     	auipc	ra, 0x2
80003b3c: 1d2080e7     	jalr	0x1d2(ra) <core::panicking::panic_bounds_check::h6aaee0d15e0261eb>

0000000080003b40 <.Lpcrel_hi344>:
80003b40: 0000f517     	auipc	a0, 0xf
80003b44: 4c050513     	addi	a0, a0, 0x4c0
80003b48: ed19         	bnez	a0, 0x80003b66 <.Lpcrel_hi346+0x12>
80003b4a: a089         	j	0x80003b8c <.Lpcrel_hi348>

0000000080003b4c <.Lpcrel_hi345>:
80003b4c: 0000f517     	auipc	a0, 0xf
80003b50: 4b450593     	addi	a1, a0, 0x4b4

0000000080003b54 <.Lpcrel_hi346>:
80003b54: 00004517     	auipc	a0, 0x4
80003b58: f0450613     	addi	a2, a0, -0xfc
80003b5c: 6505         	lui	a0, 0x1
80003b5e: 00002097     	auipc	ra, 0x2
80003b62: 238080e7     	jalr	0x238(ra) <core::panicking::panic_misaligned_pointer_dereference::hda85f7fb51d959f0>
80003b66: 7562         	ld	a0, 0x38(sp)
80003b68: 6586         	ld	a1, 0x40(sp)
80003b6a: 00359613     	slli	a2, a1, 0x3

0000000080003b6e <.Lpcrel_hi347>:
80003b6e: 0000f597     	auipc	a1, 0xf
80003b72: 49258593     	addi	a1, a1, 0x492
80003b76: 95b2         	add	a1, a1, a2
80003b78: e188         	sd	a0, 0x0(a1)
80003b7a: 4501         	li	a0, 0x0
80003b7c: 45a1         	li	a1, 0x8
80003b7e: ffffd097     	auipc	ra, 0xffffd
80003b82: da4080e7     	jalr	-0x25c(ra) <_$LT$I$u20$as$u20$core..iter..traits..collect..IntoIterator$GT$::into_iter::h5822f301be3c3603>
80003b86: e4aa         	sd	a0, 0x48(sp)
80003b88: e8ae         	sd	a1, 0x50(sp)
80003b8a: a809         	j	0x80003b9c <.Lpcrel_hi348+0x10>

0000000080003b8c <.Lpcrel_hi348>:
80003b8c: 00004517     	auipc	a0, 0x4
80003b90: ecc50513     	addi	a0, a0, -0x134
80003b94: 00002097     	auipc	ra, 0x2
80003b98: 1e2080e7     	jalr	0x1e2(ra) <core::panicking::panic_null_pointer_dereference::hbac6411af4f2e916>
80003b9c: 00a8         	addi	a0, sp, 0x48
80003b9e: ffffd097     	auipc	ra, 0xffffd
80003ba2: d70080e7     	jalr	-0x290(ra) <core::iter::range::_$LT$impl$u20$core..iter..traits..iterator..Iterator$u20$for$u20$core..ops..range..Range$LT$A$GT$$GT$::next::he20788f8e9740484>
80003ba6: ecaa         	sd	a0, 0x58(sp)
80003ba8: f0ae         	sd	a1, 0x60(sp)
80003baa: 6566         	ld	a0, 0x58(sp)
80003bac: 8905         	andi	a0, a0, 0x1
80003bae: cd01         	beqz	a0, 0x80003bc6 <.Lpcrel_hi348+0x3a>
80003bb0: a009         	j	0x80003bb2 <.Lpcrel_hi348+0x26>
80003bb2: 7586         	ld	a1, 0x60(sp)
80003bb4: f02e         	sd	a1, 0x20(sp)
80003bb6: f4ae         	sd	a1, 0x68(sp)
80003bb8: 01559513     	slli	a0, a1, 0x15
80003bbc: f42a         	sd	a0, 0x28(sp)
80003bbe: 8155         	srli	a0, a0, 0x15
80003bc0: 00b51e63     	bne	a0, a1, 0x80003bdc <.Lpcrel_hi349>
80003bc4: a021         	j	0x80003bcc <.Lpcrel_hi348+0x40>
80003bc6: 70e6         	ld	ra, 0x78(sp)
80003bc8: 6109         	addi	sp, sp, 0x80
80003bca: 8082         	ret
80003bcc: 7522         	ld	a0, 0x28(sp)
80003bce: 800005b7     	lui	a1, 0x80000
80003bd2: 8d0d         	sub	a0, a0, a1
80003bd4: ec2a         	sd	a0, 0x18(sp)
80003bd6: 817d         	srli	a0, a0, 0x1f
80003bd8: cd05         	beqz	a0, 0x80003c10 <.Lpcrel_hi350>
80003bda: a809         	j	0x80003bec <.Lpcrel_hi349+0x10>

0000000080003bdc <.Lpcrel_hi349>:
80003bdc: 00004517     	auipc	a0, 0x4
80003be0: e9450513     	addi	a0, a0, -0x16c
80003be4: 00002097     	auipc	ra, 0x2
80003be8: 0cc080e7     	jalr	0xcc(ra) <core::panicking::panic_const::panic_const_mul_overflow::h67897feae7531d51>
80003bec: 6562         	ld	a0, 0x18(sp)
80003bee: f8aa         	sd	a0, 0x70(sp)
80003bf0: 0ce00593     	li	a1, 0xce
80003bf4: 00000097     	auipc	ra, 0x0
80003bf8: 728080e7     	jalr	0x728(ra) <lab7_kernel_task1::leaf_pte::hb726d55f476e21c9>
80003bfc: 85aa         	mv	a1, a0
80003bfe: 7502         	ld	a0, 0x20(sp)
80003c00: e42e         	sd	a1, 0x8(sp)
80003c02: 20000593     	li	a1, 0x200
80003c06: 862a         	mv	a2, a0
80003c08: e832         	sd	a2, 0x10(sp)
80003c0a: 00b56b63     	bltu	a0, a1, 0x80003c20 <.Lpcrel_hi351>
80003c0e: a005         	j	0x80003c2e <.Lpcrel_hi351+0xe>

0000000080003c10 <.Lpcrel_hi350>:
80003c10: 00004517     	auipc	a0, 0x4
80003c14: e7850513     	addi	a0, a0, -0x188
80003c18: 00002097     	auipc	ra, 0x2
80003c1c: 07a080e7     	jalr	0x7a(ra) <core::panicking::panic_const::panic_const_add_overflow::h67cba067093910f8>

0000000080003c20 <.Lpcrel_hi351>:
80003c20: 00016517     	auipc	a0, 0x16
80003c24: 3e050513     	addi	a0, a0, 0x3e0
80003c28: 1552         	slli	a0, a0, 0x34
80003c2a: cd09         	beqz	a0, 0x80003c44 <.Lpcrel_hi353>
80003c2c: a015         	j	0x80003c50 <.Lpcrel_hi354>
80003c2e: 6542         	ld	a0, 0x10(sp)

0000000080003c30 <.Lpcrel_hi352>:
80003c30: 00004597     	auipc	a1, 0x4
80003c34: e7058613     	addi	a2, a1, -0x190
80003c38: 20000593     	li	a1, 0x200
80003c3c: 00002097     	auipc	ra, 0x2
80003c40: 0ce080e7     	jalr	0xce(ra) <core::panicking::panic_bounds_check::h6aaee0d15e0261eb>

0000000080003c44 <.Lpcrel_hi353>:
80003c44: 00016517     	auipc	a0, 0x16
80003c48: 3bc50513     	addi	a0, a0, 0x3bc
80003c4c: ed19         	bnez	a0, 0x80003c6a <.Lpcrel_hi355+0x12>
80003c4e: a80d         	j	0x80003c80 <.Lpcrel_hi357>

0000000080003c50 <.Lpcrel_hi354>:
80003c50: 00016517     	auipc	a0, 0x16
80003c54: 3b050593     	addi	a1, a0, 0x3b0

0000000080003c58 <.Lpcrel_hi355>:
80003c58: 00004517     	auipc	a0, 0x4
80003c5c: e4850613     	addi	a2, a0, -0x1b8
80003c60: 6505         	lui	a0, 0x1
80003c62: 00002097     	auipc	ra, 0x2
80003c66: 134080e7     	jalr	0x134(ra) <core::panicking::panic_misaligned_pointer_dereference::hda85f7fb51d959f0>
80003c6a: 6522         	ld	a0, 0x8(sp)
80003c6c: 7582         	ld	a1, 0x20(sp)
80003c6e: 00359613     	slli	a2, a1, 0x3

0000000080003c72 <.Lpcrel_hi356>:
80003c72: 00016597     	auipc	a1, 0x16
80003c76: 38e58593     	addi	a1, a1, 0x38e
80003c7a: 95b2         	add	a1, a1, a2
80003c7c: e188         	sd	a0, 0x0(a1)
80003c7e: bf39         	j	0x80003b9c <.Lpcrel_hi348+0x10>

0000000080003c80 <.Lpcrel_hi357>:
80003c80: 00004517     	auipc	a0, 0x4
80003c84: e2050513     	addi	a0, a0, -0x1e0
80003c88: 00002097     	auipc	ra, 0x2
80003c8c: 0ee080e7     	jalr	0xee(ra) <core::panicking::panic_null_pointer_dereference::hbac6411af4f2e916>

0000000080003c90 <lab7_kernel_task1::increment_data_page_refcount::h6668795be4856271>:
80003c90: 7179         	addi	sp, sp, -0x30
80003c92: f406         	sd	ra, 0x28(sp)
80003c94: ec2a         	sd	a0, 0x18(sp)
80003c96: ffffe097     	auipc	ra, 0xffffe
80003c9a: e18080e7     	jalr	-0x1e8(ra) <lab7_kernel_task1::data_page_index::h0397f6d811e6e48e>
80003c9e: 85aa         	mv	a1, a0
80003ca0: 852e         	mv	a0, a1
80003ca2: e82a         	sd	a0, 0x10(sp)
80003ca4: f02e         	sd	a1, 0x20(sp)
80003ca6: 450d         	li	a0, 0x3
80003ca8: 00b56963     	bltu	a0, a1, 0x80003cba <.Lpcrel_hi358+0xc>
80003cac: a009         	j	0x80003cae <.Lpcrel_hi358>

0000000080003cae <.Lpcrel_hi358>:
80003cae: 0000a517     	auipc	a0, 0xa
80003cb2: 35250513     	addi	a0, a0, 0x352
80003cb6: ed01         	bnez	a0, 0x80003cce <.Lpcrel_hi359+0x12>
80003cb8: a815         	j	0x80003cec <.Lpcrel_hi361>
80003cba: 6542         	ld	a0, 0x10(sp)

0000000080003cbc <.Lpcrel_hi359>:
80003cbc: 00004597     	auipc	a1, 0x4
80003cc0: dfc58613     	addi	a2, a1, -0x204
80003cc4: 4591         	li	a1, 0x4
80003cc6: 00002097     	auipc	ra, 0x2
80003cca: 044080e7     	jalr	0x44(ra) <core::panicking::panic_bounds_check::h6aaee0d15e0261eb>
80003cce: 6542         	ld	a0, 0x10(sp)
80003cd0: 00351593     	slli	a1, a0, 0x3

0000000080003cd4 <.Lpcrel_hi360>:
80003cd4: 0000a517     	auipc	a0, 0xa
80003cd8: 32c50513     	addi	a0, a0, 0x32c
80003cdc: 952e         	add	a0, a0, a1
80003cde: 610c         	ld	a1, 0x0(a0)
80003ce0: 00158513     	addi	a0, a1, 0x1
80003ce4: e42a         	sd	a0, 0x8(sp)
80003ce6: 02b56163     	bltu	a0, a1, 0x80003d08 <.Lpcrel_hi363>
80003cea: a809         	j	0x80003cfc <.Lpcrel_hi362>

0000000080003cec <.Lpcrel_hi361>:
80003cec: 00004517     	auipc	a0, 0x4
80003cf0: dcc50513     	addi	a0, a0, -0x234
80003cf4: 00002097     	auipc	ra, 0x2
80003cf8: 082080e7     	jalr	0x82(ra) <core::panicking::panic_null_pointer_dereference::hbac6411af4f2e916>

0000000080003cfc <.Lpcrel_hi362>:
80003cfc: 0000a517     	auipc	a0, 0xa
80003d00: 30450513     	addi	a0, a0, 0x304
80003d04: e911         	bnez	a0, 0x80003d18 <.Lpcrel_hi363+0x10>
80003d06: a035         	j	0x80003d32 <.Lpcrel_hi365>

0000000080003d08 <.Lpcrel_hi363>:
80003d08: 00004517     	auipc	a0, 0x4
80003d0c: db050513     	addi	a0, a0, -0x250
80003d10: 00002097     	auipc	ra, 0x2
80003d14: f82080e7     	jalr	-0x7e(ra) <core::panicking::panic_const::panic_const_add_overflow::h67cba067093910f8>
80003d18: 6522         	ld	a0, 0x8(sp)
80003d1a: 65c2         	ld	a1, 0x10(sp)
80003d1c: 00359613     	slli	a2, a1, 0x3

0000000080003d20 <.Lpcrel_hi364>:
80003d20: 0000a597     	auipc	a1, 0xa
80003d24: 2e058593     	addi	a1, a1, 0x2e0
80003d28: 95b2         	add	a1, a1, a2
80003d2a: e188         	sd	a0, 0x0(a1)
80003d2c: 70a2         	ld	ra, 0x28(sp)
80003d2e: 6145         	addi	sp, sp, 0x30
80003d30: 8082         	ret

0000000080003d32 <.Lpcrel_hi365>:
80003d32: 00004517     	auipc	a0, 0x4
80003d36: d8650513     	addi	a0, a0, -0x27a
80003d3a: 00002097     	auipc	ra, 0x2
80003d3e: 03c080e7     	jalr	0x3c(ra) <core::panicking::panic_null_pointer_dereference::hbac6411af4f2e916>

0000000080003d42 <lab7_kernel_task1::delegate_user_exceptions_to_supervisor::he7cd81ab0ba4f1d0>:
80003d42: 6529         	lui	a0, 0xa
80003d44: 10050513     	addi	a0, a0, 0x100
80003d48: 30251073     	csrw	medeleg, a0
80003d4c: 8082         	ret

0000000080003d4e <lab7_kernel_task1::do_fork::h581ada43d236a0d1>:
80003d4e: 7141         	addi	sp, sp, -0x1f0
80003d50: f786         	sd	ra, 0x1e8(sp)
80003d52: f3a2         	sd	s0, 0x1e0(sp)
80003d54: 1b80         	addi	s0, sp, 0x1f0
80003d56: 6519         	lui	a0, 0x6
80003d58: e1050513     	addi	a0, a0, -0x1f0
80003d5c: 40a10133     	sub	sp, sp, a0
80003d60: 00c15513     	srli	a0, sp, 0xc
80003d64: 00c51113     	slli	sp, a0, 0xc
80003d68: 6515         	lui	a0, 0x5
80003d6a: ef050513     	addi	a0, a0, -0x110
80003d6e: 950a         	add	a0, a0, sp
80003d70: 6585         	lui	a1, 0x1
80003d72: 958a         	add	a1, a1, sp
80003d74: fea5bc23     	sd	a0, -0x8(a1)

0000000080003d78 <.Lpcrel_hi366>:
80003d78: 0000d517     	auipc	a0, 0xd
80003d7c: 28850513     	addi	a0, a0, 0x288
80003d80: 1552         	slli	a0, a0, 0x34
80003d82: e901         	bnez	a0, 0x80003d92 <.Lpcrel_hi368>
80003d84: a009         	j	0x80003d86 <.Lpcrel_hi367>

0000000080003d86 <.Lpcrel_hi367>:
80003d86: 0000d517     	auipc	a0, 0xd
80003d8a: 27a50513     	addi	a0, a0, 0x27a
80003d8e: ed19         	bnez	a0, 0x80003dac <.Lpcrel_hi370>
80003d90: a0a1         	j	0x80003dd8 <.Lpcrel_hi371>

0000000080003d92 <.Lpcrel_hi368>:
80003d92: 0000d517     	auipc	a0, 0xd
80003d96: 26e50593     	addi	a1, a0, 0x26e

0000000080003d9a <.Lpcrel_hi369>:
80003d9a: 00004517     	auipc	a0, 0x4
80003d9e: d3650613     	addi	a2, a0, -0x2ca
80003da2: 6505         	lui	a0, 0x1
80003da4: 00002097     	auipc	ra, 0x2
80003da8: ff2080e7     	jalr	-0xe(ra) <core::panicking::panic_misaligned_pointer_dereference::hda85f7fb51d959f0>

0000000080003dac <.Lpcrel_hi370>:
80003dac: 0000d517     	auipc	a0, 0xd
80003db0: 25450593     	addi	a1, a0, 0x254
80003db4: 6505         	lui	a0, 0x1
80003db6: 950a         	add	a0, a0, sp
80003db8: feb53823     	sd	a1, -0x10(a0)
80003dbc: 6505         	lui	a0, 0x1
80003dbe: 950a         	add	a0, a0, sp
80003dc0: 6605         	lui	a2, 0x1
80003dc2: 00002097     	auipc	ra, 0x2
80003dc6: 17e080e7     	jalr	0x17e(ra) <memcpy>
80003dca: 6505         	lui	a0, 0x1
80003dcc: 950a         	add	a0, a0, sp
80003dce: ff053503     	ld	a0, -0x10(a0)
80003dd2: 1552         	slli	a0, a0, 0x34
80003dd4: c911         	beqz	a0, 0x80003de8 <.Lpcrel_hi372>
80003dd6: a839         	j	0x80003df4 <.Lpcrel_hi373>

0000000080003dd8 <.Lpcrel_hi371>:
80003dd8: 00004517     	auipc	a0, 0x4
80003ddc: cf850513     	addi	a0, a0, -0x308
80003de0: 00002097     	auipc	ra, 0x2
80003de4: f96080e7     	jalr	-0x6a(ra) <core::panicking::panic_null_pointer_dereference::hbac6411af4f2e916>

0000000080003de8 <.Lpcrel_hi372>:
80003de8: 0000d517     	auipc	a0, 0xd
80003dec: 21850513     	addi	a0, a0, 0x218
80003df0: ed19         	bnez	a0, 0x80003e0e <.Lpcrel_hi375>
80003df2: a089         	j	0x80003e34 <.Lpcrel_hi377>

0000000080003df4 <.Lpcrel_hi373>:
80003df4: 0000d517     	auipc	a0, 0xd
80003df8: 20c50593     	addi	a1, a0, 0x20c

0000000080003dfc <.Lpcrel_hi374>:
80003dfc: 00004517     	auipc	a0, 0x4
80003e00: cec50613     	addi	a2, a0, -0x314
80003e04: 6505         	lui	a0, 0x1
80003e06: 00002097     	auipc	ra, 0x2
80003e0a: f90080e7     	jalr	-0x70(ra) <core::panicking::panic_misaligned_pointer_dereference::hda85f7fb51d959f0>

0000000080003e0e <.Lpcrel_hi375>:
80003e0e: 0000d517     	auipc	a0, 0xd
80003e12: 1f250513     	addi	a0, a0, 0x1f2
80003e16: 6605         	lui	a2, 0x1
80003e18: 9532         	add	a0, a0, a2
80003e1a: 6585         	lui	a1, 0x1
80003e1c: 958a         	add	a1, a1, sp
80003e1e: 00002097     	auipc	ra, 0x2
80003e22: 122080e7     	jalr	0x122(ra) <memcpy>

0000000080003e26 <.Lpcrel_hi376>:
80003e26: 00010517     	auipc	a0, 0x10
80003e2a: 1da50513     	addi	a0, a0, 0x1da
80003e2e: 1552         	slli	a0, a0, 0x34
80003e30: c911         	beqz	a0, 0x80003e44 <.Lpcrel_hi378>
80003e32: a839         	j	0x80003e50 <.Lpcrel_hi379>

0000000080003e34 <.Lpcrel_hi377>:
80003e34: 00004517     	auipc	a0, 0x4
80003e38: cb450513     	addi	a0, a0, -0x34c
80003e3c: 00002097     	auipc	ra, 0x2
80003e40: f3a080e7     	jalr	-0xc6(ra) <core::panicking::panic_null_pointer_dereference::hbac6411af4f2e916>

0000000080003e44 <.Lpcrel_hi378>:
80003e44: 00010517     	auipc	a0, 0x10
80003e48: 1bc50513     	addi	a0, a0, 0x1bc
80003e4c: ed19         	bnez	a0, 0x80003e6a <.Lpcrel_hi381>
80003e4e: a0a1         	j	0x80003e96 <.Lpcrel_hi382>

0000000080003e50 <.Lpcrel_hi379>:
80003e50: 00010517     	auipc	a0, 0x10
80003e54: 1b050593     	addi	a1, a0, 0x1b0

0000000080003e58 <.Lpcrel_hi380>:
80003e58: 00004517     	auipc	a0, 0x4
80003e5c: ca850613     	addi	a2, a0, -0x358
80003e60: 6505         	lui	a0, 0x1
80003e62: 00002097     	auipc	ra, 0x2
80003e66: f34080e7     	jalr	-0xcc(ra) <core::panicking::panic_misaligned_pointer_dereference::hda85f7fb51d959f0>

0000000080003e6a <.Lpcrel_hi381>:
80003e6a: 00010517     	auipc	a0, 0x10
80003e6e: 19650593     	addi	a1, a0, 0x196
80003e72: 6505         	lui	a0, 0x1
80003e74: 950a         	add	a0, a0, sp
80003e76: feb53423     	sd	a1, -0x18(a0)
80003e7a: 6509         	lui	a0, 0x2
80003e7c: 950a         	add	a0, a0, sp
80003e7e: 6605         	lui	a2, 0x1
80003e80: 00002097     	auipc	ra, 0x2
80003e84: 0c0080e7     	jalr	0xc0(ra) <memcpy>
80003e88: 6505         	lui	a0, 0x1
80003e8a: 950a         	add	a0, a0, sp
80003e8c: fe853503     	ld	a0, -0x18(a0)
80003e90: 1552         	slli	a0, a0, 0x34
80003e92: c911         	beqz	a0, 0x80003ea6 <.Lpcrel_hi383>
80003e94: a839         	j	0x80003eb2 <.Lpcrel_hi384>

0000000080003e96 <.Lpcrel_hi382>:
80003e96: 00004517     	auipc	a0, 0x4
80003e9a: c6a50513     	addi	a0, a0, -0x396
80003e9e: 00002097     	auipc	ra, 0x2
80003ea2: ed8080e7     	jalr	-0x128(ra) <core::panicking::panic_null_pointer_dereference::hbac6411af4f2e916>

0000000080003ea6 <.Lpcrel_hi383>:
80003ea6: 00010517     	auipc	a0, 0x10
80003eaa: 15a50513     	addi	a0, a0, 0x15a
80003eae: ed19         	bnez	a0, 0x80003ecc <.Lpcrel_hi386>
80003eb0: a089         	j	0x80003ef2 <.Lpcrel_hi388>

0000000080003eb2 <.Lpcrel_hi384>:
80003eb2: 00010517     	auipc	a0, 0x10
80003eb6: 14e50593     	addi	a1, a0, 0x14e

0000000080003eba <.Lpcrel_hi385>:
80003eba: 00004517     	auipc	a0, 0x4
80003ebe: c5e50613     	addi	a2, a0, -0x3a2
80003ec2: 6505         	lui	a0, 0x1
80003ec4: 00002097     	auipc	ra, 0x2
80003ec8: ed2080e7     	jalr	-0x12e(ra) <core::panicking::panic_misaligned_pointer_dereference::hda85f7fb51d959f0>

0000000080003ecc <.Lpcrel_hi386>:
80003ecc: 00010517     	auipc	a0, 0x10
80003ed0: 13450513     	addi	a0, a0, 0x134
80003ed4: 6605         	lui	a2, 0x1
80003ed6: 9532         	add	a0, a0, a2
80003ed8: 6589         	lui	a1, 0x2
80003eda: 958a         	add	a1, a1, sp
80003edc: 00002097     	auipc	ra, 0x2
80003ee0: 064080e7     	jalr	0x64(ra) <memcpy>

0000000080003ee4 <.Lpcrel_hi387>:
80003ee4: 00013517     	auipc	a0, 0x13
80003ee8: 11c50513     	addi	a0, a0, 0x11c
80003eec: 1552         	slli	a0, a0, 0x34
80003eee: c911         	beqz	a0, 0x80003f02 <.Lpcrel_hi389>
80003ef0: a839         	j	0x80003f0e <.Lpcrel_hi390>

0000000080003ef2 <.Lpcrel_hi388>:
80003ef2: 00004517     	auipc	a0, 0x4
80003ef6: c2650513     	addi	a0, a0, -0x3da
80003efa: 00002097     	auipc	ra, 0x2
80003efe: e7c080e7     	jalr	-0x184(ra) <core::panicking::panic_null_pointer_dereference::hbac6411af4f2e916>

0000000080003f02 <.Lpcrel_hi389>:
80003f02: 00013517     	auipc	a0, 0x13
80003f06: 0fe50513     	addi	a0, a0, 0xfe
80003f0a: ed19         	bnez	a0, 0x80003f28 <.Lpcrel_hi392>
80003f0c: a0a1         	j	0x80003f54 <.Lpcrel_hi393>

0000000080003f0e <.Lpcrel_hi390>:
80003f0e: 00013517     	auipc	a0, 0x13
80003f12: 0f250593     	addi	a1, a0, 0xf2

0000000080003f16 <.Lpcrel_hi391>:
80003f16: 00004517     	auipc	a0, 0x4
80003f1a: c1a50613     	addi	a2, a0, -0x3e6
80003f1e: 6505         	lui	a0, 0x1
80003f20: 00002097     	auipc	ra, 0x2
80003f24: e76080e7     	jalr	-0x18a(ra) <core::panicking::panic_misaligned_pointer_dereference::hda85f7fb51d959f0>

0000000080003f28 <.Lpcrel_hi392>:
80003f28: 00013517     	auipc	a0, 0x13
80003f2c: 0d850593     	addi	a1, a0, 0xd8
80003f30: 6505         	lui	a0, 0x1
80003f32: 950a         	add	a0, a0, sp
80003f34: feb53023     	sd	a1, -0x20(a0)
80003f38: 650d         	lui	a0, 0x3
80003f3a: 950a         	add	a0, a0, sp
80003f3c: 6605         	lui	a2, 0x1
80003f3e: 00002097     	auipc	ra, 0x2
80003f42: 002080e7     	jalr	0x2(ra) <memcpy>
80003f46: 6505         	lui	a0, 0x1
80003f48: 950a         	add	a0, a0, sp
80003f4a: fe053503     	ld	a0, -0x20(a0)
80003f4e: 1552         	slli	a0, a0, 0x34
80003f50: c911         	beqz	a0, 0x80003f64 <.Lpcrel_hi394>
80003f52: a839         	j	0x80003f70 <.Lpcrel_hi395>

0000000080003f54 <.Lpcrel_hi393>:
80003f54: 00004517     	auipc	a0, 0x4
80003f58: bdc50513     	addi	a0, a0, -0x424
80003f5c: 00002097     	auipc	ra, 0x2
80003f60: e1a080e7     	jalr	-0x1e6(ra) <core::panicking::panic_null_pointer_dereference::hbac6411af4f2e916>

0000000080003f64 <.Lpcrel_hi394>:
80003f64: 00013517     	auipc	a0, 0x13
80003f68: 09c50513     	addi	a0, a0, 0x9c
80003f6c: ed19         	bnez	a0, 0x80003f8a <.Lpcrel_hi397>
80003f6e: a0bd         	j	0x80003fdc <.Lpcrel_hi398>

0000000080003f70 <.Lpcrel_hi395>:
80003f70: 00013517     	auipc	a0, 0x13
80003f74: 09050593     	addi	a1, a0, 0x90

0000000080003f78 <.Lpcrel_hi396>:
80003f78: 00004517     	auipc	a0, 0x4
80003f7c: bd050613     	addi	a2, a0, -0x430
80003f80: 6505         	lui	a0, 0x1
80003f82: 00002097     	auipc	ra, 0x2
80003f86: e14080e7     	jalr	-0x1ec(ra) <core::panicking::panic_misaligned_pointer_dereference::hda85f7fb51d959f0>

0000000080003f8a <.Lpcrel_hi397>:
80003f8a: 00013517     	auipc	a0, 0x13
80003f8e: 07650513     	addi	a0, a0, 0x76
80003f92: 6605         	lui	a2, 0x1
80003f94: 9532         	add	a0, a0, a2
80003f96: 658d         	lui	a1, 0x3
80003f98: 958a         	add	a1, a1, sp
80003f9a: 00002097     	auipc	ra, 0x2
80003f9e: fa6080e7     	jalr	-0x5a(ra) <memcpy>
80003fa2: 4505         	li	a0, 0x1
80003fa4: fffff097     	auipc	ra, 0xfffff
80003fa8: 572080e7     	jalr	0x572(ra) <lab7_kernel_task1::proc_low_l1_table_pa::hf6c49c1658bc601e>
80003fac: 00000097     	auipc	ra, 0x0
80003fb0: 4b0080e7     	jalr	0x4b0(ra) <lab7_kernel_task1::table_pte::hfe1f5823935e125b>
80003fb4: 6585         	lui	a1, 0x1
80003fb6: 958a         	add	a1, a1, sp
80003fb8: fca5b823     	sd	a0, -0x30(a1)
80003fbc: 00400537     	lui	a0, 0x400
80003fc0: ffffd097     	auipc	ra, 0xffffd
80003fc4: 260080e7     	jalr	0x260(ra) <lab7_kernel_task1::vpn2_index::h9a2fc6925fb82563>
80003fc8: 85aa         	mv	a1, a0
80003fca: 6605         	lui	a2, 0x1
80003fcc: 960a         	add	a2, a2, sp
80003fce: fcb63c23     	sd	a1, -0x28(a2)
80003fd2: 20000593     	li	a1, 0x200
80003fd6: 00b56b63     	bltu	a0, a1, 0x80003fec <.Lpcrel_hi399>
80003fda: a005         	j	0x80003ffa <.Lpcrel_hi399+0xe>

0000000080003fdc <.Lpcrel_hi398>:
80003fdc: 00004517     	auipc	a0, 0x4
80003fe0: b6c50513     	addi	a0, a0, -0x494
80003fe4: 00002097     	auipc	ra, 0x2
80003fe8: d92080e7     	jalr	-0x26e(ra) <core::panicking::panic_null_pointer_dereference::hbac6411af4f2e916>

0000000080003fec <.Lpcrel_hi399>:
80003fec: 0000d517     	auipc	a0, 0xd
80003ff0: 01450513     	addi	a0, a0, 0x14
80003ff4: 1552         	slli	a0, a0, 0x34
80003ff6: c105         	beqz	a0, 0x80004016 <.Lpcrel_hi401>
80003ff8: a02d         	j	0x80004022 <.Lpcrel_hi402>
80003ffa: 6505         	lui	a0, 0x1
80003ffc: 950a         	add	a0, a0, sp
80003ffe: fd853503     	ld	a0, -0x28(a0)

0000000080004002 <.Lpcrel_hi400>:
80004002: 00004597     	auipc	a1, 0x4
80004006: b5e58613     	addi	a2, a1, -0x4a2
8000400a: 20000593     	li	a1, 0x200
8000400e: 00002097     	auipc	ra, 0x2
80004012: cfc080e7     	jalr	-0x304(ra) <core::panicking::panic_bounds_check::h6aaee0d15e0261eb>

0000000080004016 <.Lpcrel_hi401>:
80004016: 0000d517     	auipc	a0, 0xd
8000401a: fea50513     	addi	a0, a0, -0x16
8000401e: ed19         	bnez	a0, 0x8000403c <.Lpcrel_hi403+0x12>
80004020: a8ad         	j	0x8000409a <.Lpcrel_hi405>

0000000080004022 <.Lpcrel_hi402>:
80004022: 0000d517     	auipc	a0, 0xd
80004026: fde50593     	addi	a1, a0, -0x22

000000008000402a <.Lpcrel_hi403>:
8000402a: 00004517     	auipc	a0, 0x4
8000402e: b3650613     	addi	a2, a0, -0x4ca
80004032: 6505         	lui	a0, 0x1
80004034: 00002097     	auipc	ra, 0x2
80004038: d62080e7     	jalr	-0x29e(ra) <core::panicking::panic_misaligned_pointer_dereference::hda85f7fb51d959f0>
8000403c: 6505         	lui	a0, 0x1
8000403e: 950a         	add	a0, a0, sp
80004040: fd053503     	ld	a0, -0x30(a0)
80004044: 6585         	lui	a1, 0x1
80004046: 958a         	add	a1, a1, sp
80004048: fd85b583     	ld	a1, -0x28(a1)
8000404c: 00359613     	slli	a2, a1, 0x3

0000000080004050 <.Lpcrel_hi404>:
80004050: 0000d597     	auipc	a1, 0xd
80004054: fb058593     	addi	a1, a1, -0x50
80004058: 95b2         	add	a1, a1, a2
8000405a: 6605         	lui	a2, 0x1
8000405c: 95b2         	add	a1, a1, a2
8000405e: e188         	sd	a0, 0x0(a1)
80004060: 4505         	li	a0, 0x1
80004062: 00000097     	auipc	ra, 0x0
80004066: 8b2080e7     	jalr	-0x74e(ra) <lab7_kernel_task1::proc_user_l0_table_pa::h33af185fe017704c>
8000406a: 00000097     	auipc	ra, 0x0
8000406e: 3f2080e7     	jalr	0x3f2(ra) <lab7_kernel_task1::table_pte::hfe1f5823935e125b>
80004072: 6585         	lui	a1, 0x1
80004074: 958a         	add	a1, a1, sp
80004076: fca5b023     	sd	a0, -0x40(a1)
8000407a: 00400537     	lui	a0, 0x400
8000407e: ffffd097     	auipc	ra, 0xffffd
80004082: 196080e7     	jalr	0x196(ra) <lab7_kernel_task1::vpn1_index::h0628f166b261c512>
80004086: 85aa         	mv	a1, a0
80004088: 6605         	lui	a2, 0x1
8000408a: 960a         	add	a2, a2, sp
8000408c: fcb63423     	sd	a1, -0x38(a2)
80004090: 20000593     	li	a1, 0x200
80004094: 00b56b63     	bltu	a0, a1, 0x800040aa <.Lpcrel_hi406>
80004098: a005         	j	0x800040b8 <.Lpcrel_hi406+0xe>

000000008000409a <.Lpcrel_hi405>:
8000409a: 00004517     	auipc	a0, 0x4
8000409e: ac650513     	addi	a0, a0, -0x53a
800040a2: 00002097     	auipc	ra, 0x2
800040a6: cd4080e7     	jalr	-0x32c(ra) <core::panicking::panic_null_pointer_dereference::hbac6411af4f2e916>

00000000800040aa <.Lpcrel_hi406>:
800040aa: 00010517     	auipc	a0, 0x10
800040ae: f5650513     	addi	a0, a0, -0xaa
800040b2: 1552         	slli	a0, a0, 0x34
800040b4: c105         	beqz	a0, 0x800040d4 <.Lpcrel_hi408>
800040b6: a02d         	j	0x800040e0 <.Lpcrel_hi409>
800040b8: 6505         	lui	a0, 0x1
800040ba: 950a         	add	a0, a0, sp
800040bc: fc853503     	ld	a0, -0x38(a0)

00000000800040c0 <.Lpcrel_hi407>:
800040c0: 00004597     	auipc	a1, 0x4
800040c4: ab858613     	addi	a2, a1, -0x548
800040c8: 20000593     	li	a1, 0x200
800040cc: 00002097     	auipc	ra, 0x2
800040d0: c3e080e7     	jalr	-0x3c2(ra) <core::panicking::panic_bounds_check::h6aaee0d15e0261eb>

00000000800040d4 <.Lpcrel_hi408>:
800040d4: 00010517     	auipc	a0, 0x10
800040d8: f2c50513     	addi	a0, a0, -0xd4
800040dc: ed19         	bnez	a0, 0x800040fa <.Lpcrel_hi410+0x12>
800040de: a09d         	j	0x80004144 <.Lpcrel_hi413>

00000000800040e0 <.Lpcrel_hi409>:
800040e0: 00010517     	auipc	a0, 0x10
800040e4: f2050593     	addi	a1, a0, -0xe0

00000000800040e8 <.Lpcrel_hi410>:
800040e8: 00004517     	auipc	a0, 0x4
800040ec: a9050613     	addi	a2, a0, -0x570
800040f0: 6505         	lui	a0, 0x1
800040f2: 00002097     	auipc	ra, 0x2
800040f6: ca4080e7     	jalr	-0x35c(ra) <core::panicking::panic_misaligned_pointer_dereference::hda85f7fb51d959f0>
800040fa: 6505         	lui	a0, 0x1
800040fc: 950a         	add	a0, a0, sp
800040fe: fc053503     	ld	a0, -0x40(a0)
80004102: 6585         	lui	a1, 0x1
80004104: 958a         	add	a1, a1, sp
80004106: fc85b583     	ld	a1, -0x38(a1)
8000410a: 00359613     	slli	a2, a1, 0x3

000000008000410e <.Lpcrel_hi411>:
8000410e: 00010597     	auipc	a1, 0x10
80004112: ef258593     	addi	a1, a1, -0x10e
80004116: 95b2         	add	a1, a1, a2
80004118: 6605         	lui	a2, 0x1
8000411a: 95b2         	add	a1, a1, a2
8000411c: e188         	sd	a0, 0x0(a1)
8000411e: 4505         	li	a0, 0x1
80004120: fffff097     	auipc	ra, 0xfffff
80004124: 194080e7     	jalr	0x194(ra) <lab7_kernel_task1::proc_root_table_pa::h0e662a33a3441b58>
80004128: ffffe097     	auipc	ra, 0xffffe
8000412c: 868080e7     	jalr	-0x798(ra) <lab7_kernel_task1::satp_for_root::h687e32a682fd0bdc>
80004130: 6585         	lui	a1, 0x1
80004132: 958a         	add	a1, a1, sp
80004134: faa5bc23     	sd	a0, -0x48(a1)

0000000080004138 <.Lpcrel_hi412>:
80004138: 00005517     	auipc	a0, 0x5
8000413c: ed050513     	addi	a0, a0, -0x130
80004140: e911         	bnez	a0, 0x80004154 <.Lpcrel_hi413+0x10>
80004142: a025         	j	0x8000416a <.Lpcrel_hi415>

0000000080004144 <.Lpcrel_hi413>:
80004144: 00004517     	auipc	a0, 0x4
80004148: a3450513     	addi	a0, a0, -0x5cc
8000414c: 00002097     	auipc	ra, 0x2
80004150: c2a080e7     	jalr	-0x3d6(ra) <core::panicking::panic_null_pointer_dereference::hbac6411af4f2e916>
80004154: 6505         	lui	a0, 0x1
80004156: 950a         	add	a0, a0, sp
80004158: fb853583     	ld	a1, -0x48(a0)

000000008000415c <.Lpcrel_hi414>:
8000415c: 00005517     	auipc	a0, 0x5
80004160: eac50513     	addi	a0, a0, -0x154
80004164: f10c         	sd	a1, 0x20(a0)
80004166: e911         	bnez	a0, 0x8000417a <.Lpcrel_hi416>
80004168: a00d         	j	0x8000418a <.Lpcrel_hi417>

000000008000416a <.Lpcrel_hi415>:
8000416a: 00004517     	auipc	a0, 0x4
8000416e: a2650513     	addi	a0, a0, -0x5da
80004172: 00002097     	auipc	ra, 0x2
80004176: c04080e7     	jalr	-0x3fc(ra) <core::panicking::panic_null_pointer_dereference::hbac6411af4f2e916>

000000008000417a <.Lpcrel_hi416>:
8000417a: 00005517     	auipc	a0, 0x5
8000417e: e8e50513     	addi	a0, a0, -0x172
80004182: 4585         	li	a1, 0x1
80004184: ed0c         	sd	a1, 0x18(a0)
80004186: e911         	bnez	a0, 0x8000419a <.Lpcrel_hi418>
80004188: a82d         	j	0x800041c2 <.Lpcrel_hi420>

000000008000418a <.Lpcrel_hi417>:
8000418a: 00004517     	auipc	a0, 0x4
8000418e: a1e50513     	addi	a0, a0, -0x5e2
80004192: 00002097     	auipc	ra, 0x2
80004196: be4080e7     	jalr	-0x41c(ra) <core::panicking::panic_null_pointer_dereference::hbac6411af4f2e916>

000000008000419a <.Lpcrel_hi418>:
8000419a: 00005517     	auipc	a0, 0x5
8000419e: e6e50593     	addi	a1, a0, -0x192
800041a2: 4501         	li	a0, 0x0
800041a4: f588         	sd	a0, 0x28(a1)
800041a6: 6515         	lui	a0, 0x5
800041a8: ed850513     	addi	a0, a0, -0x128
800041ac: 950a         	add	a0, a0, sp
800041ae: ffffd097     	auipc	ra, 0xffffd
800041b2: 0f4080e7     	jalr	0xf4(ra) <lab7_kernel_task1::ProcessReport::empty::h17f58037c81b1012>

00000000800041b6 <.Lpcrel_hi419>:
800041b6: 0000c517     	auipc	a0, 0xc
800041ba: e4a50513     	addi	a0, a0, -0x1b6
800041be: e911         	bnez	a0, 0x800041d2 <.Lpcrel_hi420+0x10>
800041c0: a095         	j	0x80004224 <.Lpcrel_hi423>

00000000800041c2 <.Lpcrel_hi420>:
800041c2: 00004517     	auipc	a0, 0x4
800041c6: 9fe50513     	addi	a0, a0, -0x602
800041ca: 00002097     	auipc	ra, 0x2
800041ce: bac080e7     	jalr	-0x454(ra) <core::panicking::panic_null_pointer_dereference::hbac6411af4f2e916>
800041d2: 6505         	lui	a0, 0x1
800041d4: 950a         	add	a0, a0, sp
800041d6: ff853503     	ld	a0, -0x8(a0)

00000000800041da <.Lpcrel_hi421>:
800041da: 0000c597     	auipc	a1, 0xc
800041de: e2658593     	addi	a1, a1, -0x1da
800041e2: 6110         	ld	a2, 0x0(a0)
800041e4: fd90         	sd	a2, 0x38(a1)
800041e6: ff853603     	ld	a2, -0x8(a0)
800041ea: f990         	sd	a2, 0x30(a1)
800041ec: ff053603     	ld	a2, -0x10(a0)
800041f0: f590         	sd	a2, 0x28(a1)
800041f2: fe853503     	ld	a0, -0x18(a0)
800041f6: f188         	sd	a0, 0x20(a1)
800041f8: fffff097     	auipc	ra, 0xfffff
800041fc: a86080e7     	jalr	-0x57a(ra) <lab7_kernel_task1::allocate_data_page::h702f3dc23d6e4bd1>
80004200: 85aa         	mv	a1, a0
80004202: 6505         	lui	a0, 0x1
80004204: 950a         	add	a0, a0, sp
80004206: ff853503     	ld	a0, -0x8(a0)
8000420a: 10b53423     	sd	a1, 0x108(a0)
8000420e: 4505         	li	a0, 0x1
80004210: ffffe097     	auipc	ra, 0xffffe
80004214: 86a080e7     	jalr	-0x796(ra) <lab7_kernel_task1::map_stack_page::h619ff164edb6f727>

0000000080004218 <.Lpcrel_hi422>:
80004218: 0000a517     	auipc	a0, 0xa
8000421c: e0850513     	addi	a0, a0, -0x1f8
80004220: e911         	bnez	a0, 0x80004234 <.Lpcrel_hi424>
80004222: a089         	j	0x80004264 <.Lpcrel_hi425>

0000000080004224 <.Lpcrel_hi423>:
80004224: 00004517     	auipc	a0, 0x4
80004228: 9b450513     	addi	a0, a0, -0x64c
8000422c: 00002097     	auipc	ra, 0x2
80004230: b4a080e7     	jalr	-0x4b6(ra) <core::panicking::panic_null_pointer_dereference::hbac6411af4f2e916>

0000000080004234 <.Lpcrel_hi424>:
80004234: 0000a517     	auipc	a0, 0xa
80004238: dec50593     	addi	a1, a0, -0x214
8000423c: 6505         	lui	a0, 0x1
8000423e: 950a         	add	a0, a0, sp
80004240: fab53823     	sd	a1, -0x50(a0)
80004244: 6515         	lui	a0, 0x5
80004246: ef850513     	addi	a0, a0, -0x108
8000424a: 950a         	add	a0, a0, sp
8000424c: 10000613     	li	a2, 0x100
80004250: 00002097     	auipc	ra, 0x2
80004254: cf0080e7     	jalr	-0x310(ra) <memcpy>
80004258: 6505         	lui	a0, 0x1
8000425a: 950a         	add	a0, a0, sp
8000425c: fb053503     	ld	a0, -0x50(a0)
80004260: e911         	bnez	a0, 0x80004274 <.Lpcrel_hi426>
80004262: a099         	j	0x800042a8 <.Lpcrel_hi427>

0000000080004264 <.Lpcrel_hi425>:
80004264: 00004517     	auipc	a0, 0x4
80004268: 98c50513     	addi	a0, a0, -0x674
8000426c: 00002097     	auipc	ra, 0x2
80004270: b0a080e7     	jalr	-0x4f6(ra) <core::panicking::panic_null_pointer_dereference::hbac6411af4f2e916>

0000000080004274 <.Lpcrel_hi426>:
80004274: 0000a517     	auipc	a0, 0xa
80004278: dac50513     	addi	a0, a0, -0x254
8000427c: 6585         	lui	a1, 0x1
8000427e: 958a         	add	a1, a1, sp
80004280: faa5b423     	sd	a0, -0x58(a1)
80004284: 10050513     	addi	a0, a0, 0x100
80004288: 6595         	lui	a1, 0x5
8000428a: ef858593     	addi	a1, a1, -0x108
8000428e: 958a         	add	a1, a1, sp
80004290: 10000613     	li	a2, 0x100
80004294: 00002097     	auipc	ra, 0x2
80004298: cac080e7     	jalr	-0x354(ra) <memcpy>
8000429c: 6505         	lui	a0, 0x1
8000429e: 950a         	add	a0, a0, sp
800042a0: fa853503     	ld	a0, -0x58(a0)
800042a4: e911         	bnez	a0, 0x800042b8 <.Lpcrel_hi428>
800042a6: a015         	j	0x800042ca <.Lpcrel_hi429>

00000000800042a8 <.Lpcrel_hi427>:
800042a8: 00004517     	auipc	a0, 0x4
800042ac: 96050513     	addi	a0, a0, -0x6a0
800042b0: 00002097     	auipc	ra, 0x2
800042b4: ac6080e7     	jalr	-0x53a(ra) <core::panicking::panic_null_pointer_dereference::hbac6411af4f2e916>

00000000800042b8 <.Lpcrel_hi428>:
800042b8: 0000a517     	auipc	a0, 0xa
800042bc: d6850513     	addi	a0, a0, -0x298
800042c0: 4581         	li	a1, 0x0
800042c2: 14b53023     	sd	a1, 0x140(a0)
800042c6: e911         	bnez	a0, 0x800042da <.Lpcrel_hi430>
800042c8: a091         	j	0x8000430c <.Lpcrel_hi432>

00000000800042ca <.Lpcrel_hi429>:
800042ca: 00004517     	auipc	a0, 0x4
800042ce: 95650513     	addi	a0, a0, -0x6aa
800042d2: 00002097     	auipc	ra, 0x2
800042d6: aa4080e7     	jalr	-0x55c(ra) <core::panicking::panic_null_pointer_dereference::hbac6411af4f2e916>

00000000800042da <.Lpcrel_hi430>:
800042da: 0000a517     	auipc	a0, 0xa
800042de: d4650593     	addi	a1, a0, -0x2ba
800042e2: 4505         	li	a0, 0x1
800042e4: e1a8         	sd	a0, 0x40(a1)

00000000800042e6 <.Lpcrel_hi431>:
800042e6: 00004517     	auipc	a0, 0x4
800042ea: 96a50513     	addi	a0, a0, -0x696
800042ee: 45dd         	li	a1, 0x17
800042f0: ffffd097     	auipc	ra, 0xffffd
800042f4: 8be080e7     	jalr	-0x742(ra) <core::fmt::Arguments::from_str::h75d1bb1c6aa86bac>
800042f8: ffffd097     	auipc	ra, 0xffffd
800042fc: ade080e7     	jalr	-0x522(ra) <lab7_kernel_task1::console::print::h4532f48a1410ef53>
80004300: e1040113     	addi	sp, s0, -0x1f0
80004304: 70be         	ld	ra, 0x1e8(sp)
80004306: 741e         	ld	s0, 0x1e0(sp)
80004308: 617d         	addi	sp, sp, 0x1f0
8000430a: 8082         	ret

000000008000430c <.Lpcrel_hi432>:
8000430c: 00004517     	auipc	a0, 0x4
80004310: 92c50513     	addi	a0, a0, -0x6d4
80004314: 00002097     	auipc	ra, 0x2
80004318: a62080e7     	jalr	-0x59e(ra) <core::panicking::panic_null_pointer_dereference::hbac6411af4f2e916>

000000008000431c <lab7_kernel_task1::leaf_pte::hb726d55f476e21c9>:
8000431c: 1141         	addi	sp, sp, -0x10
8000431e: e02a         	sd	a0, 0x0(sp)
80004320: e42e         	sd	a1, 0x8(sp)
80004322: 8131         	srli	a0, a0, 0xc
80004324: 052a         	slli	a0, a0, 0xa
80004326: 8d4d         	or	a0, a0, a1
80004328: 00156513     	ori	a0, a0, 0x1
8000432c: 0141         	addi	sp, sp, 0x10
8000432e: 8082         	ret

0000000080004330 <lab7_kernel_task1::clear_bss::h39f10ae3e15c21bd>:
80004330: 715d         	addi	sp, sp, -0x50
80004332: e486         	sd	ra, 0x48(sp)

0000000080004334 <.Lpcrel_hi433>:
80004334: 00005517     	auipc	a0, 0x5
80004338: ccc50593     	addi	a1, a0, -0x334
8000433c: ec2e         	sd	a1, 0x18(sp)

000000008000433e <.Lpcrel_hi434>:
8000433e: 00017517     	auipc	a0, 0x17
80004342: cca50513     	addi	a0, a0, -0x336
80004346: f02a         	sd	a0, 0x20(sp)
80004348: 04b56d63     	bltu	a0, a1, 0x800043a2 <.Lpcrel_hi438>
8000434c: a009         	j	0x8000434e <.Lpcrel_hi435>

000000008000434e <.Lpcrel_hi435>:
8000434e: 00005517     	auipc	a0, 0x5
80004352: cb250513     	addi	a0, a0, -0x34e
80004356: e02a         	sd	a0, 0x0(sp)
80004358: f82a         	sd	a0, 0x30(sp)
8000435a: 4581         	li	a1, 0x0
8000435c: e42e         	sd	a1, 0x8(sp)
8000435e: 02b10fa3     	sb	a1, 0x3f(sp)

0000000080004362 <.Lpcrel_hi436>:
80004362: 00017597     	auipc	a1, 0x17
80004366: ca658593     	addi	a1, a1, -0x35a
8000436a: 8d89         	sub	a1, a1, a0
8000436c: e82e         	sd	a1, 0x10(sp)
8000436e: e0ae         	sd	a1, 0x40(sp)
80004370: 0015b593     	seqz	a1, a1
80004374: 02b107a3     	sb	a1, 0x2f(sp)
80004378: 02f14603     	lbu	a2, 0x2f(sp)

000000008000437c <.Lpcrel_hi437>:
8000437c: 00004597     	auipc	a1, 0x4
80004380: 93c58693     	addi	a3, a1, -0x6c4
80004384: 4585         	li	a1, 0x1
80004386: ffffc097     	auipc	ra, 0xffffc
8000438a: 3c2080e7     	jalr	0x3c2(ra) <core::ptr::write_bytes::precondition_check::ha2a8c0b9362eecea>
8000438e: 6502         	ld	a0, 0x0(sp)
80004390: 65a2         	ld	a1, 0x8(sp)
80004392: 6642         	ld	a2, 0x10(sp)
80004394: 00002097     	auipc	ra, 0x2
80004398: b36080e7     	jalr	-0x4ca(ra) <memset>
8000439c: 60a6         	ld	ra, 0x48(sp)
8000439e: 6161         	addi	sp, sp, 0x50
800043a0: 8082         	ret

00000000800043a2 <.Lpcrel_hi438>:
800043a2: 00004517     	auipc	a0, 0x4
800043a6: 8c650513     	addi	a0, a0, -0x73a
800043aa: 00002097     	auipc	ra, 0x2
800043ae: 924080e7     	jalr	-0x6dc(ra) <core::panicking::panic_const::panic_const_sub_overflow::hccc965ba9198de7c>

00000000800043b2 <lab7_kernel_task1::clear_sum::hfe39e89e229a3dd4>:
800043b2: 00040537     	lui	a0, 0x40
800043b6: 10053073     	csrc	sstatus, a0
800043ba: 8082         	ret

00000000800043bc <lab7_kernel_task1::other_pid::h12e3a7827db38f12>:
800043bc: 1141         	addi	sp, sp, -0x10
800043be: e42a         	sd	a0, 0x8(sp)
800043c0: c509         	beqz	a0, 0x800043ca <lab7_kernel_task1::other_pid::h12e3a7827db38f12+0xe>
800043c2: a009         	j	0x800043c4 <lab7_kernel_task1::other_pid::h12e3a7827db38f12+0x8>
800043c4: 4501         	li	a0, 0x0
800043c6: e02a         	sd	a0, 0x0(sp)
800043c8: a021         	j	0x800043d0 <lab7_kernel_task1::other_pid::h12e3a7827db38f12+0x14>
800043ca: 4505         	li	a0, 0x1
800043cc: e02a         	sd	a0, 0x0(sp)
800043ce: a009         	j	0x800043d0 <lab7_kernel_task1::other_pid::h12e3a7827db38f12+0x14>
800043d0: 6502         	ld	a0, 0x0(sp)
800043d2: 0141         	addi	sp, sp, 0x10
800043d4: 8082         	ret

00000000800043d6 <lab7_kernel_task1::pass_fail::h4def3edbd25f0ddb>:
800043d6: 1101         	addi	sp, sp, -0x20
800043d8: 00a10fa3     	sb	a0, 0x1f(sp)
800043dc: e911         	bnez	a0, 0x800043f0 <.Lpcrel_hi440>
800043de: a009         	j	0x800043e0 <.Lpcrel_hi439>

00000000800043e0 <.Lpcrel_hi439>:
800043e0: 00004517     	auipc	a0, 0x4
800043e4: 8a050513     	addi	a0, a0, -0x760
800043e8: e42a         	sd	a0, 0x8(sp)
800043ea: 4511         	li	a0, 0x4
800043ec: e82a         	sd	a0, 0x10(sp)
800043ee: a809         	j	0x80004400 <.Lpcrel_hi440+0x10>

00000000800043f0 <.Lpcrel_hi440>:
800043f0: 00004517     	auipc	a0, 0x4
800043f4: 89450513     	addi	a0, a0, -0x76c
800043f8: e42a         	sd	a0, 0x8(sp)
800043fa: 4511         	li	a0, 0x4
800043fc: e82a         	sd	a0, 0x10(sp)
800043fe: a009         	j	0x80004400 <.Lpcrel_hi440+0x10>
80004400: 6522         	ld	a0, 0x8(sp)
80004402: 65c2         	ld	a1, 0x10(sp)
80004404: 6105         	addi	sp, sp, 0x20
80004406: 8082         	ret

0000000080004408 <lab7_kernel_task1::pte_to_pa::h6dbbb41ce7ba67ed>:
80004408: 1141         	addi	sp, sp, -0x10
8000440a: e42a         	sd	a0, 0x8(sp)
8000440c: 8129         	srli	a0, a0, 0xa
8000440e: 0532         	slli	a0, a0, 0xc
80004410: 0141         	addi	sp, sp, 0x10
80004412: 8082         	ret

0000000080004414 <lab7_kernel_task1::qemu_exit::h3658abe717466651>:
80004414: 1101         	addi	sp, sp, -0x20
80004416: ec06         	sd	ra, 0x18(sp)
80004418: 85aa         	mv	a1, a0
8000441a: e42e         	sd	a1, 0x8(sp)
8000441c: ca2a         	sw	a0, 0x14(sp)
8000441e: c919         	beqz	a0, 0x80004434 <lab7_kernel_task1::qemu_exit::h3658abe717466651+0x20>
80004420: a009         	j	0x80004422 <lab7_kernel_task1::qemu_exit::h3658abe717466651+0xe>
80004422: 6522         	ld	a0, 0x8(sp)
80004424: 0105151b     	slliw	a0, a0, 0x10
80004428: 658d         	lui	a1, 0x3
8000442a: 33358593     	addi	a1, a1, 0x333
8000442e: 8d4d         	or	a0, a0, a1
80004430: c82a         	sw	a0, 0x10(sp)
80004432: a031         	j	0x8000443e <lab7_kernel_task1::qemu_exit::h3658abe717466651+0x2a>
80004434: 6515         	lui	a0, 0x5
80004436: 55550513     	addi	a0, a0, 0x555
8000443a: c82a         	sw	a0, 0x10(sp)
8000443c: a009         	j	0x8000443e <lab7_kernel_task1::qemu_exit::h3658abe717466651+0x2a>
8000443e: 45c2         	lw	a1, 0x10(sp)

0000000080004440 <.Lpcrel_hi441>:
80004440: 00004517     	auipc	a0, 0x4
80004444: 84850613     	addi	a2, a0, -0x7b8
80004448: 00100537     	lui	a0, 0x100
8000444c: ffffc097     	auipc	ra, 0xffffc
80004450: d10080e7     	jalr	-0x2f0(ra) <core::ptr::write_volatile::h08f9f03d7df33f64>
80004454: a009         	j	0x80004456 <.Lpcrel_hi441+0x16>
80004456: 10500073     	wfi
8000445a: bff5         	j	0x80004456 <.Lpcrel_hi441+0x16>

000000008000445c <lab7_kernel_task1::table_pte::hfe1f5823935e125b>:
8000445c: 1141         	addi	sp, sp, -0x10
8000445e: e42a         	sd	a0, 0x8(sp)
80004460: 8131         	srli	a0, a0, 0xc
80004462: 052a         	slli	a0, a0, 0xa
80004464: 0505         	addi	a0, a0, 0x1
80004466: 0141         	addi	sp, sp, 0x10
80004468: 8082         	ret

000000008000446a <lab7_kernel_task1::zero_page::hf833b5d92e5342df>:
8000446a: 711d         	addi	sp, sp, -0x60
8000446c: ec86         	sd	ra, 0x58(sp)
8000446e: ec2a         	sd	a0, 0x18(sp)
80004470: f02a         	sd	a0, 0x20(sp)
80004472: c521         	beqz	a0, 0x800044ba <.Lpcrel_hi443>
80004474: a009         	j	0x80004476 <lab7_kernel_task1::zero_page::hf833b5d92e5342df+0xc>
80004476: 6562         	ld	a0, 0x18(sp)
80004478: e4aa         	sd	a0, 0x48(sp)
8000447a: 6605         	lui	a2, 0x1
8000447c: e832         	sd	a2, 0x10(sp)
8000447e: e8b2         	sd	a2, 0x50(sp)
80004480: f82a         	sd	a0, 0x30(sp)
80004482: 4581         	li	a1, 0x0
80004484: e42e         	sd	a1, 0x8(sp)
80004486: 02b10fa3     	sb	a1, 0x3f(sp)
8000448a: e0b2         	sd	a2, 0x40(sp)
8000448c: 02b107a3     	sb	a1, 0x2f(sp)
80004490: 02f14603     	lbu	a2, 0x2f(sp)

0000000080004494 <.Lpcrel_hi442>:
80004494: 00004597     	auipc	a1, 0x4
80004498: 82458693     	addi	a3, a1, -0x7dc
8000449c: 4585         	li	a1, 0x1
8000449e: ffffc097     	auipc	ra, 0xffffc
800044a2: 2aa080e7     	jalr	0x2aa(ra) <core::ptr::write_bytes::precondition_check::ha2a8c0b9362eecea>
800044a6: 6562         	ld	a0, 0x18(sp)
800044a8: 65a2         	ld	a1, 0x8(sp)
800044aa: 6642         	ld	a2, 0x10(sp)
800044ac: 00002097     	auipc	ra, 0x2
800044b0: a1e080e7     	jalr	-0x5e2(ra) <memset>
800044b4: 60e6         	ld	ra, 0x58(sp)
800044b6: 6125         	addi	sp, sp, 0x60
800044b8: 8082         	ret

00000000800044ba <.Lpcrel_hi443>:
800044ba: 00003517     	auipc	a0, 0x3
800044be: 7e650513     	addi	a0, a0, 0x7e6
800044c2: 00002097     	auipc	ra, 0x2
800044c6: 8b4080e7     	jalr	-0x74c(ra) <core::panicking::panic_null_pointer_dereference::hbac6411af4f2e916>

00000000800044ca <_$LT$lab7_kernel_task1..PteFlags$u20$as$u20$core..fmt..Display$GT$::fmt::h4b8de9df17b89c2e>:
800044ca: 710d         	addi	sp, sp, -0x160
800044cc: ee86         	sd	ra, 0x158(sp)
800044ce: e82e         	sd	a1, 0x10(sp)
800044d0: e62a         	sd	a0, 0x108(sp)
800044d2: ea2e         	sd	a1, 0x110(sp)
800044d4: 6108         	ld	a0, 0x0(a0)
800044d6: ec2a         	sd	a0, 0x18(sp)
800044d8: f22a         	sd	a0, 0x120(sp)
800044da: 8905         	andi	a0, a0, 0x1
800044dc: e511         	bnez	a0, 0x800044e8 <_$LT$lab7_kernel_task1..PteFlags$u20$as$u20$core..fmt..Display$GT$::fmt::h4b8de9df17b89c2e+0x1e>
800044de: a009         	j	0x800044e0 <_$LT$lab7_kernel_task1..PteFlags$u20$as$u20$core..fmt..Display$GT$::fmt::h4b8de9df17b89c2e+0x16>
800044e0: 02d00513     	li	a0, 0x2d
800044e4: c6aa         	sw	a0, 0x4c(sp)
800044e6: a029         	j	0x800044f0 <_$LT$lab7_kernel_task1..PteFlags$u20$as$u20$core..fmt..Display$GT$::fmt::h4b8de9df17b89c2e+0x26>
800044e8: 05600513     	li	a0, 0x56
800044ec: c6aa         	sw	a0, 0x4c(sp)
800044ee: a009         	j	0x800044f0 <_$LT$lab7_kernel_task1..PteFlags$u20$as$u20$core..fmt..Display$GT$::fmt::h4b8de9df17b89c2e+0x26>
800044f0: 6562         	ld	a0, 0x18(sp)
800044f2: 8909         	andi	a0, a0, 0x2
800044f4: e511         	bnez	a0, 0x80004500 <_$LT$lab7_kernel_task1..PteFlags$u20$as$u20$core..fmt..Display$GT$::fmt::h4b8de9df17b89c2e+0x36>
800044f6: a009         	j	0x800044f8 <_$LT$lab7_kernel_task1..PteFlags$u20$as$u20$core..fmt..Display$GT$::fmt::h4b8de9df17b89c2e+0x2e>
800044f8: 02d00513     	li	a0, 0x2d
800044fc: c8aa         	sw	a0, 0x50(sp)
800044fe: a029         	j	0x80004508 <_$LT$lab7_kernel_task1..PteFlags$u20$as$u20$core..fmt..Display$GT$::fmt::h4b8de9df17b89c2e+0x3e>
80004500: 05200513     	li	a0, 0x52
80004504: c8aa         	sw	a0, 0x50(sp)
80004506: a009         	j	0x80004508 <_$LT$lab7_kernel_task1..PteFlags$u20$as$u20$core..fmt..Display$GT$::fmt::h4b8de9df17b89c2e+0x3e>
80004508: 6562         	ld	a0, 0x18(sp)
8000450a: 8911         	andi	a0, a0, 0x4
8000450c: e511         	bnez	a0, 0x80004518 <_$LT$lab7_kernel_task1..PteFlags$u20$as$u20$core..fmt..Display$GT$::fmt::h4b8de9df17b89c2e+0x4e>
8000450e: a009         	j	0x80004510 <_$LT$lab7_kernel_task1..PteFlags$u20$as$u20$core..fmt..Display$GT$::fmt::h4b8de9df17b89c2e+0x46>
80004510: 02d00513     	li	a0, 0x2d
80004514: caaa         	sw	a0, 0x54(sp)
80004516: a029         	j	0x80004520 <_$LT$lab7_kernel_task1..PteFlags$u20$as$u20$core..fmt..Display$GT$::fmt::h4b8de9df17b89c2e+0x56>
80004518: 05700513     	li	a0, 0x57
8000451c: caaa         	sw	a0, 0x54(sp)
8000451e: a009         	j	0x80004520 <_$LT$lab7_kernel_task1..PteFlags$u20$as$u20$core..fmt..Display$GT$::fmt::h4b8de9df17b89c2e+0x56>
80004520: 6562         	ld	a0, 0x18(sp)
80004522: 8921         	andi	a0, a0, 0x8
80004524: e511         	bnez	a0, 0x80004530 <_$LT$lab7_kernel_task1..PteFlags$u20$as$u20$core..fmt..Display$GT$::fmt::h4b8de9df17b89c2e+0x66>
80004526: a009         	j	0x80004528 <_$LT$lab7_kernel_task1..PteFlags$u20$as$u20$core..fmt..Display$GT$::fmt::h4b8de9df17b89c2e+0x5e>
80004528: 02d00513     	li	a0, 0x2d
8000452c: ccaa         	sw	a0, 0x58(sp)
8000452e: a029         	j	0x80004538 <_$LT$lab7_kernel_task1..PteFlags$u20$as$u20$core..fmt..Display$GT$::fmt::h4b8de9df17b89c2e+0x6e>
80004530: 05800513     	li	a0, 0x58
80004534: ccaa         	sw	a0, 0x58(sp)
80004536: a009         	j	0x80004538 <_$LT$lab7_kernel_task1..PteFlags$u20$as$u20$core..fmt..Display$GT$::fmt::h4b8de9df17b89c2e+0x6e>
80004538: 6562         	ld	a0, 0x18(sp)
8000453a: 8941         	andi	a0, a0, 0x10
8000453c: e511         	bnez	a0, 0x80004548 <_$LT$lab7_kernel_task1..PteFlags$u20$as$u20$core..fmt..Display$GT$::fmt::h4b8de9df17b89c2e+0x7e>
8000453e: a009         	j	0x80004540 <_$LT$lab7_kernel_task1..PteFlags$u20$as$u20$core..fmt..Display$GT$::fmt::h4b8de9df17b89c2e+0x76>
80004540: 02d00513     	li	a0, 0x2d
80004544: ceaa         	sw	a0, 0x5c(sp)
80004546: a029         	j	0x80004550 <_$LT$lab7_kernel_task1..PteFlags$u20$as$u20$core..fmt..Display$GT$::fmt::h4b8de9df17b89c2e+0x86>
80004548: 05500513     	li	a0, 0x55
8000454c: ceaa         	sw	a0, 0x5c(sp)
8000454e: a009         	j	0x80004550 <_$LT$lab7_kernel_task1..PteFlags$u20$as$u20$core..fmt..Display$GT$::fmt::h4b8de9df17b89c2e+0x86>
80004550: 6562         	ld	a0, 0x18(sp)
80004552: 02057513     	andi	a0, a0, 0x20
80004556: e511         	bnez	a0, 0x80004562 <_$LT$lab7_kernel_task1..PteFlags$u20$as$u20$core..fmt..Display$GT$::fmt::h4b8de9df17b89c2e+0x98>
80004558: a009         	j	0x8000455a <_$LT$lab7_kernel_task1..PteFlags$u20$as$u20$core..fmt..Display$GT$::fmt::h4b8de9df17b89c2e+0x90>
8000455a: 02d00513     	li	a0, 0x2d
8000455e: d0aa         	sw	a0, 0x60(sp)
80004560: a029         	j	0x8000456a <_$LT$lab7_kernel_task1..PteFlags$u20$as$u20$core..fmt..Display$GT$::fmt::h4b8de9df17b89c2e+0xa0>
80004562: 04700513     	li	a0, 0x47
80004566: d0aa         	sw	a0, 0x60(sp)
80004568: a009         	j	0x8000456a <_$LT$lab7_kernel_task1..PteFlags$u20$as$u20$core..fmt..Display$GT$::fmt::h4b8de9df17b89c2e+0xa0>
8000456a: 6562         	ld	a0, 0x18(sp)
8000456c: 04057513     	andi	a0, a0, 0x40
80004570: e511         	bnez	a0, 0x8000457c <_$LT$lab7_kernel_task1..PteFlags$u20$as$u20$core..fmt..Display$GT$::fmt::h4b8de9df17b89c2e+0xb2>
80004572: a009         	j	0x80004574 <_$LT$lab7_kernel_task1..PteFlags$u20$as$u20$core..fmt..Display$GT$::fmt::h4b8de9df17b89c2e+0xaa>
80004574: 02d00513     	li	a0, 0x2d
80004578: d2aa         	sw	a0, 0x64(sp)
8000457a: a029         	j	0x80004584 <_$LT$lab7_kernel_task1..PteFlags$u20$as$u20$core..fmt..Display$GT$::fmt::h4b8de9df17b89c2e+0xba>
8000457c: 04100513     	li	a0, 0x41
80004580: d2aa         	sw	a0, 0x64(sp)
80004582: a009         	j	0x80004584 <_$LT$lab7_kernel_task1..PteFlags$u20$as$u20$core..fmt..Display$GT$::fmt::h4b8de9df17b89c2e+0xba>
80004584: 6562         	ld	a0, 0x18(sp)
80004586: 08057513     	andi	a0, a0, 0x80
8000458a: e511         	bnez	a0, 0x80004596 <_$LT$lab7_kernel_task1..PteFlags$u20$as$u20$core..fmt..Display$GT$::fmt::h4b8de9df17b89c2e+0xcc>
8000458c: a009         	j	0x8000458e <_$LT$lab7_kernel_task1..PteFlags$u20$as$u20$core..fmt..Display$GT$::fmt::h4b8de9df17b89c2e+0xc4>
8000458e: 02d00513     	li	a0, 0x2d
80004592: d4aa         	sw	a0, 0x68(sp)
80004594: a029         	j	0x8000459e <_$LT$lab7_kernel_task1..PteFlags$u20$as$u20$core..fmt..Display$GT$::fmt::h4b8de9df17b89c2e+0xd4>
80004596: 04400513     	li	a0, 0x44
8000459a: d4aa         	sw	a0, 0x68(sp)
8000459c: a009         	j	0x8000459e <_$LT$lab7_kernel_task1..PteFlags$u20$as$u20$core..fmt..Display$GT$::fmt::h4b8de9df17b89c2e+0xd4>
8000459e: 6562         	ld	a0, 0x18(sp)
800045a0: 10057513     	andi	a0, a0, 0x100
800045a4: e511         	bnez	a0, 0x800045b0 <_$LT$lab7_kernel_task1..PteFlags$u20$as$u20$core..fmt..Display$GT$::fmt::h4b8de9df17b89c2e+0xe6>
800045a6: a009         	j	0x800045a8 <_$LT$lab7_kernel_task1..PteFlags$u20$as$u20$core..fmt..Display$GT$::fmt::h4b8de9df17b89c2e+0xde>
800045a8: 02d00513     	li	a0, 0x2d
800045ac: d6aa         	sw	a0, 0x6c(sp)
800045ae: a029         	j	0x800045b8 <_$LT$lab7_kernel_task1..PteFlags$u20$as$u20$core..fmt..Display$GT$::fmt::h4b8de9df17b89c2e+0xee>
800045b0: 04300513     	li	a0, 0x43
800045b4: d6aa         	sw	a0, 0x6c(sp)
800045b6: a009         	j	0x800045b8 <_$LT$lab7_kernel_task1..PteFlags$u20$as$u20$core..fmt..Display$GT$::fmt::h4b8de9df17b89c2e+0xee>
800045b8: 4536         	lw	a0, 0x4c(sp)
800045ba: d42a         	sw	a0, 0x28(sp)
800045bc: 4546         	lw	a0, 0x50(sp)
800045be: d62a         	sw	a0, 0x2c(sp)
800045c0: 4556         	lw	a0, 0x54(sp)
800045c2: d82a         	sw	a0, 0x30(sp)
800045c4: 4566         	lw	a0, 0x58(sp)
800045c6: da2a         	sw	a0, 0x34(sp)
800045c8: 4576         	lw	a0, 0x5c(sp)
800045ca: dc2a         	sw	a0, 0x38(sp)
800045cc: 5506         	lw	a0, 0x60(sp)
800045ce: de2a         	sw	a0, 0x3c(sp)
800045d0: 5516         	lw	a0, 0x64(sp)
800045d2: c0aa         	sw	a0, 0x40(sp)
800045d4: 5526         	lw	a0, 0x68(sp)
800045d6: c2aa         	sw	a0, 0x44(sp)
800045d8: 5536         	lw	a0, 0x6c(sp)
800045da: c4aa         	sw	a0, 0x48(sp)
800045dc: 4526         	lw	a0, 0x48(sp)
800045de: 14a12423     	sw	a0, 0x148(sp)
800045e2: 04416503     	lwu	a0, 0x44(sp)
800045e6: 1502         	slli	a0, a0, 0x20
800045e8: 04016583     	lwu	a1, 0x40(sp)
800045ec: 8d4d         	or	a0, a0, a1
800045ee: e2aa         	sd	a0, 0x140(sp)
800045f0: 03c16503     	lwu	a0, 0x3c(sp)
800045f4: 1502         	slli	a0, a0, 0x20
800045f6: 03816583     	lwu	a1, 0x38(sp)
800045fa: 8d4d         	or	a0, a0, a1
800045fc: fe2a         	sd	a0, 0x138(sp)
800045fe: 03416503     	lwu	a0, 0x34(sp)
80004602: 1502         	slli	a0, a0, 0x20
80004604: 03016583     	lwu	a1, 0x30(sp)
80004608: 8d4d         	or	a0, a0, a1
8000460a: fa2a         	sd	a0, 0x130(sp)
8000460c: 02c16503     	lwu	a0, 0x2c(sp)
80004610: 1502         	slli	a0, a0, 0x20
80004612: 02816583     	lwu	a1, 0x28(sp)
80004616: 8d4d         	or	a0, a0, a1
80004618: f62a         	sd	a0, 0x128(sp)
8000461a: 1888         	addi	a0, sp, 0x70
8000461c: 122c         	addi	a1, sp, 0x128
8000461e: 00000097     	auipc	ra, 0x0
80004622: 768080e7     	jalr	0x768(ra) <core::array::iter::_$LT$impl$u20$core..iter..traits..collect..IntoIterator$u20$for$u20$$u5b$T$u3b$$u20$N$u5d$$GT$::into_iter::h5da233120e9e7dab>
80004626: 750a         	ld	a0, 0xa0(sp)
80004628: edaa         	sd	a0, 0xd8(sp)
8000462a: 656a         	ld	a0, 0x98(sp)
8000462c: e9aa         	sd	a0, 0xd0(sp)
8000462e: 654a         	ld	a0, 0x90(sp)
80004630: e5aa         	sd	a0, 0xc8(sp)
80004632: 652a         	ld	a0, 0x88(sp)
80004634: e1aa         	sd	a0, 0xc0(sp)
80004636: 650a         	ld	a0, 0x80(sp)
80004638: fd2a         	sd	a0, 0xb8(sp)
8000463a: 7566         	ld	a0, 0x78(sp)
8000463c: f92a         	sd	a0, 0xb0(sp)
8000463e: 7546         	ld	a0, 0x70(sp)
80004640: f52a         	sd	a0, 0xa8(sp)
80004642: a009         	j	0x80004644 <_$LT$lab7_kernel_task1..PteFlags$u20$as$u20$core..fmt..Display$GT$::fmt::h4b8de9df17b89c2e+0x17a>
80004644: 1128         	addi	a0, sp, 0xa8
80004646: 00000097     	auipc	ra, 0x0
8000464a: 7fc080e7     	jalr	0x7fc(ra) <_$LT$core..array..iter..IntoIter$LT$T$C$_$GT$$u20$as$u20$core..iter..traits..iterator..Iterator$GT$::next::hbd1a2279d4b4c305>
8000464e: d1aa         	sw	a0, 0xe0(sp)
80004650: 550e         	lw	a0, 0xe0(sp)
80004652: 001105b7     	lui	a1, 0x110
80004656: 04b50863     	beq	a0, a1, 0x800046a6 <.Lpcrel_hi444+0x30>
8000465a: a009         	j	0x8000465c <_$LT$lab7_kernel_task1..PteFlags$u20$as$u20$core..fmt..Display$GT$::fmt::h4b8de9df17b89c2e+0x192>
8000465c: 550e         	lw	a0, 0xe0(sp)
8000465e: d3aa         	sw	a0, 0xe4(sp)
80004660: 11cc         	addi	a1, sp, 0xe4
80004662: eaae         	sd	a1, 0x150(sp)
80004664: 19a8         	addi	a0, sp, 0xf8
80004666: ffffc097     	auipc	ra, 0xffffc
8000466a: 9ac080e7     	jalr	-0x654(ra) <core::fmt::rt::Argument::new_display::h393722377107d105>
8000466e: 6512         	ld	a0, 0x100(sp)
80004670: f9aa         	sd	a0, 0xf0(sp)
80004672: 756e         	ld	a0, 0xf8(sp)
80004674: f5aa         	sd	a0, 0xe8(sp)

0000000080004676 <.Lpcrel_hi444>:
80004676: 00002517     	auipc	a0, 0x2
8000467a: bf650513     	addi	a0, a0, -0x40a
8000467e: 11ac         	addi	a1, sp, 0xe8
80004680: ffffc097     	auipc	ra, 0xffffc
80004684: c5a080e7     	jalr	-0x3a6(ra) <core::fmt::Arguments::new::hf41ed715533663c3>
80004688: 862a         	mv	a2, a0
8000468a: 6542         	ld	a0, 0x10(sp)
8000468c: e432         	sd	a2, 0x8(sp)
8000468e: 862e         	mv	a2, a1
80004690: 65a2         	ld	a1, 0x8(sp)
80004692: ffffc097     	auipc	ra, 0xffffc
80004696: 52a080e7     	jalr	0x52a(ra) <core::fmt::Formatter::write_fmt::h4f9530dd08fe60da>
8000469a: ffffc097     	auipc	ra, 0xffffc
8000469e: 378080e7     	jalr	0x378(ra) <_$LT$core..result..Result$LT$T$C$E$GT$$u20$as$u20$core..ops..try_trait..Try$GT$::branch::h2b255c49348333a2>
800046a2: e105         	bnez	a0, 0x800046c2 <.Lpcrel_hi445>
800046a4: b745         	j	0x80004644 <_$LT$lab7_kernel_task1..PteFlags$u20$as$u20$core..fmt..Display$GT$::fmt::h4b8de9df17b89c2e+0x17a>
800046a6: 1128         	addi	a0, sp, 0xa8
800046a8: ffffc097     	auipc	ra, 0xffffc
800046ac: 044080e7     	jalr	0x44(ra) <core::ptr::drop_in_place$LT$core..array..iter..IntoIter$LT$char$C$9_usize$GT$$GT$::h16d49d2f2af1bf89>
800046b0: 4501         	li	a0, 0x0
800046b2: 02a103a3     	sb	a0, 0x27(sp)
800046b6: a009         	j	0x800046b8 <.Lpcrel_hi444+0x42>
800046b8: 02714503     	lbu	a0, 0x27(sp)
800046bc: 60f6         	ld	ra, 0x158(sp)
800046be: 6135         	addi	sp, sp, 0x160
800046c0: 8082         	ret

00000000800046c2 <.Lpcrel_hi445>:
800046c2: 00003517     	auipc	a0, 0x3
800046c6: 62650513     	addi	a0, a0, 0x626
800046ca: ffffc097     	auipc	ra, 0xffffc
800046ce: 340080e7     	jalr	0x340(ra) <_$LT$core..result..Result$LT$T$C$F$GT$$u20$as$u20$core..ops..try_trait..FromResidual$LT$core..result..Result$LT$core..convert..Infallible$C$E$GT$$GT$$GT$::from_residual::h83ebc86119b825d8>
800046d2: 02a103a3     	sb	a0, 0x27(sp)
800046d6: 1128         	addi	a0, sp, 0xa8
800046d8: ffffc097     	auipc	ra, 0xffffc
800046dc: 014080e7     	jalr	0x14(ra) <core::ptr::drop_in_place$LT$core..array..iter..IntoIter$LT$char$C$9_usize$GT$$GT$::h16d49d2f2af1bf89>
800046e0: bfe1         	j	0x800046b8 <.Lpcrel_hi444+0x42>

00000000800046e2 <_$LT$lab7_kernel_task1..WalkResult$u20$as$u20$lab7_kernel_task1..WalkPaExt$GT$::leaf_pte_to_pa::h7b1284f0231b7a88>:
800046e2: 1141         	addi	sp, sp, -0x10
800046e4: e406         	sd	ra, 0x8(sp)
800046e6: 7d08         	ld	a0, 0x38(a0)
800046e8: 00000097     	auipc	ra, 0x0
800046ec: d20080e7     	jalr	-0x2e0(ra) <lab7_kernel_task1::pte_to_pa::h6dbbb41ce7ba67ed>
800046f0: 60a2         	ld	ra, 0x8(sp)
800046f2: 0141         	addi	sp, sp, 0x10
800046f4: 8082         	ret

00000000800046f6 <handle_machine_trap>:
800046f6: 7171         	addi	sp, sp, -0xb0
800046f8: f506         	sd	ra, 0xa8(sp)
800046fa: e42a         	sd	a0, 0x8(sp)
800046fc: f12a         	sd	a0, 0xa0(sp)
800046fe: ffffd097     	auipc	ra, 0xffffd
80004702: b7e080e7     	jalr	-0x482(ra) <lab7_kernel_task1::read_mcause::hab44109e8853bf2a>
80004706: 85aa         	mv	a1, a0
80004708: 6522         	ld	a0, 0x8(sp)
8000470a: f82e         	sd	a1, 0x30(sp)
8000470c: 0f850513     	addi	a0, a0, 0xf8
80004710: e82a         	sd	a0, 0x10(sp)
80004712: ffffd097     	auipc	ra, 0xffffd
80004716: ada080e7     	jalr	-0x526(ra) <lab7_kernel_task1::read_mtval::hc6418bd891f3e3df>
8000471a: 85aa         	mv	a1, a0
8000471c: 6542         	ld	a0, 0x10(sp)
8000471e: fc2e         	sd	a1, 0x38(sp)
80004720: 180c         	addi	a1, sp, 0x30
80004722: ec2e         	sd	a1, 0x18(sp)
80004724: f02a         	sd	a0, 0x20(sp)
80004726: 1828         	addi	a0, sp, 0x38
80004728: f42a         	sd	a0, 0x28(sp)
8000472a: 65e2         	ld	a1, 0x18(sp)
8000472c: 1888         	addi	a0, sp, 0x70
8000472e: ffffc097     	auipc	ra, 0xffffc
80004732: 9b0080e7     	jalr	-0x650(ra) <core::fmt::rt::Argument::new_lower_hex::hc0e20b6dd24f901a>
80004736: 7582         	ld	a1, 0x20(sp)
80004738: 0108         	addi	a0, sp, 0x80
8000473a: ffffc097     	auipc	ra, 0xffffc
8000473e: 9a4080e7     	jalr	-0x65c(ra) <core::fmt::rt::Argument::new_lower_hex::hc0e20b6dd24f901a>
80004742: 75a2         	ld	a1, 0x28(sp)
80004744: 0908         	addi	a0, sp, 0x90
80004746: ffffc097     	auipc	ra, 0xffffc
8000474a: 998080e7     	jalr	-0x668(ra) <core::fmt::rt::Argument::new_lower_hex::hc0e20b6dd24f901a>
8000474e: 7566         	ld	a0, 0x78(sp)
80004750: e4aa         	sd	a0, 0x48(sp)
80004752: 7546         	ld	a0, 0x70(sp)
80004754: e0aa         	sd	a0, 0x40(sp)
80004756: 652a         	ld	a0, 0x88(sp)
80004758: ecaa         	sd	a0, 0x58(sp)
8000475a: 650a         	ld	a0, 0x80(sp)
8000475c: e8aa         	sd	a0, 0x50(sp)
8000475e: 656a         	ld	a0, 0x98(sp)
80004760: f4aa         	sd	a0, 0x68(sp)
80004762: 654a         	ld	a0, 0x90(sp)
80004764: f0aa         	sd	a0, 0x60(sp)

0000000080004766 <.Lpcrel_hi446>:
80004766: 00003517     	auipc	a0, 0x3
8000476a: 59a50513     	addi	a0, a0, 0x59a
8000476e: 008c         	addi	a1, sp, 0x40
80004770: ffffc097     	auipc	ra, 0xffffc
80004774: b06080e7     	jalr	-0x4fa(ra) <core::fmt::Arguments::new::h561cb67d47df8af3>
80004778: ffffc097     	auipc	ra, 0xffffc
8000477c: 65e080e7     	jalr	0x65e(ra) <lab7_kernel_task1::console::print::h4532f48a1410ef53>
80004780: 4505         	li	a0, 0x1
80004782: 00000097     	auipc	ra, 0x0
80004786: c92080e7     	jalr	-0x36e(ra) <lab7_kernel_task1::qemu_exit::h3658abe717466651>

000000008000478a <handle_supervisor_trap>:
8000478a: c3010113     	addi	sp, sp, -0x3d0
8000478e: 3c113423     	sd	ra, 0x3c8(sp)
80004792: f42a         	sd	a0, 0x28(sp)
80004794: 3aa13823     	sd	a0, 0x3b0(sp)

0000000080004798 <.Lpcrel_hi447>:
80004798: 00005517     	auipc	a0, 0x5
8000479c: 86850513     	addi	a0, a0, -0x798
800047a0: c915         	beqz	a0, 0x800047d4 <.Lpcrel_hi449>
800047a2: a009         	j	0x800047a4 <.Lpcrel_hi448>

00000000800047a4 <.Lpcrel_hi448>:
800047a4: 00005517     	auipc	a0, 0x5
800047a8: 85c50513     	addi	a0, a0, -0x7a4
800047ac: 6108         	ld	a0, 0x0(a0)
800047ae: f82a         	sd	a0, 0x30(sp)
800047b0: ffffd097     	auipc	ra, 0xffffd
800047b4: ada080e7     	jalr	-0x526(ra) <lab7_kernel_task1::read_scause::h03afc25a89efca0c>
800047b8: 75a2         	ld	a1, 0x28(sp)
800047ba: fc2a         	sd	a0, 0x38(sp)
800047bc: 0088         	addi	a0, sp, 0x40
800047be: 10000613     	li	a2, 0x100
800047c2: 00001097     	auipc	ra, 0x1
800047c6: 77e080e7     	jalr	0x77e(ra) <memcpy>
800047ca: 7542         	ld	a0, 0x30(sp)
800047cc: 4589         	li	a1, 0x2
800047ce: 00b56b63     	bltu	a0, a1, 0x800047e4 <.Lpcrel_hi450>
800047d2: a839         	j	0x800047f0 <.Lpcrel_hi450+0xc>

00000000800047d4 <.Lpcrel_hi449>:
800047d4: 00003517     	auipc	a0, 0x3
800047d8: 57c50513     	addi	a0, a0, 0x57c
800047dc: 00001097     	auipc	ra, 0x1
800047e0: 59a080e7     	jalr	0x59a(ra) <core::panicking::panic_null_pointer_dereference::hbac6411af4f2e916>

00000000800047e4 <.Lpcrel_hi450>:
800047e4: 0000a517     	auipc	a0, 0xa
800047e8: 83c50513     	addi	a0, a0, -0x7c4
800047ec: ed01         	bnez	a0, 0x80004804 <.Lpcrel_hi451+0x12>
800047ee: a0a9         	j	0x80004838 <.Lpcrel_hi453>
800047f0: 7542         	ld	a0, 0x30(sp)

00000000800047f2 <.Lpcrel_hi451>:
800047f2: 00003597     	auipc	a1, 0x3
800047f6: 57658613     	addi	a2, a1, 0x576
800047fa: 4589         	li	a1, 0x2
800047fc: 00001097     	auipc	ra, 0x1
80004800: 50e080e7     	jalr	0x50e(ra) <core::panicking::panic_bounds_check::h6aaee0d15e0261eb>
80004804: 7542         	ld	a0, 0x30(sp)
80004806: 00851593     	slli	a1, a0, 0x8

000000008000480a <.Lpcrel_hi452>:
8000480a: 0000a517     	auipc	a0, 0xa
8000480e: 81650513     	addi	a0, a0, -0x7ea
80004812: 952e         	add	a0, a0, a1
80004814: 008c         	addi	a1, sp, 0x40
80004816: 10000613     	li	a2, 0x100
8000481a: 00001097     	auipc	ra, 0x1
8000481e: 726080e7     	jalr	0x726(ra) <memcpy>
80004822: 7562         	ld	a0, 0x38(sp)
80004824: f02a         	sd	a0, 0x20(sp)
80004826: 45a1         	li	a1, 0x8
80004828: 02b50563     	beq	a0, a1, 0x80004852 <.Lpcrel_hi453+0x1a>
8000482c: a009         	j	0x8000482e <.Lpcrel_hi452+0x24>
8000482e: 7502         	ld	a0, 0x20(sp)
80004830: 45bd         	li	a1, 0xf
80004832: 02b50b63     	beq	a0, a1, 0x80004868 <.Lpcrel_hi453+0x30>
80004836: a809         	j	0x80004848 <.Lpcrel_hi453+0x10>

0000000080004838 <.Lpcrel_hi453>:
80004838: 00003517     	auipc	a0, 0x3
8000483c: 53050513     	addi	a0, a0, 0x530
80004840: 00001097     	auipc	ra, 0x1
80004844: 536080e7     	jalr	0x536(ra) <core::panicking::panic_null_pointer_dereference::hbac6411af4f2e916>
80004848: 7542         	ld	a0, 0x30(sp)
8000484a: 4589         	li	a1, 0x2
8000484c: 20b56a63     	bltu	a0, a1, 0x80004a60 <.Lpcrel_hi471>
80004850: ac31         	j	0x80004a6c <.Lpcrel_hi471+0xc>
80004852: 7542         	ld	a0, 0x30(sp)
80004854: ffffe097     	auipc	ra, 0xffffe
80004858: 9b8080e7     	jalr	-0x648(ra) <lab7_kernel_task1::handle_user_ecall::hd8190b8324dbc207>
8000485c: e2aa         	sd	a0, 0x140(sp)
8000485e: e6ae         	sd	a1, 0x148(sp)
80004860: 6516         	ld	a0, 0x140(sp)
80004862: 8905         	andi	a0, a0, 0x1
80004864: e519         	bnez	a0, 0x80004872 <.Lpcrel_hi453+0x3a>
80004866: a005         	j	0x80004886 <.Lpcrel_hi454+0xc>
80004868: 7542         	ld	a0, 0x30(sp)
8000486a: 4589         	li	a1, 0x2
8000486c: 0ab56d63     	bltu	a0, a1, 0x80004926 <.Lpcrel_hi461>
80004870: a0c9         	j	0x80004932 <.Lpcrel_hi461+0xc>
80004872: 6536         	ld	a0, 0x148(sp)
80004874: ec2a         	sd	a0, 0x18(sp)
80004876: 3aa13c23     	sd	a0, 0x3b8(sp)

000000008000487a <.Lpcrel_hi454>:
8000487a: 00004517     	auipc	a0, 0x4
8000487e: 78650513     	addi	a0, a0, 0x786
80004882: e511         	bnez	a0, 0x8000488e <.Lpcrel_hi454+0x14>
80004884: a025         	j	0x800048ac <.Lpcrel_hi456>
80004886: ffffd097     	auipc	ra, 0xffffd
8000488a: 528080e7     	jalr	0x528(ra) <lab7_kernel_task1::finish_experiment::ha7280b6e693acc3a>
8000488e: 6562         	ld	a0, 0x18(sp)

0000000080004890 <.Lpcrel_hi455>:
80004890: 00004597     	auipc	a1, 0x4
80004894: 77058593     	addi	a1, a1, 0x770
80004898: e188         	sd	a0, 0x0(a1)
8000489a: ffffd097     	auipc	ra, 0xffffd
8000489e: 34c080e7     	jalr	0x34c(ra) <lab7_kernel_task1::activate_process::h32f70cf55c791193>
800048a2: 6562         	ld	a0, 0x18(sp)
800048a4: 4589         	li	a1, 0x2
800048a6: 00b56b63     	bltu	a0, a1, 0x800048bc <.Lpcrel_hi457>
800048aa: a839         	j	0x800048c8 <.Lpcrel_hi457+0xc>

00000000800048ac <.Lpcrel_hi456>:
800048ac: 00003517     	auipc	a0, 0x3
800048b0: 4d450513     	addi	a0, a0, 0x4d4
800048b4: 00001097     	auipc	ra, 0x1
800048b8: 4c2080e7     	jalr	0x4c2(ra) <core::panicking::panic_null_pointer_dereference::hbac6411af4f2e916>

00000000800048bc <.Lpcrel_hi457>:
800048bc: 00009517     	auipc	a0, 0x9
800048c0: 76450513     	addi	a0, a0, 0x764
800048c4: ed01         	bnez	a0, 0x800048dc <.Lpcrel_hi458+0x12>
800048c6: a881         	j	0x80004916 <.Lpcrel_hi460>
800048c8: 6562         	ld	a0, 0x18(sp)

00000000800048ca <.Lpcrel_hi458>:
800048ca: 00003597     	auipc	a1, 0x3
800048ce: 4ce58613     	addi	a2, a1, 0x4ce
800048d2: 4589         	li	a1, 0x2
800048d4: 00001097     	auipc	ra, 0x1
800048d8: 436080e7     	jalr	0x436(ra) <core::panicking::panic_bounds_check::h6aaee0d15e0261eb>
800048dc: 6562         	ld	a0, 0x18(sp)
800048de: 00851593     	slli	a1, a0, 0x8

00000000800048e2 <.Lpcrel_hi459>:
800048e2: 00009517     	auipc	a0, 0x9
800048e6: 73e50513     	addi	a0, a0, 0x73e
800048ea: 95aa         	add	a1, a1, a0
800048ec: 1d08         	addi	a0, sp, 0x2b0
800048ee: e42a         	sd	a0, 0x8(sp)
800048f0: 10000613     	li	a2, 0x100
800048f4: e832         	sd	a2, 0x10(sp)
800048f6: 00001097     	auipc	ra, 0x1
800048fa: 64a080e7     	jalr	0x64a(ra) <memcpy>
800048fe: 65a2         	ld	a1, 0x8(sp)
80004900: 6642         	ld	a2, 0x10(sp)
80004902: 7522         	ld	a0, 0x28(sp)
80004904: 00001097     	auipc	ra, 0x1
80004908: 63c080e7     	jalr	0x63c(ra) <memcpy>
8000490c: 3c813083     	ld	ra, 0x3c8(sp)
80004910: 3d010113     	addi	sp, sp, 0x3d0
80004914: 8082         	ret

0000000080004916 <.Lpcrel_hi460>:
80004916: 00003517     	auipc	a0, 0x3
8000491a: 48250513     	addi	a0, a0, 0x482
8000491e: 00001097     	auipc	ra, 0x1
80004922: 458080e7     	jalr	0x458(ra) <core::panicking::panic_null_pointer_dereference::hbac6411af4f2e916>

0000000080004926 <.Lpcrel_hi461>:
80004926: 00009517     	auipc	a0, 0x9
8000492a: 6fa50513     	addi	a0, a0, 0x6fa
8000492e: ed01         	bnez	a0, 0x80004946 <.Lpcrel_hi462+0x12>
80004930: a045         	j	0x800049d0 <.Lpcrel_hi465>
80004932: 7542         	ld	a0, 0x30(sp)

0000000080004934 <.Lpcrel_hi462>:
80004934: 00003597     	auipc	a1, 0x3
80004938: 47c58613     	addi	a2, a1, 0x47c
8000493c: 4589         	li	a1, 0x2
8000493e: 00001097     	auipc	ra, 0x1
80004942: 3cc080e7     	jalr	0x3cc(ra) <core::panicking::panic_bounds_check::h6aaee0d15e0261eb>
80004946: 7542         	ld	a0, 0x30(sp)
80004948: 00851593     	slli	a1, a0, 0x8

000000008000494c <.Lpcrel_hi463>:
8000494c: 00009517     	auipc	a0, 0x9
80004950: 6d450513     	addi	a0, a0, 0x6d4
80004954: 952e         	add	a0, a0, a1
80004956: 7d68         	ld	a0, 0xf8(a0)
80004958: f6aa         	sd	a0, 0x168(sp)
8000495a: ffffd097     	auipc	ra, 0xffffd
8000495e: 8a0080e7     	jalr	-0x760(ra) <lab7_kernel_task1::read_stval::h64cf80d8cb711c90>
80004962: faaa         	sd	a0, 0x170(sp)
80004964: 1808         	addi	a0, sp, 0x30
80004966: eaaa         	sd	a0, 0x150(sp)
80004968: 12a8         	addi	a0, sp, 0x168
8000496a: eeaa         	sd	a0, 0x158(sp)
8000496c: 1a88         	addi	a0, sp, 0x170
8000496e: f2aa         	sd	a0, 0x160(sp)
80004970: 65d6         	ld	a1, 0x150(sp)
80004972: 1328         	addi	a0, sp, 0x1a8
80004974: ffffb097     	auipc	ra, 0xffffb
80004978: 704080e7     	jalr	0x704(ra) <core::fmt::rt::Argument::new_display::ha62cb5597af22ae5>
8000497c: 65f6         	ld	a1, 0x158(sp)
8000497e: 1b28         	addi	a0, sp, 0x1b8
80004980: ffffb097     	auipc	ra, 0xffffb
80004984: 75e080e7     	jalr	0x75e(ra) <core::fmt::rt::Argument::new_lower_hex::hc0e20b6dd24f901a>
80004988: 7596         	ld	a1, 0x160(sp)
8000498a: 03a8         	addi	a0, sp, 0x1c8
8000498c: ffffb097     	auipc	ra, 0xffffb
80004990: 752080e7     	jalr	0x752(ra) <core::fmt::rt::Argument::new_lower_hex::hc0e20b6dd24f901a>
80004994: 755a         	ld	a0, 0x1b0(sp)
80004996: e32a         	sd	a0, 0x180(sp)
80004998: 753a         	ld	a0, 0x1a8(sp)
8000499a: feaa         	sd	a0, 0x178(sp)
8000499c: 651e         	ld	a0, 0x1c0(sp)
8000499e: eb2a         	sd	a0, 0x190(sp)
800049a0: 757a         	ld	a0, 0x1b8(sp)
800049a2: e72a         	sd	a0, 0x188(sp)
800049a4: 655e         	ld	a0, 0x1d0(sp)
800049a6: f32a         	sd	a0, 0x1a0(sp)
800049a8: 653e         	ld	a0, 0x1c8(sp)
800049aa: ef2a         	sd	a0, 0x198(sp)

00000000800049ac <.Lpcrel_hi464>:
800049ac: 00003517     	auipc	a0, 0x3
800049b0: 41c50513     	addi	a0, a0, 0x41c
800049b4: 1aac         	addi	a1, sp, 0x178
800049b6: ffffc097     	auipc	ra, 0xffffc
800049ba: 8a2080e7     	jalr	-0x75e(ra) <core::fmt::Arguments::new::h40c86365facc2623>
800049be: ffffc097     	auipc	ra, 0xffffc
800049c2: 418080e7     	jalr	0x418(ra) <lab7_kernel_task1::console::print::h4532f48a1410ef53>
800049c6: 7542         	ld	a0, 0x30(sp)
800049c8: 4589         	li	a1, 0x2
800049ca: 00b56b63     	bltu	a0, a1, 0x800049e0 <.Lpcrel_hi466>
800049ce: a839         	j	0x800049ec <.Lpcrel_hi466+0xc>

00000000800049d0 <.Lpcrel_hi465>:
800049d0: 00003517     	auipc	a0, 0x3
800049d4: 3e050513     	addi	a0, a0, 0x3e0
800049d8: 00001097     	auipc	ra, 0x1
800049dc: 39e080e7     	jalr	0x39e(ra) <core::panicking::panic_null_pointer_dereference::hbac6411af4f2e916>

00000000800049e0 <.Lpcrel_hi466>:
800049e0: 00009517     	auipc	a0, 0x9
800049e4: 64050513     	addi	a0, a0, 0x640
800049e8: ed01         	bnez	a0, 0x80004a00 <.Lpcrel_hi467+0x12>
800049ea: a09d         	j	0x80004a50 <.Lpcrel_hi470>
800049ec: 7542         	ld	a0, 0x30(sp)

00000000800049ee <.Lpcrel_hi467>:
800049ee: 00003597     	auipc	a1, 0x3
800049f2: 42258613     	addi	a2, a1, 0x422
800049f6: 4589         	li	a1, 0x2
800049f8: 00001097     	auipc	ra, 0x1
800049fc: 312080e7     	jalr	0x312(ra) <core::panicking::panic_bounds_check::h6aaee0d15e0261eb>
80004a00: 7542         	ld	a0, 0x30(sp)
80004a02: 00851593     	slli	a1, a0, 0x8

0000000080004a06 <.Lpcrel_hi468>:
80004a06: 00009517     	auipc	a0, 0x9
80004a0a: 61a50513     	addi	a0, a0, 0x61a
80004a0e: 952e         	add	a0, a0, a1
80004a10: 7968         	ld	a0, 0xf0(a0)
80004a12: efaa         	sd	a0, 0x1d8(sp)
80004a14: 0bac         	addi	a1, sp, 0x1d8
80004a16: 3cb13023     	sd	a1, 0x3c0(sp)
80004a1a: 1b88         	addi	a0, sp, 0x1f0
80004a1c: ffffb097     	auipc	ra, 0xffffb
80004a20: 6c2080e7     	jalr	0x6c2(ra) <core::fmt::rt::Argument::new_lower_hex::hc0e20b6dd24f901a>
80004a24: 757e         	ld	a0, 0x1f8(sp)
80004a26: f7aa         	sd	a0, 0x1e8(sp)
80004a28: 755e         	ld	a0, 0x1f0(sp)
80004a2a: f3aa         	sd	a0, 0x1e0(sp)

0000000080004a2c <.Lpcrel_hi469>:
80004a2c: 00003517     	auipc	a0, 0x3
80004a30: 3fc50513     	addi	a0, a0, 0x3fc
80004a34: 138c         	addi	a1, sp, 0x1e0
80004a36: ffffc097     	auipc	ra, 0xffffc
80004a3a: 80e080e7     	jalr	-0x7f2(ra) <core::fmt::Arguments::new::h2e182e5a0309a5e5>
80004a3e: ffffc097     	auipc	ra, 0xffffc
80004a42: 398080e7     	jalr	0x398(ra) <lab7_kernel_task1::console::print::h4532f48a1410ef53>
80004a46: 4505         	li	a0, 0x1
80004a48: 00000097     	auipc	ra, 0x0
80004a4c: 9cc080e7     	jalr	-0x634(ra) <lab7_kernel_task1::qemu_exit::h3658abe717466651>

0000000080004a50 <.Lpcrel_hi470>:
80004a50: 00003517     	auipc	a0, 0x3
80004a54: 3c050513     	addi	a0, a0, 0x3c0
80004a58: 00001097     	auipc	ra, 0x1
80004a5c: 31e080e7     	jalr	0x31e(ra) <core::panicking::panic_null_pointer_dereference::hbac6411af4f2e916>

0000000080004a60 <.Lpcrel_hi471>:
80004a60: 00009517     	auipc	a0, 0x9
80004a64: 5c050513     	addi	a0, a0, 0x5c0
80004a68: ed01         	bnez	a0, 0x80004a80 <.Lpcrel_hi472+0x12>
80004a6a: a0f5         	j	0x80004b56 <.Lpcrel_hi475>
80004a6c: 7542         	ld	a0, 0x30(sp)

0000000080004a6e <.Lpcrel_hi472>:
80004a6e: 00003597     	auipc	a1, 0x3
80004a72: 3ea58613     	addi	a2, a1, 0x3ea
80004a76: 4589         	li	a1, 0x2
80004a78: 00001097     	auipc	ra, 0x1
80004a7c: 292080e7     	jalr	0x292(ra) <core::panicking::panic_bounds_check::h6aaee0d15e0261eb>
80004a80: 7542         	ld	a0, 0x30(sp)
80004a82: 00851593     	slli	a1, a0, 0x8

0000000080004a86 <.Lpcrel_hi473>:
80004a86: 00009517     	auipc	a0, 0x9
80004a8a: 59a50513     	addi	a0, a0, 0x59a
80004a8e: 952e         	add	a0, a0, a1
80004a90: 7d68         	ld	a0, 0xf8(a0)
80004a92: 22a13023     	sd	a0, 0x220(sp)
80004a96: ffffc097     	auipc	ra, 0xffffc
80004a9a: 764080e7     	jalr	0x764(ra) <lab7_kernel_task1::read_stval::h64cf80d8cb711c90>
80004a9e: 22a13423     	sd	a0, 0x228(sp)
80004aa2: 1808         	addi	a0, sp, 0x30
80004aa4: 20a13023     	sd	a0, 0x200(sp)
80004aa8: 1828         	addi	a0, sp, 0x38
80004aaa: 20a13423     	sd	a0, 0x208(sp)
80004aae: 1408         	addi	a0, sp, 0x220
80004ab0: 20a13823     	sd	a0, 0x210(sp)
80004ab4: 1428         	addi	a0, sp, 0x228
80004ab6: 20a13c23     	sd	a0, 0x218(sp)
80004aba: 20013583     	ld	a1, 0x200(sp)
80004abe: 1c88         	addi	a0, sp, 0x270
80004ac0: ffffb097     	auipc	ra, 0xffffb
80004ac4: 5b8080e7     	jalr	0x5b8(ra) <core::fmt::rt::Argument::new_display::ha62cb5597af22ae5>
80004ac8: 20813583     	ld	a1, 0x208(sp)
80004acc: 0508         	addi	a0, sp, 0x280
80004ace: ffffb097     	auipc	ra, 0xffffb
80004ad2: 610080e7     	jalr	0x610(ra) <core::fmt::rt::Argument::new_lower_hex::hc0e20b6dd24f901a>
80004ad6: 21013583     	ld	a1, 0x210(sp)
80004ada: 0d08         	addi	a0, sp, 0x290
80004adc: ffffb097     	auipc	ra, 0xffffb
80004ae0: 602080e7     	jalr	0x602(ra) <core::fmt::rt::Argument::new_lower_hex::hc0e20b6dd24f901a>
80004ae4: 21813583     	ld	a1, 0x218(sp)
80004ae8: 1508         	addi	a0, sp, 0x2a0
80004aea: ffffb097     	auipc	ra, 0xffffb
80004aee: 5f4080e7     	jalr	0x5f4(ra) <core::fmt::rt::Argument::new_lower_hex::hc0e20b6dd24f901a>
80004af2: 27813503     	ld	a0, 0x278(sp)
80004af6: 22a13c23     	sd	a0, 0x238(sp)
80004afa: 27013503     	ld	a0, 0x270(sp)
80004afe: 22a13823     	sd	a0, 0x230(sp)
80004b02: 28813503     	ld	a0, 0x288(sp)
80004b06: 24a13423     	sd	a0, 0x248(sp)
80004b0a: 28013503     	ld	a0, 0x280(sp)
80004b0e: 24a13023     	sd	a0, 0x240(sp)
80004b12: 29813503     	ld	a0, 0x298(sp)
80004b16: 24a13c23     	sd	a0, 0x258(sp)
80004b1a: 29013503     	ld	a0, 0x290(sp)
80004b1e: 24a13823     	sd	a0, 0x250(sp)
80004b22: 2a813503     	ld	a0, 0x2a8(sp)
80004b26: 26a13423     	sd	a0, 0x268(sp)
80004b2a: 2a013503     	ld	a0, 0x2a0(sp)
80004b2e: 26a13023     	sd	a0, 0x260(sp)

0000000080004b32 <.Lpcrel_hi474>:
80004b32: 00003517     	auipc	a0, 0x3
80004b36: 33e50513     	addi	a0, a0, 0x33e
80004b3a: 1c0c         	addi	a1, sp, 0x230
80004b3c: ffffb097     	auipc	ra, 0xffffb
80004b40: 76c080e7     	jalr	0x76c(ra) <core::fmt::Arguments::new::h9b4eb0a260c7e386>
80004b44: ffffc097     	auipc	ra, 0xffffc
80004b48: 292080e7     	jalr	0x292(ra) <lab7_kernel_task1::console::print::h4532f48a1410ef53>
80004b4c: 4505         	li	a0, 0x1
80004b4e: 00000097     	auipc	ra, 0x0
80004b52: 8c6080e7     	jalr	-0x73a(ra) <lab7_kernel_task1::qemu_exit::h3658abe717466651>

0000000080004b56 <.Lpcrel_hi475>:
80004b56: 00003517     	auipc	a0, 0x3
80004b5a: 30250513     	addi	a0, a0, 0x302
80004b5e: 00001097     	auipc	ra, 0x1
80004b62: 218080e7     	jalr	0x218(ra) <core::panicking::panic_null_pointer_dereference::hbac6411af4f2e916>

0000000080004b66 <start_machine>:
80004b66: 1141         	addi	sp, sp, -0x10
80004b68: e406         	sd	ra, 0x8(sp)
80004b6a: fffff097     	auipc	ra, 0xfffff
80004b6e: 7c6080e7     	jalr	0x7c6(ra) <lab7_kernel_task1::clear_bss::h39f10ae3e15c21bd>
80004b72: ffffd097     	auipc	ra, 0xffffd
80004b76: d8e080e7     	jalr	-0x272(ra) <lab7_kernel_task1::configure_pmp::h0960290244b3be79>
80004b7a: ffffc097     	auipc	ra, 0xffffc
80004b7e: 1ae080e7     	jalr	0x1ae(ra) <lab7_kernel_task1::trap::init_machine_trap_vector::h6e312c418a7bded3>
80004b82: fffff097     	auipc	ra, 0xfffff
80004b86: 1c0080e7     	jalr	0x1c0(ra) <lab7_kernel_task1::delegate_user_exceptions_to_supervisor::he7cd81ab0ba4f1d0>
80004b8a: fffff097     	auipc	ra, 0xfffff
80004b8e: dc2080e7     	jalr	-0x23e(ra) <lab7_kernel_task1::machine_trap_stack_top::hea818b958e0fc216>
80004b92: 34051073     	csrw	mscratch, a0
80004b96: ffffd097     	auipc	ra, 0xffffd
80004b9a: 15c080e7     	jalr	0x15c(ra) <lab7_kernel_task1::kernel_stack_top::hae6901bbb3177164>
80004b9e: 85aa         	mv	a1, a0

0000000080004ba0 <.Lpcrel_hi476>:
80004ba0: 00000517     	auipc	a0, 0x0
80004ba4: 01050513     	addi	a0, a0, 0x10
80004ba8: ffffc097     	auipc	ra, 0xffffc
80004bac: 2c8080e7     	jalr	0x2c8(ra) <enter_supervisor>

0000000080004bb0 <start_supervisor>:
80004bb0: 714d         	addi	sp, sp, -0x150
80004bb2: e686         	sd	ra, 0x148(sp)
80004bb4: ffffc097     	auipc	ra, 0xffffc
80004bb8: 182080e7     	jalr	0x182(ra) <lab7_kernel_task1::trap::init_supervisor_trap_vector::hbd1df54451d22e14>
80004bbc: fffff097     	auipc	ra, 0xfffff
80004bc0: 7f6080e7     	jalr	0x7f6(ra) <lab7_kernel_task1::clear_sum::hfe39e89e229a3dd4>
80004bc4: ffffe097     	auipc	ra, 0xffffe
80004bc8: 314080e7     	jalr	0x314(ra) <lab7_kernel_task1::initialize_runtime::h3dd2652482735d3f>

0000000080004bcc <.Lpcrel_hi477>:
80004bcc: 00003517     	auipc	a0, 0x3
80004bd0: 2f950513     	addi	a0, a0, 0x2f9
80004bd4: 02c00593     	li	a1, 0x2c
80004bd8: ffffc097     	auipc	ra, 0xffffc
80004bdc: fd6080e7     	jalr	-0x2a(ra) <core::fmt::Arguments::from_str::h75d1bb1c6aa86bac>
80004be0: ffffc097     	auipc	ra, 0xffffc
80004be4: 1f6080e7     	jalr	0x1f6(ra) <lab7_kernel_task1::console::print::h4532f48a1410ef53>

0000000080004be8 <.Lpcrel_hi478>:
80004be8: 00003517     	auipc	a0, 0x3
80004bec: 30950513     	addi	a0, a0, 0x309
80004bf0: 03100593     	li	a1, 0x31
80004bf4: ffffc097     	auipc	ra, 0xffffc
80004bf8: fba080e7     	jalr	-0x46(ra) <core::fmt::Arguments::from_str::h75d1bb1c6aa86bac>
80004bfc: ffffc097     	auipc	ra, 0xffffc
80004c00: 1da080e7     	jalr	0x1da(ra) <lab7_kernel_task1::console::print::h4532f48a1410ef53>
80004c04: ffffd097     	auipc	ra, 0xffffd
80004c08: 0ee080e7     	jalr	0xee(ra) <lab7_kernel_task1::kernel_stack_top::hae6901bbb3177164>
80004c0c: f82a         	sd	a0, 0x30(sp)
80004c0e: fffff097     	auipc	ra, 0xfffff
80004c12: eb0080e7     	jalr	-0x150(ra) <lab7_kernel_task1::supervisor_trap_stack_top::hb50641fd24dc6bd7>
80004c16: fc2a         	sd	a0, 0x38(sp)
80004c18: fffff097     	auipc	ra, 0xfffff
80004c1c: d34080e7     	jalr	-0x2cc(ra) <lab7_kernel_task1::machine_trap_stack_top::hea818b958e0fc216>
80004c20: e0aa         	sd	a0, 0x40(sp)
80004c22: 1808         	addi	a0, sp, 0x30
80004c24: ec2a         	sd	a0, 0x18(sp)
80004c26: 1828         	addi	a0, sp, 0x38
80004c28: f02a         	sd	a0, 0x20(sp)
80004c2a: 0088         	addi	a0, sp, 0x40
80004c2c: f42a         	sd	a0, 0x28(sp)
80004c2e: 65e2         	ld	a1, 0x18(sp)
80004c30: 18a8         	addi	a0, sp, 0x78
80004c32: ffffb097     	auipc	ra, 0xffffb
80004c36: 4ac080e7     	jalr	0x4ac(ra) <core::fmt::rt::Argument::new_lower_hex::hc0e20b6dd24f901a>
80004c3a: 7582         	ld	a1, 0x20(sp)
80004c3c: 0128         	addi	a0, sp, 0x88
80004c3e: ffffb097     	auipc	ra, 0xffffb
80004c42: 4a0080e7     	jalr	0x4a0(ra) <core::fmt::rt::Argument::new_lower_hex::hc0e20b6dd24f901a>
80004c46: 75a2         	ld	a1, 0x28(sp)
80004c48: 0928         	addi	a0, sp, 0x98
80004c4a: ffffb097     	auipc	ra, 0xffffb
80004c4e: 494080e7     	jalr	0x494(ra) <core::fmt::rt::Argument::new_lower_hex::hc0e20b6dd24f901a>
80004c52: 650a         	ld	a0, 0x80(sp)
80004c54: e8aa         	sd	a0, 0x50(sp)
80004c56: 7566         	ld	a0, 0x78(sp)
80004c58: e4aa         	sd	a0, 0x48(sp)
80004c5a: 654a         	ld	a0, 0x90(sp)
80004c5c: f0aa         	sd	a0, 0x60(sp)
80004c5e: 652a         	ld	a0, 0x88(sp)
80004c60: ecaa         	sd	a0, 0x58(sp)
80004c62: 750a         	ld	a0, 0xa0(sp)
80004c64: f8aa         	sd	a0, 0x70(sp)
80004c66: 656a         	ld	a0, 0x98(sp)
80004c68: f4aa         	sd	a0, 0x68(sp)

0000000080004c6a <.Lpcrel_hi479>:
80004c6a: 00003517     	auipc	a0, 0x3
80004c6e: 2b850513     	addi	a0, a0, 0x2b8
80004c72: 00ac         	addi	a1, sp, 0x48
80004c74: ffffb097     	auipc	ra, 0xffffb
80004c78: 5ee080e7     	jalr	0x5ee(ra) <core::fmt::Arguments::new::h43de279e99e0fe70>
80004c7c: ffffc097     	auipc	ra, 0xffffc
80004c80: 15a080e7     	jalr	0x15a(ra) <lab7_kernel_task1::console::print::h4532f48a1410ef53>

0000000080004c84 <.Lpcrel_hi480>:
80004c84: 00002517     	auipc	a0, 0x2
80004c88: 28c50593     	addi	a1, a0, 0x28c
80004c8c: f62e         	sd	a1, 0x128(sp)

0000000080004c8e <.Lpcrel_hi481>:
80004c8e: 00002517     	auipc	a0, 0x2
80004c92: 26250513     	addi	a0, a0, 0x262
80004c96: e42a         	sd	a0, 0x8(sp)
80004c98: fa2a         	sd	a0, 0x130(sp)
80004c9a: 01a8         	addi	a0, sp, 0xc8
80004c9c: ffffb097     	auipc	ra, 0xffffb
80004ca0: 442080e7     	jalr	0x442(ra) <core::fmt::rt::Argument::new_lower_hex::hc0e20b6dd24f901a>
80004ca4: 65a2         	ld	a1, 0x8(sp)
80004ca6: 09a8         	addi	a0, sp, 0xd8
80004ca8: ffffb097     	auipc	ra, 0xffffb
80004cac: 436080e7     	jalr	0x436(ra) <core::fmt::rt::Argument::new_lower_hex::hc0e20b6dd24f901a>
80004cb0: 654e         	ld	a0, 0xd0(sp)
80004cb2: f92a         	sd	a0, 0xb0(sp)
80004cb4: 652e         	ld	a0, 0xc8(sp)
80004cb6: f52a         	sd	a0, 0xa8(sp)
80004cb8: 750e         	ld	a0, 0xe0(sp)
80004cba: e1aa         	sd	a0, 0xc0(sp)
80004cbc: 656e         	ld	a0, 0xd8(sp)
80004cbe: fd2a         	sd	a0, 0xb8(sp)

0000000080004cc0 <.Lpcrel_hi482>:
80004cc0: 00003517     	auipc	a0, 0x3
80004cc4: 2a750513     	addi	a0, a0, 0x2a7
80004cc8: 112c         	addi	a1, sp, 0xa8
80004cca: ffffb097     	auipc	ra, 0xffffb
80004cce: 5e8080e7     	jalr	0x5e8(ra) <core::fmt::Arguments::new::h9d0234536c440cee>
80004cd2: ffffc097     	auipc	ra, 0xffffc
80004cd6: 104080e7     	jalr	0x104(ra) <lab7_kernel_task1::console::print::h4532f48a1410ef53>

0000000080004cda <.Lpcrel_hi483>:
80004cda: 00002517     	auipc	a0, 0x2
80004cde: 22e50593     	addi	a1, a0, 0x22e
80004ce2: fe2e         	sd	a1, 0x138(sp)

0000000080004ce4 <.Lpcrel_hi484>:
80004ce4: 00002517     	auipc	a0, 0x2
80004ce8: 21c50513     	addi	a0, a0, 0x21c
80004cec: e82a         	sd	a0, 0x10(sp)
80004cee: e2aa         	sd	a0, 0x140(sp)
80004cf0: 0228         	addi	a0, sp, 0x108
80004cf2: ffffb097     	auipc	ra, 0xffffb
80004cf6: 3ec080e7     	jalr	0x3ec(ra) <core::fmt::rt::Argument::new_lower_hex::hc0e20b6dd24f901a>
80004cfa: 65c2         	ld	a1, 0x10(sp)
80004cfc: 0a28         	addi	a0, sp, 0x118
80004cfe: ffffb097     	auipc	ra, 0xffffb
80004d02: 3e0080e7     	jalr	0x3e0(ra) <core::fmt::rt::Argument::new_lower_hex::hc0e20b6dd24f901a>
80004d06: 6552         	ld	a0, 0x110(sp)
80004d08: f9aa         	sd	a0, 0xf0(sp)
80004d0a: 6532         	ld	a0, 0x108(sp)
80004d0c: f5aa         	sd	a0, 0xe8(sp)
80004d0e: 7512         	ld	a0, 0x120(sp)
80004d10: e22a         	sd	a0, 0x100(sp)
80004d12: 6572         	ld	a0, 0x118(sp)
80004d14: fdaa         	sd	a0, 0xf8(sp)

0000000080004d16 <.Lpcrel_hi485>:
80004d16: 00003517     	auipc	a0, 0x3
80004d1a: 29050513     	addi	a0, a0, 0x290
80004d1e: 11ac         	addi	a1, sp, 0xe8
80004d20: ffffb097     	auipc	ra, 0xffffb
80004d24: 510080e7     	jalr	0x510(ra) <core::fmt::Arguments::new::h1b88f14f20c81a9d>
80004d28: ffffc097     	auipc	ra, 0xffffc
80004d2c: 0ae080e7     	jalr	0xae(ra) <lab7_kernel_task1::console::print::h4532f48a1410ef53>
80004d30: fffff097     	auipc	ra, 0xfffff
80004d34: d8e080e7     	jalr	-0x272(ra) <lab7_kernel_task1::supervisor_trap_stack_top::hb50641fd24dc6bd7>
80004d38: 14051073     	csrw	sscratch, a0

0000000080004d3c <.Lpcrel_hi486>:
80004d3c: 00004517     	auipc	a0, 0x4
80004d40: 2c450513     	addi	a0, a0, 0x2c4
80004d44: c90d         	beqz	a0, 0x80004d76 <.Lpcrel_hi489>
80004d46: a009         	j	0x80004d48 <.Lpcrel_hi487>

0000000080004d48 <.Lpcrel_hi487>:
80004d48: 00004517     	auipc	a0, 0x4
80004d4c: 2b850593     	addi	a1, a0, 0x2b8
80004d50: 4501         	li	a0, 0x0
80004d52: e188         	sd	a0, 0x0(a1)
80004d54: ffffd097     	auipc	ra, 0xffffd
80004d58: e92080e7     	jalr	-0x16e(ra) <lab7_kernel_task1::activate_process::h32f70cf55c791193>
80004d5c: fffff097     	auipc	ra, 0xfffff
80004d60: d62080e7     	jalr	-0x29e(ra) <lab7_kernel_task1::supervisor_trap_stack_top::hb50641fd24dc6bd7>
80004d64: 85aa         	mv	a1, a0

0000000080004d66 <.Lpcrel_hi488>:
80004d66: 00009517     	auipc	a0, 0x9
80004d6a: 2ba50513     	addi	a0, a0, 0x2ba
80004d6e: ffffc097     	auipc	ra, 0xffffc
80004d72: 128080e7     	jalr	0x128(ra) <enter_user_task>

0000000080004d76 <.Lpcrel_hi489>:
80004d76: 00003517     	auipc	a0, 0x3
80004d7a: 26a50513     	addi	a0, a0, 0x26a
80004d7e: 00001097     	auipc	ra, 0x1
80004d82: ff8080e7     	jalr	-0x8(ra) <core::panicking::panic_null_pointer_dereference::hbac6411af4f2e916>

0000000080004d86 <core::array::iter::_$LT$impl$u20$core..iter..traits..collect..IntoIterator$u20$for$u20$$u5b$T$u3b$$u20$N$u5d$$GT$::into_iter::h5da233120e9e7dab>:
80004d86: 7151         	addi	sp, sp, -0xf0
80004d88: f586         	sd	ra, 0xe8(sp)
80004d8a: e42e         	sd	a1, 0x8(sp)
80004d8c: 85aa         	mv	a1, a0
80004d8e: 6522         	ld	a0, 0x8(sp)
80004d90: e82e         	sd	a1, 0x10(sp)
80004d92: 510c         	lw	a1, 0x20(a0)
80004d94: dc2e         	sw	a1, 0x38(sp)
80004d96: 01856603     	lwu	a2, 0x18(a0)
80004d9a: 01c56583     	lwu	a1, 0x1c(a0)
80004d9e: 1582         	slli	a1, a1, 0x20
80004da0: 8dd1         	or	a1, a1, a2
80004da2: f82e         	sd	a1, 0x30(sp)
80004da4: 01056603     	lwu	a2, 0x10(a0)
80004da8: 01456583     	lwu	a1, 0x14(a0)
80004dac: 1582         	slli	a1, a1, 0x20
80004dae: 8dd1         	or	a1, a1, a2
80004db0: f42e         	sd	a1, 0x28(sp)
80004db2: 00856603     	lwu	a2, 0x8(a0)
80004db6: 00c56583     	lwu	a1, 0xc(a0)
80004dba: 1582         	slli	a1, a1, 0x20
80004dbc: 8dd1         	or	a1, a1, a2
80004dbe: f02e         	sd	a1, 0x20(sp)
80004dc0: 00056583     	lwu	a1, 0x0(a0)
80004dc4: 00456503     	lwu	a0, 0x4(a0)
80004dc8: 1502         	slli	a0, a0, 0x20
80004dca: 8d4d         	or	a0, a0, a1
80004dcc: ec2a         	sd	a0, 0x18(sp)
80004dce: 4501         	li	a0, 0x0
80004dd0: e0aa         	sd	a0, 0x40(sp)
80004dd2: 4525         	li	a0, 0x9
80004dd4: e4aa         	sd	a0, 0x48(sp)
80004dd6: 0888         	addi	a0, sp, 0x50
80004dd8: 082c         	addi	a1, sp, 0x18
80004dda: 02400613     	li	a2, 0x24
80004dde: 00001097     	auipc	ra, 0x1
80004de2: 162080e7     	jalr	0x162(ra) <memcpy>
80004de6: 65c2         	ld	a1, 0x10(sp)
80004de8: 7546         	ld	a0, 0x70(sp)
80004dea: f1aa         	sd	a0, 0xe0(sp)
80004dec: 7526         	ld	a0, 0x68(sp)
80004dee: edaa         	sd	a0, 0xd8(sp)
80004df0: 7506         	ld	a0, 0x60(sp)
80004df2: e9aa         	sd	a0, 0xd0(sp)
80004df4: 6566         	ld	a0, 0x58(sp)
80004df6: e5aa         	sd	a0, 0xc8(sp)
80004df8: 6546         	ld	a0, 0x50(sp)
80004dfa: e1aa         	sd	a0, 0xc0(sp)
80004dfc: 6526         	ld	a0, 0x48(sp)
80004dfe: fd2a         	sd	a0, 0xb8(sp)
80004e00: 6506         	ld	a0, 0x40(sp)
80004e02: f92a         	sd	a0, 0xb0(sp)
80004e04: 750e         	ld	a0, 0xe0(sp)
80004e06: f52a         	sd	a0, 0xa8(sp)
80004e08: 656e         	ld	a0, 0xd8(sp)
80004e0a: f12a         	sd	a0, 0xa0(sp)
80004e0c: 654e         	ld	a0, 0xd0(sp)
80004e0e: ed2a         	sd	a0, 0x98(sp)
80004e10: 652e         	ld	a0, 0xc8(sp)
80004e12: e92a         	sd	a0, 0x90(sp)
80004e14: 650e         	ld	a0, 0xc0(sp)
80004e16: e52a         	sd	a0, 0x88(sp)
80004e18: 756a         	ld	a0, 0xb8(sp)
80004e1a: e12a         	sd	a0, 0x80(sp)
80004e1c: 754a         	ld	a0, 0xb0(sp)
80004e1e: fcaa         	sd	a0, 0x78(sp)
80004e20: 752a         	ld	a0, 0xa8(sp)
80004e22: f988         	sd	a0, 0x30(a1)
80004e24: 750a         	ld	a0, 0xa0(sp)
80004e26: f588         	sd	a0, 0x28(a1)
80004e28: 656a         	ld	a0, 0x98(sp)
80004e2a: f188         	sd	a0, 0x20(a1)
80004e2c: 654a         	ld	a0, 0x90(sp)
80004e2e: ed88         	sd	a0, 0x18(a1)
80004e30: 652a         	ld	a0, 0x88(sp)
80004e32: e988         	sd	a0, 0x10(a1)
80004e34: 650a         	ld	a0, 0x80(sp)
80004e36: e588         	sd	a0, 0x8(a1)
80004e38: 7566         	ld	a0, 0x78(sp)
80004e3a: e188         	sd	a0, 0x0(a1)
80004e3c: 70ae         	ld	ra, 0xe8(sp)
80004e3e: 616d         	addi	sp, sp, 0xf0
80004e40: 8082         	ret

0000000080004e42 <_$LT$core..array..iter..IntoIter$LT$T$C$_$GT$$u20$as$u20$core..iter..traits..iterator..Iterator$GT$::next::hbd1a2279d4b4c305>:
80004e42: 1141         	addi	sp, sp, -0x10
80004e44: e406         	sd	ra, 0x8(sp)
80004e46: e02a         	sd	a0, 0x0(sp)
80004e48: 45a5         	li	a1, 0x9
80004e4a: ffffc097     	auipc	ra, 0xffffc
80004e4e: e0e080e7     	jalr	-0x1f2(ra) <core::array::iter::iter_inner::PolymorphicIter$LT$$u5b$core..mem..maybe_uninit..MaybeUninit$LT$T$GT$$u5d$$GT$::next::hf33dc65704f0d5d4>
80004e52: 60a2         	ld	ra, 0x8(sp)
80004e54: 0141         	addi	sp, sp, 0x10
80004e56: 8082         	ret

0000000080004e58 <_$LT$$RF$T$u20$as$u20$core..fmt..Display$GT$::fmt::h6418a17a0013e0d1>:
80004e58: 1101         	addi	sp, sp, -0x20
80004e5a: ec06         	sd	ra, 0x18(sp)
80004e5c: e42a         	sd	a0, 0x8(sp)
80004e5e: e82e         	sd	a1, 0x10(sp)
80004e60: 6108         	ld	a0, 0x0(a0)
80004e62: 00001097     	auipc	ra, 0x1
80004e66: fa2080e7     	jalr	-0x5e(ra) <_$LT$core..panic..panic_info..PanicInfo$u20$as$u20$core..fmt..Display$GT$::fmt::hcccb3fed5b673506>
80004e6a: 60e2         	ld	ra, 0x18(sp)
80004e6c: 6105         	addi	sp, sp, 0x20
80004e6e: 8082         	ret

0000000080004e70 <_$LT$str$u20$as$u20$core..fmt..Display$GT$::fmt::h53474d83e2b0968b>:
80004e70: 86ae         	mv	a3, a1
80004e72: 85aa         	mv	a1, a0
80004e74: 8532         	mv	a0, a2
80004e76: 8636         	mv	a2, a3
80004e78: 00001317     	auipc	t1, 0x1
80004e7c: aa430067     	jr	-0x55c(t1) <core::fmt::Formatter::pad::h239e525174ab4a17>

0000000080004e80 <_$LT$char$u20$as$u20$core..fmt..Display$GT$::fmt::h793d1df9ddfe9696>:
80004e80: 86ae         	mv	a3, a1
80004e82: 0135c603     	lbu	a2, 0x13(a1)
80004e86: 410c         	lw	a1, 0x0(a0)
80004e88: 8a61         	andi	a2, a2, 0x18
80004e8a: ce19         	beqz	a2, 0x80004ea8 <_$LT$char$u20$as$u20$core..fmt..Display$GT$::fmt::h793d1df9ddfe9696+0x28>
80004e8c: 1101         	addi	sp, sp, -0x20
80004e8e: ec06         	sd	ra, 0x18(sp)
80004e90: e822         	sd	s0, 0x10(sp)
80004e92: 1000         	addi	s0, sp, 0x20
80004e94: 08000513     	li	a0, 0x80
80004e98: fe042623     	sw	zero, -0x14(s0)
80004e9c: 00a5fa63     	bgeu	a1, a0, 0x80004eb0 <_$LT$char$u20$as$u20$core..fmt..Display$GT$::fmt::h793d1df9ddfe9696+0x30>
80004ea0: feb40623     	sb	a1, -0x14(s0)
80004ea4: 4605         	li	a2, 0x1
80004ea6: a88d         	j	0x80004f18 <_$LT$char$u20$as$u20$core..fmt..Display$GT$::fmt::h793d1df9ddfe9696+0x98>
80004ea8: 6690         	ld	a2, 0x8(a3)
80004eaa: 6288         	ld	a0, 0x0(a3)
80004eac: 721c         	ld	a5, 0x20(a2)
80004eae: 8782         	jr	a5
80004eb0: 00b5d71b     	srliw	a4, a1, 0xb
80004eb4: 03f5f513     	andi	a0, a1, 0x3f
80004eb8: f8050513     	addi	a0, a0, -0x80
80004ebc: 0065d61b     	srliw	a2, a1, 0x6
80004ec0: eb09         	bnez	a4, 0x80004ed2 <_$LT$char$u20$as$u20$core..fmt..Display$GT$::fmt::h793d1df9ddfe9696+0x52>
80004ec2: 0c066593     	ori	a1, a2, 0xc0
80004ec6: feb40623     	sb	a1, -0x14(s0)
80004eca: fea406a3     	sb	a0, -0x13(s0)
80004ece: 4609         	li	a2, 0x2
80004ed0: a0a1         	j	0x80004f18 <_$LT$char$u20$as$u20$core..fmt..Display$GT$::fmt::h793d1df9ddfe9696+0x98>
80004ed2: 03f67613     	andi	a2, a2, 0x3f
80004ed6: 0105d79b     	srliw	a5, a1, 0x10
80004eda: f8060613     	addi	a2, a2, -0x80
80004ede: 00c5d71b     	srliw	a4, a1, 0xc
80004ee2: eb99         	bnez	a5, 0x80004ef8 <_$LT$char$u20$as$u20$core..fmt..Display$GT$::fmt::h793d1df9ddfe9696+0x78>
80004ee4: 0e076593     	ori	a1, a4, 0xe0
80004ee8: feb40623     	sb	a1, -0x14(s0)
80004eec: fec406a3     	sb	a2, -0x13(s0)
80004ef0: fea40723     	sb	a0, -0x12(s0)
80004ef4: 460d         	li	a2, 0x3
80004ef6: a00d         	j	0x80004f18 <_$LT$char$u20$as$u20$core..fmt..Display$GT$::fmt::h793d1df9ddfe9696+0x98>
80004ef8: 03f77713     	andi	a4, a4, 0x3f
80004efc: 81c9         	srli	a1, a1, 0x12
80004efe: f8070713     	addi	a4, a4, -0x80
80004f02: ff05e593     	ori	a1, a1, -0x10
80004f06: feb40623     	sb	a1, -0x14(s0)
80004f0a: fee406a3     	sb	a4, -0x13(s0)
80004f0e: fec40723     	sb	a2, -0x12(s0)
80004f12: fea407a3     	sb	a0, -0x11(s0)
80004f16: 4611         	li	a2, 0x4
80004f18: fec40593     	addi	a1, s0, -0x14
80004f1c: 8536         	mv	a0, a3
80004f1e: 00001097     	auipc	ra, 0x1
80004f22: 9fe080e7     	jalr	-0x602(ra) <core::fmt::Formatter::pad::h239e525174ab4a17>
80004f26: 60e2         	ld	ra, 0x18(sp)
80004f28: 6442         	ld	s0, 0x10(sp)
80004f2a: 6105         	addi	sp, sp, 0x20
80004f2c: 8082         	ret

0000000080004f2e <_$LT$$RF$T$u20$as$u20$core..fmt..Display$GT$::fmt::h60cf88dbe6a53042>:
80004f2e: 6114         	ld	a3, 0x0(a0)
80004f30: 6510         	ld	a2, 0x8(a0)
80004f32: 852e         	mv	a0, a1
80004f34: 85b6         	mv	a1, a3
80004f36: 00001317     	auipc	t1, 0x1
80004f3a: 9e630067     	jr	-0x61a(t1) <core::fmt::Formatter::pad::h239e525174ab4a17>

0000000080004f3e <core::fmt::num::imp::_$LT$impl$u20$u32$GT$::_fmt_inner::h2c8ef1aec4279901>:
80004f3e: 7139         	addi	sp, sp, -0x40
80004f40: fc06         	sd	ra, 0x38(sp)
80004f42: f822         	sd	s0, 0x30(sp)
80004f44: f426         	sd	s1, 0x28(sp)
80004f46: f04a         	sd	s2, 0x20(sp)
80004f48: ec4e         	sd	s3, 0x18(sp)
80004f4a: e852         	sd	s4, 0x10(sp)
80004f4c: e456         	sd	s5, 0x8(sp)
80004f4e: 0080         	addi	s0, sp, 0x40
80004f50: 3e800693     	li	a3, 0x3e8
80004f54: 882a         	mv	a6, a0
80004f56: 8732         	mv	a4, a2
80004f58: 0cd56163     	bltu	a0, a3, 0x8000501a <.Lpcrel_hi74+0xac>
80004f5c: 4f01         	li	t5, 0x0
80004f5e: ffe58f93     	addi	t6, a1, -0x2
80004f62: d1b71837     	lui	a6, 0xd1b71
80004f66: 6709         	lui	a4, 0x2
80004f68: 6785         	lui	a5, 0x1
80004f6a: 06400893     	li	a7, 0x64

0000000080004f6e <.Lpcrel_hi74>:
80004f6e: 00003497     	auipc	s1, 0x3
80004f72: 009896b7     	lui	a3, 0x989
80004f76: 75980e13     	addi	t3, a6, 0x759
80004f7a: 71070293     	addi	t0, a4, 0x710
80004f7e: 47b78313     	addi	t1, a5, 0x47b
80004f82: 08a48393     	addi	t2, s1, 0x8a
80004f86: 1e02         	slli	t3, t3, 0x20
80004f88: 67f68e93     	addi	t4, a3, 0x67f
80004f8c: 882a         	mv	a6, a0
80004f8e: 01e60a33     	add	s4, a2, t5
80004f92: ffca0693     	addi	a3, s4, -0x4
80004f96: 14c6fe63     	bgeu	a3, a2, 0x800050f2 <.Lpcrel_hi80>
80004f9a: 8942         	mv	s2, a6
80004f9c: 02081693     	slli	a3, a6, 0x20
80004fa0: 03c6b6b3     	mulhu	a3, a3, t3
80004fa4: 02d6d813     	srli	a6, a3, 0x2d
80004fa8: 025806b3     	mul	a3, a6, t0
80004fac: 40d909bb     	subw	s3, s2, a3
80004fb0: 03099693     	slli	a3, s3, 0x30
80004fb4: 92c9         	srli	a3, a3, 0x32
80004fb6: 026687b3     	mul	a5, a3, t1
80004fba: 83c5         	srli	a5, a5, 0x11
80004fbc: 00179713     	slli	a4, a5, 0x1
80004fc0: 971e         	add	a4, a4, t2
80004fc2: 00074a83     	lbu	s5, 0x0(a4)
80004fc6: 00cf84b3     	add	s1, t6, a2
80004fca: ffda0693     	addi	a3, s4, -0x3
80004fce: ff548f23     	sb	s5, -0x2(s1)
80004fd2: 10c6f563     	bgeu	a3, a2, 0x800050dc <.Lpcrel_hi81>
80004fd6: 00174703     	lbu	a4, 0x1(a4)
80004fda: ffea0693     	addi	a3, s4, -0x2
80004fde: fee48fa3     	sb	a4, -0x1(s1)
80004fe2: 0ec6f263     	bgeu	a3, a2, 0x800050c6 <.Lpcrel_hi82>
80004fe6: 031786b3     	mul	a3, a5, a7
80004fea: 40d986b3     	sub	a3, s3, a3
80004fee: 16c6         	slli	a3, a3, 0x31
80004ff0: 92c1         	srli	a3, a3, 0x30
80004ff2: 00d38733     	add	a4, t2, a3
80004ff6: 00074783     	lbu	a5, 0x0(a4)
80004ffa: fffa0693     	addi	a3, s4, -0x1
80004ffe: 00f48023     	sb	a5, 0x0(s1)
80005002: 0ac6f763     	bgeu	a3, a2, 0x800050b0 <.Lpcrel_hi83>
80005006: 00174683     	lbu	a3, 0x1(a4)
8000500a: 1f71         	addi	t5, t5, -0x4
8000500c: 00d480a3     	sb	a3, 0x1(s1)
80005010: 1ff1         	addi	t6, t6, -0x4
80005012: f72eeee3     	bltu	t4, s2, 0x80004f8e <.Lpcrel_hi74+0x20>
80005016: 01e60733     	add	a4, a2, t5
8000501a: 46a5         	li	a3, 0x9
8000501c: 0506fd63     	bgeu	a3, a6, 0x80005076 <.Lpcrel_hi75+0x3a>
80005020: ffe70693     	addi	a3, a4, -0x2
80005024: 0ec6f263     	bgeu	a3, a2, 0x80005108 <.Lpcrel_hi76>
80005028: 03081793     	slli	a5, a6, 0x30
8000502c: 6485         	lui	s1, 0x1
8000502e: 06400893     	li	a7, 0x64
80005032: 93c9         	srli	a5, a5, 0x32
80005034: 47b48493     	addi	s1, s1, 0x47b
80005038: 029787b3     	mul	a5, a5, s1

000000008000503c <.Lpcrel_hi75>:
8000503c: 00003297     	auipc	t0, 0x3
80005040: 83c5         	srli	a5, a5, 0x11
80005042: 031784b3     	mul	s1, a5, a7
80005046: 409804bb     	subw	s1, a6, s1
8000504a: 14c6         	slli	s1, s1, 0x31
8000504c: 0304d813     	srli	a6, s1, 0x30
80005050: fbc28493     	addi	s1, t0, -0x44
80005054: 94c2         	add	s1, s1, a6
80005056: 0004c803     	lbu	a6, 0x0(s1)
8000505a: 00d588b3     	add	a7, a1, a3
8000505e: 177d         	addi	a4, a4, -0x1
80005060: 01088023     	sb	a6, 0x0(a7)
80005064: 0ac77d63     	bgeu	a4, a2, 0x8000511e <.Lpcrel_hi77>
80005068: 0014c483     	lbu	s1, 0x1(s1)
8000506c: 972e         	add	a4, a4, a1
8000506e: 00970023     	sb	s1, 0x0(a4)
80005072: e509         	bnez	a0, 0x8000507c <.Lpcrel_hi75+0x40>
80005074: a029         	j	0x8000507e <.Lpcrel_hi75+0x42>
80005076: 87c2         	mv	a5, a6
80005078: 86ba         	mv	a3, a4
8000507a: c111         	beqz	a0, 0x8000507e <.Lpcrel_hi75+0x42>
8000507c: c385         	beqz	a5, 0x8000509c <.Lpcrel_hi79+0x14>
8000507e: 16fd         	addi	a3, a3, -0x1
80005080: 0ac6fa63     	bgeu	a3, a2, 0x80005134 <.Lpcrel_hi78>
80005084: 0017951b     	slliw	a0, a5, 0x1

0000000080005088 <.Lpcrel_hi79>:
80005088: 00003617     	auipc	a2, 0x3
8000508c: f7060613     	addi	a2, a2, -0x90
80005090: 9532         	add	a0, a0, a2
80005092: 00154503     	lbu	a0, 0x1(a0)
80005096: 95b6         	add	a1, a1, a3
80005098: 00a58023     	sb	a0, 0x0(a1)
8000509c: 8536         	mv	a0, a3
8000509e: 70e2         	ld	ra, 0x38(sp)
800050a0: 7442         	ld	s0, 0x30(sp)
800050a2: 74a2         	ld	s1, 0x28(sp)
800050a4: 7902         	ld	s2, 0x20(sp)
800050a6: 69e2         	ld	s3, 0x18(sp)
800050a8: 6a42         	ld	s4, 0x10(sp)
800050aa: 6aa2         	ld	s5, 0x8(sp)
800050ac: 6121         	addi	sp, sp, 0x40
800050ae: 8082         	ret

00000000800050b0 <.Lpcrel_hi83>:
800050b0: 00003517     	auipc	a0, 0x3
800050b4: 01050713     	addi	a4, a0, 0x10
800050b8: 8536         	mv	a0, a3
800050ba: 85b2         	mv	a1, a2
800050bc: 863a         	mv	a2, a4
800050be: 00001097     	auipc	ra, 0x1
800050c2: c4c080e7     	jalr	-0x3b4(ra) <core::panicking::panic_bounds_check::h6aaee0d15e0261eb>

00000000800050c6 <.Lpcrel_hi82>:
800050c6: 00003517     	auipc	a0, 0x3
800050ca: ffa50713     	addi	a4, a0, -0x6
800050ce: 8536         	mv	a0, a3
800050d0: 85b2         	mv	a1, a2
800050d2: 863a         	mv	a2, a4
800050d4: 00001097     	auipc	ra, 0x1
800050d8: c36080e7     	jalr	-0x3ca(ra) <core::panicking::panic_bounds_check::h6aaee0d15e0261eb>

00000000800050dc <.Lpcrel_hi81>:
800050dc: 00003517     	auipc	a0, 0x3
800050e0: fe450713     	addi	a4, a0, -0x1c
800050e4: 8536         	mv	a0, a3
800050e6: 85b2         	mv	a1, a2
800050e8: 863a         	mv	a2, a4
800050ea: 00001097     	auipc	ra, 0x1
800050ee: c20080e7     	jalr	-0x3e0(ra) <core::panicking::panic_bounds_check::h6aaee0d15e0261eb>

00000000800050f2 <.Lpcrel_hi80>:
800050f2: 00003517     	auipc	a0, 0x3
800050f6: fce50713     	addi	a4, a0, -0x32
800050fa: 8536         	mv	a0, a3
800050fc: 85b2         	mv	a1, a2
800050fe: 863a         	mv	a2, a4
80005100: 00001097     	auipc	ra, 0x1
80005104: c0a080e7     	jalr	-0x3f6(ra) <core::panicking::panic_bounds_check::h6aaee0d15e0261eb>

0000000080005108 <.Lpcrel_hi76>:
80005108: 00003517     	auipc	a0, 0x3
8000510c: fb850713     	addi	a4, a0, -0x48
80005110: 8536         	mv	a0, a3
80005112: 85b2         	mv	a1, a2
80005114: 863a         	mv	a2, a4
80005116: 00001097     	auipc	ra, 0x1
8000511a: bf4080e7     	jalr	-0x40c(ra) <core::panicking::panic_bounds_check::h6aaee0d15e0261eb>

000000008000511e <.Lpcrel_hi77>:
8000511e: 00003517     	auipc	a0, 0x3
80005122: fa250693     	addi	a3, a0, -0x5e
80005126: 853a         	mv	a0, a4
80005128: 85b2         	mv	a1, a2
8000512a: 8636         	mv	a2, a3
8000512c: 00001097     	auipc	ra, 0x1
80005130: bde080e7     	jalr	-0x422(ra) <core::panicking::panic_bounds_check::h6aaee0d15e0261eb>

0000000080005134 <.Lpcrel_hi78>:
80005134: 00003517     	auipc	a0, 0x3
80005138: f8c50713     	addi	a4, a0, -0x74
8000513c: 8536         	mv	a0, a3
8000513e: 85b2         	mv	a1, a2
80005140: 863a         	mv	a2, a4
80005142: 00001097     	auipc	ra, 0x1
80005146: bc8080e7     	jalr	-0x438(ra) <core::panicking::panic_bounds_check::h6aaee0d15e0261eb>

000000008000514a <core::fmt::num::imp::_$LT$impl$u20$u64$GT$::_fmt_inner::habf36a285bd59e0b>:
8000514a: 7139         	addi	sp, sp, -0x40
8000514c: fc06         	sd	ra, 0x38(sp)
8000514e: f822         	sd	s0, 0x30(sp)
80005150: f426         	sd	s1, 0x28(sp)
80005152: f04a         	sd	s2, 0x20(sp)
80005154: ec4e         	sd	s3, 0x18(sp)
80005156: e852         	sd	s4, 0x10(sp)
80005158: e456         	sd	s5, 0x8(sp)
8000515a: 0080         	addi	s0, sp, 0x40
8000515c: 3e800693     	li	a3, 0x3e8
80005160: 882a         	mv	a6, a0
80005162: 8732         	mv	a4, a2
80005164: 0ad56e63     	bltu	a0, a3, 0x80005220 <.Lpcrel_hi85+0x9a>
80005168: 4f01         	li	t5, 0x0
8000516a: ffe58f93     	addi	t6, a1, -0x2

000000008000516e <.Lpcrel_hi84>:
8000516e: 00002697     	auipc	a3, 0x2
80005172: 6709         	lui	a4, 0x2
80005174: 6785         	lui	a5, 0x1
80005176: 06400893     	li	a7, 0x64
8000517a: d8a6b283     	ld	t0, -0x276(a3)
8000517e: 71070313     	addi	t1, a4, 0x710
80005182: 47b78393     	addi	t2, a5, 0x47b

0000000080005186 <.Lpcrel_hi85>:
80005186: 00003697     	auipc	a3, 0x3
8000518a: e7268e13     	addi	t3, a3, -0x18e
8000518e: 009896b7     	lui	a3, 0x989
80005192: 67f68e93     	addi	t4, a3, 0x67f
80005196: 882a         	mv	a6, a0
80005198: 01e60a33     	add	s4, a2, t5
8000519c: ffca0693     	addi	a3, s4, -0x4
800051a0: 14c6fb63     	bgeu	a3, a2, 0x800052f6 <.Lpcrel_hi91>
800051a4: 8942         	mv	s2, a6
800051a6: 025836b3     	mulhu	a3, a6, t0
800051aa: 00b6d813     	srli	a6, a3, 0xb
800051ae: 026806b3     	mul	a3, a6, t1
800051b2: 40d909b3     	sub	s3, s2, a3
800051b6: 03099693     	slli	a3, s3, 0x30
800051ba: 92c9         	srli	a3, a3, 0x32
800051bc: 027687b3     	mul	a5, a3, t2
800051c0: 83c5         	srli	a5, a5, 0x11
800051c2: 00179713     	slli	a4, a5, 0x1
800051c6: 9772         	add	a4, a4, t3
800051c8: 00074a83     	lbu	s5, 0x0(a4)
800051cc: 00cf84b3     	add	s1, t6, a2
800051d0: ffda0693     	addi	a3, s4, -0x3
800051d4: ff548f23     	sb	s5, -0x2(s1)
800051d8: 10c6f463     	bgeu	a3, a2, 0x800052e0 <.Lpcrel_hi92>
800051dc: 00174703     	lbu	a4, 0x1(a4)
800051e0: ffea0693     	addi	a3, s4, -0x2
800051e4: fee48fa3     	sb	a4, -0x1(s1)
800051e8: 0ec6f163     	bgeu	a3, a2, 0x800052ca <.Lpcrel_hi93>
800051ec: 031786b3     	mul	a3, a5, a7
800051f0: 40d986b3     	sub	a3, s3, a3
800051f4: 16c6         	slli	a3, a3, 0x31
800051f6: 92c1         	srli	a3, a3, 0x30
800051f8: 00de0733     	add	a4, t3, a3
800051fc: 00074783     	lbu	a5, 0x0(a4)
80005200: fffa0693     	addi	a3, s4, -0x1
80005204: 00f48023     	sb	a5, 0x0(s1)
80005208: 0ac6f663     	bgeu	a3, a2, 0x800052b4 <.Lpcrel_hi94>
8000520c: 00174683     	lbu	a3, 0x1(a4)
80005210: 1f71         	addi	t5, t5, -0x4
80005212: 00d480a3     	sb	a3, 0x1(s1)
80005216: 1ff1         	addi	t6, t6, -0x4
80005218: f92ee0e3     	bltu	t4, s2, 0x80005198 <.Lpcrel_hi85+0x12>
8000521c: 01e60733     	add	a4, a2, t5
80005220: 46a5         	li	a3, 0x9
80005222: 0506fd63     	bgeu	a3, a6, 0x8000527c <.Lpcrel_hi86+0x3a>
80005226: ffe70693     	addi	a3, a4, -0x2
8000522a: 0ec6f163     	bgeu	a3, a2, 0x8000530c <.Lpcrel_hi87>
8000522e: 03081793     	slli	a5, a6, 0x30
80005232: 6485         	lui	s1, 0x1
80005234: 06400893     	li	a7, 0x64
80005238: 93c9         	srli	a5, a5, 0x32
8000523a: 47b48493     	addi	s1, s1, 0x47b
8000523e: 029787b3     	mul	a5, a5, s1

0000000080005242 <.Lpcrel_hi86>:
80005242: 00003297     	auipc	t0, 0x3
80005246: 83c5         	srli	a5, a5, 0x11
80005248: 031784b3     	mul	s1, a5, a7
8000524c: 409804bb     	subw	s1, a6, s1
80005250: 14c6         	slli	s1, s1, 0x31
80005252: 0304d813     	srli	a6, s1, 0x30
80005256: db628493     	addi	s1, t0, -0x24a
8000525a: 94c2         	add	s1, s1, a6
8000525c: 0004c803     	lbu	a6, 0x0(s1)
80005260: 00d588b3     	add	a7, a1, a3
80005264: 177d         	addi	a4, a4, -0x1
80005266: 01088023     	sb	a6, 0x0(a7)
8000526a: 0ac77c63     	bgeu	a4, a2, 0x80005322 <.Lpcrel_hi88>
8000526e: 0014c483     	lbu	s1, 0x1(s1)
80005272: 972e         	add	a4, a4, a1
80005274: 00970023     	sb	s1, 0x0(a4)
80005278: e509         	bnez	a0, 0x80005282 <.Lpcrel_hi86+0x40>
8000527a: a029         	j	0x80005284 <.Lpcrel_hi86+0x42>
8000527c: 87c2         	mv	a5, a6
8000527e: 86ba         	mv	a3, a4
80005280: c111         	beqz	a0, 0x80005284 <.Lpcrel_hi86+0x42>
80005282: cf99         	beqz	a5, 0x800052a0 <.Lpcrel_hi90+0x14>
80005284: 16fd         	addi	a3, a3, -0x1
80005286: 0ac6f963     	bgeu	a3, a2, 0x80005338 <.Lpcrel_hi89>
8000528a: 0786         	slli	a5, a5, 0x1

000000008000528c <.Lpcrel_hi90>:
8000528c: 00003517     	auipc	a0, 0x3
80005290: d6c50513     	addi	a0, a0, -0x294
80005294: 953e         	add	a0, a0, a5
80005296: 00154503     	lbu	a0, 0x1(a0)
8000529a: 95b6         	add	a1, a1, a3
8000529c: 00a58023     	sb	a0, 0x0(a1)
800052a0: 8536         	mv	a0, a3
800052a2: 70e2         	ld	ra, 0x38(sp)
800052a4: 7442         	ld	s0, 0x30(sp)
800052a6: 74a2         	ld	s1, 0x28(sp)
800052a8: 7902         	ld	s2, 0x20(sp)
800052aa: 69e2         	ld	s3, 0x18(sp)
800052ac: 6a42         	ld	s4, 0x10(sp)
800052ae: 6aa2         	ld	s5, 0x8(sp)
800052b0: 6121         	addi	sp, sp, 0x40
800052b2: 8082         	ret

00000000800052b4 <.Lpcrel_hi94>:
800052b4: 00003517     	auipc	a0, 0x3
800052b8: e0c50713     	addi	a4, a0, -0x1f4
800052bc: 8536         	mv	a0, a3
800052be: 85b2         	mv	a1, a2
800052c0: 863a         	mv	a2, a4
800052c2: 00001097     	auipc	ra, 0x1
800052c6: a48080e7     	jalr	-0x5b8(ra) <core::panicking::panic_bounds_check::h6aaee0d15e0261eb>

00000000800052ca <.Lpcrel_hi93>:
800052ca: 00003517     	auipc	a0, 0x3
800052ce: df650713     	addi	a4, a0, -0x20a
800052d2: 8536         	mv	a0, a3
800052d4: 85b2         	mv	a1, a2
800052d6: 863a         	mv	a2, a4
800052d8: 00001097     	auipc	ra, 0x1
800052dc: a32080e7     	jalr	-0x5ce(ra) <core::panicking::panic_bounds_check::h6aaee0d15e0261eb>

00000000800052e0 <.Lpcrel_hi92>:
800052e0: 00003517     	auipc	a0, 0x3
800052e4: de050713     	addi	a4, a0, -0x220
800052e8: 8536         	mv	a0, a3
800052ea: 85b2         	mv	a1, a2
800052ec: 863a         	mv	a2, a4
800052ee: 00001097     	auipc	ra, 0x1
800052f2: a1c080e7     	jalr	-0x5e4(ra) <core::panicking::panic_bounds_check::h6aaee0d15e0261eb>

00000000800052f6 <.Lpcrel_hi91>:
800052f6: 00003517     	auipc	a0, 0x3
800052fa: dca50713     	addi	a4, a0, -0x236
800052fe: 8536         	mv	a0, a3
80005300: 85b2         	mv	a1, a2
80005302: 863a         	mv	a2, a4
80005304: 00001097     	auipc	ra, 0x1
80005308: a06080e7     	jalr	-0x5fa(ra) <core::panicking::panic_bounds_check::h6aaee0d15e0261eb>

000000008000530c <.Lpcrel_hi87>:
8000530c: 00003517     	auipc	a0, 0x3
80005310: db450713     	addi	a4, a0, -0x24c
80005314: 8536         	mv	a0, a3
80005316: 85b2         	mv	a1, a2
80005318: 863a         	mv	a2, a4
8000531a: 00001097     	auipc	ra, 0x1
8000531e: 9f0080e7     	jalr	-0x610(ra) <core::panicking::panic_bounds_check::h6aaee0d15e0261eb>

0000000080005322 <.Lpcrel_hi88>:
80005322: 00003517     	auipc	a0, 0x3
80005326: d9e50693     	addi	a3, a0, -0x262
8000532a: 853a         	mv	a0, a4
8000532c: 85b2         	mv	a1, a2
8000532e: 8636         	mv	a2, a3
80005330: 00001097     	auipc	ra, 0x1
80005334: 9da080e7     	jalr	-0x626(ra) <core::panicking::panic_bounds_check::h6aaee0d15e0261eb>

0000000080005338 <.Lpcrel_hi89>:
80005338: 00003517     	auipc	a0, 0x3
8000533c: d8850713     	addi	a4, a0, -0x278
80005340: 8536         	mv	a0, a3
80005342: 85b2         	mv	a1, a2
80005344: 863a         	mv	a2, a4
80005346: 00001097     	auipc	ra, 0x1
8000534a: 9c4080e7     	jalr	-0x63c(ra) <core::panicking::panic_bounds_check::h6aaee0d15e0261eb>

000000008000534e <core::fmt::num::imp::_$LT$impl$u20$core..fmt..Display$u20$for$u20$u32$GT$::fmt::hc19fd54e2a0ceeb1>:
8000534e: 7139         	addi	sp, sp, -0x40
80005350: fc06         	sd	ra, 0x38(sp)
80005352: f822         	sd	s0, 0x30(sp)
80005354: f426         	sd	s1, 0x28(sp)
80005356: f04a         	sd	s2, 0x20(sp)
80005358: ec4e         	sd	s3, 0x18(sp)
8000535a: 0080         	addi	s0, sp, 0x40
8000535c: 4108         	lw	a0, 0x0(a0)
8000535e: 84ae         	mv	s1, a1
80005360: fce40913     	addi	s2, s0, -0x32
80005364: fce40593     	addi	a1, s0, -0x32
80005368: 4629         	li	a2, 0xa
8000536a: 49a9         	li	s3, 0xa
8000536c: 00000097     	auipc	ra, 0x0
80005370: bd2080e7     	jalr	-0x42e(ra) <core::fmt::num::imp::_$LT$impl$u20$u32$GT$::_fmt_inner::h2c8ef1aec4279901>
80005374: 40a987b3     	sub	a5, s3, a0
80005378: 00a90733     	add	a4, s2, a0
8000537c: 4585         	li	a1, 0x1
8000537e: 4605         	li	a2, 0x1
80005380: 8526         	mv	a0, s1
80005382: 4681         	li	a3, 0x0
80005384: 00000097     	auipc	ra, 0x0
80005388: 348080e7     	jalr	0x348(ra) <core::fmt::Formatter::pad_integral::h0745a9fd037e4d44>
8000538c: 70e2         	ld	ra, 0x38(sp)
8000538e: 7442         	ld	s0, 0x30(sp)
80005390: 74a2         	ld	s1, 0x28(sp)
80005392: 7902         	ld	s2, 0x20(sp)
80005394: 69e2         	ld	s3, 0x18(sp)
80005396: 6121         	addi	sp, sp, 0x40
80005398: 8082         	ret

000000008000539a <core::fmt::num::imp::_$LT$impl$u20$core..fmt..Display$u20$for$u20$usize$GT$::fmt::h566085f0242c3154>:
8000539a: 7139         	addi	sp, sp, -0x40
8000539c: fc06         	sd	ra, 0x38(sp)
8000539e: f822         	sd	s0, 0x30(sp)
800053a0: f426         	sd	s1, 0x28(sp)
800053a2: f04a         	sd	s2, 0x20(sp)
800053a4: ec4e         	sd	s3, 0x18(sp)
800053a6: 0080         	addi	s0, sp, 0x40
800053a8: 6108         	ld	a0, 0x0(a0)
800053aa: 84ae         	mv	s1, a1
800053ac: fc440913     	addi	s2, s0, -0x3c
800053b0: fc440593     	addi	a1, s0, -0x3c
800053b4: 4651         	li	a2, 0x14
800053b6: 49d1         	li	s3, 0x14
800053b8: 00000097     	auipc	ra, 0x0
800053bc: d92080e7     	jalr	-0x26e(ra) <core::fmt::num::imp::_$LT$impl$u20$u64$GT$::_fmt_inner::habf36a285bd59e0b>
800053c0: 40a987b3     	sub	a5, s3, a0
800053c4: 00a90733     	add	a4, s2, a0
800053c8: 4585         	li	a1, 0x1
800053ca: 4605         	li	a2, 0x1
800053cc: 8526         	mv	a0, s1
800053ce: 4681         	li	a3, 0x0
800053d0: 00000097     	auipc	ra, 0x0
800053d4: 2fc080e7     	jalr	0x2fc(ra) <core::fmt::Formatter::pad_integral::h0745a9fd037e4d44>
800053d8: 70e2         	ld	ra, 0x38(sp)
800053da: 7442         	ld	s0, 0x30(sp)
800053dc: 74a2         	ld	s1, 0x28(sp)
800053de: 7902         	ld	s2, 0x20(sp)
800053e0: 69e2         	ld	s3, 0x18(sp)
800053e2: 6121         	addi	sp, sp, 0x40
800053e4: 8082         	ret

00000000800053e6 <core::fmt::num::_$LT$impl$u20$core..fmt..LowerHex$u20$for$u20$usize$GT$::fmt::hcb99b156cc230e11>:
800053e6: 1101         	addi	sp, sp, -0x20
800053e8: ec06         	sd	ra, 0x18(sp)
800053ea: e822         	sd	s0, 0x10(sp)
800053ec: 1000         	addi	s0, sp, 0x20
800053ee: 882e         	mv	a6, a1
800053f0: 4781         	li	a5, 0x0
800053f2: 6108         	ld	a0, 0x0(a0)
800053f4: fef40593     	addi	a1, s0, -0x11

00000000800053f8 <.Lpcrel_hi209>:
800053f8: 00002617     	auipc	a2, 0x2
800053fc: a8060613     	addi	a2, a2, -0x580
80005400: 00f57693     	andi	a3, a0, 0xf
80005404: 96b2         	add	a3, a3, a2
80005406: 0006c683     	lbu	a3, 0x0(a3)
8000540a: 8111         	srli	a0, a0, 0x4
8000540c: 0785         	addi	a5, a5, 0x1
8000540e: 00d58023     	sb	a3, 0x0(a1)
80005412: 15fd         	addi	a1, a1, -0x1
80005414: f575         	bnez	a0, 0x80005400 <.Lpcrel_hi209+0x8>
80005416: fe040513     	addi	a0, s0, -0x20
8000541a: 8d1d         	sub	a0, a0, a5
8000541c: 01050713     	addi	a4, a0, 0x10

0000000080005420 <.Lpcrel_hi210>:
80005420: 00003517     	auipc	a0, 0x3
80005424: 4585         	li	a1, 0x1
80005426: cb850613     	addi	a2, a0, -0x348
8000542a: 4689         	li	a3, 0x2
8000542c: 8542         	mv	a0, a6
8000542e: 00000097     	auipc	ra, 0x0
80005432: 29e080e7     	jalr	0x29e(ra) <core::fmt::Formatter::pad_integral::h0745a9fd037e4d44>
80005436: 60e2         	ld	ra, 0x18(sp)
80005438: 6442         	ld	s0, 0x10(sp)
8000543a: 6105         	addi	sp, sp, 0x20
8000543c: 8082         	ret

000000008000543e <core::fmt::num::_$LT$impl$u20$core..fmt..UpperHex$u20$for$u20$u32$GT$::fmt::h07f6b7b2f3968c14>:
8000543e: 1101         	addi	sp, sp, -0x20
80005440: ec06         	sd	ra, 0x18(sp)
80005442: e822         	sd	s0, 0x10(sp)
80005444: 1000         	addi	s0, sp, 0x20
80005446: 882e         	mv	a6, a1
80005448: 4781         	li	a5, 0x0
8000544a: 4110         	lw	a2, 0x0(a0)
8000544c: fef40513     	addi	a0, s0, -0x11

0000000080005450 <.Lpcrel_hi219>:
80005450: 00002597     	auipc	a1, 0x2
80005454: a0858593     	addi	a1, a1, -0x5f8
80005458: 00f67693     	andi	a3, a2, 0xf
8000545c: 96ae         	add	a3, a3, a1
8000545e: 0006c683     	lbu	a3, 0x0(a3)
80005462: 0046571b     	srliw	a4, a2, 0x4
80005466: 0785         	addi	a5, a5, 0x1
80005468: 00d50023     	sb	a3, 0x0(a0)
8000546c: 157d         	addi	a0, a0, -0x1
8000546e: 863a         	mv	a2, a4
80005470: f765         	bnez	a4, 0x80005458 <.Lpcrel_hi219+0x8>
80005472: fe840513     	addi	a0, s0, -0x18
80005476: 8d1d         	sub	a0, a0, a5
80005478: 00850713     	addi	a4, a0, 0x8

000000008000547c <.Lpcrel_hi220>:
8000547c: 00003517     	auipc	a0, 0x3
80005480: 4585         	li	a1, 0x1
80005482: c5c50613     	addi	a2, a0, -0x3a4
80005486: 4689         	li	a3, 0x2
80005488: 8542         	mv	a0, a6
8000548a: 00000097     	auipc	ra, 0x0
8000548e: 242080e7     	jalr	0x242(ra) <core::fmt::Formatter::pad_integral::h0745a9fd037e4d44>
80005492: 60e2         	ld	ra, 0x18(sp)
80005494: 6442         	ld	s0, 0x10(sp)
80005496: 6105         	addi	sp, sp, 0x20
80005498: 8082         	ret

000000008000549a <core::fmt::write::hfd17e9e8e823b619>:
8000549a: 7119         	addi	sp, sp, -0x80
8000549c: fc86         	sd	ra, 0x78(sp)
8000549e: f8a2         	sd	s0, 0x70(sp)
800054a0: f4a6         	sd	s1, 0x68(sp)
800054a2: f0ca         	sd	s2, 0x60(sp)
800054a4: ecce         	sd	s3, 0x58(sp)
800054a6: e8d2         	sd	s4, 0x50(sp)
800054a8: e4d6         	sd	s5, 0x48(sp)
800054aa: e0da         	sd	s6, 0x40(sp)
800054ac: fc5e         	sd	s7, 0x38(sp)
800054ae: f862         	sd	s8, 0x30(sp)
800054b0: f466         	sd	s9, 0x28(sp)
800054b2: f06a         	sd	s10, 0x20(sp)
800054b4: 0100         	addi	s0, sp, 0x80
800054b6: 89b6         	mv	s3, a3
800054b8: 892e         	mv	s2, a1
800054ba: 0016f593     	andi	a1, a3, 0x1
800054be: 8a2a         	mv	s4, a0
800054c0: 16059063     	bnez	a1, 0x80005620 <core::fmt::write::hfd17e9e8e823b619+0x186>
800054c4: 00064483     	lbu	s1, 0x0(a2)
800054c8: 18048163     	beqz	s1, 0x8000564a <core::fmt::write::hfd17e9e8e823b619+0x1b0>
800054cc: 4c81         	li	s9, 0x0
800054ce: 01893b03     	ld	s6, 0x18(s2)
800054d2: 08000b93     	li	s7, 0x80
800054d6: 0c000c13     	li	s8, 0xc0
800054da: 60000537     	lui	a0, 0x60000
800054de: 02050d13     	addi	s10, a0, 0x20
800054e2: a805         	j	0x80005512 <core::fmt::write::hfd17e9e8e823b619+0x78>
800054e4: 004c9513     	slli	a0, s9, 0x4
800054e8: 00a985b3     	add	a1, s3, a0
800054ec: 6188         	ld	a0, 0x0(a1)
800054ee: 6590         	ld	a2, 0x8(a1)
800054f0: f9443423     	sd	s4, -0x78(s0)
800054f4: f9243823     	sd	s2, -0x70(s0)
800054f8: f9a43c23     	sd	s10, -0x68(s0)
800054fc: f8840593     	addi	a1, s0, -0x78
80005500: 9602         	jalr	a2
80005502: 14051663     	bnez	a0, 0x8000564e <core::fmt::write::hfd17e9e8e823b619+0x1b4>
80005506: 0c85         	addi	s9, s9, 0x1
80005508: 000ac483     	lbu	s1, 0x0(s5)
8000550c: 8656         	mv	a2, s5
8000550e: 12048e63     	beqz	s1, 0x8000564a <core::fmt::write::hfd17e9e8e823b619+0x1b0>
80005512: 03849513     	slli	a0, s1, 0x38
80005516: 00160a93     	addi	s5, a2, 0x1
8000551a: 00054a63     	bltz	a0, 0x8000552e <core::fmt::write::hfd17e9e8e823b619+0x94>
8000551e: 8552         	mv	a0, s4
80005520: 85d6         	mv	a1, s5
80005522: 8626         	mv	a2, s1
80005524: 9b02         	jalr	s6
80005526: 12051463     	bnez	a0, 0x8000564e <core::fmt::write::hfd17e9e8e823b619+0x1b4>
8000552a: 9aa6         	add	s5, s5, s1
8000552c: bff1         	j	0x80005508 <core::fmt::write::hfd17e9e8e823b619+0x6e>
8000552e: 05748b63     	beq	s1, s7, 0x80005584 <core::fmt::write::hfd17e9e8e823b619+0xea>
80005532: fb8489e3     	beq	s1, s8, 0x800054e4 <core::fmt::write::hfd17e9e8e823b619+0x4a>
80005536: 0014f513     	andi	a0, s1, 0x1
8000553a: 85ea         	mv	a1, s10
8000553c: c115         	beqz	a0, 0x80005560 <core::fmt::write::hfd17e9e8e823b619+0xc6>
8000553e: 00264503     	lbu	a0, 0x2(a2)
80005542: 00164583     	lbu	a1, 0x1(a2)
80005546: 00364683     	lbu	a3, 0x3(a2)
8000554a: 00464703     	lbu	a4, 0x4(a2)
8000554e: 0522         	slli	a0, a0, 0x8
80005550: 8d4d         	or	a0, a0, a1
80005552: 06c2         	slli	a3, a3, 0x10
80005554: 0762         	slli	a4, a4, 0x18
80005556: 00d765b3     	or	a1, a4, a3
8000555a: 8dc9         	or	a1, a1, a0
8000555c: 00560a93     	addi	s5, a2, 0x5
80005560: 0024f513     	andi	a0, s1, 0x2
80005564: e121         	bnez	a0, 0x800055a4 <core::fmt::write::hfd17e9e8e823b619+0x10a>
80005566: 4601         	li	a2, 0x0
80005568: 0044f513     	andi	a0, s1, 0x4
8000556c: c531         	beqz	a0, 0x800055b8 <core::fmt::write::hfd17e9e8e823b619+0x11e>
8000556e: 001ac503     	lbu	a0, 0x1(s5)
80005572: 000ac683     	lbu	a3, 0x0(s5)
80005576: 0522         	slli	a0, a0, 0x8
80005578: 8ec9         	or	a3, a3, a0
8000557a: 0a89         	addi	s5, s5, 0x2
8000557c: 0084f513     	andi	a0, s1, 0x8
80005580: e121         	bnez	a0, 0x800055c0 <core::fmt::write::hfd17e9e8e823b619+0x126>
80005582: a0b9         	j	0x800055d0 <core::fmt::write::hfd17e9e8e823b619+0x136>
80005584: 00264503     	lbu	a0, 0x2(a2)
80005588: 00164583     	lbu	a1, 0x1(a2)
8000558c: 0522         	slli	a0, a0, 0x8
8000558e: 00b56ab3     	or	s5, a0, a1
80005592: 00360493     	addi	s1, a2, 0x3
80005596: 8552         	mv	a0, s4
80005598: 85a6         	mv	a1, s1
8000559a: 8656         	mv	a2, s5
8000559c: 9b02         	jalr	s6
8000559e: e945         	bnez	a0, 0x8000564e <core::fmt::write::hfd17e9e8e823b619+0x1b4>
800055a0: 9aa6         	add	s5, s5, s1
800055a2: b79d         	j	0x80005508 <core::fmt::write::hfd17e9e8e823b619+0x6e>
800055a4: 001ac503     	lbu	a0, 0x1(s5)
800055a8: 000ac603     	lbu	a2, 0x0(s5)
800055ac: 0522         	slli	a0, a0, 0x8
800055ae: 8e49         	or	a2, a2, a0
800055b0: 0a89         	addi	s5, s5, 0x2
800055b2: 0044f513     	andi	a0, s1, 0x4
800055b6: fd45         	bnez	a0, 0x8000556e <core::fmt::write::hfd17e9e8e823b619+0xd4>
800055b8: 4681         	li	a3, 0x0
800055ba: 0084f513     	andi	a0, s1, 0x8
800055be: c909         	beqz	a0, 0x800055d0 <core::fmt::write::hfd17e9e8e823b619+0x136>
800055c0: 001ac503     	lbu	a0, 0x1(s5)
800055c4: 000ac703     	lbu	a4, 0x0(s5)
800055c8: 0522         	slli	a0, a0, 0x8
800055ca: 00e56cb3     	or	s9, a0, a4
800055ce: 0a89         	addi	s5, s5, 0x2
800055d0: 0104f513     	andi	a0, s1, 0x10
800055d4: ed15         	bnez	a0, 0x80005610 <core::fmt::write::hfd17e9e8e823b619+0x176>
800055d6: 0204f513     	andi	a0, s1, 0x20
800055da: c509         	beqz	a0, 0x800055e4 <core::fmt::write::hfd17e9e8e823b619+0x14a>
800055dc: 0692         	slli	a3, a3, 0x4
800055de: 96ce         	add	a3, a3, s3
800055e0: 0086d683     	lhu	a3, 0x8(a3)
800055e4: 004c9513     	slli	a0, s9, 0x4
800055e8: 00a98733     	add	a4, s3, a0
800055ec: 6308         	ld	a0, 0x0(a4)
800055ee: 6718         	ld	a4, 0x8(a4)
800055f0: f9443423     	sd	s4, -0x78(s0)
800055f4: f9243823     	sd	s2, -0x70(s0)
800055f8: f8b42c23     	sw	a1, -0x68(s0)
800055fc: f8c41e23     	sh	a2, -0x64(s0)
80005600: f8d41f23     	sh	a3, -0x62(s0)
80005604: f8840593     	addi	a1, s0, -0x78
80005608: 9702         	jalr	a4
8000560a: ee050ee3     	beqz	a0, 0x80005506 <core::fmt::write::hfd17e9e8e823b619+0x6c>
8000560e: a081         	j	0x8000564e <core::fmt::write::hfd17e9e8e823b619+0x1b4>
80005610: 0612         	slli	a2, a2, 0x4
80005612: 964e         	add	a2, a2, s3
80005614: 00865603     	lhu	a2, 0x8(a2)
80005618: 0204f513     	andi	a0, s1, 0x20
8000561c: f161         	bnez	a0, 0x800055dc <core::fmt::write::hfd17e9e8e823b619+0x142>
8000561e: b7d9         	j	0x800055e4 <core::fmt::write::hfd17e9e8e823b619+0x14a>
80005620: 01893783     	ld	a5, 0x18(s2)
80005624: 0019d693     	srli	a3, s3, 0x1
80005628: 8552         	mv	a0, s4
8000562a: 85b2         	mv	a1, a2
8000562c: 8636         	mv	a2, a3
8000562e: 70e6         	ld	ra, 0x78(sp)
80005630: 7446         	ld	s0, 0x70(sp)
80005632: 74a6         	ld	s1, 0x68(sp)
80005634: 7906         	ld	s2, 0x60(sp)
80005636: 69e6         	ld	s3, 0x58(sp)
80005638: 6a46         	ld	s4, 0x50(sp)
8000563a: 6aa6         	ld	s5, 0x48(sp)
8000563c: 6b06         	ld	s6, 0x40(sp)
8000563e: 7be2         	ld	s7, 0x38(sp)
80005640: 7c42         	ld	s8, 0x30(sp)
80005642: 7ca2         	ld	s9, 0x28(sp)
80005644: 7d02         	ld	s10, 0x20(sp)
80005646: 6109         	addi	sp, sp, 0x80
80005648: 8782         	jr	a5
8000564a: 4501         	li	a0, 0x0
8000564c: a011         	j	0x80005650 <core::fmt::write::hfd17e9e8e823b619+0x1b6>
8000564e: 4505         	li	a0, 0x1
80005650: 70e6         	ld	ra, 0x78(sp)
80005652: 7446         	ld	s0, 0x70(sp)
80005654: 74a6         	ld	s1, 0x68(sp)
80005656: 7906         	ld	s2, 0x60(sp)
80005658: 69e6         	ld	s3, 0x58(sp)
8000565a: 6a46         	ld	s4, 0x50(sp)
8000565c: 6aa6         	ld	s5, 0x48(sp)
8000565e: 6b06         	ld	s6, 0x40(sp)
80005660: 7be2         	ld	s7, 0x38(sp)
80005662: 7c42         	ld	s8, 0x30(sp)
80005664: 7ca2         	ld	s9, 0x28(sp)
80005666: 7d02         	ld	s10, 0x20(sp)
80005668: 6109         	addi	sp, sp, 0x80
8000566a: 8082         	ret

000000008000566c <core::fmt::Formatter::pad_integral::write_prefix::hfc34f482b9af976a>:
8000566c: 7179         	addi	sp, sp, -0x30
8000566e: f406         	sd	ra, 0x28(sp)
80005670: f022         	sd	s0, 0x20(sp)
80005672: ec26         	sd	s1, 0x18(sp)
80005674: e84a         	sd	s2, 0x10(sp)
80005676: e44e         	sd	s3, 0x8(sp)
80005678: e052         	sd	s4, 0x0(sp)
8000567a: 1800         	addi	s0, sp, 0x30
8000567c: 893a         	mv	s2, a4
8000567e: 8a36         	mv	s4, a3
80005680: 89ae         	mv	s3, a1
80005682: 001105b7     	lui	a1, 0x110
80005686: 00b60c63     	beq	a2, a1, 0x8000569e <core::fmt::Formatter::pad_integral::write_prefix::hfc34f482b9af976a+0x32>
8000568a: 0209b683     	ld	a3, 0x20(s3)
8000568e: 84aa         	mv	s1, a0
80005690: 85b2         	mv	a1, a2
80005692: 9682         	jalr	a3
80005694: 85aa         	mv	a1, a0
80005696: 8526         	mv	a0, s1
80005698: c199         	beqz	a1, 0x8000569e <core::fmt::Formatter::pad_integral::write_prefix::hfc34f482b9af976a+0x32>
8000569a: 4505         	li	a0, 0x1
8000569c: a005         	j	0x800056bc <core::fmt::Formatter::pad_integral::write_prefix::hfc34f482b9af976a+0x50>
8000569e: 000a0e63     	beqz	s4, 0x800056ba <core::fmt::Formatter::pad_integral::write_prefix::hfc34f482b9af976a+0x4e>
800056a2: 0189b783     	ld	a5, 0x18(s3)
800056a6: 85d2         	mv	a1, s4
800056a8: 864a         	mv	a2, s2
800056aa: 70a2         	ld	ra, 0x28(sp)
800056ac: 7402         	ld	s0, 0x20(sp)
800056ae: 64e2         	ld	s1, 0x18(sp)
800056b0: 6942         	ld	s2, 0x10(sp)
800056b2: 69a2         	ld	s3, 0x8(sp)
800056b4: 6a02         	ld	s4, 0x0(sp)
800056b6: 6145         	addi	sp, sp, 0x30
800056b8: 8782         	jr	a5
800056ba: 4501         	li	a0, 0x0
800056bc: 70a2         	ld	ra, 0x28(sp)
800056be: 7402         	ld	s0, 0x20(sp)
800056c0: 64e2         	ld	s1, 0x18(sp)
800056c2: 6942         	ld	s2, 0x10(sp)
800056c4: 69a2         	ld	s3, 0x8(sp)
800056c6: 6a02         	ld	s4, 0x0(sp)
800056c8: 6145         	addi	sp, sp, 0x30
800056ca: 8082         	ret

00000000800056cc <core::fmt::Formatter::pad_integral::h0745a9fd037e4d44>:
800056cc: 7119         	addi	sp, sp, -0x80
800056ce: fc86         	sd	ra, 0x78(sp)
800056d0: f8a2         	sd	s0, 0x70(sp)
800056d2: f4a6         	sd	s1, 0x68(sp)
800056d4: f0ca         	sd	s2, 0x60(sp)
800056d6: ecce         	sd	s3, 0x58(sp)
800056d8: e8d2         	sd	s4, 0x50(sp)
800056da: e4d6         	sd	s5, 0x48(sp)
800056dc: e0da         	sd	s6, 0x40(sp)
800056de: fc5e         	sd	s7, 0x38(sp)
800056e0: f862         	sd	s8, 0x30(sp)
800056e2: f466         	sd	s9, 0x28(sp)
800056e4: f06a         	sd	s10, 0x20(sp)
800056e6: ec6e         	sd	s11, 0x18(sp)
800056e8: 0100         	addi	s0, sp, 0x80
800056ea: 89be         	mv	s3, a5
800056ec: 8d3a         	mv	s10, a4
800056ee: 8a36         	mv	s4, a3
800056f0: 8ab2         	mv	s5, a2
800056f2: 8baa         	mv	s7, a0
800056f4: cdbd         	beqz	a1, 0x80005772 <core::fmt::Formatter::pad_integral::h0745a9fd037e4d44+0xa6>
800056f6: 010bec03     	lwu	s8, 0x10(s7)
800056fa: 00200537     	lui	a0, 0x200
800056fe: 00ac7533     	and	a0, s8, a0
80005702: 00110b37     	lui	s6, 0x110
80005706: c119         	beqz	a0, 0x8000570c <core::fmt::Formatter::pad_integral::h0745a9fd037e4d44+0x40>
80005708: 02b00b13     	li	s6, 0x2b
8000570c: 8155         	srli	a0, a0, 0x15
8000570e: 00a98cb3     	add	s9, s3, a0
80005712: 028c1513     	slli	a0, s8, 0x28
80005716: 06055863     	bgez	a0, 0x80005786 <core::fmt::Formatter::pad_integral::h0745a9fd037e4d44+0xba>
8000571a: 02000513     	li	a0, 0x20
8000571e: 0aaa7a63     	bgeu	s4, a0, 0x800057d2 <core::fmt::Formatter::pad_integral::h0745a9fd037e4d44+0x106>
80005722: 4501         	li	a0, 0x0
80005724: 000a0f63     	beqz	s4, 0x80005742 <core::fmt::Formatter::pad_integral::h0745a9fd037e4d44+0x76>
80005728: 014a85b3     	add	a1, s5, s4
8000572c: 8656         	mv	a2, s5
8000572e: 00060683     	lb	a3, 0x0(a2)
80005732: 0605         	addi	a2, a2, 0x1
80005734: fc06a693     	slti	a3, a3, -0x40
80005738: 0016c693     	xori	a3, a3, 0x1
8000573c: 9536         	add	a0, a0, a3
8000573e: feb618e3     	bne	a2, a1, 0x8000572e <core::fmt::Formatter::pad_integral::h0745a9fd037e4d44+0x62>
80005742: 9caa         	add	s9, s9, a0
80005744: 014bd903     	lhu	s2, 0x14(s7)
80005748: 052cf463     	bgeu	s9, s2, 0x80005790 <core::fmt::Formatter::pad_integral::h0745a9fd037e4d44+0xc4>
8000574c: 027c1513     	slli	a0, s8, 0x27
80005750: f9a43823     	sd	s10, -0x70(s0)
80005754: 08054b63     	bltz	a0, 0x800057ea <core::fmt::Formatter::pad_integral::h0745a9fd037e4d44+0x11e>
80005758: 41990633     	sub	a2, s2, s9
8000575c: 021c1513     	slli	a0, s8, 0x21
80005760: 9179         	srli	a0, a0, 0x3e
80005762: 4585         	li	a1, 0x1
80005764: 1c2e         	slli	s8, s8, 0x2b
80005766: 0ea5c263     	blt	a1, a0, 0x8000584a <core::fmt::Formatter::pad_integral::h0745a9fd037e4d44+0x17e>
8000576a: 10051563     	bnez	a0, 0x80005874 <core::fmt::Formatter::pad_integral::h0745a9fd037e4d44+0x1a8>
8000576e: 4d81         	li	s11, 0x0
80005770: a219         	j	0x80005876 <core::fmt::Formatter::pad_integral::h0745a9fd037e4d44+0x1aa>
80005772: 010bac03     	lw	s8, 0x10(s7)
80005776: 00198c93     	addi	s9, s3, 0x1
8000577a: 02d00b13     	li	s6, 0x2d
8000577e: 028c1513     	slli	a0, s8, 0x28
80005782: f8054ce3     	bltz	a0, 0x8000571a <core::fmt::Formatter::pad_integral::h0745a9fd037e4d44+0x4e>
80005786: 4a81         	li	s5, 0x0
80005788: 014bd903     	lhu	s2, 0x14(s7)
8000578c: fd2ce0e3     	bltu	s9, s2, 0x8000574c <core::fmt::Formatter::pad_integral::h0745a9fd037e4d44+0x80>
80005790: 000bbc03     	ld	s8, 0x0(s7)
80005794: 008bb483     	ld	s1, 0x8(s7)
80005798: 8562         	mv	a0, s8
8000579a: 85a6         	mv	a1, s1
8000579c: 865a         	mv	a2, s6
8000579e: 86d6         	mv	a3, s5
800057a0: 8752         	mv	a4, s4
800057a2: 00000097     	auipc	ra, 0x0
800057a6: eca080e7     	jalr	-0x136(ra) <core::fmt::Formatter::pad_integral::write_prefix::hfc34f482b9af976a>
800057aa: ed75         	bnez	a0, 0x800058a6 <core::fmt::Formatter::pad_integral::h0745a9fd037e4d44+0x1da>
800057ac: 6c9c         	ld	a5, 0x18(s1)
800057ae: 8562         	mv	a0, s8
800057b0: 85ea         	mv	a1, s10
800057b2: 864e         	mv	a2, s3
800057b4: 70e6         	ld	ra, 0x78(sp)
800057b6: 7446         	ld	s0, 0x70(sp)
800057b8: 74a6         	ld	s1, 0x68(sp)
800057ba: 7906         	ld	s2, 0x60(sp)
800057bc: 69e6         	ld	s3, 0x58(sp)
800057be: 6a46         	ld	s4, 0x50(sp)
800057c0: 6aa6         	ld	s5, 0x48(sp)
800057c2: 6b06         	ld	s6, 0x40(sp)
800057c4: 7be2         	ld	s7, 0x38(sp)
800057c6: 7c42         	ld	s8, 0x30(sp)
800057c8: 7ca2         	ld	s9, 0x28(sp)
800057ca: 7d02         	ld	s10, 0x20(sp)
800057cc: 6de2         	ld	s11, 0x18(sp)
800057ce: 6109         	addi	sp, sp, 0x80
800057d0: 8782         	jr	a5
800057d2: 8556         	mv	a0, s5
800057d4: 85d2         	mv	a1, s4
800057d6: 00000097     	auipc	ra, 0x0
800057da: 30c080e7     	jalr	0x30c(ra) <core::str::count::do_count_chars::h6ce55074ab2fe9d1>
800057de: 9caa         	add	s9, s9, a0
800057e0: 014bd903     	lhu	s2, 0x14(s7)
800057e4: fb2cf6e3     	bgeu	s9, s2, 0x80005790 <core::fmt::Formatter::pad_integral::h0745a9fd037e4d44+0xc4>
800057e8: b795         	j	0x8000574c <core::fmt::Formatter::pad_integral::h0745a9fd037e4d44+0x80>
800057ea: 010bbd03     	ld	s10, 0x10(s7)
800057ee: 000bbc03     	ld	s8, 0x0(s7)
800057f2: 008bbd83     	ld	s11, 0x8(s7)
800057f6: 9fe00537     	lui	a0, 0x9fe00
800057fa: 200005b7     	lui	a1, 0x20000
800057fe: 00ad7533     	and	a0, s10, a0
80005802: 03058593     	addi	a1, a1, 0x30
80005806: 8d4d         	or	a0, a0, a1
80005808: 00aba823     	sw	a0, 0x10(s7)
8000580c: 8562         	mv	a0, s8
8000580e: 85ee         	mv	a1, s11
80005810: 865a         	mv	a2, s6
80005812: 86d6         	mv	a3, s5
80005814: 8752         	mv	a4, s4
80005816: 00000097     	auipc	ra, 0x0
8000581a: e56080e7     	jalr	-0x1aa(ra) <core::fmt::Formatter::pad_integral::write_prefix::hfc34f482b9af976a>
8000581e: 4a05         	li	s4, 0x1
80005820: e541         	bnez	a0, 0x800058a8 <core::fmt::Formatter::pad_integral::h0745a9fd037e4d44+0x1dc>
80005822: 4481         	li	s1, 0x0
80005824: 41990533     	sub	a0, s2, s9
80005828: 6941         	lui	s2, 0x10
8000582a: 197d         	addi	s2, s2, -0x1
8000582c: 01257ab3     	and	s5, a0, s2
80005830: 0124f533     	and	a0, s1, s2
80005834: 03557463     	bgeu	a0, s5, 0x8000585c <core::fmt::Formatter::pad_integral::h0745a9fd037e4d44+0x190>
80005838: 020db603     	ld	a2, 0x20(s11)
8000583c: 0485         	addi	s1, s1, 0x1
8000583e: 03000593     	li	a1, 0x30
80005842: 8562         	mv	a0, s8
80005844: 9602         	jalr	a2
80005846: d56d         	beqz	a0, 0x80005830 <core::fmt::Formatter::pad_integral::h0745a9fd037e4d44+0x164>
80005848: a085         	j	0x800058a8 <core::fmt::Formatter::pad_integral::h0745a9fd037e4d44+0x1dc>
8000584a: 4589         	li	a1, 0x2
8000584c: 8db2         	mv	s11, a2
8000584e: 02b51463     	bne	a0, a1, 0x80005876 <core::fmt::Formatter::pad_integral::h0745a9fd037e4d44+0x1aa>
80005852: 03061513     	slli	a0, a2, 0x30
80005856: 03155d93     	srli	s11, a0, 0x31
8000585a: a831         	j	0x80005876 <core::fmt::Formatter::pad_integral::h0745a9fd037e4d44+0x1aa>
8000585c: 018db683     	ld	a3, 0x18(s11)
80005860: 8562         	mv	a0, s8
80005862: f9043583     	ld	a1, -0x70(s0)
80005866: 864e         	mv	a2, s3
80005868: 9682         	jalr	a3
8000586a: ed1d         	bnez	a0, 0x800058a8 <core::fmt::Formatter::pad_integral::h0745a9fd037e4d44+0x1dc>
8000586c: 4a01         	li	s4, 0x0
8000586e: 01abb823     	sd	s10, 0x10(s7)
80005872: a81d         	j	0x800058a8 <core::fmt::Formatter::pad_integral::h0745a9fd037e4d44+0x1dc>
80005874: 8db2         	mv	s11, a2
80005876: f8c43423     	sd	a2, -0x78(s0)
8000587a: 4d01         	li	s10, 0x0
8000587c: 02bc5c13     	srli	s8, s8, 0x2b
80005880: 000bbc83     	ld	s9, 0x0(s7)
80005884: 008bbb83     	ld	s7, 0x8(s7)
80005888: 64c1         	lui	s1, 0x10
8000588a: 14fd         	addi	s1, s1, -0x1
8000588c: 009df933     	and	s2, s11, s1
80005890: 009d7533     	and	a0, s10, s1
80005894: 03257a63     	bgeu	a0, s2, 0x800058c8 <core::fmt::Formatter::pad_integral::h0745a9fd037e4d44+0x1fc>
80005898: 020bb603     	ld	a2, 0x20(s7)
8000589c: 0d05         	addi	s10, s10, 0x1
8000589e: 8566         	mv	a0, s9
800058a0: 85e2         	mv	a1, s8
800058a2: 9602         	jalr	a2
800058a4: d575         	beqz	a0, 0x80005890 <core::fmt::Formatter::pad_integral::h0745a9fd037e4d44+0x1c4>
800058a6: 4a05         	li	s4, 0x1
800058a8: 8552         	mv	a0, s4
800058aa: 70e6         	ld	ra, 0x78(sp)
800058ac: 7446         	ld	s0, 0x70(sp)
800058ae: 74a6         	ld	s1, 0x68(sp)
800058b0: 7906         	ld	s2, 0x60(sp)
800058b2: 69e6         	ld	s3, 0x58(sp)
800058b4: 6a46         	ld	s4, 0x50(sp)
800058b6: 6aa6         	ld	s5, 0x48(sp)
800058b8: 6b06         	ld	s6, 0x40(sp)
800058ba: 7be2         	ld	s7, 0x38(sp)
800058bc: 7c42         	ld	s8, 0x30(sp)
800058be: 7ca2         	ld	s9, 0x28(sp)
800058c0: 7d02         	ld	s10, 0x20(sp)
800058c2: 6de2         	ld	s11, 0x18(sp)
800058c4: 6109         	addi	sp, sp, 0x80
800058c6: 8082         	ret
800058c8: 8566         	mv	a0, s9
800058ca: 85de         	mv	a1, s7
800058cc: 865a         	mv	a2, s6
800058ce: 86d6         	mv	a3, s5
800058d0: 8752         	mv	a4, s4
800058d2: 00000097     	auipc	ra, 0x0
800058d6: d9a080e7     	jalr	-0x266(ra) <core::fmt::Formatter::pad_integral::write_prefix::hfc34f482b9af976a>
800058da: 4a05         	li	s4, 0x1
800058dc: f571         	bnez	a0, 0x800058a8 <core::fmt::Formatter::pad_integral::h0745a9fd037e4d44+0x1dc>
800058de: 018bb683     	ld	a3, 0x18(s7)
800058e2: 8566         	mv	a0, s9
800058e4: f9043583     	ld	a1, -0x70(s0)
800058e8: 864e         	mv	a2, s3
800058ea: 9682         	jalr	a3
800058ec: fd55         	bnez	a0, 0x800058a8 <core::fmt::Formatter::pad_integral::h0745a9fd037e4d44+0x1dc>
800058ee: 4481         	li	s1, 0x0
800058f0: f8843503     	ld	a0, -0x78(s0)
800058f4: 41b50533     	sub	a0, a0, s11
800058f8: 6941         	lui	s2, 0x10
800058fa: 197d         	addi	s2, s2, -0x1
800058fc: 012579b3     	and	s3, a0, s2
80005900: 0124f533     	and	a0, s1, s2
80005904: 01353a33     	sltu	s4, a0, s3
80005908: fb3570e3     	bgeu	a0, s3, 0x800058a8 <core::fmt::Formatter::pad_integral::h0745a9fd037e4d44+0x1dc>
8000590c: 020bb603     	ld	a2, 0x20(s7)
80005910: 0485         	addi	s1, s1, 0x1
80005912: 8566         	mv	a0, s9
80005914: 85e2         	mv	a1, s8
80005916: 9602         	jalr	a2
80005918: d565         	beqz	a0, 0x80005900 <core::fmt::Formatter::pad_integral::h0745a9fd037e4d44+0x234>
8000591a: b779         	j	0x800058a8 <core::fmt::Formatter::pad_integral::h0745a9fd037e4d44+0x1dc>

000000008000591c <core::fmt::Formatter::pad::h239e525174ab4a17>:
8000591c: 711d         	addi	sp, sp, -0x60
8000591e: ec86         	sd	ra, 0x58(sp)
80005920: e8a2         	sd	s0, 0x50(sp)
80005922: e4a6         	sd	s1, 0x48(sp)
80005924: e0ca         	sd	s2, 0x40(sp)
80005926: fc4e         	sd	s3, 0x38(sp)
80005928: f852         	sd	s4, 0x30(sp)
8000592a: f456         	sd	s5, 0x28(sp)
8000592c: f05a         	sd	s6, 0x20(sp)
8000592e: ec5e         	sd	s7, 0x18(sp)
80005930: e862         	sd	s8, 0x10(sp)
80005932: e466         	sd	s9, 0x8(sp)
80005934: e06a         	sd	s10, 0x0(sp)
80005936: 1080         	addi	s0, sp, 0x60
80005938: 89b2         	mv	s3, a2
8000593a: 01056483     	lwu	s1, 0x10(a0)
8000593e: 18000637     	lui	a2, 0x18000
80005942: 8e65         	and	a2, a2, s1
80005944: 892e         	mv	s2, a1
80005946: ce45         	beqz	a2, 0x800059fe <core::fmt::Formatter::pad::h239e525174ab4a17+0xe2>
80005948: 02349593     	slli	a1, s1, 0x23
8000594c: 0405c863     	bltz	a1, 0x8000599c <core::fmt::Formatter::pad::h239e525174ab4a17+0x80>
80005950: 02000593     	li	a1, 0x20
80005954: 0cb9f863     	bgeu	s3, a1, 0x80005a24 <core::fmt::Formatter::pad::h239e525174ab4a17+0x108>
80005958: 4581         	li	a1, 0x0
8000595a: 00098f63     	beqz	s3, 0x80005978 <core::fmt::Formatter::pad::h239e525174ab4a17+0x5c>
8000595e: 01390633     	add	a2, s2, s3
80005962: 86ca         	mv	a3, s2
80005964: 00068703     	lb	a4, 0x0(a3)
80005968: 0685         	addi	a3, a3, 0x1
8000596a: fc072713     	slti	a4, a4, -0x40
8000596e: 00174713     	xori	a4, a4, 0x1
80005972: 95ba         	add	a1, a1, a4
80005974: fec698e3     	bne	a3, a2, 0x80005964 <core::fmt::Formatter::pad::h239e525174ab4a17+0x48>
80005978: 01455603     	lhu	a2, 0x14(a0)
8000597c: 08c5f163     	bgeu	a1, a2, 0x800059fe <core::fmt::Formatter::pad::h239e525174ab4a17+0xe2>
80005980: 4b81         	li	s7, 0x0
80005982: 40b60b33     	sub	s6, a2, a1
80005986: 02149613     	slli	a2, s1, 0x21
8000598a: 9279         	srli	a2, a2, 0x3e
8000598c: 4685         	li	a3, 0x1
8000598e: 02b49593     	slli	a1, s1, 0x2b
80005992: 0ac6c763     	blt	a3, a2, 0x80005a40 <core::fmt::Formatter::pad::h239e525174ab4a17+0x124>
80005996: ce45         	beqz	a2, 0x80005a4e <core::fmt::Formatter::pad::h239e525174ab4a17+0x132>
80005998: 8bda         	mv	s7, s6
8000599a: a855         	j	0x80005a4e <core::fmt::Formatter::pad::h239e525174ab4a17+0x132>
8000599c: 01655583     	lhu	a1, 0x16(a0)
800059a0: 10058563     	beqz	a1, 0x80005aaa <core::fmt::Formatter::pad::h239e525174ab4a17+0x18e>
800059a4: 013906b3     	add	a3, s2, s3
800059a8: 0e000893     	li	a7, 0xe0
800059ac: 0f000813     	li	a6, 0xf0
800059b0: 87ca         	mv	a5, s2
800059b2: 862e         	mv	a2, a1
800059b4: 4981         	li	s3, 0x0
800059b6: a811         	j	0x800059ca <core::fmt::Formatter::pad::h239e525174ab4a17+0xae>
800059b8: 00178713     	addi	a4, a5, 0x1
800059bc: 413787b3     	sub	a5, a5, s3
800059c0: 167d         	addi	a2, a2, -0x1
800059c2: 40f709b3     	sub	s3, a4, a5
800059c6: 87ba         	mv	a5, a4
800059c8: c615         	beqz	a2, 0x800059f4 <core::fmt::Formatter::pad::h239e525174ab4a17+0xd8>
800059ca: 02d78563     	beq	a5, a3, 0x800059f4 <core::fmt::Formatter::pad::h239e525174ab4a17+0xd8>
800059ce: 00078703     	lb	a4, 0x0(a5)
800059d2: fe0753e3     	bgez	a4, 0x800059b8 <core::fmt::Formatter::pad::h239e525174ab4a17+0x9c>
800059d6: 0ff77713     	zext.b	a4, a4
800059da: 01176763     	bltu	a4, a7, 0x800059e8 <core::fmt::Formatter::pad::h239e525174ab4a17+0xcc>
800059de: 01076863     	bltu	a4, a6, 0x800059ee <core::fmt::Formatter::pad::h239e525174ab4a17+0xd2>
800059e2: 00478713     	addi	a4, a5, 0x4
800059e6: bfd9         	j	0x800059bc <core::fmt::Formatter::pad::h239e525174ab4a17+0xa0>
800059e8: 00278713     	addi	a4, a5, 0x2
800059ec: bfc1         	j	0x800059bc <core::fmt::Formatter::pad::h239e525174ab4a17+0xa0>
800059ee: 00378713     	addi	a4, a5, 0x3
800059f2: b7e9         	j	0x800059bc <core::fmt::Formatter::pad::h239e525174ab4a17+0xa0>
800059f4: 8d91         	sub	a1, a1, a2
800059f6: 01455603     	lhu	a2, 0x14(a0)
800059fa: f8c5e3e3     	bltu	a1, a2, 0x80005980 <core::fmt::Formatter::pad::h239e525174ab4a17+0x64>
800059fe: 650c         	ld	a1, 0x8(a0)
80005a00: 6108         	ld	a0, 0x0(a0)
80005a02: 6d9c         	ld	a5, 0x18(a1)
80005a04: 85ca         	mv	a1, s2
80005a06: 864e         	mv	a2, s3
80005a08: 60e6         	ld	ra, 0x58(sp)
80005a0a: 6446         	ld	s0, 0x50(sp)
80005a0c: 64a6         	ld	s1, 0x48(sp)
80005a0e: 6906         	ld	s2, 0x40(sp)
80005a10: 79e2         	ld	s3, 0x38(sp)
80005a12: 7a42         	ld	s4, 0x30(sp)
80005a14: 7aa2         	ld	s5, 0x28(sp)
80005a16: 7b02         	ld	s6, 0x20(sp)
80005a18: 6be2         	ld	s7, 0x18(sp)
80005a1a: 6c42         	ld	s8, 0x10(sp)
80005a1c: 6ca2         	ld	s9, 0x8(sp)
80005a1e: 6d02         	ld	s10, 0x0(sp)
80005a20: 6125         	addi	sp, sp, 0x60
80005a22: 8782         	jr	a5
80005a24: 8a2a         	mv	s4, a0
80005a26: 854a         	mv	a0, s2
80005a28: 85ce         	mv	a1, s3
80005a2a: 00000097     	auipc	ra, 0x0
80005a2e: 0b8080e7     	jalr	0xb8(ra) <core::str::count::do_count_chars::h6ce55074ab2fe9d1>
80005a32: 85aa         	mv	a1, a0
80005a34: 8552         	mv	a0, s4
80005a36: 014a5603     	lhu	a2, 0x14(s4)
80005a3a: fcc5f2e3     	bgeu	a1, a2, 0x800059fe <core::fmt::Formatter::pad::h239e525174ab4a17+0xe2>
80005a3e: b789         	j	0x80005980 <core::fmt::Formatter::pad::h239e525174ab4a17+0x64>
80005a40: 4689         	li	a3, 0x2
80005a42: 00d61663     	bne	a2, a3, 0x80005a4e <core::fmt::Formatter::pad::h239e525174ab4a17+0x132>
80005a46: 030b1613     	slli	a2, s6, 0x30
80005a4a: 03165b93     	srli	s7, a2, 0x31
80005a4e: 4481         	li	s1, 0x0
80005a50: 02b5da13     	srli	s4, a1, 0x2b
80005a54: 00053a83     	ld	s5, 0x0(a0)
80005a58: 00853c03     	ld	s8, 0x8(a0)
80005a5c: 6cc1         	lui	s9, 0x10
80005a5e: 1cfd         	addi	s9, s9, -0x1
80005a60: 019bfd33     	and	s10, s7, s9
80005a64: 0194f533     	and	a0, s1, s9
80005a68: 01a57a63     	bgeu	a0, s10, 0x80005a7c <core::fmt::Formatter::pad::h239e525174ab4a17+0x160>
80005a6c: 020c3603     	ld	a2, 0x20(s8)
80005a70: 0485         	addi	s1, s1, 0x1
80005a72: 8556         	mv	a0, s5
80005a74: 85d2         	mv	a1, s4
80005a76: 9602         	jalr	a2
80005a78: d575         	beqz	a0, 0x80005a64 <core::fmt::Formatter::pad::h239e525174ab4a17+0x148>
80005a7a: a801         	j	0x80005a8a <core::fmt::Formatter::pad::h239e525174ab4a17+0x16e>
80005a7c: 018c3683     	ld	a3, 0x18(s8)
80005a80: 8556         	mv	a0, s5
80005a82: 85ca         	mv	a1, s2
80005a84: 864e         	mv	a2, s3
80005a86: 9682         	jalr	a3
80005a88: c905         	beqz	a0, 0x80005ab8 <core::fmt::Formatter::pad::h239e525174ab4a17+0x19c>
80005a8a: 4905         	li	s2, 0x1
80005a8c: 854a         	mv	a0, s2
80005a8e: 60e6         	ld	ra, 0x58(sp)
80005a90: 6446         	ld	s0, 0x50(sp)
80005a92: 64a6         	ld	s1, 0x48(sp)
80005a94: 6906         	ld	s2, 0x40(sp)
80005a96: 79e2         	ld	s3, 0x38(sp)
80005a98: 7a42         	ld	s4, 0x30(sp)
80005a9a: 7aa2         	ld	s5, 0x28(sp)
80005a9c: 7b02         	ld	s6, 0x20(sp)
80005a9e: 6be2         	ld	s7, 0x18(sp)
80005aa0: 6c42         	ld	s8, 0x10(sp)
80005aa2: 6ca2         	ld	s9, 0x8(sp)
80005aa4: 6d02         	ld	s10, 0x0(sp)
80005aa6: 6125         	addi	sp, sp, 0x60
80005aa8: 8082         	ret
80005aaa: 4981         	li	s3, 0x0
80005aac: 85ae         	mv	a1, a1
80005aae: 01455603     	lhu	a2, 0x14(a0)
80005ab2: ecc5e7e3     	bltu	a1, a2, 0x80005980 <core::fmt::Formatter::pad::h239e525174ab4a17+0x64>
80005ab6: b7a1         	j	0x800059fe <core::fmt::Formatter::pad::h239e525174ab4a17+0xe2>
80005ab8: 4481         	li	s1, 0x0
80005aba: 417b0533     	sub	a0, s6, s7
80005abe: 69c1         	lui	s3, 0x10
80005ac0: 19fd         	addi	s3, s3, -0x1
80005ac2: 01357b33     	and	s6, a0, s3
80005ac6: 0134f533     	and	a0, s1, s3
80005aca: 01653933     	sltu	s2, a0, s6
80005ace: fb657fe3     	bgeu	a0, s6, 0x80005a8c <core::fmt::Formatter::pad::h239e525174ab4a17+0x170>
80005ad2: 020c3603     	ld	a2, 0x20(s8)
80005ad6: 0485         	addi	s1, s1, 0x1
80005ad8: 8556         	mv	a0, s5
80005ada: 85d2         	mv	a1, s4
80005adc: 9602         	jalr	a2
80005ade: d565         	beqz	a0, 0x80005ac6 <core::fmt::Formatter::pad::h239e525174ab4a17+0x1aa>
80005ae0: b775         	j	0x80005a8c <core::fmt::Formatter::pad::h239e525174ab4a17+0x170>

0000000080005ae2 <core::str::count::do_count_chars::h6ce55074ab2fe9d1>:
80005ae2: 1141         	addi	sp, sp, -0x10
80005ae4: e422         	sd	s0, 0x8(sp)
80005ae6: 862a         	mv	a2, a0
80005ae8: 00750693     	addi	a3, a0, 0x7
80005aec: 9ae1         	andi	a3, a3, -0x8
80005aee: 40a68333     	sub	t1, a3, a0
80005af2: 0265f263     	bgeu	a1, t1, 0x80005b16 <core::str::count::do_count_chars::h6ce55074ab2fe9d1+0x34>
80005af6: 4501         	li	a0, 0x0
80005af8: cd81         	beqz	a1, 0x80005b10 <core::str::count::do_count_chars::h6ce55074ab2fe9d1+0x2e>
80005afa: 95b2         	add	a1, a1, a2
80005afc: 00060683     	lb	a3, 0x0(a2)
80005b00: 0605         	addi	a2, a2, 0x1
80005b02: fc06a693     	slti	a3, a3, -0x40
80005b06: 0016c693     	xori	a3, a3, 0x1
80005b0a: 9536         	add	a0, a0, a3
80005b0c: feb618e3     	bne	a2, a1, 0x80005afc <core::str::count::do_count_chars::h6ce55074ab2fe9d1+0x1a>
80005b10: 6422         	ld	s0, 0x8(sp)
80005b12: 0141         	addi	sp, sp, 0x10
80005b14: 8082         	ret
80005b16: 40658733     	sub	a4, a1, t1
80005b1a: 00375393     	srli	t2, a4, 0x3
80005b1e: fc038ce3     	beqz	t2, 0x80005af6 <core::str::count::do_count_chars::h6ce55074ab2fe9d1+0x14>
80005b22: 9332         	add	t1, t1, a2
80005b24: 00777813     	andi	a6, a4, 0x7
80005b28: 4501         	li	a0, 0x0
80005b2a: 00c68c63     	beq	a3, a2, 0x80005b42 <core::str::count::do_count_chars::h6ce55074ab2fe9d1+0x60>
80005b2e: 00060583     	lb	a1, 0x0(a2)
80005b32: 0605         	addi	a2, a2, 0x1
80005b34: fc05a593     	slti	a1, a1, -0x40
80005b38: 0015c593     	xori	a1, a1, 0x1
80005b3c: 952e         	add	a0, a0, a1
80005b3e: fe6618e3     	bne	a2, t1, 0x80005b2e <core::str::count::do_count_chars::h6ce55074ab2fe9d1+0x4c>
80005b42: 4581         	li	a1, 0x0
80005b44: 02080363     	beqz	a6, 0x80005b6a <core::str::count::do_count_chars::h6ce55074ab2fe9d1+0x88>
80005b48: 96c2         	add	a3, a3, a6
80005b4a: 5645         	li	a2, -0xf
80005b4c: 8205         	srli	a2, a2, 0x1
80005b4e: 8f71         	and	a4, a4, a2
80005b50: 00e30633     	add	a2, t1, a4
80005b54: 96ba         	add	a3, a3, a4
80005b56: 00060703     	lb	a4, 0x0(a2)
80005b5a: 0605         	addi	a2, a2, 0x1
80005b5c: fc072713     	slti	a4, a4, -0x40
80005b60: 00174713     	xori	a4, a4, 0x1
80005b64: 95ba         	add	a1, a1, a4
80005b66: fed618e3     	bne	a2, a3, 0x80005b56 <core::str::count::do_count_chars::h6ce55074ab2fe9d1+0x74>
80005b6a: 01010637     	lui	a2, 0x1010
80005b6e: 00ff06b7     	lui	a3, 0xff0
80005b72: 6741         	lui	a4, 0x10
80005b74: 10160613     	addi	a2, a2, 0x101
80005b78: 0ff68893     	addi	a7, a3, 0xff
80005b7c: 00170813     	addi	a6, a4, 0x1
80005b80: 02061713     	slli	a4, a2, 0x20
80005b84: 00e60f33     	add	t5, a2, a4
80005b88: 02089613     	slli	a2, a7, 0x20
80005b8c: 98b2         	add	a7, a7, a2
80005b8e: 02081613     	slli	a2, a6, 0x20
80005b92: 9832         	add	a6, a6, a2
80005b94: 952e         	add	a0, a0, a1
80005b96: a015         	j	0x80005bba <core::str::count::do_count_chars::h6ce55074ab2fe9d1+0xd8>
80005b98: 9372         	add	t1, t1, t3
80005b9a: 405383b3     	sub	t2, t2, t0
80005b9e: 0032f793     	andi	a5, t0, 0x3
80005ba2: 011ff5b3     	and	a1, t6, a7
80005ba6: 008fd613     	srli	a2, t6, 0x8
80005baa: 01167633     	and	a2, a2, a7
80005bae: 95b2         	add	a1, a1, a2
80005bb0: 030585b3     	mul	a1, a1, a6
80005bb4: 91c1         	srli	a1, a1, 0x30
80005bb6: 952e         	add	a0, a0, a1
80005bb8: efad         	bnez	a5, 0x80005c32 <core::str::count::do_count_chars::h6ce55074ab2fe9d1+0x150>
80005bba: f4038be3     	beqz	t2, 0x80005b10 <core::str::count::do_count_chars::h6ce55074ab2fe9d1+0x2e>
80005bbe: 8e1a         	mv	t3, t1
80005bc0: 0c000593     	li	a1, 0xc0
80005bc4: 829e         	mv	t0, t2
80005bc6: 00b3e463     	bltu	t2, a1, 0x80005bce <core::str::count::do_count_chars::h6ce55074ab2fe9d1+0xec>
80005bca: 0c000293     	li	t0, 0xc0
80005bce: 00329313     	slli	t1, t0, 0x3
80005bd2: 4f81         	li	t6, 0x0
80005bd4: 7e037793     	andi	a5, t1, 0x7e0
80005bd8: d3e1         	beqz	a5, 0x80005b98 <core::str::count::do_count_chars::h6ce55074ab2fe9d1+0xb6>
80005bda: 00fe0eb3     	add	t4, t3, a5
80005bde: 85f2         	mv	a1, t3
80005be0: 6194         	ld	a3, 0x0(a1)
80005be2: 659c         	ld	a5, 0x8(a1)
80005be4: 6998         	ld	a4, 0x10(a1)
80005be6: 6d90         	ld	a2, 0x18(a1)
80005be8: fff6c413     	not	s0, a3
80005bec: 8299         	srli	a3, a3, 0x6
80005bee: 801d         	srli	s0, s0, 0x7
80005bf0: 8ec1         	or	a3, a3, s0
80005bf2: fff7c413     	not	s0, a5
80005bf6: 8399         	srli	a5, a5, 0x6
80005bf8: 801d         	srli	s0, s0, 0x7
80005bfa: 8fc1         	or	a5, a5, s0
80005bfc: fff74413     	not	s0, a4
80005c00: 8319         	srli	a4, a4, 0x6
80005c02: 801d         	srli	s0, s0, 0x7
80005c04: 8f41         	or	a4, a4, s0
80005c06: fff64413     	not	s0, a2
80005c0a: 8219         	srli	a2, a2, 0x6
80005c0c: 801d         	srli	s0, s0, 0x7
80005c0e: 8e41         	or	a2, a2, s0
80005c10: 01e6f6b3     	and	a3, a3, t5
80005c14: 96fe         	add	a3, a3, t6
80005c16: 01e7f7b3     	and	a5, a5, t5
80005c1a: 01e77733     	and	a4, a4, t5
80005c1e: 01e67fb3     	and	t6, a2, t5
80005c22: 973e         	add	a4, a4, a5
80005c24: 96ba         	add	a3, a3, a4
80005c26: 02058593     	addi	a1, a1, 0x20
80005c2a: 9fb6         	add	t6, t6, a3
80005c2c: fbd59ae3     	bne	a1, t4, 0x80005be0 <core::str::count::do_count_chars::h6ce55074ab2fe9d1+0xfe>
80005c30: b7a5         	j	0x80005b98 <core::str::count::do_count_chars::h6ce55074ab2fe9d1+0xb6>
80005c32: 4581         	li	a1, 0x0
80005c34: 0fc2f613     	andi	a2, t0, 0xfc
80005c38: 060e         	slli	a2, a2, 0x3
80005c3a: 00ce06b3     	add	a3, t3, a2
80005c3e: 00379613     	slli	a2, a5, 0x3
80005c42: 6298         	ld	a4, 0x0(a3)
80005c44: 06a1         	addi	a3, a3, 0x8
80005c46: fff74793     	not	a5, a4
80005c4a: 8319         	srli	a4, a4, 0x6
80005c4c: 839d         	srli	a5, a5, 0x7
80005c4e: 8f5d         	or	a4, a4, a5
80005c50: 01e77733     	and	a4, a4, t5
80005c54: 1661         	addi	a2, a2, -0x8
80005c56: 95ba         	add	a1, a1, a4
80005c58: f66d         	bnez	a2, 0x80005c42 <core::str::count::do_count_chars::h6ce55074ab2fe9d1+0x160>
80005c5a: 0115f633     	and	a2, a1, a7
80005c5e: 81a1         	srli	a1, a1, 0x8
80005c60: 0115f5b3     	and	a1, a1, a7
80005c64: 95b2         	add	a1, a1, a2
80005c66: 030585b3     	mul	a1, a1, a6
80005c6a: 91c1         	srli	a1, a1, 0x30
80005c6c: 952e         	add	a0, a0, a1
80005c6e: 6422         	ld	s0, 0x8(sp)
80005c70: 0141         	addi	sp, sp, 0x10
80005c72: 8082         	ret

0000000080005c74 <core::panicking::panic_const::panic_const_div_by_zero::hcfde4c26e8ecfc4b>:
80005c74: 1141         	addi	sp, sp, -0x10
80005c76: e406         	sd	ra, 0x8(sp)
80005c78: e022         	sd	s0, 0x0(sp)
80005c7a: 0800         	addi	s0, sp, 0x10
80005c7c: 862a         	mv	a2, a0

0000000080005c7e <.Lpcrel_hi967>:
80005c7e: 00002517     	auipc	a0, 0x2
80005c82: 4ba50513     	addi	a0, a0, 0x4ba
80005c86: 03300593     	li	a1, 0x33
80005c8a: 00000097     	auipc	ra, 0x0
80005c8e: 14c080e7     	jalr	0x14c(ra) <core::panicking::panic_fmt::h767dc8ac4dd44648>

0000000080005c92 <core::panicking::panic_const::panic_const_add_overflow::h67cba067093910f8>:
80005c92: 1141         	addi	sp, sp, -0x10
80005c94: e406         	sd	ra, 0x8(sp)
80005c96: e022         	sd	s0, 0x0(sp)
80005c98: 0800         	addi	s0, sp, 0x10
80005c9a: 862a         	mv	a2, a0

0000000080005c9c <.Lpcrel_hi970>:
80005c9c: 00002517     	auipc	a0, 0x2
80005ca0: 43e50513     	addi	a0, a0, 0x43e
80005ca4: 03900593     	li	a1, 0x39
80005ca8: 00000097     	auipc	ra, 0x0
80005cac: 12e080e7     	jalr	0x12e(ra) <core::panicking::panic_fmt::h767dc8ac4dd44648>

0000000080005cb0 <core::panicking::panic_const::panic_const_mul_overflow::h67897feae7531d51>:
80005cb0: 1141         	addi	sp, sp, -0x10
80005cb2: e406         	sd	ra, 0x8(sp)
80005cb4: e022         	sd	s0, 0x0(sp)
80005cb6: 0800         	addi	s0, sp, 0x10
80005cb8: 862a         	mv	a2, a0

0000000080005cba <.Lpcrel_hi972>:
80005cba: 00002517     	auipc	a0, 0x2
80005cbe: 43c50513     	addi	a0, a0, 0x43c
80005cc2: 04300593     	li	a1, 0x43
80005cc6: 00000097     	auipc	ra, 0x0
80005cca: 110080e7     	jalr	0x110(ra) <core::panicking::panic_fmt::h767dc8ac4dd44648>

0000000080005cce <core::panicking::panic_const::panic_const_sub_overflow::hccc965ba9198de7c>:
80005cce: 1141         	addi	sp, sp, -0x10
80005cd0: e406         	sd	ra, 0x8(sp)
80005cd2: e022         	sd	s0, 0x0(sp)
80005cd4: 0800         	addi	s0, sp, 0x10
80005cd6: 862a         	mv	a2, a0

0000000080005cd8 <.Lpcrel_hi977>:
80005cd8: 00002517     	auipc	a0, 0x2
80005cdc: 43f50513     	addi	a0, a0, 0x43f
80005ce0: 04300593     	li	a1, 0x43
80005ce4: 00000097     	auipc	ra, 0x0
80005ce8: 0f2080e7     	jalr	0xf2(ra) <core::panicking::panic_fmt::h767dc8ac4dd44648>

0000000080005cec <core::panicking::panic_nounwind::hf19a354d0b2d9097>:
80005cec: 1141         	addi	sp, sp, -0x10
80005cee: e406         	sd	ra, 0x8(sp)
80005cf0: e022         	sd	s0, 0x0(sp)
80005cf2: 0800         	addi	s0, sp, 0x10
80005cf4: 0586         	slli	a1, a1, 0x1
80005cf6: 0585         	addi	a1, a1, 0x1

0000000080005cf8 <.Lpcrel_hi992>:
80005cf8: 00002617     	auipc	a2, 0x2
80005cfc: 46060693     	addi	a3, a2, 0x460
80005d00: 4601         	li	a2, 0x0
80005d02: 00000097     	auipc	ra, 0x0
80005d06: 044080e7     	jalr	0x44(ra) <core::panicking::panic_nounwind_fmt::h2e018e50a8d3bc73>

0000000080005d0a <core::panicking::panic_bounds_check::h6aaee0d15e0261eb>:
80005d0a: 7139         	addi	sp, sp, -0x40
80005d0c: fc06         	sd	ra, 0x38(sp)
80005d0e: f822         	sd	s0, 0x30(sp)
80005d10: 0080         	addi	s0, sp, 0x40
80005d12: f0040713     	addi	a4, s0, -0x100
80005d16: e368         	sd	a0, 0xc0(a4)
80005d18: e76c         	sd	a1, 0xc8(a4)
80005d1a: fc840513     	addi	a0, s0, -0x38

0000000080005d1e <.Lpcrel_hi997>:
80005d1e: fffff597     	auipc	a1, 0xfffff
80005d22: fc040693     	addi	a3, s0, -0x40
80005d26: 67c58593     	addi	a1, a1, 0x67c
80005d2a: eb68         	sd	a0, 0xd0(a4)
80005d2c: ef6c         	sd	a1, 0xd8(a4)
80005d2e: f374         	sd	a3, 0xe0(a4)
80005d30: f76c         	sd	a1, 0xe8(a4)

0000000080005d32 <.Lpcrel_hi998>:
80005d32: 00000517     	auipc	a0, 0x0
80005d36: 5f650513     	addi	a0, a0, 0x5f6
80005d3a: fd040593     	addi	a1, s0, -0x30
80005d3e: 00000097     	auipc	ra, 0x0
80005d42: 098080e7     	jalr	0x98(ra) <core::panicking::panic_fmt::h767dc8ac4dd44648>

0000000080005d46 <core::panicking::panic_nounwind_fmt::h2e018e50a8d3bc73>:
80005d46: 7139         	addi	sp, sp, -0x40
80005d48: fc06         	sd	ra, 0x38(sp)
80005d4a: f822         	sd	s0, 0x30(sp)
80005d4c: 0080         	addi	s0, sp, 0x40
80005d4e: fca43423     	sd	a0, -0x38(s0)
80005d52: fcb43823     	sd	a1, -0x30(s0)
80005d56: fc840513     	addi	a0, s0, -0x38
80005d5a: fca43c23     	sd	a0, -0x28(s0)
80005d5e: fed43023     	sd	a3, -0x20(s0)
80005d62: fe040423     	sb	zero, -0x18(s0)
80005d66: fec404a3     	sb	a2, -0x17(s0)
80005d6a: fd840513     	addi	a0, s0, -0x28
80005d6e: ffffb097     	auipc	ra, 0xffffb
80005d72: 3e2080e7     	jalr	0x3e2(ra) <__user_program_end>

0000000080005d76 <core::panicking::panic_null_pointer_dereference::hbac6411af4f2e916>:
80005d76: 1141         	addi	sp, sp, -0x10
80005d78: e406         	sd	ra, 0x8(sp)
80005d7a: e022         	sd	s0, 0x0(sp)
80005d7c: 0800         	addi	s0, sp, 0x10
80005d7e: 86aa         	mv	a3, a0

0000000080005d80 <.Lpcrel_hi1010>:
80005d80: 00002517     	auipc	a0, 0x2
80005d84: 3f050513     	addi	a0, a0, 0x3f0
80005d88: 04300593     	li	a1, 0x43
80005d8c: 4601         	li	a2, 0x0
80005d8e: 00000097     	auipc	ra, 0x0
80005d92: fb8080e7     	jalr	-0x48(ra) <core::panicking::panic_nounwind_fmt::h2e018e50a8d3bc73>

0000000080005d96 <core::panicking::panic_misaligned_pointer_dereference::hda85f7fb51d959f0>:
80005d96: 7139         	addi	sp, sp, -0x40
80005d98: fc06         	sd	ra, 0x38(sp)
80005d9a: f822         	sd	s0, 0x30(sp)
80005d9c: 0080         	addi	s0, sp, 0x40
80005d9e: 86b2         	mv	a3, a2
80005da0: f0040713     	addi	a4, s0, -0x100
80005da4: e368         	sd	a0, 0xc0(a4)
80005da6: e76c         	sd	a1, 0xc8(a4)
80005da8: fc040513     	addi	a0, s0, -0x40

0000000080005dac <.Lpcrel_hi1013>:
80005dac: fffff597     	auipc	a1, 0xfffff
80005db0: fc840613     	addi	a2, s0, -0x38
80005db4: 63a58593     	addi	a1, a1, 0x63a
80005db8: eb68         	sd	a0, 0xd0(a4)
80005dba: ef6c         	sd	a1, 0xd8(a4)
80005dbc: f370         	sd	a2, 0xe0(a4)
80005dbe: f76c         	sd	a1, 0xe8(a4)

0000000080005dc0 <.Lpcrel_hi1014>:
80005dc0: 00002517     	auipc	a0, 0x2
80005dc4: 3d150513     	addi	a0, a0, 0x3d1
80005dc8: fd040593     	addi	a1, s0, -0x30
80005dcc: 4601         	li	a2, 0x0
80005dce: 00000097     	auipc	ra, 0x0
80005dd2: f78080e7     	jalr	-0x88(ra) <core::panicking::panic_nounwind_fmt::h2e018e50a8d3bc73>

0000000080005dd6 <core::panicking::panic_fmt::h767dc8ac4dd44648>:
80005dd6: 7139         	addi	sp, sp, -0x40
80005dd8: fc06         	sd	ra, 0x38(sp)
80005dda: f822         	sd	s0, 0x30(sp)
80005ddc: 0080         	addi	s0, sp, 0x40
80005dde: fca43423     	sd	a0, -0x38(s0)
80005de2: fcb43823     	sd	a1, -0x30(s0)
80005de6: fc840513     	addi	a0, s0, -0x38
80005dea: 4585         	li	a1, 0x1
80005dec: fca43c23     	sd	a0, -0x28(s0)
80005df0: fec43023     	sd	a2, -0x20(s0)
80005df4: feb41423     	sh	a1, -0x18(s0)
80005df8: fd840513     	addi	a0, s0, -0x28
80005dfc: ffffb097     	auipc	ra, 0xffffb
80005e00: 354080e7     	jalr	0x354(ra) <__user_program_end>

0000000080005e04 <_$LT$core..panic..panic_info..PanicInfo$u20$as$u20$core..fmt..Display$GT$::fmt::hcccb3fed5b673506>:
80005e04: 7119         	addi	sp, sp, -0x80
80005e06: fc86         	sd	ra, 0x78(sp)
80005e08: f8a2         	sd	s0, 0x70(sp)
80005e0a: f4a6         	sd	s1, 0x68(sp)
80005e0c: f0ca         	sd	s2, 0x60(sp)
80005e0e: ecce         	sd	s3, 0x58(sp)
80005e10: e8d2         	sd	s4, 0x50(sp)
80005e12: e4d6         	sd	s5, 0x48(sp)
80005e14: 0100         	addi	s0, sp, 0x80
80005e16: 0085b903     	ld	s2, 0x8(a1)
80005e1a: 6184         	ld	s1, 0x0(a1)
80005e1c: 01893a83     	ld	s5, 0x18(s2)
80005e20: 89aa         	mv	s3, a0

0000000080005e22 <.Lpcrel_hi1258>:
80005e22: 00002517     	auipc	a0, 0x2
80005e26: 3c250593     	addi	a1, a0, 0x3c2
80005e2a: 4631         	li	a2, 0xc
80005e2c: 8526         	mv	a0, s1
80005e2e: 9a82         	jalr	s5
80005e30: 4a05         	li	s4, 0x1
80005e32: e151         	bnez	a0, 0x80005eb6 <.Lpcrel_hi1262+0x26>
80005e34: 0089b503     	ld	a0, 0x8(s3)
80005e38: f8840813     	addi	a6, s0, -0x78

0000000080005e3c <.Lpcrel_hi1259>:
80005e3c: fffff617     	auipc	a2, 0xfffff

0000000080005e40 <.Lpcrel_hi1260>:
80005e40: fffff697     	auipc	a3, 0xfffff
80005e44: 0f260613     	addi	a2, a2, 0xf2
80005e48: 50e68693     	addi	a3, a3, 0x50e
80005e4c: 6118         	ld	a4, 0x0(a0)
80005e4e: 651c         	ld	a5, 0x8(a0)
80005e50: 01050593     	addi	a1, a0, 0x10
80005e54: 0551         	addi	a0, a0, 0x14
80005e56: f9043c23     	sd	a6, -0x68(s0)
80005e5a: fac43023     	sd	a2, -0x60(s0)
80005e5e: fab43423     	sd	a1, -0x58(s0)
80005e62: fad43823     	sd	a3, -0x50(s0)
80005e66: f8e43423     	sd	a4, -0x78(s0)
80005e6a: f8f43823     	sd	a5, -0x70(s0)
80005e6e: faa43c23     	sd	a0, -0x48(s0)
80005e72: fcd43023     	sd	a3, -0x40(s0)

0000000080005e76 <.Lpcrel_hi1261>:
80005e76: 00000517     	auipc	a0, 0x0
80005e7a: 62d50613     	addi	a2, a0, 0x62d
80005e7e: f9840693     	addi	a3, s0, -0x68
80005e82: 8526         	mv	a0, s1
80005e84: 85ca         	mv	a1, s2
80005e86: fffff097     	auipc	ra, 0xfffff
80005e8a: 614080e7     	jalr	0x614(ra) <core::fmt::write::hfd17e9e8e823b619>
80005e8e: e505         	bnez	a0, 0x80005eb6 <.Lpcrel_hi1262+0x26>

0000000080005e90 <.Lpcrel_hi1262>:
80005e90: 00002517     	auipc	a0, 0x2
80005e94: 36050593     	addi	a1, a0, 0x360
80005e98: 4609         	li	a2, 0x2
80005e9a: 8526         	mv	a0, s1
80005e9c: 9a82         	jalr	s5
80005e9e: ed01         	bnez	a0, 0x80005eb6 <.Lpcrel_hi1262+0x26>
80005ea0: 0009b503     	ld	a0, 0x0(s3)
80005ea4: 6110         	ld	a2, 0x0(a0)
80005ea6: 6514         	ld	a3, 0x8(a0)
80005ea8: 8526         	mv	a0, s1
80005eaa: 85ca         	mv	a1, s2
80005eac: fffff097     	auipc	ra, 0xfffff
80005eb0: 5ee080e7     	jalr	0x5ee(ra) <core::fmt::write::hfd17e9e8e823b619>
80005eb4: 8a2a         	mv	s4, a0
80005eb6: 8552         	mv	a0, s4
80005eb8: 70e6         	ld	ra, 0x78(sp)
80005eba: 7446         	ld	s0, 0x70(sp)
80005ebc: 74a6         	ld	s1, 0x68(sp)
80005ebe: 7906         	ld	s2, 0x60(sp)
80005ec0: 69e6         	ld	s3, 0x58(sp)
80005ec2: 6a46         	ld	s4, 0x50(sp)
80005ec4: 6aa6         	ld	s5, 0x48(sp)
80005ec6: 6109         	addi	sp, sp, 0x80
80005ec8: 8082         	ret

0000000080005eca <memset>:
80005eca: 46c1         	li	a3, 0x10
80005ecc: 06d66463     	bltu	a2, a3, 0x80005f34 <memset+0x6a>
80005ed0: 40a006bb     	negw	a3, a0
80005ed4: 0076f813     	andi	a6, a3, 0x7
80005ed8: 01050733     	add	a4, a0, a6
80005edc: 00e57963     	bgeu	a0, a4, 0x80005eee <memset+0x24>
80005ee0: 87c2         	mv	a5, a6
80005ee2: 86aa         	mv	a3, a0
80005ee4: 00b68023     	sb	a1, 0x0(a3)
80005ee8: 17fd         	addi	a5, a5, -0x1
80005eea: 0685         	addi	a3, a3, 0x1
80005eec: ffe5         	bnez	a5, 0x80005ee4 <memset+0x1a>
80005eee: 41060633     	sub	a2, a2, a6
80005ef2: ff867693     	andi	a3, a2, -0x8
80005ef6: 96ba         	add	a3, a3, a4
80005ef8: 02d77363     	bgeu	a4, a3, 0x80005f1e <memset+0x54>
80005efc: 03859813     	slli	a6, a1, 0x38
80005f00: 101017b7     	lui	a5, 0x10101
80005f04: 0792         	slli	a5, a5, 0x4
80005f06: 10078793     	addi	a5, a5, 0x100
80005f0a: 02f83833     	mulhu	a6, a6, a5
80005f0e: 02081793     	slli	a5, a6, 0x20
80005f12: 0107e7b3     	or	a5, a5, a6
80005f16: e31c         	sd	a5, 0x0(a4)
80005f18: 0721         	addi	a4, a4, 0x8
80005f1a: fed76ee3     	bltu	a4, a3, 0x80005f16 <memset+0x4c>
80005f1e: 8a1d         	andi	a2, a2, 0x7
80005f20: 00c68733     	add	a4, a3, a2
80005f24: 00e6f763     	bgeu	a3, a4, 0x80005f32 <memset+0x68>
80005f28: 00b68023     	sb	a1, 0x0(a3)
80005f2c: 167d         	addi	a2, a2, -0x1
80005f2e: 0685         	addi	a3, a3, 0x1
80005f30: fe65         	bnez	a2, 0x80005f28 <memset+0x5e>
80005f32: 8082         	ret
80005f34: 86aa         	mv	a3, a0
80005f36: 00c50733     	add	a4, a0, a2
80005f3a: fee567e3     	bltu	a0, a4, 0x80005f28 <memset+0x5e>
80005f3e: bfd5         	j	0x80005f32 <memset+0x68>

0000000080005f40 <memcpy>:
80005f40: 00000317     	auipc	t1, 0x0
80005f44: 00830067     	jr	0x8(t1) <compiler_builtins::mem::memcpy::hee8635bcefabc13a>

0000000080005f48 <compiler_builtins::mem::memcpy::hee8635bcefabc13a>:
80005f48: 1101         	addi	sp, sp, -0x20
80005f4a: ec22         	sd	s0, 0x18(sp)
80005f4c: e826         	sd	s1, 0x10(sp)
80005f4e: 46c1         	li	a3, 0x10
80005f50: 06d66363     	bltu	a2, a3, 0x80005fb6 <compiler_builtins::mem::memcpy::hee8635bcefabc13a+0x6e>
80005f54: 40a006bb     	negw	a3, a0
80005f58: 0076f813     	andi	a6, a3, 0x7
80005f5c: 01050fb3     	add	t6, a0, a6
80005f60: 01f57d63     	bgeu	a0, t6, 0x80005f7a <compiler_builtins::mem::memcpy::hee8635bcefabc13a+0x32>
80005f64: 8742         	mv	a4, a6
80005f66: 86aa         	mv	a3, a0
80005f68: 87ae         	mv	a5, a1
80005f6a: 0007c883     	lbu	a7, 0x0(a5)
80005f6e: 177d         	addi	a4, a4, -0x1
80005f70: 01168023     	sb	a7, 0x0(a3)
80005f74: 0685         	addi	a3, a3, 0x1
80005f76: 0785         	addi	a5, a5, 0x1
80005f78: fb6d         	bnez	a4, 0x80005f6a <compiler_builtins::mem::memcpy::hee8635bcefabc13a+0x22>
80005f7a: 010584b3     	add	s1, a1, a6
80005f7e: 41060633     	sub	a2, a2, a6
80005f82: ff867713     	andi	a4, a2, -0x8
80005f86: 0074f813     	andi	a6, s1, 0x7
80005f8a: 00ef86b3     	add	a3, t6, a4
80005f8e: 04081563     	bnez	a6, 0x80005fd8 <compiler_builtins::mem::memcpy::hee8635bcefabc13a+0x90>
80005f92: 00dffa63     	bgeu	t6, a3, 0x80005fa6 <compiler_builtins::mem::memcpy::hee8635bcefabc13a+0x5e>
80005f96: 87a6         	mv	a5, s1
80005f98: 638c         	ld	a1, 0x0(a5)
80005f9a: 00bfb023     	sd	a1, 0x0(t6)
80005f9e: 0fa1         	addi	t6, t6, 0x8
80005fa0: 07a1         	addi	a5, a5, 0x8
80005fa2: fedfebe3     	bltu	t6, a3, 0x80005f98 <compiler_builtins::mem::memcpy::hee8635bcefabc13a+0x50>
80005fa6: 00e485b3     	add	a1, s1, a4
80005faa: 8a1d         	andi	a2, a2, 0x7
80005fac: 00c68733     	add	a4, a3, a2
80005fb0: 00e6e863     	bltu	a3, a4, 0x80005fc0 <compiler_builtins::mem::memcpy::hee8635bcefabc13a+0x78>
80005fb4: a831         	j	0x80005fd0 <compiler_builtins::mem::memcpy::hee8635bcefabc13a+0x88>
80005fb6: 86aa         	mv	a3, a0
80005fb8: 00c50733     	add	a4, a0, a2
80005fbc: 00e57a63     	bgeu	a0, a4, 0x80005fd0 <compiler_builtins::mem::memcpy::hee8635bcefabc13a+0x88>
80005fc0: 0005c703     	lbu	a4, 0x0(a1)
80005fc4: 167d         	addi	a2, a2, -0x1
80005fc6: 00e68023     	sb	a4, 0x0(a3)
80005fca: 0685         	addi	a3, a3, 0x1
80005fcc: 0585         	addi	a1, a1, 0x1
80005fce: fa6d         	bnez	a2, 0x80005fc0 <compiler_builtins::mem::memcpy::hee8635bcefabc13a+0x78>
80005fd0: 6462         	ld	s0, 0x18(sp)
80005fd2: 64c2         	ld	s1, 0x10(sp)
80005fd4: 6105         	addi	sp, sp, 0x20
80005fd6: 8082         	ret
80005fd8: 4881         	li	a7, 0x0
80005fda: 47a1         	li	a5, 0x8
80005fdc: e402         	sd	zero, 0x8(sp)
80005fde: 41078333     	sub	t1, a5, a6
80005fe2: 00810293     	addi	t0, sp, 0x8
80005fe6: 00137793     	andi	a5, t1, 0x1
80005fea: 0102e2b3     	or	t0, t0, a6
80005fee: ebb1         	bnez	a5, 0x80006042 <compiler_builtins::mem::memcpy::hee8635bcefabc13a+0xfa>
80005ff0: 00237793     	andi	a5, t1, 0x2
80005ff4: efb9         	bnez	a5, 0x80006052 <compiler_builtins::mem::memcpy::hee8635bcefabc13a+0x10a>
80005ff6: 00437793     	andi	a5, t1, 0x4
80005ffa: eba5         	bnez	a5, 0x8000606a <compiler_builtins::mem::memcpy::hee8635bcefabc13a+0x122>
80005ffc: 63a2         	ld	t2, 0x8(sp)
80005ffe: 00381893     	slli	a7, a6, 0x3
80006002: 008f8793     	addi	a5, t6, 0x8
80006006: 41048f33     	sub	t5, s1, a6
8000600a: 06d7ff63     	bgeu	a5, a3, 0x80006088 <compiler_builtins::mem::memcpy::hee8635bcefabc13a+0x140>
8000600e: 411007bb     	negw	a5, a7
80006012: 0387fe13     	andi	t3, a5, 0x38
80006016: 008f3303     	ld	t1, 0x8(t5)
8000601a: 008f0e93     	addi	t4, t5, 0x8
8000601e: 0113d3b3     	srl	t2, t2, a7
80006022: 008f8293     	addi	t0, t6, 0x8
80006026: 01c317b3     	sll	a5, t1, t3
8000602a: 0077e7b3     	or	a5, a5, t2
8000602e: 010f8413     	addi	s0, t6, 0x10
80006032: 00ffb023     	sd	a5, 0x0(t6)
80006036: 8f96         	mv	t6, t0
80006038: 839a         	mv	t2, t1
8000603a: 8f76         	mv	t5, t4
8000603c: fcd46de3     	bltu	s0, a3, 0x80006016 <compiler_builtins::mem::memcpy::hee8635bcefabc13a+0xce>
80006040: a0b9         	j	0x8000608e <compiler_builtins::mem::memcpy::hee8635bcefabc13a+0x146>
80006042: 0004c783     	lbu	a5, 0x0(s1)
80006046: 00f28023     	sb	a5, 0x0(t0)
8000604a: 4885         	li	a7, 0x1
8000604c: 00237793     	andi	a5, t1, 0x2
80006050: d3dd         	beqz	a5, 0x80005ff6 <compiler_builtins::mem::memcpy::hee8635bcefabc13a+0xae>
80006052: 011487b3     	add	a5, s1, a7
80006056: 00079383     	lh	t2, 0x0(a5)
8000605a: 011287b3     	add	a5, t0, a7
8000605e: 00779023     	sh	t2, 0x0(a5)
80006062: 2889         	addiw	a7, a7, 0x2
80006064: 00437793     	andi	a5, t1, 0x4
80006068: dbd1         	beqz	a5, 0x80005ffc <compiler_builtins::mem::memcpy::hee8635bcefabc13a+0xb4>
8000606a: 011487b3     	add	a5, s1, a7
8000606e: 439c         	lw	a5, 0x0(a5)
80006070: 9896         	add	a7, a7, t0
80006072: 00f8a023     	sw	a5, 0x0(a7)
80006076: 63a2         	ld	t2, 0x8(sp)
80006078: 00381893     	slli	a7, a6, 0x3
8000607c: 008f8793     	addi	a5, t6, 0x8
80006080: 41048f33     	sub	t5, s1, a6
80006084: f8d7e5e3     	bltu	a5, a3, 0x8000600e <compiler_builtins::mem::memcpy::hee8635bcefabc13a+0xc6>
80006088: 8efa         	mv	t4, t5
8000608a: 82fe         	mv	t0, t6
8000608c: 831e         	mv	t1, t2
8000608e: 4781         	li	a5, 0x0
80006090: 008e8393     	addi	t2, t4, 0x8
80006094: 4411         	li	s0, 0x4
80006096: e402         	sd	zero, 0x8(sp)
80006098: 04887363     	bgeu	a6, s0, 0x800060de <compiler_builtins::mem::memcpy::hee8635bcefabc13a+0x196>
8000609c: 0024f593     	andi	a1, s1, 0x2
800060a0: e5b1         	bnez	a1, 0x800060ec <compiler_builtins::mem::memcpy::hee8635bcefabc13a+0x1a4>
800060a2: 0014f593     	andi	a1, s1, 0x1
800060a6: c981         	beqz	a1, 0x800060b6 <compiler_builtins::mem::memcpy::hee8635bcefabc13a+0x16e>
800060a8: 93be         	add	t2, t2, a5
800060aa: 0003c583     	lbu	a1, 0x0(t2)
800060ae: 0020         	addi	s0, sp, 0x8
800060b0: 8fc1         	or	a5, a5, s0
800060b2: 00b78023     	sb	a1, 0x0(a5)
800060b6: 65a2         	ld	a1, 0x8(sp)
800060b8: 011357b3     	srl	a5, t1, a7
800060bc: 4110043b     	negw	s0, a7
800060c0: 03847413     	andi	s0, s0, 0x38
800060c4: 008595b3     	sll	a1, a1, s0
800060c8: 8ddd         	or	a1, a1, a5
800060ca: 00b2b023     	sd	a1, 0x0(t0)
800060ce: 00e485b3     	add	a1, s1, a4
800060d2: 8a1d         	andi	a2, a2, 0x7
800060d4: 00c68733     	add	a4, a3, a2
800060d8: eee6e4e3     	bltu	a3, a4, 0x80005fc0 <compiler_builtins::mem::memcpy::hee8635bcefabc13a+0x78>
800060dc: bdd5         	j	0x80005fd0 <compiler_builtins::mem::memcpy::hee8635bcefabc13a+0x88>
800060de: 0003a783     	lw	a5, 0x0(t2)
800060e2: c43e         	sw	a5, 0x8(sp)
800060e4: 4791         	li	a5, 0x4
800060e6: 0024f593     	andi	a1, s1, 0x2
800060ea: ddc5         	beqz	a1, 0x800060a2 <compiler_builtins::mem::memcpy::hee8635bcefabc13a+0x15a>
800060ec: 00f385b3     	add	a1, t2, a5
800060f0: 00059583     	lh	a1, 0x0(a1)
800060f4: 0020         	addi	s0, sp, 0x8
800060f6: 8c5d         	or	s0, s0, a5
800060f8: 00b41023     	sh	a1, 0x0(s0)
800060fc: 2789         	addiw	a5, a5, 0x2
800060fe: 0014f593     	andi	a1, s1, 0x1
80006102: f1dd         	bnez	a1, 0x800060a8 <compiler_builtins::mem::memcpy::hee8635bcefabc13a+0x160>
80006104: bf4d         	j	0x800060b6 <compiler_builtins::mem::memcpy::hee8635bcefabc13a+0x16e>

0000000080006106 <.Lanon.0a03ccf091d267a530b70face2ee54e2.0>:
80006106: 69 73 5f 6e 6f 6e 6f 76         is_nonov
8000610e: 65 72 6c 61 70 70 69 6e         erlappin
80006116: 67 3a 20 60 73 69 7a 65         g: `size
8000611e: 5f 6f 66 3a 3a 3c 54 3e         _of::<T>
80006126: 28 29 20 2a 20 63 6f 75         () * cou
8000612e: 6e 74 60 20 6f 76 65 72         nt` over
80006136: 66 6c 6f 77 73 20 61 20         flows a 
8000613e: 75 73 69 7a 65 12 5b 6b         usize.[k
80006146: 65 72 6e 65 6c 5d 20 66         ernel] f
8000614e: 61 69 6c 75 72 65 3a 20         ailure: 
80006156: c0 01 0a 00 73 72 63 2f         ....src/
8000615e: 6d 61 69 6e 2e 72 73 00         main.rs.
80006166: 2f 72 75 73 74 63 2f 65         /rustc/e
8000616e: 34 30 38 39 34 37 62 66         408947bf
80006176: 64 32 30 30 61 66 34 32         d200af42
8000617e: 64 62 33 32 32 64 61 66         db322daf
80006186: 30 66 61 64 66 65 37 65         0fadfe7e
8000618e: 32 36 64 33 62 64 31 2f         26d3bd1/
80006196: 6c 69 62 72 61 72 79 2f         library/
8000619e: 63 6f 72 65 2f 73 72 63         core/src
800061a6: 2f 70 74 72 2f 6d 6f 64         /ptr/mod
800061ae: 2e 72 73 00 10 5b 6b 65         .rs..[ke
800061b6: 72 6e 65 6c 5d 20 70 61         rnel] pa
800061be: 6e 69 63 3a 20 c0 01 0a         nic: ...
800061c6: 00 2f 72 75 73 74 63 2f         ./rustc/
800061ce: 65 34 30 38 39 34 37 62         e408947b
800061d6: 66 64 32 30 30 61 66 34         fd200af4
800061de: 32 64 62 33 32 32 64 61         2db322da
800061e6: 66 30 66 61 64 66 65 37         f0fadfe7
800061ee: 65 32 36 64 33 62 64 31         e26d3bd1
800061f6: 2f 6c 69 62 72 61 72 79         /library
800061fe: 2f 63 6f 72 65 2f 73 72         /core/sr
80006206: 63 2f 6f 70 73 2f 69 6e         c/ops/in
8000620e: 64 65 78 5f 72 61 6e 67         dex_rang
80006216: 65 2e 72 73 00 2f 72 75         e.rs./ru
8000621e: 73 74 63 2f 65 34 30 38         stc/e408
80006226: 39 34 37 62 66 64 32 30         947bfd20
8000622e: 30 61 66 34 32 64 62 33         0af42db3
80006236: 32 32 64 61 66 30 66 61         22daf0fa
8000623e: 64 66 65 37 65 32 36 64         dfe7e26d
80006246: 33 62 64 31 2f 6c 69 62         3bd1/lib
8000624e: 72 61 72 79 2f 63 6f 72         rary/cor
80006256: 65 2f 73 72 63 2f 63 68         e/src/ch
8000625e: 61 72 2f 6d 65 74 68 6f         ar/metho
80006266: 64 73 2e 72 73 00 c0 00         ds.rs...
8000626e: 56 5b 6b 65 72 6e 65 6c         V[kernel
80006276: 5d 20 61 63 63 65 70 74         ] accept
8000627e: 61 6e 63 65 20 41 20 77         ance A w
80006286: 72 69 74 65 73 20 58 20         rites X 
8000628e: 61 6e 64 20 42 20 69 6d         and B im
80006296: 6d 65 64 69 61 74 65 6c         mediatel
8000629e: 79 20 72 65 61 64 73 20         y reads 
800062a6: 59 20 66 72 6f 6d 20 74         Y from t
800062ae: 68 65 20 73 61 6d 65 20         he same 
800062b6: 70 68 79 73 69 63 61 6c         physical
800062be: 20 70 61 67 65 3a 20 c0          page: .
800062c6: 01 0a 00 5a 5b 6b 65 72         ...Z[ker
800062ce: 6e 65 6c 5d 20 61 63 63         nel] acc
800062d6: 65 70 74 61 6e 63 65 20         eptance 
800062de: 6b 65 72 6e 65 6c 2d 6f         kernel-o
800062e6: 77 6e 65 64 20 73 68 61         wned sha
800062ee: 72 65 64 20 72 65 67 69         red regi
800062f6: 6f 6e 20 69 73 20 63 72         on is cr
800062fe: 65 61 74 65 64 20 61 6e         eated an
80006306: 64 20 6d 61 70 70 65 64         d mapped
8000630e: 20 69 6e 74 6f 20 62 6f          into bo
80006316: 74 68 20 70 72 6f 63 65         th proce
8000631e: 73 73 65 73 3a 20 c0 01         sses: ..
80006326: 0a 00 20 69 6e 64 65 78         .. index
8000632e: 20 6f 75 74 20 6f 66 20          out of 
80006336: 62 6f 75 6e 64 73 3a 20         bounds: 
8000633e: 74 68 65 20 6c 65 6e 20         the len 
80006346: 69 73 20 c0 12 20 62 75         is .. bu
8000634e: 74 20 74 68 65 20 69 6e         t the in
80006356: 64 65 78 20 69 73 20 c0         dex is .
8000635e: 00 2f 72 75 73 74 63 2f         ./rustc/
80006366: 65 34 30 38 39 34 37 62         e408947b
8000636e: 66 64 32 30 30 61 66 34         fd200af4
80006376: 32 64 62 33 32 32 64 61         2db322da
8000637e: 66 30 66 61 64 66 65 37         f0fadfe7
80006386: 65 32 36 64 33 62 64 31         e26d3bd1
8000638e: 2f 6c 69 62 72 61 72 79         /library
80006396: 2f 63 6f 72 65 2f 73 72         /core/sr
8000639e: 63 2f 66 6d 74 2f 6d 6f         c/fmt/mo
800063a6: 64 2e 72 73 00 73 72 63         d.rs.src
800063ae: 2f 63 6f 6e 73 6f 6c 65         /console
800063b6: 2e 72 73 00 2f 72 75 73         .rs./rus
800063be: 74 63 2f 65 34 30 38 39         tc/e4089
800063c6: 34 37 62 66 64 32 30 30         47bfd200
800063ce: 61 66 34 32 64 62 33 32         af42db32
800063d6: 32 64 61 66 30 66 61 64         2daf0fad
800063de: 66 65 37 65 32 36 64 33         fe7e26d3
800063e6: 62 64 31 2f 6c 69 62 72         bd1/libr
800063ee: 61 72 79 2f 63 6f 72 65         ary/core
800063f6: 2f 73 72 63 2f 69 74 65         /src/ite
800063fe: 72 2f 72 61 6e 67 65 2e         r/range.
80006406: 72 73 00 2f 72 75 73 74         rs./rust
8000640e: 63 2f 65 34 30 38 39 34         c/e40894
80006416: 37 62 66 64 32 30 30 61         7bfd200a
8000641e: 66 34 32 64 62 33 32 32         f42db322
80006426: 64 61 66 30 66 61 64 66         daf0fadf
8000642e: 65 37 65 32 36 64 33 62         e7e26d3b
80006436: 64 31 2f 6c 69 62 72 61         d1/libra
8000643e: 72 79 2f 63 6f 72 65 2f         ry/core/
80006446: 73 72 63 2f 66 6d 74 2f         src/fmt/
8000644e: 6e 75 6d 2e 72 73 00 2f         num.rs./
80006456: 72 75 73 74 63 2f 65 34         rustc/e4
8000645e: 30 38 39 34 37 62 66 64         08947bfd
80006466: 32 30 30 61 66 34 32 64         200af42d
8000646e: 62 33 32 32 64 61 66 30         b322daf0
80006476: 66 61 64 66 65 37 65 32         fadfe7e2
8000647e: 36 64 33 62 64 31 2f 6c         6d3bd1/l
80006486: 69 62 72 61 72 79 2f 63         ibrary/c
8000648e: 6f 72 65 2f 73 72 63 2f         ore/src/
80006496: 75 62 5f 63 68 65 63 6b         ub_check
8000649e: 73 2e 72 73 00 c0 01 3a         s.rs...:
800064a6: c0 01 3a c0 00 2f 72 75         ..:../ru
800064ae: 73 74 63 2f 65 34 30 38         stc/e408
800064b6: 39 34 37 62 66 64 32 30         947bfd20
800064be: 30 61 66 34 32 64 62 33         0af42db3
800064c6: 32 32 64 61 66 30 66 61         22daf0fa
800064ce: 64 66 65 37 65 32 36 64         dfe7e26d
800064d6: 33 62 64 31 2f 6c 69 62         3bd1/lib
800064de: 72 61 72 79 2f 63 6f 72         rary/cor
800064e6: 65 2f 73 72 63 2f 70 74         e/src/pt
800064ee: 72 2f 63 6f 6e 73 74 5f         r/const_
800064f6: 70 74 72 2e 72 73 00 2f         ptr.rs./
800064fe: 72 75 73 74 63 2f 65 34         rustc/e4
80006506: 30 38 39 34 37 62 66 64         08947bfd
8000650e: 32 30 30 61 66 34 32 64         200af42d
80006516: 62 33 32 32 64 61 66 30         b322daf0
8000651e: 66 61 64 66 65 37 65 32         fadfe7e2
80006526: 36 64 33 62 64 31 2f 6c         6d3bd1/l
8000652e: 69 62 72 61 72 79 2f 63         ibrary/c
80006536: 6f 72 65 2f 73 72 63 2f         ore/src/
8000653e: 61 72 72 61 79 2f 69 74         array/it
80006546: 65 72 2f 69 74 65 72 5f         er/iter_
8000654e: 69 6e 6e 65 72 2e 72 73         inner.rs
80006556: 00 2f 72 75 73 74 63 2f         ./rustc/
8000655e: 65 34 30 38 39 34 37 62         e408947b
80006566: 66 64 32 30 30 61 66 34         fd200af4
8000656e: 32 64 62 33 32 32 64 61         2db322da
80006576: 66 30 66 61 64 66 65 37         f0fadfe7
8000657e: 65 32 36 64 33 62 64 31         e26d3bd1
80006586: 2f 6c 69 62 72 61 72 79         /library
8000658e: 2f 63 6f 72 65 2f 73 72         /core/sr
80006596: 63 2f 70 61 6e 69 63 6b         c/panick
8000659e: 69 6e 67 2e 72 73 00 00         ing.rs..
800065a6: 00 00                           ..

00000000800065a8 <.Lanon.5764166d819f01c8a9cdf583ac842503.1>:
800065a8: 55 64 00 80 00 00 00 00         Ud......
800065b0: 4d 00 00 00 00 00 00 00         M.......
800065b8: 94 00 00 00 36 00 00 00         ....6...

00000000800065c0 <.Lanon.5764166d819f01c8a9cdf583ac842503.2>:
800065c0: 75 6e 73 61 66 65 20 70         unsafe p
800065c8: 72 65 63 6f 6e 64 69 74         recondit
800065d0: 69 6f 6e 28 73 29 20 76         ion(s) v
800065d8: 69 6f 6c 61 74 65 64 3a         iolated:
800065e0: 20 73 6c 69 63 65 3a 3a          slice::
800065e8: 66 72 6f 6d 5f 72 61 77         from_raw
800065f0: 5f 70 61 72 74 73 20 72         _parts r
800065f8: 65 71 75 69 72 65 73 20         equires 
80006600: 74 68 65 20 70 6f 69 6e         the poin
80006608: 74 65 72 20 74 6f 20 62         ter to b
80006610: 65 20 61 6c 69 67 6e 65         e aligne
80006618: 64 20 61 6e 64 20 6e 6f         d and no
80006620: 6e 2d 6e 75 6c 6c 2c 20         n-null, 
80006628: 61 6e 64 20 74 68 65 20         and the 
80006630: 74 6f 74 61 6c 20 73 69         total si
80006638: 7a 65 20 6f 66 20 74 68         ze of th
80006640: 65 20 73 6c 69 63 65 20         e slice 
80006648: 6e 6f 74 20 74 6f 20 65         not to e
80006650: 78 63 65 65 64 20 60 69         xceed `i
80006658: 73 69 7a 65 3a 3a 4d 41         size::MA
80006660: 58 60 0a 0a 54 68 69 73         X`..This
80006668: 20 69 6e 64 69 63 61 74          indicat
80006670: 65 73 20 61 20 62 75 67         es a bug
80006678: 20 69 6e 20 74 68 65 20          in the 
80006680: 70 72 6f 67 72 61 6d 2e         program.
80006688: 20 54 68 69 73 20 55 6e          This Un
80006690: 64 65 66 69 6e 65 64 20         defined 
80006698: 42 65 68 61 76 69 6f 72         Behavior
800066a0: 20 63 68 65 63 6b 20 69          check i
800066a8: 73 20 6f 70 74 69 6f 6e         s option
800066b0: 61 6c 2c 20 61 6e 64 20         al, and 
800066b8: 63 61 6e 6e 6f 74 20 62         cannot b
800066c0: 65 20 72 65 6c 69 65 64         e relied
800066c8: 20 6f 6e 20 66 6f 72 20          on for 
800066d0: 73 61 66 65 74 79 2e            safety.

00000000800066d7 <.Lanon.5764166d819f01c8a9cdf583ac842503.3>:
800066d7: 75 6e 73 61 66 65 20 70         unsafe p
800066df: 72 65 63 6f 6e 64 69 74         recondit
800066e7: 69 6f 6e 28 73 29 20 76         ion(s) v
800066ef: 69 6f 6c 61 74 65 64 3a         iolated:
800066f7: 20 73 6c 69 63 65 3a 3a          slice::
800066ff: 66 72 6f 6d 5f 72 61 77         from_raw
80006707: 5f 70 61 72 74 73 5f 6d         _parts_m
8000670f: 75 74 20 72 65 71 75 69         ut requi
80006717: 72 65 73 20 74 68 65 20         res the 
8000671f: 70 6f 69 6e 74 65 72 20         pointer 
80006727: 74 6f 20 62 65 20 61 6c         to be al
8000672f: 69 67 6e 65 64 20 61 6e         igned an
80006737: 64 20 6e 6f 6e 2d 6e 75         d non-nu
8000673f: 6c 6c 2c 20 61 6e 64 20         ll, and 
80006747: 74 68 65 20 74 6f 74 61         the tota
8000674f: 6c 20 73 69 7a 65 20 6f         l size o
80006757: 66 20 74 68 65 20 73 6c         f the sl
8000675f: 69 63 65 20 6e 6f 74 20         ice not 
80006767: 74 6f 20 65 78 63 65 65         to excee
8000676f: 64 20 60 69 73 69 7a 65         d `isize
80006777: 3a 3a 4d 41 58 60 0a 0a         ::MAX`..
8000677f: 54 68 69 73 20 69 6e 64         This ind
80006787: 69 63 61 74 65 73 20 61         icates a
8000678f: 20 62 75 67 20 69 6e 20          bug in 
80006797: 74 68 65 20 70 72 6f 67         the prog
8000679f: 72 61 6d 2e 20 54 68 69         ram. Thi
800067a7: 73 20 55 6e 64 65 66 69         s Undefi
800067af: 6e 65 64 20 42 65 68 61         ned Beha
800067b7: 76 69 6f 72 20 63 68 65         vior che
800067bf: 63 6b 20 69 73 20 6f 70         ck is op
800067c7: 74 69 6f 6e 61 6c 2c 20         tional, 
800067cf: 61 6e 64 20 63 61 6e 6e         and cann
800067d7: 6f 74 20 62 65 20 72 65         ot be re
800067df: 6c 69 65 64 20 6f 6e 20         lied on 
800067e7: 66 6f 72 20 73 61 66 65         for safe
800067ef: 74 79 2e                        ty.

00000000800067f2 <.Lanon.45969608a24c427492c8756fb08dc53d.0>:
800067f2: 69 73 5f 61 6c 69 67 6e         is_align
800067fa: 65 64 5f 74 6f 3a 20 61         ed_to: a
80006802: 6c 69 67 6e 20 69 73 20         lign is 
8000680a: 6e 6f 74 20 61 20 70 6f         not a po
80006812: 77 65 72 2d 6f 66 2d 74         wer-of-t
8000681a: 77 6f 00 00 00 00               wo....

0000000080006820 <.Lanon.45969608a24c427492c8756fb08dc53d.2>:
80006820: ab 64 00 80 00 00 00 00         .d......
80006828: 51 00 00 00 00 00 00 00         Q.......
80006830: 5e 05 00 00 0d 00 00 00         ^.......

0000000080006838 <.Lanon.83c16a5f7f8720f207f4122400cfdfac.1>:
80006838: 1b 62 00 80 00 00 00 00         .b......
80006840: 50 00 00 00 00 00 00 00         P.......
80006848: 62 07 00 00 0e 00 00 00         b.......

0000000080006850 <.Lanon.83c16a5f7f8720f207f4122400cfdfac.2>:
80006850: 1b 62 00 80 00 00 00 00         .b......
80006858: 50 00 00 00 00 00 00 00         P.......
80006860: 55 07 00 00 09 00 00 00         U.......

0000000080006868 <.Lanon.83c16a5f7f8720f207f4122400cfdfac.3>:
80006868: 12 65 6e 63 6f 64 65 5f         .encode_
80006870: 75 74 66 38 3a 20 6e 65         utf8: ne
80006878: 65 64 20 c0 13 20 62 79         ed .. by
80006880: 74 65 73 20 74 6f 20 65         tes to e
80006888: 6e 63 6f 64 65 20 55 2b         ncode U+
80006890: c3 20 00 00 69 04 00 15         . ..i...
80006898: 20 62 75 74 20 62 75 66          but buf
800068a0: 66 65 72 20 68 61 73 20         fer has 
800068a8: 6a 75 73 74 20 c0 00            just ..

00000000800068af <.Lanon.efb27738f0ff9522d1d679f9222b9bcf.0>:
800068af: 75 6e 73 61 66 65 20 70         unsafe p
800068b7: 72 65 63 6f 6e 64 69 74         recondit
800068bf: 69 6f 6e 28 73 29 20 76         ion(s) v
800068c7: 69 6f 6c 61 74 65 64 3a         iolated:
800068cf: 20 73 6c 69 63 65 3a 3a          slice::
800068d7: 67 65 74 5f 75 6e 63 68         get_unch
800068df: 65 63 6b 65 64 20 72 65         ecked re
800068e7: 71 75 69 72 65 73 20 74         quires t
800068ef: 68 61 74 20 74 68 65 20         hat the 
800068f7: 69 6e 64 65 78 20 69 73         index is
800068ff: 20 77 69 74 68 69 6e 20          within 
80006907: 74 68 65 20 73 6c 69 63         the slic
8000690f: 65 0a 0a 54 68 69 73 20         e..This 
80006917: 69 6e 64 69 63 61 74 65         indicate
8000691f: 73 20 61 20 62 75 67 20         s a bug 
80006927: 69 6e 20 74 68 65 20 70         in the p
8000692f: 72 6f 67 72 61 6d 2e 20         rogram. 
80006937: 54 68 69 73 20 55 6e 64         This Und
8000693f: 65 66 69 6e 65 64 20 42         efined B
80006947: 65 68 61 76 69 6f 72 20         ehavior 
8000694f: 63 68 65 63 6b 20 69 73         check is
80006957: 20 6f 70 74 69 6f 6e 61          optiona
8000695f: 6c 2c 20 61 6e 64 20 63         l, and c
80006967: 61 6e 6e 6f 74 20 62 65         annot be
8000696f: 20 72 65 6c 69 65 64 20          relied 
80006977: 6f 6e 20 66 6f 72 20 73         on for s
8000697f: 61 66 65 74 79 2e               afety.

0000000080006985 <.Lanon.4434dced90d73cfa27dce3f1550be32e.0>:
80006985: 75 6e 73 61 66 65 20 70         unsafe p
8000698d: 72 65 63 6f 6e 64 69 74         recondit
80006995: 69 6f 6e 28 73 29 20 76         ion(s) v
8000699d: 69 6f 6c 61 74 65 64 3a         iolated:
800069a5: 20 70 74 72 3a 3a 77 72          ptr::wr
800069ad: 69 74 65 5f 62 79 74 65         ite_byte
800069b5: 73 20 72 65 71 75 69 72         s requir
800069bd: 65 73 20 74 68 61 74 20         es that 
800069c5: 74 68 65 20 64 65 73 74         the dest
800069cd: 69 6e 61 74 69 6f 6e 20         ination 
800069d5: 70 6f 69 6e 74 65 72 20         pointer 
800069dd: 69 73 20 61 6c 69 67 6e         is align
800069e5: 65 64 20 61 6e 64 20 6e         ed and n
800069ed: 6f 6e 2d 6e 75 6c 6c 0a         on-null.
800069f5: 0a 54 68 69 73 20 69 6e         .This in
800069fd: 64 69 63 61 74 65 73 20         dicates 
80006a05: 61 20 62 75 67 20 69 6e         a bug in
80006a0d: 20 74 68 65 20 70 72 6f          the pro
80006a15: 67 72 61 6d 2e 20 54 68         gram. Th
80006a1d: 69 73 20 55 6e 64 65 66         is Undef
80006a25: 69 6e 65 64 20 42 65 68         ined Beh
80006a2d: 61 76 69 6f 72 20 63 68         avior ch
80006a35: 65 63 6b 20 69 73 20 6f         eck is o
80006a3d: 70 74 69 6f 6e 61 6c 2c         ptional,
80006a45: 20 61 6e 64 20 63 61 6e          and can
80006a4d: 6e 6f 74 20 62 65 20 72         not be r
80006a55: 65 6c 69 65 64 20 6f 6e         elied on
80006a5d: 20 66 6f 72 20 73 61 66          for saf
80006a65: 65 74 79 2e                     ety.

0000000080006a69 <.Lanon.4434dced90d73cfa27dce3f1550be32e.1>:
80006a69: 75 6e 73 61 66 65 20 70         unsafe p
80006a71: 72 65 63 6f 6e 64 69 74         recondit
80006a79: 69 6f 6e 28 73 29 20 76         ion(s) v
80006a81: 69 6f 6c 61 74 65 64 3a         iolated:
80006a89: 20 70 74 72 3a 3a 72 65          ptr::re
80006a91: 61 64 5f 76 6f 6c 61 74         ad_volat
80006a99: 69 6c 65 20 72 65 71 75         ile requ
80006aa1: 69 72 65 73 20 74 68 61         ires tha
80006aa9: 74 20 74 68 65 20 70 6f         t the po
80006ab1: 69 6e 74 65 72 20 61 72         inter ar
80006ab9: 67 75 6d 65 6e 74 20 69         gument i
80006ac1: 73 20 61 6c 69 67 6e 65         s aligne
80006ac9: 64 0a 0a 54 68 69 73 20         d..This 
80006ad1: 69 6e 64 69 63 61 74 65         indicate
80006ad9: 73 20 61 20 62 75 67 20         s a bug 
80006ae1: 69 6e 20 74 68 65 20 70         in the p
80006ae9: 72 6f 67 72 61 6d 2e 20         rogram. 
80006af1: 54 68 69 73 20 55 6e 64         This Und
80006af9: 65 66 69 6e 65 64 20 42         efined B
80006b01: 65 68 61 76 69 6f 72 20         ehavior 
80006b09: 63 68 65 63 6b 20 69 73         check is
80006b11: 20 6f 70 74 69 6f 6e 61          optiona
80006b19: 6c 2c 20 61 6e 64 20 63         l, and c
80006b21: 61 6e 6e 6f 74 20 62 65         annot be
80006b29: 20 72 65 6c 69 65 64 20          relied 
80006b31: 6f 6e 20 66 6f 72 20 73         on for s
80006b39: 61 66 65 74 79 2e               afety.

0000000080006b3f <.Lanon.4434dced90d73cfa27dce3f1550be32e.2>:
80006b3f: 75 6e 73 61 66 65 20 70         unsafe p
80006b47: 72 65 63 6f 6e 64 69 74         recondit
80006b4f: 69 6f 6e 28 73 29 20 76         ion(s) v
80006b57: 69 6f 6c 61 74 65 64 3a         iolated:
80006b5f: 20 70 74 72 3a 3a 77 72          ptr::wr
80006b67: 69 74 65 5f 76 6f 6c 61         ite_vola
80006b6f: 74 69 6c 65 20 72 65 71         tile req
80006b77: 75 69 72 65 73 20 74 68         uires th
80006b7f: 61 74 20 74 68 65 20 70         at the p
80006b87: 6f 69 6e 74 65 72 20 61         ointer a
80006b8f: 72 67 75 6d 65 6e 74 20         rgument 
80006b97: 69 73 20 61 6c 69 67 6e         is align
80006b9f: 65 64 0a 0a 54 68 69 73         ed..This
80006ba7: 20 69 6e 64 69 63 61 74          indicat
80006baf: 65 73 20 61 20 62 75 67         es a bug
80006bb7: 20 69 6e 20 74 68 65 20          in the 
80006bbf: 70 72 6f 67 72 61 6d 2e         program.
80006bc7: 20 54 68 69 73 20 55 6e          This Un
80006bcf: 64 65 66 69 6e 65 64 20         defined 
80006bd7: 42 65 68 61 76 69 6f 72         Behavior
80006bdf: 20 63 68 65 63 6b 20 69          check i
80006be7: 73 20 6f 70 74 69 6f 6e         s option
80006bef: 61 6c 2c 20 61 6e 64 20         al, and 
80006bf7: 63 61 6e 6e 6f 74 20 62         cannot b
80006bff: 65 20 72 65 6c 69 65 64         e relied
80006c07: 20 6f 6e 20 66 6f 72 20          on for 
80006c0f: 73 61 66 65 74 79 2e            safety.

0000000080006c16 <.Lanon.4434dced90d73cfa27dce3f1550be32e.3>:
80006c16: 75 6e 73 61 66 65 20 70         unsafe p
80006c1e: 72 65 63 6f 6e 64 69 74         recondit
80006c26: 69 6f 6e 28 73 29 20 76         ion(s) v
80006c2e: 69 6f 6c 61 74 65 64 3a         iolated:
80006c36: 20 70 74 72 3a 3a 63 6f          ptr::co
80006c3e: 70 79 5f 6e 6f 6e 6f 76         py_nonov
80006c46: 65 72 6c 61 70 70 69 6e         erlappin
80006c4e: 67 20 72 65 71 75 69 72         g requir
80006c56: 65 73 20 74 68 61 74 20         es that 
80006c5e: 62 6f 74 68 20 70 6f 69         both poi
80006c66: 6e 74 65 72 20 61 72 67         nter arg
80006c6e: 75 6d 65 6e 74 73 20 61         uments a
80006c76: 72 65 20 61 6c 69 67 6e         re align
80006c7e: 65 64 20 61 6e 64 20 6e         ed and n
80006c86: 6f 6e 2d 6e 75 6c 6c 20         on-null 
80006c8e: 61 6e 64 20 74 68 65 20         and the 
80006c96: 73 70 65 63 69 66 69 65         specifie
80006c9e: 64 20 6d 65 6d 6f 72 79         d memory
80006ca6: 20 72 61 6e 67 65 73 20          ranges 
80006cae: 64 6f 20 6e 6f 74 20 6f         do not o
80006cb6: 76 65 72 6c 61 70 0a 0a         verlap..
80006cbe: 54 68 69 73 20 69 6e 64         This ind
80006cc6: 69 63 61 74 65 73 20 61         icates a
80006cce: 20 62 75 67 20 69 6e 20          bug in 
80006cd6: 74 68 65 20 70 72 6f 67         the prog
80006cde: 72 61 6d 2e 20 54 68 69         ram. Thi
80006ce6: 73 20 55 6e 64 65 66 69         s Undefi
80006cee: 6e 65 64 20 42 65 68 61         ned Beha
80006cf6: 76 69 6f 72 20 63 68 65         vior che
80006cfe: 63 6b 20 69 73 20 6f 70         ck is op
80006d06: 74 69 6f 6e 61 6c 2c 20         tional, 
80006d0e: 61 6e 64 20 63 61 6e 6e         and cann
80006d16: 6f 74 20 62 65 20 72 65         ot be re
80006d1e: 6c 69 65 64 20 6f 6e 20         lied on 
80006d26: 66 6f 72 20 73 61 66 65         for safe
80006d2e: 74 79 2e 00 00 00 00 00         ty......
80006d36: 00 00                           ..

0000000080006d38 <.Lanon.6615d90a2da051d01b201f4b1a0885ac.1>:
80006d38: ba 63 00 80 00 00 00 00         .c......
80006d40: 4e 00 00 00 00 00 00 00         N.......
80006d48: b2 01 00 00 01 00 00 00         ........

0000000080006d50 <.Lanon.b3f8a2c3e8fa67c82f2bdbe6237bdfd3.0>:
80006d50: 75 6e 73 61 66 65 20 70         unsafe p
80006d58: 72 65 63 6f 6e 64 69 74         recondit
80006d60: 69 6f 6e 28 73 29 20 76         ion(s) v
80006d68: 69 6f 6c 61 74 65 64 3a         iolated:
80006d70: 20 75 73 69 7a 65 3a 3a          usize::
80006d78: 75 6e 63 68 65 63 6b 65         unchecke
80006d80: 64 5f 61 64 64 20 63 61         d_add ca
80006d88: 6e 6e 6f 74 20 6f 76 65         nnot ove
80006d90: 72 66 6c 6f 77 0a 0a 54         rflow..T
80006d98: 68 69 73 20 69 6e 64 69         his indi
80006da0: 63 61 74 65 73 20 61 20         cates a 
80006da8: 62 75 67 20 69 6e 20 74         bug in t
80006db0: 68 65 20 70 72 6f 67 72         he progr
80006db8: 61 6d 2e 20 54 68 69 73         am. This
80006dc0: 20 55 6e 64 65 66 69 6e          Undefin
80006dc8: 65 64 20 42 65 68 61 76         ed Behav
80006dd0: 69 6f 72 20 63 68 65 63         ior chec
80006dd8: 6b 20 69 73 20 6f 70 74         k is opt
80006de0: 69 6f 6e 61 6c 2c 20 61         ional, a
80006de8: 6e 64 20 63 61 6e 6e 6f         nd canno
80006df0: 74 20 62 65 20 72 65 6c         t be rel
80006df8: 69 65 64 20 6f 6e 20 66         ied on f
80006e00: 6f 72 20 73 61 66 65 74         or safet
80006e08: 79 2e                           y.

0000000080006e0a <.Lanon.9c8d405096f6ba50ba7729181d7551e8.0>:
80006e0a: 00 00 00 00 00 00               ......

0000000080006e10 <.Lanon.cb44f7ac5c6041691c4ed45ad2c06f6c.0>:
80006e10: 00 00 00 00 00 00 00 00         ........
80006e18: 00 00 00 00 00 00 00 00         ........
80006e20: 01 00 00 00 00 00 00 00         ........
80006e28: f4 0d 00 80 00 00 00 00         ........
80006e30: 3a 0a 00 80 00 00 00 00         :.......
80006e38: 7a 0a 00 80 00 00 00 00         z.......

0000000080006e40 <.Lanon.690af1f4ec49096bec6c1a51a1af3b70.1>:
80006e40: 5f 63 00 80 00 00 00 00         _c......
80006e48: 4b 00 00 00 00 00 00 00         K.......
80006e50: 71 03 00 00 2a 00 00 00         q...*...
80006e58: 30 31 32 33 34 35 36 37         01234567
80006e60: 38 39 41 42 43 44 45 46         89ABCDEF
80006e68: 00 00 00 00 00 00 00 00         ........
80006e70: 00 00 00 00 00 00 00 00         ........
80006e78: 30 31 32 33 34 35 36 37         01234567
80006e80: 38 39 61 62 63 64 65 66         89abcdef

0000000080006e88 <.Lanon.b082e2d8ff810c63f4592be03776f1ef.2>:
80006e88: c7 61 00 80 00 00 00 00         .a......
80006e90: 53 00 00 00 00 00 00 00         S.......
80006e98: 3f 00 00 00 25 00 00 00         ?...%...

0000000080006ea0 <.Lanon.b082e2d8ff810c63f4592be03776f1ef.4>:
80006ea0: fd 64 00 80 00 00 00 00         .d......
80006ea8: 59 00 00 00 00 00 00 00         Y.......
80006eb0: ae 00 00 00 20 00 00 00         .... ...

0000000080006eb8 <.Lanon.76a109eada8d9dbe4e69129397813f1d.1>:
80006eb8: ab 63 00 80 00 00 00 00         .c......
80006ec0: 0e 00 00 00 00 00 00 00         ........
80006ec8: 09 00 00 00 0d 00 00 00         ........

0000000080006ed0 <.Lanon.76a109eada8d9dbe4e69129397813f1d.2>:
80006ed0: ab 63 00 80 00 00 00 00         .c......
80006ed8: 0e 00 00 00 00 00 00 00         ........
80006ee0: 0b 00 00 00 09 00 00 00         ........
80006ee8: 44 44 33 33 22 22 11 11         DD33""..
80006ef0: 00 50 40 00 00 00 00 00         .P@.....
80006ef8: 4b 59 86 38 d6 c5 6d 34         KY.8..m4
80006f00: 00 40 40 00 00 00 00 00         .@@.....
80006f08: 00 30 40 00 00 00 00 00         .0@.....
80006f10: 00 20 40 00 00 00 00 00         . @.....

0000000080006f18 <.LJTI31_0>:
80006f18: 2324         	fld	fs1, 0x40(a4)
80006f1a: 8000         	<unknown>
80006f1c: 0000         	unimp
80006f1e: 0000         	unimp
80006f20: 2336         	fld	ft6, 0x148(sp)
80006f22: 8000         	<unknown>
80006f24: 0000         	unimp
80006f26: 0000         	unimp
80006f28: 2348         	fld	fa0, 0x80(a4)
80006f2a: 8000         	<unknown>
80006f2c: 0000         	unimp
80006f2e: 0000         	unimp
80006f30: 235c         	fld	fa5, 0x80(a4)
80006f32: 8000         	<unknown>
80006f34: 0000         	unimp
80006f36: 0000         	unimp
80006f38: 2366         	fld	ft6, 0x58(sp)
80006f3a: 8000         	<unknown>
80006f3c: 0000         	unimp
80006f3e: 0000         	unimp
80006f40: 237e         	fld	ft6, 0x1d8(sp)
80006f42: 8000         	<unknown>
80006f44: 0000         	unimp
80006f46: 0000         	unimp

0000000080006f48 <.Lanon.b2771ea8856c935b2f61927167714103.3>:
80006f48: 5a 61 00 80 00 00 00 00         Za......
80006f50: 0b 00 00 00 00 00 00 00         ........
80006f58: be 01 00 00 09 00 00 00         ........

0000000080006f60 <.Lanon.b2771ea8856c935b2f61927167714103.4>:
80006f60: 5a 61 00 80 00 00 00 00         Za......
80006f68: 0b 00 00 00 00 00 00 00         ........
80006f70: bf 01 00 00 09 00 00 00         ........

0000000080006f78 <.Lanon.b2771ea8856c935b2f61927167714103.5>:
80006f78: 5a 61 00 80 00 00 00 00         Za......
80006f80: 0b 00 00 00 00 00 00 00         ........
80006f88: c2 01 00 00 09 00 00 00         ........

0000000080006f90 <.Lanon.b2771ea8856c935b2f61927167714103.6>:
80006f90: 5a 61 00 80 00 00 00 00         Za......
80006f98: 0b 00 00 00 00 00 00 00         ........
80006fa0: c3 01 00 00 09 00 00 00         ........

0000000080006fa8 <.Lanon.b2771ea8856c935b2f61927167714103.7>:
80006fa8: 5a 61 00 80 00 00 00 00         Za......
80006fb0: 0b 00 00 00 00 00 00 00         ........
80006fb8: c5 01 00 00 09 00 00 00         ........

0000000080006fc0 <.Lanon.b2771ea8856c935b2f61927167714103.8>:
80006fc0: 5a 61 00 80 00 00 00 00         Za......
80006fc8: 0b 00 00 00 00 00 00 00         ........
80006fd0: c8 01 00 00 09 00 00 00         ........

0000000080006fd8 <.Lanon.b2771ea8856c935b2f61927167714103.9>:
80006fd8: 5a 61 00 80 00 00 00 00         Za......
80006fe0: 0b 00 00 00 00 00 00 00         ........
80006fe8: cc 01 00 00 09 00 00 00         ........

0000000080006ff0 <.Lanon.b2771ea8856c935b2f61927167714103.10>:
80006ff0: 5a 61 00 80 00 00 00 00         Za......
80006ff8: 0b 00 00 00 00 00 00 00         ........
80007000: cd 01 00 00 09 00 00 00         ........

0000000080007008 <.Lanon.b2771ea8856c935b2f61927167714103.11>:
80007008: 5a 61 00 80 00 00 00 00         Za......
80007010: 0b 00 00 00 00 00 00 00         ........
80007018: ce 01 00 00 09 00 00 00         ........

0000000080007020 <.Lanon.b2771ea8856c935b2f61927167714103.12>:
80007020: 5a 61 00 80 00 00 00 00         Za......
80007028: 0b 00 00 00 00 00 00 00         ........
80007030: cf 01 00 00 09 00 00 00         ........

0000000080007038 <.Lanon.b2771ea8856c935b2f61927167714103.13>:
80007038: 72 65 61 64 5f 75 73 65         read_use
80007040: 72 5f 75 36 34 20 6f 6e         r_u64 on
80007048: 20 75 6e 6d 61 70 70 65          unmappe
80007050: 64 20 75 73 65 72 20 61         d user a
80007058: 64 64 72 65 73 73 00 00         ddress..

0000000080007060 <.Lanon.b2771ea8856c935b2f61927167714103.14>:
80007060: 5a 61 00 80 00 00 00 00         Za......
80007068: 0b 00 00 00 00 00 00 00         ........
80007070: f4 02 00 00 0e 00 00 00         ........

0000000080007078 <.Lanon.b2771ea8856c935b2f61927167714103.15>:
80007078: 5a 61 00 80 00 00 00 00         Za......
80007080: 0b 00 00 00 00 00 00 00         ........
80007088: f5 02 00 00 0e 00 00 00         ........

0000000080007090 <.Lanon.b2771ea8856c935b2f61927167714103.16>:
80007090: 5a 61 00 80 00 00 00 00         Za......
80007098: 0b 00 00 00 00 00 00 00         ........
800070a0: 62 02 00 00 17 00 00 00         b.......

00000000800070a8 <.Lanon.b2771ea8856c935b2f61927167714103.17>:
800070a8: 5a 61 00 80 00 00 00 00         Za......
800070b0: 0b 00 00 00 00 00 00 00         ........
800070b8: 62 02 00 00 12 00 00 00         b.......

00000000800070c0 <.Lanon.b2771ea8856c935b2f61927167714103.18>:
800070c0: 5a 61 00 80 00 00 00 00         Za......
800070c8: 0b 00 00 00 00 00 00 00         ........
800070d0: 63 02 00 00 09 00 00 00         c.......

00000000800070d8 <.Lanon.b2771ea8856c935b2f61927167714103.19>:
800070d8: 5a 61 00 80 00 00 00 00         Za......
800070e0: 0b 00 00 00 00 00 00 00         ........
800070e8: e1 02 00 00 22 00 00 00         ...."...

00000000800070f0 <.Lanon.b2771ea8856c935b2f61927167714103.20>:
800070f0: 5a 61 00 80 00 00 00 00         Za......
800070f8: 0b 00 00 00 00 00 00 00         ........
80007100: e1 02 00 00 1b 00 00 00         ........

0000000080007108 <.Lanon.b2771ea8856c935b2f61927167714103.21>:
80007108: 5a 61 00 80 00 00 00 00         Za......
80007110: 0b 00 00 00 00 00 00 00         ........
80007118: e1 02 00 00 40 00 00 00         ....@...

0000000080007120 <.Lanon.b2771ea8856c935b2f61927167714103.22>:
80007120: 5a 61 00 80 00 00 00 00         Za......
80007128: 0b 00 00 00 00 00 00 00         ........
80007130: e4 02 00 00 05 00 00 00         ........

0000000080007138 <.Lanon.b2771ea8856c935b2f61927167714103.23>:
80007138: 70 68 79 73 69 63 61 6c         physical
80007140: 20 70 61 67 65 20 69 73          page is
80007148: 20 6f 75 74 73 69 64 65          outside
80007150: 20 74 68 65 20 43 4f 57          the COW
80007158: 20 64 61 74 61 20 70 61          data pa
80007160: 67 65 20 70 6f 6f 6c            ge pool

0000000080007167 <.Lanon.b2771ea8856c935b2f61927167714103.24>:
80007167: 4c 30 2d 34 4b                  L0-4K

000000008000716c <.Lanon.b2771ea8856c935b2f61927167714103.25>:
8000716c: 4c 31 2d 32 4d                  L1-2M

0000000080007171 <.Lanon.b2771ea8856c935b2f61927167714103.26>:
80007171: 4c 32 2d 31 47                  L2-1G

0000000080007176 <.Lanon.b2771ea8856c935b2f61927167714103.27>:
80007176: 69 6e 76 61 6c 69 64 00         invalid.
8000717e: 00 00                           ..

0000000080007180 <.Lanon.b2771ea8856c935b2f61927167714103.28>:
80007180: 5a 61 00 80 00 00 00 00         Za......
80007188: 0b 00 00 00 00 00 00 00         ........
80007190: e8 02 00 00 19 00 00 00         ........

0000000080007198 <.Lanon.b2771ea8856c935b2f61927167714103.29>:
80007198: 5a 61 00 80 00 00 00 00         Za......
800071a0: 0b 00 00 00 00 00 00 00         ........
800071a8: 55 03 00 00 0d 00 00 00         U.......

00000000800071b0 <.Lanon.b2771ea8856c935b2f61927167714103.30>:
800071b0: 5a 61 00 80 00 00 00 00         Za......
800071b8: 0b 00 00 00 00 00 00 00         ........
800071c0: d3 03 00 00 05 00 00 00         ........

00000000800071c8 <.Lanon.b2771ea8856c935b2f61927167714103.31>:
800071c8: 5a 61 00 80 00 00 00 00         Za......
800071d0: 0b 00 00 00 00 00 00 00         ........
800071d8: 9d 01 00 00 12 00 00 00         ........

00000000800071e0 <.Lanon.b2771ea8856c935b2f61927167714103.32>:
800071e0: 5a 61 00 80 00 00 00 00         Za......
800071e8: 0b 00 00 00 00 00 00 00         ........
800071f0: 7a 02 00 00 22 00 00 00         z..."...

00000000800071f8 <.Lanon.b2771ea8856c935b2f61927167714103.33>:
800071f8: 5a 61 00 80 00 00 00 00         Za......
80007200: 0b 00 00 00 00 00 00 00         ........
80007208: 7b 02 00 00 21 00 00 00         {...!...

0000000080007210 <.Lanon.b2771ea8856c935b2f61927167714103.34>:
80007210: 25 5b 6b 65 72 6e 65 6c         %[kernel
80007218: 5d 20 66 69 6e 61 6c 20         ] final 
80007220: 73 68 61 72 65 64 20 70         shared p
80007228: 61 67 65 20 70 61 72 65         age pare
80007230: 6e 74 5f 70 61 3d c1 20         nt_pa=. 
80007238: 00 80 60 0a 20 63 68 69         ..`. chi
80007240: 6c 64 5f 70 61 3d c1 20         ld_pa=. 
80007248: 00 80 60 0c 20 70 61 72         ..`. par
80007250: 65 6e 74 5f 76 61 6c 3d         ent_val=
80007258: c3 20 00 80 69 12 00 0b         . ..i...
80007260: 20 63 68 69 6c 64 5f 76          child_v
80007268: 61 6c 3d c3 20 00 80 69         al=. ..i
80007270: 12 00 0a 20 72 65 66 63         ... refc
80007278: 6f 75 6e 74 3d c0 01 0a         ount=...
80007280: 00                              .

0000000080007281 <.Lanon.b2771ea8856c935b2f61927167714103.35>:
80007281: 70 61 72 65 6e 74 5f 66         parent_f
80007289: 69 6e 61 6c                     inal

000000008000728d <.Lanon.b2771ea8856c935b2f61927167714103.36>:
8000728d: 63 68 69 6c 64 5f 66 69         child_fi
80007295: 6e 61 6c                        nal

0000000080007298 <.Lanon.b2771ea8856c935b2f61927167714103.37>:
80007298: 5a 61 00 80 00 00 00 00         Za......
800072a0: 0b 00 00 00 00 00 00 00         ........
800072a8: 91 02 00 00 15 00 00 00         ........

00000000800072b0 <.Lanon.b2771ea8856c935b2f61927167714103.38>:
800072b0: 5a 61 00 80 00 00 00 00         Za......
800072b8: 0b 00 00 00 00 00 00 00         ........
800072c0: 92 02 00 00 15 00 00 00         ........

00000000800072c8 <.Lanon.b2771ea8856c935b2f61927167714103.39>:
800072c8: 5a 61 00 80 00 00 00 00         Za......
800072d0: 0b 00 00 00 00 00 00 00         ........
800072d8: 93 02 00 00 15 00 00 00         ........

00000000800072e0 <.Lanon.b2771ea8856c935b2f61927167714103.42>:
800072e0: 5a 61 00 80 00 00 00 00         Za......
800072e8: 0b 00 00 00 00 00 00 00         ........
800072f0: d9 01 00 00 1f 00 00 00         ........

00000000800072f8 <.Lanon.b2771ea8856c935b2f61927167714103.43>:
800072f8: 5a 61 00 80 00 00 00 00         Za......
80007300: 0b 00 00 00 00 00 00 00         ........
80007308: db 01 00 00 09 00 00 00         ........

0000000080007310 <.Lanon.b2771ea8856c935b2f61927167714103.44>:
80007310: 5a 61 00 80 00 00 00 00         Za......
80007318: 0b 00 00 00 00 00 00 00         ........
80007320: ea 01 00 00 11 00 00 00         ........

0000000080007328 <.Lanon.b2771ea8856c935b2f61927167714103.45>:
80007328: 5a 61 00 80 00 00 00 00         Za......
80007330: 0b 00 00 00 00 00 00 00         ........
80007338: f1 01 00 00 11 00 00 00         ........

0000000080007340 <.Lanon.b2771ea8856c935b2f61927167714103.46>:
80007340: 5a 61 00 80 00 00 00 00         Za......
80007348: 0b 00 00 00 00 00 00 00         ........
80007350: f6 01 00 00 23 00 00 00         ....#...

0000000080007358 <.Lanon.b2771ea8856c935b2f61927167714103.47>:
80007358: 5a 61 00 80 00 00 00 00         Za......
80007360: 0b 00 00 00 00 00 00 00         ........
80007368: f7 01 00 00 1f 00 00 00         ........

0000000080007370 <.Lanon.b2771ea8856c935b2f61927167714103.48>:
80007370: 5a 61 00 80 00 00 00 00         Za......
80007378: 0b 00 00 00 00 00 00 00         ........
80007380: fa 01 00 00 11 00 00 00         ........

0000000080007388 <.Lanon.b2771ea8856c935b2f61927167714103.49>:
80007388: 5a 61 00 80 00 00 00 00         Za......
80007390: 0b 00 00 00 00 00 00 00         ........
80007398: 03 02 00 00 1a 00 00 00         ........

00000000800073a0 <.Lanon.b2771ea8856c935b2f61927167714103.50>:
800073a0: 21 5b 6b 65 72 6e 65 6c         ![kernel
800073a8: 5d 20 75 6e 65 78 70 65         ] unexpe
800073b0: 63 74 65 64 20 73 79 73         cted sys
800073b8: 63 61 6c 6c 3a 20 70 69         call: pi
800073c0: 64 3d c0 04 20 61 37 3d         d=.. a7=
800073c8: c0 04 20 61 30 3d c1 20         .. a0=. 
800073d0: 00 80 60 01 0a 00 00 00         ..`.....

00000000800073d8 <.Lanon.b2771ea8856c935b2f61927167714103.51>:
800073d8: 5a 61 00 80 00 00 00 00         Za......
800073e0: 0b 00 00 00 00 00 00 00         ........
800073e8: 36 02 00 00 1b 00 00 00         6.......

00000000800073f0 <.Lanon.b2771ea8856c935b2f61927167714103.52>:
800073f0: 5a 61 00 80 00 00 00 00         Za......
800073f8: 0b 00 00 00 00 00 00 00         ........
80007400: 43 02 00 00 20 00 00 00         C... ...

0000000080007408 <.Lanon.b2771ea8856c935b2f61927167714103.53>:
80007408: 5a 61 00 80 00 00 00 00         Za......
80007410: 0b 00 00 00 00 00 00 00         ........
80007418: 43 02 00 00 1b 00 00 00         C.......

0000000080007420 <.Lanon.b2771ea8856c935b2f61927167714103.54>:
80007420: 0d 5b 6b 65 72 6e 65 6c         .[kernel
80007428: 5d 20 70 69 64 3d c0 16         ] pid=..
80007430: 20 6d 61 70 70 65 64 20          mapped 
80007438: 73 68 61 72 65 64 20 68         shared h
80007440: 61 6e 64 6c 65 3d c0 04         andle=..
80007448: 20 76 61 3d c1 20 00 80          va=. ..
80007450: 60 04 20 70 61 3d c1 20         `. pa=. 
80007458: 00 80 60 0a 20 72 65 66         ..`. ref
80007460: 63 6f 75 6e 74 3d c0 01         count=..
80007468: 0a 00                           ..

000000008000746a <.Lanon.b2771ea8856c935b2f61927167714103.55>:
8000746a: 73 68 61 72 65 64 5f 6d         shared_m
80007472: 61 70                           ap

0000000080007474 <.Lanon.b2771ea8856c935b2f61927167714103.56>:
80007474: 1f 5b 6b 65 72 6e 65 6c         .[kernel
8000747c: 5d 20 72 65 6a 65 63 74         ] reject
80007484: 20 73 68 61 72 65 64 20          shared 
8000748c: 6d 61 70 20 70 69 64 3d         map pid=
80007494: c0 08 20 68 61 6e 64 6c         .. handl
8000749c: 65 3d c0 04 20 76 61 3d         e=.. va=
800074a4: c1 20 00 80 60 16 3a 20         . ..`.: 
800074ac: 6f 76 65 72 6c 61 70 73         overlaps
800074b4: 20 75 73 65 72 20 73 74          user st
800074bc: 61 63 6b 0a 00                  ack..

00000000800074c1 <.Lanon.b2771ea8856c935b2f61927167714103.57>:
800074c1: 05 5b 70 74 5d 20 c0 05         .[pt] ..
800074c9: 20 70 69 64 3d c0 04 20          pid=.. 
800074d1: 76 61 3d c1 20 00 80 60         va=. ..`
800074d9: 06 20 76 70 6e 3d 28 c0         . vpn=(.
800074e1: 01 2c c0 01 2c c0 08 29         .,..,..)
800074e9: 20 6c 65 76 65 6c 3d c0          level=.
800074f1: 0a 20 72 6f 6f 74 5f 70         . root_p
800074f9: 74 65 3d c3 20 00 80 69         te=. ..i
80007501: 12 00 08 20 6c 31 5f 70         ... l1_p
80007509: 74 65 3d c3 20 00 80 69         te=. ..i
80007511: 12 00 08 20 6c 30 5f 70         ... l0_p
80007519: 74 65 3d c3 20 00 80 69         te=. ..i
80007521: 12 00 0a 20 6c 65 61 66         ... leaf
80007529: 5f 70 74 65 3d c3 20 00         _pte=. .
80007531: 80 69 12 00 09 20 6c 65         .i... le
80007539: 61 66 5f 70 61 3d c1 20         af_pa=. 
80007541: 00 80 60 07 20 66 6c 61         ..`. fla
80007549: 67 73 3d c0 01 0a 00            gs=....

0000000080007550 <.Lanon.b2771ea8856c935b2f61927167714103.58>:
80007550: 5a 61 00 80 00 00 00 00         Za......
80007558: 0b 00 00 00 00 00 00 00         ........
80007560: 16 03 00 00 20 00 00 00         .... ...

0000000080007568 <.Lanon.b2771ea8856c935b2f61927167714103.59>:
80007568: 5a 61 00 80 00 00 00 00         Za......
80007570: 0b 00 00 00 00 00 00 00         ........
80007578: 1e 03 00 00 17 00 00 00         ........

0000000080007580 <.Lanon.b2771ea8856c935b2f61927167714103.60>:
80007580: 5a 61 00 80 00 00 00 00         Za......
80007588: 0b 00 00 00 00 00 00 00         ........
80007590: 1f 03 00 00 15 00 00 00         ........

0000000080007598 <.Lanon.b2771ea8856c935b2f61927167714103.61>:
80007598: 5a 61 00 80 00 00 00 00         Za......
800075a0: 0b 00 00 00 00 00 00 00         ........
800075a8: 27 03 00 00 17 00 00 00         '.......

00000000800075b0 <.Lanon.b2771ea8856c935b2f61927167714103.62>:
800075b0: 5a 61 00 80 00 00 00 00         Za......
800075b8: 0b 00 00 00 00 00 00 00         ........
800075c0: 28 03 00 00 15 00 00 00         (.......

00000000800075c8 <.Lanon.b2771ea8856c935b2f61927167714103.63>:
800075c8: 5a 61 00 80 00 00 00 00         Za......
800075d0: 0b 00 00 00 00 00 00 00         ........
800075d8: c5 02 00 00 1a 00 00 00         ........

00000000800075e0 <.Lanon.b2771ea8856c935b2f61927167714103.64>:
800075e0: 5a 61 00 80 00 00 00 00         Za......
800075e8: 0b 00 00 00 00 00 00 00         ........
800075f0: ca 02 00 00 24 00 00 00         ....$...

00000000800075f8 <.Lanon.b2771ea8856c935b2f61927167714103.65>:
800075f8: 5a 61 00 80 00 00 00 00         Za......
80007600: 0b 00 00 00 00 00 00 00         ........
80007608: ca 02 00 00 0e 00 00 00         ........

0000000080007610 <.Lanon.b2771ea8856c935b2f61927167714103.66>:
80007610: 5a 61 00 80 00 00 00 00         Za......
80007618: 0b 00 00 00 00 00 00 00         ........
80007620: cd 02 00 00 09 00 00 00         ........

0000000080007628 <.Lanon.b2771ea8856c935b2f61927167714103.67>:
80007628: 5a 61 00 80 00 00 00 00         Za......
80007630: 0b 00 00 00 00 00 00 00         ........
80007638: ce 02 00 00 09 00 00 00         ........

0000000080007640 <.Lanon.b2771ea8856c935b2f61927167714103.68>:
80007640: 5a 61 00 80 00 00 00 00         Za......
80007648: 0b 00 00 00 00 00 00 00         ........
80007650: cf 02 00 00 09 00 00 00         ........

0000000080007658 <.Lanon.b2771ea8856c935b2f61927167714103.69>:
80007658: 64 61 74 61 20 70 61 67         data pag
80007660: 65 20 70 6f 6f 6c 20 65         e pool e
80007668: 78 68 61 75 73 74 65 64         xhausted

0000000080007670 <.Lanon.b2771ea8856c935b2f61927167714103.70>:
80007670: 5a 61 00 80 00 00 00 00         Za......
80007678: 0b 00 00 00 00 00 00 00         ........
80007680: d5 02 00 00 0e 00 00 00         ........

0000000080007688 <.Lanon.b2771ea8856c935b2f61927167714103.71>:
80007688: 5a 61 00 80 00 00 00 00         Za......
80007690: 0b 00 00 00 00 00 00 00         ........
80007698: 72 01 00 00 09 00 00 00         r.......

00000000800076a0 <.Lanon.b2771ea8856c935b2f61927167714103.72>:
800076a0: 5a 61 00 80 00 00 00 00         Za......
800076a8: 0b 00 00 00 00 00 00 00         ........
800076b0: 73 01 00 00 09 00 00 00         s.......

00000000800076b8 <.Lanon.b2771ea8856c935b2f61927167714103.73>:
800076b8: 5a 61 00 80 00 00 00 00         Za......
800076c0: 0b 00 00 00 00 00 00 00         ........
800076c8: 74 01 00 00 09 00 00 00         t.......

00000000800076d0 <.Lanon.b2771ea8856c935b2f61927167714103.74>:
800076d0: 5a 61 00 80 00 00 00 00         Za......
800076d8: 0b 00 00 00 00 00 00 00         ........
800076e0: 75 01 00 00 09 00 00 00         u.......

00000000800076e8 <.Lanon.b2771ea8856c935b2f61927167714103.75>:
800076e8: 5a 61 00 80 00 00 00 00         Za......
800076f0: 0b 00 00 00 00 00 00 00         ........
800076f8: 94 01 00 00 09 00 00 00         ........

0000000080007700 <.Lanon.b2771ea8856c935b2f61927167714103.76>:
80007700: 5a 61 00 80 00 00 00 00         Za......
80007708: 0b 00 00 00 00 00 00 00         ........
80007710: 95 01 00 00 09 00 00 00         ........

0000000080007718 <.Lanon.b2771ea8856c935b2f61927167714103.77>:
80007718: 5a 61 00 80 00 00 00 00         Za......
80007720: 0b 00 00 00 00 00 00 00         ........
80007728: 96 01 00 00 09 00 00 00         ........

0000000080007730 <.Lanon.b2771ea8856c935b2f61927167714103.78>:
80007730: 5a 61 00 80 00 00 00 00         Za......
80007738: 0b 00 00 00 00 00 00 00         ........
80007740: 97 01 00 00 09 00 00 00         ........

0000000080007748 <.Lanon.b2771ea8856c935b2f61927167714103.79>:
80007748: 5a 61 00 80 00 00 00 00         Za......
80007750: 0b 00 00 00 00 00 00 00         ........
80007758: 88 01 00 00 0d 00 00 00         ........

0000000080007760 <.Lanon.b2771ea8856c935b2f61927167714103.80>:
80007760: 5a 61 00 80 00 00 00 00         Za......
80007768: 0b 00 00 00 00 00 00 00         ........
80007770: 89 01 00 00 0d 00 00 00         ........

0000000080007778 <.Lanon.b2771ea8856c935b2f61927167714103.81>:
80007778: 5a 61 00 80 00 00 00 00         Za......
80007780: 0b 00 00 00 00 00 00 00         ........
80007788: 8a 01 00 00 0d 00 00 00         ........

0000000080007790 <.Lanon.b2771ea8856c935b2f61927167714103.82>:
80007790: 5a 61 00 80 00 00 00 00         Za......
80007798: 0b 00 00 00 00 00 00 00         ........
800077a0: 7f 01 00 00 0d 00 00 00         ........

00000000800077a8 <.Lanon.b2771ea8856c935b2f61927167714103.83>:
800077a8: 5a 61 00 80 00 00 00 00         Za......
800077b0: 0b 00 00 00 00 00 00 00         ........
800077b8: b7 03 00 00 1c 00 00 00         ........

00000000800077c0 <.Lanon.b2771ea8856c935b2f61927167714103.84>:
800077c0: 5a 61 00 80 00 00 00 00         Za......
800077c8: 0b 00 00 00 00 00 00 00         ........
800077d0: ab 03 00 00 20 00 00 00         .... ...

00000000800077d8 <.Lanon.b2771ea8856c935b2f61927167714103.85>:
800077d8: 5a 61 00 80 00 00 00 00         Za......
800077e0: 0b 00 00 00 00 00 00 00         ........
800077e8: 65 03 00 00 0d 00 00 00         e.......

00000000800077f0 <.Lanon.b2771ea8856c935b2f61927167714103.86>:
800077f0: 5a 61 00 80 00 00 00 00         Za......
800077f8: 0b 00 00 00 00 00 00 00         ........
80007800: 23 02 00 00 1a 00 00 00         #.......

0000000080007808 <.Lanon.b2771ea8856c935b2f61927167714103.87>:
80007808: 5a 61 00 80 00 00 00 00         Za......
80007810: 0b 00 00 00 00 00 00 00         ........
80007818: 2a 02 00 00 09 00 00 00         *.......

0000000080007820 <.Lanon.b2771ea8856c935b2f61927167714103.88>:
80007820: 5a 61 00 80 00 00 00 00         Za......
80007828: 0b 00 00 00 00 00 00 00         ........
80007830: 2f 02 00 00 09 00 00 00         /.......

0000000080007838 <.Lanon.b2771ea8856c935b2f61927167714103.89>:
80007838: 17 5b 6b 65 72 6e 65 6c         .[kernel
80007840: 5d 20 73 68 61 72 65 64         ] shared
80007848: 20 72 65 67 69 6f 6e 20          region 
80007850: c0 0c 20 63 72 65 61 74         .. creat
80007858: 65 64 20 70 61 3d c1 20         ed pa=. 
80007860: 00 80 60 01 0a 00               ..`...

0000000080007866 <.Lanon.b2771ea8856c935b2f61927167714103.90>:
80007866: 5b 6b 65 72 6e 65 6c 5d         [kernel]
8000786e: 20 73 68 61 72 65 64 20          shared 
80007876: 72 65 67 69 6f 6e 20 70         region p
8000787e: 6f 6f 6c 20 65 78 68 61         ool exha
80007886: 75 73 74 65 64 0a 00 00         usted...
8000788e: 00 00                           ..

0000000080007890 <.Lanon.b2771ea8856c935b2f61927167714103.91>:
80007890: 5a 61 00 80 00 00 00 00         Za......
80007898: 0b 00 00 00 00 00 00 00         ........
800078a0: bb 03 00 00 1c 00 00 00         ........

00000000800078a8 <.Lanon.b2771ea8856c935b2f61927167714103.92>:
800078a8: 5a 61 00 80 00 00 00 00         Za......
800078b0: 0b 00 00 00 00 00 00 00         ........
800078b8: 6a 02 00 00 09 00 00 00         j.......

00000000800078c0 <.Lanon.b2771ea8856c935b2f61927167714103.93>:
800078c0: 5a 61 00 80 00 00 00 00         Za......
800078c8: 0b 00 00 00 00 00 00 00         ........
800078d0: 6b 02 00 00 2b 00 00 00         k...+...

00000000800078d8 <.Lanon.b2771ea8856c935b2f61927167714103.94>:
800078d8: 5a 61 00 80 00 00 00 00         Za......
800078e0: 0b 00 00 00 00 00 00 00         ........
800078e8: 6b 02 00 00 09 00 00 00         k.......

00000000800078f0 <.Lanon.b2771ea8856c935b2f61927167714103.95>:
800078f0: 5a 61 00 80 00 00 00 00         Za......
800078f8: 0b 00 00 00 00 00 00 00         ........
80007900: 6c 02 00 00 2c 00 00 00         l...,...

0000000080007908 <.Lanon.b2771ea8856c935b2f61927167714103.96>:
80007908: 5a 61 00 80 00 00 00 00         Za......
80007910: 0b 00 00 00 00 00 00 00         ........
80007918: 6c 02 00 00 09 00 00 00         l.......

0000000080007920 <.Lanon.b2771ea8856c935b2f61927167714103.97>:
80007920: 5a 61 00 80 00 00 00 00         Za......
80007928: 0b 00 00 00 00 00 00 00         ........
80007930: 6d 02 00 00 2b 00 00 00         m...+...

0000000080007938 <.Lanon.b2771ea8856c935b2f61927167714103.98>:
80007938: 5a 61 00 80 00 00 00 00         Za......
80007940: 0b 00 00 00 00 00 00 00         ........
80007948: 6d 02 00 00 09 00 00 00         m.......

0000000080007950 <.Lanon.b2771ea8856c935b2f61927167714103.99>:
80007950: 5a 61 00 80 00 00 00 00         Za......
80007958: 0b 00 00 00 00 00 00 00         ........
80007960: 73 02 00 00 12 00 00 00         s.......

0000000080007968 <.Lanon.b2771ea8856c935b2f61927167714103.100>:
80007968: 5a 61 00 80 00 00 00 00         Za......
80007970: 0b 00 00 00 00 00 00 00         ........
80007978: 74 02 00 00 12 00 00 00         t.......

0000000080007980 <.Lanon.b2771ea8856c935b2f61927167714103.101>:
80007980: 5a 61 00 80 00 00 00 00         Za......
80007988: 0b 00 00 00 00 00 00 00         ........
80007990: 75 02 00 00 12 00 00 00         u.......

0000000080007998 <.Lanon.b2771ea8856c935b2f61927167714103.102>:
80007998: 14 5b 6b 65 72 6e 65 6c         .[kernel
800079a0: 5d 20 72 65 70 6f 72 74         ] report
800079a8: 20 70 69 64 3d c0 07 20          pid=.. 
800079b0: 66 69 72 73 74 3d c3 20         first=. 
800079b8: 00 80 69 12 00 08 20 73         ..i... s
800079c0: 65 63 6f 6e 64 3d c3 20         econd=. 
800079c8: 00 80 69 12 00 07 20 74         ..i... t
800079d0: 68 69 72 64 3d c3 20 00         hird=. .
800079d8: 80 69 12 00 01 0a 00 00         .i......

00000000800079e0 <.Lanon.b2771ea8856c935b2f61927167714103.103>:
800079e0: 5a 61 00 80 00 00 00 00         Za......
800079e8: 0b 00 00 00 00 00 00 00         ........
800079f0: af 03 00 00 20 00 00 00         .... ...

00000000800079f8 <.Lanon.b2771ea8856c935b2f61927167714103.104>:
800079f8: 5a 61 00 80 00 00 00 00         Za......
80007a00: 0b 00 00 00 00 00 00 00         ........
80007a08: bf 03 00 00 1c 00 00 00         ........

0000000080007a10 <.Lanon.b2771ea8856c935b2f61927167714103.105>:
80007a10: 5a 61 00 80 00 00 00 00         Za......
80007a18: 0b 00 00 00 00 00 00 00         ........
80007a20: ac 02 00 00 11 00 00 00         ........

0000000080007a28 <.Lanon.b2771ea8856c935b2f61927167714103.106>:
80007a28: 5a 61 00 80 00 00 00 00         Za......
80007a30: 0b 00 00 00 00 00 00 00         ........
80007a38: b3 03 00 00 20 00 00 00         .... ...

0000000080007a40 <.Lanon.b2771ea8856c935b2f61927167714103.107>:
80007a40: 5a 61 00 80 00 00 00 00         Za......
80007a48: 0b 00 00 00 00 00 00 00         ........
80007a50: b5 02 00 00 15 00 00 00         ........

0000000080007a58 <.Lanon.b2771ea8856c935b2f61927167714103.108>:
80007a58: 5a 61 00 80 00 00 00 00         Za......
80007a60: 0b 00 00 00 00 00 00 00         ........
80007a68: ad 01 00 00 09 00 00 00         ........

0000000080007a70 <.Lanon.b2771ea8856c935b2f61927167714103.109>:
80007a70: 5a 61 00 80 00 00 00 00         Za......
80007a78: 0b 00 00 00 00 00 00 00         ........
80007a80: b1 01 00 00 24 00 00 00         ....$...

0000000080007a88 <.Lanon.b2771ea8856c935b2f61927167714103.110>:
80007a88: 5a 61 00 80 00 00 00 00         Za......
80007a90: 0b 00 00 00 00 00 00 00         ........
80007a98: b1 01 00 00 16 00 00 00         ........

0000000080007aa0 <.Lanon.b2771ea8856c935b2f61927167714103.111>:
80007aa0: 5a 61 00 80 00 00 00 00         Za......
80007aa8: 0b 00 00 00 00 00 00 00         ........
80007ab0: b2 01 00 00 0d 00 00 00         ........

0000000080007ab8 <.Lanon.b2771ea8856c935b2f61927167714103.112>:
80007ab8: 5a 61 00 80 00 00 00 00         Za......
80007ac0: 0b 00 00 00 00 00 00 00         ........
80007ac8: db 02 00 00 09 00 00 00         ........

0000000080007ad0 <.Lanon.b2771ea8856c935b2f61927167714103.113>:
80007ad0: 5a 61 00 80 00 00 00 00         Za......
80007ad8: 0b 00 00 00 00 00 00 00         ........
80007ae0: 0c 02 00 00 27 00 00 00         ....'...

0000000080007ae8 <.Lanon.b2771ea8856c935b2f61927167714103.114>:
80007ae8: 5a 61 00 80 00 00 00 00         Za......
80007af0: 0b 00 00 00 00 00 00 00         ........
80007af8: 0c 02 00 00 09 00 00 00         ........

0000000080007b00 <.Lanon.b2771ea8856c935b2f61927167714103.115>:
80007b00: 5a 61 00 80 00 00 00 00         Za......
80007b08: 0b 00 00 00 00 00 00 00         ........
80007b10: 0d 02 00 00 29 00 00 00         ....)...

0000000080007b18 <.Lanon.b2771ea8856c935b2f61927167714103.116>:
80007b18: 5a 61 00 80 00 00 00 00         Za......
80007b20: 0b 00 00 00 00 00 00 00         ........
80007b28: 0d 02 00 00 09 00 00 00         ........

0000000080007b30 <.Lanon.b2771ea8856c935b2f61927167714103.117>:
80007b30: 5a 61 00 80 00 00 00 00         Za......
80007b38: 0b 00 00 00 00 00 00 00         ........
80007b40: 0e 02 00 00 2a 00 00 00         ....*...

0000000080007b48 <.Lanon.b2771ea8856c935b2f61927167714103.118>:
80007b48: 5a 61 00 80 00 00 00 00         Za......
80007b50: 0b 00 00 00 00 00 00 00         ........
80007b58: 0e 02 00 00 09 00 00 00         ........

0000000080007b60 <.Lanon.b2771ea8856c935b2f61927167714103.119>:
80007b60: 5a 61 00 80 00 00 00 00         Za......
80007b68: 0b 00 00 00 00 00 00 00         ........
80007b70: 0f 02 00 00 09 00 00 00         ........

0000000080007b78 <.Lanon.b2771ea8856c935b2f61927167714103.120>:
80007b78: 5a 61 00 80 00 00 00 00         Za......
80007b80: 0b 00 00 00 00 00 00 00         ........
80007b88: 11 02 00 00 09 00 00 00         ........

0000000080007b90 <.Lanon.b2771ea8856c935b2f61927167714103.121>:
80007b90: 5a 61 00 80 00 00 00 00         Za......
80007b98: 0b 00 00 00 00 00 00 00         ........
80007ba0: 13 02 00 00 09 00 00 00         ........

0000000080007ba8 <.Lanon.b2771ea8856c935b2f61927167714103.122>:
80007ba8: 5a 61 00 80 00 00 00 00         Za......
80007bb0: 0b 00 00 00 00 00 00 00         ........
80007bb8: 14 02 00 00 09 00 00 00         ........

0000000080007bc0 <.Lanon.b2771ea8856c935b2f61927167714103.123>:
80007bc0: 5a 61 00 80 00 00 00 00         Za......
80007bc8: 0b 00 00 00 00 00 00 00         ........
80007bd0: 15 02 00 00 09 00 00 00         ........

0000000080007bd8 <.Lanon.b2771ea8856c935b2f61927167714103.124>:
80007bd8: 5a 61 00 80 00 00 00 00         Za......
80007be0: 0b 00 00 00 00 00 00 00         ........
80007be8: 16 02 00 00 09 00 00 00         ........

0000000080007bf0 <.Lanon.b2771ea8856c935b2f61927167714103.125>:
80007bf0: 5a 61 00 80 00 00 00 00         Za......
80007bf8: 0b 00 00 00 00 00 00 00         ........
80007c00: 1b 02 00 00 25 00 00 00         ....%...

0000000080007c08 <.Lanon.b2771ea8856c935b2f61927167714103.126>:
80007c08: 5a 61 00 80 00 00 00 00         Za......
80007c10: 0b 00 00 00 00 00 00 00         ........
80007c18: 1b 02 00 00 09 00 00 00         ........

0000000080007c20 <.Lanon.b2771ea8856c935b2f61927167714103.127>:
80007c20: 5a 61 00 80 00 00 00 00         Za......
80007c28: 0b 00 00 00 00 00 00 00         ........
80007c30: 1c 02 00 00 09 00 00 00         ........

0000000080007c38 <.Lanon.b2771ea8856c935b2f61927167714103.128>:
80007c38: 5a 61 00 80 00 00 00 00         Za......
80007c40: 0b 00 00 00 00 00 00 00         ........
80007c48: 1d 02 00 00 09 00 00 00         ........

0000000080007c50 <.Lanon.b2771ea8856c935b2f61927167714103.129>:
80007c50: 5b 6b 65 72 6e 65 6c 5d         [kernel]
80007c58: 20 66 6f 72 6b 20 63 6f          fork co
80007c60: 6d 70 6c 65 74 65 0a 00         mplete..

0000000080007c68 <.Lanon.b2771ea8856c935b2f61927167714103.130>:
80007c68: 5a 61 00 80 00 00 00 00         Za......
80007c70: 0b 00 00 00 00 00 00 00         ........
80007c78: e6 03 00 00 24 00 00 00         ....$...
80007c80: 46 41 49 4c 50 41 53 53         FAILPASS

0000000080007c88 <.Lanon.b2771ea8856c935b2f61927167714103.133>:
80007c88: 5a 61 00 80 00 00 00 00         Za......
80007c90: 0b 00 00 00 00 00 00 00         ........
80007c98: f7 03 00 00 09 00 00 00         ........

0000000080007ca0 <.Lanon.b2771ea8856c935b2f61927167714103.134>:
80007ca0: 5a 61 00 80 00 00 00 00         Za......
80007ca8: 0b 00 00 00 00 00 00 00         ........
80007cb0: 5c 03 00 00 1a 00 00 00         \.......

0000000080007cb8 <.Lanon.b2771ea8856c935b2f61927167714103.136>:
80007cb8: 66 61 00 80 00 00 00 00         fa......
80007cc0: 4b 00 00 00 00 00 00 00         K.......
80007cc8: bc 02 00 00 09 00 00 00         ........

0000000080007cd0 <.Lanon.b2771ea8856c935b2f61927167714103.137>:
80007cd0: 66 61 00 80 00 00 00 00         fa......
80007cd8: 4b 00 00 00 00 00 00 00         K.......
80007ce0: 0f 02 00 00 05 00 00 00         ........

0000000080007ce8 <.Lanon.b2771ea8856c935b2f61927167714103.139>:
80007ce8: 5a 61 00 80 00 00 00 00         Za......
80007cf0: 0b 00 00 00 00 00 00 00         ........
80007cf8: d5 00 00 00 0d 00 00 00         ........

0000000080007d00 <.Lanon.b2771ea8856c935b2f61927167714103.140>:
80007d00: 29 5b 6b 65 72 6e 65 6c         )[kernel
80007d08: 5d 20 75 6e 65 78 70 65         ] unexpe
80007d10: 63 74 65 64 20 6d 61 63         cted mac
80007d18: 68 69 6e 65 20 74 72 61         hine tra
80007d20: 70 3a 20 6d 63 61 75 73         p: mcaus
80007d28: 65 3d c1 20 00 80 60 06         e=. ..`.
80007d30: 20 6d 65 70 63 3d c1 20          mepc=. 
80007d38: 00 80 60 07 20 6d 74 76         ..`. mtv
80007d40: 61 6c 3d c1 20 00 80 60         al=. ..`
80007d48: 01 0a 00 00 00 00 00 00         ........

0000000080007d50 <.Lanon.b2771ea8856c935b2f61927167714103.141>:
80007d50: 5a 61 00 80 00 00 00 00         Za......
80007d58: 0b 00 00 00 00 00 00 00         ........
80007d60: 43 01 00 00 18 00 00 00         C.......

0000000080007d68 <.Lanon.b2771ea8856c935b2f61927167714103.142>:
80007d68: 5a 61 00 80 00 00 00 00         Za......
80007d70: 0b 00 00 00 00 00 00 00         ........
80007d78: 47 01 00 00 09 00 00 00         G.......

0000000080007d80 <.Lanon.b2771ea8856c935b2f61927167714103.143>:
80007d80: 5a 61 00 80 00 00 00 00         Za......
80007d88: 0b 00 00 00 00 00 00 00         ........
80007d90: 66 01 00 00 0d 00 00 00         f.......

0000000080007d98 <.Lanon.b2771ea8856c935b2f61927167714103.144>:
80007d98: 5a 61 00 80 00 00 00 00         Za......
80007da0: 0b 00 00 00 00 00 00 00         ........
80007da8: 68 01 00 00 16 00 00 00         h.......

0000000080007db0 <.Lanon.b2771ea8856c935b2f61927167714103.145>:
80007db0: 5a 61 00 80 00 00 00 00         Za......
80007db8: 0b 00 00 00 00 00 00 00         ........
80007dc0: 50 01 00 00 1a 00 00 00         P.......

0000000080007dc8 <.Lanon.b2771ea8856c935b2f61927167714103.146>:
80007dc8: 2a 5b 6b 65 72 6e 65 6c         *[kernel
80007dd0: 5d 20 75 6e 65 78 70 65         ] unexpe
80007dd8: 63 74 65 64 20 73 74 6f         cted sto
80007de0: 72 65 20 70 61 67 65 20         re page 
80007de8: 66 61 75 6c 74 3a 20 70         fault: p
80007df0: 69 64 3d c0 06 20 73 65         id=.. se
80007df8: 70 63 3d c1 20 00 80 60         pc=. ..`
80007e00: 07 20 73 74 76 61 6c 3d         . stval=
80007e08: c1 20 00 80 60 01 0a 00         . ..`...

0000000080007e10 <.Lanon.b2771ea8856c935b2f61927167714103.147>:
80007e10: 5a 61 00 80 00 00 00 00         Za......
80007e18: 0b 00 00 00 00 00 00 00         ........
80007e20: 54 01 00 00 11 00 00 00         T.......

0000000080007e28 <.Lanon.b2771ea8856c935b2f61927167714103.148>:
80007e28: 20 5b 6b 65 72 6e 65 6c          [kernel
80007e30: 5d 20 74 72 61 70 20 73         ] trap s
80007e38: 74 61 63 6b 20 70 6f 69         tack poi
80007e40: 6e 74 65 72 20 77 61 73         nter was
80007e48: 20 c1 20 00 80 60 01 0a          . ..`..
80007e50: 00 00 00 00 00 00 00 00         ........

0000000080007e58 <.Lanon.b2771ea8856c935b2f61927167714103.149>:
80007e58: 5a 61 00 80 00 00 00 00         Za......
80007e60: 0b 00 00 00 00 00 00 00         ........
80007e68: 5d 01 00 00 1a 00 00 00         ].......

0000000080007e70 <.Lanon.b2771ea8856c935b2f61927167714103.150>:
80007e70: 29 5b 6b 65 72 6e 65 6c         )[kernel
80007e78: 5d 20 75 6e 65 78 70 65         ] unexpe
80007e80: 63 74 65 64 20 73 75 70         cted sup
80007e88: 65 72 76 69 73 6f 72 20         ervisor 
80007e90: 74 72 61 70 3a 20 70 69         trap: pi
80007e98: 64 3d c0 08 20 73 63 61         d=.. sca
80007ea0: 75 73 65 3d c1 20 00 80         use=. ..
80007ea8: 60 06 20 73 65 70 63 3d         `. sepc=
80007eb0: c1 20 00 80 60 07 20 73         . ..`. s
80007eb8: 74 76 61 6c 3d c1 20 00         tval=. .
80007ec0: 80 60 01 0a 00                  .`...

0000000080007ec5 <.Lanon.b2771ea8856c935b2f61927167714103.151>:
80007ec5: 5b 6b 65 72 6e 65 6c 5d         [kernel]
80007ecd: 20 62 6f 6f 74 65 64 20          booted 
80007ed5: 69 6e 20 53 2d 6d 6f 64         in S-mod
80007edd: 65 20 77 69 74 68 20 53         e with S
80007ee5: 76 33 39 20 65 6e 61 62         v39 enab
80007eed: 6c 65 64 0a                     led.

0000000080007ef1 <.Lanon.b2771ea8856c935b2f61927167714103.152>:
80007ef1: 5b 6b 65 72 6e 65 6c 5d         [kernel]
80007ef9: 20 4c 41 42 37 20 6b 65          LAB7 ke
80007f01: 72 6e 65 6c 20 74 61 73         rnel tas
80007f09: 6b 31 20 73 68 61 72 65         k1 share
80007f11: 64 20 6d 65 6d 6f 72 79         d memory
80007f19: 20 6d 61 70 70 69 6e 67          mapping
80007f21: 0a                              .

0000000080007f22 <.Lanon.b2771ea8856c935b2f61927167714103.153>:
80007f22: 1b 5b 6b 65 72 6e 65 6c         .[kernel
80007f2a: 5d 20 73 74 61 63 6b 20         ] stack 
80007f32: 74 6f 70 73 20 6b 65 72         tops ker
80007f3a: 6e 65 6c 3d c1 20 00 80         nel=. ..
80007f42: 60 0c 20 73 75 70 65 72         `. super
80007f4a: 76 69 73 6f 72 3d c1 20         visor=. 
80007f52: 00 80 60 09 20 6d 61 63         ..`. mac
80007f5a: 68 69 6e 65 3d c1 20 00         hine=. .
80007f62: 80 60 01 0a 00                  .`...

0000000080007f67 <.Lanon.b2771ea8856c935b2f61927167714103.156>:
80007f67: 29 5b 6b 65 72 6e 65 6c         )[kernel
80007f6f: 5d 20 69 6e 69 74 69 61         ] initia
80007f77: 6c 20 73 68 61 72 65 64         l shared
80007f7f: 20 74 61 72 67 65 74 20          target 
80007f87: 56 41 20 70 61 72 65 6e         VA paren
80007f8f: 74 3d c1 20 00 80 60 07         t=. ..`.
80007f97: 20 63 68 69 6c 64 3d c1          child=.
80007f9f: 20 00 80 60 01 0a 00             ..`...

0000000080007fa6 <.Lanon.b2771ea8856c935b2f61927167714103.159>:
80007fa6: 1f 5b 6b 65 72 6e 65 6c         .[kernel
80007fae: 5d 20 75 73 65 72 20 73         ] user s
80007fb6: 74 61 63 6b 20 72 61 6e         tack ran
80007fbe: 67 65 20 62 61 73 65 3d         ge base=
80007fc6: c1 20 00 80 60 05 20 74         . ..`. t
80007fce: 6f 70 3d c1 20 00 80 60         op=. ..`
80007fd6: 01 0a 00 00 00 00 00 00         ........
80007fde: 00 00                           ..

0000000080007fe0 <.Lanon.b2771ea8856c935b2f61927167714103.160>:
80007fe0: 5a 61 00 80 00 00 00 00         Za......
80007fe8: 0b 00 00 00 00 00 00 00         ........
80007ff0: 2d 01 00 00 09 00 00 00         -.......

0000000080007ff8 <.Lanon.536f2323b683c81b361b85010efd6979.10>:
80007ff8: 30 30 30 31 30 32 30 33         00010203
80008000: 30 34 30 35 30 36 30 37         04050607
80008008: 30 38 30 39 31 30 31 31         08091011
80008010: 31 32 31 33 31 34 31 35         12131415
80008018: 31 36 31 37 31 38 31 39         16171819
80008020: 32 30 32 31 32 32 32 33         20212223
80008028: 32 34 32 35 32 36 32 37         24252627
80008030: 32 38 32 39 33 30 33 31         28293031
80008038: 33 32 33 33 33 34 33 35         32333435
80008040: 33 36 33 37 33 38 33 39         36373839
80008048: 34 30 34 31 34 32 34 33         40414243
80008050: 34 34 34 35 34 36 34 37         44454647
80008058: 34 38 34 39 35 30 35 31         48495051
80008060: 35 32 35 33 35 34 35 35         52535455
80008068: 35 36 35 37 35 38 35 39         56575859
80008070: 36 30 36 31 36 32 36 33         60616263
80008078: 36 34 36 35 36 36 36 37         64656667
80008080: 36 38 36 39 37 30 37 31         68697071
80008088: 37 32 37 33 37 34 37 35         72737475
80008090: 37 36 37 37 37 38 37 39         76777879
80008098: 38 30 38 31 38 32 38 33         80818283
800080a0: 38 34 38 35 38 36 38 37         84858687
800080a8: 38 38 38 39 39 30 39 31         88899091
800080b0: 39 32 39 33 39 34 39 35         92939495
800080b8: 39 36 39 37 39 38 39 39         96979899

00000000800080c0 <.Lanon.536f2323b683c81b361b85010efd6979.22>:
800080c0: 09 64 00 80 00 00 00 00         .d......
800080c8: 4b 00 00 00 00 00 00 00         K.......
800080d0: 57 02 00 00 05 00 00 00         W.......

00000000800080d8 <.Lanon.536f2323b683c81b361b85010efd6979.31>:
800080d8: 30 78                           0x

00000000800080da <.Lanon.536f2323b683c81b361b85010efd6979.80>:
800080da: 61 74 74 65 6d 70 74 20         attempt 
800080e2: 74 6f 20 61 64 64 20 77         to add w
800080ea: 69 74 68 20 6f 76 65 72         ith over
800080f2: 66 6c 6f 77                     flow

00000000800080f6 <.Lanon.536f2323b683c81b361b85010efd6979.82>:
800080f6: 61 74 74 65 6d 70 74 20         attempt 
800080fe: 74 6f 20 6d 75 6c 74 69         to multi
80008106: 70 6c 79 20 77 69 74 68         ply with
8000810e: 20 6f 76 65 72 66 6c 6f          overflo
80008116: 77                              w

0000000080008117 <.Lanon.536f2323b683c81b361b85010efd6979.87>:
80008117: 61 74 74 65 6d 70 74 20         attempt 
8000811f: 74 6f 20 73 75 62 74 72         to subtr
80008127: 61 63 74 20 77 69 74 68         act with
8000812f: 20 6f 76 65 72 66 6c 6f          overflo
80008137: 77                              w

0000000080008138 <.Lanon.536f2323b683c81b361b85010efd6979.259>:
80008138: 61 74 74 65 6d 70 74 20         attempt 
80008140: 74 6f 20 64 69 76 69 64         to divid
80008148: 65 20 62 79 20 7a 65 72         e by zer
80008150: 6f 00 00 00 00 00 00 00         o.......

0000000080008158 <.Lanon.536f2323b683c81b361b85010efd6979.277>:
80008158: 57 65 00 80 00 00 00 00         We......
80008160: 4d 00 00 00 00 00 00 00         M.......
80008168: e1 00 00 00 05 00 00 00         ........

0000000080008170 <.Lanon.536f2323b683c81b361b85010efd6979.288>:
80008170: 6e 75 6c 6c 20 70 6f 69         null poi
80008178: 6e 74 65 72 20 64 65 72         nter der
80008180: 65 66 65 72 65 6e 63 65         eference
80008188: 20 6f 63 63 75 72 72 65          occurre
80008190: 64                              d

0000000080008191 <.Lanon.536f2323b683c81b361b85010efd6979.290>:
80008191: 3e 6d 69 73 61 6c 69 67         >misalig
80008199: 6e 65 64 20 70 6f 69 6e         ned poin
800081a1: 74 65 72 20 64 65 72 65         ter dere
800081a9: 66 65 72 65 6e 63 65 3a         ference:
800081b1: 20 61 64 64 72 65 73 73          address
800081b9: 20 6d 75 73 74 20 62 65          must be
800081c1: 20 61 20 6d 75 6c 74 69          a multi
800081c9: 70 6c 65 20 6f 66 20 c1         ple of .
800081d1: 20 00 80 60 08 20 62 75          ..`. bu
800081d9: 74 20 69 73 20 c1 20 00         t is . .
800081e1: 80 60 00                        .`.

00000000800081e4 <.Lanon.536f2323b683c81b361b85010efd6979.399>:
800081e4: 70 61 6e 69 63 6b 65 64         panicked
800081ec: 20 61 74 20                      at 

00000000800081f0 <.Lanon.536f2323b683c81b361b85010efd6979.400>:
800081f0: 3a 0a                           :.
