
lab5_kernel_task2:	file format elf64-littleriscv

Disassembly of section .text:

0000000080000000 <_start>:
80000000: 0000c117     	auipc	sp, 0xc
80000004: 7f010113     	addi	sp, sp, 0x7f0
80000008: 00004097     	auipc	ra, 0x4
8000000c: 5d8080e7     	jalr	0x5d8(ra) <start_kernel>
80000010: a001         	j	0x80000010 <_start+0x10>

0000000080000012 <_$LT$core..slice..iter..Iter$LT$T$GT$$u20$as$u20$core..iter..traits..iterator..Iterator$GT$::next::hdab5288858cb6961>:
80000012: 715d         	addi	sp, sp, -0x50
80000014: e42a         	sd	a0, 0x8(sp)
80000016: f42a         	sd	a0, 0x28(sp)
80000018: 4585         	li	a1, 0x1
8000001a: f82e         	sd	a1, 0x30(sp)
8000001c: fc2e         	sd	a1, 0x38(sp)
8000001e: 610c         	ld	a1, 0x0(a0)
80000020: e82e         	sd	a1, 0x10(sp)
80000022: e0ae         	sd	a1, 0x40(sp)
80000024: 6508         	ld	a0, 0x8(a0)
80000026: ec2a         	sd	a0, 0x18(sp)
80000028: e4aa         	sd	a0, 0x48(sp)
8000002a: a009         	j	0x8000002c <_$LT$core..slice..iter..Iter$LT$T$GT$$u20$as$u20$core..iter..traits..iterator..Iterator$GT$::next::hdab5288858cb6961+0x1a>
8000002c: 6542         	ld	a0, 0x10(sp)
8000002e: 65e2         	ld	a1, 0x18(sp)
80000030: 00b50863     	beq	a0, a1, 0x80000040 <_$LT$core..slice..iter..Iter$LT$T$GT$$u20$as$u20$core..iter..traits..iterator..Iterator$GT$::next::hdab5288858cb6961+0x2e>
80000034: a009         	j	0x80000036 <_$LT$core..slice..iter..Iter$LT$T$GT$$u20$as$u20$core..iter..traits..iterator..Iterator$GT$::next::hdab5288858cb6961+0x24>
80000036: 65a2         	ld	a1, 0x8(sp)
80000038: 6542         	ld	a0, 0x10(sp)
8000003a: 0505         	addi	a0, a0, 0x1
8000003c: e188         	sd	a0, 0x0(a1)
8000003e: a021         	j	0x80000046 <_$LT$core..slice..iter..Iter$LT$T$GT$$u20$as$u20$core..iter..traits..iterator..Iterator$GT$::next::hdab5288858cb6961+0x34>
80000040: 4501         	li	a0, 0x0
80000042: f02a         	sd	a0, 0x20(sp)
80000044: a039         	j	0x80000052 <_$LT$core..slice..iter..Iter$LT$T$GT$$u20$as$u20$core..iter..traits..iterator..Iterator$GT$::next::hdab5288858cb6961+0x40>
80000046: 6542         	ld	a0, 0x10(sp)
80000048: f02a         	sd	a0, 0x20(sp)
8000004a: a009         	j	0x8000004c <_$LT$core..slice..iter..Iter$LT$T$GT$$u20$as$u20$core..iter..traits..iterator..Iterator$GT$::next::hdab5288858cb6961+0x3a>
8000004c: 7502         	ld	a0, 0x20(sp)
8000004e: 6161         	addi	sp, sp, 0x50
80000050: 8082         	ret
80000052: bfed         	j	0x8000004c <_$LT$core..slice..iter..Iter$LT$T$GT$$u20$as$u20$core..iter..traits..iterator..Iterator$GT$::next::hdab5288858cb6961+0x3a>

0000000080000054 <core::hint::black_box::hd01a626d15615723>:
80000054: 1141         	addi	sp, sp, -0x10
80000056: e02a         	sd	a0, 0x0(sp)
80000058: e42a         	sd	a0, 0x8(sp)
8000005a: 0028         	addi	a0, sp, 0x8
8000005c: 6522         	ld	a0, 0x8(sp)
8000005e: 0141         	addi	sp, sp, 0x10
80000060: 8082         	ret

0000000080000062 <core::fmt::Arguments::as_statically_known_str::h724bd969c7049ed3>:
80000062: 7119         	addi	sp, sp, -0x80
80000064: fc86         	sd	ra, 0x78(sp)
80000066: ec2a         	sd	a0, 0x18(sp)
80000068: fc2a         	sd	a0, 0x38(sp)
8000006a: 6508         	ld	a0, 0x8(a0)
8000006c: f02a         	sd	a0, 0x20(sp)
8000006e: e0aa         	sd	a0, 0x40(sp)
80000070: 8905         	andi	a0, a0, 0x1
80000072: cd01         	beqz	a0, 0x8000008a <.Lpcrel_hi0>
80000074: a009         	j	0x80000076 <core::fmt::Arguments::as_statically_known_str::h724bd969c7049ed3+0x14>
80000076: 7502         	ld	a0, 0x20(sp)
80000078: 65e2         	ld	a1, 0x18(sp)
8000007a: 618c         	ld	a1, 0x0(a1)
8000007c: e42e         	sd	a1, 0x8(sp)
8000007e: e4ae         	sd	a1, 0x48(sp)
80000080: e8ae         	sd	a1, 0x50(sp)
80000082: 8105         	srli	a0, a0, 0x1
80000084: e82a         	sd	a0, 0x10(sp)
80000086: ecaa         	sd	a0, 0x58(sp)
80000088: a811         	j	0x8000009c <.Lpcrel_hi0+0x12>

000000008000008a <.Lpcrel_hi0>:
8000008a: 00006517     	auipc	a0, 0x6
8000008e: 42650513     	addi	a0, a0, 0x426
80000092: 610c         	ld	a1, 0x0(a0)
80000094: 6508         	ld	a0, 0x8(a0)
80000096: f42e         	sd	a1, 0x28(sp)
80000098: f82a         	sd	a0, 0x30(sp)
8000009a: a02d         	j	0x800000c4 <.Lpcrel_hi1+0x24>
8000009c: 66c2         	ld	a3, 0x10(sp)
8000009e: 6522         	ld	a0, 0x8(sp)

00000000800000a0 <.Lpcrel_hi1>:
800000a0: 00006597     	auipc	a1, 0x6
800000a4: 3d858713     	addi	a4, a1, 0x3d8
800000a8: 4605         	li	a2, 0x1
800000aa: 85b2         	mv	a1, a2
800000ac: 00000097     	auipc	ra, 0x0
800000b0: 2fe080e7     	jalr	0x2fe(ra) <core::slice::raw::from_raw_parts::precondition_check::h9d5f026691cd376b>
800000b4: a009         	j	0x800000b6 <.Lpcrel_hi1+0x16>
800000b6: 6542         	ld	a0, 0x10(sp)
800000b8: 65a2         	ld	a1, 0x8(sp)
800000ba: f0ae         	sd	a1, 0x60(sp)
800000bc: f4aa         	sd	a0, 0x68(sp)
800000be: f42e         	sd	a1, 0x28(sp)
800000c0: f82a         	sd	a0, 0x30(sp)
800000c2: a009         	j	0x800000c4 <.Lpcrel_hi1+0x24>
800000c4: 4501         	li	a0, 0x0
800000c6: 06a10ba3     	sb	a0, 0x77(sp)
800000ca: 07714503     	lbu	a0, 0x77(sp)
800000ce: 8905         	andi	a0, a0, 0x1
800000d0: e919         	bnez	a0, 0x800000e6 <.Lpcrel_hi2+0x12>
800000d2: a009         	j	0x800000d4 <.Lpcrel_hi2>

00000000800000d4 <.Lpcrel_hi2>:
800000d4: 00006517     	auipc	a0, 0x6
800000d8: 3dc50513     	addi	a0, a0, 0x3dc
800000dc: 610c         	ld	a1, 0x0(a0)
800000de: 6508         	ld	a0, 0x8(a0)
800000e0: f42e         	sd	a1, 0x28(sp)
800000e2: f82a         	sd	a0, 0x30(sp)
800000e4: a011         	j	0x800000e8 <.Lpcrel_hi2+0x14>
800000e6: a009         	j	0x800000e8 <.Lpcrel_hi2+0x14>
800000e8: 7522         	ld	a0, 0x28(sp)
800000ea: 75c2         	ld	a1, 0x30(sp)
800000ec: 70e6         	ld	ra, 0x78(sp)
800000ee: 6109         	addi	sp, sp, 0x80
800000f0: 8082         	ret

00000000800000f2 <core::fmt::Arguments::from_str::h33e5b7cf62654f3d>:
800000f2: 1141         	addi	sp, sp, -0x10
800000f4: e02a         	sd	a0, 0x0(sp)
800000f6: e42e         	sd	a1, 0x8(sp)
800000f8: 0586         	slli	a1, a1, 0x1
800000fa: 0585         	addi	a1, a1, 0x1
800000fc: 0141         	addi	sp, sp, 0x10
800000fe: 8082         	ret

0000000080000100 <core::fmt::Write::write_char::h903c2260e96421a6>:
80000100: 711d         	addi	sp, sp, -0x60
80000102: ec86         	sd	ra, 0x58(sp)
80000104: e42e         	sd	a1, 0x8(sp)
80000106: 85aa         	mv	a1, a0
80000108: 6522         	ld	a0, 0x8(sp)
8000010a: e82e         	sd	a1, 0x10(sp)
8000010c: f42e         	sd	a1, 0x28(sp)
8000010e: da2a         	sw	a0, 0x34(sp)
80000110: 4581         	li	a1, 0x0
80000112: d22e         	sw	a1, 0x24(sp)
80000114: 104c         	addi	a1, sp, 0x24
80000116: fc2e         	sd	a1, 0x38(sp)
80000118: 4611         	li	a2, 0x4
8000011a: e0b2         	sd	a2, 0x40(sp)
8000011c: 00000097     	auipc	ra, 0x0
80000120: 7a4080e7     	jalr	0x7a4(ra) <core::char::methods::encode_utf8_raw::hcd809b0bcf5166a5>
80000124: 862a         	mv	a2, a0
80000126: 6542         	ld	a0, 0x10(sp)
80000128: ec32         	sd	a2, 0x18(sp)
8000012a: 862e         	mv	a2, a1
8000012c: 65e2         	ld	a1, 0x18(sp)
8000012e: e4ae         	sd	a1, 0x48(sp)
80000130: e8b2         	sd	a2, 0x50(sp)
80000132: 00000097     	auipc	ra, 0x0
80000136: 560080e7     	jalr	0x560(ra) <_$LT$lab5_kernel_task2..console..KernelConsole$u20$as$u20$core..fmt..Write$GT$::write_str::h2e27af52091498e4>
8000013a: 60e6         	ld	ra, 0x58(sp)
8000013c: 6125         	addi	sp, sp, 0x60
8000013e: 8082         	ret

0000000080000140 <core::fmt::Write::write_fmt::h8702a87065fcd469>:
80000140: 1101         	addi	sp, sp, -0x20
80000142: ec06         	sd	ra, 0x18(sp)
80000144: e02a         	sd	a0, 0x0(sp)
80000146: e42e         	sd	a1, 0x8(sp)
80000148: e832         	sd	a2, 0x10(sp)
8000014a: 00000097     	auipc	ra, 0x0
8000014e: 00e080e7     	jalr	0xe(ra) <_$LT$$RF$mut$u20$W$u20$as$u20$core..fmt..Write..write_fmt..SpecWriteFmt$GT$::spec_write_fmt::ha3c69366d3bee5fb>
80000152: 60e2         	ld	ra, 0x18(sp)
80000154: 6105         	addi	sp, sp, 0x20
80000156: 8082         	ret

0000000080000158 <_$LT$$RF$mut$u20$W$u20$as$u20$core..fmt..Write..write_fmt..SpecWriteFmt$GT$::spec_write_fmt::ha3c69366d3bee5fb>:
80000158: 715d         	addi	sp, sp, -0x50
8000015a: e486         	sd	ra, 0x48(sp)
8000015c: e02a         	sd	a0, 0x0(sp)
8000015e: e42e         	sd	a1, 0x8(sp)
80000160: e832         	sd	a2, 0x10(sp)
80000162: f82a         	sd	a0, 0x30(sp)
80000164: 0028         	addi	a0, sp, 0x8
80000166: 00000097     	auipc	ra, 0x0
8000016a: efc080e7     	jalr	-0x104(ra) <core::fmt::Arguments::as_statically_known_str::h724bd969c7049ed3>
8000016e: f02a         	sd	a0, 0x20(sp)
80000170: f42e         	sd	a1, 0x28(sp)
80000172: 7502         	ld	a0, 0x20(sp)
80000174: cd11         	beqz	a0, 0x80000190 <_$LT$$RF$mut$u20$W$u20$as$u20$core..fmt..Write..write_fmt..SpecWriteFmt$GT$::spec_write_fmt::ha3c69366d3bee5fb+0x38>
80000176: a009         	j	0x80000178 <_$LT$$RF$mut$u20$W$u20$as$u20$core..fmt..Write..write_fmt..SpecWriteFmt$GT$::spec_write_fmt::ha3c69366d3bee5fb+0x20>
80000178: 6502         	ld	a0, 0x0(sp)
8000017a: 7582         	ld	a1, 0x20(sp)
8000017c: 7622         	ld	a2, 0x28(sp)
8000017e: fc2e         	sd	a1, 0x38(sp)
80000180: e0b2         	sd	a2, 0x40(sp)
80000182: 00000097     	auipc	ra, 0x0
80000186: 510080e7     	jalr	0x510(ra) <_$LT$lab5_kernel_task2..console..KernelConsole$u20$as$u20$core..fmt..Write$GT$::write_str::h2e27af52091498e4>
8000018a: 00a10fa3     	sb	a0, 0x1f(sp)
8000018e: a839         	j	0x800001ac <.Lpcrel_hi0+0x16>
80000190: 6502         	ld	a0, 0x0(sp)
80000192: 6622         	ld	a2, 0x8(sp)
80000194: 66c2         	ld	a3, 0x10(sp)

0000000080000196 <.Lpcrel_hi0>:
80000196: 00006597     	auipc	a1, 0x6
8000019a: 34a58593     	addi	a1, a1, 0x34a
8000019e: 00005097     	auipc	ra, 0x5
800001a2: 09a080e7     	jalr	0x9a(ra) <core::fmt::write::hfd17e9e8e823b619>
800001a6: 00a10fa3     	sb	a0, 0x1f(sp)
800001aa: a009         	j	0x800001ac <.Lpcrel_hi0+0x16>
800001ac: 01f14503     	lbu	a0, 0x1f(sp)
800001b0: 60a6         	ld	ra, 0x48(sp)
800001b2: 6161         	addi	sp, sp, 0x50
800001b4: 8082         	ret

00000000800001b6 <core::ptr::read_volatile::h735d9ea130329fbb>:
800001b6: 7179         	addi	sp, sp, -0x30
800001b8: f406         	sd	ra, 0x28(sp)
800001ba: e42e         	sd	a1, 0x8(sp)
800001bc: e82a         	sd	a0, 0x10(sp)
800001be: ec2a         	sd	a0, 0x18(sp)
800001c0: a009         	j	0x800001c2 <core::ptr::read_volatile::h735d9ea130329fbb+0xc>
800001c2: 6622         	ld	a2, 0x8(sp)
800001c4: 6542         	ld	a0, 0x10(sp)
800001c6: 45a1         	li	a1, 0x8
800001c8: 00005097     	auipc	ra, 0x5
800001cc: a36080e7     	jalr	-0x5ca(ra) <core::ptr::read_volatile::precondition_check::h60ba63c3a2e12304>
800001d0: a009         	j	0x800001d2 <core::ptr::read_volatile::h735d9ea130329fbb+0x1c>
800001d2: 6542         	ld	a0, 0x10(sp)
800001d4: 6108         	ld	a0, 0x0(a0)
800001d6: f02a         	sd	a0, 0x20(sp)
800001d8: 7502         	ld	a0, 0x20(sp)
800001da: 70a2         	ld	ra, 0x28(sp)
800001dc: 6145         	addi	sp, sp, 0x30
800001de: 8082         	ret

00000000800001e0 <core::ptr::write_volatile::h1a7ca57e34fee515>:
800001e0: 7179         	addi	sp, sp, -0x30
800001e2: f406         	sd	ra, 0x28(sp)
800001e4: e032         	sd	a2, 0x0(sp)
800001e6: e42a         	sd	a0, 0x8(sp)
800001e8: 862e         	mv	a2, a1
800001ea: e832         	sd	a2, 0x10(sp)
800001ec: ec2a         	sd	a0, 0x18(sp)
800001ee: d22e         	sw	a1, 0x24(sp)
800001f0: a009         	j	0x800001f2 <core::ptr::write_volatile::h1a7ca57e34fee515+0x12>
800001f2: 6602         	ld	a2, 0x0(sp)
800001f4: 6522         	ld	a0, 0x8(sp)
800001f6: 4591         	li	a1, 0x4
800001f8: 00005097     	auipc	ra, 0x5
800001fc: a42080e7     	jalr	-0x5be(ra) <core::ptr::write_volatile::precondition_check::h91f669644c53b684>
80000200: a009         	j	0x80000202 <core::ptr::write_volatile::h1a7ca57e34fee515+0x22>
80000202: 6542         	ld	a0, 0x10(sp)
80000204: 65a2         	ld	a1, 0x8(sp)
80000206: c188         	sw	a0, 0x0(a1)
80000208: 70a2         	ld	ra, 0x28(sp)
8000020a: 6145         	addi	sp, sp, 0x30
8000020c: 8082         	ret

000000008000020e <core::ptr::write_volatile::h4e60e2f38ee812c7>:
8000020e: 7179         	addi	sp, sp, -0x30
80000210: f406         	sd	ra, 0x28(sp)
80000212: e032         	sd	a2, 0x0(sp)
80000214: e42e         	sd	a1, 0x8(sp)
80000216: e82a         	sd	a0, 0x10(sp)
80000218: ec2a         	sd	a0, 0x18(sp)
8000021a: f02e         	sd	a1, 0x20(sp)
8000021c: a009         	j	0x8000021e <core::ptr::write_volatile::h4e60e2f38ee812c7+0x10>
8000021e: 6602         	ld	a2, 0x0(sp)
80000220: 6542         	ld	a0, 0x10(sp)
80000222: 45a1         	li	a1, 0x8
80000224: 00005097     	auipc	ra, 0x5
80000228: a16080e7     	jalr	-0x5ea(ra) <core::ptr::write_volatile::precondition_check::h91f669644c53b684>
8000022c: a009         	j	0x8000022e <core::ptr::write_volatile::h4e60e2f38ee812c7+0x20>
8000022e: 6522         	ld	a0, 0x8(sp)
80000230: 65c2         	ld	a1, 0x10(sp)
80000232: e188         	sd	a0, 0x0(a1)
80000234: 70a2         	ld	ra, 0x28(sp)
80000236: 6145         	addi	sp, sp, 0x30
80000238: 8082         	ret

000000008000023a <core::ptr::write_volatile::hc470b35c0bd2f649>:
8000023a: 7179         	addi	sp, sp, -0x30
8000023c: f406         	sd	ra, 0x28(sp)
8000023e: e032         	sd	a2, 0x0(sp)
80000240: e42a         	sd	a0, 0x8(sp)
80000242: 862e         	mv	a2, a1
80000244: e832         	sd	a2, 0x10(sp)
80000246: ec2a         	sd	a0, 0x18(sp)
80000248: 02b103a3     	sb	a1, 0x27(sp)
8000024c: a009         	j	0x8000024e <core::ptr::write_volatile::hc470b35c0bd2f649+0x14>
8000024e: 6602         	ld	a2, 0x0(sp)
80000250: 6522         	ld	a0, 0x8(sp)
80000252: 4585         	li	a1, 0x1
80000254: 00005097     	auipc	ra, 0x5
80000258: 9e6080e7     	jalr	-0x61a(ra) <core::ptr::write_volatile::precondition_check::h91f669644c53b684>
8000025c: a009         	j	0x8000025e <core::ptr::write_volatile::hc470b35c0bd2f649+0x24>
8000025e: 6542         	ld	a0, 0x10(sp)
80000260: 65a2         	ld	a1, 0x8(sp)
80000262: 00a58023     	sb	a0, 0x0(a1)
80000266: 70a2         	ld	ra, 0x28(sp)
80000268: 6145         	addi	sp, sp, 0x30
8000026a: 8082         	ret

000000008000026c <core::fmt::rt::Argument::new_display::h009018ea15ddc750>:
8000026c: 1101         	addi	sp, sp, -0x20
8000026e: e02e         	sd	a1, 0x0(sp)
80000270: 85aa         	mv	a1, a0
80000272: 6502         	ld	a0, 0x0(sp)
80000274: ec2a         	sd	a0, 0x18(sp)
80000276: e42a         	sd	a0, 0x8(sp)

0000000080000278 <.Lpcrel_hi0>:
80000278: 00005517     	auipc	a0, 0x5
8000027c: ec050513     	addi	a0, a0, -0x140
80000280: e82a         	sd	a0, 0x10(sp)
80000282: 6542         	ld	a0, 0x10(sp)
80000284: e588         	sd	a0, 0x8(a1)
80000286: 6522         	ld	a0, 0x8(sp)
80000288: e188         	sd	a0, 0x0(a1)
8000028a: 6105         	addi	sp, sp, 0x20
8000028c: 8082         	ret

000000008000028e <core::fmt::rt::Argument::new_display::h52645e11b6055522>:
8000028e: 1101         	addi	sp, sp, -0x20
80000290: e02e         	sd	a1, 0x0(sp)
80000292: 85aa         	mv	a1, a0
80000294: 6502         	ld	a0, 0x0(sp)
80000296: ec2a         	sd	a0, 0x18(sp)
80000298: e42a         	sd	a0, 0x8(sp)

000000008000029a <.Lpcrel_hi1>:
8000029a: 00005517     	auipc	a0, 0x5
8000029e: e9e50513     	addi	a0, a0, -0x162
800002a2: e82a         	sd	a0, 0x10(sp)
800002a4: 6542         	ld	a0, 0x10(sp)
800002a6: e588         	sd	a0, 0x8(a1)
800002a8: 6522         	ld	a0, 0x8(sp)
800002aa: e188         	sd	a0, 0x0(a1)
800002ac: 6105         	addi	sp, sp, 0x20
800002ae: 8082         	ret

00000000800002b0 <core::fmt::rt::Argument::new_display::h96dbad3eeb62c0a8>:
800002b0: 1101         	addi	sp, sp, -0x20
800002b2: e02e         	sd	a1, 0x0(sp)
800002b4: 85aa         	mv	a1, a0
800002b6: 6502         	ld	a0, 0x0(sp)
800002b8: ec2a         	sd	a0, 0x18(sp)
800002ba: e42a         	sd	a0, 0x8(sp)

00000000800002bc <.Lpcrel_hi2>:
800002bc: 00005517     	auipc	a0, 0x5
800002c0: 9bc50513     	addi	a0, a0, -0x644
800002c4: e82a         	sd	a0, 0x10(sp)
800002c6: 6542         	ld	a0, 0x10(sp)
800002c8: e588         	sd	a0, 0x8(a1)
800002ca: 6522         	ld	a0, 0x8(sp)
800002cc: e188         	sd	a0, 0x0(a1)
800002ce: 6105         	addi	sp, sp, 0x20
800002d0: 8082         	ret

00000000800002d2 <core::fmt::rt::Argument::new_display::h9a2f84ed02840749>:
800002d2: 1101         	addi	sp, sp, -0x20
800002d4: e02e         	sd	a1, 0x0(sp)
800002d6: 85aa         	mv	a1, a0
800002d8: 6502         	ld	a0, 0x0(sp)
800002da: ec2a         	sd	a0, 0x18(sp)
800002dc: e42a         	sd	a0, 0x8(sp)

00000000800002de <.Lpcrel_hi3>:
800002de: 00005517     	auipc	a0, 0x5
800002e2: 9c250513     	addi	a0, a0, -0x63e
800002e6: e82a         	sd	a0, 0x10(sp)
800002e8: 6542         	ld	a0, 0x10(sp)
800002ea: e588         	sd	a0, 0x8(a1)
800002ec: 6522         	ld	a0, 0x8(sp)
800002ee: e188         	sd	a0, 0x0(a1)
800002f0: 6105         	addi	sp, sp, 0x20
800002f2: 8082         	ret

00000000800002f4 <core::fmt::rt::Argument::new_display::hdf5d30e07b2a6dbf>:
800002f4: 1101         	addi	sp, sp, -0x20
800002f6: e02e         	sd	a1, 0x0(sp)
800002f8: 85aa         	mv	a1, a0
800002fa: 6502         	ld	a0, 0x0(sp)
800002fc: ec2a         	sd	a0, 0x18(sp)
800002fe: e42a         	sd	a0, 0x8(sp)

0000000080000300 <.Lpcrel_hi4>:
80000300: 00004517     	auipc	a0, 0x4
80000304: 75250513     	addi	a0, a0, 0x752
80000308: e82a         	sd	a0, 0x10(sp)
8000030a: 6542         	ld	a0, 0x10(sp)
8000030c: e588         	sd	a0, 0x8(a1)
8000030e: 6522         	ld	a0, 0x8(sp)
80000310: e188         	sd	a0, 0x0(a1)
80000312: 6105         	addi	sp, sp, 0x20
80000314: 8082         	ret

0000000080000316 <core::fmt::rt::Argument::new_lower_hex::h6cee035c80be4cc2>:
80000316: 1101         	addi	sp, sp, -0x20
80000318: e02e         	sd	a1, 0x0(sp)
8000031a: 85aa         	mv	a1, a0
8000031c: 6502         	ld	a0, 0x0(sp)
8000031e: ec2a         	sd	a0, 0x18(sp)
80000320: e42a         	sd	a0, 0x8(sp)

0000000080000322 <.Lpcrel_hi5>:
80000322: 00005517     	auipc	a0, 0x5
80000326: e6250513     	addi	a0, a0, -0x19e
8000032a: e82a         	sd	a0, 0x10(sp)
8000032c: 6542         	ld	a0, 0x10(sp)
8000032e: e588         	sd	a0, 0x8(a1)
80000330: 6522         	ld	a0, 0x8(sp)
80000332: e188         	sd	a0, 0x0(a1)
80000334: 6105         	addi	sp, sp, 0x20
80000336: 8082         	ret

0000000080000338 <core::fmt::rt::Argument::new_lower_hex::hef62858e56d66e45>:
80000338: 1101         	addi	sp, sp, -0x20
8000033a: e02e         	sd	a1, 0x0(sp)
8000033c: 85aa         	mv	a1, a0
8000033e: 6502         	ld	a0, 0x0(sp)
80000340: ec2a         	sd	a0, 0x18(sp)
80000342: e42a         	sd	a0, 0x8(sp)

0000000080000344 <.Lpcrel_hi6>:
80000344: 00005517     	auipc	a0, 0x5
80000348: e4050513     	addi	a0, a0, -0x1c0
8000034c: e82a         	sd	a0, 0x10(sp)
8000034e: 6542         	ld	a0, 0x10(sp)
80000350: e588         	sd	a0, 0x8(a1)
80000352: 6522         	ld	a0, 0x8(sp)
80000354: e188         	sd	a0, 0x0(a1)
80000356: 6105         	addi	sp, sp, 0x20
80000358: 8082         	ret

000000008000035a <_$LT$usize$u20$as$u20$core..iter..range..Step$GT$::forward_unchecked::h16c326299b613604>:
8000035a: 7179         	addi	sp, sp, -0x30
8000035c: f406         	sd	ra, 0x28(sp)
8000035e: e42e         	sd	a1, 0x8(sp)
80000360: e82a         	sd	a0, 0x10(sp)
80000362: ec2a         	sd	a0, 0x18(sp)
80000364: f02e         	sd	a1, 0x20(sp)
80000366: a009         	j	0x80000368 <_$LT$usize$u20$as$u20$core..iter..range..Step$GT$::forward_unchecked::h16c326299b613604+0xe>
80000368: 65a2         	ld	a1, 0x8(sp)
8000036a: 6542         	ld	a0, 0x10(sp)

000000008000036c <.Lpcrel_hi0>:
8000036c: 00006617     	auipc	a2, 0x6
80000370: 1a460613     	addi	a2, a2, 0x1a4
80000374: 00000097     	auipc	ra, 0x0
80000378: 3be080e7     	jalr	0x3be(ra) <core::num::_$LT$impl$u20$usize$GT$::unchecked_add::precondition_check::h8fb794fff4da6a97>
8000037c: a009         	j	0x8000037e <.Lpcrel_hi0+0x12>
8000037e: 6542         	ld	a0, 0x10(sp)
80000380: 65a2         	ld	a1, 0x8(sp)
80000382: 952e         	add	a0, a0, a1
80000384: 70a2         	ld	ra, 0x28(sp)
80000386: 6145         	addi	sp, sp, 0x30
80000388: 8082         	ret

000000008000038a <core::intrinsics::rotate_left::hdc95b720462795f7>:
8000038a: 1101         	addi	sp, sp, -0x20
8000038c: 86ae         	mv	a3, a1
8000038e: 85aa         	mv	a1, a0
80000390: e42e         	sd	a1, 0x8(sp)
80000392: ca36         	sw	a3, 0x14(sp)
80000394: 00d59533     	sll	a0, a1, a3
80000398: 4601         	li	a2, 0x0
8000039a: 9e15         	subw	a2, a2, a3
8000039c: 00c5d5b3     	srl	a1, a1, a2
800003a0: 8d4d         	or	a0, a0, a1
800003a2: ec2a         	sd	a0, 0x18(sp)
800003a4: 6562         	ld	a0, 0x18(sp)
800003a6: 6105         	addi	sp, sp, 0x20
800003a8: 8082         	ret

00000000800003aa <core::slice::raw::from_raw_parts::precondition_check::h9d5f026691cd376b>:
800003aa: 7119         	addi	sp, sp, -0x80
800003ac: fc86         	sd	ra, 0x78(sp)
800003ae: e43a         	sd	a4, 0x8(sp)
800003b0: e836         	sd	a3, 0x10(sp)
800003b2: ec32         	sd	a2, 0x18(sp)
800003b4: 862e         	mv	a2, a1
800003b6: 65e2         	ld	a1, 0x18(sp)
800003b8: f032         	sd	a2, 0x20(sp)
800003ba: f42a         	sd	a0, 0x28(sp)
800003bc: fc2a         	sd	a0, 0x38(sp)
800003be: e0b2         	sd	a2, 0x40(sp)
800003c0: e4ae         	sd	a1, 0x48(sp)
800003c2: e8b6         	sd	a3, 0x50(sp)
800003c4: 4601         	li	a2, 0x0
800003c6: 04c10fa3     	sb	a2, 0x5f(sp)
800003ca: f0aa         	sd	a0, 0x60(sp)
800003cc: 00004097     	auipc	ra, 0x4
800003d0: 5e4080e7     	jalr	0x5e4(ra) <core::ptr::const_ptr::_$LT$impl$u20$$BP$const$u20$T$GT$::is_aligned_to::h6d1f60a52017d9e5>
800003d4: e119         	bnez	a0, 0x800003da <core::slice::raw::from_raw_parts::precondition_check::h9d5f026691cd376b+0x30>
800003d6: a009         	j	0x800003d8 <core::slice::raw::from_raw_parts::precondition_check::h9d5f026691cd376b+0x2e>
800003d8: a021         	j	0x800003e0 <core::slice::raw::from_raw_parts::precondition_check::h9d5f026691cd376b+0x36>
800003da: 7522         	ld	a0, 0x28(sp)
800003dc: e119         	bnez	a0, 0x800003e2 <core::slice::raw::from_raw_parts::precondition_check::h9d5f026691cd376b+0x38>
800003de: a009         	j	0x800003e0 <core::slice::raw::from_raw_parts::precondition_check::h9d5f026691cd376b+0x36>
800003e0: a039         	j	0x800003ee <core::slice::raw::from_raw_parts::precondition_check::h9d5f026691cd376b+0x44>
800003e2: 7502         	ld	a0, 0x20(sp)
800003e4: 00153593     	seqz	a1, a0
800003e8: e02e         	sd	a1, 0x0(sp)
800003ea: c115         	beqz	a0, 0x8000040e <.Lpcrel_hi0+0x1e>
800003ec: a025         	j	0x80000414 <.Lpcrel_hi0+0x24>
800003ee: 66a2         	ld	a3, 0x8(sp)

00000000800003f0 <.Lpcrel_hi0>:
800003f0: 00006517     	auipc	a0, 0x6
800003f4: 15050513     	addi	a0, a0, 0x150
800003f8: f4aa         	sd	a0, 0x68(sp)
800003fa: 11700593     	li	a1, 0x117
800003fe: f8ae         	sd	a1, 0x70(sp)
80000400: 22f00593     	li	a1, 0x22f
80000404: 4601         	li	a2, 0x0
80000406: 00005097     	auipc	ra, 0x5
8000040a: 6a2080e7     	jalr	0x6a2(ra) <core::panicking::panic_nounwind_fmt::h2e018e50a8d3bc73>
8000040e: 557d         	li	a0, -0x1
80000410: f82a         	sd	a0, 0x30(sp)
80000412: a029         	j	0x8000041c <.Lpcrel_hi0+0x2c>
80000414: 6502         	ld	a0, 0x0(sp)
80000416: 8905         	andi	a0, a0, 0x1
80000418: ed11         	bnez	a0, 0x80000434 <.Lpcrel_hi1>
8000041a: a031         	j	0x80000426 <.Lpcrel_hi0+0x36>
8000041c: 65c2         	ld	a1, 0x10(sp)
8000041e: 7542         	ld	a0, 0x30(sp)
80000420: 02b57363     	bgeu	a0, a1, 0x80000446 <.Lpcrel_hi1+0x12>
80000424: a005         	j	0x80000444 <.Lpcrel_hi1+0x10>
80000426: 7582         	ld	a1, 0x20(sp)
80000428: 557d         	li	a0, -0x1
8000042a: 8105         	srli	a0, a0, 0x1
8000042c: 02b55533     	divu	a0, a0, a1
80000430: f82a         	sd	a0, 0x30(sp)
80000432: b7ed         	j	0x8000041c <.Lpcrel_hi0+0x2c>

0000000080000434 <.Lpcrel_hi1>:
80000434: 00006517     	auipc	a0, 0x6
80000438: 0f450513     	addi	a0, a0, 0xf4
8000043c: 00005097     	auipc	ra, 0x5
80000440: 5d6080e7     	jalr	0x5d6(ra) <core::panicking::panic_const::panic_const_div_by_zero::hcfde4c26e8ecfc4b>
80000444: b76d         	j	0x800003ee <core::slice::raw::from_raw_parts::precondition_check::h9d5f026691cd376b+0x44>
80000446: 70e6         	ld	ra, 0x78(sp)
80000448: 6109         	addi	sp, sp, 0x80
8000044a: 8082         	ret

000000008000044c <core::slice::raw::from_raw_parts_mut::precondition_check::h7219f5c4955abc6b>:
8000044c: 7119         	addi	sp, sp, -0x80
8000044e: fc86         	sd	ra, 0x78(sp)
80000450: e43a         	sd	a4, 0x8(sp)
80000452: e836         	sd	a3, 0x10(sp)
80000454: ec32         	sd	a2, 0x18(sp)
80000456: 862e         	mv	a2, a1
80000458: 65e2         	ld	a1, 0x18(sp)
8000045a: f032         	sd	a2, 0x20(sp)
8000045c: f42a         	sd	a0, 0x28(sp)
8000045e: fc2a         	sd	a0, 0x38(sp)
80000460: e0b2         	sd	a2, 0x40(sp)
80000462: e4ae         	sd	a1, 0x48(sp)
80000464: e8b6         	sd	a3, 0x50(sp)
80000466: 4601         	li	a2, 0x0
80000468: 04c10fa3     	sb	a2, 0x5f(sp)
8000046c: f0aa         	sd	a0, 0x60(sp)
8000046e: 00004097     	auipc	ra, 0x4
80000472: 542080e7     	jalr	0x542(ra) <core::ptr::const_ptr::_$LT$impl$u20$$BP$const$u20$T$GT$::is_aligned_to::h6d1f60a52017d9e5>
80000476: e119         	bnez	a0, 0x8000047c <core::slice::raw::from_raw_parts_mut::precondition_check::h7219f5c4955abc6b+0x30>
80000478: a009         	j	0x8000047a <core::slice::raw::from_raw_parts_mut::precondition_check::h7219f5c4955abc6b+0x2e>
8000047a: a021         	j	0x80000482 <core::slice::raw::from_raw_parts_mut::precondition_check::h7219f5c4955abc6b+0x36>
8000047c: 7522         	ld	a0, 0x28(sp)
8000047e: e119         	bnez	a0, 0x80000484 <core::slice::raw::from_raw_parts_mut::precondition_check::h7219f5c4955abc6b+0x38>
80000480: a009         	j	0x80000482 <core::slice::raw::from_raw_parts_mut::precondition_check::h7219f5c4955abc6b+0x36>
80000482: a039         	j	0x80000490 <core::slice::raw::from_raw_parts_mut::precondition_check::h7219f5c4955abc6b+0x44>
80000484: 7502         	ld	a0, 0x20(sp)
80000486: 00153593     	seqz	a1, a0
8000048a: e02e         	sd	a1, 0x0(sp)
8000048c: c115         	beqz	a0, 0x800004b0 <.Lpcrel_hi2+0x1e>
8000048e: a025         	j	0x800004b6 <.Lpcrel_hi2+0x24>
80000490: 66a2         	ld	a3, 0x8(sp)

0000000080000492 <.Lpcrel_hi2>:
80000492: 00006517     	auipc	a0, 0x6
80000496: 1c550513     	addi	a0, a0, 0x1c5
8000049a: f4aa         	sd	a0, 0x68(sp)
8000049c: 11b00593     	li	a1, 0x11b
800004a0: f8ae         	sd	a1, 0x70(sp)
800004a2: 23700593     	li	a1, 0x237
800004a6: 4601         	li	a2, 0x0
800004a8: 00005097     	auipc	ra, 0x5
800004ac: 600080e7     	jalr	0x600(ra) <core::panicking::panic_nounwind_fmt::h2e018e50a8d3bc73>
800004b0: 557d         	li	a0, -0x1
800004b2: f82a         	sd	a0, 0x30(sp)
800004b4: a029         	j	0x800004be <.Lpcrel_hi2+0x2c>
800004b6: 6502         	ld	a0, 0x0(sp)
800004b8: 8905         	andi	a0, a0, 0x1
800004ba: ed11         	bnez	a0, 0x800004d6 <.Lpcrel_hi3>
800004bc: a031         	j	0x800004c8 <.Lpcrel_hi2+0x36>
800004be: 65c2         	ld	a1, 0x10(sp)
800004c0: 7542         	ld	a0, 0x30(sp)
800004c2: 02b57363     	bgeu	a0, a1, 0x800004e8 <.Lpcrel_hi3+0x12>
800004c6: a005         	j	0x800004e6 <.Lpcrel_hi3+0x10>
800004c8: 7582         	ld	a1, 0x20(sp)
800004ca: 557d         	li	a0, -0x1
800004cc: 8105         	srli	a0, a0, 0x1
800004ce: 02b55533     	divu	a0, a0, a1
800004d2: f82a         	sd	a0, 0x30(sp)
800004d4: b7ed         	j	0x800004be <.Lpcrel_hi2+0x2c>

00000000800004d6 <.Lpcrel_hi3>:
800004d6: 00006517     	auipc	a0, 0x6
800004da: 05250513     	addi	a0, a0, 0x52
800004de: 00005097     	auipc	ra, 0x5
800004e2: 534080e7     	jalr	0x534(ra) <core::panicking::panic_const::panic_const_div_by_zero::hcfde4c26e8ecfc4b>
800004e6: b76d         	j	0x80000490 <core::slice::raw::from_raw_parts_mut::precondition_check::h7219f5c4955abc6b+0x44>
800004e8: 70e6         	ld	ra, 0x78(sp)
800004ea: 6109         	addi	sp, sp, 0x80
800004ec: 8082         	ret

00000000800004ee <_$LT$core..str..iter..Bytes$u20$as$u20$core..iter..traits..iterator..Iterator$GT$::next::h6bc9b941a17430bd>:
800004ee: 7179         	addi	sp, sp, -0x30
800004f0: f406         	sd	ra, 0x28(sp)
800004f2: ec2a         	sd	a0, 0x18(sp)
800004f4: 00000097     	auipc	ra, 0x0
800004f8: b1e080e7     	jalr	-0x4e2(ra) <_$LT$core..slice..iter..Iter$LT$T$GT$$u20$as$u20$core..iter..traits..iterator..Iterator$GT$::next::hdab5288858cb6961>
800004fc: e82a         	sd	a0, 0x10(sp)
800004fe: 6542         	ld	a0, 0x10(sp)
80000500: cd09         	beqz	a0, 0x8000051a <.Lpcrel_hi0>
80000502: a009         	j	0x80000504 <_$LT$core..str..iter..Bytes$u20$as$u20$core..iter..traits..iterator..Iterator$GT$::next::h6bc9b941a17430bd+0x16>
80000504: 6542         	ld	a0, 0x10(sp)
80000506: 00054503     	lbu	a0, 0x0(a0)
8000050a: 02a103a3     	sb	a0, 0x27(sp)
8000050e: 00a107a3     	sb	a0, 0xf(sp)
80000512: 4505         	li	a0, 0x1
80000514: 00a10723     	sb	a0, 0xe(sp)
80000518: a831         	j	0x80000534 <.Lpcrel_hi0+0x1a>

000000008000051a <.Lpcrel_hi0>:
8000051a: 00006517     	auipc	a0, 0x6
8000051e: 25850513     	addi	a0, a0, 0x258
80000522: 00054583     	lbu	a1, 0x0(a0)
80000526: 00154503     	lbu	a0, 0x1(a0)
8000052a: 00b10723     	sb	a1, 0xe(sp)
8000052e: 00a107a3     	sb	a0, 0xf(sp)
80000532: a009         	j	0x80000534 <.Lpcrel_hi0+0x1a>
80000534: 00e14503     	lbu	a0, 0xe(sp)
80000538: 00f14583     	lbu	a1, 0xf(sp)
8000053c: 70a2         	ld	ra, 0x28(sp)
8000053e: 6145         	addi	sp, sp, 0x30
80000540: 8082         	ret

0000000080000542 <core::str::_$LT$impl$u20$str$GT$::bytes::h27dc50d175a9a498>:
80000542: 1141         	addi	sp, sp, -0x10
80000544: e02a         	sd	a0, 0x0(sp)
80000546: e42e         	sd	a1, 0x8(sp)
80000548: 95aa         	add	a1, a1, a0
8000054a: 0141         	addi	sp, sp, 0x10
8000054c: 8082         	ret

000000008000054e <lab5_kernel_task2::trap::read_mtval::he47d57f1c494c170>:
8000054e: 1141         	addi	sp, sp, -0x10
80000550: 34302573     	csrr	a0, mtval
80000554: e42a         	sd	a0, 0x8(sp)
80000556: 6522         	ld	a0, 0x8(sp)
80000558: 0141         	addi	sp, sp, 0x10
8000055a: 8082         	ret

000000008000055c <lab5_kernel_task2::trap::read_mcause::h5977fe7f30657357>:
8000055c: 1141         	addi	sp, sp, -0x10
8000055e: 34202573     	csrr	a0, mcause
80000562: e42a         	sd	a0, 0x8(sp)
80000564: 6522         	ld	a0, 0x8(sp)
80000566: 0141         	addi	sp, sp, 0x10
80000568: 8082         	ret

000000008000056a <lab5_kernel_task2::trap::init_trap_vector::h287c609ebfcd0724>:
8000056a: 00000517     	auipc	a0, 0x0
8000056e: 6c650513     	addi	a0, a0, 0x6c6
80000572: 30551073     	csrw	mtvec, a0
80000576: 8082         	ret

0000000080000578 <lab5_kernel_task2::trap::TrapFrame::zeroed::he93831fb0103f5e3>:
80000578: 7169         	addi	sp, sp, -0x130
8000057a: f606         	sd	ra, 0x128(sp)
8000057c: ec2a         	sd	a0, 0x18(sp)
8000057e: 1028         	addi	a0, sp, 0x28
80000580: e42a         	sd	a0, 0x8(sp)
80000582: 4581         	li	a1, 0x0
80000584: f02e         	sd	a1, 0x20(sp)
80000586: 10000613     	li	a2, 0x100
8000058a: e832         	sd	a2, 0x10(sp)
8000058c: 00005097     	auipc	ra, 0x5
80000590: 660080e7     	jalr	0x660(ra) <memset>
80000594: 65a2         	ld	a1, 0x8(sp)
80000596: 6642         	ld	a2, 0x10(sp)
80000598: 7682         	ld	a3, 0x20(sp)
8000059a: 6562         	ld	a0, 0x18(sp)
8000059c: e114         	sd	a3, 0x0(a0)
8000059e: e514         	sd	a3, 0x8(a0)
800005a0: e914         	sd	a3, 0x10(a0)
800005a2: ed14         	sd	a3, 0x18(a0)
800005a4: f114         	sd	a3, 0x20(a0)
800005a6: f514         	sd	a3, 0x28(a0)
800005a8: f914         	sd	a3, 0x30(a0)
800005aa: fd14         	sd	a3, 0x38(a0)
800005ac: e134         	sd	a3, 0x40(a0)
800005ae: e534         	sd	a3, 0x48(a0)
800005b0: e934         	sd	a3, 0x50(a0)
800005b2: ed34         	sd	a3, 0x58(a0)
800005b4: f134         	sd	a3, 0x60(a0)
800005b6: f534         	sd	a3, 0x68(a0)
800005b8: f934         	sd	a3, 0x70(a0)
800005ba: fd34         	sd	a3, 0x78(a0)
800005bc: e154         	sd	a3, 0x80(a0)
800005be: e554         	sd	a3, 0x88(a0)
800005c0: e954         	sd	a3, 0x90(a0)
800005c2: ed54         	sd	a3, 0x98(a0)
800005c4: f154         	sd	a3, 0xa0(a0)
800005c6: f554         	sd	a3, 0xa8(a0)
800005c8: f954         	sd	a3, 0xb0(a0)
800005ca: fd54         	sd	a3, 0xb8(a0)
800005cc: e174         	sd	a3, 0xc0(a0)
800005ce: e574         	sd	a3, 0xc8(a0)
800005d0: e974         	sd	a3, 0xd0(a0)
800005d2: ed74         	sd	a3, 0xd8(a0)
800005d4: f174         	sd	a3, 0xe0(a0)
800005d6: f574         	sd	a3, 0xe8(a0)
800005d8: f974         	sd	a3, 0xf0(a0)
800005da: fd74         	sd	a3, 0xf8(a0)
800005dc: 10050513     	addi	a0, a0, 0x100
800005e0: 00005097     	auipc	ra, 0x5
800005e4: 682080e7     	jalr	0x682(ra) <memcpy>
800005e8: 65e2         	ld	a1, 0x18(sp)
800005ea: 7502         	ld	a0, 0x20(sp)
800005ec: 20a5b023     	sd	a0, 0x200(a1)
800005f0: 20a5b423     	sd	a0, 0x208(a1)
800005f4: 70b2         	ld	ra, 0x128(sp)
800005f6: 6155         	addi	sp, sp, 0x130
800005f8: 8082         	ret

00000000800005fa <rust_handle_trap>:
800005fa: 1101         	addi	sp, sp, -0x20
800005fc: ec06         	sd	ra, 0x18(sp)
800005fe: e42a         	sd	a0, 0x8(sp)
80000600: e82a         	sd	a0, 0x10(sp)
80000602: 00000097     	auipc	ra, 0x0
80000606: f5a080e7     	jalr	-0xa6(ra) <lab5_kernel_task2::trap::read_mcause::h5977fe7f30657357>
8000060a: e02a         	sd	a0, 0x0(sp)
8000060c: 00000097     	auipc	ra, 0x0
80000610: f42080e7     	jalr	-0xbe(ra) <lab5_kernel_task2::trap::read_mtval::he47d57f1c494c170>
80000614: 6582         	ld	a1, 0x0(sp)
80000616: 862a         	mv	a2, a0
80000618: 6522         	ld	a0, 0x8(sp)
8000061a: 00001097     	auipc	ra, 0x1
8000061e: cb0080e7     	jalr	-0x350(ra) <lab5_kernel_task2::dispatch_trap::hf2d3bb563dfd4288>
80000622: 60e2         	ld	ra, 0x18(sp)
80000624: 6105         	addi	sp, sp, 0x20
80000626: 8082         	ret

0000000080000628 <lab5_kernel_task2::console::write_byte::h6f7d35d8465d13f5>:
80000628: 1101         	addi	sp, sp, -0x20
8000062a: ec06         	sd	ra, 0x18(sp)
8000062c: 85aa         	mv	a1, a0
8000062e: e42e         	sd	a1, 0x8(sp)
80000630: 00a10ba3     	sb	a0, 0x17(sp)
80000634: 45a9         	li	a1, 0xa
80000636: 02b50363     	beq	a0, a1, 0x8000065c <.Lpcrel_hi1>
8000063a: a009         	j	0x8000063c <lab5_kernel_task2::console::write_byte::h6f7d35d8465d13f5+0x14>
8000063c: 6522         	ld	a0, 0x8(sp)
8000063e: 0ff57593     	zext.b	a1, a0

0000000080000642 <.Lpcrel_hi0>:
80000642: 00006517     	auipc	a0, 0x6
80000646: 14e50613     	addi	a2, a0, 0x14e
8000064a: 10000537     	lui	a0, 0x10000
8000064e: 00000097     	auipc	ra, 0x0
80000652: bec080e7     	jalr	-0x414(ra) <core::ptr::write_volatile::hc470b35c0bd2f649>
80000656: 60e2         	ld	ra, 0x18(sp)
80000658: 6105         	addi	sp, sp, 0x20
8000065a: 8082         	ret

000000008000065c <.Lpcrel_hi1>:
8000065c: 00006517     	auipc	a0, 0x6
80000660: 11c50613     	addi	a2, a0, 0x11c
80000664: 10000537     	lui	a0, 0x10000
80000668: 45b5         	li	a1, 0xd
8000066a: 00000097     	auipc	ra, 0x0
8000066e: bd0080e7     	jalr	-0x430(ra) <core::ptr::write_volatile::hc470b35c0bd2f649>
80000672: b7e9         	j	0x8000063c <lab5_kernel_task2::console::write_byte::h6f7d35d8465d13f5+0x14>

0000000080000674 <lab5_kernel_task2::console::print::h64393a0152c60ab8>:
80000674: 7179         	addi	sp, sp, -0x30
80000676: f406         	sd	ra, 0x28(sp)
80000678: 862e         	mv	a2, a1
8000067a: 85aa         	mv	a1, a0
8000067c: e82e         	sd	a1, 0x10(sp)
8000067e: ec32         	sd	a2, 0x18(sp)
80000680: 00f10513     	addi	a0, sp, 0xf
80000684: 00000097     	auipc	ra, 0x0
80000688: abc080e7     	jalr	-0x544(ra) <core::fmt::Write::write_fmt::h8702a87065fcd469>
8000068c: 70a2         	ld	ra, 0x28(sp)
8000068e: 6145         	addi	sp, sp, 0x30
80000690: 8082         	ret

0000000080000692 <_$LT$lab5_kernel_task2..console..KernelConsole$u20$as$u20$core..fmt..Write$GT$::write_str::h2e27af52091498e4>:
80000692: 715d         	addi	sp, sp, -0x50
80000694: e486         	sd	ra, 0x48(sp)
80000696: e032         	sd	a2, 0x0(sp)
80000698: 862e         	mv	a2, a1
8000069a: 6582         	ld	a1, 0x0(sp)
8000069c: e432         	sd	a2, 0x8(sp)
8000069e: 862a         	mv	a2, a0
800006a0: 6522         	ld	a0, 0x8(sp)
800006a2: f432         	sd	a2, 0x28(sp)
800006a4: f82a         	sd	a0, 0x30(sp)
800006a6: fc2e         	sd	a1, 0x38(sp)
800006a8: 00000097     	auipc	ra, 0x0
800006ac: e9a080e7     	jalr	-0x166(ra) <core::str::_$LT$impl$u20$str$GT$::bytes::h27dc50d175a9a498>
800006b0: 00004097     	auipc	ra, 0x4
800006b4: 4ec080e7     	jalr	0x4ec(ra) <_$LT$I$u20$as$u20$core..iter..traits..collect..IntoIterator$GT$::into_iter::h2c50a8537f3b50c2>
800006b8: e82a         	sd	a0, 0x10(sp)
800006ba: ec2e         	sd	a1, 0x18(sp)
800006bc: a009         	j	0x800006be <_$LT$lab5_kernel_task2..console..KernelConsole$u20$as$u20$core..fmt..Write$GT$::write_str::h2e27af52091498e4+0x2c>
800006be: 0808         	addi	a0, sp, 0x10
800006c0: 00000097     	auipc	ra, 0x0
800006c4: e2e080e7     	jalr	-0x1d2(ra) <_$LT$core..str..iter..Bytes$u20$as$u20$core..iter..traits..iterator..Iterator$GT$::next::h6bc9b941a17430bd>
800006c8: 8905         	andi	a0, a0, 0x1
800006ca: 02a10323     	sb	a0, 0x26(sp)
800006ce: 02b103a3     	sb	a1, 0x27(sp)
800006d2: 02614503     	lbu	a0, 0x26(sp)
800006d6: 8905         	andi	a0, a0, 0x1
800006d8: c919         	beqz	a0, 0x800006ee <_$LT$lab5_kernel_task2..console..KernelConsole$u20$as$u20$core..fmt..Write$GT$::write_str::h2e27af52091498e4+0x5c>
800006da: a009         	j	0x800006dc <_$LT$lab5_kernel_task2..console..KernelConsole$u20$as$u20$core..fmt..Write$GT$::write_str::h2e27af52091498e4+0x4a>
800006dc: 02714503     	lbu	a0, 0x27(sp)
800006e0: 04a103a3     	sb	a0, 0x47(sp)
800006e4: 00000097     	auipc	ra, 0x0
800006e8: f44080e7     	jalr	-0xbc(ra) <lab5_kernel_task2::console::write_byte::h6f7d35d8465d13f5>
800006ec: bfc9         	j	0x800006be <_$LT$lab5_kernel_task2..console..KernelConsole$u20$as$u20$core..fmt..Write$GT$::write_str::h2e27af52091498e4+0x2c>
800006ee: 4501         	li	a0, 0x0
800006f0: 60a6         	ld	ra, 0x48(sp)
800006f2: 6161         	addi	sp, sp, 0x50
800006f4: 8082         	ret

00000000800006f6 <core::num::_$LT$impl$u20$u64$GT$::saturating_mul::h4f7d2614d44d18c4>:
800006f6: 7139         	addi	sp, sp, -0x40
800006f8: 86ae         	mv	a3, a1
800006fa: 862a         	mv	a2, a0
800006fc: f032         	sd	a2, 0x20(sp)
800006fe: f436         	sd	a3, 0x28(sp)
80000700: 02d63533     	mulhu	a0, a2, a3
80000704: 00a035b3     	snez	a1, a0
80000708: 02d60633     	mul	a2, a2, a3
8000070c: e032         	sd	a2, 0x0(sp)
8000070e: f832         	sd	a2, 0x30(sp)
80000710: 02b10fa3     	sb	a1, 0x3f(sp)
80000714: e909         	bnez	a0, 0x80000726 <core::num::_$LT$impl$u20$u64$GT$::saturating_mul::h4f7d2614d44d18c4+0x30>
80000716: a009         	j	0x80000718 <core::num::_$LT$impl$u20$u64$GT$::saturating_mul::h4f7d2614d44d18c4+0x22>
80000718: 6502         	ld	a0, 0x0(sp)
8000071a: ec2a         	sd	a0, 0x18(sp)
8000071c: 4505         	li	a0, 0x1
8000071e: e82a         	sd	a0, 0x10(sp)
80000720: 6562         	ld	a0, 0x18(sp)
80000722: e42a         	sd	a0, 0x8(sp)
80000724: a021         	j	0x8000072c <core::num::_$LT$impl$u20$u64$GT$::saturating_mul::h4f7d2614d44d18c4+0x36>
80000726: 557d         	li	a0, -0x1
80000728: e42a         	sd	a0, 0x8(sp)
8000072a: a009         	j	0x8000072c <core::num::_$LT$impl$u20$u64$GT$::saturating_mul::h4f7d2614d44d18c4+0x36>
8000072c: 6522         	ld	a0, 0x8(sp)
8000072e: 6121         	addi	sp, sp, 0x40
80000730: 8082         	ret

0000000080000732 <core::num::_$LT$impl$u20$usize$GT$::unchecked_add::precondition_check::h8fb794fff4da6a97>:
80000732: 7179         	addi	sp, sp, -0x30
80000734: e032         	sd	a2, 0x0(sp)
80000736: e42e         	sd	a1, 0x8(sp)
80000738: 85aa         	mv	a1, a0
8000073a: 6522         	ld	a0, 0x8(sp)
8000073c: e82e         	sd	a1, 0x10(sp)
8000073e: ec2a         	sd	a0, 0x18(sp)
80000740: 952e         	add	a0, a0, a1
80000742: 00b56563     	bltu	a0, a1, 0x8000074c <core::num::_$LT$impl$u20$usize$GT$::unchecked_add::precondition_check::h8fb794fff4da6a97+0x1a>
80000746: a009         	j	0x80000748 <core::num::_$LT$impl$u20$usize$GT$::unchecked_add::precondition_check::h8fb794fff4da6a97+0x16>
80000748: 6145         	addi	sp, sp, 0x30
8000074a: 8082         	ret
8000074c: 6682         	ld	a3, 0x0(sp)

000000008000074e <.Lpcrel_hi0>:
8000074e: 00006517     	auipc	a0, 0x6
80000752: 05a50513     	addi	a0, a0, 0x5a
80000756: f02a         	sd	a0, 0x20(sp)
80000758: 0ba00593     	li	a1, 0xba
8000075c: f42e         	sd	a1, 0x28(sp)
8000075e: 17500593     	li	a1, 0x175
80000762: 4601         	li	a2, 0x0
80000764: 00005097     	auipc	ra, 0x5
80000768: 344080e7     	jalr	0x344(ra) <core::panicking::panic_nounwind_fmt::h2e018e50a8d3bc73>

000000008000076c <core::cmp::PartialEq::ne::h719247edabdf4cc9>:
8000076c: 1101         	addi	sp, sp, -0x20
8000076e: ec06         	sd	ra, 0x18(sp)
80000770: e42a         	sd	a0, 0x8(sp)
80000772: e82e         	sd	a1, 0x10(sp)
80000774: 00004097     	auipc	ra, 0x4
80000778: d7c080e7     	jalr	-0x284(ra) <_$LT$lab5_kernel_task2..TaskState$u20$as$u20$core..cmp..PartialEq$GT$::eq::hf800767fdef7956b>
8000077c: 00154513     	xori	a0, a0, 0x1
80000780: 60e2         	ld	ra, 0x18(sp)
80000782: 6105         	addi	sp, sp, 0x20
80000784: 8082         	ret

0000000080000786 <_$LT$core..ops..range..RangeInclusive$LT$T$GT$$u20$as$u20$core..iter..range..RangeInclusiveIteratorImpl$GT$::spec_next::h7e116d4092ee20b1>:
80000786: 711d         	addi	sp, sp, -0x60
80000788: ec86         	sd	ra, 0x58(sp)
8000078a: e02a         	sd	a0, 0x0(sp)
8000078c: f02a         	sd	a0, 0x20(sp)
8000078e: 01054503     	lbu	a0, 0x10(a0)
80000792: 8905         	andi	a0, a0, 0x1
80000794: ed01         	bnez	a0, 0x800007ac <_$LT$core..ops..range..RangeInclusive$LT$T$GT$$u20$as$u20$core..iter..range..RangeInclusiveIteratorImpl$GT$::spec_next::h7e116d4092ee20b1+0x26>
80000796: a009         	j	0x80000798 <_$LT$core..ops..range..RangeInclusive$LT$T$GT$$u20$as$u20$core..iter..range..RangeInclusiveIteratorImpl$GT$::spec_next::h7e116d4092ee20b1+0x12>
80000798: 6502         	ld	a0, 0x0(sp)
8000079a: 00850593     	addi	a1, a0, 0x8
8000079e: fc2a         	sd	a0, 0x38(sp)
800007a0: e0ae         	sd	a1, 0x40(sp)
800007a2: 610c         	ld	a1, 0x0(a0)
800007a4: 6508         	ld	a0, 0x8(a0)
800007a6: 02b56263     	bltu	a0, a1, 0x800007ca <_$LT$core..ops..range..RangeInclusive$LT$T$GT$$u20$as$u20$core..iter..range..RangeInclusiveIteratorImpl$GT$::spec_next::h7e116d4092ee20b1+0x44>
800007aa: a011         	j	0x800007ae <_$LT$core..ops..range..RangeInclusive$LT$T$GT$$u20$as$u20$core..iter..range..RangeInclusiveIteratorImpl$GT$::spec_next::h7e116d4092ee20b1+0x28>
800007ac: a839         	j	0x800007ca <_$LT$core..ops..range..RangeInclusive$LT$T$GT$$u20$as$u20$core..iter..range..RangeInclusiveIteratorImpl$GT$::spec_next::h7e116d4092ee20b1+0x44>
800007ae: 6582         	ld	a1, 0x0(sp)
800007b0: 00858513     	addi	a0, a1, 0x8
800007b4: e4ae         	sd	a1, 0x48(sp)
800007b6: e8aa         	sd	a0, 0x50(sp)
800007b8: 6188         	ld	a0, 0x0(a1)
800007ba: 658c         	ld	a1, 0x8(a1)
800007bc: 00b53633     	sltu	a2, a0, a1
800007c0: 02c107a3     	sb	a2, 0x2f(sp)
800007c4: 00b56d63     	bltu	a0, a1, 0x800007de <_$LT$core..ops..range..RangeInclusive$LT$T$GT$$u20$as$u20$core..iter..range..RangeInclusiveIteratorImpl$GT$::spec_next::h7e116d4092ee20b1+0x58>
800007c8: a021         	j	0x800007d0 <_$LT$core..ops..range..RangeInclusive$LT$T$GT$$u20$as$u20$core..iter..range..RangeInclusiveIteratorImpl$GT$::spec_next::h7e116d4092ee20b1+0x4a>
800007ca: 4501         	li	a0, 0x0
800007cc: e42a         	sd	a0, 0x8(sp)
800007ce: a815         	j	0x80000802 <_$LT$core..ops..range..RangeInclusive$LT$T$GT$$u20$as$u20$core..iter..range..RangeInclusiveIteratorImpl$GT$::spec_next::h7e116d4092ee20b1+0x7c>
800007d0: 6502         	ld	a0, 0x0(sp)
800007d2: 4585         	li	a1, 0x1
800007d4: 00b50823     	sb	a1, 0x10(a0)
800007d8: 6108         	ld	a0, 0x0(a0)
800007da: ec2a         	sd	a0, 0x18(sp)
800007dc: a831         	j	0x800007f8 <_$LT$core..ops..range..RangeInclusive$LT$T$GT$$u20$as$u20$core..iter..range..RangeInclusiveIteratorImpl$GT$::spec_next::h7e116d4092ee20b1+0x72>
800007de: 6502         	ld	a0, 0x0(sp)
800007e0: 6108         	ld	a0, 0x0(a0)
800007e2: 4585         	li	a1, 0x1
800007e4: 00000097     	auipc	ra, 0x0
800007e8: b76080e7     	jalr	-0x48a(ra) <_$LT$usize$u20$as$u20$core..iter..range..Step$GT$::forward_unchecked::h16c326299b613604>
800007ec: 6582         	ld	a1, 0x0(sp)
800007ee: f82a         	sd	a0, 0x30(sp)
800007f0: 6190         	ld	a2, 0x0(a1)
800007f2: ec32         	sd	a2, 0x18(sp)
800007f4: e188         	sd	a0, 0x0(a1)
800007f6: a009         	j	0x800007f8 <_$LT$core..ops..range..RangeInclusive$LT$T$GT$$u20$as$u20$core..iter..range..RangeInclusiveIteratorImpl$GT$::spec_next::h7e116d4092ee20b1+0x72>
800007f8: 6562         	ld	a0, 0x18(sp)
800007fa: e82a         	sd	a0, 0x10(sp)
800007fc: 4505         	li	a0, 0x1
800007fe: e42a         	sd	a0, 0x8(sp)
80000800: a009         	j	0x80000802 <_$LT$core..ops..range..RangeInclusive$LT$T$GT$$u20$as$u20$core..iter..range..RangeInclusiveIteratorImpl$GT$::spec_next::h7e116d4092ee20b1+0x7c>
80000802: 6522         	ld	a0, 0x8(sp)
80000804: 65c2         	ld	a1, 0x10(sp)
80000806: 60e6         	ld	ra, 0x58(sp)
80000808: 6125         	addi	sp, sp, 0x60
8000080a: 8082         	ret

000000008000080c <core::ops::range::RangeInclusive$LT$Idx$GT$::new::h0b428d328b047271>:
8000080c: 1101         	addi	sp, sp, -0x20
8000080e: e42e         	sd	a1, 0x8(sp)
80000810: 85aa         	mv	a1, a0
80000812: 6522         	ld	a0, 0x8(sp)
80000814: e82a         	sd	a0, 0x10(sp)
80000816: ec32         	sd	a2, 0x18(sp)
80000818: e188         	sd	a0, 0x0(a1)
8000081a: e590         	sd	a2, 0x8(a1)
8000081c: 4501         	li	a0, 0x0
8000081e: 00a58823     	sb	a0, 0x10(a1)
80000822: 6105         	addi	sp, sp, 0x20
80000824: 8082         	ret

0000000080000826 <core::iter::range::_$LT$impl$u20$core..iter..traits..iterator..Iterator$u20$for$u20$core..ops..range..Range$LT$A$GT$$GT$::next::he797165a0feca20e>:
80000826: 1141         	addi	sp, sp, -0x10
80000828: e406         	sd	ra, 0x8(sp)
8000082a: e02a         	sd	a0, 0x0(sp)
8000082c: 00000097     	auipc	ra, 0x0
80000830: 044080e7     	jalr	0x44(ra) <_$LT$core..ops..range..Range$LT$T$GT$$u20$as$u20$core..iter..range..RangeIteratorImpl$GT$::spec_next::h4e31bb30e589b78f>
80000834: 60a2         	ld	ra, 0x8(sp)
80000836: 0141         	addi	sp, sp, 0x10
80000838: 8082         	ret

000000008000083a <core::iter::range::_$LT$impl$u20$core..iter..traits..iterator..Iterator$u20$for$u20$core..ops..range..RangeInclusive$LT$A$GT$$GT$::next::hcfc10a6289c3ec5f>:
8000083a: 1141         	addi	sp, sp, -0x10
8000083c: e406         	sd	ra, 0x8(sp)
8000083e: e02a         	sd	a0, 0x0(sp)
80000840: 00000097     	auipc	ra, 0x0
80000844: f46080e7     	jalr	-0xba(ra) <_$LT$core..ops..range..RangeInclusive$LT$T$GT$$u20$as$u20$core..iter..range..RangeInclusiveIteratorImpl$GT$::spec_next::h7e116d4092ee20b1>
80000848: 60a2         	ld	ra, 0x8(sp)
8000084a: 0141         	addi	sp, sp, 0x10
8000084c: 8082         	ret

000000008000084e <_$LT$I$u20$as$u20$core..iter..traits..collect..IntoIterator$GT$::into_iter::h0bc23e2a2835499a>:
8000084e: 1141         	addi	sp, sp, -0x10
80000850: e02a         	sd	a0, 0x0(sp)
80000852: e42e         	sd	a1, 0x8(sp)
80000854: 0141         	addi	sp, sp, 0x10
80000856: 8082         	ret

0000000080000858 <_$LT$I$u20$as$u20$core..iter..traits..collect..IntoIterator$GT$::into_iter::hce989c0c65fa9ea7>:
80000858: 1141         	addi	sp, sp, -0x10
8000085a: e42e         	sd	a1, 0x8(sp)
8000085c: 85aa         	mv	a1, a0
8000085e: 6522         	ld	a0, 0x8(sp)
80000860: 6910         	ld	a2, 0x10(a0)
80000862: e990         	sd	a2, 0x10(a1)
80000864: 6510         	ld	a2, 0x8(a0)
80000866: e590         	sd	a2, 0x8(a1)
80000868: 6108         	ld	a0, 0x0(a0)
8000086a: e188         	sd	a0, 0x0(a1)
8000086c: 0141         	addi	sp, sp, 0x10
8000086e: 8082         	ret

0000000080000870 <_$LT$core..ops..range..Range$LT$T$GT$$u20$as$u20$core..iter..range..RangeIteratorImpl$GT$::spec_next::h4e31bb30e589b78f>:
80000870: 715d         	addi	sp, sp, -0x50
80000872: e486         	sd	ra, 0x48(sp)
80000874: 85aa         	mv	a1, a0
80000876: e82e         	sd	a1, 0x10(sp)
80000878: f42e         	sd	a1, 0x28(sp)
8000087a: 00858513     	addi	a0, a1, 0x8
8000087e: fc2e         	sd	a1, 0x38(sp)
80000880: e0aa         	sd	a0, 0x40(sp)
80000882: 6188         	ld	a0, 0x0(a1)
80000884: 658c         	ld	a1, 0x8(a1)
80000886: 00b56663     	bltu	a0, a1, 0x80000892 <_$LT$core..ops..range..Range$LT$T$GT$$u20$as$u20$core..iter..range..RangeIteratorImpl$GT$::spec_next::h4e31bb30e589b78f+0x22>
8000088a: a009         	j	0x8000088c <_$LT$core..ops..range..Range$LT$T$GT$$u20$as$u20$core..iter..range..RangeIteratorImpl$GT$::spec_next::h4e31bb30e589b78f+0x1c>
8000088c: 4501         	li	a0, 0x0
8000088e: ec2a         	sd	a0, 0x18(sp)
80000890: a01d         	j	0x800008b6 <_$LT$core..ops..range..Range$LT$T$GT$$u20$as$u20$core..iter..range..RangeIteratorImpl$GT$::spec_next::h4e31bb30e589b78f+0x46>
80000892: 6542         	ld	a0, 0x10(sp)
80000894: 6108         	ld	a0, 0x0(a0)
80000896: e02a         	sd	a0, 0x0(sp)
80000898: f82a         	sd	a0, 0x30(sp)
8000089a: 4585         	li	a1, 0x1
8000089c: e42e         	sd	a1, 0x8(sp)
8000089e: 00000097     	auipc	ra, 0x0
800008a2: abc080e7     	jalr	-0x544(ra) <_$LT$usize$u20$as$u20$core..iter..range..Step$GT$::forward_unchecked::h16c326299b613604>
800008a6: 66c2         	ld	a3, 0x10(sp)
800008a8: 6582         	ld	a1, 0x0(sp)
800008aa: 862a         	mv	a2, a0
800008ac: 6522         	ld	a0, 0x8(sp)
800008ae: e290         	sd	a2, 0x0(a3)
800008b0: f02e         	sd	a1, 0x20(sp)
800008b2: ec2a         	sd	a0, 0x18(sp)
800008b4: a009         	j	0x800008b6 <_$LT$core..ops..range..Range$LT$T$GT$$u20$as$u20$core..iter..range..RangeIteratorImpl$GT$::spec_next::h4e31bb30e589b78f+0x46>
800008b6: 6562         	ld	a0, 0x18(sp)
800008b8: 7582         	ld	a1, 0x20(sp)
800008ba: 60a6         	ld	ra, 0x48(sp)
800008bc: 6161         	addi	sp, sp, 0x50
800008be: 8082         	ret

00000000800008c0 <core::char::methods::encode_utf8_raw::hcd809b0bcf5166a5>:
800008c0: 715d         	addi	sp, sp, -0x50
800008c2: e486         	sd	ra, 0x48(sp)
800008c4: e032         	sd	a2, 0x0(sp)
800008c6: e42e         	sd	a1, 0x8(sp)
800008c8: 86aa         	mv	a3, a0
800008ca: e836         	sd	a3, 0x10(sp)
800008cc: d22a         	sw	a0, 0x24(sp)
800008ce: f42e         	sd	a1, 0x28(sp)
800008d0: f832         	sd	a2, 0x30(sp)
800008d2: 08000593     	li	a1, 0x80
800008d6: 00b56863     	bltu	a0, a1, 0x800008e6 <core::char::methods::encode_utf8_raw::hcd809b0bcf5166a5+0x26>
800008da: a009         	j	0x800008dc <core::char::methods::encode_utf8_raw::hcd809b0bcf5166a5+0x1c>
800008dc: 6542         	ld	a0, 0x10(sp)
800008de: 00b5551b     	srliw	a0, a0, 0xb
800008e2: c911         	beqz	a0, 0x800008f6 <core::char::methods::encode_utf8_raw::hcd809b0bcf5166a5+0x36>
800008e4: a021         	j	0x800008ec <core::char::methods::encode_utf8_raw::hcd809b0bcf5166a5+0x2c>
800008e6: 4505         	li	a0, 0x1
800008e8: ec2a         	sd	a0, 0x18(sp)
800008ea: a839         	j	0x80000908 <core::char::methods::encode_utf8_raw::hcd809b0bcf5166a5+0x48>
800008ec: 6542         	ld	a0, 0x10(sp)
800008ee: 0105551b     	srliw	a0, a0, 0x10
800008f2: c901         	beqz	a0, 0x80000902 <core::char::methods::encode_utf8_raw::hcd809b0bcf5166a5+0x42>
800008f4: a021         	j	0x800008fc <core::char::methods::encode_utf8_raw::hcd809b0bcf5166a5+0x3c>
800008f6: 4509         	li	a0, 0x2
800008f8: ec2a         	sd	a0, 0x18(sp)
800008fa: a039         	j	0x80000908 <core::char::methods::encode_utf8_raw::hcd809b0bcf5166a5+0x48>
800008fc: 4511         	li	a0, 0x4
800008fe: ec2a         	sd	a0, 0x18(sp)
80000900: a021         	j	0x80000908 <core::char::methods::encode_utf8_raw::hcd809b0bcf5166a5+0x48>
80000902: 450d         	li	a0, 0x3
80000904: ec2a         	sd	a0, 0x18(sp)
80000906: a009         	j	0x80000908 <core::char::methods::encode_utf8_raw::hcd809b0bcf5166a5+0x48>
80000908: 6502         	ld	a0, 0x0(sp)
8000090a: fc2a         	sd	a0, 0x38(sp)
8000090c: 65e2         	ld	a1, 0x18(sp)
8000090e: 00b56d63     	bltu	a0, a1, 0x80000928 <core::char::methods::encode_utf8_raw::hcd809b0bcf5166a5+0x68>
80000912: a009         	j	0x80000914 <core::char::methods::encode_utf8_raw::hcd809b0bcf5166a5+0x54>
80000914: 65a2         	ld	a1, 0x8(sp)
80000916: 6542         	ld	a0, 0x10(sp)
80000918: 2501         	sext.w	a0, a0
8000091a: 00000097     	auipc	ra, 0x0
8000091e: 0cc080e7     	jalr	0xcc(ra) <core::char::methods::encode_utf8_raw_unchecked::h36a40e02b466ef8a>
80000922: 6522         	ld	a0, 0x8(sp)
80000924: e0aa         	sd	a0, 0x40(sp)
80000926: a829         	j	0x80000940 <.Lpcrel_hi0+0x10>
80000928: 6602         	ld	a2, 0x0(sp)
8000092a: 6542         	ld	a0, 0x10(sp)
8000092c: 65e2         	ld	a1, 0x18(sp)
8000092e: 2501         	sext.w	a0, a0

0000000080000930 <.Lpcrel_hi0>:
80000930: 00006697     	auipc	a3, 0x6
80000934: f5068693     	addi	a3, a3, -0xb0
80000938: 00000097     	auipc	ra, 0x0
8000093c: 02c080e7     	jalr	0x2c(ra) <core::char::methods::encode_utf8_raw::do_panic::runtime::hf4cc27a0a8e0d59d>
80000940: 6522         	ld	a0, 0x8(sp)
80000942: 66e2         	ld	a3, 0x18(sp)

0000000080000944 <.Lpcrel_hi1>:
80000944: 00006597     	auipc	a1, 0x6
80000948: f2458713     	addi	a4, a1, -0xdc
8000094c: 4605         	li	a2, 0x1
8000094e: 85b2         	mv	a1, a2
80000950: 00000097     	auipc	ra, 0x0
80000954: afc080e7     	jalr	-0x504(ra) <core::slice::raw::from_raw_parts_mut::precondition_check::h7219f5c4955abc6b>
80000958: a009         	j	0x8000095a <.Lpcrel_hi1+0x16>
8000095a: 6522         	ld	a0, 0x8(sp)
8000095c: 65e2         	ld	a1, 0x18(sp)
8000095e: 60a6         	ld	ra, 0x48(sp)
80000960: 6161         	addi	sp, sp, 0x50
80000962: 8082         	ret

0000000080000964 <core::char::methods::encode_utf8_raw::do_panic::runtime::hf4cc27a0a8e0d59d>:
80000964: 7115         	addi	sp, sp, -0xe0
80000966: e036         	sd	a3, 0x0(sp)
80000968: 86b2         	mv	a3, a2
8000096a: 6602         	ld	a2, 0x0(sp)
8000096c: e436         	sd	a3, 0x8(sp)
8000096e: 86aa         	mv	a3, a0
80000970: 6522         	ld	a0, 0x8(sp)
80000972: ca36         	sw	a3, 0x14(sp)
80000974: ec2e         	sd	a1, 0x18(sp)
80000976: f02a         	sd	a0, 0x20(sp)

0000000080000978 <.Lpcrel_hi2>:
80000978: 00006517     	auipc	a0, 0x6
8000097c: f2050513     	addi	a0, a0, -0xe0
80000980: fd2a         	sd	a0, 0xb8(sp)
80000982: 082c         	addi	a1, sp, 0x18
80000984: e1ae         	sd	a1, 0xc0(sp)
80000986: 0858         	addi	a4, sp, 0x14
80000988: e5ba         	sd	a4, 0xc8(sp)
8000098a: 1014         	addi	a3, sp, 0x20
8000098c: e9b6         	sd	a3, 0xd0(sp)
8000098e: e52e         	sd	a1, 0x88(sp)

0000000080000990 <.Lpcrel_hi3>:
80000990: 00004597     	auipc	a1, 0x4
80000994: 7a858593     	addi	a1, a1, 0x7a8
80000998: e92e         	sd	a1, 0x90(sp)
8000099a: 67ca         	ld	a5, 0x90(sp)
8000099c: f0be         	sd	a5, 0x60(sp)
8000099e: 67aa         	ld	a5, 0x88(sp)
800009a0: ecbe         	sd	a5, 0x58(sp)
800009a2: ed3a         	sd	a4, 0x98(sp)

00000000800009a4 <.Lpcrel_hi4>:
800009a4: 00005717     	auipc	a4, 0x5
800009a8: 83870713     	addi	a4, a4, -0x7c8
800009ac: f13a         	sd	a4, 0xa0(sp)
800009ae: 770a         	ld	a4, 0xa0(sp)
800009b0: f8ba         	sd	a4, 0x70(sp)
800009b2: 676a         	ld	a4, 0x98(sp)
800009b4: f4ba         	sd	a4, 0x68(sp)
800009b6: f536         	sd	a3, 0xa8(sp)
800009b8: f92e         	sd	a1, 0xb0(sp)
800009ba: 75ca         	ld	a1, 0xb0(sp)
800009bc: e12e         	sd	a1, 0x80(sp)
800009be: 75aa         	ld	a1, 0xa8(sp)
800009c0: fcae         	sd	a1, 0x78(sp)
800009c2: 7586         	ld	a1, 0x60(sp)
800009c4: f82e         	sd	a1, 0x30(sp)
800009c6: 65e6         	ld	a1, 0x58(sp)
800009c8: f42e         	sd	a1, 0x28(sp)
800009ca: 75c6         	ld	a1, 0x70(sp)
800009cc: e0ae         	sd	a1, 0x40(sp)
800009ce: 75a6         	ld	a1, 0x68(sp)
800009d0: fc2e         	sd	a1, 0x38(sp)
800009d2: 658a         	ld	a1, 0x80(sp)
800009d4: e8ae         	sd	a1, 0x50(sp)
800009d6: 75e6         	ld	a1, 0x78(sp)
800009d8: e4ae         	sd	a1, 0x48(sp)
800009da: 102c         	addi	a1, sp, 0x28
800009dc: edae         	sd	a1, 0xd8(sp)
800009de: 00005097     	auipc	ra, 0x5
800009e2: 11a080e7     	jalr	0x11a(ra) <core::panicking::panic_fmt::h767dc8ac4dd44648>

00000000800009e6 <core::char::methods::encode_utf8_raw_unchecked::h36a40e02b466ef8a>:
800009e6: 7119         	addi	sp, sp, -0x80
800009e8: f02e         	sd	a1, 0x20(sp)
800009ea: 862a         	mv	a2, a0
800009ec: f432         	sd	a2, 0x28(sp)
800009ee: de2a         	sw	a0, 0x3c(sp)
800009f0: e0ae         	sd	a1, 0x40(sp)
800009f2: 4585         	li	a1, 0x1
800009f4: e4ae         	sd	a1, 0x48(sp)
800009f6: e8ae         	sd	a1, 0x50(sp)
800009f8: ecae         	sd	a1, 0x58(sp)
800009fa: 4589         	li	a1, 0x2
800009fc: f0ae         	sd	a1, 0x60(sp)
800009fe: f4ae         	sd	a1, 0x68(sp)
80000a00: 458d         	li	a1, 0x3
80000a02: f8ae         	sd	a1, 0x70(sp)
80000a04: 08000593     	li	a1, 0x80
80000a08: 00b56863     	bltu	a0, a1, 0x80000a18 <core::char::methods::encode_utf8_raw_unchecked::h36a40e02b466ef8a+0x32>
80000a0c: a009         	j	0x80000a0e <core::char::methods::encode_utf8_raw_unchecked::h36a40e02b466ef8a+0x28>
80000a0e: 7522         	ld	a0, 0x28(sp)
80000a10: 00b5551b     	srliw	a0, a0, 0xb
80000a14: cd11         	beqz	a0, 0x80000a30 <core::char::methods::encode_utf8_raw_unchecked::h36a40e02b466ef8a+0x4a>
80000a16: a801         	j	0x80000a26 <core::char::methods::encode_utf8_raw_unchecked::h36a40e02b466ef8a+0x40>
80000a18: 7522         	ld	a0, 0x28(sp)
80000a1a: 7582         	ld	a1, 0x20(sp)
80000a1c: 4605         	li	a2, 0x1
80000a1e: f832         	sd	a2, 0x30(sp)
80000a20: 00a58023     	sb	a0, 0x0(a1)
80000a24: a049         	j	0x80000aa6 <core::char::methods::encode_utf8_raw_unchecked::h36a40e02b466ef8a+0xc0>
80000a26: 7522         	ld	a0, 0x28(sp)
80000a28: 0105551b     	srliw	a0, a0, 0x10
80000a2c: c901         	beqz	a0, 0x80000a3c <core::char::methods::encode_utf8_raw_unchecked::h36a40e02b466ef8a+0x56>
80000a2e: a021         	j	0x80000a36 <core::char::methods::encode_utf8_raw_unchecked::h36a40e02b466ef8a+0x50>
80000a30: 4509         	li	a0, 0x2
80000a32: f82a         	sd	a0, 0x30(sp)
80000a34: a039         	j	0x80000a42 <core::char::methods::encode_utf8_raw_unchecked::h36a40e02b466ef8a+0x5c>
80000a36: 4511         	li	a0, 0x4
80000a38: f82a         	sd	a0, 0x30(sp)
80000a3a: a021         	j	0x80000a42 <core::char::methods::encode_utf8_raw_unchecked::h36a40e02b466ef8a+0x5c>
80000a3c: 450d         	li	a0, 0x3
80000a3e: f82a         	sd	a0, 0x30(sp)
80000a40: a009         	j	0x80000a42 <core::char::methods::encode_utf8_raw_unchecked::h36a40e02b466ef8a+0x5c>
80000a42: 7522         	ld	a0, 0x28(sp)
80000a44: 03f57593     	andi	a1, a0, 0x3f
80000a48: f805859b     	addiw	a1, a1, -0x80
80000a4c: e02e         	sd	a1, 0x0(sp)
80000a4e: 06b10e23     	sb	a1, 0x7c(sp)
80000a52: 03451593     	slli	a1, a0, 0x34
80000a56: 91e9         	srli	a1, a1, 0x3a
80000a58: f805859b     	addiw	a1, a1, -0x80
80000a5c: e42e         	sd	a1, 0x8(sp)
80000a5e: 06b10ea3     	sb	a1, 0x7d(sp)
80000a62: 02e51593     	slli	a1, a0, 0x2e
80000a66: 91e9         	srli	a1, a1, 0x3a
80000a68: f805859b     	addiw	a1, a1, -0x80
80000a6c: e82e         	sd	a1, 0x10(sp)
80000a6e: 06b10f23     	sb	a1, 0x7e(sp)
80000a72: 8149         	srli	a0, a0, 0x12
80000a74: ff056513     	ori	a0, a0, -0x10
80000a78: ec2a         	sd	a0, 0x18(sp)
80000a7a: 06a10fa3     	sb	a0, 0x7f(sp)
80000a7e: 7542         	ld	a0, 0x30(sp)
80000a80: 4589         	li	a1, 0x2
80000a82: 00b51d63     	bne	a0, a1, 0x80000a9c <core::char::methods::encode_utf8_raw_unchecked::h36a40e02b466ef8a+0xb6>
80000a86: a009         	j	0x80000a88 <core::char::methods::encode_utf8_raw_unchecked::h36a40e02b466ef8a+0xa2>
80000a88: 6502         	ld	a0, 0x0(sp)
80000a8a: 7582         	ld	a1, 0x20(sp)
80000a8c: 6622         	ld	a2, 0x8(sp)
80000a8e: 0c066613     	ori	a2, a2, 0xc0
80000a92: 00c58023     	sb	a2, 0x0(a1)
80000a96: 00a580a3     	sb	a0, 0x1(a1)
80000a9a: a031         	j	0x80000aa6 <core::char::methods::encode_utf8_raw_unchecked::h36a40e02b466ef8a+0xc0>
80000a9c: 7542         	ld	a0, 0x30(sp)
80000a9e: 458d         	li	a1, 0x3
80000aa0: 00b50463     	beq	a0, a1, 0x80000aa8 <core::char::methods::encode_utf8_raw_unchecked::h36a40e02b466ef8a+0xc2>
80000aa4: a839         	j	0x80000ac2 <core::char::methods::encode_utf8_raw_unchecked::h36a40e02b466ef8a+0xdc>
80000aa6: a825         	j	0x80000ade <core::char::methods::encode_utf8_raw_unchecked::h36a40e02b466ef8a+0xf8>
80000aa8: 6502         	ld	a0, 0x0(sp)
80000aaa: 7582         	ld	a1, 0x20(sp)
80000aac: 6622         	ld	a2, 0x8(sp)
80000aae: 66c2         	ld	a3, 0x10(sp)
80000ab0: 0e06e693     	ori	a3, a3, 0xe0
80000ab4: 00d58023     	sb	a3, 0x0(a1)
80000ab8: 00c580a3     	sb	a2, 0x1(a1)
80000abc: 00a58123     	sb	a0, 0x2(a1)
80000ac0: b7dd         	j	0x80000aa6 <core::char::methods::encode_utf8_raw_unchecked::h36a40e02b466ef8a+0xc0>
80000ac2: 6502         	ld	a0, 0x0(sp)
80000ac4: 7582         	ld	a1, 0x20(sp)
80000ac6: 6622         	ld	a2, 0x8(sp)
80000ac8: 66c2         	ld	a3, 0x10(sp)
80000aca: 6762         	ld	a4, 0x18(sp)
80000acc: 00e58023     	sb	a4, 0x0(a1)
80000ad0: 00d580a3     	sb	a3, 0x1(a1)
80000ad4: 00c58123     	sb	a2, 0x2(a1)
80000ad8: 00a581a3     	sb	a0, 0x3(a1)
80000adc: a009         	j	0x80000ade <core::char::methods::encode_utf8_raw_unchecked::h36a40e02b466ef8a+0xf8>
80000ade: 6109         	addi	sp, sp, 0x80
80000ae0: 8082         	ret
		...
80000aee: 0000         	unimp

0000000080000af0 <enter_task>:
80000af0: 8faa         	mv	t6, a0
80000af2: 34059073     	csrw	mscratch, a1
80000af6: 300022f3     	csrr	t0, mstatus
80000afa: 433d         	li	t1, 0xf
80000afc: 032e         	slli	t1, t1, 0xb
80000afe: fff34313     	not	t1, t1
80000b02: 0062f2b3     	and	t0, t0, t1
80000b06: 6319         	lui	t1, 0x6
80000b08: 08030313     	addi	t1, t1, 0x80
80000b0c: 0062e2b3     	or	t0, t0, t1
80000b10: 30029073     	csrw	mstatus, t0
80000b14: 0f8fb283     	ld	t0, 0xf8(t6)
80000b18: 34129073     	csrw	mepc, t0
80000b1c: 200fb283     	ld	t0, 0x200(t6)
80000b20: 00329073     	fscsr	t0
80000b24: 100fb007     	fld	ft0, 0x100(t6)
80000b28: 108fb087     	fld	ft1, 0x108(t6)
80000b2c: 110fb107     	fld	ft2, 0x110(t6)
80000b30: 118fb187     	fld	ft3, 0x118(t6)
80000b34: 120fb207     	fld	ft4, 0x120(t6)
80000b38: 128fb287     	fld	ft5, 0x128(t6)
80000b3c: 130fb307     	fld	ft6, 0x130(t6)
80000b40: 138fb387     	fld	ft7, 0x138(t6)
80000b44: 140fb407     	fld	fs0, 0x140(t6)
80000b48: 148fb487     	fld	fs1, 0x148(t6)
80000b4c: 150fb507     	fld	fa0, 0x150(t6)
80000b50: 158fb587     	fld	fa1, 0x158(t6)
80000b54: 160fb607     	fld	fa2, 0x160(t6)
80000b58: 168fb687     	fld	fa3, 0x168(t6)
80000b5c: 170fb707     	fld	fa4, 0x170(t6)
80000b60: 178fb787     	fld	fa5, 0x178(t6)
80000b64: 180fb807     	fld	fa6, 0x180(t6)
80000b68: 188fb887     	fld	fa7, 0x188(t6)
80000b6c: 190fb907     	fld	fs2, 0x190(t6)
80000b70: 198fb987     	fld	fs3, 0x198(t6)
80000b74: 1a0fba07     	fld	fs4, 0x1a0(t6)
80000b78: 1a8fba87     	fld	fs5, 0x1a8(t6)
80000b7c: 1b0fbb07     	fld	fs6, 0x1b0(t6)
80000b80: 1b8fbb87     	fld	fs7, 0x1b8(t6)
80000b84: 1c0fbc07     	fld	fs8, 0x1c0(t6)
80000b88: 1c8fbc87     	fld	fs9, 0x1c8(t6)
80000b8c: 1d0fbd07     	fld	fs10, 0x1d0(t6)
80000b90: 1d8fbd87     	fld	fs11, 0x1d8(t6)
80000b94: 1e0fbe07     	fld	ft8, 0x1e0(t6)
80000b98: 1e8fbe87     	fld	ft9, 0x1e8(t6)
80000b9c: 1f0fbf07     	fld	ft10, 0x1f0(t6)
80000ba0: 1f8fbf87     	fld	ft11, 0x1f8(t6)
80000ba4: 000fb083     	ld	ra, 0x0(t6)
80000ba8: 008fb183     	ld	gp, 0x8(t6)
80000bac: 010fb203     	ld	tp, 0x10(t6)
80000bb0: 030fb403     	ld	s0, 0x30(t6)
80000bb4: 038fb483     	ld	s1, 0x38(t6)
80000bb8: 080fb903     	ld	s2, 0x80(t6)
80000bbc: 088fb983     	ld	s3, 0x88(t6)
80000bc0: 090fba03     	ld	s4, 0x90(t6)
80000bc4: 098fba83     	ld	s5, 0x98(t6)
80000bc8: 0a0fbb03     	ld	s6, 0xa0(t6)
80000bcc: 0a8fbb83     	ld	s7, 0xa8(t6)
80000bd0: 0b0fbc03     	ld	s8, 0xb0(t6)
80000bd4: 0b8fbc83     	ld	s9, 0xb8(t6)
80000bd8: 0c0fbd03     	ld	s10, 0xc0(t6)
80000bdc: 0c8fbd83     	ld	s11, 0xc8(t6)
80000be0: 040fb503     	ld	a0, 0x40(t6)
80000be4: 048fb583     	ld	a1, 0x48(t6)
80000be8: 050fb603     	ld	a2, 0x50(t6)
80000bec: 058fb683     	ld	a3, 0x58(t6)
80000bf0: 060fb703     	ld	a4, 0x60(t6)
80000bf4: 068fb783     	ld	a5, 0x68(t6)
80000bf8: 070fb803     	ld	a6, 0x70(t6)
80000bfc: 078fb883     	ld	a7, 0x78(t6)
80000c00: 018fb283     	ld	t0, 0x18(t6)
80000c04: 020fb303     	ld	t1, 0x20(t6)
80000c08: 028fb383     	ld	t2, 0x28(t6)
80000c0c: 0d0fbe03     	ld	t3, 0xd0(t6)
80000c10: 0d8fbe83     	ld	t4, 0xd8(t6)
80000c14: 0e0fbf03     	ld	t5, 0xe0(t6)
80000c18: 0f0fb103     	ld	sp, 0xf0(t6)
80000c1c: 0e8fbf83     	ld	t6, 0xe8(t6)
80000c20: 30200073     	mret
80000c24: 00000013     	nop
80000c28: 00000013     	nop
80000c2c: 00000013     	nop

0000000080000c30 <trap_entry>:
80000c30: 34011173     	csrrw	sp, mscratch, sp
80000c34: df010113     	addi	sp, sp, -0x210
80000c38: e006         	sd	ra, 0x0(sp)
80000c3a: e40e         	sd	gp, 0x8(sp)
80000c3c: e812         	sd	tp, 0x10(sp)
80000c3e: ec16         	sd	t0, 0x18(sp)
80000c40: f01a         	sd	t1, 0x20(sp)
80000c42: f41e         	sd	t2, 0x28(sp)
80000c44: f822         	sd	s0, 0x30(sp)
80000c46: fc26         	sd	s1, 0x38(sp)
80000c48: e0aa         	sd	a0, 0x40(sp)
80000c4a: e4ae         	sd	a1, 0x48(sp)
80000c4c: e8b2         	sd	a2, 0x50(sp)
80000c4e: ecb6         	sd	a3, 0x58(sp)
80000c50: f0ba         	sd	a4, 0x60(sp)
80000c52: f4be         	sd	a5, 0x68(sp)
80000c54: f8c2         	sd	a6, 0x70(sp)
80000c56: fcc6         	sd	a7, 0x78(sp)
80000c58: e14a         	sd	s2, 0x80(sp)
80000c5a: e54e         	sd	s3, 0x88(sp)
80000c5c: e952         	sd	s4, 0x90(sp)
80000c5e: ed56         	sd	s5, 0x98(sp)
80000c60: f15a         	sd	s6, 0xa0(sp)
80000c62: f55e         	sd	s7, 0xa8(sp)
80000c64: f962         	sd	s8, 0xb0(sp)
80000c66: fd66         	sd	s9, 0xb8(sp)
80000c68: e1ea         	sd	s10, 0xc0(sp)
80000c6a: e5ee         	sd	s11, 0xc8(sp)
80000c6c: e9f2         	sd	t3, 0xd0(sp)
80000c6e: edf6         	sd	t4, 0xd8(sp)
80000c70: f1fa         	sd	t5, 0xe0(sp)
80000c72: f5fe         	sd	t6, 0xe8(sp)
80000c74: 340022f3     	csrr	t0, mscratch
80000c78: f996         	sd	t0, 0xf0(sp)
80000c7a: 341022f3     	csrr	t0, mepc
80000c7e: fd96         	sd	t0, 0xf8(sp)
80000c80: a202         	fsd	ft0, 0x100(sp)
80000c82: a606         	fsd	ft1, 0x108(sp)
80000c84: aa0a         	fsd	ft2, 0x110(sp)
80000c86: ae0e         	fsd	ft3, 0x118(sp)
80000c88: b212         	fsd	ft4, 0x120(sp)
80000c8a: b616         	fsd	ft5, 0x128(sp)
80000c8c: ba1a         	fsd	ft6, 0x130(sp)
80000c8e: be1e         	fsd	ft7, 0x138(sp)
80000c90: a2a2         	fsd	fs0, 0x140(sp)
80000c92: a6a6         	fsd	fs1, 0x148(sp)
80000c94: aaaa         	fsd	fa0, 0x150(sp)
80000c96: aeae         	fsd	fa1, 0x158(sp)
80000c98: b2b2         	fsd	fa2, 0x160(sp)
80000c9a: b6b6         	fsd	fa3, 0x168(sp)
80000c9c: baba         	fsd	fa4, 0x170(sp)
80000c9e: bebe         	fsd	fa5, 0x178(sp)
80000ca0: a342         	fsd	fa6, 0x180(sp)
80000ca2: a746         	fsd	fa7, 0x188(sp)
80000ca4: ab4a         	fsd	fs2, 0x190(sp)
80000ca6: af4e         	fsd	fs3, 0x198(sp)
80000ca8: b352         	fsd	fs4, 0x1a0(sp)
80000caa: b756         	fsd	fs5, 0x1a8(sp)
80000cac: bb5a         	fsd	fs6, 0x1b0(sp)
80000cae: bf5e         	fsd	fs7, 0x1b8(sp)
80000cb0: a3e2         	fsd	fs8, 0x1c0(sp)
80000cb2: a7e6         	fsd	fs9, 0x1c8(sp)
80000cb4: abea         	fsd	fs10, 0x1d0(sp)
80000cb6: afee         	fsd	fs11, 0x1d8(sp)
80000cb8: b3f2         	fsd	ft8, 0x1e0(sp)
80000cba: b7f6         	fsd	ft9, 0x1e8(sp)
80000cbc: bbfa         	fsd	ft10, 0x1f0(sp)
80000cbe: bffe         	fsd	ft11, 0x1f8(sp)
80000cc0: 003022f3     	frcsr	t0
80000cc4: 20513023     	sd	t0, 0x200(sp)
80000cc8: 20013423     	sd	zero, 0x208(sp)
80000ccc: 850a         	mv	a0, sp
80000cce: 00000097     	auipc	ra, 0x0
80000cd2: 92c080e7     	jalr	-0x6d4(ra) <rust_handle_trap>
80000cd6: 72ee         	ld	t0, 0xf8(sp)
80000cd8: 34129073     	csrw	mepc, t0
80000cdc: 20013283     	ld	t0, 0x200(sp)
80000ce0: 00329073     	fscsr	t0
80000ce4: 72ce         	ld	t0, 0xf0(sp)
80000ce6: 34029073     	csrw	mscratch, t0
80000cea: 2012         	fld	ft0, 0x100(sp)
80000cec: 20b2         	fld	ft1, 0x108(sp)
80000cee: 2152         	fld	ft2, 0x110(sp)
80000cf0: 21f2         	fld	ft3, 0x118(sp)
80000cf2: 3212         	fld	ft4, 0x120(sp)
80000cf4: 32b2         	fld	ft5, 0x128(sp)
80000cf6: 3352         	fld	ft6, 0x130(sp)
80000cf8: 33f2         	fld	ft7, 0x138(sp)
80000cfa: 2416         	fld	fs0, 0x140(sp)
80000cfc: 24b6         	fld	fs1, 0x148(sp)
80000cfe: 2556         	fld	fa0, 0x150(sp)
80000d00: 25f6         	fld	fa1, 0x158(sp)
80000d02: 3616         	fld	fa2, 0x160(sp)
80000d04: 36b6         	fld	fa3, 0x168(sp)
80000d06: 3756         	fld	fa4, 0x170(sp)
80000d08: 37f6         	fld	fa5, 0x178(sp)
80000d0a: 281a         	fld	fa6, 0x180(sp)
80000d0c: 28ba         	fld	fa7, 0x188(sp)
80000d0e: 295a         	fld	fs2, 0x190(sp)
80000d10: 29fa         	fld	fs3, 0x198(sp)
80000d12: 3a1a         	fld	fs4, 0x1a0(sp)
80000d14: 3aba         	fld	fs5, 0x1a8(sp)
80000d16: 3b5a         	fld	fs6, 0x1b0(sp)
80000d18: 3bfa         	fld	fs7, 0x1b8(sp)
80000d1a: 2c1e         	fld	fs8, 0x1c0(sp)
80000d1c: 2cbe         	fld	fs9, 0x1c8(sp)
80000d1e: 2d5e         	fld	fs10, 0x1d0(sp)
80000d20: 2dfe         	fld	fs11, 0x1d8(sp)
80000d22: 3e1e         	fld	ft8, 0x1e0(sp)
80000d24: 3ebe         	fld	ft9, 0x1e8(sp)
80000d26: 3f5e         	fld	ft10, 0x1f0(sp)
80000d28: 3ffe         	fld	ft11, 0x1f8(sp)
80000d2a: 6082         	ld	ra, 0x0(sp)
80000d2c: 61a2         	ld	gp, 0x8(sp)
80000d2e: 6242         	ld	tp, 0x10(sp)
80000d30: 62e2         	ld	t0, 0x18(sp)
80000d32: 7302         	ld	t1, 0x20(sp)
80000d34: 73a2         	ld	t2, 0x28(sp)
80000d36: 7442         	ld	s0, 0x30(sp)
80000d38: 74e2         	ld	s1, 0x38(sp)
80000d3a: 6506         	ld	a0, 0x40(sp)
80000d3c: 65a6         	ld	a1, 0x48(sp)
80000d3e: 6646         	ld	a2, 0x50(sp)
80000d40: 66e6         	ld	a3, 0x58(sp)
80000d42: 7706         	ld	a4, 0x60(sp)
80000d44: 77a6         	ld	a5, 0x68(sp)
80000d46: 7846         	ld	a6, 0x70(sp)
80000d48: 78e6         	ld	a7, 0x78(sp)
80000d4a: 690a         	ld	s2, 0x80(sp)
80000d4c: 69aa         	ld	s3, 0x88(sp)
80000d4e: 6a4a         	ld	s4, 0x90(sp)
80000d50: 6aea         	ld	s5, 0x98(sp)
80000d52: 7b0a         	ld	s6, 0xa0(sp)
80000d54: 7baa         	ld	s7, 0xa8(sp)
80000d56: 7c4a         	ld	s8, 0xb0(sp)
80000d58: 7cea         	ld	s9, 0xb8(sp)
80000d5a: 6d0e         	ld	s10, 0xc0(sp)
80000d5c: 6dae         	ld	s11, 0xc8(sp)
80000d5e: 6e4e         	ld	t3, 0xd0(sp)
80000d60: 6eee         	ld	t4, 0xd8(sp)
80000d62: 7f0e         	ld	t5, 0xe0(sp)
80000d64: 7fae         	ld	t6, 0xe8(sp)
80000d66: 21010113     	addi	sp, sp, 0x210
80000d6a: 34011173     	csrrw	sp, mscratch, sp
80000d6e: 30200073     	mret
80000d72: 0001         	nop
80000d74: 00000013     	nop
80000d78: 00000013     	nop
80000d7c: 00000013     	nop

0000000080000d80 <fp_stress_loop>:
80000d80: 7139         	addi	sp, sp, -0x40
80000d82: a04a         	fsd	fs2, 0x0(sp)
80000d84: a44e         	fsd	fs3, 0x8(sp)
80000d86: a852         	fsd	fs4, 0x10(sp)
80000d88: ac56         	fsd	fs5, 0x18(sp)
80000d8a: b05a         	fsd	fs6, 0x20(sp)
80000d8c: b45e         	fsd	fs7, 0x28(sp)
80000d8e: b862         	fsd	fs8, 0x30(sp)
80000d90: bc66         	fsd	fs9, 0x38(sp)
80000d92: 00053007     	fld	ft0, 0x0(a0)
80000d96: 00853087     	fld	ft1, 0x8(a0)
80000d9a: 01053107     	fld	ft2, 0x10(a0)
80000d9e: 01853187     	fld	ft3, 0x18(a0)
80000da2: 02053207     	fld	ft4, 0x20(a0)
80000da6: 02853287     	fld	ft5, 0x28(a0)
80000daa: 03053307     	fld	ft6, 0x30(a0)
80000dae: 03853387     	fld	ft7, 0x38(a0)
80000db2: 2188         	fld	fa0, 0x0(a1)
80000db4: 258c         	fld	fa1, 0x8(a1)
80000db6: 2990         	fld	fa2, 0x10(a1)
80000db8: 2d94         	fld	fa3, 0x18(a1)
80000dba: 3198         	fld	fa4, 0x20(a1)
80000dbc: 359c         	fld	fa5, 0x28(a1)
80000dbe: 0305b807     	fld	fa6, 0x30(a1)
80000dc2: 0385b887     	fld	fa7, 0x38(a1)
80000dc6: 00063907     	fld	fs2, 0x0(a2)
80000dca: 00863987     	fld	fs3, 0x8(a2)
80000dce: 01063a07     	fld	fs4, 0x10(a2)
80000dd2: 01863a87     	fld	fs5, 0x18(a2)
80000dd6: 02063b07     	fld	fs6, 0x20(a2)
80000dda: 02863b87     	fld	fs7, 0x28(a2)
80000dde: 03063c07     	fld	fs8, 0x30(a2)
80000de2: 03863c87     	fld	fs9, 0x38(a2)
80000de6: 82b6         	mv	t0, a3
80000de8: 92a07043     	fmadd.d	ft0, ft0, fa0, fs2
80000dec: 9ab0f0c3     	fmadd.d	ft1, ft1, fa1, fs3
80000df0: a2c17143     	fmadd.d	ft2, ft2, fa2, fs4
80000df4: aad1f1c3     	fmadd.d	ft3, ft3, fa3, fs5
80000df8: b2e27243     	fmadd.d	ft4, ft4, fa4, fs6
80000dfc: baf2f2c3     	fmadd.d	ft5, ft5, fa5, fs7
80000e00: c3037343     	fmadd.d	ft6, ft6, fa6, fs8
80000e04: cb13f3c3     	fmadd.d	ft7, ft7, fa7, fs9
80000e08: 12fd         	addi	t0, t0, -0x1
80000e0a: fc029fe3     	bnez	t0, 0x80000de8 <fp_stress_loop+0x68>
80000e0e: e20002d3     	fmv.x.d	t0, ft0
80000e12: e2008353     	fmv.x.d	t1, ft1
80000e16: 0062c2b3     	xor	t0, t0, t1
80000e1a: e2010353     	fmv.x.d	t1, ft2
80000e1e: 929a         	add	t0, t0, t1
80000e20: e2018353     	fmv.x.d	t1, ft3
80000e24: 0062c2b3     	xor	t0, t0, t1
80000e28: e2020353     	fmv.x.d	t1, ft4
80000e2c: 929a         	add	t0, t0, t1
80000e2e: e2028353     	fmv.x.d	t1, ft5
80000e32: 0062c2b3     	xor	t0, t0, t1
80000e36: e2030353     	fmv.x.d	t1, ft6
80000e3a: 929a         	add	t0, t0, t1
80000e3c: e2038353     	fmv.x.d	t1, ft7
80000e40: 0062c533     	xor	a0, t0, t1
80000e44: 2902         	fld	fs2, 0x0(sp)
80000e46: 29a2         	fld	fs3, 0x8(sp)
80000e48: 2a42         	fld	fs4, 0x10(sp)
80000e4a: 2ae2         	fld	fs5, 0x18(sp)
80000e4c: 3b02         	fld	fs6, 0x20(sp)
80000e4e: 3ba2         	fld	fs7, 0x28(sp)
80000e50: 3c42         	fld	fs8, 0x30(sp)
80000e52: 3ce2         	fld	fs9, 0x38(sp)
80000e54: 6121         	addi	sp, sp, 0x40
80000e56: 8082         	ret

0000000080000e58 <__rustc::rust_begin_unwind>:
80000e58: 7139         	addi	sp, sp, -0x40
80000e5a: fc06         	sd	ra, 0x38(sp)
80000e5c: e42a         	sd	a0, 0x8(sp)
80000e5e: 002c         	addi	a1, sp, 0x8
80000e60: f82e         	sd	a1, 0x30(sp)
80000e62: 1008         	addi	a0, sp, 0x20
80000e64: fffff097     	auipc	ra, 0xfffff
80000e68: 44c080e7     	jalr	0x44c(ra) <core::fmt::rt::Argument::new_display::h96dbad3eeb62c0a8>
80000e6c: 7522         	ld	a0, 0x28(sp)
80000e6e: ec2a         	sd	a0, 0x18(sp)
80000e70: 7502         	ld	a0, 0x20(sp)
80000e72: e82a         	sd	a0, 0x10(sp)

0000000080000e74 <.Lpcrel_hi1>:
80000e74: 00005517     	auipc	a0, 0x5
80000e78: 05b50513     	addi	a0, a0, 0x5b
80000e7c: 080c         	addi	a1, sp, 0x10
80000e7e: 00004097     	auipc	ra, 0x4
80000e82: c92080e7     	jalr	-0x36e(ra) <core::fmt::Arguments::new::he6ac749586c7fbd1>
80000e86: fffff097     	auipc	ra, 0xfffff
80000e8a: 7ee080e7     	jalr	0x7ee(ra) <lab5_kernel_task2::console::print::h64393a0152c60ab8>
80000e8e: 4505         	li	a0, 0x1
80000e90: 00003097     	auipc	ra, 0x3
80000e94: 1f0080e7     	jalr	0x1f0(ra) <lab5_kernel_task2::qemu_exit::h33eac16ec3c335e5>

0000000080000e98 <lab5_kernel_task2::read_mtime::h4657ea07da30bf8e>:
80000e98: 1141         	addi	sp, sp, -0x10
80000e9a: e406         	sd	ra, 0x8(sp)

0000000080000e9c <.Lpcrel_hi2>:
80000e9c: 00006517     	auipc	a0, 0x6
80000ea0: adc50593     	addi	a1, a0, -0x524
80000ea4: 0200c537     	lui	a0, 0x200c
80000ea8: 1561         	addi	a0, a0, -0x8
80000eaa: fffff097     	auipc	ra, 0xfffff
80000eae: 30c080e7     	jalr	0x30c(ra) <core::ptr::read_volatile::h735d9ea130329fbb>
80000eb2: 60a2         	ld	ra, 0x8(sp)
80000eb4: 0141         	addi	sp, sp, 0x10
80000eb6: 8082         	ret

0000000080000eb8 <lab5_kernel_task2::start_phase::hef9746eee2d8406c>:
80000eb8: 7115         	addi	sp, sp, -0xe0
80000eba: ed86         	sd	ra, 0xd8(sp)
80000ebc: f02a         	sd	a0, 0x20(sp)

0000000080000ebe <.Lpcrel_hi3>:
80000ebe: 00007517     	auipc	a0, 0x7
80000ec2: fe250513     	addi	a0, a0, -0x1e
80000ec6: cd55         	beqz	a0, 0x80000f82 <.Lpcrel_hi7>
80000ec8: a009         	j	0x80000eca <.Lpcrel_hi3+0xc>
80000eca: 7502         	ld	a0, 0x20(sp)

0000000080000ecc <.Lpcrel_hi4>:
80000ecc: 00007597     	auipc	a1, 0x7
80000ed0: fd458593     	addi	a1, a1, -0x2c
80000ed4: e188         	sd	a0, 0x0(a1)
80000ed6: 00001097     	auipc	ra, 0x1
80000eda: 308080e7     	jalr	0x308(ra) <lab5_kernel_task2::reset_phase_state::h1d2279f3fa8aad9a>
80000ede: 00003097     	auipc	ra, 0x3
80000ee2: a68080e7     	jalr	-0x598(ra) <lab5_kernel_task2::initialize_tasks_for_phase::hace6cc0b6e834e68>
80000ee6: 00001097     	auipc	ra, 0x1
80000eea: 490080e7     	jalr	0x490(ra) <lab5_kernel_task2::current_phase_name::hd64ac02d196bccfb>
80000eee: e0aa         	sd	a0, 0x40(sp)
80000ef0: e4ae         	sd	a1, 0x48(sp)
80000ef2: 00001097     	auipc	ra, 0x1
80000ef6: aec080e7     	jalr	-0x514(ra) <lab5_kernel_task2::current_policy::hf87e29c046b13f0e>
80000efa: 00001097     	auipc	ra, 0x1
80000efe: c6a080e7     	jalr	-0x396(ra) <lab5_kernel_task2::SchedulerPolicy::as_str::h915765f6c5b41e46>
80000f02: e8aa         	sd	a0, 0x50(sp)
80000f04: ecae         	sd	a1, 0x58(sp)
80000f06: 1008         	addi	a0, sp, 0x20
80000f08: f42a         	sd	a0, 0x28(sp)
80000f0a: 0088         	addi	a0, sp, 0x40
80000f0c: f82a         	sd	a0, 0x30(sp)
80000f0e: 0888         	addi	a0, sp, 0x50
80000f10: fc2a         	sd	a0, 0x38(sp)
80000f12: 75a2         	ld	a1, 0x28(sp)
80000f14: 0908         	addi	a0, sp, 0x90
80000f16: fffff097     	auipc	ra, 0xfffff
80000f1a: 356080e7     	jalr	0x356(ra) <core::fmt::rt::Argument::new_display::h009018ea15ddc750>
80000f1e: 75c2         	ld	a1, 0x30(sp)
80000f20: 1108         	addi	a0, sp, 0xa0
80000f22: fffff097     	auipc	ra, 0xfffff
80000f26: 3d2080e7     	jalr	0x3d2(ra) <core::fmt::rt::Argument::new_display::hdf5d30e07b2a6dbf>
80000f2a: 75e2         	ld	a1, 0x38(sp)
80000f2c: 1908         	addi	a0, sp, 0xb0
80000f2e: fffff097     	auipc	ra, 0xfffff
80000f32: 3c6080e7     	jalr	0x3c6(ra) <core::fmt::rt::Argument::new_display::hdf5d30e07b2a6dbf>
80000f36: 656a         	ld	a0, 0x98(sp)
80000f38: f4aa         	sd	a0, 0x68(sp)
80000f3a: 654a         	ld	a0, 0x90(sp)
80000f3c: f0aa         	sd	a0, 0x60(sp)
80000f3e: 752a         	ld	a0, 0xa8(sp)
80000f40: fcaa         	sd	a0, 0x78(sp)
80000f42: 750a         	ld	a0, 0xa0(sp)
80000f44: f8aa         	sd	a0, 0x70(sp)
80000f46: 756a         	ld	a0, 0xb8(sp)
80000f48: e52a         	sd	a0, 0x88(sp)
80000f4a: 754a         	ld	a0, 0xb0(sp)
80000f4c: e12a         	sd	a0, 0x80(sp)

0000000080000f4e <.Lpcrel_hi5>:
80000f4e: 00005517     	auipc	a0, 0x5
80000f52: fdc50513     	addi	a0, a0, -0x24
80000f56: 108c         	addi	a1, sp, 0x60
80000f58: 00004097     	auipc	ra, 0x4
80000f5c: b18080e7     	jalr	-0x4e8(ra) <core::fmt::Arguments::new::h13ae7aeaf1b916ab>
80000f60: fffff097     	auipc	ra, 0xfffff
80000f64: 714080e7     	jalr	0x714(ra) <lab5_kernel_task2::console::print::h64393a0152c60ab8>
80000f68: 00000097     	auipc	ra, 0x0
80000f6c: f30080e7     	jalr	-0xd0(ra) <lab5_kernel_task2::read_mtime::h4657ea07da30bf8e>
80000f70: 85aa         	mv	a1, a0
80000f72: ec2e         	sd	a1, 0x18(sp)
80000f74: e5aa         	sd	a0, 0xc8(sp)

0000000080000f76 <.Lpcrel_hi6>:
80000f76: 00007517     	auipc	a0, 0x7
80000f7a: 14250513     	addi	a0, a0, 0x142
80000f7e: e911         	bnez	a0, 0x80000f92 <.Lpcrel_hi7+0x10>
80000f80: a081         	j	0x80000fc0 <.Lpcrel_hi10>

0000000080000f82 <.Lpcrel_hi7>:
80000f82: 00006517     	auipc	a0, 0x6
80000f86: a0e50513     	addi	a0, a0, -0x5f2
80000f8a: 00005097     	auipc	ra, 0x5
80000f8e: b4e080e7     	jalr	-0x4b2(ra) <core::panicking::panic_null_pointer_dereference::hbac6411af4f2e916>
80000f92: 6562         	ld	a0, 0x18(sp)

0000000080000f94 <.Lpcrel_hi8>:
80000f94: 00007597     	auipc	a1, 0x7
80000f98: 12458593     	addi	a1, a1, 0x124
80000f9c: e188         	sd	a0, 0x0(a1)
80000f9e: 00003097     	auipc	ra, 0x3
80000fa2: bd8080e7     	jalr	-0x428(ra) <lab5_kernel_task2::arm_next_timer_interrupt_from::h60504da096f24430>
80000fa6: 00002097     	auipc	ra, 0x2
80000faa: a00080e7     	jalr	-0x600(ra) <lab5_kernel_task2::choose_initial_task::hc273446c60600b56>
80000fae: 85aa         	mv	a1, a0
80000fb0: e82e         	sd	a1, 0x10(sp)
80000fb2: e9aa         	sd	a0, 0xd0(sp)

0000000080000fb4 <.Lpcrel_hi9>:
80000fb4: 00007517     	auipc	a0, 0x7
80000fb8: ebc50513     	addi	a0, a0, -0x144
80000fbc: e911         	bnez	a0, 0x80000fd0 <.Lpcrel_hi10+0x10>
80000fbe: a01d         	j	0x80000fe4 <.Lpcrel_hi12>

0000000080000fc0 <.Lpcrel_hi10>:
80000fc0: 00006517     	auipc	a0, 0x6
80000fc4: 9e850513     	addi	a0, a0, -0x618
80000fc8: 00005097     	auipc	ra, 0x5
80000fcc: b10080e7     	jalr	-0x4f0(ra) <core::panicking::panic_null_pointer_dereference::hbac6411af4f2e916>
80000fd0: 6542         	ld	a0, 0x10(sp)

0000000080000fd2 <.Lpcrel_hi11>:
80000fd2: 00007597     	auipc	a1, 0x7
80000fd6: e9e58593     	addi	a1, a1, -0x162
80000fda: e188         	sd	a0, 0x0(a1)
80000fdc: 458d         	li	a1, 0x3
80000fde: 00b56b63     	bltu	a0, a1, 0x80000ff4 <.Lpcrel_hi13>
80000fe2: a839         	j	0x80001000 <.Lpcrel_hi13+0xc>

0000000080000fe4 <.Lpcrel_hi12>:
80000fe4: 00006517     	auipc	a0, 0x6
80000fe8: 9dc50513     	addi	a0, a0, -0x624
80000fec: 00005097     	auipc	ra, 0x5
80000ff0: aec080e7     	jalr	-0x514(ra) <core::panicking::panic_null_pointer_dereference::hbac6411af4f2e916>

0000000080000ff4 <.Lpcrel_hi13>:
80000ff4: 00007517     	auipc	a0, 0x7
80000ff8: 0f450513     	addi	a0, a0, 0xf4
80000ffc: ed01         	bnez	a0, 0x80001014 <.Lpcrel_hi14+0x12>
80000ffe: a825         	j	0x80001036 <.Lpcrel_hi16>
80001000: 6542         	ld	a0, 0x10(sp)

0000000080001002 <.Lpcrel_hi14>:
80001002: 00006597     	auipc	a1, 0x6
80001006: 9d658613     	addi	a2, a1, -0x62a
8000100a: 458d         	li	a1, 0x3
8000100c: 00005097     	auipc	ra, 0x5
80001010: a60080e7     	jalr	-0x5a0(ra) <core::panicking::panic_bounds_check::h6aaee0d15e0261eb>
80001014: 6542         	ld	a0, 0x10(sp)
80001016: 25800593     	li	a1, 0x258
8000101a: 02b50633     	mul	a2, a0, a1

000000008000101e <.Lpcrel_hi15>:
8000101e: 00007597     	auipc	a1, 0x7
80001022: 0ca58593     	addi	a1, a1, 0xca
80001026: 962e         	add	a2, a2, a1
80001028: 4585         	li	a1, 0x1
8000102a: 20b63c23     	sd	a1, 0x218(a2)
8000102e: 458d         	li	a1, 0x3
80001030: 00b56b63     	bltu	a0, a1, 0x80001046 <.Lpcrel_hi17>
80001034: a839         	j	0x80001052 <.Lpcrel_hi17+0xc>

0000000080001036 <.Lpcrel_hi16>:
80001036: 00006517     	auipc	a0, 0x6
8000103a: 9a250513     	addi	a0, a0, -0x65e
8000103e: 00005097     	auipc	ra, 0x5
80001042: a9a080e7     	jalr	-0x566(ra) <core::panicking::panic_null_pointer_dereference::hbac6411af4f2e916>

0000000080001046 <.Lpcrel_hi17>:
80001046: 00007517     	auipc	a0, 0x7
8000104a: 0a250513     	addi	a0, a0, 0xa2
8000104e: ed01         	bnez	a0, 0x80001066 <.Lpcrel_hi18+0x12>
80001050: a891         	j	0x800010a4 <.Lpcrel_hi21>
80001052: 6542         	ld	a0, 0x10(sp)

0000000080001054 <.Lpcrel_hi18>:
80001054: 00006597     	auipc	a1, 0x6
80001058: 99c58613     	addi	a2, a1, -0x664
8000105c: 458d         	li	a1, 0x3
8000105e: 00005097     	auipc	ra, 0x5
80001062: a0e080e7     	jalr	-0x5f2(ra) <core::panicking::panic_bounds_check::h6aaee0d15e0261eb>
80001066: 6562         	ld	a0, 0x18(sp)
80001068: 65c2         	ld	a1, 0x10(sp)
8000106a: 25800613     	li	a2, 0x258
8000106e: 02c58633     	mul	a2, a1, a2

0000000080001072 <.Lpcrel_hi19>:
80001072: 00007597     	auipc	a1, 0x7
80001076: 07658593     	addi	a1, a1, 0x76
8000107a: 95b2         	add	a1, a1, a2
8000107c: 22a5b423     	sd	a0, 0x228(a1)
80001080: 00001097     	auipc	ra, 0x1
80001084: 95e080e7     	jalr	-0x6a2(ra) <lab5_kernel_task2::current_policy::hf87e29c046b13f0e>
80001088: 0ca103a3     	sb	a0, 0xc7(sp)

000000008000108c <.Lpcrel_hi20>:
8000108c: 00006517     	auipc	a0, 0x6
80001090: 97c50593     	addi	a1, a0, -0x684
80001094: 0c710513     	addi	a0, sp, 0xc7
80001098: 00003097     	auipc	ra, 0x3
8000109c: 474080e7     	jalr	0x474(ra) <_$LT$lab5_kernel_task2..SchedulerPolicy$u20$as$u20$core..cmp..PartialEq$GT$::eq::h9fb6f4c29ce4be84>
800010a0: ed1d         	bnez	a0, 0x800010de <.Lpcrel_hi21+0x3a>
800010a2: a809         	j	0x800010b4 <.Lpcrel_hi21+0x10>

00000000800010a4 <.Lpcrel_hi21>:
800010a4: 00006517     	auipc	a0, 0x6
800010a8: 94c50513     	addi	a0, a0, -0x6b4
800010ac: 00005097     	auipc	ra, 0x5
800010b0: a2c080e7     	jalr	-0x5d4(ra) <core::panicking::panic_null_pointer_dereference::hbac6411af4f2e916>
800010b4: 6542         	ld	a0, 0x10(sp)
800010b6: 00002097     	auipc	ra, 0x2
800010ba: 91a080e7     	jalr	-0x6e6(ra) <lab5_kernel_task2::log_initial_restore::hdf5ac582c2d45761>
800010be: 6542         	ld	a0, 0x10(sp)
800010c0: 00001097     	auipc	ra, 0x1
800010c4: 9fa080e7     	jalr	-0x606(ra) <lab5_kernel_task2::task_frame_ptr::h6df018a0a2b70a35>
800010c8: e42a         	sd	a0, 0x8(sp)
800010ca: 00001097     	auipc	ra, 0x1
800010ce: b74080e7     	jalr	-0x48c(ra) <lab5_kernel_task2::kernel_stack_top::ha4d86841b93c92f3>
800010d2: 85aa         	mv	a1, a0
800010d4: 6522         	ld	a0, 0x8(sp)
800010d6: 00000097     	auipc	ra, 0x0
800010da: a1a080e7     	jalr	-0x5e6(ra) <enter_task>
800010de: 65c2         	ld	a1, 0x10(sp)
800010e0: 4509         	li	a0, 0x2
800010e2: 02b56463     	bltu	a0, a1, 0x8000110a <.Lpcrel_hi22+0x16>
800010e6: a009         	j	0x800010e8 <.Lpcrel_hi21+0x44>
800010e8: 6542         	ld	a0, 0x10(sp)
800010ea: 00451593     	slli	a1, a0, 0x4
800010ee: 051a         	slli	a0, a0, 0x6
800010f0: 40b505b3     	sub	a1, a0, a1

00000000800010f4 <.Lpcrel_hi22>:
800010f4: 00006517     	auipc	a0, 0x6
800010f8: 5b450513     	addi	a0, a0, 0x5b4
800010fc: 952e         	add	a0, a0, a1
800010fe: 7108         	ld	a0, 0x20(a0)
80001100: e02a         	sd	a0, 0x0(sp)
80001102: 4591         	li	a1, 0x4
80001104: 00b56d63     	bltu	a0, a1, 0x8000111e <.Lpcrel_hi24>
80001108: a00d         	j	0x8000112a <.Lpcrel_hi24+0xc>
8000110a: 6542         	ld	a0, 0x10(sp)

000000008000110c <.Lpcrel_hi23>:
8000110c: 00006597     	auipc	a1, 0x6
80001110: 90458613     	addi	a2, a1, -0x6fc
80001114: 458d         	li	a1, 0x3
80001116: 00005097     	auipc	ra, 0x5
8000111a: 956080e7     	jalr	-0x6aa(ra) <core::panicking::panic_bounds_check::h6aaee0d15e0261eb>

000000008000111e <.Lpcrel_hi24>:
8000111e: 00007517     	auipc	a0, 0x7
80001122: d5a50513     	addi	a0, a0, -0x2a6
80001126: ed01         	bnez	a0, 0x8000113e <.Lpcrel_hi25+0x12>
80001128: a035         	j	0x80001154 <.Lpcrel_hi27>
8000112a: 6502         	ld	a0, 0x0(sp)

000000008000112c <.Lpcrel_hi25>:
8000112c: 00006597     	auipc	a1, 0x6
80001130: 8fc58613     	addi	a2, a1, -0x704
80001134: 4591         	li	a1, 0x4
80001136: 00005097     	auipc	ra, 0x5
8000113a: 936080e7     	jalr	-0x6ca(ra) <core::panicking::panic_bounds_check::h6aaee0d15e0261eb>
8000113e: 6542         	ld	a0, 0x10(sp)
80001140: 6582         	ld	a1, 0x0(sp)
80001142: 00359613     	slli	a2, a1, 0x3

0000000080001146 <.Lpcrel_hi26>:
80001146: 00007597     	auipc	a1, 0x7
8000114a: d3258593     	addi	a1, a1, -0x2ce
8000114e: 95b2         	add	a1, a1, a2
80001150: e188         	sd	a0, 0x0(a1)
80001152: b78d         	j	0x800010b4 <.Lpcrel_hi21+0x10>

0000000080001154 <.Lpcrel_hi27>:
80001154: 00006517     	auipc	a0, 0x6
80001158: 8d450513     	addi	a0, a0, -0x72c
8000115c: 00005097     	auipc	ra, 0x5
80001160: 97c080e7     	jalr	-0x684(ra) <core::panicking::panic_null_pointer_dereference::hbac6411af4f2e916>

0000000080001164 <lab5_kernel_task2::PhaseSummary::empty::h577fb4198836056b>:
80001164: 714d         	addi	sp, sp, -0x150
80001166: e686         	sd	ra, 0x148(sp)
80001168: e82a         	sd	a0, 0x10(sp)
8000116a: 0208         	addi	a0, sp, 0x100
8000116c: 00000097     	auipc	ra, 0x0
80001170: 6da080e7     	jalr	0x6da(ra) <lab5_kernel_task2::TaskPhaseStats::empty::h9afcf54ead0de646>
80001174: 1028         	addi	a0, sp, 0x28
80001176: 020c         	addi	a1, sp, 0x100
80001178: ec2e         	sd	a1, 0x18(sp)
8000117a: f02a         	sd	a0, 0x20(sp)
8000117c: a009         	j	0x8000117e <lab5_kernel_task2::PhaseSummary::empty::h577fb4198836056b+0x1a>
8000117e: 65e2         	ld	a1, 0x18(sp)
80001180: 7502         	ld	a0, 0x20(sp)
80001182: e42a         	sd	a0, 0x8(sp)
80001184: 02b50063     	beq	a0, a1, 0x800011a4 <lab5_kernel_task2::PhaseSummary::empty::h577fb4198836056b+0x40>
80001188: a009         	j	0x8000118a <lab5_kernel_task2::PhaseSummary::empty::h577fb4198836056b+0x26>
8000118a: 6522         	ld	a0, 0x8(sp)
8000118c: 020c         	addi	a1, sp, 0x100
8000118e: 04800613     	li	a2, 0x48
80001192: 00005097     	auipc	ra, 0x5
80001196: ad0080e7     	jalr	-0x530(ra) <memcpy>
8000119a: 6522         	ld	a0, 0x8(sp)
8000119c: 04850513     	addi	a0, a0, 0x48
800011a0: f02a         	sd	a0, 0x20(sp)
800011a2: bff1         	j	0x8000117e <lab5_kernel_task2::PhaseSummary::empty::h577fb4198836056b+0x1a>
800011a4: 6542         	ld	a0, 0x10(sp)
800011a6: 4581         	li	a1, 0x0
800011a8: e10c         	sd	a1, 0x0(a0)
800011aa: e50c         	sd	a1, 0x8(a0)
800011ac: e90c         	sd	a1, 0x10(a0)
800011ae: ed0c         	sd	a1, 0x18(a0)
800011b0: f10c         	sd	a1, 0x20(a0)
800011b2: 02850513     	addi	a0, a0, 0x28
800011b6: 102c         	addi	a1, sp, 0x28
800011b8: 0d800613     	li	a2, 0xd8
800011bc: 00005097     	auipc	ra, 0x5
800011c0: aa6080e7     	jalr	-0x55a(ra) <memcpy>
800011c4: 60b6         	ld	ra, 0x148(sp)
800011c6: 6171         	addi	sp, sp, 0x150
800011c8: 8082         	ret

00000000800011ca <lab5_kernel_task2::SwitchReason::as_str::h6c698df78caa931f>:
800011ca: 1101         	addi	sp, sp, -0x20
800011cc: 00a10fa3     	sb	a0, 0x1f(sp)
800011d0: 85aa         	mv	a1, a0
800011d2: e02e         	sd	a1, 0x0(sp)
800011d4: cd11         	beqz	a0, 0x800011f0 <.Lpcrel_hi28>
800011d6: a009         	j	0x800011d8 <lab5_kernel_task2::SwitchReason::as_str::h6c698df78caa931f+0xe>
800011d8: 6502         	ld	a0, 0x0(sp)
800011da: 4585         	li	a1, 0x1
800011dc: 02b50263     	beq	a0, a1, 0x80001200 <.Lpcrel_hi29>
800011e0: a009         	j	0x800011e2 <lab5_kernel_task2::SwitchReason::as_str::h6c698df78caa931f+0x18>
800011e2: 6502         	ld	a0, 0x0(sp)
800011e4: 4589         	li	a1, 0x2
800011e6: 02b50563     	beq	a0, a1, 0x80001210 <.Lpcrel_hi30>
800011ea: a009         	j	0x800011ec <lab5_kernel_task2::SwitchReason::as_str::h6c698df78caa931f+0x22>
800011ec: a815         	j	0x80001220 <.Lpcrel_hi31>
800011ee: 0000         	unimp

00000000800011f0 <.Lpcrel_hi28>:
800011f0: 00006517     	auipc	a0, 0x6
800011f4: 85450513     	addi	a0, a0, -0x7ac
800011f8: e42a         	sd	a0, 0x8(sp)
800011fa: 4511         	li	a0, 0x4
800011fc: e82a         	sd	a0, 0x10(sp)
800011fe: a80d         	j	0x80001230 <.Lpcrel_hi31+0x10>

0000000080001200 <.Lpcrel_hi29>:
80001200: 00006517     	auipc	a0, 0x6
80001204: 85050513     	addi	a0, a0, -0x7b0
80001208: e42a         	sd	a0, 0x8(sp)
8000120a: 4539         	li	a0, 0xe
8000120c: e82a         	sd	a0, 0x10(sp)
8000120e: a00d         	j	0x80001230 <.Lpcrel_hi31+0x10>

0000000080001210 <.Lpcrel_hi30>:
80001210: 00006517     	auipc	a0, 0x6
80001214: 84e50513     	addi	a0, a0, -0x7b2
80001218: e42a         	sd	a0, 0x8(sp)
8000121a: 4529         	li	a0, 0xa
8000121c: e82a         	sd	a0, 0x10(sp)
8000121e: a809         	j	0x80001230 <.Lpcrel_hi31+0x10>

0000000080001220 <.Lpcrel_hi31>:
80001220: 00006517     	auipc	a0, 0x6
80001224: 84850513     	addi	a0, a0, -0x7b8
80001228: e42a         	sd	a0, 0x8(sp)
8000122a: 4525         	li	a0, 0x9
8000122c: e82a         	sd	a0, 0x10(sp)
8000122e: a009         	j	0x80001230 <.Lpcrel_hi31+0x10>
80001230: 6522         	ld	a0, 0x8(sp)
80001232: 65c2         	ld	a1, 0x10(sp)
80001234: 6105         	addi	sp, sp, 0x20
80001236: 8082         	ret

0000000080001238 <lab5_kernel_task2::current_task::hdba6ec3709aafd44>:
80001238: 1141         	addi	sp, sp, -0x10
8000123a: e406         	sd	ra, 0x8(sp)

000000008000123c <.Lpcrel_hi32>:
8000123c: 00007517     	auipc	a0, 0x7
80001240: c3450513     	addi	a0, a0, -0x3cc
80001244: c919         	beqz	a0, 0x8000125a <.Lpcrel_hi34>
80001246: a009         	j	0x80001248 <.Lpcrel_hi33>

0000000080001248 <.Lpcrel_hi33>:
80001248: 00007517     	auipc	a0, 0x7
8000124c: c2850513     	addi	a0, a0, -0x3d8
80001250: 6108         	ld	a0, 0x0(a0)
80001252: 55fd         	li	a1, -0x1
80001254: 02b50163     	beq	a0, a1, 0x80001276 <.Lpcrel_hi36>
80001258: a809         	j	0x8000126a <.Lpcrel_hi35>

000000008000125a <.Lpcrel_hi34>:
8000125a: 00006517     	auipc	a0, 0x6
8000125e: 81e50513     	addi	a0, a0, -0x7e2
80001262: 00005097     	auipc	ra, 0x5
80001266: 876080e7     	jalr	-0x78a(ra) <core::panicking::panic_null_pointer_dereference::hbac6411af4f2e916>

000000008000126a <.Lpcrel_hi35>:
8000126a: 00007517     	auipc	a0, 0x7
8000126e: c0650513     	addi	a0, a0, -0x3fa
80001272: e505         	bnez	a0, 0x8000129a <.Lpcrel_hi37>
80001274: a81d         	j	0x800012aa <.Lpcrel_hi38>

0000000080001276 <.Lpcrel_hi36>:
80001276: 00006517     	auipc	a0, 0x6
8000127a: 83250513     	addi	a0, a0, -0x7ce
8000127e: 45f5         	li	a1, 0x1d
80001280: fffff097     	auipc	ra, 0xfffff
80001284: e72080e7     	jalr	-0x18e(ra) <core::fmt::Arguments::from_str::h33e5b7cf62654f3d>
80001288: fffff097     	auipc	ra, 0xfffff
8000128c: 3ec080e7     	jalr	0x3ec(ra) <lab5_kernel_task2::console::print::h64393a0152c60ab8>
80001290: 4505         	li	a0, 0x1
80001292: 00003097     	auipc	ra, 0x3
80001296: dee080e7     	jalr	-0x212(ra) <lab5_kernel_task2::qemu_exit::h33eac16ec3c335e5>

000000008000129a <.Lpcrel_hi37>:
8000129a: 00007517     	auipc	a0, 0x7
8000129e: bd650513     	addi	a0, a0, -0x42a
800012a2: 6108         	ld	a0, 0x0(a0)
800012a4: 60a2         	ld	ra, 0x8(sp)
800012a6: 0141         	addi	sp, sp, 0x10
800012a8: 8082         	ret

00000000800012aa <.Lpcrel_hi38>:
800012aa: 00005517     	auipc	a0, 0x5
800012ae: 7e650513     	addi	a0, a0, 0x7e6
800012b2: 00005097     	auipc	ra, 0x5
800012b6: 826080e7     	jalr	-0x7da(ra) <core::panicking::panic_null_pointer_dereference::hbac6411af4f2e916>

00000000800012ba <lab5_kernel_task2::configure_pmp::h8b13b65358226b8f>:
800012ba: 557d         	li	a0, -0x1
800012bc: 8109         	srli	a0, a0, 0x2
800012be: 3b051073     	csrw	pmpaddr0, a0
800012c2: 457d         	li	a0, 0x1f
800012c4: 3a051073     	csrw	pmpcfg0, a0
800012c8: 8082         	ret

00000000800012ca <lab5_kernel_task2::dispatch_trap::hf2d3bb563dfd4288>:
800012ca: 7131         	addi	sp, sp, -0xc0
800012cc: fd06         	sd	ra, 0xb8(sp)
800012ce: e42a         	sd	a0, 0x8(sp)
800012d0: ec2e         	sd	a1, 0x18(sp)
800012d2: f032         	sd	a2, 0x20(sp)
800012d4: f12a         	sd	a0, 0xa0(sp)
800012d6: 6562         	ld	a0, 0x18(sp)
800012d8: e82a         	sd	a0, 0x10(sp)
800012da: 55fd         	li	a1, -0x1
800012dc: 15fe         	slli	a1, a1, 0x3f
800012de: 059d         	addi	a1, a1, 0x7
800012e0: 08b50c63     	beq	a0, a1, 0x80001378 <.Lpcrel_hi39+0x3c>
800012e4: a009         	j	0x800012e6 <lab5_kernel_task2::dispatch_trap::hf2d3bb563dfd4288+0x1c>
800012e6: 6542         	ld	a0, 0x10(sp)
800012e8: 45a1         	li	a1, 0x8
800012ea: 06b50b63     	beq	a0, a1, 0x80001360 <.Lpcrel_hi39+0x24>
800012ee: a009         	j	0x800012f0 <lab5_kernel_task2::dispatch_trap::hf2d3bb563dfd4288+0x26>
800012f0: 6522         	ld	a0, 0x8(sp)
800012f2: 0f850513     	addi	a0, a0, 0xf8
800012f6: 082c         	addi	a1, sp, 0x18
800012f8: f42e         	sd	a1, 0x28(sp)
800012fa: f82a         	sd	a0, 0x30(sp)
800012fc: 1008         	addi	a0, sp, 0x20
800012fe: fc2a         	sd	a0, 0x38(sp)
80001300: 75a2         	ld	a1, 0x28(sp)
80001302: 1888         	addi	a0, sp, 0x70
80001304: fffff097     	auipc	ra, 0xfffff
80001308: 034080e7     	jalr	0x34(ra) <core::fmt::rt::Argument::new_lower_hex::hef62858e56d66e45>
8000130c: 75c2         	ld	a1, 0x30(sp)
8000130e: 0108         	addi	a0, sp, 0x80
80001310: fffff097     	auipc	ra, 0xfffff
80001314: 028080e7     	jalr	0x28(ra) <core::fmt::rt::Argument::new_lower_hex::hef62858e56d66e45>
80001318: 75e2         	ld	a1, 0x38(sp)
8000131a: 0908         	addi	a0, sp, 0x90
8000131c: fffff097     	auipc	ra, 0xfffff
80001320: 01c080e7     	jalr	0x1c(ra) <core::fmt::rt::Argument::new_lower_hex::hef62858e56d66e45>
80001324: 7566         	ld	a0, 0x78(sp)
80001326: e4aa         	sd	a0, 0x48(sp)
80001328: 7546         	ld	a0, 0x70(sp)
8000132a: e0aa         	sd	a0, 0x40(sp)
8000132c: 652a         	ld	a0, 0x88(sp)
8000132e: ecaa         	sd	a0, 0x58(sp)
80001330: 650a         	ld	a0, 0x80(sp)
80001332: e8aa         	sd	a0, 0x50(sp)
80001334: 656a         	ld	a0, 0x98(sp)
80001336: f4aa         	sd	a0, 0x68(sp)
80001338: 654a         	ld	a0, 0x90(sp)
8000133a: f0aa         	sd	a0, 0x60(sp)

000000008000133c <.Lpcrel_hi39>:
8000133c: 00005517     	auipc	a0, 0x5
80001340: 78950513     	addi	a0, a0, 0x789
80001344: 008c         	addi	a1, sp, 0x40
80001346: 00003097     	auipc	ra, 0x3
8000134a: 7d4080e7     	jalr	0x7d4(ra) <core::fmt::Arguments::new::hec67e427fbfb6478>
8000134e: fffff097     	auipc	ra, 0xfffff
80001352: 326080e7     	jalr	0x326(ra) <lab5_kernel_task2::console::print::h64393a0152c60ab8>
80001356: 4505         	li	a0, 0x1
80001358: 00003097     	auipc	ra, 0x3
8000135c: d28080e7     	jalr	-0x2d8(ra) <lab5_kernel_task2::qemu_exit::h33eac16ec3c335e5>
80001360: 6522         	ld	a0, 0x8(sp)
80001362: 7d6c         	ld	a1, 0xf8(a0)
80001364: f52e         	sd	a1, 0xa8(sp)
80001366: 4611         	li	a2, 0x4
80001368: f932         	sd	a2, 0xb0(sp)
8000136a: 0591         	addi	a1, a1, 0x4
8000136c: fd6c         	sd	a1, 0xf8(a0)
8000136e: 00000097     	auipc	ra, 0x0
80001372: 6d4080e7     	jalr	0x6d4(ra) <lab5_kernel_task2::handle_syscall::h766c5736a487396a>
80001376: a039         	j	0x80001384 <.Lpcrel_hi39+0x48>
80001378: 6522         	ld	a0, 0x8(sp)
8000137a: 00002097     	auipc	ra, 0x2
8000137e: ed8080e7     	jalr	-0x128(ra) <lab5_kernel_task2::handle_timer_interrupt::h5920c5399be94aca>
80001382: a009         	j	0x80001384 <.Lpcrel_hi39+0x48>
80001384: 70ea         	ld	ra, 0xb8(sp)
80001386: 6129         	addi	sp, sp, 0xc0
80001388: 8082         	ret

000000008000138a <lab5_kernel_task2::handle_finish::hd78acc17068f49e3>:
8000138a: 7121         	addi	sp, sp, -0x1c0
8000138c: ff06         	sd	ra, 0x1b8(sp)
8000138e: e8ae         	sd	a1, 0x50(sp)
80001390: f0aa         	sd	a0, 0x60(sp)
80001392: e72e         	sd	a1, 0x188(sp)
80001394: 00000097     	auipc	ra, 0x0
80001398: ea4080e7     	jalr	-0x15c(ra) <lab5_kernel_task2::current_task::hdba6ec3709aafd44>
8000139c: ecaa         	sd	a0, 0x58(sp)
8000139e: 85aa         	mv	a1, a0
800013a0: e0ae         	sd	a1, 0x40(sp)
800013a2: eb2a         	sd	a0, 0x190(sp)
800013a4: 00000097     	auipc	ra, 0x0
800013a8: af4080e7     	jalr	-0x50c(ra) <lab5_kernel_task2::read_mtime::h4657ea07da30bf8e>
800013ac: 85aa         	mv	a1, a0
800013ae: 6566         	ld	a0, 0x58(sp)
800013b0: 862e         	mv	a2, a1
800013b2: e4b2         	sd	a2, 0x48(sp)
800013b4: ef2e         	sd	a1, 0x198(sp)
800013b6: 00000097     	auipc	ra, 0x0
800013ba: 4a8080e7     	jalr	0x4a8(ra) <lab5_kernel_task2::charge_runtime::h15114116de2a76e1>
800013be: 65c6         	ld	a1, 0x50(sp)
800013c0: 6566         	ld	a0, 0x58(sp)
800013c2: 00001097     	auipc	ra, 0x1
800013c6: 018080e7     	jalr	0x18(ra) <lab5_kernel_task2::save_current_frame::h8bdb8513e233ba46>
800013ca: 65e6         	ld	a1, 0x58(sp)
800013cc: 4509         	li	a0, 0x2
800013ce: 00b56963     	bltu	a0, a1, 0x800013e0 <.Lpcrel_hi40+0xc>
800013d2: a009         	j	0x800013d4 <.Lpcrel_hi40>

00000000800013d4 <.Lpcrel_hi40>:
800013d4: 00007517     	auipc	a0, 0x7
800013d8: d1450513     	addi	a0, a0, -0x2ec
800013dc: ed01         	bnez	a0, 0x800013f4 <.Lpcrel_hi41+0x12>
800013de: a825         	j	0x80001416 <.Lpcrel_hi43>
800013e0: 6506         	ld	a0, 0x40(sp)

00000000800013e2 <.Lpcrel_hi41>:
800013e2: 00005597     	auipc	a1, 0x5
800013e6: 72658613     	addi	a2, a1, 0x726
800013ea: 458d         	li	a1, 0x3
800013ec: 00004097     	auipc	ra, 0x4
800013f0: 680080e7     	jalr	0x680(ra) <core::panicking::panic_bounds_check::h6aaee0d15e0261eb>
800013f4: 6506         	ld	a0, 0x40(sp)
800013f6: 25800593     	li	a1, 0x258
800013fa: 02b50633     	mul	a2, a0, a1

00000000800013fe <.Lpcrel_hi42>:
800013fe: 00007597     	auipc	a1, 0x7
80001402: cea58593     	addi	a1, a1, -0x316
80001406: 962e         	add	a2, a2, a1
80001408: 4585         	li	a1, 0x1
8000140a: 24b60823     	sb	a1, 0x250(a2)
8000140e: 458d         	li	a1, 0x3
80001410: 00b56b63     	bltu	a0, a1, 0x80001426 <.Lpcrel_hi44>
80001414: a839         	j	0x80001432 <.Lpcrel_hi44+0xc>

0000000080001416 <.Lpcrel_hi43>:
80001416: 00005517     	auipc	a0, 0x5
8000141a: 6f250513     	addi	a0, a0, 0x6f2
8000141e: 00004097     	auipc	ra, 0x4
80001422: 6ba080e7     	jalr	0x6ba(ra) <core::panicking::panic_null_pointer_dereference::hbac6411af4f2e916>

0000000080001426 <.Lpcrel_hi44>:
80001426: 00007517     	auipc	a0, 0x7
8000142a: cc250513     	addi	a0, a0, -0x33e
8000142e: ed01         	bnez	a0, 0x80001446 <.Lpcrel_hi45+0x12>
80001430: a835         	j	0x8000146c <.Lpcrel_hi48>
80001432: 6506         	ld	a0, 0x40(sp)

0000000080001434 <.Lpcrel_hi45>:
80001434: 00005597     	auipc	a1, 0x5
80001438: 6ec58613     	addi	a2, a1, 0x6ec
8000143c: 458d         	li	a1, 0x3
8000143e: 00004097     	auipc	ra, 0x4
80001442: 62e080e7     	jalr	0x62e(ra) <core::panicking::panic_bounds_check::h6aaee0d15e0261eb>
80001446: 6506         	ld	a0, 0x40(sp)
80001448: 25800593     	li	a1, 0x258
8000144c: 02b505b3     	mul	a1, a0, a1

0000000080001450 <.Lpcrel_hi46>:
80001450: 00007517     	auipc	a0, 0x7
80001454: c9850513     	addi	a0, a0, -0x368
80001458: 95aa         	add	a1, a1, a0
8000145a: 7506         	ld	a0, 0x60(sp)
8000145c: 20a5b823     	sd	a0, 0x210(a1)

0000000080001460 <.Lpcrel_hi47>:
80001460: 00007517     	auipc	a0, 0x7
80001464: c5850513     	addi	a0, a0, -0x3a8
80001468: e911         	bnez	a0, 0x8000147c <.Lpcrel_hi48+0x10>
8000146a: a805         	j	0x8000149a <.Lpcrel_hi50>

000000008000146c <.Lpcrel_hi48>:
8000146c: 00005517     	auipc	a0, 0x5
80001470: 6b450513     	addi	a0, a0, 0x6b4
80001474: 00004097     	auipc	ra, 0x4
80001478: 664080e7     	jalr	0x664(ra) <core::panicking::panic_null_pointer_dereference::hbac6411af4f2e916>
8000147c: 6506         	ld	a0, 0x40(sp)
8000147e: 65a6         	ld	a1, 0x48(sp)

0000000080001480 <.Lpcrel_hi49>:
80001480: 00007617     	auipc	a2, 0x7
80001484: c3860613     	addi	a2, a2, -0x3c8
80001488: 6210         	ld	a2, 0x0(a2)
8000148a: f72e         	sd	a1, 0x1a8(sp)
8000148c: fb32         	sd	a2, 0x1b0(sp)
8000148e: 8d91         	sub	a1, a1, a2
80001490: fc2e         	sd	a1, 0x38(sp)
80001492: 458d         	li	a1, 0x3
80001494: 00b56b63     	bltu	a0, a1, 0x800014aa <.Lpcrel_hi51>
80001498: a839         	j	0x800014b6 <.Lpcrel_hi51+0xc>

000000008000149a <.Lpcrel_hi50>:
8000149a: 00005517     	auipc	a0, 0x5
8000149e: 69e50513     	addi	a0, a0, 0x69e
800014a2: 00004097     	auipc	ra, 0x4
800014a6: 636080e7     	jalr	0x636(ra) <core::panicking::panic_null_pointer_dereference::hbac6411af4f2e916>

00000000800014aa <.Lpcrel_hi51>:
800014aa: 00007517     	auipc	a0, 0x7
800014ae: c3e50513     	addi	a0, a0, -0x3c2
800014b2: ed01         	bnez	a0, 0x800014ca <.Lpcrel_hi52+0x12>
800014b4: a835         	j	0x800014f0 <.Lpcrel_hi55>
800014b6: 6506         	ld	a0, 0x40(sp)

00000000800014b8 <.Lpcrel_hi52>:
800014b8: 00005597     	auipc	a1, 0x5
800014bc: 69858613     	addi	a2, a1, 0x698
800014c0: 458d         	li	a1, 0x3
800014c2: 00004097     	auipc	ra, 0x4
800014c6: 5aa080e7     	jalr	0x5aa(ra) <core::panicking::panic_bounds_check::h6aaee0d15e0261eb>
800014ca: 7562         	ld	a0, 0x38(sp)
800014cc: 6586         	ld	a1, 0x40(sp)
800014ce: 25800613     	li	a2, 0x258
800014d2: 02c58633     	mul	a2, a1, a2

00000000800014d6 <.Lpcrel_hi53>:
800014d6: 00007597     	auipc	a1, 0x7
800014da: c1258593     	addi	a1, a1, -0x3ee
800014de: 95b2         	add	a1, a1, a2
800014e0: 22a5b823     	sd	a0, 0x230(a1)

00000000800014e4 <.Lpcrel_hi54>:
800014e4: 00007517     	auipc	a0, 0x7
800014e8: 9c450513     	addi	a0, a0, -0x63c
800014ec: e911         	bnez	a0, 0x80001500 <.Lpcrel_hi56>
800014ee: a025         	j	0x80001516 <.Lpcrel_hi57>

00000000800014f0 <.Lpcrel_hi55>:
800014f0: 00005517     	auipc	a0, 0x5
800014f4: 66050513     	addi	a0, a0, 0x660
800014f8: 00004097     	auipc	ra, 0x4
800014fc: 5e0080e7     	jalr	0x5e0(ra) <core::panicking::panic_null_pointer_dereference::hbac6411af4f2e916>

0000000080001500 <.Lpcrel_hi56>:
80001500: 00007517     	auipc	a0, 0x7
80001504: 9a850513     	addi	a0, a0, -0x658
80001508: 610c         	ld	a1, 0x0(a0)
8000150a: 00158513     	addi	a0, a1, 0x1
8000150e: f82a         	sd	a0, 0x30(sp)
80001510: 02b56163     	bltu	a0, a1, 0x80001532 <.Lpcrel_hi59>
80001514: a809         	j	0x80001526 <.Lpcrel_hi58>

0000000080001516 <.Lpcrel_hi57>:
80001516: 00005517     	auipc	a0, 0x5
8000151a: 65250513     	addi	a0, a0, 0x652
8000151e: 00004097     	auipc	ra, 0x4
80001522: 5ba080e7     	jalr	0x5ba(ra) <core::panicking::panic_null_pointer_dereference::hbac6411af4f2e916>

0000000080001526 <.Lpcrel_hi58>:
80001526: 00007517     	auipc	a0, 0x7
8000152a: 98250513     	addi	a0, a0, -0x67e
8000152e: e911         	bnez	a0, 0x80001542 <.Lpcrel_hi59+0x10>
80001530: a00d         	j	0x80001552 <.Lpcrel_hi61>

0000000080001532 <.Lpcrel_hi59>:
80001532: 00005517     	auipc	a0, 0x5
80001536: 63650513     	addi	a0, a0, 0x636
8000153a: 00004097     	auipc	ra, 0x4
8000153e: 4f6080e7     	jalr	0x4f6(ra) <core::panicking::panic_const::panic_const_add_overflow::h67cba067093910f8>
80001542: 75c2         	ld	a1, 0x30(sp)

0000000080001544 <.Lpcrel_hi60>:
80001544: 00007517     	auipc	a0, 0x7
80001548: 96450513     	addi	a0, a0, -0x69c
8000154c: e10c         	sd	a1, 0x0(a0)
8000154e: e911         	bnez	a0, 0x80001562 <.Lpcrel_hi61+0x10>
80001550: a025         	j	0x80001578 <.Lpcrel_hi63>

0000000080001552 <.Lpcrel_hi61>:
80001552: 00005517     	auipc	a0, 0x5
80001556: 61650513     	addi	a0, a0, 0x616
8000155a: 00004097     	auipc	ra, 0x4
8000155e: 57e080e7     	jalr	0x57e(ra) <core::panicking::panic_null_pointer_dereference::hbac6411af4f2e916>
80001562: 6506         	ld	a0, 0x40(sp)

0000000080001564 <.Lpcrel_hi62>:
80001564: 00007597     	auipc	a1, 0x7
80001568: 94458593     	addi	a1, a1, -0x6bc
8000156c: 618c         	ld	a1, 0x0(a1)
8000156e: f42e         	sd	a1, 0x28(sp)
80001570: 458d         	li	a1, 0x3
80001572: 00b56b63     	bltu	a0, a1, 0x80001588 <.Lpcrel_hi64>
80001576: a839         	j	0x80001594 <.Lpcrel_hi64+0xc>

0000000080001578 <.Lpcrel_hi63>:
80001578: 00005517     	auipc	a0, 0x5
8000157c: 60850513     	addi	a0, a0, 0x608
80001580: 00004097     	auipc	ra, 0x4
80001584: 558080e7     	jalr	0x558(ra) <core::panicking::panic_null_pointer_dereference::hbac6411af4f2e916>

0000000080001588 <.Lpcrel_hi64>:
80001588: 00007517     	auipc	a0, 0x7
8000158c: b6050513     	addi	a0, a0, -0x4a0
80001590: ed01         	bnez	a0, 0x800015a8 <.Lpcrel_hi65+0x12>
80001592: a0a1         	j	0x800015da <.Lpcrel_hi67>
80001594: 6506         	ld	a0, 0x40(sp)

0000000080001596 <.Lpcrel_hi65>:
80001596: 00005597     	auipc	a1, 0x5
8000159a: 60258613     	addi	a2, a1, 0x602
8000159e: 458d         	li	a1, 0x3
800015a0: 00004097     	auipc	ra, 0x4
800015a4: 4cc080e7     	jalr	0x4cc(ra) <core::panicking::panic_bounds_check::h6aaee0d15e0261eb>
800015a8: 6586         	ld	a1, 0x40(sp)
800015aa: 7522         	ld	a0, 0x28(sp)
800015ac: 25800613     	li	a2, 0x258
800015b0: 02c58633     	mul	a2, a1, a2

00000000800015b4 <.Lpcrel_hi66>:
800015b4: 00007597     	auipc	a1, 0x7
800015b8: b3458593     	addi	a1, a1, -0x4cc
800015bc: 95b2         	add	a1, a1, a2
800015be: 22a5bc23     	sd	a0, 0x238(a1)
800015c2: 00001097     	auipc	ra, 0x1
800015c6: db4080e7     	jalr	-0x24c(ra) <lab5_kernel_task2::current_phase_name::hd64ac02d196bccfb>
800015ca: 862a         	mv	a2, a0
800015cc: 6506         	ld	a0, 0x40(sp)
800015ce: ed32         	sd	a2, 0x98(sp)
800015d0: f12e         	sd	a1, 0xa0(sp)
800015d2: 458d         	li	a1, 0x3
800015d4: 00b56b63     	bltu	a0, a1, 0x800015ea <.Lpcrel_hi67+0x10>
800015d8: a81d         	j	0x8000160e <.Lpcrel_hi68+0x16>

00000000800015da <.Lpcrel_hi67>:
800015da: 00005517     	auipc	a0, 0x5
800015de: 5be50513     	addi	a0, a0, 0x5be
800015e2: 00004097     	auipc	ra, 0x4
800015e6: 4f6080e7     	jalr	0x4f6(ra) <core::panicking::panic_null_pointer_dereference::hbac6411af4f2e916>
800015ea: 6506         	ld	a0, 0x40(sp)
800015ec: 00451613     	slli	a2, a0, 0x4
800015f0: 00651593     	slli	a1, a0, 0x6
800015f4: 40c58633     	sub	a2, a1, a2

00000000800015f8 <.Lpcrel_hi68>:
800015f8: 00006597     	auipc	a1, 0x6
800015fc: 0b058593     	addi	a1, a1, 0xb0
80001600: 95b2         	add	a1, a1, a2
80001602: 05e1         	addi	a1, a1, 0x18
80001604: f02e         	sd	a1, 0x20(sp)
80001606: 458d         	li	a1, 0x3
80001608: 00b56d63     	bltu	a0, a1, 0x80001622 <.Lpcrel_hi69+0x12>
8000160c: a825         	j	0x80001644 <.Lpcrel_hi70+0x14>
8000160e: 6506         	ld	a0, 0x40(sp)

0000000080001610 <.Lpcrel_hi69>:
80001610: 00005597     	auipc	a1, 0x5
80001614: 5a058613     	addi	a2, a1, 0x5a0
80001618: 458d         	li	a1, 0x3
8000161a: 00004097     	auipc	ra, 0x4
8000161e: 452080e7     	jalr	0x452(ra) <core::panicking::panic_bounds_check::h6aaee0d15e0261eb>
80001622: 6506         	ld	a0, 0x40(sp)
80001624: 00451613     	slli	a2, a0, 0x4
80001628: 00651593     	slli	a1, a0, 0x6
8000162c: 40c58633     	sub	a2, a1, a2

0000000080001630 <.Lpcrel_hi70>:
80001630: 00006597     	auipc	a1, 0x6
80001634: 07858593     	addi	a1, a1, 0x78
80001638: 95b2         	add	a1, a1, a2
8000163a: ec2e         	sd	a1, 0x18(sp)
8000163c: 458d         	li	a1, 0x3
8000163e: 00b56d63     	bltu	a0, a1, 0x80001658 <.Lpcrel_hi72>
80001642: a00d         	j	0x80001664 <.Lpcrel_hi72+0xc>
80001644: 6506         	ld	a0, 0x40(sp)

0000000080001646 <.Lpcrel_hi71>:
80001646: 00005597     	auipc	a1, 0x5
8000164a: 58258613     	addi	a2, a1, 0x582
8000164e: 458d         	li	a1, 0x3
80001650: 00004097     	auipc	ra, 0x4
80001654: 41c080e7     	jalr	0x41c(ra) <core::panicking::panic_bounds_check::h6aaee0d15e0261eb>

0000000080001658 <.Lpcrel_hi72>:
80001658: 00007517     	auipc	a0, 0x7
8000165c: a9050513     	addi	a0, a0, -0x570
80001660: ed01         	bnez	a0, 0x80001678 <.Lpcrel_hi73+0x12>
80001662: a825         	j	0x8000169a <.Lpcrel_hi75>
80001664: 6506         	ld	a0, 0x40(sp)

0000000080001666 <.Lpcrel_hi73>:
80001666: 00005597     	auipc	a1, 0x5
8000166a: 57a58613     	addi	a2, a1, 0x57a
8000166e: 458d         	li	a1, 0x3
80001670: 00004097     	auipc	ra, 0x4
80001674: 3fc080e7     	jalr	0x3fc(ra) <core::panicking::panic_bounds_check::h6aaee0d15e0261eb>
80001678: 6506         	ld	a0, 0x40(sp)
8000167a: 25800593     	li	a1, 0x258
8000167e: 02b50633     	mul	a2, a0, a1

0000000080001682 <.Lpcrel_hi74>:
80001682: 00007597     	auipc	a1, 0x7
80001686: a6658593     	addi	a1, a1, -0x59a
8000168a: 95b2         	add	a1, a1, a2
8000168c: 2305b583     	ld	a1, 0x230(a1)
80001690: f52e         	sd	a1, 0xa8(sp)
80001692: 458d         	li	a1, 0x3
80001694: 00b56b63     	bltu	a0, a1, 0x800016aa <.Lpcrel_hi76>
80001698: a839         	j	0x800016b6 <.Lpcrel_hi76+0xc>

000000008000169a <.Lpcrel_hi75>:
8000169a: 00005517     	auipc	a0, 0x5
8000169e: 54650513     	addi	a0, a0, 0x546
800016a2: 00004097     	auipc	ra, 0x4
800016a6: 436080e7     	jalr	0x436(ra) <core::panicking::panic_null_pointer_dereference::hbac6411af4f2e916>

00000000800016aa <.Lpcrel_hi76>:
800016aa: 00007517     	auipc	a0, 0x7
800016ae: a3e50513     	addi	a0, a0, -0x5c2
800016b2: ed01         	bnez	a0, 0x800016ca <.Lpcrel_hi77+0x12>
800016b4: a8cd         	j	0x800017a6 <.Lpcrel_hi80>
800016b6: 6506         	ld	a0, 0x40(sp)

00000000800016b8 <.Lpcrel_hi77>:
800016b8: 00005597     	auipc	a1, 0x5
800016bc: 54058613     	addi	a2, a1, 0x540
800016c0: 458d         	li	a1, 0x3
800016c2: 00004097     	auipc	ra, 0x4
800016c6: 3aa080e7     	jalr	0x3aa(ra) <core::panicking::panic_bounds_check::h6aaee0d15e0261eb>
800016ca: 6606         	ld	a2, 0x40(sp)
800016cc: 6562         	ld	a0, 0x18(sp)
800016ce: 7582         	ld	a1, 0x20(sp)
800016d0: 25800693     	li	a3, 0x258
800016d4: 02d606b3     	mul	a3, a2, a3

00000000800016d8 <.Lpcrel_hi78>:
800016d8: 00007617     	auipc	a2, 0x7
800016dc: a1060613     	addi	a2, a2, -0x5f0
800016e0: 9636         	add	a2, a2, a3
800016e2: 22063603     	ld	a2, 0x220(a2)
800016e6: f932         	sd	a2, 0xb0(sp)
800016e8: 0930         	addi	a2, sp, 0x98
800016ea: f4b2         	sd	a2, 0x68(sp)
800016ec: f8ae         	sd	a1, 0x70(sp)
800016ee: fcaa         	sd	a0, 0x78(sp)
800016f0: 1128         	addi	a0, sp, 0xa8
800016f2: e12a         	sd	a0, 0x80(sp)
800016f4: 1908         	addi	a0, sp, 0xb0
800016f6: e52a         	sd	a0, 0x88(sp)
800016f8: 1088         	addi	a0, sp, 0x60
800016fa: e92a         	sd	a0, 0x90(sp)
800016fc: 75a6         	ld	a1, 0x68(sp)
800016fe: 0a28         	addi	a0, sp, 0x118
80001700: fffff097     	auipc	ra, 0xfffff
80001704: bf4080e7     	jalr	-0x40c(ra) <core::fmt::rt::Argument::new_display::hdf5d30e07b2a6dbf>
80001708: 75c6         	ld	a1, 0x70(sp)
8000170a: 1228         	addi	a0, sp, 0x128
8000170c: fffff097     	auipc	ra, 0xfffff
80001710: b82080e7     	jalr	-0x47e(ra) <core::fmt::rt::Argument::new_display::h52645e11b6055522>
80001714: 75e6         	ld	a1, 0x78(sp)
80001716: 1a28         	addi	a0, sp, 0x138
80001718: fffff097     	auipc	ra, 0xfffff
8000171c: bdc080e7     	jalr	-0x424(ra) <core::fmt::rt::Argument::new_display::hdf5d30e07b2a6dbf>
80001720: 658a         	ld	a1, 0x80(sp)
80001722: 02a8         	addi	a0, sp, 0x148
80001724: fffff097     	auipc	ra, 0xfffff
80001728: b6a080e7     	jalr	-0x496(ra) <core::fmt::rt::Argument::new_display::h52645e11b6055522>
8000172c: 65aa         	ld	a1, 0x88(sp)
8000172e: 0aa8         	addi	a0, sp, 0x158
80001730: fffff097     	auipc	ra, 0xfffff
80001734: b5e080e7     	jalr	-0x4a2(ra) <core::fmt::rt::Argument::new_display::h52645e11b6055522>
80001738: 65ca         	ld	a1, 0x90(sp)
8000173a: 12a8         	addi	a0, sp, 0x168
8000173c: fffff097     	auipc	ra, 0xfffff
80001740: bda080e7     	jalr	-0x426(ra) <core::fmt::rt::Argument::new_lower_hex::h6cee035c80be4cc2>
80001744: 7512         	ld	a0, 0x120(sp)
80001746: e1aa         	sd	a0, 0xc0(sp)
80001748: 6572         	ld	a0, 0x118(sp)
8000174a: fd2a         	sd	a0, 0xb8(sp)
8000174c: 7552         	ld	a0, 0x130(sp)
8000174e: e9aa         	sd	a0, 0xd0(sp)
80001750: 7532         	ld	a0, 0x128(sp)
80001752: e5aa         	sd	a0, 0xc8(sp)
80001754: 6516         	ld	a0, 0x140(sp)
80001756: f1aa         	sd	a0, 0xe0(sp)
80001758: 7572         	ld	a0, 0x138(sp)
8000175a: edaa         	sd	a0, 0xd8(sp)
8000175c: 6556         	ld	a0, 0x150(sp)
8000175e: f9aa         	sd	a0, 0xf0(sp)
80001760: 6536         	ld	a0, 0x148(sp)
80001762: f5aa         	sd	a0, 0xe8(sp)
80001764: 7516         	ld	a0, 0x160(sp)
80001766: e22a         	sd	a0, 0x100(sp)
80001768: 6576         	ld	a0, 0x158(sp)
8000176a: fdaa         	sd	a0, 0xf8(sp)
8000176c: 7556         	ld	a0, 0x170(sp)
8000176e: ea2a         	sd	a0, 0x110(sp)
80001770: 7536         	ld	a0, 0x168(sp)
80001772: e62a         	sd	a0, 0x108(sp)

0000000080001774 <.Lpcrel_hi79>:
80001774: 00005517     	auipc	a0, 0x5
80001778: 49c50513     	addi	a0, a0, 0x49c
8000177c: 192c         	addi	a1, sp, 0xb8
8000177e: 00003097     	auipc	ra, 0x3
80001782: 360080e7     	jalr	0x360(ra) <core::fmt::Arguments::new::hc14fb5fb7c193cbe>
80001786: fffff097     	auipc	ra, 0xfffff
8000178a: eee080e7     	jalr	-0x112(ra) <lab5_kernel_task2::console::print::h64393a0152c60ab8>
8000178e: 6506         	ld	a0, 0x40(sp)
80001790: 458d         	li	a1, 0x3
80001792: 00000097     	auipc	ra, 0x0
80001796: 460080e7     	jalr	0x460(ra) <lab5_kernel_task2::choose_next_task::h66d7811c5fedcf39>
8000179a: feaa         	sd	a0, 0x178(sp)
8000179c: e32e         	sd	a1, 0x180(sp)
8000179e: 7576         	ld	a0, 0x178(sp)
800017a0: 8905         	andi	a0, a0, 0x1
800017a2: e911         	bnez	a0, 0x800017b6 <.Lpcrel_hi80+0x10>
800017a4: a015         	j	0x800017c8 <.Lpcrel_hi81+0xc>

00000000800017a6 <.Lpcrel_hi80>:
800017a6: 00005517     	auipc	a0, 0x5
800017aa: 45250513     	addi	a0, a0, 0x452
800017ae: 00004097     	auipc	ra, 0x4
800017b2: 32a080e7     	jalr	0x32a(ra) <core::panicking::panic_null_pointer_dereference::hbac6411af4f2e916>
800017b6: 651a         	ld	a0, 0x180(sp)
800017b8: e82a         	sd	a0, 0x10(sp)
800017ba: f32a         	sd	a0, 0x1a0(sp)

00000000800017bc <.Lpcrel_hi81>:
800017bc: 00007517     	auipc	a0, 0x7
800017c0: 90450513     	addi	a0, a0, -0x6fc
800017c4: e511         	bnez	a0, 0x800017d0 <.Lpcrel_hi82>
800017c6: a005         	j	0x800017e6 <.Lpcrel_hi83>
800017c8: 00002097     	auipc	ra, 0x2
800017cc: ff2080e7     	jalr	-0xe(ra) <lab5_kernel_task2::complete_phase_or_finish::hb301a23f45d47b22>

00000000800017d0 <.Lpcrel_hi82>:
800017d0: 00007517     	auipc	a0, 0x7
800017d4: 8f050513     	addi	a0, a0, -0x710
800017d8: 610c         	ld	a1, 0x0(a0)
800017da: 00158513     	addi	a0, a1, 0x1
800017de: e42a         	sd	a0, 0x8(sp)
800017e0: 02b56163     	bltu	a0, a1, 0x80001802 <.Lpcrel_hi85>
800017e4: a809         	j	0x800017f6 <.Lpcrel_hi84>

00000000800017e6 <.Lpcrel_hi83>:
800017e6: 00005517     	auipc	a0, 0x5
800017ea: 48250513     	addi	a0, a0, 0x482
800017ee: 00004097     	auipc	ra, 0x4
800017f2: 2ea080e7     	jalr	0x2ea(ra) <core::panicking::panic_null_pointer_dereference::hbac6411af4f2e916>

00000000800017f6 <.Lpcrel_hi84>:
800017f6: 00007517     	auipc	a0, 0x7
800017fa: 8ca50513     	addi	a0, a0, -0x736
800017fe: e911         	bnez	a0, 0x80001812 <.Lpcrel_hi85+0x10>
80001800: a81d         	j	0x80001836 <.Lpcrel_hi87>

0000000080001802 <.Lpcrel_hi85>:
80001802: 00005517     	auipc	a0, 0x5
80001806: 46650513     	addi	a0, a0, 0x466
8000180a: 00004097     	auipc	ra, 0x4
8000180e: 226080e7     	jalr	0x226(ra) <core::panicking::panic_const::panic_const_add_overflow::h67cba067093910f8>
80001812: 6726         	ld	a4, 0x48(sp)
80001814: 6642         	ld	a2, 0x10(sp)
80001816: 6586         	ld	a1, 0x40(sp)
80001818: 6546         	ld	a0, 0x50(sp)
8000181a: 66a2         	ld	a3, 0x8(sp)

000000008000181c <.Lpcrel_hi86>:
8000181c: 00007797     	auipc	a5, 0x7
80001820: 8a478793     	addi	a5, a5, -0x75c
80001824: e394         	sd	a3, 0x0(a5)
80001826: 468d         	li	a3, 0x3
80001828: 00003097     	auipc	ra, 0x3
8000182c: 8a0080e7     	jalr	-0x760(ra) <lab5_kernel_task2::switch_to::h1dc032db7d30df18>
80001830: 70fa         	ld	ra, 0x1b8(sp)
80001832: 6139         	addi	sp, sp, 0x1c0
80001834: 8082         	ret

0000000080001836 <.Lpcrel_hi87>:
80001836: 00005517     	auipc	a0, 0x5
8000183a: 43250513     	addi	a0, a0, 0x432
8000183e: 00004097     	auipc	ra, 0x4
80001842: 29a080e7     	jalr	0x29a(ra) <core::panicking::panic_null_pointer_dereference::hbac6411af4f2e916>

0000000080001846 <lab5_kernel_task2::TaskPhaseStats::empty::h9afcf54ead0de646>:
80001846: 85aa         	mv	a1, a0
80001848: 4501         	li	a0, 0x0
8000184a: e188         	sd	a0, 0x0(a1)
8000184c: e588         	sd	a0, 0x8(a1)
8000184e: e988         	sd	a0, 0x10(a1)
80001850: ed88         	sd	a0, 0x18(a1)
80001852: f188         	sd	a0, 0x20(a1)
80001854: f588         	sd	a0, 0x28(a1)
80001856: f988         	sd	a0, 0x30(a1)
80001858: fd88         	sd	a0, 0x38(a1)
8000185a: e1a8         	sd	a0, 0x40(a1)
8000185c: 8082         	ret

000000008000185e <lab5_kernel_task2::charge_runtime::h15114116de2a76e1>:
8000185e: 711d         	addi	sp, sp, -0x60
80001860: ec2e         	sd	a1, 0x18(sp)
80001862: 85aa         	mv	a1, a0
80001864: 6562         	ld	a0, 0x18(sp)
80001866: f02e         	sd	a1, 0x20(sp)
80001868: f42e         	sd	a1, 0x28(sp)
8000186a: f82a         	sd	a0, 0x30(sp)
8000186c: 4509         	li	a0, 0x2
8000186e: 00b56963     	bltu	a0, a1, 0x80001880 <.Lpcrel_hi88+0xc>
80001872: a009         	j	0x80001874 <.Lpcrel_hi88>

0000000080001874 <.Lpcrel_hi88>:
80001874: 00007517     	auipc	a0, 0x7
80001878: 87450513     	addi	a0, a0, -0x78c
8000187c: ed01         	bnez	a0, 0x80001894 <.Lpcrel_hi89+0x12>
8000187e: a81d         	j	0x800018b4 <.Lpcrel_hi91>
80001880: 7502         	ld	a0, 0x20(sp)

0000000080001882 <.Lpcrel_hi89>:
80001882: 00005597     	auipc	a1, 0x5
80001886: 3fe58613     	addi	a2, a1, 0x3fe
8000188a: 458d         	li	a1, 0x3
8000188c: 00004097     	auipc	ra, 0x4
80001890: 1e0080e7     	jalr	0x1e0(ra) <core::panicking::panic_bounds_check::h6aaee0d15e0261eb>
80001894: 7502         	ld	a0, 0x20(sp)
80001896: 25800593     	li	a1, 0x258
8000189a: 02b505b3     	mul	a1, a0, a1

000000008000189e <.Lpcrel_hi90>:
8000189e: 00007517     	auipc	a0, 0x7
800018a2: 84a50513     	addi	a0, a0, -0x7b6
800018a6: 952e         	add	a0, a0, a1
800018a8: 22853503     	ld	a0, 0x228(a0)
800018ac: e82a         	sd	a0, 0x10(sp)
800018ae: fc2a         	sd	a0, 0x38(sp)
800018b0: ed19         	bnez	a0, 0x800018ce <.Lpcrel_hi91+0x1a>
800018b2: a809         	j	0x800018c4 <.Lpcrel_hi91+0x10>

00000000800018b4 <.Lpcrel_hi91>:
800018b4: 00005517     	auipc	a0, 0x5
800018b8: 3cc50513     	addi	a0, a0, 0x3cc
800018bc: 00004097     	auipc	ra, 0x4
800018c0: 21c080e7     	jalr	0x21c(ra) <core::panicking::panic_null_pointer_dereference::hbac6411af4f2e916>
800018c4: 7502         	ld	a0, 0x20(sp)
800018c6: 458d         	li	a1, 0x3
800018c8: 0cb56463     	bltu	a0, a1, 0x80001990 <.Lpcrel_hi100>
800018cc: a8c1         	j	0x8000199c <.Lpcrel_hi100+0xc>
800018ce: 6562         	ld	a0, 0x18(sp)
800018d0: 65c2         	ld	a1, 0x10(sp)
800018d2: feb569e3     	bltu	a0, a1, 0x800018c4 <.Lpcrel_hi91+0x10>
800018d6: a009         	j	0x800018d8 <.Lpcrel_hi91+0x24>
800018d8: 7582         	ld	a1, 0x20(sp)
800018da: 4509         	li	a0, 0x2
800018dc: 00b56963     	bltu	a0, a1, 0x800018ee <.Lpcrel_hi92+0xc>
800018e0: a009         	j	0x800018e2 <.Lpcrel_hi92>

00000000800018e2 <.Lpcrel_hi92>:
800018e2: 00007517     	auipc	a0, 0x7
800018e6: 80650513     	addi	a0, a0, -0x7fa
800018ea: ed01         	bnez	a0, 0x80001902 <.Lpcrel_hi93+0x12>
800018ec: a0a1         	j	0x80001934 <.Lpcrel_hi95>
800018ee: 7502         	ld	a0, 0x20(sp)

00000000800018f0 <.Lpcrel_hi93>:
800018f0: 00005597     	auipc	a1, 0x5
800018f4: 3a858613     	addi	a2, a1, 0x3a8
800018f8: 458d         	li	a1, 0x3
800018fa: 00004097     	auipc	ra, 0x4
800018fe: 172080e7     	jalr	0x172(ra) <core::panicking::panic_bounds_check::h6aaee0d15e0261eb>
80001902: 7502         	ld	a0, 0x20(sp)
80001904: 6662         	ld	a2, 0x18(sp)
80001906: 66c2         	ld	a3, 0x10(sp)
80001908: 25800593     	li	a1, 0x258
8000190c: 02b50733     	mul	a4, a0, a1

0000000080001910 <.Lpcrel_hi94>:
80001910: 00006597     	auipc	a1, 0x6
80001914: 7d858593     	addi	a1, a1, 0x7d8
80001918: 95ba         	add	a1, a1, a4
8000191a: 2205b583     	ld	a1, 0x220(a1)
8000191e: e8b2         	sd	a2, 0x50(sp)
80001920: ecb6         	sd	a3, 0x58(sp)
80001922: 8e15         	sub	a2, a2, a3
80001924: e0ae         	sd	a1, 0x40(sp)
80001926: e4b2         	sd	a2, 0x48(sp)
80001928: 95b2         	add	a1, a1, a2
8000192a: e42e         	sd	a1, 0x8(sp)
8000192c: 458d         	li	a1, 0x3
8000192e: 00b56b63     	bltu	a0, a1, 0x80001944 <.Lpcrel_hi96>
80001932: a839         	j	0x80001950 <.Lpcrel_hi96+0xc>

0000000080001934 <.Lpcrel_hi95>:
80001934: 00005517     	auipc	a0, 0x5
80001938: 36450513     	addi	a0, a0, 0x364
8000193c: 00004097     	auipc	ra, 0x4
80001940: 19c080e7     	jalr	0x19c(ra) <core::panicking::panic_null_pointer_dereference::hbac6411af4f2e916>

0000000080001944 <.Lpcrel_hi96>:
80001944: 00006517     	auipc	a0, 0x6
80001948: 7a450513     	addi	a0, a0, 0x7a4
8000194c: ed01         	bnez	a0, 0x80001964 <.Lpcrel_hi97+0x12>
8000194e: a80d         	j	0x80001980 <.Lpcrel_hi99>
80001950: 7502         	ld	a0, 0x20(sp)

0000000080001952 <.Lpcrel_hi97>:
80001952: 00005597     	auipc	a1, 0x5
80001956: 35e58613     	addi	a2, a1, 0x35e
8000195a: 458d         	li	a1, 0x3
8000195c: 00004097     	auipc	ra, 0x4
80001960: 110080e7     	jalr	0x110(ra) <core::panicking::panic_bounds_check::h6aaee0d15e0261eb>
80001964: 6522         	ld	a0, 0x8(sp)
80001966: 7582         	ld	a1, 0x20(sp)
80001968: 25800613     	li	a2, 0x258
8000196c: 02c58633     	mul	a2, a1, a2

0000000080001970 <.Lpcrel_hi98>:
80001970: 00006597     	auipc	a1, 0x6
80001974: 77858593     	addi	a1, a1, 0x778
80001978: 95b2         	add	a1, a1, a2
8000197a: 22a5b023     	sd	a0, 0x220(a1)
8000197e: b799         	j	0x800018c4 <.Lpcrel_hi91+0x10>

0000000080001980 <.Lpcrel_hi99>:
80001980: 00005517     	auipc	a0, 0x5
80001984: 33050513     	addi	a0, a0, 0x330
80001988: 00004097     	auipc	ra, 0x4
8000198c: 150080e7     	jalr	0x150(ra) <core::panicking::panic_null_pointer_dereference::hbac6411af4f2e916>

0000000080001990 <.Lpcrel_hi100>:
80001990: 00006517     	auipc	a0, 0x6
80001994: 75850513     	addi	a0, a0, 0x758
80001998: ed01         	bnez	a0, 0x800019b0 <.Lpcrel_hi101+0x12>
8000199a: a815         	j	0x800019ce <.Lpcrel_hi103>
8000199c: 7502         	ld	a0, 0x20(sp)

000000008000199e <.Lpcrel_hi101>:
8000199e: 00005597     	auipc	a1, 0x5
800019a2: 32a58613     	addi	a2, a1, 0x32a
800019a6: 458d         	li	a1, 0x3
800019a8: 00004097     	auipc	ra, 0x4
800019ac: 0c4080e7     	jalr	0xc4(ra) <core::panicking::panic_bounds_check::h6aaee0d15e0261eb>
800019b0: 7502         	ld	a0, 0x20(sp)
800019b2: 25800593     	li	a1, 0x258
800019b6: 02b505b3     	mul	a1, a0, a1

00000000800019ba <.Lpcrel_hi102>:
800019ba: 00006517     	auipc	a0, 0x6
800019be: 72e50513     	addi	a0, a0, 0x72e
800019c2: 95aa         	add	a1, a1, a0
800019c4: 4501         	li	a0, 0x0
800019c6: 22a5b423     	sd	a0, 0x228(a1)
800019ca: 6125         	addi	sp, sp, 0x60
800019cc: 8082         	ret

00000000800019ce <.Lpcrel_hi103>:
800019ce: 00005517     	auipc	a0, 0x5
800019d2: 2fa50513     	addi	a0, a0, 0x2fa
800019d6: 00004097     	auipc	ra, 0x4
800019da: 102080e7     	jalr	0x102(ra) <core::panicking::panic_null_pointer_dereference::hbac6411af4f2e916>

00000000800019de <lab5_kernel_task2::current_policy::hf87e29c046b13f0e>:
800019de: 1141         	addi	sp, sp, -0x10

00000000800019e0 <.Lpcrel_hi104>:
800019e0: 00006517     	auipc	a0, 0x6
800019e4: 4c050513     	addi	a0, a0, 0x4c0
800019e8: cd01         	beqz	a0, 0x80001a00 <.Lpcrel_hi106>
800019ea: a009         	j	0x800019ec <.Lpcrel_hi105>

00000000800019ec <.Lpcrel_hi105>:
800019ec: 00006517     	auipc	a0, 0x6
800019f0: 4b450513     	addi	a0, a0, 0x4b4
800019f4: 6108         	ld	a0, 0x0(a0)
800019f6: e42a         	sd	a0, 0x8(sp)
800019f8: 4589         	li	a1, 0x2
800019fa: 00b56b63     	bltu	a0, a1, 0x80001a10 <.Lpcrel_hi106+0x10>
800019fe: a805         	j	0x80001a2e <.Lpcrel_hi107+0x12>

0000000080001a00 <.Lpcrel_hi106>:
80001a00: 00005517     	auipc	a0, 0x5
80001a04: 2e050513     	addi	a0, a0, 0x2e0
80001a08: 00004097     	auipc	ra, 0x4
80001a0c: 0d0080e7     	jalr	0xd0(ra) <core::panicking::panic_null_pointer_dereference::hbac6411af4f2e916>
80001a10: 6522         	ld	a0, 0x8(sp)
80001a12: 00351593     	slli	a1, a0, 0x3
80001a16: 0516         	slli	a0, a0, 0x5
80001a18: 40b505b3     	sub	a1, a0, a1

0000000080001a1c <.Lpcrel_hi107>:
80001a1c: 00005517     	auipc	a0, 0x5
80001a20: f2c50513     	addi	a0, a0, -0xd4
80001a24: 952e         	add	a0, a0, a1
80001a26: 01054503     	lbu	a0, 0x10(a0)
80001a2a: 0141         	addi	sp, sp, 0x10
80001a2c: 8082         	ret
80001a2e: 6522         	ld	a0, 0x8(sp)

0000000080001a30 <.Lpcrel_hi108>:
80001a30: 00005597     	auipc	a1, 0x5
80001a34: 2c858613     	addi	a2, a1, 0x2c8
80001a38: 4589         	li	a1, 0x2
80001a3a: 00004097     	auipc	ra, 0x4
80001a3e: 032080e7     	jalr	0x32(ra) <core::panicking::panic_bounds_check::h6aaee0d15e0261eb>

0000000080001a42 <lab5_kernel_task2::handle_syscall::h766c5736a487396a>:
80001a42: 715d         	addi	sp, sp, -0x50
80001a44: e486         	sd	ra, 0x48(sp)
80001a46: e42a         	sd	a0, 0x8(sp)
80001a48: fc2a         	sd	a0, 0x38(sp)
80001a4a: 7d28         	ld	a0, 0x78(a0)
80001a4c: e82a         	sd	a0, 0x10(sp)
80001a4e: c531         	beqz	a0, 0x80001a9a <.Lpcrel_hi109+0x24>
80001a50: a009         	j	0x80001a52 <lab5_kernel_task2::handle_syscall::h766c5736a487396a+0x10>
80001a52: 6542         	ld	a0, 0x10(sp)
80001a54: 4585         	li	a1, 0x1
80001a56: 04b50863     	beq	a0, a1, 0x80001aa6 <.Lpcrel_hi109+0x30>
80001a5a: a009         	j	0x80001a5c <lab5_kernel_task2::handle_syscall::h766c5736a487396a+0x1a>
80001a5c: 6522         	ld	a0, 0x8(sp)
80001a5e: 07850593     	addi	a1, a0, 0x78
80001a62: e0ae         	sd	a1, 0x40(sp)
80001a64: 1028         	addi	a0, sp, 0x28
80001a66: fffff097     	auipc	ra, 0xfffff
80001a6a: 806080e7     	jalr	-0x7fa(ra) <core::fmt::rt::Argument::new_display::h009018ea15ddc750>
80001a6e: 7542         	ld	a0, 0x30(sp)
80001a70: f02a         	sd	a0, 0x20(sp)
80001a72: 7522         	ld	a0, 0x28(sp)
80001a74: ec2a         	sd	a0, 0x18(sp)

0000000080001a76 <.Lpcrel_hi109>:
80001a76: 00005517     	auipc	a0, 0x5
80001a7a: 98550513     	addi	a0, a0, -0x67b
80001a7e: 082c         	addi	a1, sp, 0x18
80001a80: 00003097     	auipc	ra, 0x3
80001a84: 054080e7     	jalr	0x54(ra) <core::fmt::Arguments::new::hbcf1d8fef5e6a51c>
80001a88: fffff097     	auipc	ra, 0xfffff
80001a8c: bec080e7     	jalr	-0x414(ra) <lab5_kernel_task2::console::print::h64393a0152c60ab8>
80001a90: 65a2         	ld	a1, 0x8(sp)
80001a92: fda00513     	li	a0, -0x26
80001a96: e1a8         	sd	a0, 0x40(a1)
80001a98: a831         	j	0x80001ab4 <.Lpcrel_hi109+0x3e>
80001a9a: 6522         	ld	a0, 0x8(sp)
80001a9c: 00001097     	auipc	ra, 0x1
80001aa0: 5fe080e7     	jalr	0x5fe(ra) <lab5_kernel_task2::handle_explicit_yield::hc5b8815bff655718>
80001aa4: a801         	j	0x80001ab4 <.Lpcrel_hi109+0x3e>
80001aa6: 65a2         	ld	a1, 0x8(sp)
80001aa8: 61a8         	ld	a0, 0x40(a1)
80001aaa: 00000097     	auipc	ra, 0x0
80001aae: 8e0080e7     	jalr	-0x720(ra) <lab5_kernel_task2::handle_finish::hd78acc17068f49e3>
80001ab2: a009         	j	0x80001ab4 <.Lpcrel_hi109+0x3e>
80001ab4: 60a6         	ld	ra, 0x48(sp)
80001ab6: 6161         	addi	sp, sp, 0x50
80001ab8: 8082         	ret

0000000080001aba <lab5_kernel_task2::task_frame_ptr::h6df018a0a2b70a35>:
80001aba: 1141         	addi	sp, sp, -0x10
80001abc: 85aa         	mv	a1, a0
80001abe: e02e         	sd	a1, 0x0(sp)
80001ac0: e42e         	sd	a1, 0x8(sp)
80001ac2: 4509         	li	a0, 0x2
80001ac4: 00b56963     	bltu	a0, a1, 0x80001ad6 <.Lpcrel_hi110+0xc>
80001ac8: a009         	j	0x80001aca <.Lpcrel_hi110>

0000000080001aca <.Lpcrel_hi110>:
80001aca: 00006517     	auipc	a0, 0x6
80001ace: 61e50513     	addi	a0, a0, 0x61e
80001ad2: ed01         	bnez	a0, 0x80001aea <.Lpcrel_hi111+0x12>
80001ad4: a03d         	j	0x80001b02 <.Lpcrel_hi113>
80001ad6: 6502         	ld	a0, 0x0(sp)

0000000080001ad8 <.Lpcrel_hi111>:
80001ad8: 00005597     	auipc	a1, 0x5
80001adc: 23858613     	addi	a2, a1, 0x238
80001ae0: 458d         	li	a1, 0x3
80001ae2: 00004097     	auipc	ra, 0x4
80001ae6: f8a080e7     	jalr	-0x76(ra) <core::panicking::panic_bounds_check::h6aaee0d15e0261eb>
80001aea: 6502         	ld	a0, 0x0(sp)
80001aec: 25800593     	li	a1, 0x258
80001af0: 02b505b3     	mul	a1, a0, a1

0000000080001af4 <.Lpcrel_hi112>:
80001af4: 00006517     	auipc	a0, 0x6
80001af8: 5f450513     	addi	a0, a0, 0x5f4
80001afc: 952e         	add	a0, a0, a1
80001afe: 0141         	addi	sp, sp, 0x10
80001b00: 8082         	ret

0000000080001b02 <.Lpcrel_hi113>:
80001b02: 00005517     	auipc	a0, 0x5
80001b06: 22650513     	addi	a0, a0, 0x226
80001b0a: 00004097     	auipc	ra, 0x4
80001b0e: fce080e7     	jalr	-0x32(ra) <core::panicking::panic_null_pointer_dereference::hbac6411af4f2e916>

0000000080001b12 <lab5_kernel_task2::user_stack_top::h02f0434618e83641>:
80001b12: 1101         	addi	sp, sp, -0x20
80001b14: e42a         	sd	a0, 0x8(sp)
80001b16: ec2a         	sd	a0, 0x18(sp)
80001b18: c10d         	beqz	a0, 0x80001b3a <.Lpcrel_hi114>
80001b1a: a009         	j	0x80001b1c <lab5_kernel_task2::user_stack_top::h02f0434618e83641+0xa>
80001b1c: 6522         	ld	a0, 0x8(sp)
80001b1e: 4585         	li	a1, 0x1
80001b20: 02b50363     	beq	a0, a1, 0x80001b46 <.Lpcrel_hi115>
80001b24: a009         	j	0x80001b26 <lab5_kernel_task2::user_stack_top::h02f0434618e83641+0x14>
80001b26: 6522         	ld	a0, 0x8(sp)
80001b28: 4589         	li	a1, 0x2
80001b2a: 02b50463     	beq	a0, a1, 0x80001b52 <.Lpcrel_hi116>
80001b2e: a009         	j	0x80001b30 <lab5_kernel_task2::user_stack_top::h02f0434618e83641+0x1e>
80001b30: 4505         	li	a0, 0x1
80001b32: 00002097     	auipc	ra, 0x2
80001b36: 54e080e7     	jalr	0x54e(ra) <lab5_kernel_task2::qemu_exit::h33eac16ec3c335e5>

0000000080001b3a <.Lpcrel_hi114>:
80001b3a: 0000f517     	auipc	a0, 0xf
80001b3e: cb650513     	addi	a0, a0, -0x34a
80001b42: e82a         	sd	a0, 0x10(sp)
80001b44: a829         	j	0x80001b5e <.Lpcrel_hi116+0xc>

0000000080001b46 <.Lpcrel_hi115>:
80001b46: 00013517     	auipc	a0, 0x13
80001b4a: caa50513     	addi	a0, a0, -0x356
80001b4e: e82a         	sd	a0, 0x10(sp)
80001b50: a039         	j	0x80001b5e <.Lpcrel_hi116+0xc>

0000000080001b52 <.Lpcrel_hi116>:
80001b52: 00017517     	auipc	a0, 0x17
80001b56: c9e50513     	addi	a0, a0, -0x362
80001b5a: e82a         	sd	a0, 0x10(sp)
80001b5c: a009         	j	0x80001b5e <.Lpcrel_hi116+0xc>
80001b5e: 6542         	ld	a0, 0x10(sp)
80001b60: 6105         	addi	sp, sp, 0x20
80001b62: 8082         	ret

0000000080001b64 <lab5_kernel_task2::SchedulerPolicy::as_str::h915765f6c5b41e46>:
80001b64: 1101         	addi	sp, sp, -0x20
80001b66: 00a10fa3     	sb	a0, 0x1f(sp)
80001b6a: c911         	beqz	a0, 0x80001b7e <.Lpcrel_hi118>
80001b6c: a009         	j	0x80001b6e <.Lpcrel_hi117>

0000000080001b6e <.Lpcrel_hi117>:
80001b6e: 00005517     	auipc	a0, 0x5
80001b72: 1dd50513     	addi	a0, a0, 0x1dd
80001b76: e42a         	sd	a0, 0x8(sp)
80001b78: 453d         	li	a0, 0xf
80001b7a: e82a         	sd	a0, 0x10(sp)
80001b7c: a809         	j	0x80001b8e <.Lpcrel_hi118+0x10>

0000000080001b7e <.Lpcrel_hi118>:
80001b7e: 00005517     	auipc	a0, 0x5
80001b82: 1c250513     	addi	a0, a0, 0x1c2
80001b86: e42a         	sd	a0, 0x8(sp)
80001b88: 452d         	li	a0, 0xb
80001b8a: e82a         	sd	a0, 0x10(sp)
80001b8c: a009         	j	0x80001b8e <.Lpcrel_hi118+0x10>
80001b8e: 6522         	ld	a0, 0x8(sp)
80001b90: 65c2         	ld	a1, 0x10(sp)
80001b92: 6105         	addi	sp, sp, 0x20
80001b94: 8082         	ret

0000000080001b96 <lab5_kernel_task2::TaskControlBlock::empty::h4aa0b95255657fc2>:
80001b96: dd010113     	addi	sp, sp, -0x230
80001b9a: 22113423     	sd	ra, 0x228(sp)
80001b9e: e42a         	sd	a0, 0x8(sp)
80001ba0: 0828         	addi	a0, sp, 0x18
80001ba2: e02a         	sd	a0, 0x0(sp)
80001ba4: fffff097     	auipc	ra, 0xfffff
80001ba8: 9d4080e7     	jalr	-0x62c(ra) <lab5_kernel_task2::trap::TrapFrame::zeroed::he93831fb0103f5e3>
80001bac: 6582         	ld	a1, 0x0(sp)
80001bae: 6522         	ld	a0, 0x8(sp)
80001bb0: 4601         	li	a2, 0x0
80001bb2: e832         	sd	a2, 0x10(sp)
80001bb4: 24c50823     	sb	a2, 0x250(a0)
80001bb8: 21000613     	li	a2, 0x210
80001bbc: 00004097     	auipc	ra, 0x4
80001bc0: 0a6080e7     	jalr	0xa6(ra) <memcpy>
80001bc4: 65a2         	ld	a1, 0x8(sp)
80001bc6: 6542         	ld	a0, 0x10(sp)
80001bc8: 20a5b823     	sd	a0, 0x210(a1)
80001bcc: 20a5bc23     	sd	a0, 0x218(a1)
80001bd0: 22a5b023     	sd	a0, 0x220(a1)
80001bd4: 22a5b423     	sd	a0, 0x228(a1)
80001bd8: 22a5b823     	sd	a0, 0x230(a1)
80001bdc: 22a5bc23     	sd	a0, 0x238(a1)
80001be0: 24a5b023     	sd	a0, 0x240(a1)
80001be4: 24a5b423     	sd	a0, 0x248(a1)
80001be8: 22813083     	ld	ra, 0x228(sp)
80001bec: 23010113     	addi	sp, sp, 0x230
80001bf0: 8082         	ret

0000000080001bf2 <lab5_kernel_task2::choose_next_task::h66d7811c5fedcf39>:
80001bf2: 7139         	addi	sp, sp, -0x40
80001bf4: fc06         	sd	ra, 0x38(sp)
80001bf6: e42a         	sd	a0, 0x8(sp)
80001bf8: 862e         	mv	a2, a1
80001bfa: e832         	sd	a2, 0x10(sp)
80001bfc: f42a         	sd	a0, 0x28(sp)
80001bfe: 02b10ba3     	sb	a1, 0x37(sp)
80001c02: 00000097     	auipc	ra, 0x0
80001c06: ddc080e7     	jalr	-0x224(ra) <lab5_kernel_task2::current_policy::hf87e29c046b13f0e>
80001c0a: cd09         	beqz	a0, 0x80001c24 <lab5_kernel_task2::choose_next_task::h66d7811c5fedcf39+0x32>
80001c0c: a009         	j	0x80001c0e <lab5_kernel_task2::choose_next_task::h66d7811c5fedcf39+0x1c>
80001c0e: 6522         	ld	a0, 0x8(sp)
80001c10: 65c2         	ld	a1, 0x10(sp)
80001c12: 0ff5f593     	zext.b	a1, a1
80001c16: 00002097     	auipc	ra, 0x2
80001c1a: 844080e7     	jalr	-0x7bc(ra) <lab5_kernel_task2::next_runnable_priority::h2a42faddd81311a2>
80001c1e: ec2a         	sd	a0, 0x18(sp)
80001c20: f02e         	sd	a1, 0x20(sp)
80001c22: a809         	j	0x80001c34 <lab5_kernel_task2::choose_next_task::h66d7811c5fedcf39+0x42>
80001c24: 6522         	ld	a0, 0x8(sp)
80001c26: 00000097     	auipc	ra, 0x0
80001c2a: 022080e7     	jalr	0x22(ra) <lab5_kernel_task2::next_runnable_rr::hf1dc081085c42bb5>
80001c2e: ec2a         	sd	a0, 0x18(sp)
80001c30: f02e         	sd	a1, 0x20(sp)
80001c32: a009         	j	0x80001c34 <lab5_kernel_task2::choose_next_task::h66d7811c5fedcf39+0x42>
80001c34: 6562         	ld	a0, 0x18(sp)
80001c36: 7582         	ld	a1, 0x20(sp)
80001c38: 70e2         	ld	ra, 0x38(sp)
80001c3a: 6121         	addi	sp, sp, 0x40
80001c3c: 8082         	ret

0000000080001c3e <lab5_kernel_task2::kernel_stack_top::ha4d86841b93c92f3>:
80001c3e: 0000b517     	auipc	a0, 0xb
80001c42: bb250513     	addi	a0, a0, -0x44e
80001c46: 8082         	ret

0000000080001c48 <lab5_kernel_task2::next_runnable_rr::hf1dc081085c42bb5>:
80001c48: 7131         	addi	sp, sp, -0xc0
80001c4a: fd06         	sd	ra, 0xb8(sp)
80001c4c: f42a         	sd	a0, 0x28(sp)
80001c4e: f12a         	sd	a0, 0xa0(sp)
80001c50: 1088         	addi	a0, sp, 0x60
80001c52: f82a         	sd	a0, 0x30(sp)
80001c54: 4585         	li	a1, 0x1
80001c56: 460d         	li	a2, 0x3
80001c58: fffff097     	auipc	ra, 0xfffff
80001c5c: bb4080e7     	jalr	-0x44c(ra) <core::ops::range::RangeInclusive$LT$Idx$GT$::new::h0b428d328b047271>
80001c60: 75c2         	ld	a1, 0x30(sp)
80001c62: 00a8         	addi	a0, sp, 0x48
80001c64: fffff097     	auipc	ra, 0xfffff
80001c68: bf4080e7     	jalr	-0x40c(ra) <_$LT$I$u20$as$u20$core..iter..traits..collect..IntoIterator$GT$::into_iter::hce989c0c65fa9ea7>
80001c6c: 6566         	ld	a0, 0x58(sp)
80001c6e: e52a         	sd	a0, 0x88(sp)
80001c70: 6546         	ld	a0, 0x50(sp)
80001c72: e12a         	sd	a0, 0x80(sp)
80001c74: 6526         	ld	a0, 0x48(sp)
80001c76: fcaa         	sd	a0, 0x78(sp)
80001c78: a009         	j	0x80001c7a <lab5_kernel_task2::next_runnable_rr::hf1dc081085c42bb5+0x32>
80001c7a: 18a8         	addi	a0, sp, 0x78
80001c7c: fffff097     	auipc	ra, 0xfffff
80001c80: bbe080e7     	jalr	-0x442(ra) <core::iter::range::_$LT$impl$u20$core..iter..traits..iterator..Iterator$u20$for$u20$core..ops..range..RangeInclusive$LT$A$GT$$GT$::next::hcfc10a6289c3ec5f>
80001c84: e92a         	sd	a0, 0x90(sp)
80001c86: ed2e         	sd	a1, 0x98(sp)
80001c88: 654a         	ld	a0, 0x90(sp)
80001c8a: 8905         	andi	a0, a0, 0x1
80001c8c: c911         	beqz	a0, 0x80001ca0 <lab5_kernel_task2::next_runnable_rr::hf1dc081085c42bb5+0x58>
80001c8e: a009         	j	0x80001c90 <lab5_kernel_task2::next_runnable_rr::hf1dc081085c42bb5+0x48>
80001c90: 75a2         	ld	a1, 0x28(sp)
80001c92: 656a         	ld	a0, 0x98(sp)
80001c94: f52a         	sd	a0, 0xa8(sp)
80001c96: 952e         	add	a0, a0, a1
80001c98: f02a         	sd	a0, 0x20(sp)
80001c9a: 04b56263     	bltu	a0, a1, 0x80001cde <.Lpcrel_hi120>
80001c9e: a809         	j	0x80001cb0 <lab5_kernel_task2::next_runnable_rr::hf1dc081085c42bb5+0x68>
80001ca0: 4501         	li	a0, 0x0
80001ca2: fc2a         	sd	a0, 0x38(sp)
80001ca4: a009         	j	0x80001ca6 <lab5_kernel_task2::next_runnable_rr::hf1dc081085c42bb5+0x5e>
80001ca6: 7562         	ld	a0, 0x38(sp)
80001ca8: 6586         	ld	a1, 0x40(sp)
80001caa: 70ea         	ld	ra, 0xb8(sp)
80001cac: 6129         	addi	sp, sp, 0xc0
80001cae: 8082         	ret
80001cb0: 7502         	ld	a0, 0x20(sp)
80001cb2: aaaab5b7     	lui	a1, 0xaaaab
80001cb6: aab58593     	addi	a1, a1, -0x555
80001cba: 02059613     	slli	a2, a1, 0x20
80001cbe: 95b2         	add	a1, a1, a2
80001cc0: 02b535b3     	mulhu	a1, a0, a1
80001cc4: 0015d613     	srli	a2, a1, 0x1
80001cc8: 99f9         	andi	a1, a1, -0x2
80001cca: 95b2         	add	a1, a1, a2
80001ccc: 8d0d         	sub	a0, a0, a1
80001cce: e82a         	sd	a0, 0x10(sp)
80001cd0: f92a         	sd	a0, 0xb0(sp)
80001cd2: 458d         	li	a1, 0x3
80001cd4: 862a         	mv	a2, a0
80001cd6: ec32         	sd	a2, 0x18(sp)
80001cd8: 00b56b63     	bltu	a0, a1, 0x80001cee <.Lpcrel_hi121>
80001cdc: a839         	j	0x80001cfa <.Lpcrel_hi121+0xc>

0000000080001cde <.Lpcrel_hi120>:
80001cde: 00005517     	auipc	a0, 0x5
80001ce2: 08250513     	addi	a0, a0, 0x82
80001ce6: 00004097     	auipc	ra, 0x4
80001cea: d4a080e7     	jalr	-0x2b6(ra) <core::panicking::panic_const::panic_const_add_overflow::h67cba067093910f8>

0000000080001cee <.Lpcrel_hi121>:
80001cee: 00006517     	auipc	a0, 0x6
80001cf2: 3fa50513     	addi	a0, a0, 0x3fa
80001cf6: ed01         	bnez	a0, 0x80001d0e <.Lpcrel_hi122+0x12>
80001cf8: a099         	j	0x80001d3e <.Lpcrel_hi125>
80001cfa: 6562         	ld	a0, 0x18(sp)

0000000080001cfc <.Lpcrel_hi122>:
80001cfc: 00005597     	auipc	a1, 0x5
80001d00: 07c58613     	addi	a2, a1, 0x7c
80001d04: 458d         	li	a1, 0x3
80001d06: 00004097     	auipc	ra, 0x4
80001d0a: d66080e7     	jalr	-0x29a(ra) <core::panicking::panic_bounds_check::h6aaee0d15e0261eb>
80001d0e: 6542         	ld	a0, 0x10(sp)
80001d10: 25800593     	li	a1, 0x258
80001d14: 02b505b3     	mul	a1, a0, a1

0000000080001d18 <.Lpcrel_hi123>:
80001d18: 00006517     	auipc	a0, 0x6
80001d1c: 3d050513     	addi	a0, a0, 0x3d0
80001d20: 952e         	add	a0, a0, a1
80001d22: 25050513     	addi	a0, a0, 0x250

0000000080001d26 <.Lpcrel_hi124>:
80001d26: 00004597     	auipc	a1, 0x4
80001d2a: 1be58593     	addi	a1, a1, 0x1be
80001d2e: 00002097     	auipc	ra, 0x2
80001d32: 7c2080e7     	jalr	0x7c2(ra) <_$LT$lab5_kernel_task2..TaskState$u20$as$u20$core..cmp..PartialEq$GT$::eq::hf800767fdef7956b>
80001d36: 65c2         	ld	a1, 0x10(sp)
80001d38: e42e         	sd	a1, 0x8(sp)
80001d3a: e911         	bnez	a0, 0x80001d4e <.Lpcrel_hi125+0x10>
80001d3c: bf3d         	j	0x80001c7a <lab5_kernel_task2::next_runnable_rr::hf1dc081085c42bb5+0x32>

0000000080001d3e <.Lpcrel_hi125>:
80001d3e: 00005517     	auipc	a0, 0x5
80001d42: 03a50513     	addi	a0, a0, 0x3a
80001d46: 00004097     	auipc	ra, 0x4
80001d4a: d92080e7     	jalr	-0x26e(ra) <core::panicking::panic_null_pointer_dereference::hbac6411af4f2e916>
80001d4e: 6522         	ld	a0, 0x8(sp)
80001d50: e0aa         	sd	a0, 0x40(sp)
80001d52: 4505         	li	a0, 0x1
80001d54: fc2a         	sd	a0, 0x38(sp)
80001d56: bf81         	j	0x80001ca6 <lab5_kernel_task2::next_runnable_rr::hf1dc081085c42bb5+0x5e>

0000000080001d58 <lab5_kernel_task2::resume_same_task::he6fe4ffa37b826e5>:
80001d58: 1101         	addi	sp, sp, -0x20
80001d5a: e02e         	sd	a1, 0x0(sp)
80001d5c: 85aa         	mv	a1, a0
80001d5e: 6502         	ld	a0, 0x0(sp)
80001d60: e42e         	sd	a1, 0x8(sp)
80001d62: e82e         	sd	a1, 0x10(sp)
80001d64: ec2a         	sd	a0, 0x18(sp)
80001d66: 4509         	li	a0, 0x2
80001d68: 00b56963     	bltu	a0, a1, 0x80001d7a <.Lpcrel_hi126+0xc>
80001d6c: a009         	j	0x80001d6e <.Lpcrel_hi126>

0000000080001d6e <.Lpcrel_hi126>:
80001d6e: 00006517     	auipc	a0, 0x6
80001d72: 37a50513     	addi	a0, a0, 0x37a
80001d76: ed01         	bnez	a0, 0x80001d8e <.Lpcrel_hi127+0x12>
80001d78: a815         	j	0x80001dac <.Lpcrel_hi129>
80001d7a: 6522         	ld	a0, 0x8(sp)

0000000080001d7c <.Lpcrel_hi127>:
80001d7c: 00005597     	auipc	a1, 0x5
80001d80: 01458613     	addi	a2, a1, 0x14
80001d84: 458d         	li	a1, 0x3
80001d86: 00004097     	auipc	ra, 0x4
80001d8a: ce6080e7     	jalr	-0x31a(ra) <core::panicking::panic_bounds_check::h6aaee0d15e0261eb>
80001d8e: 6502         	ld	a0, 0x0(sp)
80001d90: 65a2         	ld	a1, 0x8(sp)
80001d92: 25800613     	li	a2, 0x258
80001d96: 02c58633     	mul	a2, a1, a2

0000000080001d9a <.Lpcrel_hi128>:
80001d9a: 00006597     	auipc	a1, 0x6
80001d9e: 34e58593     	addi	a1, a1, 0x34e
80001da2: 95b2         	add	a1, a1, a2
80001da4: 22a5b423     	sd	a0, 0x228(a1)
80001da8: 6105         	addi	sp, sp, 0x20
80001daa: 8082         	ret

0000000080001dac <.Lpcrel_hi129>:
80001dac: 00005517     	auipc	a0, 0x5
80001db0: fe450513     	addi	a0, a0, -0x1c
80001db4: 00004097     	auipc	ra, 0x4
80001db8: d24080e7     	jalr	-0x2dc(ra) <core::panicking::panic_null_pointer_dereference::hbac6411af4f2e916>

0000000080001dbc <lab5_kernel_task2::emit_switch_trace::h9d4f628f8d919677>:
80001dbc: d3010113     	addi	sp, sp, -0x2d0
80001dc0: 2c113423     	sd	ra, 0x2c8(sp)
80001dc4: fc3a         	sd	a4, 0x38(sp)
80001dc6: e0b6         	sd	a3, 0x40(sp)
80001dc8: 88b2         	mv	a7, a2
80001dca: e4c6         	sd	a7, 0x48(sp)
80001dcc: 88ae         	mv	a7, a1
80001dce: e8c6         	sd	a7, 0x50(sp)
80001dd0: ecaa         	sd	a0, 0x58(sp)
80001dd2: f0be         	sd	a5, 0x60(sp)
80001dd4: f4c2         	sd	a6, 0x68(sp)
80001dd6: 28b10f23     	sb	a1, 0x29e(sp)
80001dda: 28c10fa3     	sb	a2, 0x29f(sp)
80001dde: 2ad13023     	sd	a3, 0x2a0(sp)
80001de2: 2ae13423     	sd	a4, 0x2a8(sp)

0000000080001de6 <.Lpcrel_hi130>:
80001de6: 00006517     	auipc	a0, 0x6
80001dea: 2ea50513     	addi	a0, a0, 0x2ea
80001dee: cd19         	beqz	a0, 0x80001e0c <.Lpcrel_hi132>
80001df0: a009         	j	0x80001df2 <.Lpcrel_hi131>

0000000080001df2 <.Lpcrel_hi131>:
80001df2: 00006517     	auipc	a0, 0x6
80001df6: 2de50513     	addi	a0, a0, 0x2de
80001dfa: 6108         	ld	a0, 0x0(a0)
80001dfc: 01253593     	sltiu	a1, a0, 0x12
80001e00: 2ab10ba3     	sb	a1, 0x2b7(sp)
80001e04: 45c9         	li	a1, 0x12
80001e06: 02b56063     	bltu	a0, a1, 0x80001e26 <.Lpcrel_hi132+0x1a>
80001e0a: a809         	j	0x80001e1c <.Lpcrel_hi132+0x10>

0000000080001e0c <.Lpcrel_hi132>:
80001e0c: 00005517     	auipc	a0, 0x5
80001e10: f9c50513     	addi	a0, a0, -0x64
80001e14: 00004097     	auipc	ra, 0x4
80001e18: cc4080e7     	jalr	-0x33c(ra) <core::panicking::panic_null_pointer_dereference::hbac6411af4f2e916>
80001e1c: 2c813083     	ld	ra, 0x2c8(sp)
80001e20: 2d010113     	addi	sp, sp, 0x2d0
80001e24: 8082         	ret
80001e26: 6546         	ld	a0, 0x50(sp)
80001e28: 8905         	andi	a0, a0, 0x1
80001e2a: 00000097     	auipc	ra, 0x0
80001e2e: d3a080e7     	jalr	-0x2c6(ra) <lab5_kernel_task2::SchedulerPolicy::as_str::h915765f6c5b41e46>
80001e32: 862a         	mv	a2, a0
80001e34: 6526         	ld	a0, 0x48(sp)
80001e36: e5b2         	sd	a2, 0xc8(sp)
80001e38: e9ae         	sd	a1, 0xd0(sp)
80001e3a: 0ff57513     	zext.b	a0, a0
80001e3e: fffff097     	auipc	ra, 0xfffff
80001e42: 38c080e7     	jalr	0x38c(ra) <lab5_kernel_task2::SwitchReason::as_str::h6c698df78caa931f>
80001e46: 862a         	mv	a2, a0
80001e48: 852e         	mv	a0, a1
80001e4a: 6586         	ld	a1, 0x40(sp)
80001e4c: edb2         	sd	a2, 0xd8(sp)
80001e4e: f1aa         	sd	a0, 0xe0(sp)
80001e50: 4509         	li	a0, 0x2
80001e52: 02b56563     	bltu	a0, a1, 0x80001e7c <.Lpcrel_hi133+0x16>
80001e56: a009         	j	0x80001e58 <.Lpcrel_hi132+0x4c>
80001e58: 6506         	ld	a0, 0x40(sp)
80001e5a: 00451613     	slli	a2, a0, 0x4
80001e5e: 00651593     	slli	a1, a0, 0x6
80001e62: 40c58633     	sub	a2, a1, a2

0000000080001e66 <.Lpcrel_hi133>:
80001e66: 00006597     	auipc	a1, 0x6
80001e6a: 84258593     	addi	a1, a1, -0x7be
80001e6e: 95b2         	add	a1, a1, a2
80001e70: 05e1         	addi	a1, a1, 0x18
80001e72: f82e         	sd	a1, 0x30(sp)
80001e74: 458d         	li	a1, 0x3
80001e76: 00b56d63     	bltu	a0, a1, 0x80001e90 <.Lpcrel_hi134+0x12>
80001e7a: a825         	j	0x80001eb2 <.Lpcrel_hi135+0x14>
80001e7c: 6506         	ld	a0, 0x40(sp)

0000000080001e7e <.Lpcrel_hi134>:
80001e7e: 00005597     	auipc	a1, 0x5
80001e82: f4258613     	addi	a2, a1, -0xbe
80001e86: 458d         	li	a1, 0x3
80001e88: 00004097     	auipc	ra, 0x4
80001e8c: be4080e7     	jalr	-0x41c(ra) <core::panicking::panic_bounds_check::h6aaee0d15e0261eb>
80001e90: 7562         	ld	a0, 0x38(sp)
80001e92: 6586         	ld	a1, 0x40(sp)
80001e94: 00459613     	slli	a2, a1, 0x4
80001e98: 059a         	slli	a1, a1, 0x6
80001e9a: 40c58633     	sub	a2, a1, a2

0000000080001e9e <.Lpcrel_hi135>:
80001e9e: 00006597     	auipc	a1, 0x6
80001ea2: 80a58593     	addi	a1, a1, -0x7f6
80001ea6: 95b2         	add	a1, a1, a2
80001ea8: f42e         	sd	a1, 0x28(sp)
80001eaa: 458d         	li	a1, 0x3
80001eac: 00b56d63     	bltu	a0, a1, 0x80001ec6 <.Lpcrel_hi136+0x12>
80001eb0: a82d         	j	0x80001eea <.Lpcrel_hi137+0x16>
80001eb2: 6506         	ld	a0, 0x40(sp)

0000000080001eb4 <.Lpcrel_hi136>:
80001eb4: 00005597     	auipc	a1, 0x5
80001eb8: f2458613     	addi	a2, a1, -0xdc
80001ebc: 458d         	li	a1, 0x3
80001ebe: 00004097     	auipc	ra, 0x4
80001ec2: bae080e7     	jalr	-0x452(ra) <core::panicking::panic_bounds_check::h6aaee0d15e0261eb>
80001ec6: 7562         	ld	a0, 0x38(sp)
80001ec8: 00451613     	slli	a2, a0, 0x4
80001ecc: 00651593     	slli	a1, a0, 0x6
80001ed0: 40c58633     	sub	a2, a1, a2

0000000080001ed4 <.Lpcrel_hi137>:
80001ed4: 00005597     	auipc	a1, 0x5
80001ed8: 7d458593     	addi	a1, a1, 0x7d4
80001edc: 95b2         	add	a1, a1, a2
80001ede: 05e1         	addi	a1, a1, 0x18
80001ee0: f02e         	sd	a1, 0x20(sp)
80001ee2: 458d         	li	a1, 0x3
80001ee4: 00b56d63     	bltu	a0, a1, 0x80001efe <.Lpcrel_hi138+0x12>
80001ee8: a825         	j	0x80001f20 <.Lpcrel_hi139+0x14>
80001eea: 7562         	ld	a0, 0x38(sp)

0000000080001eec <.Lpcrel_hi138>:
80001eec: 00005597     	auipc	a1, 0x5
80001ef0: f0458613     	addi	a2, a1, -0xfc
80001ef4: 458d         	li	a1, 0x3
80001ef6: 00004097     	auipc	ra, 0x4
80001efa: b76080e7     	jalr	-0x48a(ra) <core::panicking::panic_bounds_check::h6aaee0d15e0261eb>
80001efe: 6506         	ld	a0, 0x40(sp)
80001f00: 75e2         	ld	a1, 0x38(sp)
80001f02: 00459613     	slli	a2, a1, 0x4
80001f06: 059a         	slli	a1, a1, 0x6
80001f08: 40c58633     	sub	a2, a1, a2

0000000080001f0c <.Lpcrel_hi139>:
80001f0c: 00005597     	auipc	a1, 0x5
80001f10: 79c58593     	addi	a1, a1, 0x79c
80001f14: 95b2         	add	a1, a1, a2
80001f16: ec2e         	sd	a1, 0x18(sp)
80001f18: 458d         	li	a1, 0x3
80001f1a: 00b56d63     	bltu	a0, a1, 0x80001f34 <.Lpcrel_hi140+0x12>
80001f1e: a835         	j	0x80001f5a <.Lpcrel_hi141+0x18>
80001f20: 7562         	ld	a0, 0x38(sp)

0000000080001f22 <.Lpcrel_hi140>:
80001f22: 00005597     	auipc	a1, 0x5
80001f26: ee658613     	addi	a2, a1, -0x11a
80001f2a: 458d         	li	a1, 0x3
80001f2c: 00004097     	auipc	ra, 0x4
80001f30: b40080e7     	jalr	-0x4c0(ra) <core::panicking::panic_bounds_check::h6aaee0d15e0261eb>
80001f34: 7562         	ld	a0, 0x38(sp)
80001f36: 6586         	ld	a1, 0x40(sp)
80001f38: 00459613     	slli	a2, a1, 0x4
80001f3c: 059a         	slli	a1, a1, 0x6
80001f3e: 40c58633     	sub	a2, a1, a2

0000000080001f42 <.Lpcrel_hi141>:
80001f42: 00005597     	auipc	a1, 0x5
80001f46: 76658593     	addi	a1, a1, 0x766
80001f4a: 95b2         	add	a1, a1, a2
80001f4c: 02058593     	addi	a1, a1, 0x20
80001f50: e82e         	sd	a1, 0x10(sp)
80001f52: 458d         	li	a1, 0x3
80001f54: 00b56d63     	bltu	a0, a1, 0x80001f6e <.Lpcrel_hi142+0x12>
80001f58: aa95         	j	0x800020cc <.Lpcrel_hi145+0xc>
80001f5a: 6506         	ld	a0, 0x40(sp)

0000000080001f5c <.Lpcrel_hi142>:
80001f5c: 00005597     	auipc	a1, 0x5
80001f60: ec458613     	addi	a2, a1, -0x13c
80001f64: 458d         	li	a1, 0x3
80001f66: 00004097     	auipc	ra, 0x4
80001f6a: b06080e7     	jalr	-0x4fa(ra) <core::panicking::panic_bounds_check::h6aaee0d15e0261eb>
80001f6e: 65c2         	ld	a1, 0x10(sp)
80001f70: 6662         	ld	a2, 0x18(sp)
80001f72: 7682         	ld	a3, 0x20(sp)
80001f74: 7722         	ld	a4, 0x28(sp)
80001f76: 77c2         	ld	a5, 0x30(sp)
80001f78: 7562         	ld	a0, 0x38(sp)
80001f7a: 00451813     	slli	a6, a0, 0x4
80001f7e: 051a         	slli	a0, a0, 0x6
80001f80: 41050833     	sub	a6, a0, a6

0000000080001f84 <.Lpcrel_hi143>:
80001f84: 00005517     	auipc	a0, 0x5
80001f88: 72450513     	addi	a0, a0, 0x724
80001f8c: 9542         	add	a0, a0, a6
80001f8e: 02050513     	addi	a0, a0, 0x20
80001f92: 0c810813     	addi	a6, sp, 0xc8
80001f96: f8c2         	sd	a6, 0x70(sp)
80001f98: 05810813     	addi	a6, sp, 0x58
80001f9c: fcc2         	sd	a6, 0x78(sp)
80001f9e: 0d810813     	addi	a6, sp, 0xd8
80001fa2: e142         	sd	a6, 0x80(sp)
80001fa4: e53e         	sd	a5, 0x88(sp)
80001fa6: e93a         	sd	a4, 0x90(sp)
80001fa8: 1098         	addi	a4, sp, 0x60
80001faa: ed3a         	sd	a4, 0x98(sp)
80001fac: f136         	sd	a3, 0xa0(sp)
80001fae: f532         	sd	a2, 0xa8(sp)
80001fb0: 10b0         	addi	a2, sp, 0x68
80001fb2: f932         	sd	a2, 0xb0(sp)
80001fb4: fd2e         	sd	a1, 0xb8(sp)
80001fb6: e1aa         	sd	a0, 0xc0(sp)
80001fb8: 75c6         	ld	a1, 0x70(sp)
80001fba: 0b28         	addi	a0, sp, 0x198
80001fbc: ffffe097     	auipc	ra, 0xffffe
80001fc0: 338080e7     	jalr	0x338(ra) <core::fmt::rt::Argument::new_display::hdf5d30e07b2a6dbf>
80001fc4: 75e6         	ld	a1, 0x78(sp)
80001fc6: 1328         	addi	a0, sp, 0x1a8
80001fc8: ffffe097     	auipc	ra, 0xffffe
80001fcc: 2c6080e7     	jalr	0x2c6(ra) <core::fmt::rt::Argument::new_display::h52645e11b6055522>
80001fd0: 658a         	ld	a1, 0x80(sp)
80001fd2: 1b28         	addi	a0, sp, 0x1b8
80001fd4: ffffe097     	auipc	ra, 0xffffe
80001fd8: 320080e7     	jalr	0x320(ra) <core::fmt::rt::Argument::new_display::hdf5d30e07b2a6dbf>
80001fdc: 65aa         	ld	a1, 0x88(sp)
80001fde: 03a8         	addi	a0, sp, 0x1c8
80001fe0: ffffe097     	auipc	ra, 0xffffe
80001fe4: 2ae080e7     	jalr	0x2ae(ra) <core::fmt::rt::Argument::new_display::h52645e11b6055522>
80001fe8: 65ca         	ld	a1, 0x90(sp)
80001fea: 0ba8         	addi	a0, sp, 0x1d8
80001fec: ffffe097     	auipc	ra, 0xffffe
80001ff0: 308080e7     	jalr	0x308(ra) <core::fmt::rt::Argument::new_display::hdf5d30e07b2a6dbf>
80001ff4: 65ea         	ld	a1, 0x98(sp)
80001ff6: 13a8         	addi	a0, sp, 0x1e8
80001ff8: ffffe097     	auipc	ra, 0xffffe
80001ffc: 296080e7     	jalr	0x296(ra) <core::fmt::rt::Argument::new_display::h52645e11b6055522>
80002000: 758a         	ld	a1, 0xa0(sp)
80002002: 1ba8         	addi	a0, sp, 0x1f8
80002004: ffffe097     	auipc	ra, 0xffffe
80002008: 28a080e7     	jalr	0x28a(ra) <core::fmt::rt::Argument::new_display::h52645e11b6055522>
8000200c: 75aa         	ld	a1, 0xa8(sp)
8000200e: 0428         	addi	a0, sp, 0x208
80002010: ffffe097     	auipc	ra, 0xffffe
80002014: 2e4080e7     	jalr	0x2e4(ra) <core::fmt::rt::Argument::new_display::hdf5d30e07b2a6dbf>
80002018: 75ca         	ld	a1, 0xb0(sp)
8000201a: 0c28         	addi	a0, sp, 0x218
8000201c: ffffe097     	auipc	ra, 0xffffe
80002020: 272080e7     	jalr	0x272(ra) <core::fmt::rt::Argument::new_display::h52645e11b6055522>
80002024: 75ea         	ld	a1, 0xb8(sp)
80002026: 1428         	addi	a0, sp, 0x228
80002028: ffffe097     	auipc	ra, 0xffffe
8000202c: 244080e7     	jalr	0x244(ra) <core::fmt::rt::Argument::new_display::h009018ea15ddc750>
80002030: 658e         	ld	a1, 0xc0(sp)
80002032: 1c28         	addi	a0, sp, 0x238
80002034: ffffe097     	auipc	ra, 0xffffe
80002038: 238080e7     	jalr	0x238(ra) <core::fmt::rt::Argument::new_display::h009018ea15ddc750>
8000203c: 751a         	ld	a0, 0x1a0(sp)
8000203e: f9aa         	sd	a0, 0xf0(sp)
80002040: 657a         	ld	a0, 0x198(sp)
80002042: f5aa         	sd	a0, 0xe8(sp)
80002044: 755a         	ld	a0, 0x1b0(sp)
80002046: e22a         	sd	a0, 0x100(sp)
80002048: 753a         	ld	a0, 0x1a8(sp)
8000204a: fdaa         	sd	a0, 0xf8(sp)
8000204c: 651e         	ld	a0, 0x1c0(sp)
8000204e: ea2a         	sd	a0, 0x110(sp)
80002050: 757a         	ld	a0, 0x1b8(sp)
80002052: e62a         	sd	a0, 0x108(sp)
80002054: 655e         	ld	a0, 0x1d0(sp)
80002056: f22a         	sd	a0, 0x120(sp)
80002058: 653e         	ld	a0, 0x1c8(sp)
8000205a: ee2a         	sd	a0, 0x118(sp)
8000205c: 751e         	ld	a0, 0x1e0(sp)
8000205e: fa2a         	sd	a0, 0x130(sp)
80002060: 657e         	ld	a0, 0x1d8(sp)
80002062: f62a         	sd	a0, 0x128(sp)
80002064: 755e         	ld	a0, 0x1f0(sp)
80002066: e2aa         	sd	a0, 0x140(sp)
80002068: 753e         	ld	a0, 0x1e8(sp)
8000206a: fe2a         	sd	a0, 0x138(sp)
8000206c: 20013503     	ld	a0, 0x200(sp)
80002070: eaaa         	sd	a0, 0x150(sp)
80002072: 757e         	ld	a0, 0x1f8(sp)
80002074: e6aa         	sd	a0, 0x148(sp)
80002076: 21013503     	ld	a0, 0x210(sp)
8000207a: f2aa         	sd	a0, 0x160(sp)
8000207c: 20813503     	ld	a0, 0x208(sp)
80002080: eeaa         	sd	a0, 0x158(sp)
80002082: 22013503     	ld	a0, 0x220(sp)
80002086: faaa         	sd	a0, 0x170(sp)
80002088: 21813503     	ld	a0, 0x218(sp)
8000208c: f6aa         	sd	a0, 0x168(sp)
8000208e: 23013503     	ld	a0, 0x230(sp)
80002092: e32a         	sd	a0, 0x180(sp)
80002094: 22813503     	ld	a0, 0x228(sp)
80002098: feaa         	sd	a0, 0x178(sp)
8000209a: 24013503     	ld	a0, 0x240(sp)
8000209e: eb2a         	sd	a0, 0x190(sp)
800020a0: 23813503     	ld	a0, 0x238(sp)
800020a4: e72a         	sd	a0, 0x188(sp)

00000000800020a6 <.Lpcrel_hi144>:
800020a6: 00005517     	auipc	a0, 0x5
800020aa: daa50513     	addi	a0, a0, -0x256
800020ae: 11ac         	addi	a1, sp, 0xe8
800020b0: 00003097     	auipc	ra, 0x3
800020b4: a1a080e7     	jalr	-0x5e6(ra) <core::fmt::Arguments::new::h990c62456265c3aa>
800020b8: ffffe097     	auipc	ra, 0xffffe
800020bc: 5bc080e7     	jalr	0x5bc(ra) <lab5_kernel_task2::console::print::h64393a0152c60ab8>

00000000800020c0 <.Lpcrel_hi145>:
800020c0: 00006517     	auipc	a0, 0x6
800020c4: 01050513     	addi	a0, a0, 0x10
800020c8: ed01         	bnez	a0, 0x800020e0 <.Lpcrel_hi147>
800020ca: a035         	j	0x800020f6 <.Lpcrel_hi148>
800020cc: 7562         	ld	a0, 0x38(sp)

00000000800020ce <.Lpcrel_hi146>:
800020ce: 00005597     	auipc	a1, 0x5
800020d2: d6a58613     	addi	a2, a1, -0x296
800020d6: 458d         	li	a1, 0x3
800020d8: 00004097     	auipc	ra, 0x4
800020dc: 994080e7     	jalr	-0x66c(ra) <core::panicking::panic_bounds_check::h6aaee0d15e0261eb>

00000000800020e0 <.Lpcrel_hi147>:
800020e0: 00006517     	auipc	a0, 0x6
800020e4: ff050513     	addi	a0, a0, -0x10
800020e8: 610c         	ld	a1, 0x0(a0)
800020ea: 00158513     	addi	a0, a1, 0x1
800020ee: e42a         	sd	a0, 0x8(sp)
800020f0: 02b56163     	bltu	a0, a1, 0x80002112 <.Lpcrel_hi150>
800020f4: a809         	j	0x80002106 <.Lpcrel_hi149>

00000000800020f6 <.Lpcrel_hi148>:
800020f6: 00005517     	auipc	a0, 0x5
800020fa: dca50513     	addi	a0, a0, -0x236
800020fe: 00004097     	auipc	ra, 0x4
80002102: 9da080e7     	jalr	-0x626(ra) <core::panicking::panic_null_pointer_dereference::hbac6411af4f2e916>

0000000080002106 <.Lpcrel_hi149>:
80002106: 00006517     	auipc	a0, 0x6
8000210a: fca50513     	addi	a0, a0, -0x36
8000210e: e911         	bnez	a0, 0x80002122 <.Lpcrel_hi150+0x10>
80002110: a00d         	j	0x80002132 <.Lpcrel_hi152>

0000000080002112 <.Lpcrel_hi150>:
80002112: 00005517     	auipc	a0, 0x5
80002116: dae50513     	addi	a0, a0, -0x252
8000211a: 00004097     	auipc	ra, 0x4
8000211e: 916080e7     	jalr	-0x6ea(ra) <core::panicking::panic_const::panic_const_add_overflow::h67cba067093910f8>
80002122: 65a2         	ld	a1, 0x8(sp)

0000000080002124 <.Lpcrel_hi151>:
80002124: 00006517     	auipc	a0, 0x6
80002128: fac50513     	addi	a0, a0, -0x54
8000212c: e10c         	sd	a1, 0x0(a0)
8000212e: e911         	bnez	a0, 0x80002142 <.Lpcrel_hi153>
80002130: a015         	j	0x80002154 <.Lpcrel_hi154>

0000000080002132 <.Lpcrel_hi152>:
80002132: 00005517     	auipc	a0, 0x5
80002136: d8e50513     	addi	a0, a0, -0x272
8000213a: 00004097     	auipc	ra, 0x4
8000213e: 99e080e7     	jalr	-0x662(ra) <core::panicking::panic_null_pointer_dereference::hbac6411af4f2e916>

0000000080002142 <.Lpcrel_hi153>:
80002142: 00006517     	auipc	a0, 0x6
80002146: f8e50513     	addi	a0, a0, -0x72
8000214a: 6108         	ld	a0, 0x0(a0)
8000214c: 45c9         	li	a1, 0x12
8000214e: 00b50b63     	beq	a0, a1, 0x80002164 <.Lpcrel_hi154+0x10>
80002152: b1e9         	j	0x80001e1c <.Lpcrel_hi132+0x10>

0000000080002154 <.Lpcrel_hi154>:
80002154: 00005517     	auipc	a0, 0x5
80002158: d8450513     	addi	a0, a0, -0x27c
8000215c: 00004097     	auipc	ra, 0x4
80002160: 97c080e7     	jalr	-0x684(ra) <core::panicking::panic_null_pointer_dereference::hbac6411af4f2e916>
80002164: 6546         	ld	a0, 0x50(sp)
80002166: 8905         	andi	a0, a0, 0x1
80002168: 00000097     	auipc	ra, 0x0
8000216c: 9fc080e7     	jalr	-0x604(ra) <lab5_kernel_task2::SchedulerPolicy::as_str::h915765f6c5b41e46>
80002170: 24a13423     	sd	a0, 0x248(sp)
80002174: 24b13823     	sd	a1, 0x250(sp)
80002178: 04ac         	addi	a1, sp, 0x248
8000217a: 2ab13c23     	sd	a1, 0x2b8(sp)

000000008000217e <.Lpcrel_hi155>:
8000217e: 00004517     	auipc	a0, 0x4
80002182: 7b250513     	addi	a0, a0, 0x7b2
80002186: e02a         	sd	a0, 0x0(sp)
80002188: 2ca13023     	sd	a0, 0x2c0(sp)
8000218c: 1ca8         	addi	a0, sp, 0x278
8000218e: ffffe097     	auipc	ra, 0xffffe
80002192: 166080e7     	jalr	0x166(ra) <core::fmt::rt::Argument::new_display::hdf5d30e07b2a6dbf>
80002196: 6582         	ld	a1, 0x0(sp)
80002198: 0528         	addi	a0, sp, 0x288
8000219a: ffffe097     	auipc	ra, 0xffffe
8000219e: 0d2080e7     	jalr	0xd2(ra) <core::fmt::rt::Argument::new_display::h009018ea15ddc750>
800021a2: 28013503     	ld	a0, 0x280(sp)
800021a6: 26a13023     	sd	a0, 0x260(sp)
800021aa: 27813503     	ld	a0, 0x278(sp)
800021ae: 24a13c23     	sd	a0, 0x258(sp)
800021b2: 29013503     	ld	a0, 0x290(sp)
800021b6: 26a13823     	sd	a0, 0x270(sp)
800021ba: 28813503     	ld	a0, 0x288(sp)
800021be: 26a13423     	sd	a0, 0x268(sp)

00000000800021c2 <.Lpcrel_hi156>:
800021c2: 00004517     	auipc	a0, 0x4
800021c6: c6650513     	addi	a0, a0, -0x39a
800021ca: 0cac         	addi	a1, sp, 0x258
800021cc: 00003097     	auipc	ra, 0x3
800021d0: 8cc080e7     	jalr	-0x734(ra) <core::fmt::Arguments::new::h344a4eff100633de>
800021d4: ffffe097     	auipc	ra, 0xffffe
800021d8: 4a0080e7     	jalr	0x4a0(ra) <lab5_kernel_task2::console::print::h64393a0152c60ab8>
800021dc: b181         	j	0x80001e1c <.Lpcrel_hi132+0x10>

00000000800021de <lab5_kernel_task2::reset_phase_state::h1d2279f3fa8aad9a>:
800021de: 00006517     	auipc	a0, 0x6
800021e2: c9250513     	addi	a0, a0, -0x36e
800021e6: cd11         	beqz	a0, 0x80002202 <.Lpcrel_hi160>
800021e8: a009         	j	0x800021ea <.Lpcrel_hi158>

00000000800021ea <.Lpcrel_hi158>:
800021ea: 00006517     	auipc	a0, 0x6
800021ee: c8650593     	addi	a1, a0, -0x37a
800021f2: 557d         	li	a0, -0x1
800021f4: e188         	sd	a0, 0x0(a1)

00000000800021f6 <.Lpcrel_hi159>:
800021f6: 00006517     	auipc	a0, 0x6
800021fa: ec250513     	addi	a0, a0, -0x13e
800021fe: e911         	bnez	a0, 0x80002212 <.Lpcrel_hi161>
80002200: a02d         	j	0x8000222a <.Lpcrel_hi163>

0000000080002202 <.Lpcrel_hi160>:
80002202: 00005517     	auipc	a0, 0x5
80002206: cee50513     	addi	a0, a0, -0x312
8000220a: 00004097     	auipc	ra, 0x4
8000220e: 8ce080e7     	jalr	-0x732(ra) <core::panicking::panic_null_pointer_dereference::hbac6411af4f2e916>

0000000080002212 <.Lpcrel_hi161>:
80002212: 00006517     	auipc	a0, 0x6
80002216: ea650593     	addi	a1, a0, -0x15a
8000221a: 4501         	li	a0, 0x0
8000221c: e188         	sd	a0, 0x0(a1)

000000008000221e <.Lpcrel_hi162>:
8000221e: 00006517     	auipc	a0, 0x6
80002222: c8a50513     	addi	a0, a0, -0x376
80002226: e911         	bnez	a0, 0x8000223a <.Lpcrel_hi164>
80002228: a02d         	j	0x80002252 <.Lpcrel_hi166>

000000008000222a <.Lpcrel_hi163>:
8000222a: 00005517     	auipc	a0, 0x5
8000222e: cde50513     	addi	a0, a0, -0x322
80002232: 00004097     	auipc	ra, 0x4
80002236: 8a6080e7     	jalr	-0x75a(ra) <core::panicking::panic_null_pointer_dereference::hbac6411af4f2e916>

000000008000223a <.Lpcrel_hi164>:
8000223a: 00006517     	auipc	a0, 0x6
8000223e: c6e50593     	addi	a1, a0, -0x392
80002242: 4501         	li	a0, 0x0
80002244: e188         	sd	a0, 0x0(a1)

0000000080002246 <.Lpcrel_hi165>:
80002246: 00006517     	auipc	a0, 0x6
8000224a: e9250513     	addi	a0, a0, -0x16e
8000224e: e911         	bnez	a0, 0x80002262 <.Lpcrel_hi167>
80002250: a02d         	j	0x8000227a <.Lpcrel_hi169>

0000000080002252 <.Lpcrel_hi166>:
80002252: 00005517     	auipc	a0, 0x5
80002256: cce50513     	addi	a0, a0, -0x332
8000225a: 00004097     	auipc	ra, 0x4
8000225e: 87e080e7     	jalr	-0x782(ra) <core::panicking::panic_null_pointer_dereference::hbac6411af4f2e916>

0000000080002262 <.Lpcrel_hi167>:
80002262: 00006517     	auipc	a0, 0x6
80002266: e7650593     	addi	a1, a0, -0x18a
8000226a: 4501         	li	a0, 0x0
8000226c: e188         	sd	a0, 0x0(a1)

000000008000226e <.Lpcrel_hi168>:
8000226e: 00006517     	auipc	a0, 0x6
80002272: e7250513     	addi	a0, a0, -0x18e
80002276: e911         	bnez	a0, 0x8000228a <.Lpcrel_hi170>
80002278: a02d         	j	0x800022a2 <.Lpcrel_hi172>

000000008000227a <.Lpcrel_hi169>:
8000227a: 00005517     	auipc	a0, 0x5
8000227e: cbe50513     	addi	a0, a0, -0x342
80002282: 00004097     	auipc	ra, 0x4
80002286: 856080e7     	jalr	-0x7aa(ra) <core::panicking::panic_null_pointer_dereference::hbac6411af4f2e916>

000000008000228a <.Lpcrel_hi170>:
8000228a: 00006517     	auipc	a0, 0x6
8000228e: e5650593     	addi	a1, a0, -0x1aa
80002292: 4501         	li	a0, 0x0
80002294: e188         	sd	a0, 0x0(a1)

0000000080002296 <.Lpcrel_hi171>:
80002296: 00006517     	auipc	a0, 0x6
8000229a: e3250513     	addi	a0, a0, -0x1ce
8000229e: e911         	bnez	a0, 0x800022b2 <.Lpcrel_hi173>
800022a0: a02d         	j	0x800022ca <.Lpcrel_hi175>

00000000800022a2 <.Lpcrel_hi172>:
800022a2: 00005517     	auipc	a0, 0x5
800022a6: cae50513     	addi	a0, a0, -0x352
800022aa: 00004097     	auipc	ra, 0x4
800022ae: 82e080e7     	jalr	-0x7d2(ra) <core::panicking::panic_null_pointer_dereference::hbac6411af4f2e916>

00000000800022b2 <.Lpcrel_hi173>:
800022b2: 00006517     	auipc	a0, 0x6
800022b6: e1650593     	addi	a1, a0, -0x1ea
800022ba: 4501         	li	a0, 0x0
800022bc: e188         	sd	a0, 0x0(a1)

00000000800022be <.Lpcrel_hi174>:
800022be: 00006517     	auipc	a0, 0x6
800022c2: e0250513     	addi	a0, a0, -0x1fe
800022c6: e911         	bnez	a0, 0x800022da <.Lpcrel_hi176>
800022c8: a02d         	j	0x800022f2 <.Lpcrel_hi178>

00000000800022ca <.Lpcrel_hi175>:
800022ca: 00005517     	auipc	a0, 0x5
800022ce: c9e50513     	addi	a0, a0, -0x362
800022d2: 00004097     	auipc	ra, 0x4
800022d6: 806080e7     	jalr	-0x7fa(ra) <core::panicking::panic_null_pointer_dereference::hbac6411af4f2e916>

00000000800022da <.Lpcrel_hi176>:
800022da: 00006517     	auipc	a0, 0x6
800022de: de650593     	addi	a1, a0, -0x21a
800022e2: 4501         	li	a0, 0x0
800022e4: e188         	sd	a0, 0x0(a1)

00000000800022e6 <.Lpcrel_hi177>:
800022e6: 00006517     	auipc	a0, 0x6
800022ea: bca50513     	addi	a0, a0, -0x436
800022ee: e911         	bnez	a0, 0x80002302 <.Lpcrel_hi179>
800022f0: a02d         	j	0x8000231a <.Lpcrel_hi181>

00000000800022f2 <.Lpcrel_hi178>:
800022f2: 00005517     	auipc	a0, 0x5
800022f6: c8e50513     	addi	a0, a0, -0x372
800022fa: 00003097     	auipc	ra, 0x3
800022fe: 7de080e7     	jalr	0x7de(ra) <core::panicking::panic_null_pointer_dereference::hbac6411af4f2e916>

0000000080002302 <.Lpcrel_hi179>:
80002302: 00006517     	auipc	a0, 0x6
80002306: bae50593     	addi	a1, a0, -0x452
8000230a: 4501         	li	a0, 0x0
8000230c: e188         	sd	a0, 0x0(a1)

000000008000230e <.Lpcrel_hi180>:
8000230e: 00006517     	auipc	a0, 0x6
80002312: dc250513     	addi	a0, a0, -0x23e
80002316: e911         	bnez	a0, 0x8000232a <.Lpcrel_hi182>
80002318: a02d         	j	0x80002342 <.Lpcrel_hi184>

000000008000231a <.Lpcrel_hi181>:
8000231a: 00005517     	auipc	a0, 0x5
8000231e: c7e50513     	addi	a0, a0, -0x382
80002322: 00003097     	auipc	ra, 0x3
80002326: 7b6080e7     	jalr	0x7b6(ra) <core::panicking::panic_null_pointer_dereference::hbac6411af4f2e916>

000000008000232a <.Lpcrel_hi182>:
8000232a: 00006517     	auipc	a0, 0x6
8000232e: da650593     	addi	a1, a0, -0x25a
80002332: 4501         	li	a0, 0x0
80002334: e188         	sd	a0, 0x0(a1)

0000000080002336 <.Lpcrel_hi183>:
80002336: 00006517     	auipc	a0, 0x6
8000233a: b4250513     	addi	a0, a0, -0x4be
8000233e: e911         	bnez	a0, 0x80002352 <.Lpcrel_hi185>
80002340: a01d         	j	0x80002366 <.Lpcrel_hi186>

0000000080002342 <.Lpcrel_hi184>:
80002342: 00005517     	auipc	a0, 0x5
80002346: c6e50513     	addi	a0, a0, -0x392
8000234a: 00003097     	auipc	ra, 0x3
8000234e: 78e080e7     	jalr	0x78e(ra) <core::panicking::panic_null_pointer_dereference::hbac6411af4f2e916>

0000000080002352 <.Lpcrel_hi185>:
80002352: 00006517     	auipc	a0, 0x6
80002356: b2650593     	addi	a1, a0, -0x4da
8000235a: 557d         	li	a0, -0x1
8000235c: ed88         	sd	a0, 0x18(a1)
8000235e: e988         	sd	a0, 0x10(a1)
80002360: e588         	sd	a0, 0x8(a1)
80002362: e188         	sd	a0, 0x0(a1)
80002364: 8082         	ret

0000000080002366 <.Lpcrel_hi186>:
80002366: 00005517     	auipc	a0, 0x5
8000236a: c6250513     	addi	a0, a0, -0x39e
8000236e: 00003097     	auipc	ra, 0x3
80002372: 76a080e7     	jalr	0x76a(ra) <core::panicking::panic_null_pointer_dereference::hbac6411af4f2e916>

0000000080002376 <lab5_kernel_task2::current_phase_name::hd64ac02d196bccfb>:
80002376: 1141         	addi	sp, sp, -0x10

0000000080002378 <.Lpcrel_hi187>:
80002378: 00006517     	auipc	a0, 0x6
8000237c: b2850513     	addi	a0, a0, -0x4d8
80002380: cd01         	beqz	a0, 0x80002398 <.Lpcrel_hi189>
80002382: a009         	j	0x80002384 <.Lpcrel_hi188>

0000000080002384 <.Lpcrel_hi188>:
80002384: 00006517     	auipc	a0, 0x6
80002388: b1c50513     	addi	a0, a0, -0x4e4
8000238c: 6108         	ld	a0, 0x0(a0)
8000238e: e42a         	sd	a0, 0x8(sp)
80002390: 4589         	li	a1, 0x2
80002392: 00b56b63     	bltu	a0, a1, 0x800023a8 <.Lpcrel_hi189+0x10>
80002396: a805         	j	0x800023c6 <.Lpcrel_hi190+0x12>

0000000080002398 <.Lpcrel_hi189>:
80002398: 00005517     	auipc	a0, 0x5
8000239c: c4850513     	addi	a0, a0, -0x3b8
800023a0: 00003097     	auipc	ra, 0x3
800023a4: 738080e7     	jalr	0x738(ra) <core::panicking::panic_null_pointer_dereference::hbac6411af4f2e916>
800023a8: 6522         	ld	a0, 0x8(sp)
800023aa: 00351593     	slli	a1, a0, 0x3
800023ae: 0516         	slli	a0, a0, 0x5
800023b0: 40b505b3     	sub	a1, a0, a1

00000000800023b4 <.Lpcrel_hi190>:
800023b4: 00004517     	auipc	a0, 0x4
800023b8: 59450513     	addi	a0, a0, 0x594
800023bc: 95aa         	add	a1, a1, a0
800023be: 6188         	ld	a0, 0x0(a1)
800023c0: 658c         	ld	a1, 0x8(a1)
800023c2: 0141         	addi	sp, sp, 0x10
800023c4: 8082         	ret
800023c6: 6522         	ld	a0, 0x8(sp)

00000000800023c8 <.Lpcrel_hi191>:
800023c8: 00005597     	auipc	a1, 0x5
800023cc: c3058613     	addi	a2, a1, -0x3d0
800023d0: 4589         	li	a1, 0x2
800023d2: 00003097     	auipc	ra, 0x3
800023d6: 69a080e7     	jalr	0x69a(ra) <core::panicking::panic_bounds_check::h6aaee0d15e0261eb>

00000000800023da <lab5_kernel_task2::save_current_frame::h8bdb8513e233ba46>:
800023da: dd010113     	addi	sp, sp, -0x230
800023de: 22113423     	sd	ra, 0x228(sp)
800023e2: e02a         	sd	a0, 0x0(sp)
800023e4: 20a13c23     	sd	a0, 0x218(sp)
800023e8: 22b13023     	sd	a1, 0x220(sp)
800023ec: 0028         	addi	a0, sp, 0x8
800023ee: 21000613     	li	a2, 0x210
800023f2: 00004097     	auipc	ra, 0x4
800023f6: 870080e7     	jalr	-0x790(ra) <memcpy>
800023fa: 6582         	ld	a1, 0x0(sp)
800023fc: 4509         	li	a0, 0x2
800023fe: 00b56963     	bltu	a0, a1, 0x80002410 <.Lpcrel_hi192+0xc>
80002402: a009         	j	0x80002404 <.Lpcrel_hi192>

0000000080002404 <.Lpcrel_hi192>:
80002404: 00006517     	auipc	a0, 0x6
80002408: ce450513     	addi	a0, a0, -0x31c
8000240c: ed01         	bnez	a0, 0x80002424 <.Lpcrel_hi193+0x12>
8000240e: a089         	j	0x80002450 <.Lpcrel_hi195>
80002410: 6502         	ld	a0, 0x0(sp)

0000000080002412 <.Lpcrel_hi193>:
80002412: 00005597     	auipc	a1, 0x5
80002416: bfe58613     	addi	a2, a1, -0x402
8000241a: 458d         	li	a1, 0x3
8000241c: 00003097     	auipc	ra, 0x3
80002420: 650080e7     	jalr	0x650(ra) <core::panicking::panic_bounds_check::h6aaee0d15e0261eb>
80002424: 6502         	ld	a0, 0x0(sp)
80002426: 25800593     	li	a1, 0x258
8000242a: 02b505b3     	mul	a1, a0, a1

000000008000242e <.Lpcrel_hi194>:
8000242e: 00006517     	auipc	a0, 0x6
80002432: cba50513     	addi	a0, a0, -0x346
80002436: 952e         	add	a0, a0, a1
80002438: 002c         	addi	a1, sp, 0x8
8000243a: 21000613     	li	a2, 0x210
8000243e: 00004097     	auipc	ra, 0x4
80002442: 824080e7     	jalr	-0x7dc(ra) <memcpy>
80002446: 22813083     	ld	ra, 0x228(sp)
8000244a: 23010113     	addi	sp, sp, 0x230
8000244e: 8082         	ret

0000000080002450 <.Lpcrel_hi195>:
80002450: 00005517     	auipc	a0, 0x5
80002454: bc050513     	addi	a0, a0, -0x440
80002458: 00003097     	auipc	ra, 0x3
8000245c: 680080e7     	jalr	0x680(ra) <core::panicking::panic_null_pointer_dereference::hbac6411af4f2e916>

0000000080002460 <lab5_kernel_task2::save_phase_summary::hf19759dbf3a825bf>:
80002460: ce010113     	addi	sp, sp, -0x320
80002464: 30113c23     	sd	ra, 0x318(sp)
80002468: ed2a         	sd	a0, 0x98(sp)
8000246a: 30a13423     	sd	a0, 0x308(sp)
8000246e: 1108         	addi	a0, sp, 0xa0
80002470: fffff097     	auipc	ra, 0xfffff
80002474: cf4080e7     	jalr	-0x30c(ra) <lab5_kernel_task2::PhaseSummary::empty::h577fb4198836056b>

0000000080002478 <.Lpcrel_hi196>:
80002478: 00006517     	auipc	a0, 0x6
8000247c: a3850513     	addi	a0, a0, -0x5c8
80002480: cd11         	beqz	a0, 0x8000249c <.Lpcrel_hi199>
80002482: a009         	j	0x80002484 <.Lpcrel_hi197>

0000000080002484 <.Lpcrel_hi197>:
80002484: 00006517     	auipc	a0, 0x6
80002488: a2c50513     	addi	a0, a0, -0x5d4
8000248c: 6108         	ld	a0, 0x0(a0)
8000248e: f12a         	sd	a0, 0xa0(sp)

0000000080002490 <.Lpcrel_hi198>:
80002490: 00006517     	auipc	a0, 0x6
80002494: c5050513     	addi	a0, a0, -0x3b0
80002498: e911         	bnez	a0, 0x800024ac <.Lpcrel_hi200>
8000249a: a02d         	j	0x800024c4 <.Lpcrel_hi202>

000000008000249c <.Lpcrel_hi199>:
8000249c: 00005517     	auipc	a0, 0x5
800024a0: b8c50513     	addi	a0, a0, -0x474
800024a4: 00003097     	auipc	ra, 0x3
800024a8: 634080e7     	jalr	0x634(ra) <core::panicking::panic_null_pointer_dereference::hbac6411af4f2e916>

00000000800024ac <.Lpcrel_hi200>:
800024ac: 00006517     	auipc	a0, 0x6
800024b0: c3450513     	addi	a0, a0, -0x3cc
800024b4: 6108         	ld	a0, 0x0(a0)
800024b6: f52a         	sd	a0, 0xa8(sp)

00000000800024b8 <.Lpcrel_hi201>:
800024b8: 00006517     	auipc	a0, 0x6
800024bc: c1050513     	addi	a0, a0, -0x3f0
800024c0: e911         	bnez	a0, 0x800024d4 <.Lpcrel_hi203>
800024c2: a02d         	j	0x800024ec <.Lpcrel_hi205>

00000000800024c4 <.Lpcrel_hi202>:
800024c4: 00005517     	auipc	a0, 0x5
800024c8: b7c50513     	addi	a0, a0, -0x484
800024cc: 00003097     	auipc	ra, 0x3
800024d0: 60c080e7     	jalr	0x60c(ra) <core::panicking::panic_null_pointer_dereference::hbac6411af4f2e916>

00000000800024d4 <.Lpcrel_hi203>:
800024d4: 00006517     	auipc	a0, 0x6
800024d8: bf450513     	addi	a0, a0, -0x40c
800024dc: 6108         	ld	a0, 0x0(a0)
800024de: f92a         	sd	a0, 0xb0(sp)

00000000800024e0 <.Lpcrel_hi204>:
800024e0: 00006517     	auipc	a0, 0x6
800024e4: be050513     	addi	a0, a0, -0x420
800024e8: e911         	bnez	a0, 0x800024fc <.Lpcrel_hi206>
800024ea: a02d         	j	0x80002514 <.Lpcrel_hi208>

00000000800024ec <.Lpcrel_hi205>:
800024ec: 00005517     	auipc	a0, 0x5
800024f0: b6c50513     	addi	a0, a0, -0x494
800024f4: 00003097     	auipc	ra, 0x3
800024f8: 5e4080e7     	jalr	0x5e4(ra) <core::panicking::panic_null_pointer_dereference::hbac6411af4f2e916>

00000000800024fc <.Lpcrel_hi206>:
800024fc: 00006517     	auipc	a0, 0x6
80002500: bc450513     	addi	a0, a0, -0x43c
80002504: 6108         	ld	a0, 0x0(a0)
80002506: fd2a         	sd	a0, 0xb8(sp)

0000000080002508 <.Lpcrel_hi207>:
80002508: 00006517     	auipc	a0, 0x6
8000250c: bd050513     	addi	a0, a0, -0x430
80002510: e911         	bnez	a0, 0x80002524 <.Lpcrel_hi209>
80002512: a805         	j	0x80002542 <.Lpcrel_hi210>

0000000080002514 <.Lpcrel_hi208>:
80002514: 00005517     	auipc	a0, 0x5
80002518: b5c50513     	addi	a0, a0, -0x4a4
8000251c: 00003097     	auipc	ra, 0x3
80002520: 5bc080e7     	jalr	0x5bc(ra) <core::panicking::panic_null_pointer_dereference::hbac6411af4f2e916>

0000000080002524 <.Lpcrel_hi209>:
80002524: 00006517     	auipc	a0, 0x6
80002528: bb450513     	addi	a0, a0, -0x44c
8000252c: 6108         	ld	a0, 0x0(a0)
8000252e: e1aa         	sd	a0, 0xc0(sp)
80002530: 4501         	li	a0, 0x0
80002532: 458d         	li	a1, 0x3
80002534: ffffe097     	auipc	ra, 0xffffe
80002538: 31a080e7     	jalr	0x31a(ra) <_$LT$I$u20$as$u20$core..iter..traits..collect..IntoIterator$GT$::into_iter::h0bc23e2a2835499a>
8000253c: f32a         	sd	a0, 0x1a0(sp)
8000253e: f72e         	sd	a1, 0x1a8(sp)
80002540: a809         	j	0x80002552 <.Lpcrel_hi210+0x10>

0000000080002542 <.Lpcrel_hi210>:
80002542: 00005517     	auipc	a0, 0x5
80002546: b4650513     	addi	a0, a0, -0x4ba
8000254a: 00003097     	auipc	ra, 0x3
8000254e: 58e080e7     	jalr	0x58e(ra) <core::panicking::panic_null_pointer_dereference::hbac6411af4f2e916>
80002552: 1308         	addi	a0, sp, 0x1a0
80002554: ffffe097     	auipc	ra, 0xffffe
80002558: 2d2080e7     	jalr	0x2d2(ra) <core::iter::range::_$LT$impl$u20$core..iter..traits..iterator..Iterator$u20$for$u20$core..ops..range..Range$LT$A$GT$$GT$::next::he797165a0feca20e>
8000255c: fb2a         	sd	a0, 0x1b0(sp)
8000255e: ff2e         	sd	a1, 0x1b8(sp)
80002560: 755a         	ld	a0, 0x1b0(sp)
80002562: 8905         	andi	a0, a0, 0x1
80002564: cd01         	beqz	a0, 0x8000257c <.Lpcrel_hi210+0x3a>
80002566: a009         	j	0x80002568 <.Lpcrel_hi210+0x26>
80002568: 757a         	ld	a0, 0x1b8(sp)
8000256a: e52a         	sd	a0, 0x88(sp)
8000256c: 30a13823     	sd	a0, 0x310(sp)
80002570: 458d         	li	a1, 0x3
80002572: 862a         	mv	a2, a0
80002574: e932         	sd	a2, 0x90(sp)
80002576: 06b56c63     	bltu	a0, a1, 0x800025ee <.Lpcrel_hi214+0x10>
8000257a: a871         	j	0x80002616 <.Lpcrel_hi215+0x1a>
8000257c: 0428         	addi	a0, sp, 0x208
8000257e: 110c         	addi	a1, sp, 0xa0
80002580: 10000613     	li	a2, 0x100
80002584: 00003097     	auipc	ra, 0x3
80002588: 6de080e7     	jalr	0x6de(ra) <memcpy>
8000258c: 65ea         	ld	a1, 0x98(sp)
8000258e: 4505         	li	a0, 0x1
80002590: 00b56963     	bltu	a0, a1, 0x800025a2 <.Lpcrel_hi211+0xc>
80002594: a009         	j	0x80002596 <.Lpcrel_hi211>

0000000080002596 <.Lpcrel_hi211>:
80002596: 00006517     	auipc	a0, 0x6
8000259a: 92250513     	addi	a0, a0, -0x6de
8000259e: ed01         	bnez	a0, 0x800025b6 <.Lpcrel_hi212+0x12>
800025a0: a83d         	j	0x800025de <.Lpcrel_hi214>
800025a2: 656a         	ld	a0, 0x98(sp)

00000000800025a4 <.Lpcrel_hi212>:
800025a4: 00005597     	auipc	a1, 0x5
800025a8: afc58613     	addi	a2, a1, -0x504
800025ac: 4589         	li	a1, 0x2
800025ae: 00003097     	auipc	ra, 0x3
800025b2: 4be080e7     	jalr	0x4be(ra) <core::panicking::panic_bounds_check::h6aaee0d15e0261eb>
800025b6: 656a         	ld	a0, 0x98(sp)
800025b8: 00851593     	slli	a1, a0, 0x8

00000000800025bc <.Lpcrel_hi213>:
800025bc: 00006517     	auipc	a0, 0x6
800025c0: 8fc50513     	addi	a0, a0, -0x704
800025c4: 952e         	add	a0, a0, a1
800025c6: 042c         	addi	a1, sp, 0x208
800025c8: 10000613     	li	a2, 0x100
800025cc: 00003097     	auipc	ra, 0x3
800025d0: 696080e7     	jalr	0x696(ra) <memcpy>
800025d4: 31813083     	ld	ra, 0x318(sp)
800025d8: 32010113     	addi	sp, sp, 0x320
800025dc: 8082         	ret

00000000800025de <.Lpcrel_hi214>:
800025de: 00005517     	auipc	a0, 0x5
800025e2: ac250513     	addi	a0, a0, -0x53e
800025e6: 00003097     	auipc	ra, 0x3
800025ea: 4f2080e7     	jalr	0x4f2(ra) <core::panicking::panic_null_pointer_dereference::hbac6411af4f2e916>
800025ee: 652a         	ld	a0, 0x88(sp)
800025f0: 00451613     	slli	a2, a0, 0x4
800025f4: 00651593     	slli	a1, a0, 0x6
800025f8: 40c58633     	sub	a2, a1, a2

00000000800025fc <.Lpcrel_hi215>:
800025fc: 00005597     	auipc	a1, 0x5
80002600: 0ac58593     	addi	a1, a1, 0xac
80002604: 95b2         	add	a1, a1, a2
80002606: 6d8c         	ld	a1, 0x18(a1)
80002608: fcae         	sd	a1, 0x78(sp)
8000260a: 458d         	li	a1, 0x3
8000260c: 862a         	mv	a2, a0
8000260e: e132         	sd	a2, 0x80(sp)
80002610: 00b56d63     	bltu	a0, a1, 0x8000262a <.Lpcrel_hi216+0x12>
80002614: a83d         	j	0x80002652 <.Lpcrel_hi217+0x1a>
80002616: 654a         	ld	a0, 0x90(sp)

0000000080002618 <.Lpcrel_hi216>:
80002618: 00005597     	auipc	a1, 0x5
8000261c: aa058613     	addi	a2, a1, -0x560
80002620: 458d         	li	a1, 0x3
80002622: 00003097     	auipc	ra, 0x3
80002626: 44a080e7     	jalr	0x44a(ra) <core::panicking::panic_bounds_check::h6aaee0d15e0261eb>
8000262a: 652a         	ld	a0, 0x88(sp)
8000262c: 00451613     	slli	a2, a0, 0x4
80002630: 00651593     	slli	a1, a0, 0x6
80002634: 40c58633     	sub	a2, a1, a2

0000000080002638 <.Lpcrel_hi217>:
80002638: 00005597     	auipc	a1, 0x5
8000263c: 07058593     	addi	a1, a1, 0x70
80002640: 95b2         	add	a1, a1, a2
80002642: 718c         	ld	a1, 0x20(a1)
80002644: f4ae         	sd	a1, 0x68(sp)
80002646: 458d         	li	a1, 0x3
80002648: 862a         	mv	a2, a0
8000264a: f8b2         	sd	a2, 0x70(sp)
8000264c: 00b56d63     	bltu	a0, a1, 0x80002666 <.Lpcrel_hi219>
80002650: a00d         	j	0x80002672 <.Lpcrel_hi219+0xc>
80002652: 650a         	ld	a0, 0x80(sp)

0000000080002654 <.Lpcrel_hi218>:
80002654: 00005597     	auipc	a1, 0x5
80002658: a7c58613     	addi	a2, a1, -0x584
8000265c: 458d         	li	a1, 0x3
8000265e: 00003097     	auipc	ra, 0x3
80002662: 40e080e7     	jalr	0x40e(ra) <core::panicking::panic_bounds_check::h6aaee0d15e0261eb>

0000000080002666 <.Lpcrel_hi219>:
80002666: 00006517     	auipc	a0, 0x6
8000266a: a8250513     	addi	a0, a0, -0x57e
8000266e: ed01         	bnez	a0, 0x80002686 <.Lpcrel_hi220+0x12>
80002670: a835         	j	0x800026ac <.Lpcrel_hi222>
80002672: 7546         	ld	a0, 0x70(sp)

0000000080002674 <.Lpcrel_hi220>:
80002674: 00005597     	auipc	a1, 0x5
80002678: a7458613     	addi	a2, a1, -0x58c
8000267c: 458d         	li	a1, 0x3
8000267e: 00003097     	auipc	ra, 0x3
80002682: 3ee080e7     	jalr	0x3ee(ra) <core::panicking::panic_bounds_check::h6aaee0d15e0261eb>
80002686: 652a         	ld	a0, 0x88(sp)
80002688: 25800593     	li	a1, 0x258
8000268c: 02b50633     	mul	a2, a0, a1

0000000080002690 <.Lpcrel_hi221>:
80002690: 00006597     	auipc	a1, 0x6
80002694: a5858593     	addi	a1, a1, -0x5a8
80002698: 95b2         	add	a1, a1, a2
8000269a: 2185b583     	ld	a1, 0x218(a1)
8000269e: ecae         	sd	a1, 0x58(sp)
800026a0: 458d         	li	a1, 0x3
800026a2: 862a         	mv	a2, a0
800026a4: f0b2         	sd	a2, 0x60(sp)
800026a6: 00b56b63     	bltu	a0, a1, 0x800026bc <.Lpcrel_hi223>
800026aa: a839         	j	0x800026c8 <.Lpcrel_hi223+0xc>

00000000800026ac <.Lpcrel_hi222>:
800026ac: 00005517     	auipc	a0, 0x5
800026b0: a3c50513     	addi	a0, a0, -0x5c4
800026b4: 00003097     	auipc	ra, 0x3
800026b8: 424080e7     	jalr	0x424(ra) <core::panicking::panic_null_pointer_dereference::hbac6411af4f2e916>

00000000800026bc <.Lpcrel_hi223>:
800026bc: 00006517     	auipc	a0, 0x6
800026c0: a2c50513     	addi	a0, a0, -0x5d4
800026c4: ed01         	bnez	a0, 0x800026dc <.Lpcrel_hi224+0x12>
800026c6: a835         	j	0x80002702 <.Lpcrel_hi226>
800026c8: 7506         	ld	a0, 0x60(sp)

00000000800026ca <.Lpcrel_hi224>:
800026ca: 00005597     	auipc	a1, 0x5
800026ce: a3658613     	addi	a2, a1, -0x5ca
800026d2: 458d         	li	a1, 0x3
800026d4: 00003097     	auipc	ra, 0x3
800026d8: 398080e7     	jalr	0x398(ra) <core::panicking::panic_bounds_check::h6aaee0d15e0261eb>
800026dc: 652a         	ld	a0, 0x88(sp)
800026de: 25800593     	li	a1, 0x258
800026e2: 02b50633     	mul	a2, a0, a1

00000000800026e6 <.Lpcrel_hi225>:
800026e6: 00006597     	auipc	a1, 0x6
800026ea: a0258593     	addi	a1, a1, -0x5fe
800026ee: 95b2         	add	a1, a1, a2
800026f0: 2205b583     	ld	a1, 0x220(a1)
800026f4: e4ae         	sd	a1, 0x48(sp)
800026f6: 458d         	li	a1, 0x3
800026f8: 862a         	mv	a2, a0
800026fa: e8b2         	sd	a2, 0x50(sp)
800026fc: 00b56b63     	bltu	a0, a1, 0x80002712 <.Lpcrel_hi227>
80002700: a839         	j	0x8000271e <.Lpcrel_hi227+0xc>

0000000080002702 <.Lpcrel_hi226>:
80002702: 00005517     	auipc	a0, 0x5
80002706: 9fe50513     	addi	a0, a0, -0x602
8000270a: 00003097     	auipc	ra, 0x3
8000270e: 3ce080e7     	jalr	0x3ce(ra) <core::panicking::panic_null_pointer_dereference::hbac6411af4f2e916>

0000000080002712 <.Lpcrel_hi227>:
80002712: 00006517     	auipc	a0, 0x6
80002716: 9d650513     	addi	a0, a0, -0x62a
8000271a: ed01         	bnez	a0, 0x80002732 <.Lpcrel_hi228+0x12>
8000271c: a835         	j	0x80002758 <.Lpcrel_hi230>
8000271e: 6546         	ld	a0, 0x50(sp)

0000000080002720 <.Lpcrel_hi228>:
80002720: 00005597     	auipc	a1, 0x5
80002724: 9f858613     	addi	a2, a1, -0x608
80002728: 458d         	li	a1, 0x3
8000272a: 00003097     	auipc	ra, 0x3
8000272e: 342080e7     	jalr	0x342(ra) <core::panicking::panic_bounds_check::h6aaee0d15e0261eb>
80002732: 652a         	ld	a0, 0x88(sp)
80002734: 25800593     	li	a1, 0x258
80002738: 02b50633     	mul	a2, a0, a1

000000008000273c <.Lpcrel_hi229>:
8000273c: 00006597     	auipc	a1, 0x6
80002740: 9ac58593     	addi	a1, a1, -0x654
80002744: 95b2         	add	a1, a1, a2
80002746: 2305b583     	ld	a1, 0x230(a1)
8000274a: fc2e         	sd	a1, 0x38(sp)
8000274c: 458d         	li	a1, 0x3
8000274e: 862a         	mv	a2, a0
80002750: e0b2         	sd	a2, 0x40(sp)
80002752: 00b56b63     	bltu	a0, a1, 0x80002768 <.Lpcrel_hi231>
80002756: a839         	j	0x80002774 <.Lpcrel_hi231+0xc>

0000000080002758 <.Lpcrel_hi230>:
80002758: 00005517     	auipc	a0, 0x5
8000275c: 9c050513     	addi	a0, a0, -0x640
80002760: 00003097     	auipc	ra, 0x3
80002764: 378080e7     	jalr	0x378(ra) <core::panicking::panic_null_pointer_dereference::hbac6411af4f2e916>

0000000080002768 <.Lpcrel_hi231>:
80002768: 00006517     	auipc	a0, 0x6
8000276c: 98050513     	addi	a0, a0, -0x680
80002770: ed01         	bnez	a0, 0x80002788 <.Lpcrel_hi232+0x12>
80002772: a835         	j	0x800027ae <.Lpcrel_hi234>
80002774: 6506         	ld	a0, 0x40(sp)

0000000080002776 <.Lpcrel_hi232>:
80002776: 00005597     	auipc	a1, 0x5
8000277a: 9ba58613     	addi	a2, a1, -0x646
8000277e: 458d         	li	a1, 0x3
80002780: 00003097     	auipc	ra, 0x3
80002784: 2ec080e7     	jalr	0x2ec(ra) <core::panicking::panic_bounds_check::h6aaee0d15e0261eb>
80002788: 652a         	ld	a0, 0x88(sp)
8000278a: 25800593     	li	a1, 0x258
8000278e: 02b50633     	mul	a2, a0, a1

0000000080002792 <.Lpcrel_hi233>:
80002792: 00006597     	auipc	a1, 0x6
80002796: 95658593     	addi	a1, a1, -0x6aa
8000279a: 95b2         	add	a1, a1, a2
8000279c: 2385b583     	ld	a1, 0x238(a1)
800027a0: f42e         	sd	a1, 0x28(sp)
800027a2: 458d         	li	a1, 0x3
800027a4: 862a         	mv	a2, a0
800027a6: f832         	sd	a2, 0x30(sp)
800027a8: 00b56b63     	bltu	a0, a1, 0x800027be <.Lpcrel_hi235>
800027ac: a839         	j	0x800027ca <.Lpcrel_hi235+0xc>

00000000800027ae <.Lpcrel_hi234>:
800027ae: 00005517     	auipc	a0, 0x5
800027b2: 98250513     	addi	a0, a0, -0x67e
800027b6: 00003097     	auipc	ra, 0x3
800027ba: 322080e7     	jalr	0x322(ra) <core::panicking::panic_null_pointer_dereference::hbac6411af4f2e916>

00000000800027be <.Lpcrel_hi235>:
800027be: 00006517     	auipc	a0, 0x6
800027c2: 92a50513     	addi	a0, a0, -0x6d6
800027c6: ed01         	bnez	a0, 0x800027de <.Lpcrel_hi236+0x12>
800027c8: a835         	j	0x80002804 <.Lpcrel_hi238>
800027ca: 7542         	ld	a0, 0x30(sp)

00000000800027cc <.Lpcrel_hi236>:
800027cc: 00005597     	auipc	a1, 0x5
800027d0: 97c58613     	addi	a2, a1, -0x684
800027d4: 458d         	li	a1, 0x3
800027d6: 00003097     	auipc	ra, 0x3
800027da: 296080e7     	jalr	0x296(ra) <core::panicking::panic_bounds_check::h6aaee0d15e0261eb>
800027de: 652a         	ld	a0, 0x88(sp)
800027e0: 25800593     	li	a1, 0x258
800027e4: 02b50633     	mul	a2, a0, a1

00000000800027e8 <.Lpcrel_hi237>:
800027e8: 00006597     	auipc	a1, 0x6
800027ec: 90058593     	addi	a1, a1, -0x700
800027f0: 95b2         	add	a1, a1, a2
800027f2: 2405b583     	ld	a1, 0x240(a1)
800027f6: ec2e         	sd	a1, 0x18(sp)
800027f8: 458d         	li	a1, 0x3
800027fa: 862a         	mv	a2, a0
800027fc: f032         	sd	a2, 0x20(sp)
800027fe: 00b56b63     	bltu	a0, a1, 0x80002814 <.Lpcrel_hi239>
80002802: a839         	j	0x80002820 <.Lpcrel_hi239+0xc>

0000000080002804 <.Lpcrel_hi238>:
80002804: 00005517     	auipc	a0, 0x5
80002808: 94450513     	addi	a0, a0, -0x6bc
8000280c: 00003097     	auipc	ra, 0x3
80002810: 2cc080e7     	jalr	0x2cc(ra) <core::panicking::panic_null_pointer_dereference::hbac6411af4f2e916>

0000000080002814 <.Lpcrel_hi239>:
80002814: 00006517     	auipc	a0, 0x6
80002818: 8d450513     	addi	a0, a0, -0x72c
8000281c: ed01         	bnez	a0, 0x80002834 <.Lpcrel_hi240+0x12>
8000281e: a835         	j	0x8000285a <.Lpcrel_hi242>
80002820: 7502         	ld	a0, 0x20(sp)

0000000080002822 <.Lpcrel_hi240>:
80002822: 00005597     	auipc	a1, 0x5
80002826: 93e58613     	addi	a2, a1, -0x6c2
8000282a: 458d         	li	a1, 0x3
8000282c: 00003097     	auipc	ra, 0x3
80002830: 240080e7     	jalr	0x240(ra) <core::panicking::panic_bounds_check::h6aaee0d15e0261eb>
80002834: 652a         	ld	a0, 0x88(sp)
80002836: 25800593     	li	a1, 0x258
8000283a: 02b50633     	mul	a2, a0, a1

000000008000283e <.Lpcrel_hi241>:
8000283e: 00006597     	auipc	a1, 0x6
80002842: 8aa58593     	addi	a1, a1, -0x756
80002846: 95b2         	add	a1, a1, a2
80002848: 2485b583     	ld	a1, 0x248(a1)
8000284c: e42e         	sd	a1, 0x8(sp)
8000284e: 458d         	li	a1, 0x3
80002850: 862a         	mv	a2, a0
80002852: e832         	sd	a2, 0x10(sp)
80002854: 00b56b63     	bltu	a0, a1, 0x8000286a <.Lpcrel_hi243>
80002858: a839         	j	0x80002876 <.Lpcrel_hi243+0xc>

000000008000285a <.Lpcrel_hi242>:
8000285a: 00005517     	auipc	a0, 0x5
8000285e: 90650513     	addi	a0, a0, -0x6fa
80002862: 00003097     	auipc	ra, 0x3
80002866: 276080e7     	jalr	0x276(ra) <core::panicking::panic_null_pointer_dereference::hbac6411af4f2e916>

000000008000286a <.Lpcrel_hi243>:
8000286a: 00006517     	auipc	a0, 0x6
8000286e: 87e50513     	addi	a0, a0, -0x782
80002872: ed01         	bnez	a0, 0x8000288a <.Lpcrel_hi244+0x12>
80002874: a8b9         	j	0x800028d2 <.Lpcrel_hi246>
80002876: 6542         	ld	a0, 0x10(sp)

0000000080002878 <.Lpcrel_hi244>:
80002878: 00005597     	auipc	a1, 0x5
8000287c: 90058613     	addi	a2, a1, -0x700
80002880: 458d         	li	a1, 0x3
80002882: 00003097     	auipc	ra, 0x3
80002886: 1ea080e7     	jalr	0x1ea(ra) <core::panicking::panic_bounds_check::h6aaee0d15e0261eb>
8000288a: 652a         	ld	a0, 0x88(sp)
8000288c: 6622         	ld	a2, 0x8(sp)
8000288e: 66e2         	ld	a3, 0x18(sp)
80002890: 7722         	ld	a4, 0x28(sp)
80002892: 77e2         	ld	a5, 0x38(sp)
80002894: 6826         	ld	a6, 0x48(sp)
80002896: 68e6         	ld	a7, 0x58(sp)
80002898: 72a6         	ld	t0, 0x68(sp)
8000289a: 7366         	ld	t1, 0x78(sp)
8000289c: 25800593     	li	a1, 0x258
800028a0: 02b503b3     	mul	t2, a0, a1

00000000800028a4 <.Lpcrel_hi245>:
800028a4: 00006597     	auipc	a1, 0x6
800028a8: 84458593     	addi	a1, a1, -0x7bc
800028ac: 959e         	add	a1, a1, t2
800028ae: 2105b583     	ld	a1, 0x210(a1)
800028b2: e39a         	sd	t1, 0x1c0(sp)
800028b4: e796         	sd	t0, 0x1c8(sp)
800028b6: ebc6         	sd	a7, 0x1d0(sp)
800028b8: efc2         	sd	a6, 0x1d8(sp)
800028ba: f3be         	sd	a5, 0x1e0(sp)
800028bc: f7ba         	sd	a4, 0x1e8(sp)
800028be: fbb6         	sd	a3, 0x1f0(sp)
800028c0: ffb2         	sd	a2, 0x1f8(sp)
800028c2: 20b13023     	sd	a1, 0x200(sp)
800028c6: 458d         	li	a1, 0x3
800028c8: 862a         	mv	a2, a0
800028ca: e032         	sd	a2, 0x0(sp)
800028cc: 00b56b63     	bltu	a0, a1, 0x800028e2 <.Lpcrel_hi246+0x10>
800028d0: a815         	j	0x80002904 <.Lpcrel_hi246+0x32>

00000000800028d2 <.Lpcrel_hi246>:
800028d2: 00005517     	auipc	a0, 0x5
800028d6: 8a650513     	addi	a0, a0, -0x75a
800028da: 00003097     	auipc	ra, 0x3
800028de: 1fe080e7     	jalr	0x1fe(ra) <core::panicking::panic_null_pointer_dereference::hbac6411af4f2e916>
800028e2: 652a         	ld	a0, 0x88(sp)
800028e4: 00351593     	slli	a1, a0, 0x3
800028e8: 051a         	slli	a0, a0, 0x6
800028ea: 95aa         	add	a1, a1, a0
800028ec: 1108         	addi	a0, sp, 0xa0
800028ee: 952e         	add	a0, a0, a1
800028f0: 02850513     	addi	a0, a0, 0x28
800028f4: 038c         	addi	a1, sp, 0x1c0
800028f6: 04800613     	li	a2, 0x48
800028fa: 00003097     	auipc	ra, 0x3
800028fe: 368080e7     	jalr	0x368(ra) <memcpy>
80002902: b981         	j	0x80002552 <.Lpcrel_hi210+0x10>
80002904: 6502         	ld	a0, 0x0(sp)

0000000080002906 <.Lpcrel_hi247>:
80002906: 00005597     	auipc	a1, 0x5
8000290a: 88a58613     	addi	a2, a1, -0x776
8000290e: 458d         	li	a1, 0x3
80002910: 00003097     	auipc	ra, 0x3
80002914: 15c080e7     	jalr	0x15c(ra) <core::panicking::panic_bounds_check::h6aaee0d15e0261eb>

0000000080002918 <lab5_kernel_task2::build_initial_frame::hf2fd58862e14e286>:
80002918: dd010113     	addi	sp, sp, -0x230
8000291c: 22113423     	sd	ra, 0x228(sp)
80002920: e42e         	sd	a1, 0x8(sp)
80002922: e02a         	sd	a0, 0x0(sp)
80002924: 22b13023     	sd	a1, 0x220(sp)
80002928: 0808         	addi	a0, sp, 0x10
8000292a: ffffe097     	auipc	ra, 0xffffe
8000292e: c4e080e7     	jalr	-0x3b2(ra) <lab5_kernel_task2::trap::TrapFrame::zeroed::he93831fb0103f5e3>
80002932: 00001097     	auipc	ra, 0x1
80002936: 5ca080e7     	jalr	0x5ca(ra) <lab5_kernel_task2::read_gp::h488f8cfb94c97023>
8000293a: ec2a         	sd	a0, 0x18(sp)
8000293c: 00001097     	auipc	ra, 0x1
80002940: 5cc080e7     	jalr	0x5cc(ra) <lab5_kernel_task2::read_tp::h7c945bc2a624f6ee>
80002944: 85aa         	mv	a1, a0
80002946: 6522         	ld	a0, 0x8(sp)
80002948: f02e         	sd	a1, 0x20(sp)
8000294a: fffff097     	auipc	ra, 0xfffff
8000294e: 1c8080e7     	jalr	0x1c8(ra) <lab5_kernel_task2::user_stack_top::h02f0434618e83641>
80002952: 65a2         	ld	a1, 0x8(sp)
80002954: e22a         	sd	a0, 0x100(sp)
80002956: 4509         	li	a0, 0x2
80002958: 02b56d63     	bltu	a0, a1, 0x80002992 <.Lpcrel_hi248+0x26>
8000295c: a009         	j	0x8000295e <lab5_kernel_task2::build_initial_frame::hf2fd58862e14e286+0x46>
8000295e: 6502         	ld	a0, 0x0(sp)
80002960: 65a2         	ld	a1, 0x8(sp)
80002962: 00459613     	slli	a2, a1, 0x4
80002966: 059a         	slli	a1, a1, 0x6
80002968: 40c58633     	sub	a2, a1, a2

000000008000296c <.Lpcrel_hi248>:
8000296c: 00005597     	auipc	a1, 0x5
80002970: d3c58593     	addi	a1, a1, -0x2c4
80002974: 95b2         	add	a1, a1, a2
80002976: 698c         	ld	a1, 0x10(a1)
80002978: e62e         	sd	a1, 0x108(sp)
8000297a: 080c         	addi	a1, sp, 0x10
8000297c: 21000613     	li	a2, 0x210
80002980: 00003097     	auipc	ra, 0x3
80002984: 2e2080e7     	jalr	0x2e2(ra) <memcpy>
80002988: 22813083     	ld	ra, 0x228(sp)
8000298c: 23010113     	addi	sp, sp, 0x230
80002990: 8082         	ret
80002992: 6522         	ld	a0, 0x8(sp)

0000000080002994 <.Lpcrel_hi249>:
80002994: 00005597     	auipc	a1, 0x5
80002998: 81458613     	addi	a2, a1, -0x7ec
8000299c: 458d         	li	a1, 0x3
8000299e: 00003097     	auipc	ra, 0x3
800029a2: 0ce080e7     	jalr	0xce(ra) <core::panicking::panic_bounds_check::h6aaee0d15e0261eb>

00000000800029a6 <lab5_kernel_task2::choose_initial_task::hc273446c60600b56>:
800029a6: 1141         	addi	sp, sp, -0x10
800029a8: e406         	sd	ra, 0x8(sp)
800029aa: fffff097     	auipc	ra, 0xfffff
800029ae: 034080e7     	jalr	0x34(ra) <lab5_kernel_task2::current_policy::hf87e29c046b13f0e>
800029b2: c901         	beqz	a0, 0x800029c2 <lab5_kernel_task2::choose_initial_task::hc273446c60600b56+0x1c>
800029b4: a009         	j	0x800029b6 <lab5_kernel_task2::choose_initial_task::hc273446c60600b56+0x10>
800029b6: 00001097     	auipc	ra, 0x1
800029ba: 0fc080e7     	jalr	0xfc(ra) <lab5_kernel_task2::choose_initial_priority_task::h7fd320a1dcf5ee6e>
800029be: e02a         	sd	a0, 0x0(sp)
800029c0: a021         	j	0x800029c8 <lab5_kernel_task2::choose_initial_task::hc273446c60600b56+0x22>
800029c2: 4501         	li	a0, 0x0
800029c4: e02a         	sd	a0, 0x0(sp)
800029c6: a009         	j	0x800029c8 <lab5_kernel_task2::choose_initial_task::hc273446c60600b56+0x22>
800029c8: 6502         	ld	a0, 0x0(sp)
800029ca: 60a2         	ld	ra, 0x8(sp)
800029cc: 0141         	addi	sp, sp, 0x10
800029ce: 8082         	ret

00000000800029d0 <lab5_kernel_task2::log_initial_restore::hdf5ac582c2d45761>:
800029d0: 7109         	addi	sp, sp, -0x180
800029d2: fe86         	sd	ra, 0x178(sp)
800029d4: ec2a         	sd	a0, 0x18(sp)
800029d6: faaa         	sd	a0, 0x170(sp)
800029d8: fffff097     	auipc	ra, 0xfffff
800029dc: 006080e7     	jalr	0x6(ra) <lab5_kernel_task2::current_policy::hf87e29c046b13f0e>
800029e0: fffff097     	auipc	ra, 0xfffff
800029e4: 184080e7     	jalr	0x184(ra) <lab5_kernel_task2::SchedulerPolicy::as_str::h915765f6c5b41e46>
800029e8: 862a         	mv	a2, a0
800029ea: 852e         	mv	a0, a1
800029ec: 65e2         	ld	a1, 0x18(sp)
800029ee: ecb2         	sd	a2, 0x58(sp)
800029f0: f0aa         	sd	a0, 0x60(sp)
800029f2: 4509         	li	a0, 0x2
800029f4: 02b56563     	bltu	a0, a1, 0x80002a1e <.Lpcrel_hi250+0x16>
800029f8: a009         	j	0x800029fa <lab5_kernel_task2::log_initial_restore::hdf5ac582c2d45761+0x2a>
800029fa: 6562         	ld	a0, 0x18(sp)
800029fc: 00451613     	slli	a2, a0, 0x4
80002a00: 00651593     	slli	a1, a0, 0x6
80002a04: 40c58633     	sub	a2, a1, a2

0000000080002a08 <.Lpcrel_hi250>:
80002a08: 00005597     	auipc	a1, 0x5
80002a0c: ca058593     	addi	a1, a1, -0x360
80002a10: 95b2         	add	a1, a1, a2
80002a12: 05e1         	addi	a1, a1, 0x18
80002a14: e82e         	sd	a1, 0x10(sp)
80002a16: 458d         	li	a1, 0x3
80002a18: 00b56d63     	bltu	a0, a1, 0x80002a32 <.Lpcrel_hi251+0x12>
80002a1c: a825         	j	0x80002a54 <.Lpcrel_hi252+0x14>
80002a1e: 6562         	ld	a0, 0x18(sp)

0000000080002a20 <.Lpcrel_hi251>:
80002a20: 00004597     	auipc	a1, 0x4
80002a24: 7a058613     	addi	a2, a1, 0x7a0
80002a28: 458d         	li	a1, 0x3
80002a2a: 00003097     	auipc	ra, 0x3
80002a2e: 042080e7     	jalr	0x42(ra) <core::panicking::panic_bounds_check::h6aaee0d15e0261eb>
80002a32: 6562         	ld	a0, 0x18(sp)
80002a34: 00451613     	slli	a2, a0, 0x4
80002a38: 00651593     	slli	a1, a0, 0x6
80002a3c: 40c58633     	sub	a2, a1, a2

0000000080002a40 <.Lpcrel_hi252>:
80002a40: 00005597     	auipc	a1, 0x5
80002a44: c6858593     	addi	a1, a1, -0x398
80002a48: 95b2         	add	a1, a1, a2
80002a4a: e42e         	sd	a1, 0x8(sp)
80002a4c: 458d         	li	a1, 0x3
80002a4e: 00b56d63     	bltu	a0, a1, 0x80002a68 <.Lpcrel_hi253+0x12>
80002a52: a0a1         	j	0x80002a9a <.Lpcrel_hi254+0x26>
80002a54: 6562         	ld	a0, 0x18(sp)

0000000080002a56 <.Lpcrel_hi253>:
80002a56: 00004597     	auipc	a1, 0x4
80002a5a: 78258613     	addi	a2, a1, 0x782
80002a5e: 458d         	li	a1, 0x3
80002a60: 00003097     	auipc	ra, 0x3
80002a64: 00c080e7     	jalr	0xc(ra) <core::panicking::panic_bounds_check::h6aaee0d15e0261eb>
80002a68: 6562         	ld	a0, 0x18(sp)
80002a6a: 00451593     	slli	a1, a0, 0x4
80002a6e: 051a         	slli	a0, a0, 0x6
80002a70: 40b505b3     	sub	a1, a0, a1

0000000080002a74 <.Lpcrel_hi254>:
80002a74: 00005517     	auipc	a0, 0x5
80002a78: c3450513     	addi	a0, a0, -0x3cc
80002a7c: 952e         	add	a0, a0, a1
80002a7e: 02854503     	lbu	a0, 0x28(a0)
80002a82: 00001097     	auipc	ra, 0x1
80002a86: 518080e7     	jalr	0x518(ra) <lab5_kernel_task2::TaskClass::as_str::h4a7e24ec9f51864f>
80002a8a: 862a         	mv	a2, a0
80002a8c: 6562         	ld	a0, 0x18(sp)
80002a8e: f4b2         	sd	a2, 0x68(sp)
80002a90: f8ae         	sd	a1, 0x70(sp)
80002a92: 458d         	li	a1, 0x3
80002a94: 00b56d63     	bltu	a0, a1, 0x80002aae <.Lpcrel_hi255+0x12>
80002a98: a0b1         	j	0x80002ae4 <.Lpcrel_hi256+0x2a>
80002a9a: 6562         	ld	a0, 0x18(sp)

0000000080002a9c <.Lpcrel_hi255>:
80002a9c: 00004597     	auipc	a1, 0x4
80002aa0: 75458613     	addi	a2, a1, 0x754
80002aa4: 458d         	li	a1, 0x3
80002aa6: 00003097     	auipc	ra, 0x3
80002aaa: fc6080e7     	jalr	-0x3a(ra) <core::panicking::panic_bounds_check::h6aaee0d15e0261eb>
80002aae: 6562         	ld	a0, 0x18(sp)
80002ab0: 00451593     	slli	a1, a0, 0x4
80002ab4: 051a         	slli	a0, a0, 0x6
80002ab6: 40b505b3     	sub	a1, a0, a1

0000000080002aba <.Lpcrel_hi256>:
80002aba: 00005517     	auipc	a0, 0x5
80002abe: bee50513     	addi	a0, a0, -0x412
80002ac2: 952e         	add	a0, a0, a1
80002ac4: 02050513     	addi	a0, a0, 0x20
80002ac8: e02a         	sd	a0, 0x0(sp)
80002aca: 4501         	li	a0, 0x0
80002acc: ffffe097     	auipc	ra, 0xffffe
80002ad0: 6fe080e7     	jalr	0x6fe(ra) <lab5_kernel_task2::SwitchReason::as_str::h6c698df78caa931f>
80002ad4: 862a         	mv	a2, a0
80002ad6: 6562         	ld	a0, 0x18(sp)
80002ad8: fcb2         	sd	a2, 0x78(sp)
80002ada: e12e         	sd	a1, 0x80(sp)
80002adc: 458d         	li	a1, 0x3
80002ade: 00b56d63     	bltu	a0, a1, 0x80002af8 <.Lpcrel_hi258>
80002ae2: a00d         	j	0x80002b04 <.Lpcrel_hi258+0xc>
80002ae4: 6562         	ld	a0, 0x18(sp)

0000000080002ae6 <.Lpcrel_hi257>:
80002ae6: 00004597     	auipc	a1, 0x4
80002aea: 72258613     	addi	a2, a1, 0x722
80002aee: 458d         	li	a1, 0x3
80002af0: 00003097     	auipc	ra, 0x3
80002af4: f7c080e7     	jalr	-0x84(ra) <core::panicking::panic_bounds_check::h6aaee0d15e0261eb>

0000000080002af8 <.Lpcrel_hi258>:
80002af8: 00005517     	auipc	a0, 0x5
80002afc: 5f050513     	addi	a0, a0, 0x5f0
80002b00: ed01         	bnez	a0, 0x80002b18 <.Lpcrel_hi259+0x12>
80002b02: a8dd         	j	0x80002bf8 <.Lpcrel_hi262>
80002b04: 6562         	ld	a0, 0x18(sp)

0000000080002b06 <.Lpcrel_hi259>:
80002b06: 00004597     	auipc	a1, 0x4
80002b0a: 71a58613     	addi	a2, a1, 0x71a
80002b0e: 458d         	li	a1, 0x3
80002b10: 00003097     	auipc	ra, 0x3
80002b14: f5c080e7     	jalr	-0xa4(ra) <core::panicking::panic_bounds_check::h6aaee0d15e0261eb>
80002b18: 6502         	ld	a0, 0x0(sp)
80002b1a: 65a2         	ld	a1, 0x8(sp)
80002b1c: 6642         	ld	a2, 0x10(sp)
80002b1e: 66e2         	ld	a3, 0x18(sp)
80002b20: 25800713     	li	a4, 0x258
80002b24: 02e68733     	mul	a4, a3, a4

0000000080002b28 <.Lpcrel_hi260>:
80002b28: 00005697     	auipc	a3, 0x5
80002b2c: 5c068693     	addi	a3, a3, 0x5c0
80002b30: 96ba         	add	a3, a3, a4
80002b32: 7ef4         	ld	a3, 0xf8(a3)
80002b34: e536         	sd	a3, 0x88(sp)
80002b36: 08b4         	addi	a3, sp, 0x58
80002b38: f036         	sd	a3, 0x20(sp)
80002b3a: f432         	sd	a2, 0x28(sp)
80002b3c: f82e         	sd	a1, 0x30(sp)
80002b3e: 10ac         	addi	a1, sp, 0x68
80002b40: fc2e         	sd	a1, 0x38(sp)
80002b42: e0aa         	sd	a0, 0x40(sp)
80002b44: 18a8         	addi	a0, sp, 0x78
80002b46: e4aa         	sd	a0, 0x48(sp)
80002b48: 0128         	addi	a0, sp, 0x88
80002b4a: e8aa         	sd	a0, 0x50(sp)
80002b4c: 7582         	ld	a1, 0x20(sp)
80002b4e: 0208         	addi	a0, sp, 0x100
80002b50: ffffd097     	auipc	ra, 0xffffd
80002b54: 7a4080e7     	jalr	0x7a4(ra) <core::fmt::rt::Argument::new_display::hdf5d30e07b2a6dbf>
80002b58: 75a2         	ld	a1, 0x28(sp)
80002b5a: 0a08         	addi	a0, sp, 0x110
80002b5c: ffffd097     	auipc	ra, 0xffffd
80002b60: 732080e7     	jalr	0x732(ra) <core::fmt::rt::Argument::new_display::h52645e11b6055522>
80002b64: 75c2         	ld	a1, 0x30(sp)
80002b66: 1208         	addi	a0, sp, 0x120
80002b68: ffffd097     	auipc	ra, 0xffffd
80002b6c: 78c080e7     	jalr	0x78c(ra) <core::fmt::rt::Argument::new_display::hdf5d30e07b2a6dbf>
80002b70: 75e2         	ld	a1, 0x38(sp)
80002b72: 1a08         	addi	a0, sp, 0x130
80002b74: ffffd097     	auipc	ra, 0xffffd
80002b78: 780080e7     	jalr	0x780(ra) <core::fmt::rt::Argument::new_display::hdf5d30e07b2a6dbf>
80002b7c: 6586         	ld	a1, 0x40(sp)
80002b7e: 0288         	addi	a0, sp, 0x140
80002b80: ffffd097     	auipc	ra, 0xffffd
80002b84: 6ec080e7     	jalr	0x6ec(ra) <core::fmt::rt::Argument::new_display::h009018ea15ddc750>
80002b88: 65a6         	ld	a1, 0x48(sp)
80002b8a: 0a88         	addi	a0, sp, 0x150
80002b8c: ffffd097     	auipc	ra, 0xffffd
80002b90: 768080e7     	jalr	0x768(ra) <core::fmt::rt::Argument::new_display::hdf5d30e07b2a6dbf>
80002b94: 65c6         	ld	a1, 0x50(sp)
80002b96: 1288         	addi	a0, sp, 0x160
80002b98: ffffd097     	auipc	ra, 0xffffd
80002b9c: 7a0080e7     	jalr	0x7a0(ra) <core::fmt::rt::Argument::new_lower_hex::hef62858e56d66e45>
80002ba0: 6532         	ld	a0, 0x108(sp)
80002ba2: ed2a         	sd	a0, 0x98(sp)
80002ba4: 6512         	ld	a0, 0x100(sp)
80002ba6: e92a         	sd	a0, 0x90(sp)
80002ba8: 6572         	ld	a0, 0x118(sp)
80002baa: f52a         	sd	a0, 0xa8(sp)
80002bac: 6552         	ld	a0, 0x110(sp)
80002bae: f12a         	sd	a0, 0xa0(sp)
80002bb0: 7532         	ld	a0, 0x128(sp)
80002bb2: fd2a         	sd	a0, 0xb8(sp)
80002bb4: 7512         	ld	a0, 0x120(sp)
80002bb6: f92a         	sd	a0, 0xb0(sp)
80002bb8: 7572         	ld	a0, 0x138(sp)
80002bba: e5aa         	sd	a0, 0xc8(sp)
80002bbc: 7552         	ld	a0, 0x130(sp)
80002bbe: e1aa         	sd	a0, 0xc0(sp)
80002bc0: 6536         	ld	a0, 0x148(sp)
80002bc2: edaa         	sd	a0, 0xd8(sp)
80002bc4: 6516         	ld	a0, 0x140(sp)
80002bc6: e9aa         	sd	a0, 0xd0(sp)
80002bc8: 6576         	ld	a0, 0x158(sp)
80002bca: f5aa         	sd	a0, 0xe8(sp)
80002bcc: 6556         	ld	a0, 0x150(sp)
80002bce: f1aa         	sd	a0, 0xe0(sp)
80002bd0: 7536         	ld	a0, 0x168(sp)
80002bd2: fdaa         	sd	a0, 0xf8(sp)
80002bd4: 7516         	ld	a0, 0x160(sp)
80002bd6: f9aa         	sd	a0, 0xf0(sp)

0000000080002bd8 <.Lpcrel_hi261>:
80002bd8: 00004517     	auipc	a0, 0x4
80002bdc: 66050513     	addi	a0, a0, 0x660
80002be0: 090c         	addi	a1, sp, 0x90
80002be2: 00002097     	auipc	ra, 0x2
80002be6: e98080e7     	jalr	-0x168(ra) <core::fmt::Arguments::new::h1b6b5b000994f182>
80002bea: ffffe097     	auipc	ra, 0xffffe
80002bee: a8a080e7     	jalr	-0x576(ra) <lab5_kernel_task2::console::print::h64393a0152c60ab8>
80002bf2: 70f6         	ld	ra, 0x178(sp)
80002bf4: 6119         	addi	sp, sp, 0x180
80002bf6: 8082         	ret

0000000080002bf8 <.Lpcrel_hi262>:
80002bf8: 00004517     	auipc	a0, 0x4
80002bfc: 62850513     	addi	a0, a0, 0x628
80002c00: 00003097     	auipc	ra, 0x3
80002c04: ed8080e7     	jalr	-0x128(ra) <core::panicking::panic_null_pointer_dereference::hbac6411af4f2e916>

0000000080002c08 <lab5_kernel_task2::print_phase_summary::hfb9030fa752cd05b>:
80002c08: b1010113     	addi	sp, sp, -0x4f0
80002c0c: 4e113423     	sd	ra, 0x4e8(sp)
80002c10: 85aa         	mv	a1, a0
80002c12: fc2e         	sd	a1, 0x38(sp)
80002c14: 4cb13c23     	sd	a1, 0x4d8(sp)
80002c18: 4505         	li	a0, 0x1
80002c1a: 00b56963     	bltu	a0, a1, 0x80002c2c <.Lpcrel_hi263+0xc>
80002c1e: a009         	j	0x80002c20 <.Lpcrel_hi263>

0000000080002c20 <.Lpcrel_hi263>:
80002c20: 00005517     	auipc	a0, 0x5
80002c24: 29850513     	addi	a0, a0, 0x298
80002c28: ed01         	bnez	a0, 0x80002c40 <.Lpcrel_hi264+0x12>
80002c2a: a83d         	j	0x80002c68 <.Lpcrel_hi266>
80002c2c: 7562         	ld	a0, 0x38(sp)

0000000080002c2e <.Lpcrel_hi264>:
80002c2e: 00004597     	auipc	a1, 0x4
80002c32: 67258613     	addi	a2, a1, 0x672
80002c36: 4589         	li	a1, 0x2
80002c38: 00003097     	auipc	ra, 0x3
80002c3c: e34080e7     	jalr	-0x1cc(ra) <core::panicking::panic_bounds_check::h6aaee0d15e0261eb>
80002c40: 7562         	ld	a0, 0x38(sp)
80002c42: 00851593     	slli	a1, a0, 0x8

0000000080002c46 <.Lpcrel_hi265>:
80002c46: 00005517     	auipc	a0, 0x5
80002c4a: 27250513     	addi	a0, a0, 0x272
80002c4e: 95aa         	add	a1, a1, a0
80002c50: 0088         	addi	a0, sp, 0x40
80002c52: 10000613     	li	a2, 0x100
80002c56: 00003097     	auipc	ra, 0x3
80002c5a: 00c080e7     	jalr	0xc(ra) <memcpy>
80002c5e: 7562         	ld	a0, 0x38(sp)
80002c60: 4589         	li	a1, 0x2
80002c62: 00b56b63     	bltu	a0, a1, 0x80002c78 <.Lpcrel_hi266+0x10>
80002c66: aa35         	j	0x80002da2 <.Lpcrel_hi268+0x30>

0000000080002c68 <.Lpcrel_hi266>:
80002c68: 00004517     	auipc	a0, 0x4
80002c6c: 63850513     	addi	a0, a0, 0x638
80002c70: 00003097     	auipc	ra, 0x3
80002c74: e68080e7     	jalr	-0x198(ra) <core::panicking::panic_null_pointer_dereference::hbac6411af4f2e916>
80002c78: 7562         	ld	a0, 0x38(sp)
80002c7a: 00351593     	slli	a1, a0, 0x3
80002c7e: 0516         	slli	a0, a0, 0x5
80002c80: 40b505b3     	sub	a1, a0, a1

0000000080002c84 <.Lpcrel_hi267>:
80002c84: 00004517     	auipc	a0, 0x4
80002c88: cc450513     	addi	a0, a0, -0x33c
80002c8c: 952e         	add	a0, a0, a1
80002c8e: 690c         	ld	a1, 0x10(a0)
80002c90: eaae         	sd	a1, 0x150(sp)
80002c92: 650c         	ld	a1, 0x8(a0)
80002c94: e6ae         	sd	a1, 0x148(sp)
80002c96: 6108         	ld	a0, 0x0(a0)
80002c98: e2aa         	sd	a0, 0x140(sp)
80002c9a: 15014503     	lbu	a0, 0x150(sp)
80002c9e: fffff097     	auipc	ra, 0xfffff
80002ca2: ec6080e7     	jalr	-0x13a(ra) <lab5_kernel_task2::SchedulerPolicy::as_str::h915765f6c5b41e46>
80002ca6: eb2a         	sd	a0, 0x190(sp)
80002ca8: ef2e         	sd	a1, 0x198(sp)
80002caa: 00b4         	addi	a3, sp, 0x48
80002cac: 0890         	addi	a2, sp, 0x50
80002cae: 08ac         	addi	a1, sp, 0x58
80002cb0: 1088         	addi	a0, sp, 0x60
80002cb2: 0298         	addi	a4, sp, 0x140
80002cb4: eeba         	sd	a4, 0x158(sp)
80002cb6: 0b18         	addi	a4, sp, 0x190
80002cb8: f2ba         	sd	a4, 0x160(sp)
80002cba: 0098         	addi	a4, sp, 0x40
80002cbc: f6ba         	sd	a4, 0x168(sp)
80002cbe: fab6         	sd	a3, 0x170(sp)
80002cc0: feb2         	sd	a2, 0x178(sp)
80002cc2: e32e         	sd	a1, 0x180(sp)
80002cc4: e72a         	sd	a0, 0x188(sp)
80002cc6: 65f6         	ld	a1, 0x158(sp)
80002cc8: 0c08         	addi	a0, sp, 0x210
80002cca: ffffd097     	auipc	ra, 0xffffd
80002cce: 62a080e7     	jalr	0x62a(ra) <core::fmt::rt::Argument::new_display::hdf5d30e07b2a6dbf>
80002cd2: 7596         	ld	a1, 0x160(sp)
80002cd4: 1408         	addi	a0, sp, 0x220
80002cd6: ffffd097     	auipc	ra, 0xffffd
80002cda: 61e080e7     	jalr	0x61e(ra) <core::fmt::rt::Argument::new_display::hdf5d30e07b2a6dbf>
80002cde: 75b6         	ld	a1, 0x168(sp)
80002ce0: 1c08         	addi	a0, sp, 0x230
80002ce2: ffffd097     	auipc	ra, 0xffffd
80002ce6: 5ac080e7     	jalr	0x5ac(ra) <core::fmt::rt::Argument::new_display::h52645e11b6055522>
80002cea: 75d6         	ld	a1, 0x170(sp)
80002cec: 0488         	addi	a0, sp, 0x240
80002cee: ffffd097     	auipc	ra, 0xffffd
80002cf2: 5a0080e7     	jalr	0x5a0(ra) <core::fmt::rt::Argument::new_display::h52645e11b6055522>
80002cf6: 75f6         	ld	a1, 0x178(sp)
80002cf8: 0c88         	addi	a0, sp, 0x250
80002cfa: ffffd097     	auipc	ra, 0xffffd
80002cfe: 594080e7     	jalr	0x594(ra) <core::fmt::rt::Argument::new_display::h52645e11b6055522>
80002d02: 659a         	ld	a1, 0x180(sp)
80002d04: 1488         	addi	a0, sp, 0x260
80002d06: ffffd097     	auipc	ra, 0xffffd
80002d0a: 588080e7     	jalr	0x588(ra) <core::fmt::rt::Argument::new_display::h52645e11b6055522>
80002d0e: 65ba         	ld	a1, 0x188(sp)
80002d10: 1c88         	addi	a0, sp, 0x270
80002d12: ffffd097     	auipc	ra, 0xffffd
80002d16: 57c080e7     	jalr	0x57c(ra) <core::fmt::rt::Argument::new_display::h52645e11b6055522>
80002d1a: 21813503     	ld	a0, 0x218(sp)
80002d1e: f72a         	sd	a0, 0x1a8(sp)
80002d20: 21013503     	ld	a0, 0x210(sp)
80002d24: f32a         	sd	a0, 0x1a0(sp)
80002d26: 22813503     	ld	a0, 0x228(sp)
80002d2a: ff2a         	sd	a0, 0x1b8(sp)
80002d2c: 22013503     	ld	a0, 0x220(sp)
80002d30: fb2a         	sd	a0, 0x1b0(sp)
80002d32: 23813503     	ld	a0, 0x238(sp)
80002d36: e7aa         	sd	a0, 0x1c8(sp)
80002d38: 23013503     	ld	a0, 0x230(sp)
80002d3c: e3aa         	sd	a0, 0x1c0(sp)
80002d3e: 24813503     	ld	a0, 0x248(sp)
80002d42: efaa         	sd	a0, 0x1d8(sp)
80002d44: 24013503     	ld	a0, 0x240(sp)
80002d48: ebaa         	sd	a0, 0x1d0(sp)
80002d4a: 25813503     	ld	a0, 0x258(sp)
80002d4e: f7aa         	sd	a0, 0x1e8(sp)
80002d50: 25013503     	ld	a0, 0x250(sp)
80002d54: f3aa         	sd	a0, 0x1e0(sp)
80002d56: 26813503     	ld	a0, 0x268(sp)
80002d5a: ffaa         	sd	a0, 0x1f8(sp)
80002d5c: 26013503     	ld	a0, 0x260(sp)
80002d60: fbaa         	sd	a0, 0x1f0(sp)
80002d62: 27813503     	ld	a0, 0x278(sp)
80002d66: 20a13423     	sd	a0, 0x208(sp)
80002d6a: 27013503     	ld	a0, 0x270(sp)
80002d6e: 20a13023     	sd	a0, 0x200(sp)

0000000080002d72 <.Lpcrel_hi268>:
80002d72: 00003517     	auipc	a0, 0x3
80002d76: 5f950513     	addi	a0, a0, 0x5f9
80002d7a: 130c         	addi	a1, sp, 0x1a0
80002d7c: 00002097     	auipc	ra, 0x2
80002d80: d8a080e7     	jalr	-0x276(ra) <core::fmt::Arguments::new::hd86e989845390cad>
80002d84: ffffe097     	auipc	ra, 0xffffe
80002d88: 8f0080e7     	jalr	-0x710(ra) <lab5_kernel_task2::console::print::h64393a0152c60ab8>
80002d8c: 4501         	li	a0, 0x0
80002d8e: 458d         	li	a1, 0x3
80002d90: ffffe097     	auipc	ra, 0xffffe
80002d94: abe080e7     	jalr	-0x542(ra) <_$LT$I$u20$as$u20$core..iter..traits..collect..IntoIterator$GT$::into_iter::h0bc23e2a2835499a>
80002d98: 28a13023     	sd	a0, 0x280(sp)
80002d9c: 28b13423     	sd	a1, 0x288(sp)
80002da0: a819         	j	0x80002db6 <.Lpcrel_hi269+0x12>
80002da2: 7562         	ld	a0, 0x38(sp)

0000000080002da4 <.Lpcrel_hi269>:
80002da4: 00004597     	auipc	a1, 0x4
80002da8: 51458613     	addi	a2, a1, 0x514
80002dac: 4589         	li	a1, 0x2
80002dae: 00003097     	auipc	ra, 0x3
80002db2: cbe080e7     	jalr	-0x342(ra) <core::panicking::panic_bounds_check::h6aaee0d15e0261eb>
80002db6: 0508         	addi	a0, sp, 0x280
80002db8: ffffe097     	auipc	ra, 0xffffe
80002dbc: a6e080e7     	jalr	-0x592(ra) <core::iter::range::_$LT$impl$u20$core..iter..traits..iterator..Iterator$u20$for$u20$core..ops..range..Range$LT$A$GT$$GT$::next::he797165a0feca20e>
80002dc0: 28a13823     	sd	a0, 0x290(sp)
80002dc4: 28b13c23     	sd	a1, 0x298(sp)
80002dc8: 29013503     	ld	a0, 0x290(sp)
80002dcc: 8905         	andi	a0, a0, 0x1
80002dce: cd09         	beqz	a0, 0x80002de8 <.Lpcrel_hi269+0x44>
80002dd0: a009         	j	0x80002dd2 <.Lpcrel_hi269+0x2e>
80002dd2: 29813503     	ld	a0, 0x298(sp)
80002dd6: f42a         	sd	a0, 0x28(sp)
80002dd8: 4ea13023     	sd	a0, 0x4e0(sp)
80002ddc: 458d         	li	a1, 0x3
80002dde: 862a         	mv	a2, a0
80002de0: f832         	sd	a2, 0x30(sp)
80002de2: 00b56863     	bltu	a0, a1, 0x80002df2 <.Lpcrel_hi269+0x4e>
80002de6: a82d         	j	0x80002e20 <.Lpcrel_hi269+0x7c>
80002de8: 4e813083     	ld	ra, 0x4e8(sp)
80002dec: 4f010113     	addi	sp, sp, 0x4f0
80002df0: 8082         	ret
80002df2: 7522         	ld	a0, 0x28(sp)
80002df4: 00351593     	slli	a1, a0, 0x3
80002df8: 051a         	slli	a0, a0, 0x6
80002dfa: 95aa         	add	a1, a1, a0
80002dfc: 0088         	addi	a0, sp, 0x40
80002dfe: 952e         	add	a0, a0, a1
80002e00: 02850593     	addi	a1, a0, 0x28
80002e04: 1508         	addi	a0, sp, 0x2a0
80002e06: 04800613     	li	a2, 0x48
80002e0a: 00003097     	auipc	ra, 0x3
80002e0e: e58080e7     	jalr	-0x1a8(ra) <memcpy>
80002e12: 7522         	ld	a0, 0x28(sp)
80002e14: 458d         	li	a1, 0x3
80002e16: 862a         	mv	a2, a0
80002e18: f032         	sd	a2, 0x20(sp)
80002e1a: 00b56d63     	bltu	a0, a1, 0x80002e34 <.Lpcrel_hi270+0x12>
80002e1e: a835         	j	0x80002e5a <.Lpcrel_hi271+0x18>
80002e20: 7542         	ld	a0, 0x30(sp)

0000000080002e22 <.Lpcrel_hi270>:
80002e22: 00004597     	auipc	a1, 0x4
80002e26: 4ae58613     	addi	a2, a1, 0x4ae
80002e2a: 458d         	li	a1, 0x3
80002e2c: 00003097     	auipc	ra, 0x3
80002e30: c40080e7     	jalr	-0x3c0(ra) <core::panicking::panic_bounds_check::h6aaee0d15e0261eb>
80002e34: 7522         	ld	a0, 0x28(sp)
80002e36: 00451613     	slli	a2, a0, 0x4
80002e3a: 00651593     	slli	a1, a0, 0x6
80002e3e: 40c58633     	sub	a2, a1, a2

0000000080002e42 <.Lpcrel_hi271>:
80002e42: 00005597     	auipc	a1, 0x5
80002e46: 86658593     	addi	a1, a1, -0x79a
80002e4a: 95b2         	add	a1, a1, a2
80002e4c: e82e         	sd	a1, 0x10(sp)
80002e4e: 458d         	li	a1, 0x3
80002e50: 862a         	mv	a2, a0
80002e52: ec32         	sd	a2, 0x18(sp)
80002e54: 00b56d63     	bltu	a0, a1, 0x80002e6e <.Lpcrel_hi272+0x12>
80002e58: a43d         	j	0x80003086 <.Lpcrel_hi274+0x1c>
80002e5a: 7502         	ld	a0, 0x20(sp)

0000000080002e5c <.Lpcrel_hi272>:
80002e5c: 00004597     	auipc	a1, 0x4
80002e60: 48c58613     	addi	a2, a1, 0x48c
80002e64: 458d         	li	a1, 0x3
80002e66: 00003097     	auipc	ra, 0x3
80002e6a: c06080e7     	jalr	-0x3fa(ra) <core::panicking::panic_bounds_check::h6aaee0d15e0261eb>
80002e6e: 7522         	ld	a0, 0x28(sp)
80002e70: 00451593     	slli	a1, a0, 0x4
80002e74: 051a         	slli	a0, a0, 0x6
80002e76: 40b505b3     	sub	a1, a0, a1

0000000080002e7a <.Lpcrel_hi273>:
80002e7a: 00005517     	auipc	a0, 0x5
80002e7e: 82e50513     	addi	a0, a0, -0x7d2
80002e82: 952e         	add	a0, a0, a1
80002e84: 02854503     	lbu	a0, 0x28(a0)
80002e88: 00001097     	auipc	ra, 0x1
80002e8c: 112080e7     	jalr	0x112(ra) <lab5_kernel_task2::TaskClass::as_str::h4a7e24ec9f51864f>
80002e90: 62c2         	ld	t0, 0x10(sp)
80002e92: 34a13423     	sd	a0, 0x348(sp)
80002e96: 34b13823     	sd	a1, 0x350(sp)
80002e9a: 2a810893     	addi	a7, sp, 0x2a8
80002e9e: 2c810813     	addi	a6, sp, 0x2c8
80002ea2: 059c         	addi	a5, sp, 0x2c0
80002ea4: 1d38         	addi	a4, sp, 0x2b8
80002ea6: 1d14         	addi	a3, sp, 0x2b0
80002ea8: 0d90         	addi	a2, sp, 0x2d0
80002eaa: 0dac         	addi	a1, sp, 0x2d8
80002eac: 1588         	addi	a0, sp, 0x2e0
80002eae: 14010313     	addi	t1, sp, 0x140
80002eb2: 2e613423     	sd	t1, 0x2e8(sp)
80002eb6: 2a010313     	addi	t1, sp, 0x2a0
80002eba: 2e613823     	sd	t1, 0x2f0(sp)
80002ebe: 2e513c23     	sd	t0, 0x2f8(sp)
80002ec2: 34810293     	addi	t0, sp, 0x348
80002ec6: 30513023     	sd	t0, 0x300(sp)
80002eca: 31113423     	sd	a7, 0x308(sp)
80002ece: 31013823     	sd	a6, 0x310(sp)
80002ed2: 30f13c23     	sd	a5, 0x318(sp)
80002ed6: 32e13023     	sd	a4, 0x320(sp)
80002eda: 32d13423     	sd	a3, 0x328(sp)
80002ede: 32c13823     	sd	a2, 0x330(sp)
80002ee2: 32b13c23     	sd	a1, 0x338(sp)
80002ee6: 34a13023     	sd	a0, 0x340(sp)
80002eea: 2e813583     	ld	a1, 0x2e8(sp)
80002eee: 41810513     	addi	a0, sp, 0x418
80002ef2: ffffd097     	auipc	ra, 0xffffd
80002ef6: 402080e7     	jalr	0x402(ra) <core::fmt::rt::Argument::new_display::hdf5d30e07b2a6dbf>
80002efa: 2f013583     	ld	a1, 0x2f0(sp)
80002efe: 42810513     	addi	a0, sp, 0x428
80002f02: ffffd097     	auipc	ra, 0xffffd
80002f06: 38c080e7     	jalr	0x38c(ra) <core::fmt::rt::Argument::new_display::h52645e11b6055522>
80002f0a: 2f813583     	ld	a1, 0x2f8(sp)
80002f0e: 43810513     	addi	a0, sp, 0x438
80002f12: ffffd097     	auipc	ra, 0xffffd
80002f16: 3e2080e7     	jalr	0x3e2(ra) <core::fmt::rt::Argument::new_display::hdf5d30e07b2a6dbf>
80002f1a: 30013583     	ld	a1, 0x300(sp)
80002f1e: 44810513     	addi	a0, sp, 0x448
80002f22: ffffd097     	auipc	ra, 0xffffd
80002f26: 3d2080e7     	jalr	0x3d2(ra) <core::fmt::rt::Argument::new_display::hdf5d30e07b2a6dbf>
80002f2a: 30813583     	ld	a1, 0x308(sp)
80002f2e: 45810513     	addi	a0, sp, 0x458
80002f32: ffffd097     	auipc	ra, 0xffffd
80002f36: 35c080e7     	jalr	0x35c(ra) <core::fmt::rt::Argument::new_display::h52645e11b6055522>
80002f3a: 31013583     	ld	a1, 0x310(sp)
80002f3e: 46810513     	addi	a0, sp, 0x468
80002f42: ffffd097     	auipc	ra, 0xffffd
80002f46: 34c080e7     	jalr	0x34c(ra) <core::fmt::rt::Argument::new_display::h52645e11b6055522>
80002f4a: 31813583     	ld	a1, 0x318(sp)
80002f4e: 47810513     	addi	a0, sp, 0x478
80002f52: ffffd097     	auipc	ra, 0xffffd
80002f56: 33c080e7     	jalr	0x33c(ra) <core::fmt::rt::Argument::new_display::h52645e11b6055522>
80002f5a: 32013583     	ld	a1, 0x320(sp)
80002f5e: 48810513     	addi	a0, sp, 0x488
80002f62: ffffd097     	auipc	ra, 0xffffd
80002f66: 32c080e7     	jalr	0x32c(ra) <core::fmt::rt::Argument::new_display::h52645e11b6055522>
80002f6a: 32813583     	ld	a1, 0x328(sp)
80002f6e: 49810513     	addi	a0, sp, 0x498
80002f72: ffffd097     	auipc	ra, 0xffffd
80002f76: 31c080e7     	jalr	0x31c(ra) <core::fmt::rt::Argument::new_display::h52645e11b6055522>
80002f7a: 33013583     	ld	a1, 0x330(sp)
80002f7e: 4a810513     	addi	a0, sp, 0x4a8
80002f82: ffffd097     	auipc	ra, 0xffffd
80002f86: 30c080e7     	jalr	0x30c(ra) <core::fmt::rt::Argument::new_display::h52645e11b6055522>
80002f8a: 33813583     	ld	a1, 0x338(sp)
80002f8e: 4b810513     	addi	a0, sp, 0x4b8
80002f92: ffffd097     	auipc	ra, 0xffffd
80002f96: 2fc080e7     	jalr	0x2fc(ra) <core::fmt::rt::Argument::new_display::h52645e11b6055522>
80002f9a: 34013583     	ld	a1, 0x340(sp)
80002f9e: 4c810513     	addi	a0, sp, 0x4c8
80002fa2: ffffd097     	auipc	ra, 0xffffd
80002fa6: 374080e7     	jalr	0x374(ra) <core::fmt::rt::Argument::new_lower_hex::h6cee035c80be4cc2>
80002faa: 42013503     	ld	a0, 0x420(sp)
80002fae: 36a13023     	sd	a0, 0x360(sp)
80002fb2: 41813503     	ld	a0, 0x418(sp)
80002fb6: 34a13c23     	sd	a0, 0x358(sp)
80002fba: 43013503     	ld	a0, 0x430(sp)
80002fbe: 36a13823     	sd	a0, 0x370(sp)
80002fc2: 42813503     	ld	a0, 0x428(sp)
80002fc6: 36a13423     	sd	a0, 0x368(sp)
80002fca: 44013503     	ld	a0, 0x440(sp)
80002fce: 38a13023     	sd	a0, 0x380(sp)
80002fd2: 43813503     	ld	a0, 0x438(sp)
80002fd6: 36a13c23     	sd	a0, 0x378(sp)
80002fda: 45013503     	ld	a0, 0x450(sp)
80002fde: 38a13823     	sd	a0, 0x390(sp)
80002fe2: 44813503     	ld	a0, 0x448(sp)
80002fe6: 38a13423     	sd	a0, 0x388(sp)
80002fea: 46013503     	ld	a0, 0x460(sp)
80002fee: 3aa13023     	sd	a0, 0x3a0(sp)
80002ff2: 45813503     	ld	a0, 0x458(sp)
80002ff6: 38a13c23     	sd	a0, 0x398(sp)
80002ffa: 47013503     	ld	a0, 0x470(sp)
80002ffe: 3aa13823     	sd	a0, 0x3b0(sp)
80003002: 46813503     	ld	a0, 0x468(sp)
80003006: 3aa13423     	sd	a0, 0x3a8(sp)
8000300a: 48013503     	ld	a0, 0x480(sp)
8000300e: 3ca13023     	sd	a0, 0x3c0(sp)
80003012: 47813503     	ld	a0, 0x478(sp)
80003016: 3aa13c23     	sd	a0, 0x3b8(sp)
8000301a: 49013503     	ld	a0, 0x490(sp)
8000301e: 3ca13823     	sd	a0, 0x3d0(sp)
80003022: 48813503     	ld	a0, 0x488(sp)
80003026: 3ca13423     	sd	a0, 0x3c8(sp)
8000302a: 4a013503     	ld	a0, 0x4a0(sp)
8000302e: 3ea13023     	sd	a0, 0x3e0(sp)
80003032: 49813503     	ld	a0, 0x498(sp)
80003036: 3ca13c23     	sd	a0, 0x3d8(sp)
8000303a: 4b013503     	ld	a0, 0x4b0(sp)
8000303e: 3ea13823     	sd	a0, 0x3f0(sp)
80003042: 4a813503     	ld	a0, 0x4a8(sp)
80003046: 3ea13423     	sd	a0, 0x3e8(sp)
8000304a: 4c013503     	ld	a0, 0x4c0(sp)
8000304e: 40a13023     	sd	a0, 0x400(sp)
80003052: 4b813503     	ld	a0, 0x4b8(sp)
80003056: 3ea13c23     	sd	a0, 0x3f8(sp)
8000305a: 4d013503     	ld	a0, 0x4d0(sp)
8000305e: 40a13823     	sd	a0, 0x410(sp)
80003062: 4c813503     	ld	a0, 0x4c8(sp)
80003066: 40a13423     	sd	a0, 0x408(sp)

000000008000306a <.Lpcrel_hi274>:
8000306a: 00004517     	auipc	a0, 0x4
8000306e: 2ae50513     	addi	a0, a0, 0x2ae
80003072: 0eac         	addi	a1, sp, 0x358
80003074: 00002097     	auipc	ra, 0x2
80003078: a74080e7     	jalr	-0x58c(ra) <core::fmt::Arguments::new::hc2c8f0befc1e3361>
8000307c: ffffd097     	auipc	ra, 0xffffd
80003080: 5f8080e7     	jalr	0x5f8(ra) <lab5_kernel_task2::console::print::h64393a0152c60ab8>
80003084: bb0d         	j	0x80002db6 <.Lpcrel_hi269+0x12>
80003086: 6562         	ld	a0, 0x18(sp)

0000000080003088 <.Lpcrel_hi275>:
80003088: 00004597     	auipc	a1, 0x4
8000308c: 27858613     	addi	a2, a1, 0x278
80003090: 458d         	li	a1, 0x3
80003092: 00003097     	auipc	ra, 0x3
80003096: 9da080e7     	jalr	-0x626(ra) <core::panicking::panic_bounds_check::h6aaee0d15e0261eb>

000000008000309a <lab5_kernel_task2::handle_explicit_yield::hc5b8815bff655718>:
8000309a: 7159         	addi	sp, sp, -0x70
8000309c: f486         	sd	ra, 0x68(sp)
8000309e: f42a         	sd	a0, 0x28(sp)
800030a0: e4aa         	sd	a0, 0x48(sp)
800030a2: ffffe097     	auipc	ra, 0xffffe
800030a6: 196080e7     	jalr	0x196(ra) <lab5_kernel_task2::current_task::hdba6ec3709aafd44>
800030aa: f82a         	sd	a0, 0x30(sp)
800030ac: 85aa         	mv	a1, a0
800030ae: ec2e         	sd	a1, 0x18(sp)
800030b0: e8aa         	sd	a0, 0x50(sp)
800030b2: ffffe097     	auipc	ra, 0xffffe
800030b6: de6080e7     	jalr	-0x21a(ra) <lab5_kernel_task2::read_mtime::h4657ea07da30bf8e>
800030ba: 85aa         	mv	a1, a0
800030bc: 7542         	ld	a0, 0x30(sp)
800030be: 862e         	mv	a2, a1
800030c0: f032         	sd	a2, 0x20(sp)
800030c2: ecae         	sd	a1, 0x58(sp)
800030c4: ffffe097     	auipc	ra, 0xffffe
800030c8: 79a080e7     	jalr	0x79a(ra) <lab5_kernel_task2::charge_runtime::h15114116de2a76e1>
800030cc: 75a2         	ld	a1, 0x28(sp)
800030ce: 7542         	ld	a0, 0x30(sp)
800030d0: fffff097     	auipc	ra, 0xfffff
800030d4: 30a080e7     	jalr	0x30a(ra) <lab5_kernel_task2::save_current_frame::h8bdb8513e233ba46>
800030d8: 75c2         	ld	a1, 0x30(sp)
800030da: 4509         	li	a0, 0x2
800030dc: 00b56963     	bltu	a0, a1, 0x800030ee <.Lpcrel_hi276+0xc>
800030e0: a009         	j	0x800030e2 <.Lpcrel_hi276>

00000000800030e2 <.Lpcrel_hi276>:
800030e2: 00005517     	auipc	a0, 0x5
800030e6: 00650513     	addi	a0, a0, 0x6
800030ea: ed01         	bnez	a0, 0x80003102 <.Lpcrel_hi277+0x12>
800030ec: a82d         	j	0x80003126 <.Lpcrel_hi279>
800030ee: 6562         	ld	a0, 0x18(sp)

00000000800030f0 <.Lpcrel_hi277>:
800030f0: 00004597     	auipc	a1, 0x4
800030f4: 2e058613     	addi	a2, a1, 0x2e0
800030f8: 458d         	li	a1, 0x3
800030fa: 00003097     	auipc	ra, 0x3
800030fe: 972080e7     	jalr	-0x68e(ra) <core::panicking::panic_bounds_check::h6aaee0d15e0261eb>
80003102: 6562         	ld	a0, 0x18(sp)
80003104: 25800593     	li	a1, 0x258
80003108: 02b505b3     	mul	a1, a0, a1

000000008000310c <.Lpcrel_hi278>:
8000310c: 00005517     	auipc	a0, 0x5
80003110: fdc50513     	addi	a0, a0, -0x24
80003114: 952e         	add	a0, a0, a1
80003116: 24053583     	ld	a1, 0x240(a0)
8000311a: 00158513     	addi	a0, a1, 0x1
8000311e: e82a         	sd	a0, 0x10(sp)
80003120: 02b56163     	bltu	a0, a1, 0x80003142 <.Lpcrel_hi281>
80003124: a809         	j	0x80003136 <.Lpcrel_hi280>

0000000080003126 <.Lpcrel_hi279>:
80003126: 00004517     	auipc	a0, 0x4
8000312a: 2aa50513     	addi	a0, a0, 0x2aa
8000312e: 00003097     	auipc	ra, 0x3
80003132: 9aa080e7     	jalr	-0x656(ra) <core::panicking::panic_null_pointer_dereference::hbac6411af4f2e916>

0000000080003136 <.Lpcrel_hi280>:
80003136: 00005517     	auipc	a0, 0x5
8000313a: fb250513     	addi	a0, a0, -0x4e
8000313e: e911         	bnez	a0, 0x80003152 <.Lpcrel_hi281+0x10>
80003140: a089         	j	0x80003182 <.Lpcrel_hi283>

0000000080003142 <.Lpcrel_hi281>:
80003142: 00004517     	auipc	a0, 0x4
80003146: 28e50513     	addi	a0, a0, 0x28e
8000314a: 00003097     	auipc	ra, 0x3
8000314e: 8e6080e7     	jalr	-0x71a(ra) <core::panicking::panic_const::panic_const_add_overflow::h67cba067093910f8>
80003152: 6562         	ld	a0, 0x18(sp)
80003154: 65c2         	ld	a1, 0x10(sp)
80003156: 25800613     	li	a2, 0x258
8000315a: 02c506b3     	mul	a3, a0, a2

000000008000315e <.Lpcrel_hi282>:
8000315e: 00005617     	auipc	a2, 0x5
80003162: f8a60613     	addi	a2, a2, -0x76
80003166: 9636         	add	a2, a2, a3
80003168: 24b63023     	sd	a1, 0x240(a2)
8000316c: 4585         	li	a1, 0x1
8000316e: fffff097     	auipc	ra, 0xfffff
80003172: a84080e7     	jalr	-0x57c(ra) <lab5_kernel_task2::choose_next_task::h66d7811c5fedcf39>
80003176: fc2a         	sd	a0, 0x38(sp)
80003178: e0ae         	sd	a1, 0x40(sp)
8000317a: 7562         	ld	a0, 0x38(sp)
8000317c: 8905         	andi	a0, a0, 0x1
8000317e: e911         	bnez	a0, 0x80003192 <.Lpcrel_hi283+0x10>
80003180: a005         	j	0x800031a0 <.Lpcrel_hi283+0x1e>

0000000080003182 <.Lpcrel_hi283>:
80003182: 00004517     	auipc	a0, 0x4
80003186: 24e50513     	addi	a0, a0, 0x24e
8000318a: 00003097     	auipc	ra, 0x3
8000318e: 94e080e7     	jalr	-0x6b2(ra) <core::panicking::panic_null_pointer_dereference::hbac6411af4f2e916>
80003192: 65e2         	ld	a1, 0x18(sp)
80003194: 6506         	ld	a0, 0x40(sp)
80003196: e42a         	sd	a0, 0x8(sp)
80003198: f0aa         	sd	a0, 0x60(sp)
8000319a: 00b51a63     	bne	a0, a1, 0x800031ae <.Lpcrel_hi284>
8000319e: a009         	j	0x800031a0 <.Lpcrel_hi283+0x1e>
800031a0: 7582         	ld	a1, 0x20(sp)
800031a2: 6562         	ld	a0, 0x18(sp)
800031a4: fffff097     	auipc	ra, 0xfffff
800031a8: bb4080e7     	jalr	-0x44c(ra) <lab5_kernel_task2::resume_same_task::he6fe4ffa37b826e5>
800031ac: a041         	j	0x8000322c <.Lpcrel_hi290+0x10>

00000000800031ae <.Lpcrel_hi284>:
800031ae: 00005517     	auipc	a0, 0x5
800031b2: f3250513     	addi	a0, a0, -0xce
800031b6: cd09         	beqz	a0, 0x800031d0 <.Lpcrel_hi286>
800031b8: a009         	j	0x800031ba <.Lpcrel_hi285>

00000000800031ba <.Lpcrel_hi285>:
800031ba: 00005517     	auipc	a0, 0x5
800031be: f2650513     	addi	a0, a0, -0xda
800031c2: 610c         	ld	a1, 0x0(a0)
800031c4: 00158513     	addi	a0, a1, 0x1
800031c8: e02a         	sd	a0, 0x0(sp)
800031ca: 02b56163     	bltu	a0, a1, 0x800031ec <.Lpcrel_hi288>
800031ce: a809         	j	0x800031e0 <.Lpcrel_hi287>

00000000800031d0 <.Lpcrel_hi286>:
800031d0: 00004517     	auipc	a0, 0x4
800031d4: 21850513     	addi	a0, a0, 0x218
800031d8: 00003097     	auipc	ra, 0x3
800031dc: 900080e7     	jalr	-0x700(ra) <core::panicking::panic_null_pointer_dereference::hbac6411af4f2e916>

00000000800031e0 <.Lpcrel_hi287>:
800031e0: 00005517     	auipc	a0, 0x5
800031e4: f0050513     	addi	a0, a0, -0x100
800031e8: e911         	bnez	a0, 0x800031fc <.Lpcrel_hi288+0x10>
800031ea: a80d         	j	0x8000321c <.Lpcrel_hi290>

00000000800031ec <.Lpcrel_hi288>:
800031ec: 00004517     	auipc	a0, 0x4
800031f0: 1fc50513     	addi	a0, a0, 0x1fc
800031f4: 00003097     	auipc	ra, 0x3
800031f8: 83c080e7     	jalr	-0x7c4(ra) <core::panicking::panic_const::panic_const_add_overflow::h67cba067093910f8>
800031fc: 7702         	ld	a4, 0x20(sp)
800031fe: 6622         	ld	a2, 0x8(sp)
80003200: 65e2         	ld	a1, 0x18(sp)
80003202: 7522         	ld	a0, 0x28(sp)
80003204: 6682         	ld	a3, 0x0(sp)

0000000080003206 <.Lpcrel_hi289>:
80003206: 00005797     	auipc	a5, 0x5
8000320a: eda78793     	addi	a5, a5, -0x126
8000320e: e394         	sd	a3, 0x0(a5)
80003210: 4685         	li	a3, 0x1
80003212: 00001097     	auipc	ra, 0x1
80003216: eb6080e7     	jalr	-0x14a(ra) <lab5_kernel_task2::switch_to::h1dc032db7d30df18>
8000321a: a809         	j	0x8000322c <.Lpcrel_hi290+0x10>

000000008000321c <.Lpcrel_hi290>:
8000321c: 00004517     	auipc	a0, 0x4
80003220: 1cc50513     	addi	a0, a0, 0x1cc
80003224: 00003097     	auipc	ra, 0x3
80003228: 8b4080e7     	jalr	-0x74c(ra) <core::panicking::panic_null_pointer_dereference::hbac6411af4f2e916>
8000322c: 70a6         	ld	ra, 0x68(sp)
8000322e: 6165         	addi	sp, sp, 0x70
80003230: 8082         	ret

0000000080003232 <lab5_kernel_task2::disarm_timer_interrupt::h863fbf65fb6b6af8>:
80003232: 1141         	addi	sp, sp, -0x10
80003234: e406         	sd	ra, 0x8(sp)

0000000080003236 <.Lpcrel_hi291>:
80003236: 00004517     	auipc	a0, 0x4
8000323a: 1ca50613     	addi	a2, a0, 0x1ca
8000323e: 02004537     	lui	a0, 0x2004
80003242: 55fd         	li	a1, -0x1
80003244: ffffd097     	auipc	ra, 0xffffd
80003248: fca080e7     	jalr	-0x36(ra) <core::ptr::write_volatile::h4e60e2f38ee812c7>
8000324c: 60a2         	ld	ra, 0x8(sp)
8000324e: 0141         	addi	sp, sp, 0x10
80003250: 8082         	ret

0000000080003252 <lab5_kernel_task2::handle_timer_interrupt::h5920c5399be94aca>:
80003252: 7119         	addi	sp, sp, -0x80
80003254: fc86         	sd	ra, 0x78(sp)
80003256: fc2a         	sd	a0, 0x38(sp)
80003258: ecaa         	sd	a0, 0x58(sp)
8000325a: ffffe097     	auipc	ra, 0xffffe
8000325e: c3e080e7     	jalr	-0x3c2(ra) <lab5_kernel_task2::read_mtime::h4657ea07da30bf8e>
80003262: 85aa         	mv	a1, a0
80003264: e0ae         	sd	a1, 0x40(sp)
80003266: f0aa         	sd	a0, 0x60(sp)
80003268: 00001097     	auipc	ra, 0x1
8000326c: 90e080e7     	jalr	-0x6f2(ra) <lab5_kernel_task2::arm_next_timer_interrupt_from::h60504da096f24430>

0000000080003270 <.Lpcrel_hi292>:
80003270: 00005517     	auipc	a0, 0x5
80003274: e6850513     	addi	a0, a0, -0x198
80003278: cd09         	beqz	a0, 0x80003292 <.Lpcrel_hi294>
8000327a: a009         	j	0x8000327c <.Lpcrel_hi293>

000000008000327c <.Lpcrel_hi293>:
8000327c: 00005517     	auipc	a0, 0x5
80003280: e5c50513     	addi	a0, a0, -0x1a4
80003284: 610c         	ld	a1, 0x0(a0)
80003286: 00158513     	addi	a0, a1, 0x1
8000328a: f82a         	sd	a0, 0x30(sp)
8000328c: 02b56163     	bltu	a0, a1, 0x800032ae <.Lpcrel_hi296>
80003290: a809         	j	0x800032a2 <.Lpcrel_hi295>

0000000080003292 <.Lpcrel_hi294>:
80003292: 00004517     	auipc	a0, 0x4
80003296: 18650513     	addi	a0, a0, 0x186
8000329a: 00003097     	auipc	ra, 0x3
8000329e: 83e080e7     	jalr	-0x7c2(ra) <core::panicking::panic_null_pointer_dereference::hbac6411af4f2e916>

00000000800032a2 <.Lpcrel_hi295>:
800032a2: 00005517     	auipc	a0, 0x5
800032a6: e3650513     	addi	a0, a0, -0x1ca
800032aa: e911         	bnez	a0, 0x800032be <.Lpcrel_hi296+0x10>
800032ac: a8b1         	j	0x80003308 <.Lpcrel_hi298>

00000000800032ae <.Lpcrel_hi296>:
800032ae: 00004517     	auipc	a0, 0x4
800032b2: 16a50513     	addi	a0, a0, 0x16a
800032b6: 00002097     	auipc	ra, 0x2
800032ba: 77a080e7     	jalr	0x77a(ra) <core::panicking::panic_const::panic_const_add_overflow::h67cba067093910f8>
800032be: 7542         	ld	a0, 0x30(sp)

00000000800032c0 <.Lpcrel_hi297>:
800032c0: 00005597     	auipc	a1, 0x5
800032c4: e1858593     	addi	a1, a1, -0x1e8
800032c8: e188         	sd	a0, 0x0(a1)
800032ca: ffffe097     	auipc	ra, 0xffffe
800032ce: f6e080e7     	jalr	-0x92(ra) <lab5_kernel_task2::current_task::hdba6ec3709aafd44>
800032d2: 6586         	ld	a1, 0x40(sp)
800032d4: f42a         	sd	a0, 0x28(sp)
800032d6: 862a         	mv	a2, a0
800032d8: f032         	sd	a2, 0x20(sp)
800032da: f4aa         	sd	a0, 0x68(sp)
800032dc: ffffe097     	auipc	ra, 0xffffe
800032e0: 582080e7     	jalr	0x582(ra) <lab5_kernel_task2::charge_runtime::h15114116de2a76e1>
800032e4: 75e2         	ld	a1, 0x38(sp)
800032e6: 7522         	ld	a0, 0x28(sp)
800032e8: fffff097     	auipc	ra, 0xfffff
800032ec: 0f2080e7     	jalr	0xf2(ra) <lab5_kernel_task2::save_current_frame::h8bdb8513e233ba46>
800032f0: 7522         	ld	a0, 0x28(sp)
800032f2: 4589         	li	a1, 0x2
800032f4: fffff097     	auipc	ra, 0xfffff
800032f8: 8fe080e7     	jalr	-0x702(ra) <lab5_kernel_task2::choose_next_task::h66d7811c5fedcf39>
800032fc: e4aa         	sd	a0, 0x48(sp)
800032fe: e8ae         	sd	a1, 0x50(sp)
80003300: 6526         	ld	a0, 0x48(sp)
80003302: 8905         	andi	a0, a0, 0x1
80003304: e911         	bnez	a0, 0x80003318 <.Lpcrel_hi298+0x10>
80003306: a005         	j	0x80003326 <.Lpcrel_hi298+0x1e>

0000000080003308 <.Lpcrel_hi298>:
80003308: 00004517     	auipc	a0, 0x4
8000330c: 11050513     	addi	a0, a0, 0x110
80003310: 00002097     	auipc	ra, 0x2
80003314: 7c8080e7     	jalr	0x7c8(ra) <core::panicking::panic_null_pointer_dereference::hbac6411af4f2e916>
80003318: 7582         	ld	a1, 0x20(sp)
8000331a: 6546         	ld	a0, 0x50(sp)
8000331c: ec2a         	sd	a0, 0x18(sp)
8000331e: f8aa         	sd	a0, 0x70(sp)
80003320: 00b51a63     	bne	a0, a1, 0x80003334 <.Lpcrel_hi299>
80003324: a009         	j	0x80003326 <.Lpcrel_hi298+0x1e>
80003326: 6586         	ld	a1, 0x40(sp)
80003328: 7502         	ld	a0, 0x20(sp)
8000332a: fffff097     	auipc	ra, 0xfffff
8000332e: a2e080e7     	jalr	-0x5d2(ra) <lab5_kernel_task2::resume_same_task::he6fe4ffa37b826e5>
80003332: a20d         	j	0x80003454 <.Lpcrel_hi313+0x10>

0000000080003334 <.Lpcrel_hi299>:
80003334: 00005517     	auipc	a0, 0x5
80003338: d9450513     	addi	a0, a0, -0x26c
8000333c: cd09         	beqz	a0, 0x80003356 <.Lpcrel_hi301>
8000333e: a009         	j	0x80003340 <.Lpcrel_hi300>

0000000080003340 <.Lpcrel_hi300>:
80003340: 00005517     	auipc	a0, 0x5
80003344: d8850513     	addi	a0, a0, -0x278
80003348: 610c         	ld	a1, 0x0(a0)
8000334a: 00158513     	addi	a0, a1, 0x1
8000334e: e82a         	sd	a0, 0x10(sp)
80003350: 02b56163     	bltu	a0, a1, 0x80003372 <.Lpcrel_hi303>
80003354: a809         	j	0x80003366 <.Lpcrel_hi302>

0000000080003356 <.Lpcrel_hi301>:
80003356: 00004517     	auipc	a0, 0x4
8000335a: 0da50513     	addi	a0, a0, 0xda
8000335e: 00002097     	auipc	ra, 0x2
80003362: 77a080e7     	jalr	0x77a(ra) <core::panicking::panic_null_pointer_dereference::hbac6411af4f2e916>

0000000080003366 <.Lpcrel_hi302>:
80003366: 00005517     	auipc	a0, 0x5
8000336a: d6250513     	addi	a0, a0, -0x29e
8000336e: e911         	bnez	a0, 0x80003382 <.Lpcrel_hi303+0x10>
80003370: a025         	j	0x80003398 <.Lpcrel_hi305>

0000000080003372 <.Lpcrel_hi303>:
80003372: 00004517     	auipc	a0, 0x4
80003376: 0be50513     	addi	a0, a0, 0xbe
8000337a: 00002097     	auipc	ra, 0x2
8000337e: 6b6080e7     	jalr	0x6b6(ra) <core::panicking::panic_const::panic_const_add_overflow::h67cba067093910f8>
80003382: 7502         	ld	a0, 0x20(sp)
80003384: 65c2         	ld	a1, 0x10(sp)

0000000080003386 <.Lpcrel_hi304>:
80003386: 00005617     	auipc	a2, 0x5
8000338a: d4260613     	addi	a2, a2, -0x2be
8000338e: e20c         	sd	a1, 0x0(a2)
80003390: 458d         	li	a1, 0x3
80003392: 00b56b63     	bltu	a0, a1, 0x800033a8 <.Lpcrel_hi306>
80003396: a839         	j	0x800033b4 <.Lpcrel_hi306+0xc>

0000000080003398 <.Lpcrel_hi305>:
80003398: 00004517     	auipc	a0, 0x4
8000339c: 09850513     	addi	a0, a0, 0x98
800033a0: 00002097     	auipc	ra, 0x2
800033a4: 738080e7     	jalr	0x738(ra) <core::panicking::panic_null_pointer_dereference::hbac6411af4f2e916>

00000000800033a8 <.Lpcrel_hi306>:
800033a8: 00005517     	auipc	a0, 0x5
800033ac: d4050513     	addi	a0, a0, -0x2c0
800033b0: ed01         	bnez	a0, 0x800033c8 <.Lpcrel_hi307+0x12>
800033b2: a82d         	j	0x800033ec <.Lpcrel_hi309>
800033b4: 7502         	ld	a0, 0x20(sp)

00000000800033b6 <.Lpcrel_hi307>:
800033b6: 00004597     	auipc	a1, 0x4
800033ba: 09258613     	addi	a2, a1, 0x92
800033be: 458d         	li	a1, 0x3
800033c0: 00002097     	auipc	ra, 0x2
800033c4: 6ac080e7     	jalr	0x6ac(ra) <core::panicking::panic_bounds_check::h6aaee0d15e0261eb>
800033c8: 7502         	ld	a0, 0x20(sp)
800033ca: 25800593     	li	a1, 0x258
800033ce: 02b505b3     	mul	a1, a0, a1

00000000800033d2 <.Lpcrel_hi308>:
800033d2: 00005517     	auipc	a0, 0x5
800033d6: d1650513     	addi	a0, a0, -0x2ea
800033da: 952e         	add	a0, a0, a1
800033dc: 24853583     	ld	a1, 0x248(a0)
800033e0: 00158513     	addi	a0, a1, 0x1
800033e4: e42a         	sd	a0, 0x8(sp)
800033e6: 02b56163     	bltu	a0, a1, 0x80003408 <.Lpcrel_hi311>
800033ea: a809         	j	0x800033fc <.Lpcrel_hi310>

00000000800033ec <.Lpcrel_hi309>:
800033ec: 00004517     	auipc	a0, 0x4
800033f0: 05c50513     	addi	a0, a0, 0x5c
800033f4: 00002097     	auipc	ra, 0x2
800033f8: 6e4080e7     	jalr	0x6e4(ra) <core::panicking::panic_null_pointer_dereference::hbac6411af4f2e916>

00000000800033fc <.Lpcrel_hi310>:
800033fc: 00005517     	auipc	a0, 0x5
80003400: cec50513     	addi	a0, a0, -0x314
80003404: e911         	bnez	a0, 0x80003418 <.Lpcrel_hi311+0x10>
80003406: a83d         	j	0x80003444 <.Lpcrel_hi313>

0000000080003408 <.Lpcrel_hi311>:
80003408: 00004517     	auipc	a0, 0x4
8000340c: 04050513     	addi	a0, a0, 0x40
80003410: 00002097     	auipc	ra, 0x2
80003414: 620080e7     	jalr	0x620(ra) <core::panicking::panic_const::panic_const_add_overflow::h67cba067093910f8>
80003418: 6706         	ld	a4, 0x40(sp)
8000341a: 6662         	ld	a2, 0x18(sp)
8000341c: 7582         	ld	a1, 0x20(sp)
8000341e: 7562         	ld	a0, 0x38(sp)
80003420: 66a2         	ld	a3, 0x8(sp)
80003422: 25800793     	li	a5, 0x258
80003426: 02f58833     	mul	a6, a1, a5

000000008000342a <.Lpcrel_hi312>:
8000342a: 00005797     	auipc	a5, 0x5
8000342e: cbe78793     	addi	a5, a5, -0x342
80003432: 97c2         	add	a5, a5, a6
80003434: 24d7b423     	sd	a3, 0x248(a5)
80003438: 4689         	li	a3, 0x2
8000343a: 00001097     	auipc	ra, 0x1
8000343e: c8e080e7     	jalr	-0x372(ra) <lab5_kernel_task2::switch_to::h1dc032db7d30df18>
80003442: a809         	j	0x80003454 <.Lpcrel_hi313+0x10>

0000000080003444 <.Lpcrel_hi313>:
80003444: 00004517     	auipc	a0, 0x4
80003448: 00450513     	addi	a0, a0, 0x4
8000344c: 00002097     	auipc	ra, 0x2
80003450: 68c080e7     	jalr	0x68c(ra) <core::panicking::panic_null_pointer_dereference::hbac6411af4f2e916>
80003454: 70e6         	ld	ra, 0x78(sp)
80003456: 6109         	addi	sp, sp, 0x80
80003458: 8082         	ret

000000008000345a <lab5_kernel_task2::next_runnable_priority::h2a42faddd81311a2>:
8000345a: 716d         	addi	sp, sp, -0x110
8000345c: e606         	sd	ra, 0x108(sp)
8000345e: f4aa         	sd	a0, 0x68(sp)
80003460: edaa         	sd	a0, 0xd8(sp)
80003462: 0eb103a3     	sb	a1, 0xe7(sp)
80003466: 0025e513     	ori	a0, a1, 0x2
8000346a: 458d         	li	a1, 0x3
8000346c: 00b50763     	beq	a0, a1, 0x8000347a <lab5_kernel_task2::next_runnable_priority::h2a42faddd81311a2+0x20>
80003470: a009         	j	0x80003472 <lab5_kernel_task2::next_runnable_priority::h2a42faddd81311a2+0x18>
80003472: 4501         	li	a0, 0x0
80003474: 08a103a3     	sb	a0, 0x87(sp)
80003478: a029         	j	0x80003482 <lab5_kernel_task2::next_runnable_priority::h2a42faddd81311a2+0x28>
8000347a: 4505         	li	a0, 0x1
8000347c: 08a103a3     	sb	a0, 0x87(sp)
80003480: a009         	j	0x80003482 <lab5_kernel_task2::next_runnable_priority::h2a42faddd81311a2+0x28>
80003482: 557d         	li	a0, -0x1
80003484: e52a         	sd	a0, 0x88(sp)
80003486: 4501         	li	a0, 0x0
80003488: 458d         	li	a1, 0x3
8000348a: ffffd097     	auipc	ra, 0xffffd
8000348e: 3c4080e7     	jalr	0x3c4(ra) <_$LT$I$u20$as$u20$core..iter..traits..collect..IntoIterator$GT$::into_iter::h0bc23e2a2835499a>
80003492: e92a         	sd	a0, 0x90(sp)
80003494: ed2e         	sd	a1, 0x98(sp)
80003496: a009         	j	0x80003498 <lab5_kernel_task2::next_runnable_priority::h2a42faddd81311a2+0x3e>
80003498: 0908         	addi	a0, sp, 0x90
8000349a: ffffd097     	auipc	ra, 0xffffd
8000349e: 38c080e7     	jalr	0x38c(ra) <core::iter::range::_$LT$impl$u20$core..iter..traits..iterator..Iterator$u20$for$u20$core..ops..range..Range$LT$A$GT$$GT$::next::he797165a0feca20e>
800034a2: f12a         	sd	a0, 0xa0(sp)
800034a4: f52e         	sd	a1, 0xa8(sp)
800034a6: 750a         	ld	a0, 0xa0(sp)
800034a8: 8905         	andi	a0, a0, 0x1
800034aa: c919         	beqz	a0, 0x800034c0 <lab5_kernel_task2::next_runnable_priority::h2a42faddd81311a2+0x66>
800034ac: a009         	j	0x800034ae <lab5_kernel_task2::next_runnable_priority::h2a42faddd81311a2+0x54>
800034ae: 752a         	ld	a0, 0xa8(sp)
800034b0: f0aa         	sd	a0, 0x60(sp)
800034b2: e22a         	sd	a0, 0x100(sp)
800034b4: 08714503     	lbu	a0, 0x87(sp)
800034b8: 8905         	andi	a0, a0, 0x1
800034ba: 20051763     	bnez	a0, 0x800036c8 <.Lpcrel_hi326+0x2a>
800034be: aaf5         	j	0x800036ba <.Lpcrel_hi326+0x1c>
800034c0: 652a         	ld	a0, 0x88(sp)
800034c2: 55fd         	li	a1, -0x1
800034c4: 00b50963     	beq	a0, a1, 0x800034d6 <lab5_kernel_task2::next_runnable_priority::h2a42faddd81311a2+0x7c>
800034c8: a009         	j	0x800034ca <lab5_kernel_task2::next_runnable_priority::h2a42faddd81311a2+0x70>
800034ca: 652a         	ld	a0, 0x88(sp)
800034cc: ecaa         	sd	a0, 0x58(sp)
800034ce: 4591         	li	a1, 0x4
800034d0: 00b56663     	bltu	a0, a1, 0x800034dc <.Lpcrel_hi314>
800034d4: a811         	j	0x800034e8 <.Lpcrel_hi314+0xc>
800034d6: 4501         	li	a0, 0x0
800034d8: f8aa         	sd	a0, 0x70(sp)
800034da: a8d1         	j	0x800035ae <.Lpcrel_hi318+0x4e>

00000000800034dc <.Lpcrel_hi314>:
800034dc: 00005517     	auipc	a0, 0x5
800034e0: 99c50513     	addi	a0, a0, -0x664
800034e4: ed01         	bnez	a0, 0x800034fc <.Lpcrel_hi315+0x12>
800034e6: a815         	j	0x8000351a <.Lpcrel_hi317>
800034e8: 6566         	ld	a0, 0x58(sp)

00000000800034ea <.Lpcrel_hi315>:
800034ea: 00004597     	auipc	a1, 0x4
800034ee: f7658613     	addi	a2, a1, -0x8a
800034f2: 4591         	li	a1, 0x4
800034f4: 00002097     	auipc	ra, 0x2
800034f8: 578080e7     	jalr	0x578(ra) <core::panicking::panic_bounds_check::h6aaee0d15e0261eb>
800034fc: 6566         	ld	a0, 0x58(sp)
800034fe: 00351593     	slli	a1, a0, 0x3

0000000080003502 <.Lpcrel_hi316>:
80003502: 00005517     	auipc	a0, 0x5
80003506: 97650513     	addi	a0, a0, -0x68a
8000350a: 952e         	add	a0, a0, a1
8000350c: 6108         	ld	a0, 0x0(a0)
8000350e: e8aa         	sd	a0, 0x50(sp)
80003510: f5aa         	sd	a0, 0xe8(sp)
80003512: 55fd         	li	a1, -0x1
80003514: 02b50263     	beq	a0, a1, 0x80003538 <.Lpcrel_hi317+0x1e>
80003518: a809         	j	0x8000352a <.Lpcrel_hi317+0x10>

000000008000351a <.Lpcrel_hi317>:
8000351a: 00004517     	auipc	a0, 0x4
8000351e: f4650513     	addi	a0, a0, -0xba
80003522: 00002097     	auipc	ra, 0x2
80003526: 5b6080e7     	jalr	0x5b6(ra) <core::panicking::panic_null_pointer_dereference::hbac6411af4f2e916>
8000352a: 65c6         	ld	a1, 0x50(sp)
8000352c: 00158513     	addi	a0, a1, 0x1
80003530: e4aa         	sd	a0, 0x48(sp)
80003532: 02b56763     	bltu	a0, a1, 0x80003560 <.Lpcrel_hi318>
80003536: a021         	j	0x8000353e <.Lpcrel_hi317+0x24>
80003538: 4501         	li	a0, 0x0
8000353a: f92a         	sd	a0, 0xb0(sp)
8000353c: a815         	j	0x80003570 <.Lpcrel_hi318+0x10>
8000353e: 6526         	ld	a0, 0x48(sp)
80003540: aaaab5b7     	lui	a1, 0xaaaab
80003544: aab58593     	addi	a1, a1, -0x555
80003548: 02059613     	slli	a2, a1, 0x20
8000354c: 95b2         	add	a1, a1, a2
8000354e: 02b535b3     	mulhu	a1, a0, a1
80003552: 0015d613     	srli	a2, a1, 0x1
80003556: 99f9         	andi	a1, a1, -0x2
80003558: 95b2         	add	a1, a1, a2
8000355a: 8d0d         	sub	a0, a0, a1
8000355c: f92a         	sd	a0, 0xb0(sp)
8000355e: a809         	j	0x80003570 <.Lpcrel_hi318+0x10>

0000000080003560 <.Lpcrel_hi318>:
80003560: 00004517     	auipc	a0, 0x4
80003564: f1850513     	addi	a0, a0, -0xe8
80003568: 00002097     	auipc	ra, 0x2
8000356c: 4c8080e7     	jalr	0x4c8(ra) <core::panicking::panic_const::panic_const_add_overflow::h67cba067093910f8>
80003570: 4501         	li	a0, 0x0
80003572: 458d         	li	a1, 0x3
80003574: ffffd097     	auipc	ra, 0xffffd
80003578: 2da080e7     	jalr	0x2da(ra) <_$LT$I$u20$as$u20$core..iter..traits..collect..IntoIterator$GT$::into_iter::h0bc23e2a2835499a>
8000357c: fd2a         	sd	a0, 0xb8(sp)
8000357e: e1ae         	sd	a1, 0xc0(sp)
80003580: a009         	j	0x80003582 <.Lpcrel_hi318+0x22>
80003582: 1928         	addi	a0, sp, 0xb8
80003584: ffffd097     	auipc	ra, 0xffffd
80003588: 2a2080e7     	jalr	0x2a2(ra) <core::iter::range::_$LT$impl$u20$core..iter..traits..iterator..Iterator$u20$for$u20$core..ops..range..Range$LT$A$GT$$GT$::next::he797165a0feca20e>
8000358c: e5aa         	sd	a0, 0xc8(sp)
8000358e: e9ae         	sd	a1, 0xd0(sp)
80003590: 652e         	ld	a0, 0xc8(sp)
80003592: 8905         	andi	a0, a0, 0x1
80003594: c911         	beqz	a0, 0x800035a8 <.Lpcrel_hi318+0x48>
80003596: a009         	j	0x80003598 <.Lpcrel_hi318+0x38>
80003598: 654e         	ld	a0, 0xd0(sp)
8000359a: f9aa         	sd	a0, 0xf0(sp)
8000359c: 75ca         	ld	a1, 0xb0(sp)
8000359e: 952e         	add	a0, a0, a1
800035a0: e0aa         	sd	a0, 0x40(sp)
800035a2: 04b56163     	bltu	a0, a1, 0x800035e4 <.Lpcrel_hi319>
800035a6: a809         	j	0x800035b8 <.Lpcrel_hi318+0x58>
800035a8: 4501         	li	a0, 0x0
800035aa: f8aa         	sd	a0, 0x70(sp)
800035ac: a009         	j	0x800035ae <.Lpcrel_hi318+0x4e>
800035ae: 7546         	ld	a0, 0x70(sp)
800035b0: 75e6         	ld	a1, 0x78(sp)
800035b2: 60b2         	ld	ra, 0x108(sp)
800035b4: 6151         	addi	sp, sp, 0x110
800035b6: 8082         	ret
800035b8: 6506         	ld	a0, 0x40(sp)
800035ba: aaaab5b7     	lui	a1, 0xaaaab
800035be: aab58593     	addi	a1, a1, -0x555
800035c2: 02059613     	slli	a2, a1, 0x20
800035c6: 95b2         	add	a1, a1, a2
800035c8: 02b535b3     	mulhu	a1, a0, a1
800035cc: 0015d613     	srli	a2, a1, 0x1
800035d0: 99f9         	andi	a1, a1, -0x2
800035d2: 95b2         	add	a1, a1, a2
800035d4: 8d0d         	sub	a0, a0, a1
800035d6: fc2a         	sd	a0, 0x38(sp)
800035d8: fdaa         	sd	a0, 0xf8(sp)
800035da: 08714503     	lbu	a0, 0x87(sp)
800035de: 8905         	andi	a0, a0, 0x1
800035e0: e10d         	bnez	a0, 0x80003602 <.Lpcrel_hi319+0x1e>
800035e2: a809         	j	0x800035f4 <.Lpcrel_hi319+0x10>

00000000800035e4 <.Lpcrel_hi319>:
800035e4: 00004517     	auipc	a0, 0x4
800035e8: eac50513     	addi	a0, a0, -0x154
800035ec: 00002097     	auipc	ra, 0x2
800035f0: 444080e7     	jalr	0x444(ra) <core::panicking::panic_const::panic_const_add_overflow::h67cba067093910f8>
800035f4: 7562         	ld	a0, 0x38(sp)
800035f6: 458d         	li	a1, 0x3
800035f8: 862a         	mv	a2, a0
800035fa: f832         	sd	a2, 0x30(sp)
800035fc: 00b56963     	bltu	a0, a1, 0x8000360e <.Lpcrel_hi320>
80003600: a829         	j	0x8000361a <.Lpcrel_hi320+0xc>
80003602: 7562         	ld	a0, 0x38(sp)
80003604: 75a6         	ld	a1, 0x68(sp)
80003606: feb517e3     	bne	a0, a1, 0x800035f4 <.Lpcrel_hi319+0x10>
8000360a: a009         	j	0x8000360c <.Lpcrel_hi319+0x28>
8000360c: bf9d         	j	0x80003582 <.Lpcrel_hi318+0x22>

000000008000360e <.Lpcrel_hi320>:
8000360e: 00005517     	auipc	a0, 0x5
80003612: ada50513     	addi	a0, a0, -0x526
80003616: ed01         	bnez	a0, 0x8000362e <.Lpcrel_hi321+0x12>
80003618: a089         	j	0x8000365a <.Lpcrel_hi324>
8000361a: 7542         	ld	a0, 0x30(sp)

000000008000361c <.Lpcrel_hi321>:
8000361c: 00004597     	auipc	a1, 0x4
80003620: e8c58613     	addi	a2, a1, -0x174
80003624: 458d         	li	a1, 0x3
80003626: 00002097     	auipc	ra, 0x2
8000362a: 446080e7     	jalr	0x446(ra) <core::panicking::panic_bounds_check::h6aaee0d15e0261eb>
8000362e: 7562         	ld	a0, 0x38(sp)
80003630: 25800593     	li	a1, 0x258
80003634: 02b505b3     	mul	a1, a0, a1

0000000080003638 <.Lpcrel_hi322>:
80003638: 00005517     	auipc	a0, 0x5
8000363c: ab050513     	addi	a0, a0, -0x550
80003640: 952e         	add	a0, a0, a1
80003642: 25050513     	addi	a0, a0, 0x250

0000000080003646 <.Lpcrel_hi323>:
80003646: 00003597     	auipc	a1, 0x3
8000364a: 89e58593     	addi	a1, a1, -0x762
8000364e: ffffd097     	auipc	ra, 0xffffd
80003652: 11e080e7     	jalr	0x11e(ra) <core::cmp::PartialEq::ne::h719247edabdf4cc9>
80003656: f95d         	bnez	a0, 0x8000360c <.Lpcrel_hi319+0x28>
80003658: a809         	j	0x8000366a <.Lpcrel_hi324+0x10>

000000008000365a <.Lpcrel_hi324>:
8000365a: 00004517     	auipc	a0, 0x4
8000365e: e4e50513     	addi	a0, a0, -0x1b2
80003662: 00002097     	auipc	ra, 0x2
80003666: 476080e7     	jalr	0x476(ra) <core::panicking::panic_null_pointer_dereference::hbac6411af4f2e916>
8000366a: 75e2         	ld	a1, 0x38(sp)
8000366c: 4509         	li	a0, 0x2
8000366e: 862e         	mv	a2, a1
80003670: f432         	sd	a2, 0x28(sp)
80003672: 02b56563     	bltu	a0, a1, 0x8000369c <.Lpcrel_hi325+0x16>
80003676: a009         	j	0x80003678 <.Lpcrel_hi324+0x1e>
80003678: 7662         	ld	a2, 0x38(sp)
8000367a: 00461593     	slli	a1, a2, 0x4
8000367e: 00661513     	slli	a0, a2, 0x6
80003682: 40b505b3     	sub	a1, a0, a1

0000000080003686 <.Lpcrel_hi325>:
80003686: 00004517     	auipc	a0, 0x4
8000368a: 02250513     	addi	a0, a0, 0x22
8000368e: 952e         	add	a0, a0, a1
80003690: 7108         	ld	a0, 0x20(a0)
80003692: 65aa         	ld	a1, 0x88(sp)
80003694: f032         	sd	a2, 0x20(sp)
80003696: 00b50d63     	beq	a0, a1, 0x800036b0 <.Lpcrel_hi326+0x12>
8000369a: bf8d         	j	0x8000360c <.Lpcrel_hi319+0x28>
8000369c: 7522         	ld	a0, 0x28(sp)

000000008000369e <.Lpcrel_hi326>:
8000369e: 00004597     	auipc	a1, 0x4
800036a2: e2258613     	addi	a2, a1, -0x1de
800036a6: 458d         	li	a1, 0x3
800036a8: 00002097     	auipc	ra, 0x2
800036ac: 3c4080e7     	jalr	0x3c4(ra) <core::panicking::panic_bounds_check::h6aaee0d15e0261eb>
800036b0: 7502         	ld	a0, 0x20(sp)
800036b2: fcaa         	sd	a0, 0x78(sp)
800036b4: 4505         	li	a0, 0x1
800036b6: f8aa         	sd	a0, 0x70(sp)
800036b8: bddd         	j	0x800035ae <.Lpcrel_hi318+0x4e>
800036ba: 7506         	ld	a0, 0x60(sp)
800036bc: 458d         	li	a1, 0x3
800036be: 862a         	mv	a2, a0
800036c0: ec32         	sd	a2, 0x18(sp)
800036c2: 00b56963     	bltu	a0, a1, 0x800036d4 <.Lpcrel_hi327>
800036c6: a829         	j	0x800036e0 <.Lpcrel_hi327+0xc>
800036c8: 7506         	ld	a0, 0x60(sp)
800036ca: 75a6         	ld	a1, 0x68(sp)
800036cc: feb517e3     	bne	a0, a1, 0x800036ba <.Lpcrel_hi326+0x1c>
800036d0: a009         	j	0x800036d2 <.Lpcrel_hi326+0x34>
800036d2: b3d9         	j	0x80003498 <lab5_kernel_task2::next_runnable_priority::h2a42faddd81311a2+0x3e>

00000000800036d4 <.Lpcrel_hi327>:
800036d4: 00005517     	auipc	a0, 0x5
800036d8: a1450513     	addi	a0, a0, -0x5ec
800036dc: ed01         	bnez	a0, 0x800036f4 <.Lpcrel_hi328+0x12>
800036de: a089         	j	0x80003720 <.Lpcrel_hi331>
800036e0: 6562         	ld	a0, 0x18(sp)

00000000800036e2 <.Lpcrel_hi328>:
800036e2: 00004597     	auipc	a1, 0x4
800036e6: df658613     	addi	a2, a1, -0x20a
800036ea: 458d         	li	a1, 0x3
800036ec: 00002097     	auipc	ra, 0x2
800036f0: 380080e7     	jalr	0x380(ra) <core::panicking::panic_bounds_check::h6aaee0d15e0261eb>
800036f4: 7506         	ld	a0, 0x60(sp)
800036f6: 25800593     	li	a1, 0x258
800036fa: 02b505b3     	mul	a1, a0, a1

00000000800036fe <.Lpcrel_hi329>:
800036fe: 00005517     	auipc	a0, 0x5
80003702: 9ea50513     	addi	a0, a0, -0x616
80003706: 952e         	add	a0, a0, a1
80003708: 25050513     	addi	a0, a0, 0x250

000000008000370c <.Lpcrel_hi330>:
8000370c: 00002597     	auipc	a1, 0x2
80003710: 7d858593     	addi	a1, a1, 0x7d8
80003714: ffffd097     	auipc	ra, 0xffffd
80003718: 058080e7     	jalr	0x58(ra) <core::cmp::PartialEq::ne::h719247edabdf4cc9>
8000371c: f95d         	bnez	a0, 0x800036d2 <.Lpcrel_hi326+0x34>
8000371e: a809         	j	0x80003730 <.Lpcrel_hi331+0x10>

0000000080003720 <.Lpcrel_hi331>:
80003720: 00004517     	auipc	a0, 0x4
80003724: db850513     	addi	a0, a0, -0x248
80003728: 00002097     	auipc	ra, 0x2
8000372c: 3b0080e7     	jalr	0x3b0(ra) <core::panicking::panic_null_pointer_dereference::hbac6411af4f2e916>
80003730: 7586         	ld	a1, 0x60(sp)
80003732: 4509         	li	a0, 0x2
80003734: 862e         	mv	a2, a1
80003736: e832         	sd	a2, 0x10(sp)
80003738: 02b56363     	bltu	a0, a1, 0x8000375e <.Lpcrel_hi332+0x14>
8000373c: a009         	j	0x8000373e <.Lpcrel_hi331+0x1e>
8000373e: 7506         	ld	a0, 0x60(sp)
80003740: 00451593     	slli	a1, a0, 0x4
80003744: 051a         	slli	a0, a0, 0x6
80003746: 40b505b3     	sub	a1, a0, a1

000000008000374a <.Lpcrel_hi332>:
8000374a: 00004517     	auipc	a0, 0x4
8000374e: f5e50513     	addi	a0, a0, -0xa2
80003752: 952e         	add	a0, a0, a1
80003754: 7108         	ld	a0, 0x20(a0)
80003756: 65aa         	ld	a1, 0x88(sp)
80003758: 00b56d63     	bltu	a0, a1, 0x80003772 <.Lpcrel_hi333+0x12>
8000375c: bf9d         	j	0x800036d2 <.Lpcrel_hi326+0x34>
8000375e: 6542         	ld	a0, 0x10(sp)

0000000080003760 <.Lpcrel_hi333>:
80003760: 00004597     	auipc	a1, 0x4
80003764: d9058613     	addi	a2, a1, -0x270
80003768: 458d         	li	a1, 0x3
8000376a: 00002097     	auipc	ra, 0x2
8000376e: 302080e7     	jalr	0x302(ra) <core::panicking::panic_bounds_check::h6aaee0d15e0261eb>
80003772: 7586         	ld	a1, 0x60(sp)
80003774: 4509         	li	a0, 0x2
80003776: 862e         	mv	a2, a1
80003778: e432         	sd	a2, 0x8(sp)
8000377a: 02b56163     	bltu	a0, a1, 0x8000379c <.Lpcrel_hi334+0x10>
8000377e: a009         	j	0x80003780 <.Lpcrel_hi333+0x20>
80003780: 7506         	ld	a0, 0x60(sp)
80003782: 00451593     	slli	a1, a0, 0x4
80003786: 051a         	slli	a0, a0, 0x6
80003788: 40b505b3     	sub	a1, a0, a1

000000008000378c <.Lpcrel_hi334>:
8000378c: 00004517     	auipc	a0, 0x4
80003790: f1c50513     	addi	a0, a0, -0xe4
80003794: 952e         	add	a0, a0, a1
80003796: 7108         	ld	a0, 0x20(a0)
80003798: e52a         	sd	a0, 0x88(sp)
8000379a: bf25         	j	0x800036d2 <.Lpcrel_hi326+0x34>
8000379c: 6522         	ld	a0, 0x8(sp)

000000008000379e <.Lpcrel_hi335>:
8000379e: 00004597     	auipc	a1, 0x4
800037a2: d6a58613     	addi	a2, a1, -0x296
800037a6: 458d         	li	a1, 0x3
800037a8: 00002097     	auipc	ra, 0x2
800037ac: 2c4080e7     	jalr	0x2c4(ra) <core::panicking::panic_bounds_check::h6aaee0d15e0261eb>

00000000800037b0 <lab5_kernel_task2::enable_timer_interrupts::h3192199af94ab348>:
800037b0: 08000513     	li	a0, 0x80
800037b4: 30452073     	csrs	mie, a0
800037b8: 8082         	ret

00000000800037ba <lab5_kernel_task2::complete_phase_or_finish::hb301a23f45d47b22>:
800037ba: 7175         	addi	sp, sp, -0x90
800037bc: e506         	sd	ra, 0x88(sp)

00000000800037be <.Lpcrel_hi336>:
800037be: 00004517     	auipc	a0, 0x4
800037c2: 6e250513     	addi	a0, a0, 0x6e2
800037c6: c131         	beqz	a0, 0x8000380a <.Lpcrel_hi338>
800037c8: a009         	j	0x800037ca <.Lpcrel_hi337>

00000000800037ca <.Lpcrel_hi337>:
800037ca: 00004517     	auipc	a0, 0x4
800037ce: 6d650513     	addi	a0, a0, 0x6d6
800037d2: 6108         	ld	a0, 0x0(a0)
800037d4: f02a         	sd	a0, 0x20(sp)
800037d6: f8aa         	sd	a0, 0x70(sp)
800037d8: 00000097     	auipc	ra, 0x0
800037dc: 164080e7     	jalr	0x164(ra) <lab5_kernel_task2::disable_timer_interrupts::haf0bf9ac78a3efd8>
800037e0: 00000097     	auipc	ra, 0x0
800037e4: a52080e7     	jalr	-0x5ae(ra) <lab5_kernel_task2::disarm_timer_interrupt::h863fbf65fb6b6af8>
800037e8: 7502         	ld	a0, 0x20(sp)
800037ea: fffff097     	auipc	ra, 0xfffff
800037ee: c76080e7     	jalr	-0x38a(ra) <lab5_kernel_task2::save_phase_summary::hf19759dbf3a825bf>
800037f2: 7502         	ld	a0, 0x20(sp)
800037f4: fffff097     	auipc	ra, 0xfffff
800037f8: 414080e7     	jalr	0x414(ra) <lab5_kernel_task2::print_phase_summary::hfb9030fa752cd05b>
800037fc: 7582         	ld	a1, 0x20(sp)
800037fe: 00158513     	addi	a0, a1, 0x1
80003802: f42a         	sd	a0, 0x28(sp)
80003804: 02b56063     	bltu	a0, a1, 0x80003824 <.Lpcrel_hi339>
80003808: a809         	j	0x8000381a <.Lpcrel_hi338+0x10>

000000008000380a <.Lpcrel_hi338>:
8000380a: 00004517     	auipc	a0, 0x4
8000380e: d1650513     	addi	a0, a0, -0x2ea
80003812: 00002097     	auipc	ra, 0x2
80003816: 2c6080e7     	jalr	0x2c6(ra) <core::panicking::panic_null_pointer_dereference::hbac6411af4f2e916>
8000381a: 7522         	ld	a0, 0x28(sp)
8000381c: 4589         	li	a1, 0x2
8000381e: 00b56f63     	bltu	a0, a1, 0x8000383c <.Lpcrel_hi339+0x18>
80003822: a809         	j	0x80003834 <.Lpcrel_hi339+0x10>

0000000080003824 <.Lpcrel_hi339>:
80003824: 00004517     	auipc	a0, 0x4
80003828: d1450513     	addi	a0, a0, -0x2ec
8000382c: 00002097     	auipc	ra, 0x2
80003830: 204080e7     	jalr	0x204(ra) <core::panicking::panic_const::panic_const_add_overflow::h67cba067093910f8>
80003834: 00000097     	auipc	ra, 0x0
80003838: 370080e7     	jalr	0x370(ra) <lab5_kernel_task2::print_cross_phase_comparison_and_exit::h0e89c88c521f3776>
8000383c: 7582         	ld	a1, 0x20(sp)
8000383e: 4505         	li	a0, 0x1
80003840: 02b56663     	bltu	a0, a1, 0x8000386c <.Lpcrel_hi340+0x18>
80003844: a009         	j	0x80003846 <.Lpcrel_hi339+0x22>
80003846: 7582         	ld	a1, 0x20(sp)
80003848: 00359613     	slli	a2, a1, 0x3
8000384c: 00559513     	slli	a0, a1, 0x5
80003850: 40c50633     	sub	a2, a0, a2

0000000080003854 <.Lpcrel_hi340>:
80003854: 00003517     	auipc	a0, 0x3
80003858: 0f450513     	addi	a0, a0, 0xf4
8000385c: 9532         	add	a0, a0, a2
8000385e: e82a         	sd	a0, 0x10(sp)
80003860: 00158513     	addi	a0, a1, 0x1
80003864: ec2a         	sd	a0, 0x18(sp)
80003866: 02b56263     	bltu	a0, a1, 0x8000388a <.Lpcrel_hi342>
8000386a: a819         	j	0x80003880 <.Lpcrel_hi341+0x12>
8000386c: 7502         	ld	a0, 0x20(sp)

000000008000386e <.Lpcrel_hi341>:
8000386e: 00004597     	auipc	a1, 0x4
80003872: ce258613     	addi	a2, a1, -0x31e
80003876: 4589         	li	a1, 0x2
80003878: 00002097     	auipc	ra, 0x2
8000387c: 1f4080e7     	jalr	0x1f4(ra) <core::panicking::panic_bounds_check::h6aaee0d15e0261eb>
80003880: 6562         	ld	a0, 0x18(sp)
80003882: 4589         	li	a1, 0x2
80003884: 00b56b63     	bltu	a0, a1, 0x8000389a <.Lpcrel_hi342+0x10>
80003888: a059         	j	0x8000390e <.Lpcrel_hi344+0x30>

000000008000388a <.Lpcrel_hi342>:
8000388a: 00004517     	auipc	a0, 0x4
8000388e: cde50513     	addi	a0, a0, -0x322
80003892: 00002097     	auipc	ra, 0x2
80003896: 19e080e7     	jalr	0x19e(ra) <core::panicking::panic_const::panic_const_add_overflow::h67cba067093910f8>
8000389a: 65c2         	ld	a1, 0x10(sp)
8000389c: 6562         	ld	a0, 0x18(sp)
8000389e: 00351613     	slli	a2, a0, 0x3
800038a2: 0516         	slli	a0, a0, 0x5
800038a4: 40c50633     	sub	a2, a0, a2

00000000800038a8 <.Lpcrel_hi343>:
800038a8: 00003517     	auipc	a0, 0x3
800038ac: 0a050513     	addi	a0, a0, 0xa0
800038b0: 9532         	add	a0, a0, a2
800038b2: e02a         	sd	a0, 0x0(sp)
800038b4: fcae         	sd	a1, 0x78(sp)
800038b6: e12a         	sd	a0, 0x80(sp)
800038b8: 0888         	addi	a0, sp, 0x50
800038ba: ffffd097     	auipc	ra, 0xffffd
800038be: a3a080e7     	jalr	-0x5c6(ra) <core::fmt::rt::Argument::new_display::hdf5d30e07b2a6dbf>
800038c2: 6582         	ld	a1, 0x0(sp)
800038c4: 1088         	addi	a0, sp, 0x60
800038c6: ffffd097     	auipc	ra, 0xffffd
800038ca: a2e080e7     	jalr	-0x5d2(ra) <core::fmt::rt::Argument::new_display::hdf5d30e07b2a6dbf>
800038ce: 6566         	ld	a0, 0x58(sp)
800038d0: fc2a         	sd	a0, 0x38(sp)
800038d2: 6546         	ld	a0, 0x50(sp)
800038d4: f82a         	sd	a0, 0x30(sp)
800038d6: 7526         	ld	a0, 0x68(sp)
800038d8: e4aa         	sd	a0, 0x48(sp)
800038da: 7506         	ld	a0, 0x60(sp)
800038dc: e0aa         	sd	a0, 0x40(sp)

00000000800038de <.Lpcrel_hi344>:
800038de: 00003517     	auipc	a0, 0x3
800038e2: 90a50513     	addi	a0, a0, -0x6f6
800038e6: 180c         	addi	a1, sp, 0x30
800038e8: 00001097     	auipc	ra, 0x1
800038ec: 1a6080e7     	jalr	0x1a6(ra) <core::fmt::Arguments::new::h3401af533fb1f279>
800038f0: ffffd097     	auipc	ra, 0xffffd
800038f4: d84080e7     	jalr	-0x27c(ra) <lab5_kernel_task2::console::print::h64393a0152c60ab8>
800038f8: 00000097     	auipc	ra, 0x0
800038fc: eb8080e7     	jalr	-0x148(ra) <lab5_kernel_task2::enable_timer_interrupts::h3192199af94ab348>
80003900: 7582         	ld	a1, 0x20(sp)
80003902: 00158513     	addi	a0, a1, 0x1
80003906: e42a         	sd	a0, 0x8(sp)
80003908: 02b56263     	bltu	a0, a1, 0x8000392c <.Lpcrel_hi346>
8000390c: a819         	j	0x80003922 <.Lpcrel_hi345+0x12>
8000390e: 6562         	ld	a0, 0x18(sp)

0000000080003910 <.Lpcrel_hi345>:
80003910: 00004597     	auipc	a1, 0x4
80003914: c7058613     	addi	a2, a1, -0x390
80003918: 4589         	li	a1, 0x2
8000391a: 00002097     	auipc	ra, 0x2
8000391e: 152080e7     	jalr	0x152(ra) <core::panicking::panic_bounds_check::h6aaee0d15e0261eb>
80003922: 6522         	ld	a0, 0x8(sp)
80003924: ffffd097     	auipc	ra, 0xffffd
80003928: 594080e7     	jalr	0x594(ra) <lab5_kernel_task2::start_phase::hef9746eee2d8406c>

000000008000392c <.Lpcrel_hi346>:
8000392c: 00004517     	auipc	a0, 0x4
80003930: c6c50513     	addi	a0, a0, -0x394
80003934: 00002097     	auipc	ra, 0x2
80003938: 0fc080e7     	jalr	0xfc(ra) <core::panicking::panic_const::panic_const_add_overflow::h67cba067093910f8>

000000008000393c <lab5_kernel_task2::disable_timer_interrupts::haf0bf9ac78a3efd8>:
8000393c: 08000513     	li	a0, 0x80
80003940: 30453073     	csrc	mie, a0
80003944: 8082         	ret

0000000080003946 <lab5_kernel_task2::initialize_tasks_for_phase::hace6cc0b6e834e68>:
80003946: b4010113     	addi	sp, sp, -0x4c0
8000394a: 4a113c23     	sd	ra, 0x4b8(sp)
8000394e: 4501         	li	a0, 0x0
80003950: 458d         	li	a1, 0x3
80003952: ffffd097     	auipc	ra, 0xffffd
80003956: efc080e7     	jalr	-0x104(ra) <_$LT$I$u20$as$u20$core..iter..traits..collect..IntoIterator$GT$::into_iter::h0bc23e2a2835499a>
8000395a: f42a         	sd	a0, 0x28(sp)
8000395c: f82e         	sd	a1, 0x30(sp)
8000395e: a009         	j	0x80003960 <lab5_kernel_task2::initialize_tasks_for_phase::hace6cc0b6e834e68+0x1a>
80003960: 1028         	addi	a0, sp, 0x28
80003962: ffffd097     	auipc	ra, 0xffffd
80003966: ec4080e7     	jalr	-0x13c(ra) <core::iter::range::_$LT$impl$u20$core..iter..traits..iterator..Iterator$u20$for$u20$core..ops..range..Range$LT$A$GT$$GT$::next::he797165a0feca20e>
8000396a: fc2a         	sd	a0, 0x38(sp)
8000396c: e0ae         	sd	a1, 0x40(sp)
8000396e: 7562         	ld	a0, 0x38(sp)
80003970: 8905         	andi	a0, a0, 0x1
80003972: c115         	beqz	a0, 0x80003996 <lab5_kernel_task2::initialize_tasks_for_phase::hace6cc0b6e834e68+0x50>
80003974: a009         	j	0x80003976 <lab5_kernel_task2::initialize_tasks_for_phase::hace6cc0b6e834e68+0x30>
80003976: 6506         	ld	a0, 0x40(sp)
80003978: ec2a         	sd	a0, 0x18(sp)
8000397a: 4aa13823     	sd	a0, 0x4b0(sp)
8000397e: 00a8         	addi	a0, sp, 0x48
80003980: ffffe097     	auipc	ra, 0xffffe
80003984: 216080e7     	jalr	0x216(ra) <lab5_kernel_task2::TaskControlBlock::empty::h4aa0b95255657fc2>
80003988: 6562         	ld	a0, 0x18(sp)
8000398a: 458d         	li	a1, 0x3
8000398c: 862a         	mv	a2, a0
8000398e: f032         	sd	a2, 0x20(sp)
80003990: 00b56863     	bltu	a0, a1, 0x800039a0 <.Lpcrel_hi347>
80003994: a821         	j	0x800039ac <.Lpcrel_hi347+0xc>
80003996: 4b813083     	ld	ra, 0x4b8(sp)
8000399a: 4c010113     	addi	sp, sp, 0x4c0
8000399e: 8082         	ret

00000000800039a0 <.Lpcrel_hi347>:
800039a0: 00004517     	auipc	a0, 0x4
800039a4: 74850513     	addi	a0, a0, 0x748
800039a8: ed01         	bnez	a0, 0x800039c0 <.Lpcrel_hi348+0x12>
800039aa: a089         	j	0x800039ec <.Lpcrel_hi350>
800039ac: 7502         	ld	a0, 0x20(sp)

00000000800039ae <.Lpcrel_hi348>:
800039ae: 00004597     	auipc	a1, 0x4
800039b2: c0258613     	addi	a2, a1, -0x3fe
800039b6: 458d         	li	a1, 0x3
800039b8: 00002097     	auipc	ra, 0x2
800039bc: 0b4080e7     	jalr	0xb4(ra) <core::panicking::panic_bounds_check::h6aaee0d15e0261eb>
800039c0: 6562         	ld	a0, 0x18(sp)
800039c2: 25800613     	li	a2, 0x258
800039c6: 02c505b3     	mul	a1, a0, a2

00000000800039ca <.Lpcrel_hi349>:
800039ca: 00004517     	auipc	a0, 0x4
800039ce: 71e50513     	addi	a0, a0, 0x71e
800039d2: 952e         	add	a0, a0, a1
800039d4: 00ac         	addi	a1, sp, 0x48
800039d6: 00002097     	auipc	ra, 0x2
800039da: 28c080e7     	jalr	0x28c(ra) <memcpy>
800039de: 6562         	ld	a0, 0x18(sp)
800039e0: 458d         	li	a1, 0x3
800039e2: 862a         	mv	a2, a0
800039e4: e832         	sd	a2, 0x10(sp)
800039e6: 00b56b63     	bltu	a0, a1, 0x800039fc <.Lpcrel_hi351>
800039ea: a839         	j	0x80003a08 <.Lpcrel_hi351+0xc>

00000000800039ec <.Lpcrel_hi350>:
800039ec: 00004517     	auipc	a0, 0x4
800039f0: bc450513     	addi	a0, a0, -0x43c
800039f4: 00002097     	auipc	ra, 0x2
800039f8: 0e4080e7     	jalr	0xe4(ra) <core::panicking::panic_null_pointer_dereference::hbac6411af4f2e916>

00000000800039fc <.Lpcrel_hi351>:
800039fc: 00004517     	auipc	a0, 0x4
80003a00: 6ec50513     	addi	a0, a0, 0x6ec
80003a04: ed01         	bnez	a0, 0x80003a1c <.Lpcrel_hi352+0x12>
80003a06: a0a1         	j	0x80003a4e <.Lpcrel_hi354>
80003a08: 6542         	ld	a0, 0x10(sp)

0000000080003a0a <.Lpcrel_hi352>:
80003a0a: 00004597     	auipc	a1, 0x4
80003a0e: bbe58613     	addi	a2, a1, -0x442
80003a12: 458d         	li	a1, 0x3
80003a14: 00002097     	auipc	ra, 0x2
80003a18: 058080e7     	jalr	0x58(ra) <core::panicking::panic_bounds_check::h6aaee0d15e0261eb>
80003a1c: 65e2         	ld	a1, 0x18(sp)
80003a1e: 25800513     	li	a0, 0x258
80003a22: 02a58633     	mul	a2, a1, a0

0000000080003a26 <.Lpcrel_hi353>:
80003a26: 00004517     	auipc	a0, 0x4
80003a2a: 6c250513     	addi	a0, a0, 0x6c2
80003a2e: 962a         	add	a2, a2, a0
80003a30: 4501         	li	a0, 0x0
80003a32: 24a60823     	sb	a0, 0x250(a2)
80003a36: 1508         	addi	a0, sp, 0x2a0
80003a38: fffff097     	auipc	ra, 0xfffff
80003a3c: ee0080e7     	jalr	-0x120(ra) <lab5_kernel_task2::build_initial_frame::hf2fd58862e14e286>
80003a40: 6562         	ld	a0, 0x18(sp)
80003a42: 458d         	li	a1, 0x3
80003a44: 862a         	mv	a2, a0
80003a46: e432         	sd	a2, 0x8(sp)
80003a48: 00b56b63     	bltu	a0, a1, 0x80003a5e <.Lpcrel_hi355>
80003a4c: a839         	j	0x80003a6a <.Lpcrel_hi355+0xc>

0000000080003a4e <.Lpcrel_hi354>:
80003a4e: 00004517     	auipc	a0, 0x4
80003a52: b7a50513     	addi	a0, a0, -0x486
80003a56: 00002097     	auipc	ra, 0x2
80003a5a: 082080e7     	jalr	0x82(ra) <core::panicking::panic_null_pointer_dereference::hbac6411af4f2e916>

0000000080003a5e <.Lpcrel_hi355>:
80003a5e: 00004517     	auipc	a0, 0x4
80003a62: 68a50513     	addi	a0, a0, 0x68a
80003a66: ed01         	bnez	a0, 0x80003a7e <.Lpcrel_hi356+0x12>
80003a68: a82d         	j	0x80003aa2 <.Lpcrel_hi358>
80003a6a: 6522         	ld	a0, 0x8(sp)

0000000080003a6c <.Lpcrel_hi356>:
80003a6c: 00004597     	auipc	a1, 0x4
80003a70: b7458613     	addi	a2, a1, -0x48c
80003a74: 458d         	li	a1, 0x3
80003a76: 00002097     	auipc	ra, 0x2
80003a7a: ff6080e7     	jalr	-0xa(ra) <core::panicking::panic_bounds_check::h6aaee0d15e0261eb>
80003a7e: 6562         	ld	a0, 0x18(sp)
80003a80: 25800593     	li	a1, 0x258
80003a84: 02b505b3     	mul	a1, a0, a1

0000000080003a88 <.Lpcrel_hi357>:
80003a88: 00004517     	auipc	a0, 0x4
80003a8c: 66050513     	addi	a0, a0, 0x660
80003a90: 952e         	add	a0, a0, a1
80003a92: 150c         	addi	a1, sp, 0x2a0
80003a94: 21000613     	li	a2, 0x210
80003a98: 00002097     	auipc	ra, 0x2
80003a9c: 1ca080e7     	jalr	0x1ca(ra) <memcpy>
80003aa0: b5c1         	j	0x80003960 <lab5_kernel_task2::initialize_tasks_for_phase::hace6cc0b6e834e68+0x1a>

0000000080003aa2 <.Lpcrel_hi358>:
80003aa2: 00004517     	auipc	a0, 0x4
80003aa6: b3e50513     	addi	a0, a0, -0x4c2
80003aaa: 00002097     	auipc	ra, 0x2
80003aae: 02e080e7     	jalr	0x2e(ra) <core::panicking::panic_null_pointer_dereference::hbac6411af4f2e916>

0000000080003ab2 <lab5_kernel_task2::choose_initial_priority_task::h7fd320a1dcf5ee6e>:
80003ab2: 711d         	addi	sp, sp, -0x60
80003ab4: ec86         	sd	ra, 0x58(sp)
80003ab6: 4501         	li	a0, 0x0
80003ab8: f02a         	sd	a0, 0x20(sp)
80003aba: 55fd         	li	a1, -0x1
80003abc: f42e         	sd	a1, 0x28(sp)
80003abe: 458d         	li	a1, 0x3
80003ac0: ffffd097     	auipc	ra, 0xffffd
80003ac4: d8e080e7     	jalr	-0x272(ra) <_$LT$I$u20$as$u20$core..iter..traits..collect..IntoIterator$GT$::into_iter::h0bc23e2a2835499a>
80003ac8: f82a         	sd	a0, 0x30(sp)
80003aca: fc2e         	sd	a1, 0x38(sp)
80003acc: a009         	j	0x80003ace <lab5_kernel_task2::choose_initial_priority_task::h7fd320a1dcf5ee6e+0x1c>
80003ace: 1808         	addi	a0, sp, 0x30
80003ad0: ffffd097     	auipc	ra, 0xffffd
80003ad4: d56080e7     	jalr	-0x2aa(ra) <core::iter::range::_$LT$impl$u20$core..iter..traits..iterator..Iterator$u20$for$u20$core..ops..range..Range$LT$A$GT$$GT$::next::he797165a0feca20e>
80003ad8: e0aa         	sd	a0, 0x40(sp)
80003ada: e4ae         	sd	a1, 0x48(sp)
80003adc: 6506         	ld	a0, 0x40(sp)
80003ade: 8905         	andi	a0, a0, 0x1
80003ae0: c919         	beqz	a0, 0x80003af6 <lab5_kernel_task2::choose_initial_priority_task::h7fd320a1dcf5ee6e+0x44>
80003ae2: a009         	j	0x80003ae4 <lab5_kernel_task2::choose_initial_priority_task::h7fd320a1dcf5ee6e+0x32>
80003ae4: 6526         	ld	a0, 0x48(sp)
80003ae6: e82a         	sd	a0, 0x10(sp)
80003ae8: e8aa         	sd	a0, 0x50(sp)
80003aea: 458d         	li	a1, 0x3
80003aec: 862a         	mv	a2, a0
80003aee: ec32         	sd	a2, 0x18(sp)
80003af0: 00b56763     	bltu	a0, a1, 0x80003afe <lab5_kernel_task2::choose_initial_priority_task::h7fd320a1dcf5ee6e+0x4c>
80003af4: a035         	j	0x80003b20 <.Lpcrel_hi359+0x16>
80003af6: 7502         	ld	a0, 0x20(sp)
80003af8: 60e6         	ld	ra, 0x58(sp)
80003afa: 6125         	addi	sp, sp, 0x60
80003afc: 8082         	ret
80003afe: 6542         	ld	a0, 0x10(sp)
80003b00: 00451593     	slli	a1, a0, 0x4
80003b04: 051a         	slli	a0, a0, 0x6
80003b06: 40b505b3     	sub	a1, a0, a1

0000000080003b0a <.Lpcrel_hi359>:
80003b0a: 00004517     	auipc	a0, 0x4
80003b0e: b9e50513     	addi	a0, a0, -0x462
80003b12: 952e         	add	a0, a0, a1
80003b14: 7108         	ld	a0, 0x20(a0)
80003b16: 75a2         	ld	a1, 0x28(sp)
80003b18: 00b56e63     	bltu	a0, a1, 0x80003b34 <.Lpcrel_hi360+0x12>
80003b1c: a009         	j	0x80003b1e <.Lpcrel_hi359+0x14>
80003b1e: bf45         	j	0x80003ace <lab5_kernel_task2::choose_initial_priority_task::h7fd320a1dcf5ee6e+0x1c>
80003b20: 6562         	ld	a0, 0x18(sp)

0000000080003b22 <.Lpcrel_hi360>:
80003b22: 00004597     	auipc	a1, 0x4
80003b26: ad658613     	addi	a2, a1, -0x52a
80003b2a: 458d         	li	a1, 0x3
80003b2c: 00002097     	auipc	ra, 0x2
80003b30: f40080e7     	jalr	-0xc0(ra) <core::panicking::panic_bounds_check::h6aaee0d15e0261eb>
80003b34: 65c2         	ld	a1, 0x10(sp)
80003b36: 4509         	li	a0, 0x2
80003b38: 862e         	mv	a2, a1
80003b3a: e432         	sd	a2, 0x8(sp)
80003b3c: 02b56363     	bltu	a0, a1, 0x80003b62 <.Lpcrel_hi361+0x12>
80003b40: a009         	j	0x80003b42 <.Lpcrel_hi360+0x20>
80003b42: 6542         	ld	a0, 0x10(sp)
80003b44: 00451613     	slli	a2, a0, 0x4
80003b48: 00651593     	slli	a1, a0, 0x6
80003b4c: 40c58633     	sub	a2, a1, a2

0000000080003b50 <.Lpcrel_hi361>:
80003b50: 00004597     	auipc	a1, 0x4
80003b54: b5858593     	addi	a1, a1, -0x4a8
80003b58: 95b2         	add	a1, a1, a2
80003b5a: 718c         	ld	a1, 0x20(a1)
80003b5c: f42e         	sd	a1, 0x28(sp)
80003b5e: f02a         	sd	a0, 0x20(sp)
80003b60: bf7d         	j	0x80003b1e <.Lpcrel_hi359+0x14>
80003b62: 6522         	ld	a0, 0x8(sp)

0000000080003b64 <.Lpcrel_hi362>:
80003b64: 00004597     	auipc	a1, 0x4
80003b68: aac58613     	addi	a2, a1, -0x554
80003b6c: 458d         	li	a1, 0x3
80003b6e: 00002097     	auipc	ra, 0x2
80003b72: efe080e7     	jalr	-0x102(ra) <core::panicking::panic_bounds_check::h6aaee0d15e0261eb>

0000000080003b76 <lab5_kernel_task2::arm_next_timer_interrupt_from::h60504da096f24430>:
80003b76: 7179         	addi	sp, sp, -0x30
80003b78: f406         	sd	ra, 0x28(sp)
80003b7a: e42a         	sd	a0, 0x8(sp)
80003b7c: ec2a         	sd	a0, 0x18(sp)
80003b7e: 6591         	lui	a1, 0x4
80003b80: 65058593     	addi	a1, a1, 0x650
80003b84: f02e         	sd	a1, 0x20(sp)
80003b86: 95aa         	add	a1, a1, a0
80003b88: e82e         	sd	a1, 0x10(sp)

0000000080003b8a <.Lpcrel_hi363>:
80003b8a: 00004517     	auipc	a0, 0x4
80003b8e: a9e50613     	addi	a2, a0, -0x562
80003b92: 02004537     	lui	a0, 0x2004
80003b96: ffffc097     	auipc	ra, 0xffffc
80003b9a: 678080e7     	jalr	0x678(ra) <core::ptr::write_volatile::h4e60e2f38ee812c7>
80003b9e: 70a2         	ld	ra, 0x28(sp)
80003ba0: 6145         	addi	sp, sp, 0x30
80003ba2: 8082         	ret

0000000080003ba4 <lab5_kernel_task2::print_cross_phase_comparison_and_exit::h0e89c88c521f3776>:
80003ba4: b0010113     	addi	sp, sp, -0x500
80003ba8: 4e113c23     	sd	ra, 0x4f8(sp)

0000000080003bac <.Lpcrel_hi364>:
80003bac: 00004517     	auipc	a0, 0x4
80003bb0: 30c50513     	addi	a0, a0, 0x30c
80003bb4: c10d         	beqz	a0, 0x80003bd6 <.Lpcrel_hi366>
80003bb6: a009         	j	0x80003bb8 <.Lpcrel_hi365>

0000000080003bb8 <.Lpcrel_hi365>:
80003bb8: 00004517     	auipc	a0, 0x4
80003bbc: 30050593     	addi	a1, a0, 0x300
80003bc0: f42e         	sd	a1, 0x28(sp)
80003bc2: 1808         	addi	a0, sp, 0x30
80003bc4: 10000613     	li	a2, 0x100
80003bc8: 00002097     	auipc	ra, 0x2
80003bcc: 09a080e7     	jalr	0x9a(ra) <memcpy>
80003bd0: 7522         	ld	a0, 0x28(sp)
80003bd2: e911         	bnez	a0, 0x80003be6 <.Lpcrel_hi367>
80003bd4: a89d         	j	0x80003c4a <.Lpcrel_hi368>

0000000080003bd6 <.Lpcrel_hi366>:
80003bd6: 00004517     	auipc	a0, 0x4
80003bda: a6a50513     	addi	a0, a0, -0x596
80003bde: 00002097     	auipc	ra, 0x2
80003be2: efa080e7     	jalr	-0x106(ra) <core::panicking::panic_null_pointer_dereference::hbac6411af4f2e916>

0000000080003be6 <.Lpcrel_hi367>:
80003be6: 00004517     	auipc	a0, 0x4
80003bea: 2d250513     	addi	a0, a0, 0x2d2
80003bee: 10050593     	addi	a1, a0, 0x100
80003bf2: 1a08         	addi	a0, sp, 0x130
80003bf4: 10000613     	li	a2, 0x100
80003bf8: 00002097     	auipc	ra, 0x2
80003bfc: 06a080e7     	jalr	0x6a(ra) <memcpy>
80003c00: 08ac         	addi	a1, sp, 0x58
80003c02: 1c08         	addi	a0, sp, 0x230
80003c04: 04800613     	li	a2, 0x48
80003c08: f032         	sd	a2, 0x20(sp)
80003c0a: 00002097     	auipc	ra, 0x2
80003c0e: 058080e7     	jalr	0x58(ra) <memcpy>
80003c12: 7602         	ld	a2, 0x20(sp)
80003c14: 0aac         	addi	a1, sp, 0x158
80003c16: 1ca8         	addi	a0, sp, 0x278
80003c18: 00002097     	auipc	ra, 0x2
80003c1c: 04a080e7     	jalr	0x4a(ra) <memcpy>
80003c20: 7602         	ld	a2, 0x20(sp)
80003c22: 11ac         	addi	a1, sp, 0xe8
80003c24: 0588         	addi	a0, sp, 0x2c0
80003c26: 00002097     	auipc	ra, 0x2
80003c2a: 03c080e7     	jalr	0x3c(ra) <memcpy>
80003c2e: 7602         	ld	a2, 0x20(sp)
80003c30: 13ac         	addi	a1, sp, 0x1e8
80003c32: 0628         	addi	a0, sp, 0x308
80003c34: 00002097     	auipc	ra, 0x2
80003c38: 02e080e7     	jalr	0x2e(ra) <memcpy>
80003c3c: 28813583     	ld	a1, 0x288(sp)
80003c40: 24013503     	ld	a0, 0x240(sp)
80003c44: 00b56f63     	bltu	a0, a1, 0x80003c62 <.Lpcrel_hi368+0x18>
80003c48: a809         	j	0x80003c5a <.Lpcrel_hi368+0x10>

0000000080003c4a <.Lpcrel_hi368>:
80003c4a: 00004517     	auipc	a0, 0x4
80003c4e: a0e50513     	addi	a0, a0, -0x5f2
80003c52: 00002097     	auipc	ra, 0x2
80003c56: e86080e7     	jalr	-0x17a(ra) <core::panicking::panic_null_pointer_dereference::hbac6411af4f2e916>
80003c5a: 4501         	li	a0, 0x0
80003c5c: 34a10b23     	sb	a0, 0x356(sp)
80003c60: a811         	j	0x80003c74 <.Lpcrel_hi368+0x2a>
80003c62: 29813503     	ld	a0, 0x298(sp)
80003c66: 25013583     	ld	a1, 0x250(sp)
80003c6a: 00b53533     	sltu	a0, a0, a1
80003c6e: 34a10b23     	sb	a0, 0x356(sp)
80003c72: a009         	j	0x80003c74 <.Lpcrel_hi368+0x2a>
80003c74: 29813503     	ld	a0, 0x298(sp)
80003c78: 45a9         	li	a1, 0xa
80003c7a: ffffd097     	auipc	ra, 0xffffd
80003c7e: a7c080e7     	jalr	-0x584(ra) <core::num::_$LT$impl$u20$u64$GT$::saturating_mul::h4f7d2614d44d18c4>
80003c82: e82a         	sd	a0, 0x10(sp)
80003c84: 25013503     	ld	a0, 0x250(sp)
80003c88: 45a1         	li	a1, 0x8
80003c8a: ffffd097     	auipc	ra, 0xffffd
80003c8e: a6c080e7     	jalr	-0x594(ra) <core::num::_$LT$impl$u20$u64$GT$::saturating_mul::h4f7d2614d44d18c4>
80003c92: 85aa         	mv	a1, a0
80003c94: 6542         	ld	a0, 0x10(sp)
80003c96: 00b53533     	sltu	a0, a0, a1
80003c9a: ec2a         	sd	a0, 0x18(sp)
80003c9c: 4ca107a3     	sb	a0, 0x4cf(sp)
80003ca0: 653e         	ld	a0, 0x1c8(sp)
80003ca2: e511         	bnez	a0, 0x80003cae <.Lpcrel_hi368+0x64>
80003ca4: a009         	j	0x80003ca6 <.Lpcrel_hi368+0x5c>
80003ca6: 4501         	li	a0, 0x0
80003ca8: 34a10ba3     	sb	a0, 0x357(sp)
80003cac: a801         	j	0x80003cbc <.Lpcrel_hi368+0x72>
80003cae: 21013503     	ld	a0, 0x210(sp)
80003cb2: 00a03533     	snez	a0, a0
80003cb6: 34a10ba3     	sb	a0, 0x357(sp)
80003cba: a009         	j	0x80003cbc <.Lpcrel_hi368+0x72>
80003cbc: 0c94         	addi	a3, sp, 0x250
80003cbe: 0d30         	addi	a2, sp, 0x298
80003cc0: 048c         	addi	a1, sp, 0x240
80003cc2: 0528         	addi	a0, sp, 0x288
80003cc4: 34d13c23     	sd	a3, 0x358(sp)
80003cc8: 36c13023     	sd	a2, 0x360(sp)
80003ccc: 36b13423     	sd	a1, 0x368(sp)
80003cd0: 36a13823     	sd	a0, 0x370(sp)
80003cd4: 35813583     	ld	a1, 0x358(sp)
80003cd8: 1f28         	addi	a0, sp, 0x3b8
80003cda: ffffc097     	auipc	ra, 0xffffc
80003cde: 5b4080e7     	jalr	0x5b4(ra) <core::fmt::rt::Argument::new_display::h52645e11b6055522>
80003ce2: 36013583     	ld	a1, 0x360(sp)
80003ce6: 07a8         	addi	a0, sp, 0x3c8
80003ce8: ffffc097     	auipc	ra, 0xffffc
80003cec: 5a6080e7     	jalr	0x5a6(ra) <core::fmt::rt::Argument::new_display::h52645e11b6055522>
80003cf0: 36813583     	ld	a1, 0x368(sp)
80003cf4: 0fa8         	addi	a0, sp, 0x3d8
80003cf6: ffffc097     	auipc	ra, 0xffffc
80003cfa: 598080e7     	jalr	0x598(ra) <core::fmt::rt::Argument::new_display::h52645e11b6055522>
80003cfe: 37013583     	ld	a1, 0x370(sp)
80003d02: 17a8         	addi	a0, sp, 0x3e8
80003d04: ffffc097     	auipc	ra, 0xffffc
80003d08: 58a080e7     	jalr	0x58a(ra) <core::fmt::rt::Argument::new_display::h52645e11b6055522>
80003d0c: 3c013503     	ld	a0, 0x3c0(sp)
80003d10: 38a13023     	sd	a0, 0x380(sp)
80003d14: 3b813503     	ld	a0, 0x3b8(sp)
80003d18: 36a13c23     	sd	a0, 0x378(sp)
80003d1c: 3d013503     	ld	a0, 0x3d0(sp)
80003d20: 38a13823     	sd	a0, 0x390(sp)
80003d24: 3c813503     	ld	a0, 0x3c8(sp)
80003d28: 38a13423     	sd	a0, 0x388(sp)
80003d2c: 3e013503     	ld	a0, 0x3e0(sp)
80003d30: 3aa13023     	sd	a0, 0x3a0(sp)
80003d34: 3d813503     	ld	a0, 0x3d8(sp)
80003d38: 38a13c23     	sd	a0, 0x398(sp)
80003d3c: 3f013503     	ld	a0, 0x3f0(sp)
80003d40: 3aa13823     	sd	a0, 0x3b0(sp)
80003d44: 3e813503     	ld	a0, 0x3e8(sp)
80003d48: 3aa13423     	sd	a0, 0x3a8(sp)

0000000080003d4c <.Lpcrel_hi369>:
80003d4c: 00002517     	auipc	a0, 0x2
80003d50: 50e50513     	addi	a0, a0, 0x50e
80003d54: 1eac         	addi	a1, sp, 0x378
80003d56: 00001097     	auipc	ra, 0x1
80003d5a: da6080e7     	jalr	-0x25a(ra) <core::fmt::Arguments::new::hcc790a4b4ce87757>
80003d5e: ffffd097     	auipc	ra, 0xffffd
80003d62: 916080e7     	jalr	-0x6ea(ra) <lab5_kernel_task2::console::print::h64393a0152c60ab8>
80003d66: 158c         	addi	a1, sp, 0x2e0
80003d68: 1628         	addi	a0, sp, 0x328
80003d6a: e42a         	sd	a0, 0x8(sp)
80003d6c: 4cb13823     	sd	a1, 0x4d0(sp)
80003d70: 4ca13c23     	sd	a0, 0x4d8(sp)
80003d74: 41810513     	addi	a0, sp, 0x418
80003d78: ffffc097     	auipc	ra, 0xffffc
80003d7c: 516080e7     	jalr	0x516(ra) <core::fmt::rt::Argument::new_display::h52645e11b6055522>
80003d80: 65a2         	ld	a1, 0x8(sp)
80003d82: 42810513     	addi	a0, sp, 0x428
80003d86: ffffc097     	auipc	ra, 0xffffc
80003d8a: 508080e7     	jalr	0x508(ra) <core::fmt::rt::Argument::new_display::h52645e11b6055522>
80003d8e: 42013503     	ld	a0, 0x420(sp)
80003d92: 40a13023     	sd	a0, 0x400(sp)
80003d96: 41813503     	ld	a0, 0x418(sp)
80003d9a: 3ea13c23     	sd	a0, 0x3f8(sp)
80003d9e: 43013503     	ld	a0, 0x430(sp)
80003da2: 40a13823     	sd	a0, 0x410(sp)
80003da6: 42813503     	ld	a0, 0x428(sp)
80003daa: 40a13423     	sd	a0, 0x408(sp)

0000000080003dae <.Lpcrel_hi370>:
80003dae: 00002517     	auipc	a0, 0x2
80003db2: 35250513     	addi	a0, a0, 0x352
80003db6: 1fac         	addi	a1, sp, 0x3f8
80003db8: 00001097     	auipc	ra, 0x1
80003dbc: d76080e7     	jalr	-0x28a(ra) <core::fmt::Arguments::new::hff61fa62875b5c34>
80003dc0: ffffd097     	auipc	ra, 0xffffd
80003dc4: 8b4080e7     	jalr	-0x74c(ra) <lab5_kernel_task2::console::print::h64393a0152c60ab8>
80003dc8: 35614503     	lbu	a0, 0x356(sp)
80003dcc: 00000097     	auipc	ra, 0x0
80003dd0: 282080e7     	jalr	0x282(ra) <lab5_kernel_task2::pass_fail::h5073907ec8af902a>
80003dd4: 42a13c23     	sd	a0, 0x438(sp)
80003dd8: 44b13023     	sd	a1, 0x440(sp)
80003ddc: 43810593     	addi	a1, sp, 0x438
80003de0: 4eb13023     	sd	a1, 0x4e0(sp)
80003de4: 45810513     	addi	a0, sp, 0x458
80003de8: ffffc097     	auipc	ra, 0xffffc
80003dec: 50c080e7     	jalr	0x50c(ra) <core::fmt::rt::Argument::new_display::hdf5d30e07b2a6dbf>
80003df0: 46013503     	ld	a0, 0x460(sp)
80003df4: 44a13823     	sd	a0, 0x450(sp)
80003df8: 45813503     	ld	a0, 0x458(sp)
80003dfc: 44a13423     	sd	a0, 0x448(sp)

0000000080003e00 <.Lpcrel_hi371>:
80003e00: 00002517     	auipc	a0, 0x2
80003e04: 34250513     	addi	a0, a0, 0x342
80003e08: 44810593     	addi	a1, sp, 0x448
80003e0c: 00001097     	auipc	ra, 0x1
80003e10: ce6080e7     	jalr	-0x31a(ra) <core::fmt::Arguments::new::hc6cadf2af46b283a>
80003e14: ffffd097     	auipc	ra, 0xffffd
80003e18: 860080e7     	jalr	-0x7a0(ra) <lab5_kernel_task2::console::print::h64393a0152c60ab8>
80003e1c: 6562         	ld	a0, 0x18(sp)
80003e1e: 8905         	andi	a0, a0, 0x1
80003e20: 00000097     	auipc	ra, 0x0
80003e24: 22e080e7     	jalr	0x22e(ra) <lab5_kernel_task2::pass_fail::h5073907ec8af902a>
80003e28: 46a13423     	sd	a0, 0x468(sp)
80003e2c: 46b13823     	sd	a1, 0x470(sp)
80003e30: 46810593     	addi	a1, sp, 0x468
80003e34: 4eb13423     	sd	a1, 0x4e8(sp)
80003e38: 48810513     	addi	a0, sp, 0x488
80003e3c: ffffc097     	auipc	ra, 0xffffc
80003e40: 4b8080e7     	jalr	0x4b8(ra) <core::fmt::rt::Argument::new_display::hdf5d30e07b2a6dbf>
80003e44: 49013503     	ld	a0, 0x490(sp)
80003e48: 48a13023     	sd	a0, 0x480(sp)
80003e4c: 48813503     	ld	a0, 0x488(sp)
80003e50: 46a13c23     	sd	a0, 0x478(sp)

0000000080003e54 <.Lpcrel_hi372>:
80003e54: 00002517     	auipc	a0, 0x2
80003e58: 47050513     	addi	a0, a0, 0x470
80003e5c: 47810593     	addi	a1, sp, 0x478
80003e60: 00001097     	auipc	ra, 0x1
80003e64: c24080e7     	jalr	-0x3dc(ra) <core::fmt::Arguments::new::h1bf8721dcea05055>
80003e68: ffffd097     	auipc	ra, 0xffffd
80003e6c: 80c080e7     	jalr	-0x7f4(ra) <lab5_kernel_task2::console::print::h64393a0152c60ab8>
80003e70: 35714503     	lbu	a0, 0x357(sp)
80003e74: 00000097     	auipc	ra, 0x0
80003e78: 1da080e7     	jalr	0x1da(ra) <lab5_kernel_task2::pass_fail::h5073907ec8af902a>
80003e7c: 48a13c23     	sd	a0, 0x498(sp)
80003e80: 4ab13023     	sd	a1, 0x4a0(sp)
80003e84: 49810593     	addi	a1, sp, 0x498
80003e88: 4eb13823     	sd	a1, 0x4f0(sp)
80003e8c: 4b810513     	addi	a0, sp, 0x4b8
80003e90: ffffc097     	auipc	ra, 0xffffc
80003e94: 464080e7     	jalr	0x464(ra) <core::fmt::rt::Argument::new_display::hdf5d30e07b2a6dbf>
80003e98: 4c013503     	ld	a0, 0x4c0(sp)
80003e9c: 4aa13823     	sd	a0, 0x4b0(sp)
80003ea0: 4b813503     	ld	a0, 0x4b8(sp)
80003ea4: 4aa13423     	sd	a0, 0x4a8(sp)

0000000080003ea8 <.Lpcrel_hi373>:
80003ea8: 00002517     	auipc	a0, 0x2
80003eac: 20550513     	addi	a0, a0, 0x205
80003eb0: 4a810593     	addi	a1, sp, 0x4a8
80003eb4: 00001097     	auipc	ra, 0x1
80003eb8: c02080e7     	jalr	-0x3fe(ra) <core::fmt::Arguments::new::h634d0379f8b20a8b>
80003ebc: ffffc097     	auipc	ra, 0xffffc
80003ec0: 7b8080e7     	jalr	0x7b8(ra) <lab5_kernel_task2::console::print::h64393a0152c60ab8>
80003ec4: 35614503     	lbu	a0, 0x356(sp)
80003ec8: 8905         	andi	a0, a0, 0x1
80003eca: e511         	bnez	a0, 0x80003ed6 <.Lpcrel_hi373+0x2e>
80003ecc: a009         	j	0x80003ece <.Lpcrel_hi373+0x26>
80003ece: 4505         	li	a0, 0x1
80003ed0: 4ca12423     	sw	a0, 0x4c8(sp)
80003ed4: a831         	j	0x80003ef0 <.Lpcrel_hi373+0x48>
80003ed6: 6562         	ld	a0, 0x18(sp)
80003ed8: 8905         	andi	a0, a0, 0x1
80003eda: d975         	beqz	a0, 0x80003ece <.Lpcrel_hi373+0x26>
80003edc: a009         	j	0x80003ede <.Lpcrel_hi373+0x36>
80003ede: 35714503     	lbu	a0, 0x357(sp)
80003ee2: 8905         	andi	a0, a0, 0x1
80003ee4: d56d         	beqz	a0, 0x80003ece <.Lpcrel_hi373+0x26>
80003ee6: a009         	j	0x80003ee8 <.Lpcrel_hi373+0x40>
80003ee8: 4501         	li	a0, 0x0
80003eea: 4ca12423     	sw	a0, 0x4c8(sp)
80003eee: a009         	j	0x80003ef0 <.Lpcrel_hi373+0x48>
80003ef0: 4c812503     	lw	a0, 0x4c8(sp)
80003ef4: 00000097     	auipc	ra, 0x0
80003ef8: 18c080e7     	jalr	0x18c(ra) <lab5_kernel_task2::qemu_exit::h33eac16ec3c335e5>

0000000080003efc <lab5_kernel_task2::read_gp::h488f8cfb94c97023>:
80003efc: 1141         	addi	sp, sp, -0x10
80003efe: 850e         	mv	a0, gp
80003f00: e42a         	sd	a0, 0x8(sp)
80003f02: 6522         	ld	a0, 0x8(sp)
80003f04: 0141         	addi	sp, sp, 0x10
80003f06: 8082         	ret

0000000080003f08 <lab5_kernel_task2::read_tp::h7c945bc2a624f6ee>:
80003f08: 1141         	addi	sp, sp, -0x10
80003f0a: 8512         	mv	a0, tp
80003f0c: e42a         	sd	a0, 0x8(sp)
80003f0e: 6522         	ld	a0, 0x8(sp)
80003f10: 0141         	addi	sp, sp, 0x10
80003f12: 8082         	ret

0000000080003f14 <lab5_kernel_task2::busy_mix::he86482cf9566f18c>:
80003f14: 711d         	addi	sp, sp, -0x60
80003f16: ec86         	sd	ra, 0x58(sp)
80003f18: e42e         	sd	a1, 0x8(sp)
80003f1a: e82a         	sd	a0, 0x10(sp)
80003f1c: f02e         	sd	a1, 0x20(sp)
80003f1e: 4501         	li	a0, 0x0
80003f20: ec2a         	sd	a0, 0x18(sp)
80003f22: a009         	j	0x80003f24 <lab5_kernel_task2::busy_mix::he86482cf9566f18c+0x10>
80003f24: 65a2         	ld	a1, 0x8(sp)
80003f26: 6562         	ld	a0, 0x18(sp)
80003f28: 00b56b63     	bltu	a0, a1, 0x80003f3e <lab5_kernel_task2::busy_mix::he86482cf9566f18c+0x2a>
80003f2c: a009         	j	0x80003f2e <lab5_kernel_task2::busy_mix::he86482cf9566f18c+0x1a>
80003f2e: 6542         	ld	a0, 0x10(sp)
80003f30: ffffc097     	auipc	ra, 0xffffc
80003f34: 124080e7     	jalr	0x124(ra) <core::hint::black_box::hd01a626d15615723>
80003f38: 60e6         	ld	ra, 0x58(sp)
80003f3a: 6125         	addi	sp, sp, 0x60
80003f3c: 8082         	ret
80003f3e: 6542         	ld	a0, 0x10(sp)
80003f40: f42a         	sd	a0, 0x28(sp)
80003f42: 4595         	li	a1, 0x5
80003f44: da2e         	sw	a1, 0x34(sp)
80003f46: ffffc097     	auipc	ra, 0xffffc
80003f4a: 444080e7     	jalr	0x444(ra) <core::intrinsics::rotate_left::hdc95b720462795f7>
80003f4e: 65e2         	ld	a1, 0x18(sp)

0000000080003f50 <.Lpcrel_hi374>:
80003f50: 00003617     	auipc	a2, 0x3
80003f54: 9c060613     	addi	a2, a2, -0x640
80003f58: 6210         	ld	a2, 0x0(a2)
80003f5a: 8db1         	xor	a1, a1, a2
80003f5c: fc2a         	sd	a0, 0x38(sp)
80003f5e: e0ae         	sd	a1, 0x40(sp)
80003f60: 952e         	add	a0, a0, a1
80003f62: e4aa         	sd	a0, 0x48(sp)

0000000080003f64 <.Lpcrel_hi375>:
80003f64: 00003597     	auipc	a1, 0x3
80003f68: 98c58593     	addi	a1, a1, -0x674
80003f6c: 618c         	ld	a1, 0x0(a1)
80003f6e: e8ae         	sd	a1, 0x50(sp)
80003f70: 02b50533     	mul	a0, a0, a1
80003f74: e82a         	sd	a0, 0x10(sp)
80003f76: 65e2         	ld	a1, 0x18(sp)
80003f78: 00158513     	addi	a0, a1, 0x1
80003f7c: e02a         	sd	a0, 0x0(sp)
80003f7e: 00b56663     	bltu	a0, a1, 0x80003f8a <.Lpcrel_hi376>
80003f82: a009         	j	0x80003f84 <.Lpcrel_hi375+0x20>
80003f84: 6502         	ld	a0, 0x0(sp)
80003f86: ec2a         	sd	a0, 0x18(sp)
80003f88: bf71         	j	0x80003f24 <lab5_kernel_task2::busy_mix::he86482cf9566f18c+0x10>

0000000080003f8a <.Lpcrel_hi376>:
80003f8a: 00003517     	auipc	a0, 0x3
80003f8e: 6e650513     	addi	a0, a0, 0x6e6
80003f92: 00002097     	auipc	ra, 0x2
80003f96: a9e080e7     	jalr	-0x562(ra) <core::panicking::panic_const::panic_const_add_overflow::h67cba067093910f8>

0000000080003f9a <lab5_kernel_task2::TaskClass::as_str::h4a7e24ec9f51864f>:
80003f9a: 1101         	addi	sp, sp, -0x20
80003f9c: 00a10fa3     	sb	a0, 0x1f(sp)
80003fa0: c911         	beqz	a0, 0x80003fb4 <.Lpcrel_hi378>
80003fa2: a009         	j	0x80003fa4 <.Lpcrel_hi377>

0000000080003fa4 <.Lpcrel_hi377>:
80003fa4: 00003517     	auipc	a0, 0x3
80003fa8: 79f50513     	addi	a0, a0, 0x79f
80003fac: e42a         	sd	a0, 0x8(sp)
80003fae: 451d         	li	a0, 0x7
80003fb0: e82a         	sd	a0, 0x10(sp)
80003fb2: a809         	j	0x80003fc4 <.Lpcrel_hi378+0x10>

0000000080003fb4 <.Lpcrel_hi378>:
80003fb4: 00003517     	auipc	a0, 0x3
80003fb8: 78450513     	addi	a0, a0, 0x784
80003fbc: e42a         	sd	a0, 0x8(sp)
80003fbe: 452d         	li	a0, 0xb
80003fc0: e82a         	sd	a0, 0x10(sp)
80003fc2: a009         	j	0x80003fc4 <.Lpcrel_hi378+0x10>
80003fc4: 6522         	ld	a0, 0x8(sp)
80003fc6: 65c2         	ld	a1, 0x10(sp)
80003fc8: 6105         	addi	sp, sp, 0x20
80003fca: 8082         	ret

0000000080003fcc <lab5_kernel_task2::clear_bss::h428aaaea936a5caa>:
80003fcc: 715d         	addi	sp, sp, -0x50
80003fce: e486         	sd	ra, 0x48(sp)

0000000080003fd0 <.Lpcrel_hi379>:
80003fd0: 00004517     	auipc	a0, 0x4
80003fd4: ed050593     	addi	a1, a0, -0x130
80003fd8: ec2e         	sd	a1, 0x18(sp)

0000000080003fda <.Lpcrel_hi380>:
80003fda: 00005517     	auipc	a0, 0x5
80003fde: 81650513     	addi	a0, a0, -0x7ea
80003fe2: f02a         	sd	a0, 0x20(sp)
80003fe4: 04b56d63     	bltu	a0, a1, 0x8000403e <.Lpcrel_hi384>
80003fe8: a009         	j	0x80003fea <.Lpcrel_hi381>

0000000080003fea <.Lpcrel_hi381>:
80003fea: 00004517     	auipc	a0, 0x4
80003fee: eb650513     	addi	a0, a0, -0x14a
80003ff2: e02a         	sd	a0, 0x0(sp)
80003ff4: f82a         	sd	a0, 0x30(sp)
80003ff6: 4581         	li	a1, 0x0
80003ff8: e42e         	sd	a1, 0x8(sp)
80003ffa: 02b10fa3     	sb	a1, 0x3f(sp)

0000000080003ffe <.Lpcrel_hi382>:
80003ffe: 00004597     	auipc	a1, 0x4
80004002: 7f258593     	addi	a1, a1, 0x7f2
80004006: 8d89         	sub	a1, a1, a0
80004008: e82e         	sd	a1, 0x10(sp)
8000400a: e0ae         	sd	a1, 0x40(sp)
8000400c: 0015b593     	seqz	a1, a1
80004010: 02b107a3     	sb	a1, 0x2f(sp)
80004014: 02f14603     	lbu	a2, 0x2f(sp)

0000000080004018 <.Lpcrel_hi383>:
80004018: 00004597     	auipc	a1, 0x4
8000401c: 8d058693     	addi	a3, a1, -0x730
80004020: 4585         	li	a1, 0x1
80004022: 00001097     	auipc	ra, 0x1
80004026: b84080e7     	jalr	-0x47c(ra) <core::ptr::write_bytes::precondition_check::h6286dbebc211ef3b>
8000402a: 6502         	ld	a0, 0x0(sp)
8000402c: 65a2         	ld	a1, 0x8(sp)
8000402e: 6642         	ld	a2, 0x10(sp)
80004030: 00002097     	auipc	ra, 0x2
80004034: bbc080e7     	jalr	-0x444(ra) <memset>
80004038: 60a6         	ld	ra, 0x48(sp)
8000403a: 6161         	addi	sp, sp, 0x50
8000403c: 8082         	ret

000000008000403e <.Lpcrel_hi384>:
8000403e: 00003517     	auipc	a0, 0x3
80004042: 71250513     	addi	a0, a0, 0x712
80004046: 00002097     	auipc	ra, 0x2
8000404a: a08080e7     	jalr	-0x5f8(ra) <core::panicking::panic_const::panic_const_sub_overflow::hccc965ba9198de7c>

000000008000404e <lab5_kernel_task2::pass_fail::h5073907ec8af902a>:
8000404e: 1101         	addi	sp, sp, -0x20
80004050: 00a10fa3     	sb	a0, 0x1f(sp)
80004054: e911         	bnez	a0, 0x80004068 <.Lpcrel_hi386>
80004056: a009         	j	0x80004058 <.Lpcrel_hi385>

0000000080004058 <.Lpcrel_hi385>:
80004058: 00003517     	auipc	a0, 0x3
8000405c: 9e850513     	addi	a0, a0, -0x618
80004060: e42a         	sd	a0, 0x8(sp)
80004062: 4511         	li	a0, 0x4
80004064: e82a         	sd	a0, 0x10(sp)
80004066: a809         	j	0x80004078 <.Lpcrel_hi386+0x10>

0000000080004068 <.Lpcrel_hi386>:
80004068: 00003517     	auipc	a0, 0x3
8000406c: 9e050513     	addi	a0, a0, -0x620
80004070: e42a         	sd	a0, 0x8(sp)
80004072: 4511         	li	a0, 0x4
80004074: e82a         	sd	a0, 0x10(sp)
80004076: a009         	j	0x80004078 <.Lpcrel_hi386+0x10>
80004078: 6522         	ld	a0, 0x8(sp)
8000407a: 65c2         	ld	a1, 0x10(sp)
8000407c: 6105         	addi	sp, sp, 0x20
8000407e: 8082         	ret

0000000080004080 <lab5_kernel_task2::qemu_exit::h33eac16ec3c335e5>:
80004080: 1101         	addi	sp, sp, -0x20
80004082: ec06         	sd	ra, 0x18(sp)
80004084: 85aa         	mv	a1, a0
80004086: e42e         	sd	a1, 0x8(sp)
80004088: ca2a         	sw	a0, 0x14(sp)
8000408a: c919         	beqz	a0, 0x800040a0 <lab5_kernel_task2::qemu_exit::h33eac16ec3c335e5+0x20>
8000408c: a009         	j	0x8000408e <lab5_kernel_task2::qemu_exit::h33eac16ec3c335e5+0xe>
8000408e: 6522         	ld	a0, 0x8(sp)
80004090: 0105151b     	slliw	a0, a0, 0x10
80004094: 658d         	lui	a1, 0x3
80004096: 33358593     	addi	a1, a1, 0x333
8000409a: 8d4d         	or	a0, a0, a1
8000409c: c82a         	sw	a0, 0x10(sp)
8000409e: a031         	j	0x800040aa <lab5_kernel_task2::qemu_exit::h33eac16ec3c335e5+0x2a>
800040a0: 6515         	lui	a0, 0x5
800040a2: 55550513     	addi	a0, a0, 0x555
800040a6: c82a         	sw	a0, 0x10(sp)
800040a8: a009         	j	0x800040aa <lab5_kernel_task2::qemu_exit::h33eac16ec3c335e5+0x2a>
800040aa: 45c2         	lw	a1, 0x10(sp)

00000000800040ac <.Lpcrel_hi387>:
800040ac: 00003517     	auipc	a0, 0x3
800040b0: 6bc50613     	addi	a2, a0, 0x6bc
800040b4: 00100537     	lui	a0, 0x100
800040b8: ffffc097     	auipc	ra, 0xffffc
800040bc: 128080e7     	jalr	0x128(ra) <core::ptr::write_volatile::h1a7ca57e34fee515>
800040c0: a009         	j	0x800040c2 <.Lpcrel_hi387+0x16>
800040c2: 0100000f     	fence	w, 0
800040c6: bff5         	j	0x800040c2 <.Lpcrel_hi387+0x16>

00000000800040c8 <lab5_kernel_task2::switch_to::h1dc032db7d30df18>:
800040c8: d4010113     	addi	sp, sp, -0x2c0
800040cc: 2a113c23     	sd	ra, 0x2b8(sp)
800040d0: e4ba         	sd	a4, 0x48(sp)
800040d2: e8b2         	sd	a2, 0x50(sp)
800040d4: ecae         	sd	a1, 0x58(sp)
800040d6: f0aa         	sd	a0, 0x60(sp)
800040d8: 87b6         	mv	a5, a3
800040da: f4be         	sd	a5, 0x68(sp)
800040dc: 28a13423     	sd	a0, 0x288(sp)
800040e0: 28b13823     	sd	a1, 0x290(sp)
800040e4: 28c13c23     	sd	a2, 0x298(sp)
800040e8: 2ad103a3     	sb	a3, 0x2a7(sp)
800040ec: 2ae13423     	sd	a4, 0x2a8(sp)

00000000800040f0 <.Lpcrel_hi388>:
800040f0: 00004517     	auipc	a0, 0x4
800040f4: dc050513     	addi	a0, a0, -0x240
800040f8: cd09         	beqz	a0, 0x80004112 <.Lpcrel_hi390>
800040fa: a009         	j	0x800040fc <.Lpcrel_hi389>

00000000800040fc <.Lpcrel_hi389>:
800040fc: 00004517     	auipc	a0, 0x4
80004100: db450513     	addi	a0, a0, -0x24c
80004104: 610c         	ld	a1, 0x0(a0)
80004106: 00158513     	addi	a0, a1, 0x1
8000410a: e0aa         	sd	a0, 0x40(sp)
8000410c: 02b56163     	bltu	a0, a1, 0x8000412e <.Lpcrel_hi392>
80004110: a809         	j	0x80004122 <.Lpcrel_hi391>

0000000080004112 <.Lpcrel_hi390>:
80004112: 00003517     	auipc	a0, 0x3
80004116: 66e50513     	addi	a0, a0, 0x66e
8000411a: 00002097     	auipc	ra, 0x2
8000411e: 9be080e7     	jalr	-0x642(ra) <core::panicking::panic_null_pointer_dereference::hbac6411af4f2e916>

0000000080004122 <.Lpcrel_hi391>:
80004122: 00004517     	auipc	a0, 0x4
80004126: d8e50513     	addi	a0, a0, -0x272
8000412a: e911         	bnez	a0, 0x8000413e <.Lpcrel_hi392+0x10>
8000412c: a00d         	j	0x8000414e <.Lpcrel_hi394>

000000008000412e <.Lpcrel_hi392>:
8000412e: 00003517     	auipc	a0, 0x3
80004132: 65250513     	addi	a0, a0, 0x652
80004136: 00002097     	auipc	ra, 0x2
8000413a: 8fa080e7     	jalr	-0x706(ra) <core::panicking::panic_const::panic_const_add_overflow::h67cba067093910f8>
8000413e: 6586         	ld	a1, 0x40(sp)

0000000080004140 <.Lpcrel_hi393>:
80004140: 00004517     	auipc	a0, 0x4
80004144: d7050513     	addi	a0, a0, -0x290
80004148: e10c         	sd	a1, 0x0(a0)
8000414a: e911         	bnez	a0, 0x8000415e <.Lpcrel_hi395>
8000414c: a825         	j	0x80004184 <.Lpcrel_hi396>

000000008000414e <.Lpcrel_hi394>:
8000414e: 00003517     	auipc	a0, 0x3
80004152: 63250513     	addi	a0, a0, 0x632
80004156: 00002097     	auipc	ra, 0x2
8000415a: 982080e7     	jalr	-0x67e(ra) <core::panicking::panic_null_pointer_dereference::hbac6411af4f2e916>

000000008000415e <.Lpcrel_hi395>:
8000415e: 00004517     	auipc	a0, 0x4
80004162: d5250513     	addi	a0, a0, -0x2ae
80004166: 6108         	ld	a0, 0x0(a0)
80004168: f82a         	sd	a0, 0x30(sp)
8000416a: 2aa13823     	sd	a0, 0x2b0(sp)
8000416e: ffffe097     	auipc	ra, 0xffffe
80004172: 870080e7     	jalr	-0x790(ra) <lab5_kernel_task2::current_policy::hf87e29c046b13f0e>
80004176: 85aa         	mv	a1, a0
80004178: 6566         	ld	a0, 0x58(sp)
8000417a: fc2e         	sd	a1, 0x38(sp)
8000417c: 458d         	li	a1, 0x3
8000417e: 00b56b63     	bltu	a0, a1, 0x80004194 <.Lpcrel_hi397>
80004182: a839         	j	0x800041a0 <.Lpcrel_hi397+0xc>

0000000080004184 <.Lpcrel_hi396>:
80004184: 00003517     	auipc	a0, 0x3
80004188: 61450513     	addi	a0, a0, 0x614
8000418c: 00002097     	auipc	ra, 0x2
80004190: 94c080e7     	jalr	-0x6b4(ra) <core::panicking::panic_null_pointer_dereference::hbac6411af4f2e916>

0000000080004194 <.Lpcrel_hi397>:
80004194: 00004517     	auipc	a0, 0x4
80004198: f5450513     	addi	a0, a0, -0xac
8000419c: ed01         	bnez	a0, 0x800041b4 <.Lpcrel_hi398+0x12>
8000419e: a82d         	j	0x800041d8 <.Lpcrel_hi400>
800041a0: 6566         	ld	a0, 0x58(sp)

00000000800041a2 <.Lpcrel_hi398>:
800041a2: 00003597     	auipc	a1, 0x3
800041a6: 60e58613     	addi	a2, a1, 0x60e
800041aa: 458d         	li	a1, 0x3
800041ac: 00002097     	auipc	ra, 0x2
800041b0: 8c0080e7     	jalr	-0x740(ra) <core::panicking::panic_bounds_check::h6aaee0d15e0261eb>
800041b4: 6546         	ld	a0, 0x50(sp)
800041b6: 65e6         	ld	a1, 0x58(sp)
800041b8: 25800613     	li	a2, 0x258
800041bc: 02c58633     	mul	a2, a1, a2

00000000800041c0 <.Lpcrel_hi399>:
800041c0: 00004597     	auipc	a1, 0x4
800041c4: f2858593     	addi	a1, a1, -0xd8
800041c8: 95b2         	add	a1, a1, a2
800041ca: 2205b583     	ld	a1, 0x220(a1)
800041ce: f42e         	sd	a1, 0x28(sp)
800041d0: 458d         	li	a1, 0x3
800041d2: 00b56b63     	bltu	a0, a1, 0x800041e8 <.Lpcrel_hi401>
800041d6: a839         	j	0x800041f4 <.Lpcrel_hi401+0xc>

00000000800041d8 <.Lpcrel_hi400>:
800041d8: 00003517     	auipc	a0, 0x3
800041dc: 5d850513     	addi	a0, a0, 0x5d8
800041e0: 00002097     	auipc	ra, 0x2
800041e4: 8f8080e7     	jalr	-0x708(ra) <core::panicking::panic_null_pointer_dereference::hbac6411af4f2e916>

00000000800041e8 <.Lpcrel_hi401>:
800041e8: 00004517     	auipc	a0, 0x4
800041ec: f0050513     	addi	a0, a0, -0x100
800041f0: ed01         	bnez	a0, 0x80004208 <.Lpcrel_hi402+0x12>
800041f2: a889         	j	0x80004244 <.Lpcrel_hi405>
800041f4: 6546         	ld	a0, 0x50(sp)

00000000800041f6 <.Lpcrel_hi402>:
800041f6: 00003597     	auipc	a1, 0x3
800041fa: 5d258613     	addi	a2, a1, 0x5d2
800041fe: 458d         	li	a1, 0x3
80004200: 00002097     	auipc	ra, 0x2
80004204: 86c080e7     	jalr	-0x794(ra) <core::panicking::panic_bounds_check::h6aaee0d15e0261eb>
80004208: 77a2         	ld	a5, 0x28(sp)
8000420a: 6746         	ld	a4, 0x50(sp)
8000420c: 66e6         	ld	a3, 0x58(sp)
8000420e: 7542         	ld	a0, 0x30(sp)
80004210: 7626         	ld	a2, 0x68(sp)
80004212: 75e2         	ld	a1, 0x38(sp)
80004214: 25800813     	li	a6, 0x258
80004218: 030708b3     	mul	a7, a4, a6

000000008000421c <.Lpcrel_hi403>:
8000421c: 00004817     	auipc	a6, 0x4
80004220: ecc80813     	addi	a6, a6, -0x134
80004224: 9846         	add	a6, a6, a7
80004226: 22083803     	ld	a6, 0x220(a6)
8000422a: 8985         	andi	a1, a1, 0x1
8000422c: 0ff67613     	zext.b	a2, a2
80004230: ffffe097     	auipc	ra, 0xffffe
80004234: b8c080e7     	jalr	-0x474(ra) <lab5_kernel_task2::emit_switch_trace::h9d4f628f8d919677>

0000000080004238 <.Lpcrel_hi404>:
80004238: 00004517     	auipc	a0, 0x4
8000423c: c3850513     	addi	a0, a0, -0x3c8
80004240: e911         	bnez	a0, 0x80004254 <.Lpcrel_hi405+0x10>
80004242: a01d         	j	0x80004268 <.Lpcrel_hi407>

0000000080004244 <.Lpcrel_hi405>:
80004244: 00003517     	auipc	a0, 0x3
80004248: 58450513     	addi	a0, a0, 0x584
8000424c: 00002097     	auipc	ra, 0x2
80004250: 88c080e7     	jalr	-0x774(ra) <core::panicking::panic_null_pointer_dereference::hbac6411af4f2e916>
80004254: 6546         	ld	a0, 0x50(sp)

0000000080004256 <.Lpcrel_hi406>:
80004256: 00004597     	auipc	a1, 0x4
8000425a: c1a58593     	addi	a1, a1, -0x3e6
8000425e: e188         	sd	a0, 0x0(a1)
80004260: 458d         	li	a1, 0x3
80004262: 00b56b63     	bltu	a0, a1, 0x80004278 <.Lpcrel_hi408>
80004266: a839         	j	0x80004284 <.Lpcrel_hi408+0xc>

0000000080004268 <.Lpcrel_hi407>:
80004268: 00003517     	auipc	a0, 0x3
8000426c: 57850513     	addi	a0, a0, 0x578
80004270: 00002097     	auipc	ra, 0x2
80004274: 868080e7     	jalr	-0x798(ra) <core::panicking::panic_null_pointer_dereference::hbac6411af4f2e916>

0000000080004278 <.Lpcrel_hi408>:
80004278: 00004517     	auipc	a0, 0x4
8000427c: e7050513     	addi	a0, a0, -0x190
80004280: ed01         	bnez	a0, 0x80004298 <.Lpcrel_hi409+0x12>
80004282: a82d         	j	0x800042bc <.Lpcrel_hi411>
80004284: 6546         	ld	a0, 0x50(sp)

0000000080004286 <.Lpcrel_hi409>:
80004286: 00003597     	auipc	a1, 0x3
8000428a: 57258613     	addi	a2, a1, 0x572
8000428e: 458d         	li	a1, 0x3
80004290: 00001097     	auipc	ra, 0x1
80004294: 7dc080e7     	jalr	0x7dc(ra) <core::panicking::panic_bounds_check::h6aaee0d15e0261eb>
80004298: 6546         	ld	a0, 0x50(sp)
8000429a: 25800593     	li	a1, 0x258
8000429e: 02b505b3     	mul	a1, a0, a1

00000000800042a2 <.Lpcrel_hi410>:
800042a2: 00004517     	auipc	a0, 0x4
800042a6: e4650513     	addi	a0, a0, -0x1ba
800042aa: 952e         	add	a0, a0, a1
800042ac: 21853583     	ld	a1, 0x218(a0)
800042b0: 00158513     	addi	a0, a1, 0x1
800042b4: f02a         	sd	a0, 0x20(sp)
800042b6: 02b56163     	bltu	a0, a1, 0x800042d8 <.Lpcrel_hi413>
800042ba: a809         	j	0x800042cc <.Lpcrel_hi412>

00000000800042bc <.Lpcrel_hi411>:
800042bc: 00003517     	auipc	a0, 0x3
800042c0: 53c50513     	addi	a0, a0, 0x53c
800042c4: 00002097     	auipc	ra, 0x2
800042c8: 814080e7     	jalr	-0x7ec(ra) <core::panicking::panic_null_pointer_dereference::hbac6411af4f2e916>

00000000800042cc <.Lpcrel_hi412>:
800042cc: 00004517     	auipc	a0, 0x4
800042d0: e1c50513     	addi	a0, a0, -0x1e4
800042d4: e911         	bnez	a0, 0x800042e8 <.Lpcrel_hi413+0x10>
800042d6: a815         	j	0x8000430a <.Lpcrel_hi415>

00000000800042d8 <.Lpcrel_hi413>:
800042d8: 00003517     	auipc	a0, 0x3
800042dc: 52050513     	addi	a0, a0, 0x520
800042e0: 00001097     	auipc	ra, 0x1
800042e4: 750080e7     	jalr	0x750(ra) <core::panicking::panic_const::panic_const_add_overflow::h67cba067093910f8>
800042e8: 6546         	ld	a0, 0x50(sp)
800042ea: 7582         	ld	a1, 0x20(sp)
800042ec: 25800613     	li	a2, 0x258
800042f0: 02c506b3     	mul	a3, a0, a2

00000000800042f4 <.Lpcrel_hi414>:
800042f4: 00004617     	auipc	a2, 0x4
800042f8: df460613     	addi	a2, a2, -0x20c
800042fc: 9636         	add	a2, a2, a3
800042fe: 20b63c23     	sd	a1, 0x218(a2)
80004302: 458d         	li	a1, 0x3
80004304: 00b56b63     	bltu	a0, a1, 0x8000431a <.Lpcrel_hi416>
80004308: a839         	j	0x80004326 <.Lpcrel_hi416+0xc>

000000008000430a <.Lpcrel_hi415>:
8000430a: 00003517     	auipc	a0, 0x3
8000430e: 4ee50513     	addi	a0, a0, 0x4ee
80004312: 00001097     	auipc	ra, 0x1
80004316: 7c6080e7     	jalr	0x7c6(ra) <core::panicking::panic_null_pointer_dereference::hbac6411af4f2e916>

000000008000431a <.Lpcrel_hi416>:
8000431a: 00004517     	auipc	a0, 0x4
8000431e: dce50513     	addi	a0, a0, -0x232
80004322: ed01         	bnez	a0, 0x8000433a <.Lpcrel_hi417+0x12>
80004324: a891         	j	0x80004378 <.Lpcrel_hi420>
80004326: 6546         	ld	a0, 0x50(sp)

0000000080004328 <.Lpcrel_hi417>:
80004328: 00003597     	auipc	a1, 0x3
8000432c: 4e858613     	addi	a2, a1, 0x4e8
80004330: 458d         	li	a1, 0x3
80004332: 00001097     	auipc	ra, 0x1
80004336: 73a080e7     	jalr	0x73a(ra) <core::panicking::panic_bounds_check::h6aaee0d15e0261eb>
8000433a: 6526         	ld	a0, 0x48(sp)
8000433c: 65c6         	ld	a1, 0x50(sp)
8000433e: 25800613     	li	a2, 0x258
80004342: 02c58633     	mul	a2, a1, a2

0000000080004346 <.Lpcrel_hi418>:
80004346: 00004597     	auipc	a1, 0x4
8000434a: da258593     	addi	a1, a1, -0x25e
8000434e: 95b2         	add	a1, a1, a2
80004350: 22a5b423     	sd	a0, 0x228(a1)
80004354: ffffd097     	auipc	ra, 0xffffd
80004358: 68a080e7     	jalr	0x68a(ra) <lab5_kernel_task2::current_policy::hf87e29c046b13f0e>
8000435c: 06a10ba3     	sb	a0, 0x77(sp)

0000000080004360 <.Lpcrel_hi419>:
80004360: 00002517     	auipc	a0, 0x2
80004364: 6a850593     	addi	a1, a0, 0x6a8
80004368: 07710513     	addi	a0, sp, 0x77
8000436c: 00000097     	auipc	ra, 0x0
80004370: 1a0080e7     	jalr	0x1a0(ra) <_$LT$lab5_kernel_task2..SchedulerPolicy$u20$as$u20$core..cmp..PartialEq$GT$::eq::h9fb6f4c29ce4be84>
80004374: ed19         	bnez	a0, 0x80004392 <.Lpcrel_hi420+0x1a>
80004376: a809         	j	0x80004388 <.Lpcrel_hi420+0x10>

0000000080004378 <.Lpcrel_hi420>:
80004378: 00003517     	auipc	a0, 0x3
8000437c: 49850513     	addi	a0, a0, 0x498
80004380: 00001097     	auipc	ra, 0x1
80004384: 758080e7     	jalr	0x758(ra) <core::panicking::panic_null_pointer_dereference::hbac6411af4f2e916>
80004388: 6546         	ld	a0, 0x50(sp)
8000438a: 458d         	li	a1, 0x3
8000438c: 08b56663     	bltu	a0, a1, 0x80004418 <.Lpcrel_hi427>
80004390: a851         	j	0x80004424 <.Lpcrel_hi427+0xc>
80004392: 65c6         	ld	a1, 0x50(sp)
80004394: 4509         	li	a0, 0x2
80004396: 02b56463     	bltu	a0, a1, 0x800043be <.Lpcrel_hi421+0x16>
8000439a: a009         	j	0x8000439c <.Lpcrel_hi420+0x24>
8000439c: 6546         	ld	a0, 0x50(sp)
8000439e: 00451593     	slli	a1, a0, 0x4
800043a2: 051a         	slli	a0, a0, 0x6
800043a4: 40b505b3     	sub	a1, a0, a1

00000000800043a8 <.Lpcrel_hi421>:
800043a8: 00003517     	auipc	a0, 0x3
800043ac: 30050513     	addi	a0, a0, 0x300
800043b0: 952e         	add	a0, a0, a1
800043b2: 7108         	ld	a0, 0x20(a0)
800043b4: ec2a         	sd	a0, 0x18(sp)
800043b6: 4591         	li	a1, 0x4
800043b8: 00b56d63     	bltu	a0, a1, 0x800043d2 <.Lpcrel_hi423>
800043bc: a00d         	j	0x800043de <.Lpcrel_hi423+0xc>
800043be: 6546         	ld	a0, 0x50(sp)

00000000800043c0 <.Lpcrel_hi422>:
800043c0: 00003597     	auipc	a1, 0x3
800043c4: 46858613     	addi	a2, a1, 0x468
800043c8: 458d         	li	a1, 0x3
800043ca: 00001097     	auipc	ra, 0x1
800043ce: 6a2080e7     	jalr	0x6a2(ra) <core::panicking::panic_bounds_check::h6aaee0d15e0261eb>

00000000800043d2 <.Lpcrel_hi423>:
800043d2: 00004517     	auipc	a0, 0x4
800043d6: aa650513     	addi	a0, a0, -0x55a
800043da: ed01         	bnez	a0, 0x800043f2 <.Lpcrel_hi424+0x12>
800043dc: a035         	j	0x80004408 <.Lpcrel_hi426>
800043de: 6562         	ld	a0, 0x18(sp)

00000000800043e0 <.Lpcrel_hi424>:
800043e0: 00003597     	auipc	a1, 0x3
800043e4: 46058613     	addi	a2, a1, 0x460
800043e8: 4591         	li	a1, 0x4
800043ea: 00001097     	auipc	ra, 0x1
800043ee: 682080e7     	jalr	0x682(ra) <core::panicking::panic_bounds_check::h6aaee0d15e0261eb>
800043f2: 6546         	ld	a0, 0x50(sp)
800043f4: 65e2         	ld	a1, 0x18(sp)
800043f6: 00359613     	slli	a2, a1, 0x3

00000000800043fa <.Lpcrel_hi425>:
800043fa: 00004597     	auipc	a1, 0x4
800043fe: a7e58593     	addi	a1, a1, -0x582
80004402: 95b2         	add	a1, a1, a2
80004404: e188         	sd	a0, 0x0(a1)
80004406: b749         	j	0x80004388 <.Lpcrel_hi420+0x10>

0000000080004408 <.Lpcrel_hi426>:
80004408: 00003517     	auipc	a0, 0x3
8000440c: 43850513     	addi	a0, a0, 0x438
80004410: 00001097     	auipc	ra, 0x1
80004414: 6c8080e7     	jalr	0x6c8(ra) <core::panicking::panic_null_pointer_dereference::hbac6411af4f2e916>

0000000080004418 <.Lpcrel_hi427>:
80004418: 00004517     	auipc	a0, 0x4
8000441c: cd050513     	addi	a0, a0, -0x330
80004420: ed01         	bnez	a0, 0x80004438 <.Lpcrel_hi428+0x12>
80004422: a891         	j	0x80004476 <.Lpcrel_hi430>
80004424: 6546         	ld	a0, 0x50(sp)

0000000080004426 <.Lpcrel_hi428>:
80004426: 00003597     	auipc	a1, 0x3
8000442a: 43258613     	addi	a2, a1, 0x432
8000442e: 458d         	li	a1, 0x3
80004430: 00001097     	auipc	ra, 0x1
80004434: 63c080e7     	jalr	0x63c(ra) <core::panicking::panic_bounds_check::h6aaee0d15e0261eb>
80004438: 6546         	ld	a0, 0x50(sp)
8000443a: 25800593     	li	a1, 0x258
8000443e: 02b505b3     	mul	a1, a0, a1

0000000080004442 <.Lpcrel_hi429>:
80004442: 00004517     	auipc	a0, 0x4
80004446: ca650513     	addi	a0, a0, -0x35a
8000444a: 95aa         	add	a1, a1, a0
8000444c: 18a8         	addi	a0, sp, 0x78
8000444e: e42a         	sd	a0, 0x8(sp)
80004450: 21000613     	li	a2, 0x210
80004454: e832         	sd	a2, 0x10(sp)
80004456: 00002097     	auipc	ra, 0x2
8000445a: 80c080e7     	jalr	-0x7f4(ra) <memcpy>
8000445e: 65a2         	ld	a1, 0x8(sp)
80004460: 6642         	ld	a2, 0x10(sp)
80004462: 7506         	ld	a0, 0x60(sp)
80004464: 00001097     	auipc	ra, 0x1
80004468: 7fe080e7     	jalr	0x7fe(ra) <memcpy>
8000446c: 2b813083     	ld	ra, 0x2b8(sp)
80004470: 2c010113     	addi	sp, sp, 0x2c0
80004474: 8082         	ret

0000000080004476 <.Lpcrel_hi430>:
80004476: 00003517     	auipc	a0, 0x3
8000447a: 3e250513     	addi	a0, a0, 0x3e2
8000447e: 00001097     	auipc	ra, 0x1
80004482: 65a080e7     	jalr	0x65a(ra) <core::panicking::panic_null_pointer_dereference::hbac6411af4f2e916>

0000000080004486 <lab5_kernel_task2::task_role::hd1432c8f7511664e>:
80004486: 1101         	addi	sp, sp, -0x20
80004488: e02a         	sd	a0, 0x0(sp)
8000448a: ec2a         	sd	a0, 0x18(sp)
8000448c: c505         	beqz	a0, 0x800044b4 <.Lpcrel_hi432>
8000448e: a009         	j	0x80004490 <lab5_kernel_task2::task_role::hd1432c8f7511664e+0xa>
80004490: 6502         	ld	a0, 0x0(sp)
80004492: 4585         	li	a1, 0x1
80004494: 02b50963     	beq	a0, a1, 0x800044c6 <.Lpcrel_hi433>
80004498: a009         	j	0x8000449a <lab5_kernel_task2::task_role::hd1432c8f7511664e+0x14>
8000449a: 6502         	ld	a0, 0x0(sp)
8000449c: 4589         	li	a1, 0x2
8000449e: 02b50d63     	beq	a0, a1, 0x800044d8 <.Lpcrel_hi434>
800044a2: a009         	j	0x800044a4 <.Lpcrel_hi431>

00000000800044a4 <.Lpcrel_hi431>:
800044a4: 00003517     	auipc	a0, 0x3
800044a8: 43750513     	addi	a0, a0, 0x437
800044ac: e42a         	sd	a0, 0x8(sp)
800044ae: 451d         	li	a0, 0x7
800044b0: e82a         	sd	a0, 0x10(sp)
800044b2: a81d         	j	0x800044e8 <.Lpcrel_hi434+0x10>

00000000800044b4 <.Lpcrel_hi432>:
800044b4: 00003517     	auipc	a0, 0x3
800044b8: 3bc50513     	addi	a0, a0, 0x3bc
800044bc: e42a         	sd	a0, 0x8(sp)
800044be: 02c00513     	li	a0, 0x2c
800044c2: e82a         	sd	a0, 0x10(sp)
800044c4: a015         	j	0x800044e8 <.Lpcrel_hi434+0x10>

00000000800044c6 <.Lpcrel_hi433>:
800044c6: 00003517     	auipc	a0, 0x3
800044ca: 3d650513     	addi	a0, a0, 0x3d6
800044ce: e42a         	sd	a0, 0x8(sp)
800044d0: 02000513     	li	a0, 0x20
800044d4: e82a         	sd	a0, 0x10(sp)
800044d6: a809         	j	0x800044e8 <.Lpcrel_hi434+0x10>

00000000800044d8 <.Lpcrel_hi434>:
800044d8: 00003517     	auipc	a0, 0x3
800044dc: 3e450513     	addi	a0, a0, 0x3e4
800044e0: e42a         	sd	a0, 0x8(sp)
800044e2: 457d         	li	a0, 0x1f
800044e4: e82a         	sd	a0, 0x10(sp)
800044e6: a009         	j	0x800044e8 <.Lpcrel_hi434+0x10>
800044e8: 6522         	ld	a0, 0x8(sp)
800044ea: 65c2         	ld	a1, 0x10(sp)
800044ec: 6105         	addi	sp, sp, 0x20
800044ee: 8082         	ret

00000000800044f0 <_$LT$lab5_kernel_task2..TaskState$u20$as$u20$core..cmp..PartialEq$GT$::eq::hf800767fdef7956b>:
800044f0: 1101         	addi	sp, sp, -0x20
800044f2: e02a         	sd	a0, 0x0(sp)
800044f4: e42e         	sd	a1, 0x8(sp)
800044f6: 00054503     	lbu	a0, 0x0(a0)
800044fa: e82a         	sd	a0, 0x10(sp)
800044fc: 0005c583     	lbu	a1, 0x0(a1)
80004500: ec2e         	sd	a1, 0x18(sp)
80004502: 8d2d         	xor	a0, a0, a1
80004504: 00153513     	seqz	a0, a0
80004508: 6105         	addi	sp, sp, 0x20
8000450a: 8082         	ret

000000008000450c <_$LT$lab5_kernel_task2..SchedulerPolicy$u20$as$u20$core..cmp..PartialEq$GT$::eq::h9fb6f4c29ce4be84>:
8000450c: 1101         	addi	sp, sp, -0x20
8000450e: e02a         	sd	a0, 0x0(sp)
80004510: e42e         	sd	a1, 0x8(sp)
80004512: 00054503     	lbu	a0, 0x0(a0)
80004516: e82a         	sd	a0, 0x10(sp)
80004518: 0005c583     	lbu	a1, 0x0(a1)
8000451c: ec2e         	sd	a1, 0x18(sp)
8000451e: 8d2d         	xor	a0, a0, a1
80004520: 00153513     	seqz	a0, a0
80004524: 6105         	addi	sp, sp, 0x20
80004526: 8082         	ret

0000000080004528 <compute_long_entry>:
80004528: 1141         	addi	sp, sp, -0x10
8000452a: e406         	sd	ra, 0x8(sp)

000000008000452c <.Lpcrel_hi435>:
8000452c: 00002517     	auipc	a0, 0x2
80004530: 3d450513     	addi	a0, a0, 0x3d4
80004534: 6108         	ld	a0, 0x0(a0)
80004536: 001255b7     	lui	a1, 0x125
8000453a: f8058593     	addi	a1, a1, -0x80
8000453e: 00000097     	auipc	ra, 0x0
80004542: 9d6080e7     	jalr	-0x62a(ra) <lab5_kernel_task2::busy_mix::he86482cf9566f18c>
80004546: e02a         	sd	a0, 0x0(sp)
80004548: 00000097     	auipc	ra, 0x0
8000454c: 61c080e7     	jalr	0x61c(ra) <lab5_kernel_task2::syscall::finish::h2c4c89ef55c8c36a>

0000000080004550 <compute_short_entry>:
80004550: 1141         	addi	sp, sp, -0x10
80004552: e406         	sd	ra, 0x8(sp)

0000000080004554 <.Lpcrel_hi436>:
80004554: 00002517     	auipc	a0, 0x2
80004558: 3b450513     	addi	a0, a0, 0x3b4
8000455c: 6108         	ld	a0, 0x0(a0)
8000455e: 000925b7     	lui	a1, 0x92
80004562: 7c058593     	addi	a1, a1, 0x7c0
80004566: 00000097     	auipc	ra, 0x0
8000456a: 9ae080e7     	jalr	-0x652(ra) <lab5_kernel_task2::busy_mix::he86482cf9566f18c>
8000456e: e02a         	sd	a0, 0x0(sp)
80004570: 00000097     	auipc	ra, 0x0
80004574: 5f4080e7     	jalr	0x5f4(ra) <lab5_kernel_task2::syscall::finish::h2c4c89ef55c8c36a>

0000000080004578 <interactive_proc_entry>:
80004578: 1101         	addi	sp, sp, -0x20
8000457a: ec06         	sd	ra, 0x18(sp)
8000457c: 4501         	li	a0, 0x0
8000457e: e42a         	sd	a0, 0x8(sp)

0000000080004580 <.Lpcrel_hi437>:
80004580: 00002517     	auipc	a0, 0x2
80004584: 3a850513     	addi	a0, a0, 0x3a8
80004588: 6108         	ld	a0, 0x0(a0)
8000458a: e82a         	sd	a0, 0x10(sp)
8000458c: a009         	j	0x8000458e <.Lpcrel_hi437+0xe>
8000458e: 6522         	ld	a0, 0x8(sp)
80004590: 45a9         	li	a1, 0xa
80004592: 00b56863     	bltu	a0, a1, 0x800045a2 <.Lpcrel_hi437+0x22>
80004596: a009         	j	0x80004598 <.Lpcrel_hi437+0x18>
80004598: 6542         	ld	a0, 0x10(sp)
8000459a: 00000097     	auipc	ra, 0x0
8000459e: 5ca080e7     	jalr	0x5ca(ra) <lab5_kernel_task2::syscall::finish::h2c4c89ef55c8c36a>
800045a2: 6542         	ld	a0, 0x10(sp)
800045a4: 6589         	lui	a1, 0x2
800045a6: 71058593     	addi	a1, a1, 0x710
800045aa: 00000097     	auipc	ra, 0x0
800045ae: 96a080e7     	jalr	-0x696(ra) <lab5_kernel_task2::busy_mix::he86482cf9566f18c>
800045b2: e82a         	sd	a0, 0x10(sp)
800045b4: 00000097     	auipc	ra, 0x0
800045b8: 5ce080e7     	jalr	0x5ce(ra) <lab5_kernel_task2::syscall::yield_now::h8366e0da8d9746bb>
800045bc: 65a2         	ld	a1, 0x8(sp)
800045be: 00158513     	addi	a0, a1, 0x1
800045c2: e02a         	sd	a0, 0x0(sp)
800045c4: 00b56663     	bltu	a0, a1, 0x800045d0 <.Lpcrel_hi438>
800045c8: a009         	j	0x800045ca <.Lpcrel_hi437+0x4a>
800045ca: 6502         	ld	a0, 0x0(sp)
800045cc: e42a         	sd	a0, 0x8(sp)
800045ce: b7c1         	j	0x8000458e <.Lpcrel_hi437+0xe>

00000000800045d0 <.Lpcrel_hi438>:
800045d0: 00003517     	auipc	a0, 0x3
800045d4: 33050513     	addi	a0, a0, 0x330
800045d8: 00001097     	auipc	ra, 0x1
800045dc: 458080e7     	jalr	0x458(ra) <core::panicking::panic_const::panic_const_add_overflow::h67cba067093910f8>

00000000800045e0 <start_kernel>:
800045e0: d3010113     	addi	sp, sp, -0x2d0
800045e4: 2c113423     	sd	ra, 0x2c8(sp)
800045e8: 00000097     	auipc	ra, 0x0
800045ec: 9e4080e7     	jalr	-0x61c(ra) <lab5_kernel_task2::clear_bss::h428aaaea936a5caa>
800045f0: ffffc097     	auipc	ra, 0xffffc
800045f4: f7a080e7     	jalr	-0x86(ra) <lab5_kernel_task2::trap::init_trap_vector::h287c609ebfcd0724>
800045f8: ffffd097     	auipc	ra, 0xffffd
800045fc: cc2080e7     	jalr	-0x33e(ra) <lab5_kernel_task2::configure_pmp::h8b13b65358226b8f>

0000000080004600 <.Lpcrel_hi439>:
80004600: 00003517     	auipc	a0, 0x3
80004604: 31850513     	addi	a0, a0, 0x318
80004608: 45e9         	li	a1, 0x1a
8000460a: ffffc097     	auipc	ra, 0xffffc
8000460e: ae8080e7     	jalr	-0x518(ra) <core::fmt::Arguments::from_str::h33e5b7cf62654f3d>
80004612: ffffc097     	auipc	ra, 0xffffc
80004616: 062080e7     	jalr	0x62(ra) <lab5_kernel_task2::console::print::h64393a0152c60ab8>

000000008000461a <.Lpcrel_hi440>:
8000461a: 00003517     	auipc	a0, 0x3
8000461e: 31850513     	addi	a0, a0, 0x318
80004622: 03700593     	li	a1, 0x37
80004626: ffffc097     	auipc	ra, 0xffffc
8000462a: acc080e7     	jalr	-0x534(ra) <core::fmt::Arguments::from_str::h33e5b7cf62654f3d>
8000462e: ffffc097     	auipc	ra, 0xffffc
80004632: 046080e7     	jalr	0x46(ra) <lab5_kernel_task2::console::print::h64393a0152c60ab8>

0000000080004636 <.Lpcrel_hi441>:
80004636: 00002517     	auipc	a0, 0x2
8000463a: 2b250513     	addi	a0, a0, 0x2b2
8000463e: f82a         	sd	a0, 0x30(sp)

0000000080004640 <.Lpcrel_hi442>:
80004640: 00002517     	auipc	a0, 0x2
80004644: 2d850513     	addi	a0, a0, 0x2d8
80004648: fc2a         	sd	a0, 0x38(sp)

000000008000464a <.Lpcrel_hi443>:
8000464a: 00002517     	auipc	a0, 0x2
8000464e: 2d650513     	addi	a0, a0, 0x2d6
80004652: e0aa         	sd	a0, 0x40(sp)

0000000080004654 <.Lpcrel_hi444>:
80004654: 00002517     	auipc	a0, 0x2
80004658: 28c50513     	addi	a0, a0, 0x28c
8000465c: e4aa         	sd	a0, 0x48(sp)
8000465e: 75c2         	ld	a1, 0x30(sp)
80004660: 0908         	addi	a0, sp, 0x90
80004662: ffffc097     	auipc	ra, 0xffffc
80004666: cd6080e7     	jalr	-0x32a(ra) <core::fmt::rt::Argument::new_lower_hex::hef62858e56d66e45>
8000466a: 75e2         	ld	a1, 0x38(sp)
8000466c: 1108         	addi	a0, sp, 0xa0
8000466e: ffffc097     	auipc	ra, 0xffffc
80004672: cca080e7     	jalr	-0x336(ra) <core::fmt::rt::Argument::new_lower_hex::hef62858e56d66e45>
80004676: 6586         	ld	a1, 0x40(sp)
80004678: 1908         	addi	a0, sp, 0xb0
8000467a: ffffc097     	auipc	ra, 0xffffc
8000467e: c14080e7     	jalr	-0x3ec(ra) <core::fmt::rt::Argument::new_display::h52645e11b6055522>
80004682: 65a6         	ld	a1, 0x48(sp)
80004684: 0188         	addi	a0, sp, 0xc0
80004686: ffffc097     	auipc	ra, 0xffffc
8000468a: c08080e7     	jalr	-0x3f8(ra) <core::fmt::rt::Argument::new_display::h52645e11b6055522>
8000468e: 656a         	ld	a0, 0x98(sp)
80004690: ecaa         	sd	a0, 0x58(sp)
80004692: 654a         	ld	a0, 0x90(sp)
80004694: e8aa         	sd	a0, 0x50(sp)
80004696: 752a         	ld	a0, 0xa8(sp)
80004698: f4aa         	sd	a0, 0x68(sp)
8000469a: 750a         	ld	a0, 0xa0(sp)
8000469c: f0aa         	sd	a0, 0x60(sp)
8000469e: 756a         	ld	a0, 0xb8(sp)
800046a0: fcaa         	sd	a0, 0x78(sp)
800046a2: 754a         	ld	a0, 0xb0(sp)
800046a4: f8aa         	sd	a0, 0x70(sp)
800046a6: 652e         	ld	a0, 0xc8(sp)
800046a8: e52a         	sd	a0, 0x88(sp)
800046aa: 650e         	ld	a0, 0xc0(sp)
800046ac: e12a         	sd	a0, 0x80(sp)

00000000800046ae <.Lpcrel_hi445>:
800046ae: 00003517     	auipc	a0, 0x3
800046b2: 2bb50513     	addi	a0, a0, 0x2bb
800046b6: 088c         	addi	a1, sp, 0x50
800046b8: 00000097     	auipc	ra, 0x0
800046bc: 3ea080e7     	jalr	0x3ea(ra) <core::fmt::Arguments::new::h5480344a3d0bc679>
800046c0: ffffc097     	auipc	ra, 0xffffc
800046c4: fb4080e7     	jalr	-0x4c(ra) <lab5_kernel_task2::console::print::h64393a0152c60ab8>

00000000800046c8 <.Lpcrel_hi446>:
800046c8: 00002517     	auipc	a0, 0x2
800046cc: 28050513     	addi	a0, a0, 0x280
800046d0: ec2a         	sd	a0, 0x18(sp)
800046d2: 01054503     	lbu	a0, 0x10(a0)
800046d6: ffffd097     	auipc	ra, 0xffffd
800046da: 48e080e7     	jalr	0x48e(ra) <lab5_kernel_task2::SchedulerPolicy::as_str::h915765f6c5b41e46>
800046de: 862a         	mv	a2, a0
800046e0: 6562         	ld	a0, 0x18(sp)
800046e2: e9b2         	sd	a2, 0xd0(sp)
800046e4: edae         	sd	a1, 0xd8(sp)
800046e6: 02854503     	lbu	a0, 0x28(a0)
800046ea: ffffd097     	auipc	ra, 0xffffd
800046ee: 47a080e7     	jalr	0x47a(ra) <lab5_kernel_task2::SchedulerPolicy::as_str::h915765f6c5b41e46>
800046f2: f1aa         	sd	a0, 0xe0(sp)
800046f4: f5ae         	sd	a1, 0xe8(sp)
800046f6: 098c         	addi	a1, sp, 0xd0
800046f8: 2ab13423     	sd	a1, 0x2a8(sp)
800046fc: 1188         	addi	a0, sp, 0xe0
800046fe: f02a         	sd	a0, 0x20(sp)
80004700: 2aa13823     	sd	a0, 0x2b0(sp)
80004704: 0a08         	addi	a0, sp, 0x110
80004706: ffffc097     	auipc	ra, 0xffffc
8000470a: bee080e7     	jalr	-0x412(ra) <core::fmt::rt::Argument::new_display::hdf5d30e07b2a6dbf>
8000470e: 7582         	ld	a1, 0x20(sp)
80004710: 1208         	addi	a0, sp, 0x120
80004712: ffffc097     	auipc	ra, 0xffffc
80004716: be2080e7     	jalr	-0x41e(ra) <core::fmt::rt::Argument::new_display::hdf5d30e07b2a6dbf>
8000471a: 6572         	ld	a0, 0x118(sp)
8000471c: fdaa         	sd	a0, 0xf8(sp)
8000471e: 6552         	ld	a0, 0x110(sp)
80004720: f9aa         	sd	a0, 0xf0(sp)
80004722: 7532         	ld	a0, 0x128(sp)
80004724: e62a         	sd	a0, 0x108(sp)
80004726: 7512         	ld	a0, 0x120(sp)
80004728: e22a         	sd	a0, 0x100(sp)

000000008000472a <.Lpcrel_hi447>:
8000472a: 00002517     	auipc	a0, 0x2
8000472e: 88450513     	addi	a0, a0, -0x77c
80004732: 198c         	addi	a1, sp, 0xf0
80004734: 00000097     	auipc	ra, 0x0
80004738: 3f0080e7     	jalr	0x3f0(ra) <core::fmt::Arguments::new::hf67fb7ccbb013d14>
8000473c: ffffc097     	auipc	ra, 0xffffc
80004740: f38080e7     	jalr	-0xc8(ra) <lab5_kernel_task2::console::print::h64393a0152c60ab8>

0000000080004744 <.Lpcrel_hi448>:
80004744: 00002517     	auipc	a0, 0x2
80004748: 2c450593     	addi	a1, a0, 0x2c4
8000474c: 2ab13c23     	sd	a1, 0x2b8(sp)

0000000080004750 <.Lpcrel_hi449>:
80004750: 00002517     	auipc	a0, 0x2
80004754: 1e050513     	addi	a0, a0, 0x1e0
80004758: f42a         	sd	a0, 0x28(sp)
8000475a: 2ca13023     	sd	a0, 0x2c0(sp)
8000475e: 0a88         	addi	a0, sp, 0x150
80004760: ffffc097     	auipc	ra, 0xffffc
80004764: b72080e7     	jalr	-0x48e(ra) <core::fmt::rt::Argument::new_display::h9a2f84ed02840749>
80004768: 75a2         	ld	a1, 0x28(sp)
8000476a: 1288         	addi	a0, sp, 0x160
8000476c: ffffc097     	auipc	ra, 0xffffc
80004770: b00080e7     	jalr	-0x500(ra) <core::fmt::rt::Argument::new_display::h009018ea15ddc750>
80004774: 6576         	ld	a0, 0x158(sp)
80004776: fe2a         	sd	a0, 0x138(sp)
80004778: 6556         	ld	a0, 0x150(sp)
8000477a: fa2a         	sd	a0, 0x130(sp)
8000477c: 7536         	ld	a0, 0x168(sp)
8000477e: e6aa         	sd	a0, 0x148(sp)
80004780: 7516         	ld	a0, 0x160(sp)
80004782: e2aa         	sd	a0, 0x140(sp)

0000000080004784 <.Lpcrel_hi450>:
80004784: 00002517     	auipc	a0, 0x2
80004788: 85450513     	addi	a0, a0, -0x7ac
8000478c: 1a0c         	addi	a1, sp, 0x130
8000478e: 00000097     	auipc	ra, 0x0
80004792: 332080e7     	jalr	0x332(ra) <core::fmt::Arguments::new::h98c6efeea8b557a2>
80004796: ffffc097     	auipc	ra, 0xffffc
8000479a: ede080e7     	jalr	-0x122(ra) <lab5_kernel_task2::console::print::h64393a0152c60ab8>
8000479e: 4501         	li	a0, 0x0
800047a0: 458d         	li	a1, 0x3
800047a2: ffffc097     	auipc	ra, 0xffffc
800047a6: 0ac080e7     	jalr	0xac(ra) <_$LT$I$u20$as$u20$core..iter..traits..collect..IntoIterator$GT$::into_iter::h0bc23e2a2835499a>
800047aa: faaa         	sd	a0, 0x170(sp)
800047ac: feae         	sd	a1, 0x178(sp)
800047ae: a009         	j	0x800047b0 <.Lpcrel_hi450+0x2c>
800047b0: 1a88         	addi	a0, sp, 0x170
800047b2: ffffc097     	auipc	ra, 0xffffc
800047b6: 074080e7     	jalr	0x74(ra) <core::iter::range::_$LT$impl$u20$core..iter..traits..iterator..Iterator$u20$for$u20$core..ops..range..Range$LT$A$GT$$GT$::next::he797165a0feca20e>
800047ba: e32a         	sd	a0, 0x180(sp)
800047bc: e72e         	sd	a1, 0x188(sp)
800047be: 651a         	ld	a0, 0x180(sp)
800047c0: 8905         	andi	a0, a0, 0x1
800047c2: c909         	beqz	a0, 0x800047d4 <.Lpcrel_hi450+0x50>
800047c4: a009         	j	0x800047c6 <.Lpcrel_hi450+0x42>
800047c6: 653a         	ld	a0, 0x188(sp)
800047c8: eb2a         	sd	a0, 0x190(sp)
800047ca: 655a         	ld	a0, 0x190(sp)
800047cc: 458d         	li	a1, 0x3
800047ce: 00b56c63     	bltu	a0, a1, 0x800047e6 <.Lpcrel_hi450+0x62>
800047d2: a825         	j	0x8000480a <.Lpcrel_hi451+0x16>
800047d4: fffff097     	auipc	ra, 0xfffff
800047d8: fdc080e7     	jalr	-0x24(ra) <lab5_kernel_task2::enable_timer_interrupts::h3192199af94ab348>
800047dc: 4501         	li	a0, 0x0
800047de: ffffc097     	auipc	ra, 0xffffc
800047e2: 6da080e7     	jalr	0x6da(ra) <lab5_kernel_task2::start_phase::hef9746eee2d8406c>
800047e6: 655a         	ld	a0, 0x190(sp)
800047e8: 00451613     	slli	a2, a0, 0x4
800047ec: 00651593     	slli	a1, a0, 0x6
800047f0: 40c58633     	sub	a2, a1, a2

00000000800047f4 <.Lpcrel_hi451>:
800047f4: 00003597     	auipc	a1, 0x3
800047f8: eb458593     	addi	a1, a1, -0x14c
800047fc: 95b2         	add	a1, a1, a2
800047fe: 05e1         	addi	a1, a1, 0x18
80004800: e82e         	sd	a1, 0x10(sp)
80004802: 458d         	li	a1, 0x3
80004804: 00b56d63     	bltu	a0, a1, 0x8000481e <.Lpcrel_hi452+0x12>
80004808: a825         	j	0x80004840 <.Lpcrel_hi453+0x14>
8000480a: 655a         	ld	a0, 0x190(sp)

000000008000480c <.Lpcrel_hi452>:
8000480c: 00003597     	auipc	a1, 0x3
80004810: 1b458613     	addi	a2, a1, 0x1b4
80004814: 458d         	li	a1, 0x3
80004816: 00001097     	auipc	ra, 0x1
8000481a: 256080e7     	jalr	0x256(ra) <core::panicking::panic_bounds_check::h6aaee0d15e0261eb>
8000481e: 655a         	ld	a0, 0x190(sp)
80004820: 00451613     	slli	a2, a0, 0x4
80004824: 00651593     	slli	a1, a0, 0x6
80004828: 40c58633     	sub	a2, a1, a2

000000008000482c <.Lpcrel_hi453>:
8000482c: 00003597     	auipc	a1, 0x3
80004830: e7c58593     	addi	a1, a1, -0x184
80004834: 95b2         	add	a1, a1, a2
80004836: e42e         	sd	a1, 0x8(sp)
80004838: 458d         	li	a1, 0x3
8000483a: 00b56d63     	bltu	a0, a1, 0x80004854 <.Lpcrel_hi454+0x12>
8000483e: a099         	j	0x80004884 <.Lpcrel_hi455+0x24>
80004840: 655a         	ld	a0, 0x190(sp)

0000000080004842 <.Lpcrel_hi454>:
80004842: 00003597     	auipc	a1, 0x3
80004846: 19658613     	addi	a2, a1, 0x196
8000484a: 458d         	li	a1, 0x3
8000484c: 00001097     	auipc	ra, 0x1
80004850: 220080e7     	jalr	0x220(ra) <core::panicking::panic_bounds_check::h6aaee0d15e0261eb>
80004854: 655a         	ld	a0, 0x190(sp)
80004856: 00451593     	slli	a1, a0, 0x4
8000485a: 051a         	slli	a0, a0, 0x6
8000485c: 40b505b3     	sub	a1, a0, a1

0000000080004860 <.Lpcrel_hi455>:
80004860: 00003517     	auipc	a0, 0x3
80004864: e4850513     	addi	a0, a0, -0x1b8
80004868: 952e         	add	a0, a0, a1
8000486a: 02854503     	lbu	a0, 0x28(a0)
8000486e: fffff097     	auipc	ra, 0xfffff
80004872: 72c080e7     	jalr	0x72c(ra) <lab5_kernel_task2::TaskClass::as_str::h4a7e24ec9f51864f>
80004876: e7aa         	sd	a0, 0x1c8(sp)
80004878: ebae         	sd	a1, 0x1d0(sp)
8000487a: 655a         	ld	a0, 0x190(sp)
8000487c: 458d         	li	a1, 0x3
8000487e: 00b56d63     	bltu	a0, a1, 0x80004898 <.Lpcrel_hi456+0x12>
80004882: aa29         	j	0x8000499c <.Lpcrel_hi458+0x1c>
80004884: 655a         	ld	a0, 0x190(sp)

0000000080004886 <.Lpcrel_hi456>:
80004886: 00003597     	auipc	a1, 0x3
8000488a: 16a58613     	addi	a2, a1, 0x16a
8000488e: 458d         	li	a1, 0x3
80004890: 00001097     	auipc	ra, 0x1
80004894: 1dc080e7     	jalr	0x1dc(ra) <core::panicking::panic_bounds_check::h6aaee0d15e0261eb>
80004898: 655a         	ld	a0, 0x190(sp)
8000489a: 00451613     	slli	a2, a0, 0x4
8000489e: 00651593     	slli	a1, a0, 0x6
800048a2: 40c58633     	sub	a2, a1, a2

00000000800048a6 <.Lpcrel_hi457>:
800048a6: 00003597     	auipc	a1, 0x3
800048aa: e0258593     	addi	a1, a1, -0x1fe
800048ae: 95b2         	add	a1, a1, a2
800048b0: 02058593     	addi	a1, a1, 0x20
800048b4: e02e         	sd	a1, 0x0(sp)
800048b6: 00000097     	auipc	ra, 0x0
800048ba: bd0080e7     	jalr	-0x430(ra) <lab5_kernel_task2::task_role::hd1432c8f7511664e>
800048be: 6642         	ld	a2, 0x10(sp)
800048c0: 872a         	mv	a4, a0
800048c2: 6502         	ld	a0, 0x0(sp)
800048c4: 86ae         	mv	a3, a1
800048c6: 65a2         	ld	a1, 0x8(sp)
800048c8: efba         	sd	a4, 0x1d8(sp)
800048ca: f3b6         	sd	a3, 0x1e0(sp)
800048cc: 0b14         	addi	a3, sp, 0x190
800048ce: ef36         	sd	a3, 0x198(sp)
800048d0: f332         	sd	a2, 0x1a0(sp)
800048d2: f72e         	sd	a1, 0x1a8(sp)
800048d4: 03ac         	addi	a1, sp, 0x1c8
800048d6: fb2e         	sd	a1, 0x1b0(sp)
800048d8: ff2a         	sd	a0, 0x1b8(sp)
800048da: 0ba8         	addi	a0, sp, 0x1d8
800048dc: e3aa         	sd	a0, 0x1c0(sp)
800048de: 65fa         	ld	a1, 0x198(sp)
800048e0: 04a8         	addi	a0, sp, 0x248
800048e2: ffffc097     	auipc	ra, 0xffffc
800048e6: 98a080e7     	jalr	-0x676(ra) <core::fmt::rt::Argument::new_display::h009018ea15ddc750>
800048ea: 759a         	ld	a1, 0x1a0(sp)
800048ec: 0ca8         	addi	a0, sp, 0x258
800048ee: ffffc097     	auipc	ra, 0xffffc
800048f2: 9a0080e7     	jalr	-0x660(ra) <core::fmt::rt::Argument::new_display::h52645e11b6055522>
800048f6: 75ba         	ld	a1, 0x1a8(sp)
800048f8: 14a8         	addi	a0, sp, 0x268
800048fa: ffffc097     	auipc	ra, 0xffffc
800048fe: 9fa080e7     	jalr	-0x606(ra) <core::fmt::rt::Argument::new_display::hdf5d30e07b2a6dbf>
80004902: 75da         	ld	a1, 0x1b0(sp)
80004904: 1ca8         	addi	a0, sp, 0x278
80004906: ffffc097     	auipc	ra, 0xffffc
8000490a: 9ee080e7     	jalr	-0x612(ra) <core::fmt::rt::Argument::new_display::hdf5d30e07b2a6dbf>
8000490e: 75fa         	ld	a1, 0x1b8(sp)
80004910: 0528         	addi	a0, sp, 0x288
80004912: ffffc097     	auipc	ra, 0xffffc
80004916: 95a080e7     	jalr	-0x6a6(ra) <core::fmt::rt::Argument::new_display::h009018ea15ddc750>
8000491a: 659e         	ld	a1, 0x1c0(sp)
8000491c: 0d28         	addi	a0, sp, 0x298
8000491e: ffffc097     	auipc	ra, 0xffffc
80004922: 9d6080e7     	jalr	-0x62a(ra) <core::fmt::rt::Argument::new_display::hdf5d30e07b2a6dbf>
80004926: 25013503     	ld	a0, 0x250(sp)
8000492a: fbaa         	sd	a0, 0x1f0(sp)
8000492c: 24813503     	ld	a0, 0x248(sp)
80004930: f7aa         	sd	a0, 0x1e8(sp)
80004932: 26013503     	ld	a0, 0x260(sp)
80004936: 20a13023     	sd	a0, 0x200(sp)
8000493a: 25813503     	ld	a0, 0x258(sp)
8000493e: ffaa         	sd	a0, 0x1f8(sp)
80004940: 27013503     	ld	a0, 0x270(sp)
80004944: 20a13823     	sd	a0, 0x210(sp)
80004948: 26813503     	ld	a0, 0x268(sp)
8000494c: 20a13423     	sd	a0, 0x208(sp)
80004950: 28013503     	ld	a0, 0x280(sp)
80004954: 22a13023     	sd	a0, 0x220(sp)
80004958: 27813503     	ld	a0, 0x278(sp)
8000495c: 20a13c23     	sd	a0, 0x218(sp)
80004960: 29013503     	ld	a0, 0x290(sp)
80004964: 22a13823     	sd	a0, 0x230(sp)
80004968: 28813503     	ld	a0, 0x288(sp)
8000496c: 22a13423     	sd	a0, 0x228(sp)
80004970: 2a013503     	ld	a0, 0x2a0(sp)
80004974: 24a13023     	sd	a0, 0x240(sp)
80004978: 29813503     	ld	a0, 0x298(sp)
8000497c: 22a13c23     	sd	a0, 0x238(sp)

0000000080004980 <.Lpcrel_hi458>:
80004980: 00001517     	auipc	a0, 0x1
80004984: 56550513     	addi	a0, a0, 0x565
80004988: 13ac         	addi	a1, sp, 0x1e8
8000498a: 00000097     	auipc	ra, 0x0
8000498e: 122080e7     	jalr	0x122(ra) <core::fmt::Arguments::new::h5af3d5aa55a06198>
80004992: ffffc097     	auipc	ra, 0xffffc
80004996: ce2080e7     	jalr	-0x31e(ra) <lab5_kernel_task2::console::print::h64393a0152c60ab8>
8000499a: bd19         	j	0x800047b0 <.Lpcrel_hi450+0x2c>
8000499c: 655a         	ld	a0, 0x190(sp)

000000008000499e <.Lpcrel_hi459>:
8000499e: 00003597     	auipc	a1, 0x3
800049a2: 06a58613     	addi	a2, a1, 0x6a
800049a6: 458d         	li	a1, 0x3
800049a8: 00001097     	auipc	ra, 0x1
800049ac: 0c4080e7     	jalr	0xc4(ra) <core::panicking::panic_bounds_check::h6aaee0d15e0261eb>

00000000800049b0 <core::ptr::const_ptr::_$LT$impl$u20$$BP$const$u20$T$GT$::is_aligned_to::h6d1f60a52017d9e5>:
800049b0: 7139         	addi	sp, sp, -0x40
800049b2: e42e         	sd	a1, 0x8(sp)
800049b4: e82a         	sd	a0, 0x10(sp)
800049b6: ec2a         	sd	a0, 0x18(sp)
800049b8: f02e         	sd	a1, 0x20(sp)
800049ba: 0015d513     	srli	a0, a1, 0x1
800049be: 55555637     	lui	a2, 0x55555
800049c2: 55560613     	addi	a2, a2, 0x555
800049c6: 02061693     	slli	a3, a2, 0x20
800049ca: 9636         	add	a2, a2, a3
800049cc: 8d71         	and	a0, a0, a2
800049ce: 8d89         	sub	a1, a1, a0
800049d0: 33333537     	lui	a0, 0x33333
800049d4: 33350513     	addi	a0, a0, 0x333
800049d8: 02051613     	slli	a2, a0, 0x20
800049dc: 962a         	add	a2, a2, a0
800049de: 00c5f533     	and	a0, a1, a2
800049e2: 8189         	srli	a1, a1, 0x2
800049e4: 8df1         	and	a1, a1, a2
800049e6: 952e         	add	a0, a0, a1
800049e8: 00455593     	srli	a1, a0, 0x4
800049ec: 952e         	add	a0, a0, a1
800049ee: 0f0f15b7     	lui	a1, 0xf0f1
800049f2: f0f58593     	addi	a1, a1, -0xf1
800049f6: 02059613     	slli	a2, a1, 0x20
800049fa: 95b2         	add	a1, a1, a2
800049fc: 8d6d         	and	a0, a0, a1
800049fe: 010105b7     	lui	a1, 0x1010
80004a02: 10158593     	addi	a1, a1, 0x101
80004a06: 02059613     	slli	a2, a1, 0x20
80004a0a: 95b2         	add	a1, a1, a2
80004a0c: 02b50533     	mul	a0, a0, a1
80004a10: 9161         	srli	a0, a0, 0x38
80004a12: d62a         	sw	a0, 0x2c(sp)
80004a14: 5532         	lw	a0, 0x2c(sp)
80004a16: 4585         	li	a1, 0x1
80004a18: 00b51b63     	bne	a0, a1, 0x80004a2e <.Lpcrel_hi0>
80004a1c: a009         	j	0x80004a1e <core::ptr::const_ptr::_$LT$impl$u20$$BP$const$u20$T$GT$::is_aligned_to::h6d1f60a52017d9e5+0x6e>
80004a1e: 6542         	ld	a0, 0x10(sp)
80004a20: 65a2         	ld	a1, 0x8(sp)
80004a22: 15fd         	addi	a1, a1, -0x1
80004a24: 8d6d         	and	a0, a0, a1
80004a26: 00153513     	seqz	a0, a0
80004a2a: 6121         	addi	sp, sp, 0x40
80004a2c: 8082         	ret

0000000080004a2e <.Lpcrel_hi0>:
80004a2e: 00003517     	auipc	a0, 0x3
80004a32: ff250513     	addi	a0, a0, -0xe
80004a36: f82a         	sd	a0, 0x30(sp)
80004a38: 02a00593     	li	a1, 0x2a
80004a3c: fc2e         	sd	a1, 0x38(sp)

0000000080004a3e <.Lpcrel_hi1>:
80004a3e: 00003597     	auipc	a1, 0x3
80004a42: 01258613     	addi	a2, a1, 0x12
80004a46: 05500593     	li	a1, 0x55
80004a4a: 00001097     	auipc	ra, 0x1
80004a4e: 0ae080e7     	jalr	0xae(ra) <core::panicking::panic_fmt::h767dc8ac4dd44648>

0000000080004a52 <_$LT$$RF$T$u20$as$u20$core..fmt..Display$GT$::fmt::h7951ca170ed49763>:
80004a52: 1101         	addi	sp, sp, -0x20
80004a54: ec06         	sd	ra, 0x18(sp)
80004a56: 862e         	mv	a2, a1
80004a58: 85aa         	mv	a1, a0
80004a5a: e42e         	sd	a1, 0x8(sp)
80004a5c: e832         	sd	a2, 0x10(sp)
80004a5e: 6188         	ld	a0, 0x0(a1)
80004a60: 658c         	ld	a1, 0x8(a1)
80004a62: 00000097     	auipc	ra, 0x0
80004a66: 22e080e7     	jalr	0x22e(ra) <_$LT$str$u20$as$u20$core..fmt..Display$GT$::fmt::h53474d83e2b0968b>
80004a6a: 60e2         	ld	ra, 0x18(sp)
80004a6c: 6105         	addi	sp, sp, 0x20
80004a6e: 8082         	ret

0000000080004a70 <core::fmt::Arguments::new::h13ae7aeaf1b916ab>:
80004a70: 1141         	addi	sp, sp, -0x10
80004a72: e02a         	sd	a0, 0x0(sp)
80004a74: e42e         	sd	a1, 0x8(sp)
80004a76: 0141         	addi	sp, sp, 0x10
80004a78: 8082         	ret

0000000080004a7a <core::fmt::Arguments::new::h1b6b5b000994f182>:
80004a7a: 1141         	addi	sp, sp, -0x10
80004a7c: e02a         	sd	a0, 0x0(sp)
80004a7e: e42e         	sd	a1, 0x8(sp)
80004a80: 0141         	addi	sp, sp, 0x10
80004a82: 8082         	ret

0000000080004a84 <core::fmt::Arguments::new::h1bf8721dcea05055>:
80004a84: 1141         	addi	sp, sp, -0x10
80004a86: e02a         	sd	a0, 0x0(sp)
80004a88: e42e         	sd	a1, 0x8(sp)
80004a8a: 0141         	addi	sp, sp, 0x10
80004a8c: 8082         	ret

0000000080004a8e <core::fmt::Arguments::new::h3401af533fb1f279>:
80004a8e: 1141         	addi	sp, sp, -0x10
80004a90: e02a         	sd	a0, 0x0(sp)
80004a92: e42e         	sd	a1, 0x8(sp)
80004a94: 0141         	addi	sp, sp, 0x10
80004a96: 8082         	ret

0000000080004a98 <core::fmt::Arguments::new::h344a4eff100633de>:
80004a98: 1141         	addi	sp, sp, -0x10
80004a9a: e02a         	sd	a0, 0x0(sp)
80004a9c: e42e         	sd	a1, 0x8(sp)
80004a9e: 0141         	addi	sp, sp, 0x10
80004aa0: 8082         	ret

0000000080004aa2 <core::fmt::Arguments::new::h5480344a3d0bc679>:
80004aa2: 1141         	addi	sp, sp, -0x10
80004aa4: e02a         	sd	a0, 0x0(sp)
80004aa6: e42e         	sd	a1, 0x8(sp)
80004aa8: 0141         	addi	sp, sp, 0x10
80004aaa: 8082         	ret

0000000080004aac <core::fmt::Arguments::new::h5af3d5aa55a06198>:
80004aac: 1141         	addi	sp, sp, -0x10
80004aae: e02a         	sd	a0, 0x0(sp)
80004ab0: e42e         	sd	a1, 0x8(sp)
80004ab2: 0141         	addi	sp, sp, 0x10
80004ab4: 8082         	ret

0000000080004ab6 <core::fmt::Arguments::new::h634d0379f8b20a8b>:
80004ab6: 1141         	addi	sp, sp, -0x10
80004ab8: e02a         	sd	a0, 0x0(sp)
80004aba: e42e         	sd	a1, 0x8(sp)
80004abc: 0141         	addi	sp, sp, 0x10
80004abe: 8082         	ret

0000000080004ac0 <core::fmt::Arguments::new::h98c6efeea8b557a2>:
80004ac0: 1141         	addi	sp, sp, -0x10
80004ac2: e02a         	sd	a0, 0x0(sp)
80004ac4: e42e         	sd	a1, 0x8(sp)
80004ac6: 0141         	addi	sp, sp, 0x10
80004ac8: 8082         	ret

0000000080004aca <core::fmt::Arguments::new::h990c62456265c3aa>:
80004aca: 1141         	addi	sp, sp, -0x10
80004acc: e02a         	sd	a0, 0x0(sp)
80004ace: e42e         	sd	a1, 0x8(sp)
80004ad0: 0141         	addi	sp, sp, 0x10
80004ad2: 8082         	ret

0000000080004ad4 <core::fmt::Arguments::new::hbcf1d8fef5e6a51c>:
80004ad4: 1141         	addi	sp, sp, -0x10
80004ad6: e02a         	sd	a0, 0x0(sp)
80004ad8: e42e         	sd	a1, 0x8(sp)
80004ada: 0141         	addi	sp, sp, 0x10
80004adc: 8082         	ret

0000000080004ade <core::fmt::Arguments::new::hc14fb5fb7c193cbe>:
80004ade: 1141         	addi	sp, sp, -0x10
80004ae0: e02a         	sd	a0, 0x0(sp)
80004ae2: e42e         	sd	a1, 0x8(sp)
80004ae4: 0141         	addi	sp, sp, 0x10
80004ae6: 8082         	ret

0000000080004ae8 <core::fmt::Arguments::new::hc2c8f0befc1e3361>:
80004ae8: 1141         	addi	sp, sp, -0x10
80004aea: e02a         	sd	a0, 0x0(sp)
80004aec: e42e         	sd	a1, 0x8(sp)
80004aee: 0141         	addi	sp, sp, 0x10
80004af0: 8082         	ret

0000000080004af2 <core::fmt::Arguments::new::hc6cadf2af46b283a>:
80004af2: 1141         	addi	sp, sp, -0x10
80004af4: e02a         	sd	a0, 0x0(sp)
80004af6: e42e         	sd	a1, 0x8(sp)
80004af8: 0141         	addi	sp, sp, 0x10
80004afa: 8082         	ret

0000000080004afc <core::fmt::Arguments::new::hcc790a4b4ce87757>:
80004afc: 1141         	addi	sp, sp, -0x10
80004afe: e02a         	sd	a0, 0x0(sp)
80004b00: e42e         	sd	a1, 0x8(sp)
80004b02: 0141         	addi	sp, sp, 0x10
80004b04: 8082         	ret

0000000080004b06 <core::fmt::Arguments::new::hd86e989845390cad>:
80004b06: 1141         	addi	sp, sp, -0x10
80004b08: e02a         	sd	a0, 0x0(sp)
80004b0a: e42e         	sd	a1, 0x8(sp)
80004b0c: 0141         	addi	sp, sp, 0x10
80004b0e: 8082         	ret

0000000080004b10 <core::fmt::Arguments::new::he6ac749586c7fbd1>:
80004b10: 1141         	addi	sp, sp, -0x10
80004b12: e02a         	sd	a0, 0x0(sp)
80004b14: e42e         	sd	a1, 0x8(sp)
80004b16: 0141         	addi	sp, sp, 0x10
80004b18: 8082         	ret

0000000080004b1a <core::fmt::Arguments::new::hec67e427fbfb6478>:
80004b1a: 1141         	addi	sp, sp, -0x10
80004b1c: e02a         	sd	a0, 0x0(sp)
80004b1e: e42e         	sd	a1, 0x8(sp)
80004b20: 0141         	addi	sp, sp, 0x10
80004b22: 8082         	ret

0000000080004b24 <core::fmt::Arguments::new::hf67fb7ccbb013d14>:
80004b24: 1141         	addi	sp, sp, -0x10
80004b26: e02a         	sd	a0, 0x0(sp)
80004b28: e42e         	sd	a1, 0x8(sp)
80004b2a: 0141         	addi	sp, sp, 0x10
80004b2c: 8082         	ret

0000000080004b2e <core::fmt::Arguments::new::hff61fa62875b5c34>:
80004b2e: 1141         	addi	sp, sp, -0x10
80004b30: e02a         	sd	a0, 0x0(sp)
80004b32: e42e         	sd	a1, 0x8(sp)
80004b34: 0141         	addi	sp, sp, 0x10
80004b36: 8082         	ret

0000000080004b38 <lab5_kernel_task2::syscall::invoke_syscall3::hee809aa6a474bb21>:
80004b38: 7139         	addi	sp, sp, -0x40
80004b3a: e036         	sd	a3, 0x0(sp)
80004b3c: 86b2         	mv	a3, a2
80004b3e: 6602         	ld	a2, 0x0(sp)
80004b40: e436         	sd	a3, 0x8(sp)
80004b42: 86ae         	mv	a3, a1
80004b44: 65a2         	ld	a1, 0x8(sp)
80004b46: e836         	sd	a3, 0x10(sp)
80004b48: 88aa         	mv	a7, a0
80004b4a: 6542         	ld	a0, 0x10(sp)
80004b4c: f046         	sd	a7, 0x20(sp)
80004b4e: f42a         	sd	a0, 0x28(sp)
80004b50: f82e         	sd	a1, 0x30(sp)
80004b52: fc32         	sd	a2, 0x38(sp)
80004b54: ec2a         	sd	a0, 0x18(sp)
80004b56: 6562         	ld	a0, 0x18(sp)
80004b58: 00000073     	ecall
80004b5c: ec2a         	sd	a0, 0x18(sp)
80004b5e: 6562         	ld	a0, 0x18(sp)
80004b60: 6121         	addi	sp, sp, 0x40
80004b62: 8082         	ret

0000000080004b64 <lab5_kernel_task2::syscall::finish::h2c4c89ef55c8c36a>:
80004b64: 1141         	addi	sp, sp, -0x10
80004b66: e406         	sd	ra, 0x8(sp)
80004b68: 85aa         	mv	a1, a0
80004b6a: e02e         	sd	a1, 0x0(sp)
80004b6c: 4505         	li	a0, 0x1
80004b6e: 4681         	li	a3, 0x0
80004b70: 8636         	mv	a2, a3
80004b72: 00000097     	auipc	ra, 0x0
80004b76: fc6080e7     	jalr	-0x3a(ra) <lab5_kernel_task2::syscall::invoke_syscall3::hee809aa6a474bb21>
80004b7a: a009         	j	0x80004b7c <lab5_kernel_task2::syscall::finish::h2c4c89ef55c8c36a+0x18>
80004b7c: 10500073     	wfi
80004b80: bff5         	j	0x80004b7c <lab5_kernel_task2::syscall::finish::h2c4c89ef55c8c36a+0x18>

0000000080004b82 <lab5_kernel_task2::syscall::yield_now::h8366e0da8d9746bb>:
80004b82: 1141         	addi	sp, sp, -0x10
80004b84: e406         	sd	ra, 0x8(sp)
80004b86: 4681         	li	a3, 0x0
80004b88: 8536         	mv	a0, a3
80004b8a: 85b6         	mv	a1, a3
80004b8c: 8636         	mv	a2, a3
80004b8e: 00000097     	auipc	ra, 0x0
80004b92: faa080e7     	jalr	-0x56(ra) <lab5_kernel_task2::syscall::invoke_syscall3::hee809aa6a474bb21>
80004b96: 60a2         	ld	ra, 0x8(sp)
80004b98: 0141         	addi	sp, sp, 0x10
80004b9a: 8082         	ret

0000000080004b9c <_$LT$I$u20$as$u20$core..iter..traits..collect..IntoIterator$GT$::into_iter::h2c50a8537f3b50c2>:
80004b9c: 1141         	addi	sp, sp, -0x10
80004b9e: e02a         	sd	a0, 0x0(sp)
80004ba0: e42e         	sd	a1, 0x8(sp)
80004ba2: 0141         	addi	sp, sp, 0x10
80004ba4: 8082         	ret

0000000080004ba6 <core::ptr::write_bytes::precondition_check::h6286dbebc211ef3b>:
80004ba6: 715d         	addi	sp, sp, -0x50
80004ba8: e486         	sd	ra, 0x48(sp)
80004baa: e436         	sd	a3, 0x8(sp)
80004bac: e82a         	sd	a0, 0x10(sp)
80004bae: 86b2         	mv	a3, a2
80004bb0: ec36         	sd	a3, 0x18(sp)
80004bb2: f02a         	sd	a0, 0x20(sp)
80004bb4: f42e         	sd	a1, 0x28(sp)
80004bb6: 02c10ba3     	sb	a2, 0x37(sp)
80004bba: 00000097     	auipc	ra, 0x0
80004bbe: df6080e7     	jalr	-0x20a(ra) <core::ptr::const_ptr::_$LT$impl$u20$$BP$const$u20$T$GT$::is_aligned_to::h6d1f60a52017d9e5>
80004bc2: e119         	bnez	a0, 0x80004bc8 <core::ptr::write_bytes::precondition_check::h6286dbebc211ef3b+0x22>
80004bc4: a009         	j	0x80004bc6 <core::ptr::write_bytes::precondition_check::h6286dbebc211ef3b+0x20>
80004bc6: a029         	j	0x80004bd0 <core::ptr::write_bytes::precondition_check::h6286dbebc211ef3b+0x2a>
80004bc8: 6562         	ld	a0, 0x18(sp)
80004bca: 8905         	andi	a0, a0, 0x1
80004bcc: e50d         	bnez	a0, 0x80004bf6 <.Lpcrel_hi0+0x24>
80004bce: a00d         	j	0x80004bf0 <.Lpcrel_hi0+0x1e>
80004bd0: 66a2         	ld	a3, 0x8(sp)

0000000080004bd2 <.Lpcrel_hi0>:
80004bd2: 00003517     	auipc	a0, 0x3
80004bd6: e9650513     	addi	a0, a0, -0x16a
80004bda: fc2a         	sd	a0, 0x38(sp)
80004bdc: 0e400593     	li	a1, 0xe4
80004be0: e0ae         	sd	a1, 0x40(sp)
80004be2: 1c900593     	li	a1, 0x1c9
80004be6: 4601         	li	a2, 0x0
80004be8: 00001097     	auipc	ra, 0x1
80004bec: ec0080e7     	jalr	-0x140(ra) <core::panicking::panic_nounwind_fmt::h2e018e50a8d3bc73>
80004bf0: 6542         	ld	a0, 0x10(sp)
80004bf2: e119         	bnez	a0, 0x80004bf8 <.Lpcrel_hi0+0x26>
80004bf4: bff1         	j	0x80004bd0 <core::ptr::write_bytes::precondition_check::h6286dbebc211ef3b+0x2a>
80004bf6: a009         	j	0x80004bf8 <.Lpcrel_hi0+0x26>
80004bf8: 60a6         	ld	ra, 0x48(sp)
80004bfa: 6161         	addi	sp, sp, 0x50
80004bfc: 8082         	ret

0000000080004bfe <core::ptr::read_volatile::precondition_check::h60ba63c3a2e12304>:
80004bfe: 7179         	addi	sp, sp, -0x30
80004c00: f406         	sd	ra, 0x28(sp)
80004c02: e032         	sd	a2, 0x0(sp)
80004c04: e42a         	sd	a0, 0x8(sp)
80004c06: e82e         	sd	a1, 0x10(sp)
80004c08: 00000097     	auipc	ra, 0x0
80004c0c: da8080e7     	jalr	-0x258(ra) <core::ptr::const_ptr::_$LT$impl$u20$$BP$const$u20$T$GT$::is_aligned_to::h6d1f60a52017d9e5>
80004c10: e115         	bnez	a0, 0x80004c34 <.Lpcrel_hi1+0x1e>
80004c12: a009         	j	0x80004c14 <core::ptr::read_volatile::precondition_check::h60ba63c3a2e12304+0x16>
80004c14: 6682         	ld	a3, 0x0(sp)

0000000080004c16 <.Lpcrel_hi1>:
80004c16: 00003517     	auipc	a0, 0x3
80004c1a: f3650513     	addi	a0, a0, -0xca
80004c1e: ec2a         	sd	a0, 0x18(sp)
80004c20: 0d600593     	li	a1, 0xd6
80004c24: f02e         	sd	a1, 0x20(sp)
80004c26: 1ad00593     	li	a1, 0x1ad
80004c2a: 4601         	li	a2, 0x0
80004c2c: 00001097     	auipc	ra, 0x1
80004c30: e7c080e7     	jalr	-0x184(ra) <core::panicking::panic_nounwind_fmt::h2e018e50a8d3bc73>
80004c34: 70a2         	ld	ra, 0x28(sp)
80004c36: 6145         	addi	sp, sp, 0x30
80004c38: 8082         	ret

0000000080004c3a <core::ptr::write_volatile::precondition_check::h91f669644c53b684>:
80004c3a: 7139         	addi	sp, sp, -0x40
80004c3c: fc06         	sd	ra, 0x38(sp)
80004c3e: e432         	sd	a2, 0x8(sp)
80004c40: e82a         	sd	a0, 0x10(sp)
80004c42: ec2e         	sd	a1, 0x18(sp)
80004c44: f02a         	sd	a0, 0x20(sp)
80004c46: 00000097     	auipc	ra, 0x0
80004c4a: d6a080e7     	jalr	-0x296(ra) <core::ptr::const_ptr::_$LT$impl$u20$$BP$const$u20$T$GT$::is_aligned_to::h6d1f60a52017d9e5>
80004c4e: e115         	bnez	a0, 0x80004c72 <.Lpcrel_hi2+0x1e>
80004c50: a009         	j	0x80004c52 <core::ptr::write_volatile::precondition_check::h91f669644c53b684+0x18>
80004c52: 66a2         	ld	a3, 0x8(sp)

0000000080004c54 <.Lpcrel_hi2>:
80004c54: 00003517     	auipc	a0, 0x3
80004c58: fce50513     	addi	a0, a0, -0x32
80004c5c: f42a         	sd	a0, 0x28(sp)
80004c5e: 0d700593     	li	a1, 0xd7
80004c62: f82e         	sd	a1, 0x30(sp)
80004c64: 1af00593     	li	a1, 0x1af
80004c68: 4601         	li	a2, 0x0
80004c6a: 00001097     	auipc	ra, 0x1
80004c6e: e3e080e7     	jalr	-0x1c2(ra) <core::panicking::panic_nounwind_fmt::h2e018e50a8d3bc73>
80004c72: 70e2         	ld	ra, 0x38(sp)
80004c74: 6121         	addi	sp, sp, 0x40
80004c76: 8082         	ret

0000000080004c78 <_$LT$$RF$T$u20$as$u20$core..fmt..Display$GT$::fmt::h2f14318c7822ad6e>:
80004c78: 1101         	addi	sp, sp, -0x20
80004c7a: ec06         	sd	ra, 0x18(sp)
80004c7c: e42a         	sd	a0, 0x8(sp)
80004c7e: e82e         	sd	a1, 0x10(sp)
80004c80: 6108         	ld	a0, 0x0(a0)
80004c82: 00001097     	auipc	ra, 0x1
80004c86: ea4080e7     	jalr	-0x15c(ra) <_$LT$core..panic..panic_info..PanicInfo$u20$as$u20$core..fmt..Display$GT$::fmt::hcccb3fed5b673506>
80004c8a: 60e2         	ld	ra, 0x18(sp)
80004c8c: 6105         	addi	sp, sp, 0x20
80004c8e: 8082         	ret

0000000080004c90 <_$LT$str$u20$as$u20$core..fmt..Display$GT$::fmt::h53474d83e2b0968b>:
80004c90: 86ae         	mv	a3, a1
80004c92: 85aa         	mv	a1, a0
80004c94: 8532         	mv	a0, a2
80004c96: 8636         	mv	a2, a3
80004c98: 00001317     	auipc	t1, 0x1
80004c9c: a2230067     	jr	-0x5de(t1) <core::fmt::Formatter::pad::h239e525174ab4a17>

0000000080004ca0 <_$LT$bool$u20$as$u20$core..fmt..Display$GT$::fmt::ha701c775b00e23e6>:
80004ca0: 00054603     	lbu	a2, 0x0(a0)
80004ca4: 852e         	mv	a0, a1
80004ca6: ca11         	beqz	a2, 0x80004cba <.Lpcrel_hi19>

0000000080004ca8 <.Lpcrel_hi20>:
80004ca8: 00002597     	auipc	a1, 0x2
80004cac: da458593     	addi	a1, a1, -0x25c
80004cb0: 4611         	li	a2, 0x4
80004cb2: 00001317     	auipc	t1, 0x1
80004cb6: a0830067     	jr	-0x5f8(t1) <core::fmt::Formatter::pad::h239e525174ab4a17>

0000000080004cba <.Lpcrel_hi19>:
80004cba: 00003597     	auipc	a1, 0x3
80004cbe: 03f58593     	addi	a1, a1, 0x3f
80004cc2: 4615         	li	a2, 0x5
80004cc4: 00001317     	auipc	t1, 0x1
80004cc8: 9f630067     	jr	-0x60a(t1) <core::fmt::Formatter::pad::h239e525174ab4a17>

0000000080004ccc <_$LT$$RF$T$u20$as$u20$core..fmt..Display$GT$::fmt::h60cf88dbe6a53042>:
80004ccc: 6114         	ld	a3, 0x0(a0)
80004cce: 6510         	ld	a2, 0x8(a0)
80004cd0: 852e         	mv	a0, a1
80004cd2: 85b6         	mv	a1, a3
80004cd4: 00001317     	auipc	t1, 0x1
80004cd8: 9e630067     	jr	-0x61a(t1) <core::fmt::Formatter::pad::h239e525174ab4a17>

0000000080004cdc <core::fmt::num::imp::_$LT$impl$u20$u32$GT$::_fmt_inner::h2c8ef1aec4279901>:
80004cdc: 7139         	addi	sp, sp, -0x40
80004cde: fc06         	sd	ra, 0x38(sp)
80004ce0: f822         	sd	s0, 0x30(sp)
80004ce2: f426         	sd	s1, 0x28(sp)
80004ce4: f04a         	sd	s2, 0x20(sp)
80004ce6: ec4e         	sd	s3, 0x18(sp)
80004ce8: e852         	sd	s4, 0x10(sp)
80004cea: e456         	sd	s5, 0x8(sp)
80004cec: 0080         	addi	s0, sp, 0x40
80004cee: 3e800693     	li	a3, 0x3e8
80004cf2: 882a         	mv	a6, a0
80004cf4: 8732         	mv	a4, a2
80004cf6: 0cd56163     	bltu	a0, a3, 0x80004db8 <.Lpcrel_hi74+0xac>
80004cfa: 4f01         	li	t5, 0x0
80004cfc: ffe58f93     	addi	t6, a1, -0x2
80004d00: d1b71837     	lui	a6, 0xd1b71
80004d04: 6709         	lui	a4, 0x2
80004d06: 6785         	lui	a5, 0x1
80004d08: 06400893     	li	a7, 0x64

0000000080004d0c <.Lpcrel_hi74>:
80004d0c: 00003497     	auipc	s1, 0x3
80004d10: 009896b7     	lui	a3, 0x989
80004d14: 75980e13     	addi	t3, a6, 0x759
80004d18: 71070293     	addi	t0, a4, 0x710
80004d1c: 47b78313     	addi	t1, a5, 0x47b
80004d20: ff248393     	addi	t2, s1, -0xe
80004d24: 1e02         	slli	t3, t3, 0x20
80004d26: 67f68e93     	addi	t4, a3, 0x67f
80004d2a: 882a         	mv	a6, a0
80004d2c: 01e60a33     	add	s4, a2, t5
80004d30: ffca0693     	addi	a3, s4, -0x4
80004d34: 14c6fe63     	bgeu	a3, a2, 0x80004e90 <.Lpcrel_hi80>
80004d38: 8942         	mv	s2, a6
80004d3a: 02081693     	slli	a3, a6, 0x20
80004d3e: 03c6b6b3     	mulhu	a3, a3, t3
80004d42: 02d6d813     	srli	a6, a3, 0x2d
80004d46: 025806b3     	mul	a3, a6, t0
80004d4a: 40d909bb     	subw	s3, s2, a3
80004d4e: 03099693     	slli	a3, s3, 0x30
80004d52: 92c9         	srli	a3, a3, 0x32
80004d54: 026687b3     	mul	a5, a3, t1
80004d58: 83c5         	srli	a5, a5, 0x11
80004d5a: 00179713     	slli	a4, a5, 0x1
80004d5e: 971e         	add	a4, a4, t2
80004d60: 00074a83     	lbu	s5, 0x0(a4)
80004d64: 00cf84b3     	add	s1, t6, a2
80004d68: ffda0693     	addi	a3, s4, -0x3
80004d6c: ff548f23     	sb	s5, -0x2(s1)
80004d70: 10c6f563     	bgeu	a3, a2, 0x80004e7a <.Lpcrel_hi81>
80004d74: 00174703     	lbu	a4, 0x1(a4)
80004d78: ffea0693     	addi	a3, s4, -0x2
80004d7c: fee48fa3     	sb	a4, -0x1(s1)
80004d80: 0ec6f263     	bgeu	a3, a2, 0x80004e64 <.Lpcrel_hi82>
80004d84: 031786b3     	mul	a3, a5, a7
80004d88: 40d986b3     	sub	a3, s3, a3
80004d8c: 16c6         	slli	a3, a3, 0x31
80004d8e: 92c1         	srli	a3, a3, 0x30
80004d90: 00d38733     	add	a4, t2, a3
80004d94: 00074783     	lbu	a5, 0x0(a4)
80004d98: fffa0693     	addi	a3, s4, -0x1
80004d9c: 00f48023     	sb	a5, 0x0(s1)
80004da0: 0ac6f763     	bgeu	a3, a2, 0x80004e4e <.Lpcrel_hi83>
80004da4: 00174683     	lbu	a3, 0x1(a4)
80004da8: 1f71         	addi	t5, t5, -0x4
80004daa: 00d480a3     	sb	a3, 0x1(s1)
80004dae: 1ff1         	addi	t6, t6, -0x4
80004db0: f72eeee3     	bltu	t4, s2, 0x80004d2c <.Lpcrel_hi74+0x20>
80004db4: 01e60733     	add	a4, a2, t5
80004db8: 46a5         	li	a3, 0x9
80004dba: 0506fd63     	bgeu	a3, a6, 0x80004e14 <.Lpcrel_hi75+0x3a>
80004dbe: ffe70693     	addi	a3, a4, -0x2
80004dc2: 0ec6f263     	bgeu	a3, a2, 0x80004ea6 <.Lpcrel_hi76>
80004dc6: 03081793     	slli	a5, a6, 0x30
80004dca: 6485         	lui	s1, 0x1
80004dcc: 06400893     	li	a7, 0x64
80004dd0: 93c9         	srli	a5, a5, 0x32
80004dd2: 47b48493     	addi	s1, s1, 0x47b
80004dd6: 029787b3     	mul	a5, a5, s1

0000000080004dda <.Lpcrel_hi75>:
80004dda: 00003297     	auipc	t0, 0x3
80004dde: 83c5         	srli	a5, a5, 0x11
80004de0: 031784b3     	mul	s1, a5, a7
80004de4: 409804bb     	subw	s1, a6, s1
80004de8: 14c6         	slli	s1, s1, 0x31
80004dea: 0304d813     	srli	a6, s1, 0x30
80004dee: f2428493     	addi	s1, t0, -0xdc
80004df2: 94c2         	add	s1, s1, a6
80004df4: 0004c803     	lbu	a6, 0x0(s1)
80004df8: 00d588b3     	add	a7, a1, a3
80004dfc: 177d         	addi	a4, a4, -0x1
80004dfe: 01088023     	sb	a6, 0x0(a7)
80004e02: 0ac77d63     	bgeu	a4, a2, 0x80004ebc <.Lpcrel_hi77>
80004e06: 0014c483     	lbu	s1, 0x1(s1)
80004e0a: 972e         	add	a4, a4, a1
80004e0c: 00970023     	sb	s1, 0x0(a4)
80004e10: e509         	bnez	a0, 0x80004e1a <.Lpcrel_hi75+0x40>
80004e12: a029         	j	0x80004e1c <.Lpcrel_hi75+0x42>
80004e14: 87c2         	mv	a5, a6
80004e16: 86ba         	mv	a3, a4
80004e18: c111         	beqz	a0, 0x80004e1c <.Lpcrel_hi75+0x42>
80004e1a: c385         	beqz	a5, 0x80004e3a <.Lpcrel_hi79+0x14>
80004e1c: 16fd         	addi	a3, a3, -0x1
80004e1e: 0ac6fa63     	bgeu	a3, a2, 0x80004ed2 <.Lpcrel_hi78>
80004e22: 0017951b     	slliw	a0, a5, 0x1

0000000080004e26 <.Lpcrel_hi79>:
80004e26: 00003617     	auipc	a2, 0x3
80004e2a: ed860613     	addi	a2, a2, -0x128
80004e2e: 9532         	add	a0, a0, a2
80004e30: 00154503     	lbu	a0, 0x1(a0)
80004e34: 95b6         	add	a1, a1, a3
80004e36: 00a58023     	sb	a0, 0x0(a1)
80004e3a: 8536         	mv	a0, a3
80004e3c: 70e2         	ld	ra, 0x38(sp)
80004e3e: 7442         	ld	s0, 0x30(sp)
80004e40: 74a2         	ld	s1, 0x28(sp)
80004e42: 7902         	ld	s2, 0x20(sp)
80004e44: 69e2         	ld	s3, 0x18(sp)
80004e46: 6a42         	ld	s4, 0x10(sp)
80004e48: 6aa2         	ld	s5, 0x8(sp)
80004e4a: 6121         	addi	sp, sp, 0x40
80004e4c: 8082         	ret

0000000080004e4e <.Lpcrel_hi83>:
80004e4e: 00003517     	auipc	a0, 0x3
80004e52: f7a50713     	addi	a4, a0, -0x86
80004e56: 8536         	mv	a0, a3
80004e58: 85b2         	mv	a1, a2
80004e5a: 863a         	mv	a2, a4
80004e5c: 00001097     	auipc	ra, 0x1
80004e60: c10080e7     	jalr	-0x3f0(ra) <core::panicking::panic_bounds_check::h6aaee0d15e0261eb>

0000000080004e64 <.Lpcrel_hi82>:
80004e64: 00003517     	auipc	a0, 0x3
80004e68: f6450713     	addi	a4, a0, -0x9c
80004e6c: 8536         	mv	a0, a3
80004e6e: 85b2         	mv	a1, a2
80004e70: 863a         	mv	a2, a4
80004e72: 00001097     	auipc	ra, 0x1
80004e76: bfa080e7     	jalr	-0x406(ra) <core::panicking::panic_bounds_check::h6aaee0d15e0261eb>

0000000080004e7a <.Lpcrel_hi81>:
80004e7a: 00003517     	auipc	a0, 0x3
80004e7e: f4e50713     	addi	a4, a0, -0xb2
80004e82: 8536         	mv	a0, a3
80004e84: 85b2         	mv	a1, a2
80004e86: 863a         	mv	a2, a4
80004e88: 00001097     	auipc	ra, 0x1
80004e8c: be4080e7     	jalr	-0x41c(ra) <core::panicking::panic_bounds_check::h6aaee0d15e0261eb>

0000000080004e90 <.Lpcrel_hi80>:
80004e90: 00003517     	auipc	a0, 0x3
80004e94: f3850713     	addi	a4, a0, -0xc8
80004e98: 8536         	mv	a0, a3
80004e9a: 85b2         	mv	a1, a2
80004e9c: 863a         	mv	a2, a4
80004e9e: 00001097     	auipc	ra, 0x1
80004ea2: bce080e7     	jalr	-0x432(ra) <core::panicking::panic_bounds_check::h6aaee0d15e0261eb>

0000000080004ea6 <.Lpcrel_hi76>:
80004ea6: 00003517     	auipc	a0, 0x3
80004eaa: f2250713     	addi	a4, a0, -0xde
80004eae: 8536         	mv	a0, a3
80004eb0: 85b2         	mv	a1, a2
80004eb2: 863a         	mv	a2, a4
80004eb4: 00001097     	auipc	ra, 0x1
80004eb8: bb8080e7     	jalr	-0x448(ra) <core::panicking::panic_bounds_check::h6aaee0d15e0261eb>

0000000080004ebc <.Lpcrel_hi77>:
80004ebc: 00003517     	auipc	a0, 0x3
80004ec0: f0c50693     	addi	a3, a0, -0xf4
80004ec4: 853a         	mv	a0, a4
80004ec6: 85b2         	mv	a1, a2
80004ec8: 8636         	mv	a2, a3
80004eca: 00001097     	auipc	ra, 0x1
80004ece: ba2080e7     	jalr	-0x45e(ra) <core::panicking::panic_bounds_check::h6aaee0d15e0261eb>

0000000080004ed2 <.Lpcrel_hi78>:
80004ed2: 00003517     	auipc	a0, 0x3
80004ed6: ef650713     	addi	a4, a0, -0x10a
80004eda: 8536         	mv	a0, a3
80004edc: 85b2         	mv	a1, a2
80004ede: 863a         	mv	a2, a4
80004ee0: 00001097     	auipc	ra, 0x1
80004ee4: b8c080e7     	jalr	-0x474(ra) <core::panicking::panic_bounds_check::h6aaee0d15e0261eb>

0000000080004ee8 <core::fmt::num::imp::_$LT$impl$u20$u64$GT$::_fmt_inner::habf36a285bd59e0b>:
80004ee8: 7139         	addi	sp, sp, -0x40
80004eea: fc06         	sd	ra, 0x38(sp)
80004eec: f822         	sd	s0, 0x30(sp)
80004eee: f426         	sd	s1, 0x28(sp)
80004ef0: f04a         	sd	s2, 0x20(sp)
80004ef2: ec4e         	sd	s3, 0x18(sp)
80004ef4: e852         	sd	s4, 0x10(sp)
80004ef6: e456         	sd	s5, 0x8(sp)
80004ef8: 0080         	addi	s0, sp, 0x40
80004efa: 3e800693     	li	a3, 0x3e8
80004efe: 882a         	mv	a6, a0
80004f00: 8732         	mv	a4, a2
80004f02: 0ad56e63     	bltu	a0, a3, 0x80004fbe <.Lpcrel_hi85+0x9a>
80004f06: 4f01         	li	t5, 0x0
80004f08: ffe58f93     	addi	t6, a1, -0x2

0000000080004f0c <.Lpcrel_hi84>:
80004f0c: 00002697     	auipc	a3, 0x2
80004f10: 6709         	lui	a4, 0x2
80004f12: 6785         	lui	a5, 0x1
80004f14: 06400893     	li	a7, 0x64
80004f18: 9ec6b283     	ld	t0, -0x614(a3)
80004f1c: 71070313     	addi	t1, a4, 0x710
80004f20: 47b78393     	addi	t2, a5, 0x47b

0000000080004f24 <.Lpcrel_hi85>:
80004f24: 00003697     	auipc	a3, 0x3
80004f28: dda68e13     	addi	t3, a3, -0x226
80004f2c: 009896b7     	lui	a3, 0x989
80004f30: 67f68e93     	addi	t4, a3, 0x67f
80004f34: 882a         	mv	a6, a0
80004f36: 01e60a33     	add	s4, a2, t5
80004f3a: ffca0693     	addi	a3, s4, -0x4
80004f3e: 14c6fb63     	bgeu	a3, a2, 0x80005094 <.Lpcrel_hi91>
80004f42: 8942         	mv	s2, a6
80004f44: 025836b3     	mulhu	a3, a6, t0
80004f48: 00b6d813     	srli	a6, a3, 0xb
80004f4c: 026806b3     	mul	a3, a6, t1
80004f50: 40d909b3     	sub	s3, s2, a3
80004f54: 03099693     	slli	a3, s3, 0x30
80004f58: 92c9         	srli	a3, a3, 0x32
80004f5a: 027687b3     	mul	a5, a3, t2
80004f5e: 83c5         	srli	a5, a5, 0x11
80004f60: 00179713     	slli	a4, a5, 0x1
80004f64: 9772         	add	a4, a4, t3
80004f66: 00074a83     	lbu	s5, 0x0(a4)
80004f6a: 00cf84b3     	add	s1, t6, a2
80004f6e: ffda0693     	addi	a3, s4, -0x3
80004f72: ff548f23     	sb	s5, -0x2(s1)
80004f76: 10c6f463     	bgeu	a3, a2, 0x8000507e <.Lpcrel_hi92>
80004f7a: 00174703     	lbu	a4, 0x1(a4)
80004f7e: ffea0693     	addi	a3, s4, -0x2
80004f82: fee48fa3     	sb	a4, -0x1(s1)
80004f86: 0ec6f163     	bgeu	a3, a2, 0x80005068 <.Lpcrel_hi93>
80004f8a: 031786b3     	mul	a3, a5, a7
80004f8e: 40d986b3     	sub	a3, s3, a3
80004f92: 16c6         	slli	a3, a3, 0x31
80004f94: 92c1         	srli	a3, a3, 0x30
80004f96: 00de0733     	add	a4, t3, a3
80004f9a: 00074783     	lbu	a5, 0x0(a4)
80004f9e: fffa0693     	addi	a3, s4, -0x1
80004fa2: 00f48023     	sb	a5, 0x0(s1)
80004fa6: 0ac6f663     	bgeu	a3, a2, 0x80005052 <.Lpcrel_hi94>
80004faa: 00174683     	lbu	a3, 0x1(a4)
80004fae: 1f71         	addi	t5, t5, -0x4
80004fb0: 00d480a3     	sb	a3, 0x1(s1)
80004fb4: 1ff1         	addi	t6, t6, -0x4
80004fb6: f92ee0e3     	bltu	t4, s2, 0x80004f36 <.Lpcrel_hi85+0x12>
80004fba: 01e60733     	add	a4, a2, t5
80004fbe: 46a5         	li	a3, 0x9
80004fc0: 0506fd63     	bgeu	a3, a6, 0x8000501a <.Lpcrel_hi86+0x3a>
80004fc4: ffe70693     	addi	a3, a4, -0x2
80004fc8: 0ec6f163     	bgeu	a3, a2, 0x800050aa <.Lpcrel_hi87>
80004fcc: 03081793     	slli	a5, a6, 0x30
80004fd0: 6485         	lui	s1, 0x1
80004fd2: 06400893     	li	a7, 0x64
80004fd6: 93c9         	srli	a5, a5, 0x32
80004fd8: 47b48493     	addi	s1, s1, 0x47b
80004fdc: 029787b3     	mul	a5, a5, s1

0000000080004fe0 <.Lpcrel_hi86>:
80004fe0: 00003297     	auipc	t0, 0x3
80004fe4: 83c5         	srli	a5, a5, 0x11
80004fe6: 031784b3     	mul	s1, a5, a7
80004fea: 409804bb     	subw	s1, a6, s1
80004fee: 14c6         	slli	s1, s1, 0x31
80004ff0: 0304d813     	srli	a6, s1, 0x30
80004ff4: d1e28493     	addi	s1, t0, -0x2e2
80004ff8: 94c2         	add	s1, s1, a6
80004ffa: 0004c803     	lbu	a6, 0x0(s1)
80004ffe: 00d588b3     	add	a7, a1, a3
80005002: 177d         	addi	a4, a4, -0x1
80005004: 01088023     	sb	a6, 0x0(a7)
80005008: 0ac77c63     	bgeu	a4, a2, 0x800050c0 <.Lpcrel_hi88>
8000500c: 0014c483     	lbu	s1, 0x1(s1)
80005010: 972e         	add	a4, a4, a1
80005012: 00970023     	sb	s1, 0x0(a4)
80005016: e509         	bnez	a0, 0x80005020 <.Lpcrel_hi86+0x40>
80005018: a029         	j	0x80005022 <.Lpcrel_hi86+0x42>
8000501a: 87c2         	mv	a5, a6
8000501c: 86ba         	mv	a3, a4
8000501e: c111         	beqz	a0, 0x80005022 <.Lpcrel_hi86+0x42>
80005020: cf99         	beqz	a5, 0x8000503e <.Lpcrel_hi90+0x14>
80005022: 16fd         	addi	a3, a3, -0x1
80005024: 0ac6f963     	bgeu	a3, a2, 0x800050d6 <.Lpcrel_hi89>
80005028: 0786         	slli	a5, a5, 0x1

000000008000502a <.Lpcrel_hi90>:
8000502a: 00003517     	auipc	a0, 0x3
8000502e: cd450513     	addi	a0, a0, -0x32c
80005032: 953e         	add	a0, a0, a5
80005034: 00154503     	lbu	a0, 0x1(a0)
80005038: 95b6         	add	a1, a1, a3
8000503a: 00a58023     	sb	a0, 0x0(a1)
8000503e: 8536         	mv	a0, a3
80005040: 70e2         	ld	ra, 0x38(sp)
80005042: 7442         	ld	s0, 0x30(sp)
80005044: 74a2         	ld	s1, 0x28(sp)
80005046: 7902         	ld	s2, 0x20(sp)
80005048: 69e2         	ld	s3, 0x18(sp)
8000504a: 6a42         	ld	s4, 0x10(sp)
8000504c: 6aa2         	ld	s5, 0x8(sp)
8000504e: 6121         	addi	sp, sp, 0x40
80005050: 8082         	ret

0000000080005052 <.Lpcrel_hi94>:
80005052: 00003517     	auipc	a0, 0x3
80005056: d7650713     	addi	a4, a0, -0x28a
8000505a: 8536         	mv	a0, a3
8000505c: 85b2         	mv	a1, a2
8000505e: 863a         	mv	a2, a4
80005060: 00001097     	auipc	ra, 0x1
80005064: a0c080e7     	jalr	-0x5f4(ra) <core::panicking::panic_bounds_check::h6aaee0d15e0261eb>

0000000080005068 <.Lpcrel_hi93>:
80005068: 00003517     	auipc	a0, 0x3
8000506c: d6050713     	addi	a4, a0, -0x2a0
80005070: 8536         	mv	a0, a3
80005072: 85b2         	mv	a1, a2
80005074: 863a         	mv	a2, a4
80005076: 00001097     	auipc	ra, 0x1
8000507a: 9f6080e7     	jalr	-0x60a(ra) <core::panicking::panic_bounds_check::h6aaee0d15e0261eb>

000000008000507e <.Lpcrel_hi92>:
8000507e: 00003517     	auipc	a0, 0x3
80005082: d4a50713     	addi	a4, a0, -0x2b6
80005086: 8536         	mv	a0, a3
80005088: 85b2         	mv	a1, a2
8000508a: 863a         	mv	a2, a4
8000508c: 00001097     	auipc	ra, 0x1
80005090: 9e0080e7     	jalr	-0x620(ra) <core::panicking::panic_bounds_check::h6aaee0d15e0261eb>

0000000080005094 <.Lpcrel_hi91>:
80005094: 00003517     	auipc	a0, 0x3
80005098: d3450713     	addi	a4, a0, -0x2cc
8000509c: 8536         	mv	a0, a3
8000509e: 85b2         	mv	a1, a2
800050a0: 863a         	mv	a2, a4
800050a2: 00001097     	auipc	ra, 0x1
800050a6: 9ca080e7     	jalr	-0x636(ra) <core::panicking::panic_bounds_check::h6aaee0d15e0261eb>

00000000800050aa <.Lpcrel_hi87>:
800050aa: 00003517     	auipc	a0, 0x3
800050ae: d1e50713     	addi	a4, a0, -0x2e2
800050b2: 8536         	mv	a0, a3
800050b4: 85b2         	mv	a1, a2
800050b6: 863a         	mv	a2, a4
800050b8: 00001097     	auipc	ra, 0x1
800050bc: 9b4080e7     	jalr	-0x64c(ra) <core::panicking::panic_bounds_check::h6aaee0d15e0261eb>

00000000800050c0 <.Lpcrel_hi88>:
800050c0: 00003517     	auipc	a0, 0x3
800050c4: d0850693     	addi	a3, a0, -0x2f8
800050c8: 853a         	mv	a0, a4
800050ca: 85b2         	mv	a1, a2
800050cc: 8636         	mv	a2, a3
800050ce: 00001097     	auipc	ra, 0x1
800050d2: 99e080e7     	jalr	-0x662(ra) <core::panicking::panic_bounds_check::h6aaee0d15e0261eb>

00000000800050d6 <.Lpcrel_hi89>:
800050d6: 00003517     	auipc	a0, 0x3
800050da: cf250713     	addi	a4, a0, -0x30e
800050de: 8536         	mv	a0, a3
800050e0: 85b2         	mv	a1, a2
800050e2: 863a         	mv	a2, a4
800050e4: 00001097     	auipc	ra, 0x1
800050e8: 988080e7     	jalr	-0x678(ra) <core::panicking::panic_bounds_check::h6aaee0d15e0261eb>

00000000800050ec <core::fmt::num::imp::_$LT$impl$u20$core..fmt..Display$u20$for$u20$u32$GT$::fmt::hc19fd54e2a0ceeb1>:
800050ec: 7139         	addi	sp, sp, -0x40
800050ee: fc06         	sd	ra, 0x38(sp)
800050f0: f822         	sd	s0, 0x30(sp)
800050f2: f426         	sd	s1, 0x28(sp)
800050f4: f04a         	sd	s2, 0x20(sp)
800050f6: ec4e         	sd	s3, 0x18(sp)
800050f8: 0080         	addi	s0, sp, 0x40
800050fa: 4108         	lw	a0, 0x0(a0)
800050fc: 84ae         	mv	s1, a1
800050fe: fce40913     	addi	s2, s0, -0x32
80005102: fce40593     	addi	a1, s0, -0x32
80005106: 4629         	li	a2, 0xa
80005108: 49a9         	li	s3, 0xa
8000510a: 00000097     	auipc	ra, 0x0
8000510e: bd2080e7     	jalr	-0x42e(ra) <core::fmt::num::imp::_$LT$impl$u20$u32$GT$::_fmt_inner::h2c8ef1aec4279901>
80005112: 40a987b3     	sub	a5, s3, a0
80005116: 00a90733     	add	a4, s2, a0
8000511a: 4585         	li	a1, 0x1
8000511c: 4605         	li	a2, 0x1
8000511e: 8526         	mv	a0, s1
80005120: 4681         	li	a3, 0x0
80005122: 00000097     	auipc	ra, 0x0
80005126: 348080e7     	jalr	0x348(ra) <core::fmt::Formatter::pad_integral::h0745a9fd037e4d44>
8000512a: 70e2         	ld	ra, 0x38(sp)
8000512c: 7442         	ld	s0, 0x30(sp)
8000512e: 74a2         	ld	s1, 0x28(sp)
80005130: 7902         	ld	s2, 0x20(sp)
80005132: 69e2         	ld	s3, 0x18(sp)
80005134: 6121         	addi	sp, sp, 0x40
80005136: 8082         	ret

0000000080005138 <core::fmt::num::imp::_$LT$impl$u20$core..fmt..Display$u20$for$u20$usize$GT$::fmt::h566085f0242c3154>:
80005138: 7139         	addi	sp, sp, -0x40
8000513a: fc06         	sd	ra, 0x38(sp)
8000513c: f822         	sd	s0, 0x30(sp)
8000513e: f426         	sd	s1, 0x28(sp)
80005140: f04a         	sd	s2, 0x20(sp)
80005142: ec4e         	sd	s3, 0x18(sp)
80005144: 0080         	addi	s0, sp, 0x40
80005146: 6108         	ld	a0, 0x0(a0)
80005148: 84ae         	mv	s1, a1
8000514a: fc440913     	addi	s2, s0, -0x3c
8000514e: fc440593     	addi	a1, s0, -0x3c
80005152: 4651         	li	a2, 0x14
80005154: 49d1         	li	s3, 0x14
80005156: 00000097     	auipc	ra, 0x0
8000515a: d92080e7     	jalr	-0x26e(ra) <core::fmt::num::imp::_$LT$impl$u20$u64$GT$::_fmt_inner::habf36a285bd59e0b>
8000515e: 40a987b3     	sub	a5, s3, a0
80005162: 00a90733     	add	a4, s2, a0
80005166: 4585         	li	a1, 0x1
80005168: 4605         	li	a2, 0x1
8000516a: 8526         	mv	a0, s1
8000516c: 4681         	li	a3, 0x0
8000516e: 00000097     	auipc	ra, 0x0
80005172: 2fc080e7     	jalr	0x2fc(ra) <core::fmt::Formatter::pad_integral::h0745a9fd037e4d44>
80005176: 70e2         	ld	ra, 0x38(sp)
80005178: 7442         	ld	s0, 0x30(sp)
8000517a: 74a2         	ld	s1, 0x28(sp)
8000517c: 7902         	ld	s2, 0x20(sp)
8000517e: 69e2         	ld	s3, 0x18(sp)
80005180: 6121         	addi	sp, sp, 0x40
80005182: 8082         	ret

0000000080005184 <core::fmt::num::_$LT$impl$u20$core..fmt..LowerHex$u20$for$u20$usize$GT$::fmt::hcb99b156cc230e11>:
80005184: 1101         	addi	sp, sp, -0x20
80005186: ec06         	sd	ra, 0x18(sp)
80005188: e822         	sd	s0, 0x10(sp)
8000518a: 1000         	addi	s0, sp, 0x20
8000518c: 882e         	mv	a6, a1
8000518e: 4781         	li	a5, 0x0
80005190: 6108         	ld	a0, 0x0(a0)
80005192: fef40593     	addi	a1, s0, -0x11

0000000080005196 <.Lpcrel_hi209>:
80005196: 00001617     	auipc	a2, 0x1
8000519a: 32a60613     	addi	a2, a2, 0x32a
8000519e: 00f57693     	andi	a3, a0, 0xf
800051a2: 96b2         	add	a3, a3, a2
800051a4: 0006c683     	lbu	a3, 0x0(a3)
800051a8: 8111         	srli	a0, a0, 0x4
800051aa: 0785         	addi	a5, a5, 0x1
800051ac: 00d58023     	sb	a3, 0x0(a1)
800051b0: 15fd         	addi	a1, a1, -0x1
800051b2: f575         	bnez	a0, 0x8000519e <.Lpcrel_hi209+0x8>
800051b4: fe040513     	addi	a0, s0, -0x20
800051b8: 8d1d         	sub	a0, a0, a5
800051ba: 01050713     	addi	a4, a0, 0x10

00000000800051be <.Lpcrel_hi210>:
800051be: 00003517     	auipc	a0, 0x3
800051c2: 4585         	li	a1, 0x1
800051c4: c2250613     	addi	a2, a0, -0x3de
800051c8: 4689         	li	a3, 0x2
800051ca: 8542         	mv	a0, a6
800051cc: 00000097     	auipc	ra, 0x0
800051d0: 29e080e7     	jalr	0x29e(ra) <core::fmt::Formatter::pad_integral::h0745a9fd037e4d44>
800051d4: 60e2         	ld	ra, 0x18(sp)
800051d6: 6442         	ld	s0, 0x10(sp)
800051d8: 6105         	addi	sp, sp, 0x20
800051da: 8082         	ret

00000000800051dc <core::fmt::num::_$LT$impl$u20$core..fmt..UpperHex$u20$for$u20$u32$GT$::fmt::h07f6b7b2f3968c14>:
800051dc: 1101         	addi	sp, sp, -0x20
800051de: ec06         	sd	ra, 0x18(sp)
800051e0: e822         	sd	s0, 0x10(sp)
800051e2: 1000         	addi	s0, sp, 0x20
800051e4: 882e         	mv	a6, a1
800051e6: 4781         	li	a5, 0x0
800051e8: 4110         	lw	a2, 0x0(a0)
800051ea: fef40513     	addi	a0, s0, -0x11

00000000800051ee <.Lpcrel_hi219>:
800051ee: 00001597     	auipc	a1, 0x1
800051f2: 2a258593     	addi	a1, a1, 0x2a2
800051f6: 00f67693     	andi	a3, a2, 0xf
800051fa: 96ae         	add	a3, a3, a1
800051fc: 0006c683     	lbu	a3, 0x0(a3)
80005200: 0046571b     	srliw	a4, a2, 0x4
80005204: 0785         	addi	a5, a5, 0x1
80005206: 00d50023     	sb	a3, 0x0(a0)
8000520a: 157d         	addi	a0, a0, -0x1
8000520c: 863a         	mv	a2, a4
8000520e: f765         	bnez	a4, 0x800051f6 <.Lpcrel_hi219+0x8>
80005210: fe840513     	addi	a0, s0, -0x18
80005214: 8d1d         	sub	a0, a0, a5
80005216: 00850713     	addi	a4, a0, 0x8

000000008000521a <.Lpcrel_hi220>:
8000521a: 00003517     	auipc	a0, 0x3
8000521e: 4585         	li	a1, 0x1
80005220: bc650613     	addi	a2, a0, -0x43a
80005224: 4689         	li	a3, 0x2
80005226: 8542         	mv	a0, a6
80005228: 00000097     	auipc	ra, 0x0
8000522c: 242080e7     	jalr	0x242(ra) <core::fmt::Formatter::pad_integral::h0745a9fd037e4d44>
80005230: 60e2         	ld	ra, 0x18(sp)
80005232: 6442         	ld	s0, 0x10(sp)
80005234: 6105         	addi	sp, sp, 0x20
80005236: 8082         	ret

0000000080005238 <core::fmt::write::hfd17e9e8e823b619>:
80005238: 7119         	addi	sp, sp, -0x80
8000523a: fc86         	sd	ra, 0x78(sp)
8000523c: f8a2         	sd	s0, 0x70(sp)
8000523e: f4a6         	sd	s1, 0x68(sp)
80005240: f0ca         	sd	s2, 0x60(sp)
80005242: ecce         	sd	s3, 0x58(sp)
80005244: e8d2         	sd	s4, 0x50(sp)
80005246: e4d6         	sd	s5, 0x48(sp)
80005248: e0da         	sd	s6, 0x40(sp)
8000524a: fc5e         	sd	s7, 0x38(sp)
8000524c: f862         	sd	s8, 0x30(sp)
8000524e: f466         	sd	s9, 0x28(sp)
80005250: f06a         	sd	s10, 0x20(sp)
80005252: 0100         	addi	s0, sp, 0x80
80005254: 89b6         	mv	s3, a3
80005256: 892e         	mv	s2, a1
80005258: 0016f593     	andi	a1, a3, 0x1
8000525c: 8a2a         	mv	s4, a0
8000525e: 16059063     	bnez	a1, 0x800053be <core::fmt::write::hfd17e9e8e823b619+0x186>
80005262: 00064483     	lbu	s1, 0x0(a2)
80005266: 18048163     	beqz	s1, 0x800053e8 <core::fmt::write::hfd17e9e8e823b619+0x1b0>
8000526a: 4c81         	li	s9, 0x0
8000526c: 01893b03     	ld	s6, 0x18(s2)
80005270: 08000b93     	li	s7, 0x80
80005274: 0c000c13     	li	s8, 0xc0
80005278: 60000537     	lui	a0, 0x60000
8000527c: 02050d13     	addi	s10, a0, 0x20
80005280: a805         	j	0x800052b0 <core::fmt::write::hfd17e9e8e823b619+0x78>
80005282: 004c9513     	slli	a0, s9, 0x4
80005286: 00a985b3     	add	a1, s3, a0
8000528a: 6188         	ld	a0, 0x0(a1)
8000528c: 6590         	ld	a2, 0x8(a1)
8000528e: f9443423     	sd	s4, -0x78(s0)
80005292: f9243823     	sd	s2, -0x70(s0)
80005296: f9a43c23     	sd	s10, -0x68(s0)
8000529a: f8840593     	addi	a1, s0, -0x78
8000529e: 9602         	jalr	a2
800052a0: 14051663     	bnez	a0, 0x800053ec <core::fmt::write::hfd17e9e8e823b619+0x1b4>
800052a4: 0c85         	addi	s9, s9, 0x1
800052a6: 000ac483     	lbu	s1, 0x0(s5)
800052aa: 8656         	mv	a2, s5
800052ac: 12048e63     	beqz	s1, 0x800053e8 <core::fmt::write::hfd17e9e8e823b619+0x1b0>
800052b0: 03849513     	slli	a0, s1, 0x38
800052b4: 00160a93     	addi	s5, a2, 0x1
800052b8: 00054a63     	bltz	a0, 0x800052cc <core::fmt::write::hfd17e9e8e823b619+0x94>
800052bc: 8552         	mv	a0, s4
800052be: 85d6         	mv	a1, s5
800052c0: 8626         	mv	a2, s1
800052c2: 9b02         	jalr	s6
800052c4: 12051463     	bnez	a0, 0x800053ec <core::fmt::write::hfd17e9e8e823b619+0x1b4>
800052c8: 9aa6         	add	s5, s5, s1
800052ca: bff1         	j	0x800052a6 <core::fmt::write::hfd17e9e8e823b619+0x6e>
800052cc: 05748b63     	beq	s1, s7, 0x80005322 <core::fmt::write::hfd17e9e8e823b619+0xea>
800052d0: fb8489e3     	beq	s1, s8, 0x80005282 <core::fmt::write::hfd17e9e8e823b619+0x4a>
800052d4: 0014f513     	andi	a0, s1, 0x1
800052d8: 85ea         	mv	a1, s10
800052da: c115         	beqz	a0, 0x800052fe <core::fmt::write::hfd17e9e8e823b619+0xc6>
800052dc: 00264503     	lbu	a0, 0x2(a2)
800052e0: 00164583     	lbu	a1, 0x1(a2)
800052e4: 00364683     	lbu	a3, 0x3(a2)
800052e8: 00464703     	lbu	a4, 0x4(a2)
800052ec: 0522         	slli	a0, a0, 0x8
800052ee: 8d4d         	or	a0, a0, a1
800052f0: 06c2         	slli	a3, a3, 0x10
800052f2: 0762         	slli	a4, a4, 0x18
800052f4: 00d765b3     	or	a1, a4, a3
800052f8: 8dc9         	or	a1, a1, a0
800052fa: 00560a93     	addi	s5, a2, 0x5
800052fe: 0024f513     	andi	a0, s1, 0x2
80005302: e121         	bnez	a0, 0x80005342 <core::fmt::write::hfd17e9e8e823b619+0x10a>
80005304: 4601         	li	a2, 0x0
80005306: 0044f513     	andi	a0, s1, 0x4
8000530a: c531         	beqz	a0, 0x80005356 <core::fmt::write::hfd17e9e8e823b619+0x11e>
8000530c: 001ac503     	lbu	a0, 0x1(s5)
80005310: 000ac683     	lbu	a3, 0x0(s5)
80005314: 0522         	slli	a0, a0, 0x8
80005316: 8ec9         	or	a3, a3, a0
80005318: 0a89         	addi	s5, s5, 0x2
8000531a: 0084f513     	andi	a0, s1, 0x8
8000531e: e121         	bnez	a0, 0x8000535e <core::fmt::write::hfd17e9e8e823b619+0x126>
80005320: a0b9         	j	0x8000536e <core::fmt::write::hfd17e9e8e823b619+0x136>
80005322: 00264503     	lbu	a0, 0x2(a2)
80005326: 00164583     	lbu	a1, 0x1(a2)
8000532a: 0522         	slli	a0, a0, 0x8
8000532c: 00b56ab3     	or	s5, a0, a1
80005330: 00360493     	addi	s1, a2, 0x3
80005334: 8552         	mv	a0, s4
80005336: 85a6         	mv	a1, s1
80005338: 8656         	mv	a2, s5
8000533a: 9b02         	jalr	s6
8000533c: e945         	bnez	a0, 0x800053ec <core::fmt::write::hfd17e9e8e823b619+0x1b4>
8000533e: 9aa6         	add	s5, s5, s1
80005340: b79d         	j	0x800052a6 <core::fmt::write::hfd17e9e8e823b619+0x6e>
80005342: 001ac503     	lbu	a0, 0x1(s5)
80005346: 000ac603     	lbu	a2, 0x0(s5)
8000534a: 0522         	slli	a0, a0, 0x8
8000534c: 8e49         	or	a2, a2, a0
8000534e: 0a89         	addi	s5, s5, 0x2
80005350: 0044f513     	andi	a0, s1, 0x4
80005354: fd45         	bnez	a0, 0x8000530c <core::fmt::write::hfd17e9e8e823b619+0xd4>
80005356: 4681         	li	a3, 0x0
80005358: 0084f513     	andi	a0, s1, 0x8
8000535c: c909         	beqz	a0, 0x8000536e <core::fmt::write::hfd17e9e8e823b619+0x136>
8000535e: 001ac503     	lbu	a0, 0x1(s5)
80005362: 000ac703     	lbu	a4, 0x0(s5)
80005366: 0522         	slli	a0, a0, 0x8
80005368: 00e56cb3     	or	s9, a0, a4
8000536c: 0a89         	addi	s5, s5, 0x2
8000536e: 0104f513     	andi	a0, s1, 0x10
80005372: ed15         	bnez	a0, 0x800053ae <core::fmt::write::hfd17e9e8e823b619+0x176>
80005374: 0204f513     	andi	a0, s1, 0x20
80005378: c509         	beqz	a0, 0x80005382 <core::fmt::write::hfd17e9e8e823b619+0x14a>
8000537a: 0692         	slli	a3, a3, 0x4
8000537c: 96ce         	add	a3, a3, s3
8000537e: 0086d683     	lhu	a3, 0x8(a3)
80005382: 004c9513     	slli	a0, s9, 0x4
80005386: 00a98733     	add	a4, s3, a0
8000538a: 6308         	ld	a0, 0x0(a4)
8000538c: 6718         	ld	a4, 0x8(a4)
8000538e: f9443423     	sd	s4, -0x78(s0)
80005392: f9243823     	sd	s2, -0x70(s0)
80005396: f8b42c23     	sw	a1, -0x68(s0)
8000539a: f8c41e23     	sh	a2, -0x64(s0)
8000539e: f8d41f23     	sh	a3, -0x62(s0)
800053a2: f8840593     	addi	a1, s0, -0x78
800053a6: 9702         	jalr	a4
800053a8: ee050ee3     	beqz	a0, 0x800052a4 <core::fmt::write::hfd17e9e8e823b619+0x6c>
800053ac: a081         	j	0x800053ec <core::fmt::write::hfd17e9e8e823b619+0x1b4>
800053ae: 0612         	slli	a2, a2, 0x4
800053b0: 964e         	add	a2, a2, s3
800053b2: 00865603     	lhu	a2, 0x8(a2)
800053b6: 0204f513     	andi	a0, s1, 0x20
800053ba: f161         	bnez	a0, 0x8000537a <core::fmt::write::hfd17e9e8e823b619+0x142>
800053bc: b7d9         	j	0x80005382 <core::fmt::write::hfd17e9e8e823b619+0x14a>
800053be: 01893783     	ld	a5, 0x18(s2)
800053c2: 0019d693     	srli	a3, s3, 0x1
800053c6: 8552         	mv	a0, s4
800053c8: 85b2         	mv	a1, a2
800053ca: 8636         	mv	a2, a3
800053cc: 70e6         	ld	ra, 0x78(sp)
800053ce: 7446         	ld	s0, 0x70(sp)
800053d0: 74a6         	ld	s1, 0x68(sp)
800053d2: 7906         	ld	s2, 0x60(sp)
800053d4: 69e6         	ld	s3, 0x58(sp)
800053d6: 6a46         	ld	s4, 0x50(sp)
800053d8: 6aa6         	ld	s5, 0x48(sp)
800053da: 6b06         	ld	s6, 0x40(sp)
800053dc: 7be2         	ld	s7, 0x38(sp)
800053de: 7c42         	ld	s8, 0x30(sp)
800053e0: 7ca2         	ld	s9, 0x28(sp)
800053e2: 7d02         	ld	s10, 0x20(sp)
800053e4: 6109         	addi	sp, sp, 0x80
800053e6: 8782         	jr	a5
800053e8: 4501         	li	a0, 0x0
800053ea: a011         	j	0x800053ee <core::fmt::write::hfd17e9e8e823b619+0x1b6>
800053ec: 4505         	li	a0, 0x1
800053ee: 70e6         	ld	ra, 0x78(sp)
800053f0: 7446         	ld	s0, 0x70(sp)
800053f2: 74a6         	ld	s1, 0x68(sp)
800053f4: 7906         	ld	s2, 0x60(sp)
800053f6: 69e6         	ld	s3, 0x58(sp)
800053f8: 6a46         	ld	s4, 0x50(sp)
800053fa: 6aa6         	ld	s5, 0x48(sp)
800053fc: 6b06         	ld	s6, 0x40(sp)
800053fe: 7be2         	ld	s7, 0x38(sp)
80005400: 7c42         	ld	s8, 0x30(sp)
80005402: 7ca2         	ld	s9, 0x28(sp)
80005404: 7d02         	ld	s10, 0x20(sp)
80005406: 6109         	addi	sp, sp, 0x80
80005408: 8082         	ret

000000008000540a <core::fmt::Formatter::pad_integral::write_prefix::hfc34f482b9af976a>:
8000540a: 7179         	addi	sp, sp, -0x30
8000540c: f406         	sd	ra, 0x28(sp)
8000540e: f022         	sd	s0, 0x20(sp)
80005410: ec26         	sd	s1, 0x18(sp)
80005412: e84a         	sd	s2, 0x10(sp)
80005414: e44e         	sd	s3, 0x8(sp)
80005416: e052         	sd	s4, 0x0(sp)
80005418: 1800         	addi	s0, sp, 0x30
8000541a: 893a         	mv	s2, a4
8000541c: 8a36         	mv	s4, a3
8000541e: 89ae         	mv	s3, a1
80005420: 001105b7     	lui	a1, 0x110
80005424: 00b60c63     	beq	a2, a1, 0x8000543c <core::fmt::Formatter::pad_integral::write_prefix::hfc34f482b9af976a+0x32>
80005428: 0209b683     	ld	a3, 0x20(s3)
8000542c: 84aa         	mv	s1, a0
8000542e: 85b2         	mv	a1, a2
80005430: 9682         	jalr	a3
80005432: 85aa         	mv	a1, a0
80005434: 8526         	mv	a0, s1
80005436: c199         	beqz	a1, 0x8000543c <core::fmt::Formatter::pad_integral::write_prefix::hfc34f482b9af976a+0x32>
80005438: 4505         	li	a0, 0x1
8000543a: a005         	j	0x8000545a <core::fmt::Formatter::pad_integral::write_prefix::hfc34f482b9af976a+0x50>
8000543c: 000a0e63     	beqz	s4, 0x80005458 <core::fmt::Formatter::pad_integral::write_prefix::hfc34f482b9af976a+0x4e>
80005440: 0189b783     	ld	a5, 0x18(s3)
80005444: 85d2         	mv	a1, s4
80005446: 864a         	mv	a2, s2
80005448: 70a2         	ld	ra, 0x28(sp)
8000544a: 7402         	ld	s0, 0x20(sp)
8000544c: 64e2         	ld	s1, 0x18(sp)
8000544e: 6942         	ld	s2, 0x10(sp)
80005450: 69a2         	ld	s3, 0x8(sp)
80005452: 6a02         	ld	s4, 0x0(sp)
80005454: 6145         	addi	sp, sp, 0x30
80005456: 8782         	jr	a5
80005458: 4501         	li	a0, 0x0
8000545a: 70a2         	ld	ra, 0x28(sp)
8000545c: 7402         	ld	s0, 0x20(sp)
8000545e: 64e2         	ld	s1, 0x18(sp)
80005460: 6942         	ld	s2, 0x10(sp)
80005462: 69a2         	ld	s3, 0x8(sp)
80005464: 6a02         	ld	s4, 0x0(sp)
80005466: 6145         	addi	sp, sp, 0x30
80005468: 8082         	ret

000000008000546a <core::fmt::Formatter::pad_integral::h0745a9fd037e4d44>:
8000546a: 7119         	addi	sp, sp, -0x80
8000546c: fc86         	sd	ra, 0x78(sp)
8000546e: f8a2         	sd	s0, 0x70(sp)
80005470: f4a6         	sd	s1, 0x68(sp)
80005472: f0ca         	sd	s2, 0x60(sp)
80005474: ecce         	sd	s3, 0x58(sp)
80005476: e8d2         	sd	s4, 0x50(sp)
80005478: e4d6         	sd	s5, 0x48(sp)
8000547a: e0da         	sd	s6, 0x40(sp)
8000547c: fc5e         	sd	s7, 0x38(sp)
8000547e: f862         	sd	s8, 0x30(sp)
80005480: f466         	sd	s9, 0x28(sp)
80005482: f06a         	sd	s10, 0x20(sp)
80005484: ec6e         	sd	s11, 0x18(sp)
80005486: 0100         	addi	s0, sp, 0x80
80005488: 89be         	mv	s3, a5
8000548a: 8d3a         	mv	s10, a4
8000548c: 8a36         	mv	s4, a3
8000548e: 8ab2         	mv	s5, a2
80005490: 8baa         	mv	s7, a0
80005492: cdbd         	beqz	a1, 0x80005510 <core::fmt::Formatter::pad_integral::h0745a9fd037e4d44+0xa6>
80005494: 010bec03     	lwu	s8, 0x10(s7)
80005498: 00200537     	lui	a0, 0x200
8000549c: 00ac7533     	and	a0, s8, a0
800054a0: 00110b37     	lui	s6, 0x110
800054a4: c119         	beqz	a0, 0x800054aa <core::fmt::Formatter::pad_integral::h0745a9fd037e4d44+0x40>
800054a6: 02b00b13     	li	s6, 0x2b
800054aa: 8155         	srli	a0, a0, 0x15
800054ac: 00a98cb3     	add	s9, s3, a0
800054b0: 028c1513     	slli	a0, s8, 0x28
800054b4: 06055863     	bgez	a0, 0x80005524 <core::fmt::Formatter::pad_integral::h0745a9fd037e4d44+0xba>
800054b8: 02000513     	li	a0, 0x20
800054bc: 0aaa7a63     	bgeu	s4, a0, 0x80005570 <core::fmt::Formatter::pad_integral::h0745a9fd037e4d44+0x106>
800054c0: 4501         	li	a0, 0x0
800054c2: 000a0f63     	beqz	s4, 0x800054e0 <core::fmt::Formatter::pad_integral::h0745a9fd037e4d44+0x76>
800054c6: 014a85b3     	add	a1, s5, s4
800054ca: 8656         	mv	a2, s5
800054cc: 00060683     	lb	a3, 0x0(a2)
800054d0: 0605         	addi	a2, a2, 0x1
800054d2: fc06a693     	slti	a3, a3, -0x40
800054d6: 0016c693     	xori	a3, a3, 0x1
800054da: 9536         	add	a0, a0, a3
800054dc: feb618e3     	bne	a2, a1, 0x800054cc <core::fmt::Formatter::pad_integral::h0745a9fd037e4d44+0x62>
800054e0: 9caa         	add	s9, s9, a0
800054e2: 014bd903     	lhu	s2, 0x14(s7)
800054e6: 052cf463     	bgeu	s9, s2, 0x8000552e <core::fmt::Formatter::pad_integral::h0745a9fd037e4d44+0xc4>
800054ea: 027c1513     	slli	a0, s8, 0x27
800054ee: f9a43823     	sd	s10, -0x70(s0)
800054f2: 08054b63     	bltz	a0, 0x80005588 <core::fmt::Formatter::pad_integral::h0745a9fd037e4d44+0x11e>
800054f6: 41990633     	sub	a2, s2, s9
800054fa: 021c1513     	slli	a0, s8, 0x21
800054fe: 9179         	srli	a0, a0, 0x3e
80005500: 4585         	li	a1, 0x1
80005502: 1c2e         	slli	s8, s8, 0x2b
80005504: 0ea5c263     	blt	a1, a0, 0x800055e8 <core::fmt::Formatter::pad_integral::h0745a9fd037e4d44+0x17e>
80005508: 10051563     	bnez	a0, 0x80005612 <core::fmt::Formatter::pad_integral::h0745a9fd037e4d44+0x1a8>
8000550c: 4d81         	li	s11, 0x0
8000550e: a219         	j	0x80005614 <core::fmt::Formatter::pad_integral::h0745a9fd037e4d44+0x1aa>
80005510: 010bac03     	lw	s8, 0x10(s7)
80005514: 00198c93     	addi	s9, s3, 0x1
80005518: 02d00b13     	li	s6, 0x2d
8000551c: 028c1513     	slli	a0, s8, 0x28
80005520: f8054ce3     	bltz	a0, 0x800054b8 <core::fmt::Formatter::pad_integral::h0745a9fd037e4d44+0x4e>
80005524: 4a81         	li	s5, 0x0
80005526: 014bd903     	lhu	s2, 0x14(s7)
8000552a: fd2ce0e3     	bltu	s9, s2, 0x800054ea <core::fmt::Formatter::pad_integral::h0745a9fd037e4d44+0x80>
8000552e: 000bbc03     	ld	s8, 0x0(s7)
80005532: 008bb483     	ld	s1, 0x8(s7)
80005536: 8562         	mv	a0, s8
80005538: 85a6         	mv	a1, s1
8000553a: 865a         	mv	a2, s6
8000553c: 86d6         	mv	a3, s5
8000553e: 8752         	mv	a4, s4
80005540: 00000097     	auipc	ra, 0x0
80005544: eca080e7     	jalr	-0x136(ra) <core::fmt::Formatter::pad_integral::write_prefix::hfc34f482b9af976a>
80005548: ed75         	bnez	a0, 0x80005644 <core::fmt::Formatter::pad_integral::h0745a9fd037e4d44+0x1da>
8000554a: 6c9c         	ld	a5, 0x18(s1)
8000554c: 8562         	mv	a0, s8
8000554e: 85ea         	mv	a1, s10
80005550: 864e         	mv	a2, s3
80005552: 70e6         	ld	ra, 0x78(sp)
80005554: 7446         	ld	s0, 0x70(sp)
80005556: 74a6         	ld	s1, 0x68(sp)
80005558: 7906         	ld	s2, 0x60(sp)
8000555a: 69e6         	ld	s3, 0x58(sp)
8000555c: 6a46         	ld	s4, 0x50(sp)
8000555e: 6aa6         	ld	s5, 0x48(sp)
80005560: 6b06         	ld	s6, 0x40(sp)
80005562: 7be2         	ld	s7, 0x38(sp)
80005564: 7c42         	ld	s8, 0x30(sp)
80005566: 7ca2         	ld	s9, 0x28(sp)
80005568: 7d02         	ld	s10, 0x20(sp)
8000556a: 6de2         	ld	s11, 0x18(sp)
8000556c: 6109         	addi	sp, sp, 0x80
8000556e: 8782         	jr	a5
80005570: 8556         	mv	a0, s5
80005572: 85d2         	mv	a1, s4
80005574: 00000097     	auipc	ra, 0x0
80005578: 30c080e7     	jalr	0x30c(ra) <core::str::count::do_count_chars::h6ce55074ab2fe9d1>
8000557c: 9caa         	add	s9, s9, a0
8000557e: 014bd903     	lhu	s2, 0x14(s7)
80005582: fb2cf6e3     	bgeu	s9, s2, 0x8000552e <core::fmt::Formatter::pad_integral::h0745a9fd037e4d44+0xc4>
80005586: b795         	j	0x800054ea <core::fmt::Formatter::pad_integral::h0745a9fd037e4d44+0x80>
80005588: 010bbd03     	ld	s10, 0x10(s7)
8000558c: 000bbc03     	ld	s8, 0x0(s7)
80005590: 008bbd83     	ld	s11, 0x8(s7)
80005594: 9fe00537     	lui	a0, 0x9fe00
80005598: 200005b7     	lui	a1, 0x20000
8000559c: 00ad7533     	and	a0, s10, a0
800055a0: 03058593     	addi	a1, a1, 0x30
800055a4: 8d4d         	or	a0, a0, a1
800055a6: 00aba823     	sw	a0, 0x10(s7)
800055aa: 8562         	mv	a0, s8
800055ac: 85ee         	mv	a1, s11
800055ae: 865a         	mv	a2, s6
800055b0: 86d6         	mv	a3, s5
800055b2: 8752         	mv	a4, s4
800055b4: 00000097     	auipc	ra, 0x0
800055b8: e56080e7     	jalr	-0x1aa(ra) <core::fmt::Formatter::pad_integral::write_prefix::hfc34f482b9af976a>
800055bc: 4a05         	li	s4, 0x1
800055be: e541         	bnez	a0, 0x80005646 <core::fmt::Formatter::pad_integral::h0745a9fd037e4d44+0x1dc>
800055c0: 4481         	li	s1, 0x0
800055c2: 41990533     	sub	a0, s2, s9
800055c6: 6941         	lui	s2, 0x10
800055c8: 197d         	addi	s2, s2, -0x1
800055ca: 01257ab3     	and	s5, a0, s2
800055ce: 0124f533     	and	a0, s1, s2
800055d2: 03557463     	bgeu	a0, s5, 0x800055fa <core::fmt::Formatter::pad_integral::h0745a9fd037e4d44+0x190>
800055d6: 020db603     	ld	a2, 0x20(s11)
800055da: 0485         	addi	s1, s1, 0x1
800055dc: 03000593     	li	a1, 0x30
800055e0: 8562         	mv	a0, s8
800055e2: 9602         	jalr	a2
800055e4: d56d         	beqz	a0, 0x800055ce <core::fmt::Formatter::pad_integral::h0745a9fd037e4d44+0x164>
800055e6: a085         	j	0x80005646 <core::fmt::Formatter::pad_integral::h0745a9fd037e4d44+0x1dc>
800055e8: 4589         	li	a1, 0x2
800055ea: 8db2         	mv	s11, a2
800055ec: 02b51463     	bne	a0, a1, 0x80005614 <core::fmt::Formatter::pad_integral::h0745a9fd037e4d44+0x1aa>
800055f0: 03061513     	slli	a0, a2, 0x30
800055f4: 03155d93     	srli	s11, a0, 0x31
800055f8: a831         	j	0x80005614 <core::fmt::Formatter::pad_integral::h0745a9fd037e4d44+0x1aa>
800055fa: 018db683     	ld	a3, 0x18(s11)
800055fe: 8562         	mv	a0, s8
80005600: f9043583     	ld	a1, -0x70(s0)
80005604: 864e         	mv	a2, s3
80005606: 9682         	jalr	a3
80005608: ed1d         	bnez	a0, 0x80005646 <core::fmt::Formatter::pad_integral::h0745a9fd037e4d44+0x1dc>
8000560a: 4a01         	li	s4, 0x0
8000560c: 01abb823     	sd	s10, 0x10(s7)
80005610: a81d         	j	0x80005646 <core::fmt::Formatter::pad_integral::h0745a9fd037e4d44+0x1dc>
80005612: 8db2         	mv	s11, a2
80005614: f8c43423     	sd	a2, -0x78(s0)
80005618: 4d01         	li	s10, 0x0
8000561a: 02bc5c13     	srli	s8, s8, 0x2b
8000561e: 000bbc83     	ld	s9, 0x0(s7)
80005622: 008bbb83     	ld	s7, 0x8(s7)
80005626: 64c1         	lui	s1, 0x10
80005628: 14fd         	addi	s1, s1, -0x1
8000562a: 009df933     	and	s2, s11, s1
8000562e: 009d7533     	and	a0, s10, s1
80005632: 03257a63     	bgeu	a0, s2, 0x80005666 <core::fmt::Formatter::pad_integral::h0745a9fd037e4d44+0x1fc>
80005636: 020bb603     	ld	a2, 0x20(s7)
8000563a: 0d05         	addi	s10, s10, 0x1
8000563c: 8566         	mv	a0, s9
8000563e: 85e2         	mv	a1, s8
80005640: 9602         	jalr	a2
80005642: d575         	beqz	a0, 0x8000562e <core::fmt::Formatter::pad_integral::h0745a9fd037e4d44+0x1c4>
80005644: 4a05         	li	s4, 0x1
80005646: 8552         	mv	a0, s4
80005648: 70e6         	ld	ra, 0x78(sp)
8000564a: 7446         	ld	s0, 0x70(sp)
8000564c: 74a6         	ld	s1, 0x68(sp)
8000564e: 7906         	ld	s2, 0x60(sp)
80005650: 69e6         	ld	s3, 0x58(sp)
80005652: 6a46         	ld	s4, 0x50(sp)
80005654: 6aa6         	ld	s5, 0x48(sp)
80005656: 6b06         	ld	s6, 0x40(sp)
80005658: 7be2         	ld	s7, 0x38(sp)
8000565a: 7c42         	ld	s8, 0x30(sp)
8000565c: 7ca2         	ld	s9, 0x28(sp)
8000565e: 7d02         	ld	s10, 0x20(sp)
80005660: 6de2         	ld	s11, 0x18(sp)
80005662: 6109         	addi	sp, sp, 0x80
80005664: 8082         	ret
80005666: 8566         	mv	a0, s9
80005668: 85de         	mv	a1, s7
8000566a: 865a         	mv	a2, s6
8000566c: 86d6         	mv	a3, s5
8000566e: 8752         	mv	a4, s4
80005670: 00000097     	auipc	ra, 0x0
80005674: d9a080e7     	jalr	-0x266(ra) <core::fmt::Formatter::pad_integral::write_prefix::hfc34f482b9af976a>
80005678: 4a05         	li	s4, 0x1
8000567a: f571         	bnez	a0, 0x80005646 <core::fmt::Formatter::pad_integral::h0745a9fd037e4d44+0x1dc>
8000567c: 018bb683     	ld	a3, 0x18(s7)
80005680: 8566         	mv	a0, s9
80005682: f9043583     	ld	a1, -0x70(s0)
80005686: 864e         	mv	a2, s3
80005688: 9682         	jalr	a3
8000568a: fd55         	bnez	a0, 0x80005646 <core::fmt::Formatter::pad_integral::h0745a9fd037e4d44+0x1dc>
8000568c: 4481         	li	s1, 0x0
8000568e: f8843503     	ld	a0, -0x78(s0)
80005692: 41b50533     	sub	a0, a0, s11
80005696: 6941         	lui	s2, 0x10
80005698: 197d         	addi	s2, s2, -0x1
8000569a: 012579b3     	and	s3, a0, s2
8000569e: 0124f533     	and	a0, s1, s2
800056a2: 01353a33     	sltu	s4, a0, s3
800056a6: fb3570e3     	bgeu	a0, s3, 0x80005646 <core::fmt::Formatter::pad_integral::h0745a9fd037e4d44+0x1dc>
800056aa: 020bb603     	ld	a2, 0x20(s7)
800056ae: 0485         	addi	s1, s1, 0x1
800056b0: 8566         	mv	a0, s9
800056b2: 85e2         	mv	a1, s8
800056b4: 9602         	jalr	a2
800056b6: d565         	beqz	a0, 0x8000569e <core::fmt::Formatter::pad_integral::h0745a9fd037e4d44+0x234>
800056b8: b779         	j	0x80005646 <core::fmt::Formatter::pad_integral::h0745a9fd037e4d44+0x1dc>

00000000800056ba <core::fmt::Formatter::pad::h239e525174ab4a17>:
800056ba: 711d         	addi	sp, sp, -0x60
800056bc: ec86         	sd	ra, 0x58(sp)
800056be: e8a2         	sd	s0, 0x50(sp)
800056c0: e4a6         	sd	s1, 0x48(sp)
800056c2: e0ca         	sd	s2, 0x40(sp)
800056c4: fc4e         	sd	s3, 0x38(sp)
800056c6: f852         	sd	s4, 0x30(sp)
800056c8: f456         	sd	s5, 0x28(sp)
800056ca: f05a         	sd	s6, 0x20(sp)
800056cc: ec5e         	sd	s7, 0x18(sp)
800056ce: e862         	sd	s8, 0x10(sp)
800056d0: e466         	sd	s9, 0x8(sp)
800056d2: e06a         	sd	s10, 0x0(sp)
800056d4: 1080         	addi	s0, sp, 0x60
800056d6: 89b2         	mv	s3, a2
800056d8: 01056483     	lwu	s1, 0x10(a0)
800056dc: 18000637     	lui	a2, 0x18000
800056e0: 8e65         	and	a2, a2, s1
800056e2: 892e         	mv	s2, a1
800056e4: ce45         	beqz	a2, 0x8000579c <core::fmt::Formatter::pad::h239e525174ab4a17+0xe2>
800056e6: 02349593     	slli	a1, s1, 0x23
800056ea: 0405c863     	bltz	a1, 0x8000573a <core::fmt::Formatter::pad::h239e525174ab4a17+0x80>
800056ee: 02000593     	li	a1, 0x20
800056f2: 0cb9f863     	bgeu	s3, a1, 0x800057c2 <core::fmt::Formatter::pad::h239e525174ab4a17+0x108>
800056f6: 4581         	li	a1, 0x0
800056f8: 00098f63     	beqz	s3, 0x80005716 <core::fmt::Formatter::pad::h239e525174ab4a17+0x5c>
800056fc: 01390633     	add	a2, s2, s3
80005700: 86ca         	mv	a3, s2
80005702: 00068703     	lb	a4, 0x0(a3)
80005706: 0685         	addi	a3, a3, 0x1
80005708: fc072713     	slti	a4, a4, -0x40
8000570c: 00174713     	xori	a4, a4, 0x1
80005710: 95ba         	add	a1, a1, a4
80005712: fec698e3     	bne	a3, a2, 0x80005702 <core::fmt::Formatter::pad::h239e525174ab4a17+0x48>
80005716: 01455603     	lhu	a2, 0x14(a0)
8000571a: 08c5f163     	bgeu	a1, a2, 0x8000579c <core::fmt::Formatter::pad::h239e525174ab4a17+0xe2>
8000571e: 4b81         	li	s7, 0x0
80005720: 40b60b33     	sub	s6, a2, a1
80005724: 02149613     	slli	a2, s1, 0x21
80005728: 9279         	srli	a2, a2, 0x3e
8000572a: 4685         	li	a3, 0x1
8000572c: 02b49593     	slli	a1, s1, 0x2b
80005730: 0ac6c763     	blt	a3, a2, 0x800057de <core::fmt::Formatter::pad::h239e525174ab4a17+0x124>
80005734: ce45         	beqz	a2, 0x800057ec <core::fmt::Formatter::pad::h239e525174ab4a17+0x132>
80005736: 8bda         	mv	s7, s6
80005738: a855         	j	0x800057ec <core::fmt::Formatter::pad::h239e525174ab4a17+0x132>
8000573a: 01655583     	lhu	a1, 0x16(a0)
8000573e: 10058563     	beqz	a1, 0x80005848 <core::fmt::Formatter::pad::h239e525174ab4a17+0x18e>
80005742: 013906b3     	add	a3, s2, s3
80005746: 0e000893     	li	a7, 0xe0
8000574a: 0f000813     	li	a6, 0xf0
8000574e: 87ca         	mv	a5, s2
80005750: 862e         	mv	a2, a1
80005752: 4981         	li	s3, 0x0
80005754: a811         	j	0x80005768 <core::fmt::Formatter::pad::h239e525174ab4a17+0xae>
80005756: 00178713     	addi	a4, a5, 0x1
8000575a: 413787b3     	sub	a5, a5, s3
8000575e: 167d         	addi	a2, a2, -0x1
80005760: 40f709b3     	sub	s3, a4, a5
80005764: 87ba         	mv	a5, a4
80005766: c615         	beqz	a2, 0x80005792 <core::fmt::Formatter::pad::h239e525174ab4a17+0xd8>
80005768: 02d78563     	beq	a5, a3, 0x80005792 <core::fmt::Formatter::pad::h239e525174ab4a17+0xd8>
8000576c: 00078703     	lb	a4, 0x0(a5)
80005770: fe0753e3     	bgez	a4, 0x80005756 <core::fmt::Formatter::pad::h239e525174ab4a17+0x9c>
80005774: 0ff77713     	zext.b	a4, a4
80005778: 01176763     	bltu	a4, a7, 0x80005786 <core::fmt::Formatter::pad::h239e525174ab4a17+0xcc>
8000577c: 01076863     	bltu	a4, a6, 0x8000578c <core::fmt::Formatter::pad::h239e525174ab4a17+0xd2>
80005780: 00478713     	addi	a4, a5, 0x4
80005784: bfd9         	j	0x8000575a <core::fmt::Formatter::pad::h239e525174ab4a17+0xa0>
80005786: 00278713     	addi	a4, a5, 0x2
8000578a: bfc1         	j	0x8000575a <core::fmt::Formatter::pad::h239e525174ab4a17+0xa0>
8000578c: 00378713     	addi	a4, a5, 0x3
80005790: b7e9         	j	0x8000575a <core::fmt::Formatter::pad::h239e525174ab4a17+0xa0>
80005792: 8d91         	sub	a1, a1, a2
80005794: 01455603     	lhu	a2, 0x14(a0)
80005798: f8c5e3e3     	bltu	a1, a2, 0x8000571e <core::fmt::Formatter::pad::h239e525174ab4a17+0x64>
8000579c: 650c         	ld	a1, 0x8(a0)
8000579e: 6108         	ld	a0, 0x0(a0)
800057a0: 6d9c         	ld	a5, 0x18(a1)
800057a2: 85ca         	mv	a1, s2
800057a4: 864e         	mv	a2, s3
800057a6: 60e6         	ld	ra, 0x58(sp)
800057a8: 6446         	ld	s0, 0x50(sp)
800057aa: 64a6         	ld	s1, 0x48(sp)
800057ac: 6906         	ld	s2, 0x40(sp)
800057ae: 79e2         	ld	s3, 0x38(sp)
800057b0: 7a42         	ld	s4, 0x30(sp)
800057b2: 7aa2         	ld	s5, 0x28(sp)
800057b4: 7b02         	ld	s6, 0x20(sp)
800057b6: 6be2         	ld	s7, 0x18(sp)
800057b8: 6c42         	ld	s8, 0x10(sp)
800057ba: 6ca2         	ld	s9, 0x8(sp)
800057bc: 6d02         	ld	s10, 0x0(sp)
800057be: 6125         	addi	sp, sp, 0x60
800057c0: 8782         	jr	a5
800057c2: 8a2a         	mv	s4, a0
800057c4: 854a         	mv	a0, s2
800057c6: 85ce         	mv	a1, s3
800057c8: 00000097     	auipc	ra, 0x0
800057cc: 0b8080e7     	jalr	0xb8(ra) <core::str::count::do_count_chars::h6ce55074ab2fe9d1>
800057d0: 85aa         	mv	a1, a0
800057d2: 8552         	mv	a0, s4
800057d4: 014a5603     	lhu	a2, 0x14(s4)
800057d8: fcc5f2e3     	bgeu	a1, a2, 0x8000579c <core::fmt::Formatter::pad::h239e525174ab4a17+0xe2>
800057dc: b789         	j	0x8000571e <core::fmt::Formatter::pad::h239e525174ab4a17+0x64>
800057de: 4689         	li	a3, 0x2
800057e0: 00d61663     	bne	a2, a3, 0x800057ec <core::fmt::Formatter::pad::h239e525174ab4a17+0x132>
800057e4: 030b1613     	slli	a2, s6, 0x30
800057e8: 03165b93     	srli	s7, a2, 0x31
800057ec: 4481         	li	s1, 0x0
800057ee: 02b5da13     	srli	s4, a1, 0x2b
800057f2: 00053a83     	ld	s5, 0x0(a0)
800057f6: 00853c03     	ld	s8, 0x8(a0)
800057fa: 6cc1         	lui	s9, 0x10
800057fc: 1cfd         	addi	s9, s9, -0x1
800057fe: 019bfd33     	and	s10, s7, s9
80005802: 0194f533     	and	a0, s1, s9
80005806: 01a57a63     	bgeu	a0, s10, 0x8000581a <core::fmt::Formatter::pad::h239e525174ab4a17+0x160>
8000580a: 020c3603     	ld	a2, 0x20(s8)
8000580e: 0485         	addi	s1, s1, 0x1
80005810: 8556         	mv	a0, s5
80005812: 85d2         	mv	a1, s4
80005814: 9602         	jalr	a2
80005816: d575         	beqz	a0, 0x80005802 <core::fmt::Formatter::pad::h239e525174ab4a17+0x148>
80005818: a801         	j	0x80005828 <core::fmt::Formatter::pad::h239e525174ab4a17+0x16e>
8000581a: 018c3683     	ld	a3, 0x18(s8)
8000581e: 8556         	mv	a0, s5
80005820: 85ca         	mv	a1, s2
80005822: 864e         	mv	a2, s3
80005824: 9682         	jalr	a3
80005826: c905         	beqz	a0, 0x80005856 <core::fmt::Formatter::pad::h239e525174ab4a17+0x19c>
80005828: 4905         	li	s2, 0x1
8000582a: 854a         	mv	a0, s2
8000582c: 60e6         	ld	ra, 0x58(sp)
8000582e: 6446         	ld	s0, 0x50(sp)
80005830: 64a6         	ld	s1, 0x48(sp)
80005832: 6906         	ld	s2, 0x40(sp)
80005834: 79e2         	ld	s3, 0x38(sp)
80005836: 7a42         	ld	s4, 0x30(sp)
80005838: 7aa2         	ld	s5, 0x28(sp)
8000583a: 7b02         	ld	s6, 0x20(sp)
8000583c: 6be2         	ld	s7, 0x18(sp)
8000583e: 6c42         	ld	s8, 0x10(sp)
80005840: 6ca2         	ld	s9, 0x8(sp)
80005842: 6d02         	ld	s10, 0x0(sp)
80005844: 6125         	addi	sp, sp, 0x60
80005846: 8082         	ret
80005848: 4981         	li	s3, 0x0
8000584a: 85ae         	mv	a1, a1
8000584c: 01455603     	lhu	a2, 0x14(a0)
80005850: ecc5e7e3     	bltu	a1, a2, 0x8000571e <core::fmt::Formatter::pad::h239e525174ab4a17+0x64>
80005854: b7a1         	j	0x8000579c <core::fmt::Formatter::pad::h239e525174ab4a17+0xe2>
80005856: 4481         	li	s1, 0x0
80005858: 417b0533     	sub	a0, s6, s7
8000585c: 69c1         	lui	s3, 0x10
8000585e: 19fd         	addi	s3, s3, -0x1
80005860: 01357b33     	and	s6, a0, s3
80005864: 0134f533     	and	a0, s1, s3
80005868: 01653933     	sltu	s2, a0, s6
8000586c: fb657fe3     	bgeu	a0, s6, 0x8000582a <core::fmt::Formatter::pad::h239e525174ab4a17+0x170>
80005870: 020c3603     	ld	a2, 0x20(s8)
80005874: 0485         	addi	s1, s1, 0x1
80005876: 8556         	mv	a0, s5
80005878: 85d2         	mv	a1, s4
8000587a: 9602         	jalr	a2
8000587c: d565         	beqz	a0, 0x80005864 <core::fmt::Formatter::pad::h239e525174ab4a17+0x1aa>
8000587e: b775         	j	0x8000582a <core::fmt::Formatter::pad::h239e525174ab4a17+0x170>

0000000080005880 <core::str::count::do_count_chars::h6ce55074ab2fe9d1>:
80005880: 1141         	addi	sp, sp, -0x10
80005882: e422         	sd	s0, 0x8(sp)
80005884: 862a         	mv	a2, a0
80005886: 00750693     	addi	a3, a0, 0x7
8000588a: 9ae1         	andi	a3, a3, -0x8
8000588c: 40a68333     	sub	t1, a3, a0
80005890: 0265f263     	bgeu	a1, t1, 0x800058b4 <core::str::count::do_count_chars::h6ce55074ab2fe9d1+0x34>
80005894: 4501         	li	a0, 0x0
80005896: cd81         	beqz	a1, 0x800058ae <core::str::count::do_count_chars::h6ce55074ab2fe9d1+0x2e>
80005898: 95b2         	add	a1, a1, a2
8000589a: 00060683     	lb	a3, 0x0(a2)
8000589e: 0605         	addi	a2, a2, 0x1
800058a0: fc06a693     	slti	a3, a3, -0x40
800058a4: 0016c693     	xori	a3, a3, 0x1
800058a8: 9536         	add	a0, a0, a3
800058aa: feb618e3     	bne	a2, a1, 0x8000589a <core::str::count::do_count_chars::h6ce55074ab2fe9d1+0x1a>
800058ae: 6422         	ld	s0, 0x8(sp)
800058b0: 0141         	addi	sp, sp, 0x10
800058b2: 8082         	ret
800058b4: 40658733     	sub	a4, a1, t1
800058b8: 00375393     	srli	t2, a4, 0x3
800058bc: fc038ce3     	beqz	t2, 0x80005894 <core::str::count::do_count_chars::h6ce55074ab2fe9d1+0x14>
800058c0: 9332         	add	t1, t1, a2
800058c2: 00777813     	andi	a6, a4, 0x7
800058c6: 4501         	li	a0, 0x0
800058c8: 00c68c63     	beq	a3, a2, 0x800058e0 <core::str::count::do_count_chars::h6ce55074ab2fe9d1+0x60>
800058cc: 00060583     	lb	a1, 0x0(a2)
800058d0: 0605         	addi	a2, a2, 0x1
800058d2: fc05a593     	slti	a1, a1, -0x40
800058d6: 0015c593     	xori	a1, a1, 0x1
800058da: 952e         	add	a0, a0, a1
800058dc: fe6618e3     	bne	a2, t1, 0x800058cc <core::str::count::do_count_chars::h6ce55074ab2fe9d1+0x4c>
800058e0: 4581         	li	a1, 0x0
800058e2: 02080363     	beqz	a6, 0x80005908 <core::str::count::do_count_chars::h6ce55074ab2fe9d1+0x88>
800058e6: 96c2         	add	a3, a3, a6
800058e8: 5645         	li	a2, -0xf
800058ea: 8205         	srli	a2, a2, 0x1
800058ec: 8f71         	and	a4, a4, a2
800058ee: 00e30633     	add	a2, t1, a4
800058f2: 96ba         	add	a3, a3, a4
800058f4: 00060703     	lb	a4, 0x0(a2)
800058f8: 0605         	addi	a2, a2, 0x1
800058fa: fc072713     	slti	a4, a4, -0x40
800058fe: 00174713     	xori	a4, a4, 0x1
80005902: 95ba         	add	a1, a1, a4
80005904: fed618e3     	bne	a2, a3, 0x800058f4 <core::str::count::do_count_chars::h6ce55074ab2fe9d1+0x74>
80005908: 01010637     	lui	a2, 0x1010
8000590c: 00ff06b7     	lui	a3, 0xff0
80005910: 6741         	lui	a4, 0x10
80005912: 10160613     	addi	a2, a2, 0x101
80005916: 0ff68893     	addi	a7, a3, 0xff
8000591a: 00170813     	addi	a6, a4, 0x1
8000591e: 02061713     	slli	a4, a2, 0x20
80005922: 00e60f33     	add	t5, a2, a4
80005926: 02089613     	slli	a2, a7, 0x20
8000592a: 98b2         	add	a7, a7, a2
8000592c: 02081613     	slli	a2, a6, 0x20
80005930: 9832         	add	a6, a6, a2
80005932: 952e         	add	a0, a0, a1
80005934: a015         	j	0x80005958 <core::str::count::do_count_chars::h6ce55074ab2fe9d1+0xd8>
80005936: 9372         	add	t1, t1, t3
80005938: 405383b3     	sub	t2, t2, t0
8000593c: 0032f793     	andi	a5, t0, 0x3
80005940: 011ff5b3     	and	a1, t6, a7
80005944: 008fd613     	srli	a2, t6, 0x8
80005948: 01167633     	and	a2, a2, a7
8000594c: 95b2         	add	a1, a1, a2
8000594e: 030585b3     	mul	a1, a1, a6
80005952: 91c1         	srli	a1, a1, 0x30
80005954: 952e         	add	a0, a0, a1
80005956: efad         	bnez	a5, 0x800059d0 <core::str::count::do_count_chars::h6ce55074ab2fe9d1+0x150>
80005958: f4038be3     	beqz	t2, 0x800058ae <core::str::count::do_count_chars::h6ce55074ab2fe9d1+0x2e>
8000595c: 8e1a         	mv	t3, t1
8000595e: 0c000593     	li	a1, 0xc0
80005962: 829e         	mv	t0, t2
80005964: 00b3e463     	bltu	t2, a1, 0x8000596c <core::str::count::do_count_chars::h6ce55074ab2fe9d1+0xec>
80005968: 0c000293     	li	t0, 0xc0
8000596c: 00329313     	slli	t1, t0, 0x3
80005970: 4f81         	li	t6, 0x0
80005972: 7e037793     	andi	a5, t1, 0x7e0
80005976: d3e1         	beqz	a5, 0x80005936 <core::str::count::do_count_chars::h6ce55074ab2fe9d1+0xb6>
80005978: 00fe0eb3     	add	t4, t3, a5
8000597c: 85f2         	mv	a1, t3
8000597e: 6194         	ld	a3, 0x0(a1)
80005980: 659c         	ld	a5, 0x8(a1)
80005982: 6998         	ld	a4, 0x10(a1)
80005984: 6d90         	ld	a2, 0x18(a1)
80005986: fff6c413     	not	s0, a3
8000598a: 8299         	srli	a3, a3, 0x6
8000598c: 801d         	srli	s0, s0, 0x7
8000598e: 8ec1         	or	a3, a3, s0
80005990: fff7c413     	not	s0, a5
80005994: 8399         	srli	a5, a5, 0x6
80005996: 801d         	srli	s0, s0, 0x7
80005998: 8fc1         	or	a5, a5, s0
8000599a: fff74413     	not	s0, a4
8000599e: 8319         	srli	a4, a4, 0x6
800059a0: 801d         	srli	s0, s0, 0x7
800059a2: 8f41         	or	a4, a4, s0
800059a4: fff64413     	not	s0, a2
800059a8: 8219         	srli	a2, a2, 0x6
800059aa: 801d         	srli	s0, s0, 0x7
800059ac: 8e41         	or	a2, a2, s0
800059ae: 01e6f6b3     	and	a3, a3, t5
800059b2: 96fe         	add	a3, a3, t6
800059b4: 01e7f7b3     	and	a5, a5, t5
800059b8: 01e77733     	and	a4, a4, t5
800059bc: 01e67fb3     	and	t6, a2, t5
800059c0: 973e         	add	a4, a4, a5
800059c2: 96ba         	add	a3, a3, a4
800059c4: 02058593     	addi	a1, a1, 0x20
800059c8: 9fb6         	add	t6, t6, a3
800059ca: fbd59ae3     	bne	a1, t4, 0x8000597e <core::str::count::do_count_chars::h6ce55074ab2fe9d1+0xfe>
800059ce: b7a5         	j	0x80005936 <core::str::count::do_count_chars::h6ce55074ab2fe9d1+0xb6>
800059d0: 4581         	li	a1, 0x0
800059d2: 0fc2f613     	andi	a2, t0, 0xfc
800059d6: 060e         	slli	a2, a2, 0x3
800059d8: 00ce06b3     	add	a3, t3, a2
800059dc: 00379613     	slli	a2, a5, 0x3
800059e0: 6298         	ld	a4, 0x0(a3)
800059e2: 06a1         	addi	a3, a3, 0x8
800059e4: fff74793     	not	a5, a4
800059e8: 8319         	srli	a4, a4, 0x6
800059ea: 839d         	srli	a5, a5, 0x7
800059ec: 8f5d         	or	a4, a4, a5
800059ee: 01e77733     	and	a4, a4, t5
800059f2: 1661         	addi	a2, a2, -0x8
800059f4: 95ba         	add	a1, a1, a4
800059f6: f66d         	bnez	a2, 0x800059e0 <core::str::count::do_count_chars::h6ce55074ab2fe9d1+0x160>
800059f8: 0115f633     	and	a2, a1, a7
800059fc: 81a1         	srli	a1, a1, 0x8
800059fe: 0115f5b3     	and	a1, a1, a7
80005a02: 95b2         	add	a1, a1, a2
80005a04: 030585b3     	mul	a1, a1, a6
80005a08: 91c1         	srli	a1, a1, 0x30
80005a0a: 952e         	add	a0, a0, a1
80005a0c: 6422         	ld	s0, 0x8(sp)
80005a0e: 0141         	addi	sp, sp, 0x10
80005a10: 8082         	ret

0000000080005a12 <core::panicking::panic_const::panic_const_div_by_zero::hcfde4c26e8ecfc4b>:
80005a12: 1141         	addi	sp, sp, -0x10
80005a14: e406         	sd	ra, 0x8(sp)
80005a16: e022         	sd	s0, 0x0(sp)
80005a18: 0800         	addi	s0, sp, 0x10
80005a1a: 862a         	mv	a2, a0

0000000080005a1c <.Lpcrel_hi967>:
80005a1c: 00002517     	auipc	a0, 0x2
80005a20: 40350513     	addi	a0, a0, 0x403
80005a24: 03300593     	li	a1, 0x33
80005a28: 00000097     	auipc	ra, 0x0
80005a2c: 0d0080e7     	jalr	0xd0(ra) <core::panicking::panic_fmt::h767dc8ac4dd44648>

0000000080005a30 <core::panicking::panic_const::panic_const_add_overflow::h67cba067093910f8>:
80005a30: 1141         	addi	sp, sp, -0x10
80005a32: e406         	sd	ra, 0x8(sp)
80005a34: e022         	sd	s0, 0x0(sp)
80005a36: 0800         	addi	s0, sp, 0x10
80005a38: 862a         	mv	a2, a0

0000000080005a3a <.Lpcrel_hi970>:
80005a3a: 00002517     	auipc	a0, 0x2
80005a3e: 3a850513     	addi	a0, a0, 0x3a8
80005a42: 03900593     	li	a1, 0x39
80005a46: 00000097     	auipc	ra, 0x0
80005a4a: 0b2080e7     	jalr	0xb2(ra) <core::panicking::panic_fmt::h767dc8ac4dd44648>

0000000080005a4e <core::panicking::panic_const::panic_const_sub_overflow::hccc965ba9198de7c>:
80005a4e: 1141         	addi	sp, sp, -0x10
80005a50: e406         	sd	ra, 0x8(sp)
80005a52: e022         	sd	s0, 0x0(sp)
80005a54: 0800         	addi	s0, sp, 0x10
80005a56: 862a         	mv	a2, a0

0000000080005a58 <.Lpcrel_hi977>:
80005a58: 00002517     	auipc	a0, 0x2
80005a5c: 3a650513     	addi	a0, a0, 0x3a6
80005a60: 04300593     	li	a1, 0x43
80005a64: 00000097     	auipc	ra, 0x0
80005a68: 094080e7     	jalr	0x94(ra) <core::panicking::panic_fmt::h767dc8ac4dd44648>

0000000080005a6c <core::panicking::panic_bounds_check::h6aaee0d15e0261eb>:
80005a6c: 7139         	addi	sp, sp, -0x40
80005a6e: fc06         	sd	ra, 0x38(sp)
80005a70: f822         	sd	s0, 0x30(sp)
80005a72: 0080         	addi	s0, sp, 0x40
80005a74: f0040713     	addi	a4, s0, -0x100
80005a78: e368         	sd	a0, 0xc0(a4)
80005a7a: e76c         	sd	a1, 0xc8(a4)
80005a7c: fc840513     	addi	a0, s0, -0x38

0000000080005a80 <.Lpcrel_hi997>:
80005a80: fffff597     	auipc	a1, 0xfffff
80005a84: fc040693     	addi	a3, s0, -0x40
80005a88: 6b858593     	addi	a1, a1, 0x6b8
80005a8c: eb68         	sd	a0, 0xd0(a4)
80005a8e: ef6c         	sd	a1, 0xd8(a4)
80005a90: f374         	sd	a3, 0xe0(a4)
80005a92: f76c         	sd	a1, 0xe8(a4)

0000000080005a94 <.Lpcrel_hi998>:
80005a94: 00000517     	auipc	a0, 0x0
80005a98: 58750513     	addi	a0, a0, 0x587
80005a9c: fd040593     	addi	a1, s0, -0x30
80005aa0: 00000097     	auipc	ra, 0x0
80005aa4: 058080e7     	jalr	0x58(ra) <core::panicking::panic_fmt::h767dc8ac4dd44648>

0000000080005aa8 <core::panicking::panic_nounwind_fmt::h2e018e50a8d3bc73>:
80005aa8: 7139         	addi	sp, sp, -0x40
80005aaa: fc06         	sd	ra, 0x38(sp)
80005aac: f822         	sd	s0, 0x30(sp)
80005aae: 0080         	addi	s0, sp, 0x40
80005ab0: fca43423     	sd	a0, -0x38(s0)
80005ab4: fcb43823     	sd	a1, -0x30(s0)
80005ab8: fc840513     	addi	a0, s0, -0x38
80005abc: fca43c23     	sd	a0, -0x28(s0)
80005ac0: fed43023     	sd	a3, -0x20(s0)
80005ac4: fe040423     	sb	zero, -0x18(s0)
80005ac8: fec404a3     	sb	a2, -0x17(s0)
80005acc: fd840513     	addi	a0, s0, -0x28
80005ad0: ffffb097     	auipc	ra, 0xffffb
80005ad4: 388080e7     	jalr	0x388(ra) <__rustc::rust_begin_unwind>

0000000080005ad8 <core::panicking::panic_null_pointer_dereference::hbac6411af4f2e916>:
80005ad8: 1141         	addi	sp, sp, -0x10
80005ada: e406         	sd	ra, 0x8(sp)
80005adc: e022         	sd	s0, 0x0(sp)
80005ade: 0800         	addi	s0, sp, 0x10
80005ae0: 86aa         	mv	a3, a0

0000000080005ae2 <.Lpcrel_hi1010>:
80005ae2: 00002517     	auipc	a0, 0x2
80005ae6: 35650513     	addi	a0, a0, 0x356
80005aea: 04300593     	li	a1, 0x43
80005aee: 4601         	li	a2, 0x0
80005af0: 00000097     	auipc	ra, 0x0
80005af4: fb8080e7     	jalr	-0x48(ra) <core::panicking::panic_nounwind_fmt::h2e018e50a8d3bc73>

0000000080005af8 <core::panicking::panic_fmt::h767dc8ac4dd44648>:
80005af8: 7139         	addi	sp, sp, -0x40
80005afa: fc06         	sd	ra, 0x38(sp)
80005afc: f822         	sd	s0, 0x30(sp)
80005afe: 0080         	addi	s0, sp, 0x40
80005b00: fca43423     	sd	a0, -0x38(s0)
80005b04: fcb43823     	sd	a1, -0x30(s0)
80005b08: fc840513     	addi	a0, s0, -0x38
80005b0c: 4585         	li	a1, 0x1
80005b0e: fca43c23     	sd	a0, -0x28(s0)
80005b12: fec43023     	sd	a2, -0x20(s0)
80005b16: feb41423     	sh	a1, -0x18(s0)
80005b1a: fd840513     	addi	a0, s0, -0x28
80005b1e: ffffb097     	auipc	ra, 0xffffb
80005b22: 33a080e7     	jalr	0x33a(ra) <__rustc::rust_begin_unwind>

0000000080005b26 <_$LT$core..panic..panic_info..PanicInfo$u20$as$u20$core..fmt..Display$GT$::fmt::hcccb3fed5b673506>:
80005b26: 7119         	addi	sp, sp, -0x80
80005b28: fc86         	sd	ra, 0x78(sp)
80005b2a: f8a2         	sd	s0, 0x70(sp)
80005b2c: f4a6         	sd	s1, 0x68(sp)
80005b2e: f0ca         	sd	s2, 0x60(sp)
80005b30: ecce         	sd	s3, 0x58(sp)
80005b32: e8d2         	sd	s4, 0x50(sp)
80005b34: e4d6         	sd	s5, 0x48(sp)
80005b36: 0100         	addi	s0, sp, 0x80
80005b38: 0085b903     	ld	s2, 0x8(a1)
80005b3c: 6184         	ld	s1, 0x0(a1)
80005b3e: 01893a83     	ld	s5, 0x18(s2)
80005b42: 89aa         	mv	s3, a0

0000000080005b44 <.Lpcrel_hi1258>:
80005b44: 00002517     	auipc	a0, 0x2
80005b48: 31550593     	addi	a1, a0, 0x315
80005b4c: 4631         	li	a2, 0xc
80005b4e: 8526         	mv	a0, s1
80005b50: 9a82         	jalr	s5
80005b52: 4a05         	li	s4, 0x1
80005b54: e151         	bnez	a0, 0x80005bd8 <.Lpcrel_hi1262+0x26>
80005b56: 0089b503     	ld	a0, 0x8(s3)
80005b5a: f8840813     	addi	a6, s0, -0x78

0000000080005b5e <.Lpcrel_hi1259>:
80005b5e: fffff617     	auipc	a2, 0xfffff

0000000080005b62 <.Lpcrel_hi1260>:
80005b62: fffff697     	auipc	a3, 0xfffff
80005b66: 16e60613     	addi	a2, a2, 0x16e
80005b6a: 58a68693     	addi	a3, a3, 0x58a
80005b6e: 6118         	ld	a4, 0x0(a0)
80005b70: 651c         	ld	a5, 0x8(a0)
80005b72: 01050593     	addi	a1, a0, 0x10
80005b76: 0551         	addi	a0, a0, 0x14
80005b78: f9043c23     	sd	a6, -0x68(s0)
80005b7c: fac43023     	sd	a2, -0x60(s0)
80005b80: fab43423     	sd	a1, -0x58(s0)
80005b84: fad43823     	sd	a3, -0x50(s0)
80005b88: f8e43423     	sd	a4, -0x78(s0)
80005b8c: f8f43823     	sd	a5, -0x70(s0)
80005b90: faa43c23     	sd	a0, -0x48(s0)
80005b94: fcd43023     	sd	a3, -0x40(s0)

0000000080005b98 <.Lpcrel_hi1261>:
80005b98: 00001517     	auipc	a0, 0x1
80005b9c: 88550613     	addi	a2, a0, -0x77b
80005ba0: f9840693     	addi	a3, s0, -0x68
80005ba4: 8526         	mv	a0, s1
80005ba6: 85ca         	mv	a1, s2
80005ba8: fffff097     	auipc	ra, 0xfffff
80005bac: 690080e7     	jalr	0x690(ra) <core::fmt::write::hfd17e9e8e823b619>
80005bb0: e505         	bnez	a0, 0x80005bd8 <.Lpcrel_hi1262+0x26>

0000000080005bb2 <.Lpcrel_hi1262>:
80005bb2: 00002517     	auipc	a0, 0x2
80005bb6: 2b350593     	addi	a1, a0, 0x2b3
80005bba: 4609         	li	a2, 0x2
80005bbc: 8526         	mv	a0, s1
80005bbe: 9a82         	jalr	s5
80005bc0: ed01         	bnez	a0, 0x80005bd8 <.Lpcrel_hi1262+0x26>
80005bc2: 0009b503     	ld	a0, 0x0(s3)
80005bc6: 6110         	ld	a2, 0x0(a0)
80005bc8: 6514         	ld	a3, 0x8(a0)
80005bca: 8526         	mv	a0, s1
80005bcc: 85ca         	mv	a1, s2
80005bce: fffff097     	auipc	ra, 0xfffff
80005bd2: 66a080e7     	jalr	0x66a(ra) <core::fmt::write::hfd17e9e8e823b619>
80005bd6: 8a2a         	mv	s4, a0
80005bd8: 8552         	mv	a0, s4
80005bda: 70e6         	ld	ra, 0x78(sp)
80005bdc: 7446         	ld	s0, 0x70(sp)
80005bde: 74a6         	ld	s1, 0x68(sp)
80005be0: 7906         	ld	s2, 0x60(sp)
80005be2: 69e6         	ld	s3, 0x58(sp)
80005be4: 6a46         	ld	s4, 0x50(sp)
80005be6: 6aa6         	ld	s5, 0x48(sp)
80005be8: 6109         	addi	sp, sp, 0x80
80005bea: 8082         	ret

0000000080005bec <memset>:
80005bec: 46c1         	li	a3, 0x10
80005bee: 06d66463     	bltu	a2, a3, 0x80005c56 <memset+0x6a>
80005bf2: 40a006bb     	negw	a3, a0
80005bf6: 0076f813     	andi	a6, a3, 0x7
80005bfa: 01050733     	add	a4, a0, a6
80005bfe: 00e57963     	bgeu	a0, a4, 0x80005c10 <memset+0x24>
80005c02: 87c2         	mv	a5, a6
80005c04: 86aa         	mv	a3, a0
80005c06: 00b68023     	sb	a1, 0x0(a3)
80005c0a: 17fd         	addi	a5, a5, -0x1
80005c0c: 0685         	addi	a3, a3, 0x1
80005c0e: ffe5         	bnez	a5, 0x80005c06 <memset+0x1a>
80005c10: 41060633     	sub	a2, a2, a6
80005c14: ff867693     	andi	a3, a2, -0x8
80005c18: 96ba         	add	a3, a3, a4
80005c1a: 02d77363     	bgeu	a4, a3, 0x80005c40 <memset+0x54>
80005c1e: 03859813     	slli	a6, a1, 0x38
80005c22: 101017b7     	lui	a5, 0x10101
80005c26: 0792         	slli	a5, a5, 0x4
80005c28: 10078793     	addi	a5, a5, 0x100
80005c2c: 02f83833     	mulhu	a6, a6, a5
80005c30: 02081793     	slli	a5, a6, 0x20
80005c34: 0107e7b3     	or	a5, a5, a6
80005c38: e31c         	sd	a5, 0x0(a4)
80005c3a: 0721         	addi	a4, a4, 0x8
80005c3c: fed76ee3     	bltu	a4, a3, 0x80005c38 <memset+0x4c>
80005c40: 8a1d         	andi	a2, a2, 0x7
80005c42: 00c68733     	add	a4, a3, a2
80005c46: 00e6f763     	bgeu	a3, a4, 0x80005c54 <memset+0x68>
80005c4a: 00b68023     	sb	a1, 0x0(a3)
80005c4e: 167d         	addi	a2, a2, -0x1
80005c50: 0685         	addi	a3, a3, 0x1
80005c52: fe65         	bnez	a2, 0x80005c4a <memset+0x5e>
80005c54: 8082         	ret
80005c56: 86aa         	mv	a3, a0
80005c58: 00c50733     	add	a4, a0, a2
80005c5c: fee567e3     	bltu	a0, a4, 0x80005c4a <memset+0x5e>
80005c60: bfd5         	j	0x80005c54 <memset+0x68>

0000000080005c62 <memcpy>:
80005c62: 00000317     	auipc	t1, 0x0
80005c66: 00830067     	jr	0x8(t1) <compiler_builtins::mem::memcpy::hee8635bcefabc13a>

0000000080005c6a <compiler_builtins::mem::memcpy::hee8635bcefabc13a>:
80005c6a: 1101         	addi	sp, sp, -0x20
80005c6c: ec22         	sd	s0, 0x18(sp)
80005c6e: e826         	sd	s1, 0x10(sp)
80005c70: 46c1         	li	a3, 0x10
80005c72: 06d66363     	bltu	a2, a3, 0x80005cd8 <compiler_builtins::mem::memcpy::hee8635bcefabc13a+0x6e>
80005c76: 40a006bb     	negw	a3, a0
80005c7a: 0076f813     	andi	a6, a3, 0x7
80005c7e: 01050fb3     	add	t6, a0, a6
80005c82: 01f57d63     	bgeu	a0, t6, 0x80005c9c <compiler_builtins::mem::memcpy::hee8635bcefabc13a+0x32>
80005c86: 8742         	mv	a4, a6
80005c88: 86aa         	mv	a3, a0
80005c8a: 87ae         	mv	a5, a1
80005c8c: 0007c883     	lbu	a7, 0x0(a5)
80005c90: 177d         	addi	a4, a4, -0x1
80005c92: 01168023     	sb	a7, 0x0(a3)
80005c96: 0685         	addi	a3, a3, 0x1
80005c98: 0785         	addi	a5, a5, 0x1
80005c9a: fb6d         	bnez	a4, 0x80005c8c <compiler_builtins::mem::memcpy::hee8635bcefabc13a+0x22>
80005c9c: 010584b3     	add	s1, a1, a6
80005ca0: 41060633     	sub	a2, a2, a6
80005ca4: ff867713     	andi	a4, a2, -0x8
80005ca8: 0074f813     	andi	a6, s1, 0x7
80005cac: 00ef86b3     	add	a3, t6, a4
80005cb0: 04081563     	bnez	a6, 0x80005cfa <compiler_builtins::mem::memcpy::hee8635bcefabc13a+0x90>
80005cb4: 00dffa63     	bgeu	t6, a3, 0x80005cc8 <compiler_builtins::mem::memcpy::hee8635bcefabc13a+0x5e>
80005cb8: 87a6         	mv	a5, s1
80005cba: 638c         	ld	a1, 0x0(a5)
80005cbc: 00bfb023     	sd	a1, 0x0(t6)
80005cc0: 0fa1         	addi	t6, t6, 0x8
80005cc2: 07a1         	addi	a5, a5, 0x8
80005cc4: fedfebe3     	bltu	t6, a3, 0x80005cba <compiler_builtins::mem::memcpy::hee8635bcefabc13a+0x50>
80005cc8: 00e485b3     	add	a1, s1, a4
80005ccc: 8a1d         	andi	a2, a2, 0x7
80005cce: 00c68733     	add	a4, a3, a2
80005cd2: 00e6e863     	bltu	a3, a4, 0x80005ce2 <compiler_builtins::mem::memcpy::hee8635bcefabc13a+0x78>
80005cd6: a831         	j	0x80005cf2 <compiler_builtins::mem::memcpy::hee8635bcefabc13a+0x88>
80005cd8: 86aa         	mv	a3, a0
80005cda: 00c50733     	add	a4, a0, a2
80005cde: 00e57a63     	bgeu	a0, a4, 0x80005cf2 <compiler_builtins::mem::memcpy::hee8635bcefabc13a+0x88>
80005ce2: 0005c703     	lbu	a4, 0x0(a1)
80005ce6: 167d         	addi	a2, a2, -0x1
80005ce8: 00e68023     	sb	a4, 0x0(a3)
80005cec: 0685         	addi	a3, a3, 0x1
80005cee: 0585         	addi	a1, a1, 0x1
80005cf0: fa6d         	bnez	a2, 0x80005ce2 <compiler_builtins::mem::memcpy::hee8635bcefabc13a+0x78>
80005cf2: 6462         	ld	s0, 0x18(sp)
80005cf4: 64c2         	ld	s1, 0x10(sp)
80005cf6: 6105         	addi	sp, sp, 0x20
80005cf8: 8082         	ret
80005cfa: 4881         	li	a7, 0x0
80005cfc: 47a1         	li	a5, 0x8
80005cfe: e402         	sd	zero, 0x8(sp)
80005d00: 41078333     	sub	t1, a5, a6
80005d04: 00810293     	addi	t0, sp, 0x8
80005d08: 00137793     	andi	a5, t1, 0x1
80005d0c: 0102e2b3     	or	t0, t0, a6
80005d10: ebb1         	bnez	a5, 0x80005d64 <compiler_builtins::mem::memcpy::hee8635bcefabc13a+0xfa>
80005d12: 00237793     	andi	a5, t1, 0x2
80005d16: efb9         	bnez	a5, 0x80005d74 <compiler_builtins::mem::memcpy::hee8635bcefabc13a+0x10a>
80005d18: 00437793     	andi	a5, t1, 0x4
80005d1c: eba5         	bnez	a5, 0x80005d8c <compiler_builtins::mem::memcpy::hee8635bcefabc13a+0x122>
80005d1e: 63a2         	ld	t2, 0x8(sp)
80005d20: 00381893     	slli	a7, a6, 0x3
80005d24: 008f8793     	addi	a5, t6, 0x8
80005d28: 41048f33     	sub	t5, s1, a6
80005d2c: 06d7ff63     	bgeu	a5, a3, 0x80005daa <compiler_builtins::mem::memcpy::hee8635bcefabc13a+0x140>
80005d30: 411007bb     	negw	a5, a7
80005d34: 0387fe13     	andi	t3, a5, 0x38
80005d38: 008f3303     	ld	t1, 0x8(t5)
80005d3c: 008f0e93     	addi	t4, t5, 0x8
80005d40: 0113d3b3     	srl	t2, t2, a7
80005d44: 008f8293     	addi	t0, t6, 0x8
80005d48: 01c317b3     	sll	a5, t1, t3
80005d4c: 0077e7b3     	or	a5, a5, t2
80005d50: 010f8413     	addi	s0, t6, 0x10
80005d54: 00ffb023     	sd	a5, 0x0(t6)
80005d58: 8f96         	mv	t6, t0
80005d5a: 839a         	mv	t2, t1
80005d5c: 8f76         	mv	t5, t4
80005d5e: fcd46de3     	bltu	s0, a3, 0x80005d38 <compiler_builtins::mem::memcpy::hee8635bcefabc13a+0xce>
80005d62: a0b9         	j	0x80005db0 <compiler_builtins::mem::memcpy::hee8635bcefabc13a+0x146>
80005d64: 0004c783     	lbu	a5, 0x0(s1)
80005d68: 00f28023     	sb	a5, 0x0(t0)
80005d6c: 4885         	li	a7, 0x1
80005d6e: 00237793     	andi	a5, t1, 0x2
80005d72: d3dd         	beqz	a5, 0x80005d18 <compiler_builtins::mem::memcpy::hee8635bcefabc13a+0xae>
80005d74: 011487b3     	add	a5, s1, a7
80005d78: 00079383     	lh	t2, 0x0(a5)
80005d7c: 011287b3     	add	a5, t0, a7
80005d80: 00779023     	sh	t2, 0x0(a5)
80005d84: 2889         	addiw	a7, a7, 0x2
80005d86: 00437793     	andi	a5, t1, 0x4
80005d8a: dbd1         	beqz	a5, 0x80005d1e <compiler_builtins::mem::memcpy::hee8635bcefabc13a+0xb4>
80005d8c: 011487b3     	add	a5, s1, a7
80005d90: 439c         	lw	a5, 0x0(a5)
80005d92: 9896         	add	a7, a7, t0
80005d94: 00f8a023     	sw	a5, 0x0(a7)
80005d98: 63a2         	ld	t2, 0x8(sp)
80005d9a: 00381893     	slli	a7, a6, 0x3
80005d9e: 008f8793     	addi	a5, t6, 0x8
80005da2: 41048f33     	sub	t5, s1, a6
80005da6: f8d7e5e3     	bltu	a5, a3, 0x80005d30 <compiler_builtins::mem::memcpy::hee8635bcefabc13a+0xc6>
80005daa: 8efa         	mv	t4, t5
80005dac: 82fe         	mv	t0, t6
80005dae: 831e         	mv	t1, t2
80005db0: 4781         	li	a5, 0x0
80005db2: 008e8393     	addi	t2, t4, 0x8
80005db6: 4411         	li	s0, 0x4
80005db8: e402         	sd	zero, 0x8(sp)
80005dba: 04887363     	bgeu	a6, s0, 0x80005e00 <compiler_builtins::mem::memcpy::hee8635bcefabc13a+0x196>
80005dbe: 0024f593     	andi	a1, s1, 0x2
80005dc2: e5b1         	bnez	a1, 0x80005e0e <compiler_builtins::mem::memcpy::hee8635bcefabc13a+0x1a4>
80005dc4: 0014f593     	andi	a1, s1, 0x1
80005dc8: c981         	beqz	a1, 0x80005dd8 <compiler_builtins::mem::memcpy::hee8635bcefabc13a+0x16e>
80005dca: 93be         	add	t2, t2, a5
80005dcc: 0003c583     	lbu	a1, 0x0(t2)
80005dd0: 0020         	addi	s0, sp, 0x8
80005dd2: 8fc1         	or	a5, a5, s0
80005dd4: 00b78023     	sb	a1, 0x0(a5)
80005dd8: 65a2         	ld	a1, 0x8(sp)
80005dda: 011357b3     	srl	a5, t1, a7
80005dde: 4110043b     	negw	s0, a7
80005de2: 03847413     	andi	s0, s0, 0x38
80005de6: 008595b3     	sll	a1, a1, s0
80005dea: 8ddd         	or	a1, a1, a5
80005dec: 00b2b023     	sd	a1, 0x0(t0)
80005df0: 00e485b3     	add	a1, s1, a4
80005df4: 8a1d         	andi	a2, a2, 0x7
80005df6: 00c68733     	add	a4, a3, a2
80005dfa: eee6e4e3     	bltu	a3, a4, 0x80005ce2 <compiler_builtins::mem::memcpy::hee8635bcefabc13a+0x78>
80005dfe: bdd5         	j	0x80005cf2 <compiler_builtins::mem::memcpy::hee8635bcefabc13a+0x88>
80005e00: 0003a783     	lw	a5, 0x0(t2)
80005e04: c43e         	sw	a5, 0x8(sp)
80005e06: 4791         	li	a5, 0x4
80005e08: 0024f593     	andi	a1, s1, 0x2
80005e0c: ddc5         	beqz	a1, 0x80005dc4 <compiler_builtins::mem::memcpy::hee8635bcefabc13a+0x15a>
80005e0e: 00f385b3     	add	a1, t2, a5
80005e12: 00059583     	lh	a1, 0x0(a1)
80005e16: 0020         	addi	s0, sp, 0x8
80005e18: 8c5d         	or	s0, s0, a5
80005e1a: 00b41023     	sh	a1, 0x0(s0)
80005e1e: 2789         	addiw	a5, a5, 0x2
80005e20: 0014f593     	andi	a1, s1, 0x1
80005e24: f1dd         	bnez	a1, 0x80005dca <compiler_builtins::mem::memcpy::hee8635bcefabc13a+0x160>
80005e26: bf4d         	j	0x80005dd8 <compiler_builtins::mem::memcpy::hee8635bcefabc13a+0x16e>
80005e28: 5b08         	lw	a0, 0x30(a4)
80005e2a: 65686373     	csrrsi	t1, 0x656, 0x10
80005e2e: 5d64         	lw	s1, 0x7c(a0)
80005e30: 5d19c05b     	<unknown>
80005e34: 7420         	ld	s0, 0x68(s0)
80005e36: 6172         	ld	sp, 0x118(sp)
80005e38: 6c206563     	bltu	zero, sp, 0x80006502 <.Lanon.8b0c1bb47f3a81e5e654f215fa31429c.0+0x22>
80005e3c: 6d69         	lui	s10, 0x1a
80005e3e: 7469         	lui	s0, 0xffffa
80005e40: 7220         	ld	s0, 0x60(a2)
80005e42: 6165         	addi	sp, sp, 0x70
80005e44: 64656863     	bltu	a0, t1, 0x80006494 <.Lanon.956540d7cd3af028c65bafdd25863b2d.1+0x1c>
80005e48: 6120         	ld	s0, 0x40(a0)
80005e4a: 2074         	fld	fa3, 0xc0(s0)
80005e4c: 28c0         	fld	fs0, 0x90(s1)
80005e4e: 7220         	ld	s0, 0x60(a2)
80005e50: 6365         	lui	t1, 0x19
80005e52: 2864726f     	jal	tp, 0x8004d0d8 <__user_task2_stack_top+0x348e8>
80005e56: 203b2973     	csrrs	s2, 0x203, s6
80005e5a: 7566         	ld	a0, 0x78(sp)
80005e5c: 7472         	ld	s0, 0x138(sp)
80005e5e: 6568         	ld	a0, 0xc8(a0)
80005e60: 2072         	fld	ft0, 0x118(sp)
80005e62: 74697773     	csrrci	a4, 0x746, 0x12
80005e66: 73656863     	bltu	a0, s6, 0x80006596 <.Lanon.e8426decaacd9092b441bf5c15dffddc.2+0x56>
80005e6a: 7320         	ld	s0, 0x60(a4)
80005e6c: 7075         	c.lui	zero, 0xffffd
80005e6e: 7270         	ld	a2, 0xe0(a2)
80005e70: 7365         	lui	t1, 0xffff9
80005e72: 0a646573     	csrrsi	a0, 0xa6, 0x8
80005e76: 7300         	ld	s0, 0x20(a4)
80005e78: 6372         	ld	t1, 0x118(sp)
80005e7a: 69616d2f     	<unknown>
80005e7e: 2e6e         	fld	ft8, 0xd8(sp)
80005e80: 7372         	ld	t1, 0x138(sp)
80005e82: 2f00         	fld	fs0, 0x18(a4)
80005e84: 7572         	ld	a0, 0x138(sp)
80005e86: 2f637473     	csrrci	s0, 0x2f6, 0x6
80005e8a: 3465         	addiw	s0, s0, -0x7
80005e8c: 3830         	fld	fa2, 0x70(s0)
80005e8e: 3439         	addiw	s0, s0, -0x12
80005e90: 64666237     	lui	tp, 0x64666
80005e94: 3032         	fld	ft0, 0x128(sp)
80005e96: 6130         	ld	a2, 0x40(a0)
80005e98: 3466         	fld	fs0, 0x78(sp)
80005e9a: 6432         	ld	s0, 0x108(sp)
80005e9c: 3362         	fld	ft6, 0x38(sp)
80005e9e: 3232         	fld	ft4, 0x128(sp)
80005ea0: 6164         	ld	s1, 0xc0(a0)
80005ea2: 3066         	fld	ft0, 0x78(sp)
80005ea4: 6166         	ld	sp, 0x58(sp)
80005ea6: 6664         	ld	s1, 0xc8(a2)
80005ea8: 3765         	addiw	a4, a4, -0x7
80005eaa: 3265         	addiw	tp, tp, -0x7
80005eac: 6436         	ld	s0, 0x148(sp)
80005eae: 31646233     	<unknown>
80005eb2: 62696c2f     	<unknown>
80005eb6: 6172         	ld	sp, 0x118(sp)
80005eb8: 7972         	ld	s2, 0x138(sp)
80005eba: 726f632f     	<unknown>
80005ebe: 2f65         	addiw	t5, t5, 0x19
80005ec0: 2f637273     	csrrci	tp, 0x2f6, 0x6
80005ec4: 7470         	ld	a2, 0xe8(s0)
80005ec6: 2f72         	fld	ft10, 0x118(sp)
80005ec8: 6f6d         	lui	t5, 0x1b
80005eca: 2e64         	fld	fs1, 0xd8(a2)
80005ecc: 7372         	ld	t1, 0x138(sp)
80005ece: 1000         	addi	s0, sp, 0x20
80005ed0: 72656b5b     	<unknown>
80005ed4: 656e         	ld	a0, 0xd8(sp)
80005ed6: 5d6c         	lw	a1, 0x7c(a0)
80005ed8: 7020         	ld	s0, 0x60(s0)
80005eda: 6e61         	lui	t3, 0x18
80005edc: 6369         	lui	t1, 0x1a
80005ede: 203a         	fld	ft0, 0x188(sp)
80005ee0: 01c0         	addi	s0, sp, 0xc4
80005ee2: 000a         	c.slli	zero, 0x2
80005ee4: 1200         	addi	s0, sp, 0x120
80005ee6: 72656b5b     	<unknown>
80005eea: 656e         	ld	a0, 0xd8(sp)
80005eec: 5d6c         	lw	a1, 0x7c(a0)
80005eee: 7420         	ld	s0, 0x68(s0)
80005ef0: 7361         	lui	t1, 0xffff8
80005ef2: 65645f6b     	<unknown>
80005ef6: 5b66         	lw	s6, 0x78(sp)
80005ef8: 07c0         	addi	s0, sp, 0x3c4
80005efa: 3a5d         	addiw	s4, s4, -0x9
80005efc: 7020         	ld	s0, 0x60(s0)
80005efe: 6469         	lui	s0, 0x1a
80005f00: c03d         	beqz	s0, 0x80005f66 <compiler_builtins::mem::memcpy::hee8635bcefabc13a+0x2fc>
80005f02: 2006         	fld	ft0, 0x40(sp)
80005f04: 616e         	ld	sp, 0xd8(sp)
80005f06: 656d         	lui	a0, 0x1b
80005f08: c03d         	beqz	s0, 0x80005f6e <compiler_builtins::mem::memcpy::hee8635bcefabc13a+0x304>
80005f0a: 6c632007     	flw	ft0, 0x6c6(t1)
80005f0e: 7361         	lui	t1, 0xffff8
80005f10: 0ac03d73     	csrrc	s10, 0xac, zero
80005f14: 7020         	ld	s0, 0x60(s0)
80005f16: 6972         	ld	s2, 0x118(sp)
80005f18: 7469726f     	jal	tp, 0x8009d65e <__user_task2_stack_top+0x84e6e>
80005f1c: 3d79         	addiw	s10, s10, -0x2
80005f1e: 06c0         	addi	s0, sp, 0x344
80005f20: 7220         	ld	s0, 0x60(a2)
80005f22: 3d656c6f     	jal	s8, 0x8005c2f8 <__user_task2_stack_top+0x43b08>
80005f26: 01c0         	addi	s0, sp, 0xc4
80005f28: 000a         	c.slli	zero, 0x2
80005f2a: 5b1c         	lw	a5, 0x30(a4)
80005f2c: 6e72656b     	<unknown>
80005f30: 6c65         	lui	s8, 0x19
80005f32: 205d         	<unknown>
80005f34: 6870         	ld	a2, 0xd0(s0)
80005f36: 7361         	lui	t1, 0xffff8
80005f38: 2065         	<unknown>
80005f3a: 6562         	ld	a0, 0x18(sp)
80005f3c: 3a6e6967     	<unknown>
80005f40: 6920         	ld	s0, 0x50(a0)
80005f42: 646e         	ld	s0, 0xd8(sp)
80005f44: 7865         	lui	a6, 0xffff9
80005f46: c03d         	beqz	s0, 0x80005fac <compiler_builtins::mem::memcpy::hee8635bcefabc13a+0x342>
80005f48: 2006         	fld	ft0, 0x40(sp)
80005f4a: 616e         	ld	sp, 0xd8(sp)
80005f4c: 656d         	lui	a0, 0x1b
80005f4e: c03d         	beqz	s0, 0x80005fb4 <compiler_builtins::mem::memcpy::hee8635bcefabc13a+0x34a>
80005f50: 2008         	fld	fa0, 0x0(s0)
80005f52: 6f70         	ld	a2, 0xd8(a4)
80005f54: 696c         	ld	a1, 0xd0(a0)
80005f56: c03d7963     	bgeu	s10, gp, 0x80005368 <core::fmt::write::hfd17e9e8e823b619+0x130>
80005f5a: 0a01         	c.addi	s4, 0x0
80005f5c: 2f00         	fld	fs0, 0x18(a4)
80005f5e: 7572         	ld	a0, 0x138(sp)
80005f60: 2f637473     	csrrci	s0, 0x2f6, 0x6
80005f64: 3465         	addiw	s0, s0, -0x7
80005f66: 3830         	fld	fa2, 0x70(s0)
80005f68: 3439         	addiw	s0, s0, -0x12
80005f6a: 64666237     	lui	tp, 0x64666
80005f6e: 3032         	fld	ft0, 0x128(sp)
80005f70: 6130         	ld	a2, 0x40(a0)
80005f72: 3466         	fld	fs0, 0x78(sp)
80005f74: 6432         	ld	s0, 0x108(sp)
80005f76: 3362         	fld	ft6, 0x38(sp)
80005f78: 3232         	fld	ft4, 0x128(sp)
80005f7a: 6164         	ld	s1, 0xc0(a0)
80005f7c: 3066         	fld	ft0, 0x78(sp)
80005f7e: 6166         	ld	sp, 0x58(sp)
80005f80: 6664         	ld	s1, 0xc8(a2)
80005f82: 3765         	addiw	a4, a4, -0x7
80005f84: 3265         	addiw	tp, tp, -0x7
80005f86: 6436         	ld	s0, 0x148(sp)
80005f88: 31646233     	<unknown>
80005f8c: 62696c2f     	<unknown>
80005f90: 6172         	ld	sp, 0x118(sp)
80005f92: 7972         	ld	s2, 0x138(sp)
80005f94: 726f632f     	<unknown>
80005f98: 2f65         	addiw	t5, t5, 0x19
80005f9a: 2f637273     	csrrci	tp, 0x2f6, 0x6
80005f9e: 72616863     	bltu	sp, t1, 0x800066ce <.Lanon.e8426decaacd9092b441bf5c15dffddc.3+0x77>
80005fa2: 74656d2f     	<unknown>
80005fa6: 6f68         	ld	a0, 0xd8(a4)
80005fa8: 7364         	ld	s1, 0xe0(a4)
80005faa: 722e         	ld	tp, 0xe8(sp)
80005fac: 5b1a0073     	<unknown>
80005fb0: 6e72656b     	<unknown>
80005fb4: 6c65         	lui	s8, 0x19
80005fb6: 205d         	<unknown>
80005fb8: 6f70         	ld	a2, 0xd8(a4)
80005fba: 696c         	ld	a1, 0xd0(a0)
80005fbc: 73656963     	bltu	a0, s6, 0x800066ee <.Lanon.e8426decaacd9092b441bf5c15dffddc.3+0x97>
80005fc0: 203a         	fld	ft0, 0x188(sp)
80005fc2: 6870         	ld	a2, 0xd0(s0)
80005fc4: 7361         	lui	t1, 0xffff8
80005fc6: 3065         	<unknown>
80005fc8: c03d         	beqz	s0, 0x8000602e <compiler_builtins::mem::memcpy::hee8635bcefabc13a+0x3c4>
80005fca: 2c09         	addiw	s8, s8, 0x2
80005fcc: 7020         	ld	s0, 0x60(s0)
80005fce: 6168         	ld	a0, 0xc0(a0)
80005fd0: 3d316573     	csrrsi	a0, pmpaddr35, 0x2
80005fd4: 01c0         	addi	s0, sp, 0xc4
80005fd6: 000a         	c.slli	zero, 0x2
80005fd8: 5b20         	lw	s0, 0x70(a4)
80005fda: 6e72656b     	<unknown>
80005fde: 6c65         	lui	s8, 0x19
80005fe0: 205d         	<unknown>
80005fe2: 7274         	ld	a3, 0xe0(a2)
80005fe4: 6361         	lui	t1, 0x18
80005fe6: 2065         	<unknown>
80005fe8: 746e6f63     	bltu	t3, t1, 0x80006746 <.Lanon.e8426decaacd9092b441bf5c15dffddc.3+0xef>
80005fec: 6f72         	ld	t5, 0x118(sp)
80005fee: 3a6c         	fld	fa1, 0xf0(a2)
80005ff0: 6520         	ld	s0, 0x48(a0)
80005ff2: 616e         	ld	sp, 0xd8(sp)
80005ff4: 6c62         	ld	s8, 0x18(sp)
80005ff6: 6465         	lui	s0, 0x19
80005ff8: c03d         	beqz	s0, 0x8000605e <compiler_builtins::mem::memcpy::hee8635bcefabc13a+0x3f4>
80005ffa: 2c08         	fld	fa0, 0x18(s0)
80005ffc: 6c20         	ld	s0, 0x58(s0)
80005ffe: 6d69         	lui	s10, 0x1a
80006000: 7469         	lui	s0, 0xffffa
80006002: c03d         	beqz	s0, 0x80006068 <compiler_builtins::mem::memcpy::hee8635bcefabc13a+0x3fe>
80006004: 2015         	<unknown>
80006006: 6572         	ld	a0, 0x118(sp)
80006008: 64726f63     	bltu	tp, t2, 0x80006666 <.Lanon.e8426decaacd9092b441bf5c15dffddc.3+0xf>
8000600c: 7328         	ld	a0, 0x60(a4)
8000600e: 2029         	<unknown>
80006010: 6570         	ld	a2, 0xc8(a0)
80006012: 2072         	fld	ft0, 0x118(sp)
80006014: 6870         	ld	a2, 0xd0(s0)
80006016: 7361         	lui	t1, 0xffff8
80006018: 0a65         	addi	s4, s4, 0x19
8000601a: 2000         	fld	fs0, 0x0(s0)
8000601c: 6e69         	lui	t3, 0x1a
8000601e: 6564         	ld	s1, 0xc8(a0)
80006020: 2078         	fld	fa4, 0xc0(s0)
80006022: 2074756f     	jal	a0, 0x8004da28 <__user_task2_stack_top+0x35238>
80006026: 6220666f     	jal	a2, 0x8000c648 <__kernel_stack_bottom+0x3e58>
8000602a: 646e756f     	jal	a0, 0x800ed670 <__user_task2_stack_top+0xd4e80>
8000602e: 74203a73     	csrrc	s4, mncause, zero
80006032: 6568         	ld	a0, 0xc8(a0)
80006034: 6c20         	ld	s0, 0x58(s0)
80006036: 6e65         	lui	t3, 0x19
80006038: 6920         	ld	s0, 0x50(a0)
8000603a: 12c02073     	csrr	zero, 0x12c
8000603e: 6220         	ld	s0, 0x40(a2)
80006040: 7475         	lui	s0, 0xffffd
80006042: 7420         	ld	s0, 0x68(s0)
80006044: 6568         	ld	a0, 0xc8(a0)
80006046: 6920         	ld	s0, 0x50(a0)
80006048: 646e         	ld	s0, 0xd8(sp)
8000604a: 7865         	lui	a6, 0xffff9
8000604c: 6920         	ld	s0, 0x50(a0)
8000604e: 00c02073     	csrr	zero, 0xc
80006052: 7375722f     	<unknown>
80006056: 6374         	ld	a3, 0xc0(a4)
80006058: 3034652f     	<unknown>
8000605c: 3938         	fld	fa4, 0x70(a0)
8000605e: 3734         	fld	fa3, 0x68(a4)
80006060: 6662         	ld	a2, 0x18(sp)
80006062: 3264         	fld	fs1, 0xe0(a2)
80006064: 3030         	fld	fa2, 0x60(s0)
80006066: 6661         	lui	a2, 0x18
80006068: 3234         	fld	fa3, 0x60(a2)
8000606a: 6264         	ld	s1, 0xc0(a2)
8000606c: 64323233     	<unknown>
80006070: 6661         	lui	a2, 0x18
80006072: 6630         	ld	a2, 0x48(a2)
80006074: 6461         	lui	s0, 0x18
80006076: 6566         	ld	a0, 0x58(sp)
80006078: 36326537     	lui	a0, 0x36326
8000607c: 3364         	fld	fs1, 0xe0(a4)
8000607e: 6462         	ld	s0, 0x18(sp)
80006080: 2f31         	addiw	t5, t5, 0xc
80006082: 696c         	ld	a1, 0xd0(a0)
80006084: 7262         	ld	tp, 0x38(sp)
80006086: 7261         	lui	tp, 0xffff8
80006088: 2f79         	addiw	t5, t5, 0x1e
8000608a: 65726f63     	bltu	tp, s7, 0x800066e8 <.Lanon.e8426decaacd9092b441bf5c15dffddc.3+0x91>
8000608e: 6372732f     	<unknown>
80006092: 746d662f     	<unknown>
80006096: 646f6d2f     	<unknown>
8000609a: 722e         	ld	tp, 0xe8(sp)
8000609c: 72730073     	<unknown>
800060a0: 6f632f63     	<unknown>
800060a4: 736e         	ld	t1, 0xf8(sp)
800060a6: 2e656c6f     	jal	s8, 0x8005c38c <__user_task2_stack_top+0x43b9c>
800060aa: 7372         	ld	t1, 0x138(sp)
800060ac: 4e00         	lw	s0, 0x18(a2)
800060ae: 72656b5b     	<unknown>
800060b2: 656e         	ld	a0, 0xd8(sp)
800060b4: 5d6c         	lw	a1, 0x7c(a0)
800060b6: 6120         	ld	s0, 0x40(a0)
800060b8: 70656363     	bltu	a0, t1, 0x800067be <.Lanon.a10280e54e69010c16f1c61e747db4fd.0+0x16>
800060bc: 6174         	ld	a3, 0xc0(a0)
800060be: 636e         	ld	t1, 0xd8(sp)
800060c0: 2065         	<unknown>
800060c2: 6f6c         	ld	a1, 0xd8(a4)
800060c4: 72702d77     	<unknown>
800060c8: 6f69         	lui	t5, 0x1a
800060ca: 6972         	ld	s2, 0x118(sp)
800060cc: 7974         	ld	a3, 0xf0(a0)
800060ce: 6320         	ld	s0, 0x40(a4)
800060d0: 75706d6f     	jal	s10, 0x8000d026 <__user_task0_stack_bottom+0x836>
800060d4: 6574         	ld	a3, 0xc8(a0)
800060d6: 7420         	ld	s0, 0x68(s0)
800060d8: 7361         	lui	t1, 0xffff8
800060da: 7320736b     	<unknown>
800060de: 6974         	ld	a3, 0xd0(a0)
800060e0: 6c6c         	ld	a1, 0xd8(s0)
800060e2: 6320         	ld	s0, 0x40(a4)
800060e4: 6c706d6f     	jal	s10, 0x8000cfaa <__user_task0_stack_bottom+0x7ba>
800060e8: 7465         	lui	s0, 0xffff9
800060ea: 6465         	lui	s0, 0x19
800060ec: 6920         	ld	s0, 0x50(a0)
800060ee: 206e         	fld	ft0, 0xd8(sp)
800060f0: 6966         	ld	s2, 0x58(sp)
800060f2: 696e         	ld	s2, 0xd8(sp)
800060f4: 6574         	ld	a3, 0xc8(a0)
800060f6: 7220         	ld	s0, 0x60(a2)
800060f8: 6e75         	lui	t3, 0x1d
800060fa: 203a         	fld	ft0, 0x188(sp)
800060fc: 01c0         	addi	s0, sp, 0xc4
800060fe: 000a         	c.slli	zero, 0x2
80006100: 5b31         	li	s6, -0x14
80006102: 6e72656b     	<unknown>
80006106: 6c65         	lui	s8, 0x19
80006108: 205d         	<unknown>
8000610a: 706d6f63     	bltu	s10, t1, 0x80006828 <.Lanon.a10280e54e69010c16f1c61e747db4fd.0+0x80>
8000610e: 7261         	lui	tp, 0xffff8
80006110: 7369         	lui	t1, 0xffffa
80006112: 203a6e6f     	jal	t3, 0x800acb14 <__user_task2_stack_top+0x94324>
80006116: 706d6f63     	bltu	s10, t1, 0x80006834 <.Lanon.a10280e54e69010c16f1c61e747db4fd.0+0x8c>
8000611a: 7475         	lui	s0, 0xffffd
8000611c: 5f65         	li	t5, -0x7
8000611e: 6f6c         	ld	a1, 0xd8(a4)
80006120: 676e         	ld	a4, 0xd8(sp)
80006122: 665f 6e69 7369       	<unknown>
80006128: 5f68         	lw	a0, 0x7c(a4)
8000612a: 6974         	ld	a3, 0xd0(a0)
8000612c: 72206b63     	bltu	zero, sp, 0x80006862 <.Lanon.a10280e54e69010c16f1c61e747db4fd.0+0xba>
80006130: 3d72         	fld	fs10, 0x138(sp)
80006132: 0ac0         	addi	s0, sp, 0x154
80006134: 7020         	ld	s0, 0x60(s0)
80006136: 6972         	ld	s2, 0x118(sp)
80006138: 7469726f     	jal	tp, 0x8009d87e <__user_task2_stack_top+0x8508e>
8000613c: 3d79         	addiw	s10, s10, -0x2
8000613e: 01c0         	addi	s0, sp, 0xc4
80006140: 000a         	c.slli	zero, 0x2
80006142: 5b52         	lw	s6, 0x34(sp)
80006144: 6e72656b     	<unknown>
80006148: 6c65         	lui	s8, 0x19
8000614a: 205d         	<unknown>
8000614c: 6361         	lui	t1, 0x18
8000614e: 74706563     	bltu	zero, t2, 0x80006898 <.Lanon.bc90b582a5a3bd76831568bf63ac5a92.3>
80006152: 6e61         	lui	t3, 0x18
80006154: 68206563     	bltu	zero, sp, 0x800067de <.Lanon.a10280e54e69010c16f1c61e747db4fd.0+0x36>
80006158: 6769         	lui	a4, 0x1a
8000615a: 2d68         	fld	fa0, 0xd8(a0)
8000615c: 7270         	ld	a2, 0xe0(a2)
8000615e: 6f69         	lui	t5, 0x1a
80006160: 6972         	ld	s2, 0x118(sp)
80006162: 7974         	ld	a3, 0xf0(a0)
80006164: 6920         	ld	s0, 0x50(a0)
80006166: 746e         	ld	s0, 0xf8(sp)
80006168: 7265         	lui	tp, 0xffff9
8000616a: 6361         	lui	t1, 0x18
8000616c: 6974         	ld	a3, 0xd0(a0)
8000616e: 6576         	ld	a0, 0x158(sp)
80006170: 7420         	ld	s0, 0x68(s0)
80006172: 7361         	lui	t1, 0xffff8
80006174: 6166206b     	<unknown>
80006178: 6f76         	ld	t5, 0x158(sp)
8000617a: 6572         	ld	a0, 0x118(sp)
8000617c: 2064         	fld	fs1, 0xc0(s0)
8000617e: 6e75         	lui	t3, 0x1d
80006180: 6564         	ld	s1, 0xc8(a0)
80006182: 2072         	fld	ft0, 0x118(sp)
80006184: 74617473     	csrrci	s0, 0x746, 0x2
80006188: 6369         	lui	t1, 0x1a
8000618a: 705f 6972 726f       	<unknown>
80006190: 7469         	lui	s0, 0xffffa
80006192: 3a79         	addiw	s4, s4, -0x2
80006194: c020         	sw	s0, 0x40(s0)
80006196: 0a01         	c.addi	s4, 0x0
80006198: 2f00         	fld	fs0, 0x18(a4)
8000619a: 7572         	ld	a0, 0x138(sp)
8000619c: 2f637473     	csrrci	s0, 0x2f6, 0x6
800061a0: 3465         	addiw	s0, s0, -0x7
800061a2: 3830         	fld	fa2, 0x70(s0)
800061a4: 3439         	addiw	s0, s0, -0x12
800061a6: 64666237     	lui	tp, 0x64666
800061aa: 3032         	fld	ft0, 0x128(sp)
800061ac: 6130         	ld	a2, 0x40(a0)
800061ae: 3466         	fld	fs0, 0x78(sp)
800061b0: 6432         	ld	s0, 0x108(sp)
800061b2: 3362         	fld	ft6, 0x38(sp)
800061b4: 3232         	fld	ft4, 0x128(sp)
800061b6: 6164         	ld	s1, 0xc0(a0)
800061b8: 3066         	fld	ft0, 0x78(sp)
800061ba: 6166         	ld	sp, 0x58(sp)
800061bc: 6664         	ld	s1, 0xc8(a2)
800061be: 3765         	addiw	a4, a4, -0x7
800061c0: 3265         	addiw	tp, tp, -0x7
800061c2: 6436         	ld	s0, 0x148(sp)
800061c4: 31646233     	<unknown>
800061c8: 62696c2f     	<unknown>
800061cc: 6172         	ld	sp, 0x118(sp)
800061ce: 7972         	ld	s2, 0x138(sp)
800061d0: 726f632f     	<unknown>
800061d4: 2f65         	addiw	t5, t5, 0x19
800061d6: 2f637273     	csrrci	tp, 0x2f6, 0x6
800061da: 7469         	lui	s0, 0xffffa
800061dc: 7265         	lui	tp, 0xffff9
800061de: 6e61722f     	<unknown>
800061e2: 722e6567     	<unknown>
800061e6: 5b1b0073     	<unknown>
800061ea: 6e72656b     	<unknown>
800061ee: 6c65         	lui	s8, 0x19
800061f0: 205d         	<unknown>
800061f2: 6870         	ld	a2, 0xd0(s0)
800061f4: 7361         	lui	t1, 0xffff8
800061f6: 2065         	<unknown>
800061f8: 7274         	ld	a3, 0xe0(a2)
800061fa: 6e61         	lui	t3, 0x18
800061fc: 69746973     	csrrsi	s2, 0x697, 0x8
80006200: 203a6e6f     	jal	t3, 0x800acc02 <__user_task2_stack_top+0x94412>
80006204: 04c0         	addi	s0, sp, 0x244
80006206: 2d20         	fld	fs0, 0x58(a0)
80006208: 203e         	fld	ft0, 0x1c8(sp)
8000620a: 01c0         	addi	s0, sp, 0xc4
8000620c: 000a         	c.slli	zero, 0x2
8000620e: 7375722f     	<unknown>
80006212: 6374         	ld	a3, 0xc0(a4)
80006214: 3034652f     	<unknown>
80006218: 3938         	fld	fa4, 0x70(a0)
8000621a: 3734         	fld	fa3, 0x68(a4)
8000621c: 6662         	ld	a2, 0x18(sp)
8000621e: 3264         	fld	fs1, 0xe0(a2)
80006220: 3030         	fld	fa2, 0x60(s0)
80006222: 6661         	lui	a2, 0x18
80006224: 3234         	fld	fa3, 0x60(a2)
80006226: 6264         	ld	s1, 0xc0(a2)
80006228: 64323233     	<unknown>
8000622c: 6661         	lui	a2, 0x18
8000622e: 6630         	ld	a2, 0x48(a2)
80006230: 6461         	lui	s0, 0x18
80006232: 6566         	ld	a0, 0x58(sp)
80006234: 36326537     	lui	a0, 0x36326
80006238: 3364         	fld	fs1, 0xe0(a4)
8000623a: 6462         	ld	s0, 0x18(sp)
8000623c: 2f31         	addiw	t5, t5, 0xc
8000623e: 696c         	ld	a1, 0xd0(a0)
80006240: 7262         	ld	tp, 0x38(sp)
80006242: 7261         	lui	tp, 0xffff8
80006244: 2f79         	addiw	t5, t5, 0x1e
80006246: 65726f63     	bltu	tp, s7, 0x800068a4 <.Lanon.bc90b582a5a3bd76831568bf63ac5a92.3+0xc>
8000624a: 6372732f     	<unknown>
8000624e: 746d662f     	<unknown>
80006252: 6d756e2f     	<unknown>
80006256: 722e         	ld	tp, 0xe8(sp)
80006258: 5b300073     	<unknown>
8000625c: 6e72656b     	<unknown>
80006260: 6c65         	lui	s8, 0x19
80006262: 205d         	<unknown>
80006264: 706d6f63     	bltu	s10, t1, 0x80006982 <.Lanon.18c15a8f6e1c0dbe4ff694855c69b286.4+0xa>
80006268: 7261         	lui	tp, 0xffff8
8000626a: 7369         	lui	t1, 0xffffa
8000626c: 203a6e6f     	jal	t3, 0x800acc6e <__user_task2_stack_top+0x9447e>
80006270: 6e69         	lui	t3, 0x1a
80006272: 6574         	ld	a3, 0xc8(a0)
80006274: 6172         	ld	sp, 0x118(sp)
80006276: 76697463     	bgeu	s2, t1, 0x800069de <.Lanon.18c15a8f6e1c0dbe4ff694855c69b286.9+0x6>
8000627a: 5f65         	li	t5, -0x7
8000627c: 6966         	ld	s2, 0x58(sp)
8000627e: 696e         	ld	s2, 0xd8(sp)
80006280: 745f6873     	csrrsi	a6, 0x745, 0x1e
80006284: 6369         	lui	t1, 0x1a
80006286: 7272206b     	<unknown>
8000628a: c03d         	beqz	s0, 0x800062f0 <compiler_builtins::mem::memcpy::hee8635bcefabc13a+0x686>
8000628c: 200a         	fld	ft0, 0x80(sp)
8000628e: 7270         	ld	a2, 0xe0(a2)
80006290: 6f69         	lui	t5, 0x1a
80006292: 6972         	ld	s2, 0x118(sp)
80006294: 7974         	ld	a3, 0xf0(a0)
80006296: c03d         	beqz	s0, 0x800062fc <compiler_builtins::mem::memcpy::hee8635bcefabc13a+0x692>
80006298: 6e69201b     	<unknown>
8000629c: 6574         	ld	a3, 0xc8(a0)
8000629e: 6172         	ld	sp, 0x118(sp)
800062a0: 76697463     	bgeu	s2, t1, 0x80006a08 <.Lanon.18c15a8f6e1c0dbe4ff694855c69b286.11>
800062a4: 5f65         	li	t5, -0x7
800062a6: 74697773     	csrrci	a4, 0x746, 0x12
800062aa: 695f6863     	bltu	t5, s5, 0x8000693a <.Lanon.18c15a8f6e1c0dbe4ff694855c69b286.1+0x2>
800062ae: 736e         	ld	t1, 0xf8(sp)
800062b0: 7220         	ld	s0, 0x60(a2)
800062b2: 3d72         	fld	fs10, 0x138(sp)
800062b4: 0ac0         	addi	s0, sp, 0x154
800062b6: 7020         	ld	s0, 0x60(s0)
800062b8: 6972         	ld	s2, 0x118(sp)
800062ba: 7469726f     	jal	tp, 0x8009da00 <__user_task2_stack_top+0x85210>
800062be: 3d79         	addiw	s10, s10, -0x2
800062c0: 01c0         	addi	s0, sp, 0xc4
800062c2: 000a         	c.slli	zero, 0x2
800062c4: 5b54         	lw	a3, 0x34(a4)
800062c6: 6e72656b     	<unknown>
800062ca: 6c65         	lui	s8, 0x19
800062cc: 205d         	<unknown>
800062ce: 6361         	lui	t1, 0x18
800062d0: 74706563     	bltu	zero, t2, 0x80006a1a <.Lanon.18c15a8f6e1c0dbe4ff694855c69b286.12+0xa>
800062d4: 6e61         	lui	t3, 0x18
800062d6: 72206563     	bltu	zero, sp, 0x80006a00 <.Lanon.18c15a8f6e1c0dbe4ff694855c69b286.10+0x10>
800062da: 2072         	fld	ft0, 0x118(sp)
800062dc: 7376         	ld	t1, 0x178(sp)
800062de: 7320         	ld	s0, 0x60(a4)
800062e0: 6174         	ld	a3, 0xc0(a0)
800062e2: 6974         	ld	a3, 0xd0(a0)
800062e4: 72705f63     	blez	t2, 0x80006a22 <.Lanon.18c15a8f6e1c0dbe4ff694855c69b286.12+0x12>
800062e8: 6f69         	lui	t5, 0x1a
800062ea: 6972         	ld	s2, 0x118(sp)
800062ec: 7974         	ld	a3, 0xf0(a0)
800062ee: 7320         	ld	s0, 0x60(a4)
800062f0: 6f68         	ld	a0, 0xd8(a4)
800062f2: 6c632077     	<unknown>
800062f6: 6165         	addi	sp, sp, 0x70
800062f8: 6c72         	ld	s8, 0x118(sp)
800062fa: 2079         	<unknown>
800062fc: 6964         	ld	s1, 0xd0(a0)
800062fe: 6666         	ld	a2, 0x58(sp)
80006300: 7265         	lui	tp, 0xffff9
80006302: 6e65         	lui	t3, 0x19
80006304: 2074         	fld	fa3, 0xc0(s0)
80006306: 706d6f63     	bltu	s10, t1, 0x80006a24 <.Lanon.18c15a8f6e1c0dbe4ff694855c69b286.12+0x14>
8000630a: 656c         	ld	a1, 0xc8(a0)
8000630c: 6974         	ld	a3, 0xd0(a0)
8000630e: 74206e6f     	jal	t3, 0x8000ca50 <__user_task0_stack_bottom+0x260>
80006312: 6d69         	lui	s10, 0x1a
80006314: 6e69         	lui	t3, 0x1a
80006316: c0203a67     	<unknown>
8000631a: 0a01         	c.addi	s4, 0x0
8000631c: 2f00         	fld	fs0, 0x18(a4)
8000631e: 7572         	ld	a0, 0x138(sp)
80006320: 2f637473     	csrrci	s0, 0x2f6, 0x6
80006324: 3465         	addiw	s0, s0, -0x7
80006326: 3830         	fld	fa2, 0x70(s0)
80006328: 3439         	addiw	s0, s0, -0x12
8000632a: 64666237     	lui	tp, 0x64666
8000632e: 3032         	fld	ft0, 0x128(sp)
80006330: 6130         	ld	a2, 0x40(a0)
80006332: 3466         	fld	fs0, 0x78(sp)
80006334: 6432         	ld	s0, 0x108(sp)
80006336: 3362         	fld	ft6, 0x38(sp)
80006338: 3232         	fld	ft4, 0x128(sp)
8000633a: 6164         	ld	s1, 0xc0(a0)
8000633c: 3066         	fld	ft0, 0x78(sp)
8000633e: 6166         	ld	sp, 0x58(sp)
80006340: 6664         	ld	s1, 0xc8(a2)
80006342: 3765         	addiw	a4, a4, -0x7
80006344: 3265         	addiw	tp, tp, -0x7
80006346: 6436         	ld	s0, 0x148(sp)
80006348: 31646233     	<unknown>
8000634c: 62696c2f     	<unknown>
80006350: 6172         	ld	sp, 0x118(sp)
80006352: 7972         	ld	s2, 0x138(sp)
80006354: 726f632f     	<unknown>
80006358: 2f65         	addiw	t5, t5, 0x19
8000635a: 2f637273     	csrrci	tp, 0x2f6, 0x6
8000635e: 6275         	lui	tp, 0x1d
80006360: 635f 6568 6b63       	<unknown>
80006366: 73722e73     	csrrs	t3, 0x737, tp
8000636a: 0900         	addi	s0, sp, 0x90
8000636c: 72656b5b     	<unknown>
80006370: 656e         	ld	a0, 0xd8(sp)
80006372: 5d6c         	lw	a1, 0x7c(a0)
80006374: 5d12c05b     	<unknown>
80006378: 7320         	ld	s0, 0x60(a4)
8000637a: 6d75         	lui	s10, 0x1d
8000637c: 616d         	addi	sp, sp, 0xf0
8000637e: 7972         	ld	s2, 0x138(sp)
80006380: 203a         	fld	ft0, 0x188(sp)
80006382: 6f70         	ld	a2, 0xd8(a4)
80006384: 696c         	ld	a1, 0xd0(a0)
80006386: c03d7963     	bgeu	s10, gp, 0x80005798 <core::fmt::Formatter::pad::h239e525174ab4a17+0xde>
8000638a: 2010         	fld	fa2, 0x0(s0)
8000638c: 6f74         	ld	a3, 0xd8(a4)
8000638e: 6174         	ld	a3, 0xc0(a0)
80006390: 5f6c         	lw	a1, 0x7c(a4)
80006392: 74697773     	csrrci	a4, 0x746, 0x12
80006396: 73656863     	bltu	a0, s6, 0x80006ac6 <.Lanon.18c15a8f6e1c0dbe4ff694855c69b286.21+0x1>
8000639a: c03d         	beqz	s0, 0x80006400 <compiler_builtins::mem::memcpy::hee8635bcefabc13a+0x796>
8000639c: 2019         	<unknown>
8000639e: 7865         	lui	a6, 0xffff9
800063a0: 6c70         	ld	a2, 0xd8(s0)
800063a2: 6369         	lui	t1, 0x1a
800063a4: 7469         	lui	s0, 0xffffa
800063a6: 795f 6569 646c       	<unknown>
800063ac: 735f 6977 6374       	<unknown>
800063b2: 6568         	ld	a0, 0xc8(a0)
800063b4: 15c03d73     	csrrc	s10, stopei, zero
800063b8: 7420         	ld	s0, 0x68(s0)
800063ba: 6d69         	lui	s10, 0x1a
800063bc: 5f65         	li	t5, -0x7
800063be: 63696c73     	csrrsi	s8, 0x636, 0x12
800063c2: 5f65         	li	t5, -0x7
800063c4: 74697773     	csrrci	a4, 0x746, 0x12
800063c8: 73656863     	bltu	a0, s6, 0x80006af8 <.Lanon.18c15a8f6e1c0dbe4ff694855c69b286.21+0x33>
800063cc: c03d         	beqz	s0, 0x80006432 <compiler_builtins::mem::memcpy::hee8635bcefabc13a+0x7c8>
800063ce: 2014         	fld	fa3, 0x0(s0)
800063d0: 6174         	ld	a3, 0xc0(a0)
800063d2: 655f6b73     	csrrsi	s6, 0x655, 0x1e
800063d6: 6978         	ld	a4, 0xd0(a0)
800063d8: 5f74         	lw	a3, 0x7c(a4)
800063da: 74697773     	csrrci	a4, 0x746, 0x12
800063de: 73656863     	bltu	a0, s6, 0x80006b0e <.Lanon.18c15a8f6e1c0dbe4ff694855c69b286.22+0x6>
800063e2: c03d         	beqz	s0, 0x80006448 <compiler_builtins::mem::memcpy::hee8635bcefabc13a+0x7de>
800063e4: 2012         	fld	ft0, 0x100(sp)
800063e6: 6974         	ld	a3, 0xd0(a0)
800063e8: 656d         	lui	a0, 0x1b
800063ea: 5f72         	lw	t5, 0x3c(sp)
800063ec: 6e69         	lui	t3, 0x1a
800063ee: 6574         	ld	a3, 0xc8(a0)
800063f0: 7272         	ld	tp, 0x138(sp)
800063f2: 7075         	c.lui	zero, 0xffffd
800063f4: 7374         	ld	a3, 0xe0(a4)
800063f6: c03d         	beqz	s0, 0x8000645c <compiler_builtins::mem::memcpy::hee8635bcefabc13a+0x7f2>
800063f8: 0a01         	c.addi	s4, 0x0
800063fa: 1d00         	addi	s0, sp, 0x2b0
800063fc: 72656b5b     	<unknown>
80006400: 656e         	ld	a0, 0xd8(sp)
80006402: 5d6c         	lw	a1, 0x7c(a0)
80006404: 7520         	ld	s0, 0x68(a0)
80006406: 736e         	ld	t1, 0xf8(sp)
80006408: 7075         	c.lui	zero, 0xffffd
8000640a: 6f70         	ld	a2, 0xd8(a4)
8000640c: 7472         	ld	s0, 0x138(sp)
8000640e: 6465         	lui	s0, 0x19
80006410: 7320         	ld	s0, 0x60(a4)
80006412: 7379         	lui	t1, 0xffffe
80006414: 6c6c6163     	bltu	s8, t1, 0x80006ad6 <.Lanon.18c15a8f6e1c0dbe4ff694855c69b286.21+0x11>
80006418: c020         	sw	s0, 0x40(s0)
8000641a: 0a01         	c.addi	s4, 0x0
8000641c: c000         	sw	s0, 0x0(s0)
8000641e: 3a01         	addiw	s4, s4, -0x20
80006420: 01c0         	addi	s0, sp, 0xc4
80006422: c03a         	sw	a4, 0x0(sp)
80006424: 2f00         	fld	fs0, 0x18(a4)
80006426: 7572         	ld	a0, 0x138(sp)
80006428: 2f637473     	csrrci	s0, 0x2f6, 0x6
8000642c: 3465         	addiw	s0, s0, -0x7
8000642e: 3830         	fld	fa2, 0x70(s0)
80006430: 3439         	addiw	s0, s0, -0x12
80006432: 64666237     	lui	tp, 0x64666
80006436: 3032         	fld	ft0, 0x128(sp)
80006438: 6130         	ld	a2, 0x40(a0)
8000643a: 3466         	fld	fs0, 0x78(sp)
8000643c: 6432         	ld	s0, 0x108(sp)
8000643e: 3362         	fld	ft6, 0x38(sp)
80006440: 3232         	fld	ft4, 0x128(sp)
80006442: 6164         	ld	s1, 0xc0(a0)
80006444: 3066         	fld	ft0, 0x78(sp)
80006446: 6166         	ld	sp, 0x58(sp)
80006448: 6664         	ld	s1, 0xc8(a2)
8000644a: 3765         	addiw	a4, a4, -0x7
8000644c: 3265         	addiw	tp, tp, -0x7
8000644e: 6436         	ld	s0, 0x148(sp)
80006450: 31646233     	<unknown>
80006454: 62696c2f     	<unknown>
80006458: 6172         	ld	sp, 0x118(sp)
8000645a: 7972         	ld	s2, 0x138(sp)
8000645c: 726f632f     	<unknown>
80006460: 2f65         	addiw	t5, t5, 0x19
80006462: 2f637273     	csrrci	tp, 0x2f6, 0x6
80006466: 7470         	ld	a2, 0xe8(s0)
80006468: 2f72         	fld	ft10, 0x118(sp)
8000646a: 736e6f63     	bltu	t3, s6, 0x80006ba8 <.Lanon.18c15a8f6e1c0dbe4ff694855c69b286.28+0x10>
8000646e: 5f74         	lw	a3, 0x7c(a4)
80006470: 7470         	ld	a2, 0xe8(s0)
80006472: 2e72         	fld	ft8, 0x118(sp)
80006474: 7372         	ld	t1, 0x138(sp)
80006476: 0000         	unimp

0000000080006478 <.Lanon.956540d7cd3af028c65bafdd25863b2d.1>:
80006478: 52 60 00 80 00 00 00 00         R`......
80006480: 4b 00 00 00 00 00 00 00         K.......
80006488: 71 03 00 00 2a 00 00 00         q...*...
80006490: 30 31 32 33 34 35 36 37         01234567
80006498: 38 39 41 42 43 44 45 46         89ABCDEF
800064a0: 69 6e 74 65 72 61 63 74         interact
800064a8: 69 76 65 5f 70 72 6f 63         ive_proc
800064b0: 00 00 00 00 00 00 00 00         ........
800064b8: 00 00 00 00 00 00 00 00         ........
800064c0: 30 31 32 33 34 35 36 37         01234567
800064c8: 38 39 61 62 63 64 65 66         89abcdef
800064d0: 70 72 69 6f 72 69 74 79         priority
800064d8: 5f 63 6f 6d 70 61 72 65         _compare

00000000800064e0 <.Lanon.8b0c1bb47f3a81e5e654f215fa31429c.0>:
800064e0: 00 00 00 00 00 00 00 00         ........
800064e8: 00 00 00 00 00 00 00 00         ........
800064f0: 01 00 00 00 00 00 00 00         ........
800064f8: 92 06 00 80 00 00 00 00         ........
80006500: 00 01 00 80 00 00 00 00         ........
80006508: 40 01 00 80 00 00 00 00         @.......

0000000080006510 <.Lanon.818e486786eeaf3621877be57c024060.1>:
80006510: 99 61 00 80 00 00 00 00         .a......
80006518: 4e 00 00 00 00 00 00 00         N.......
80006520: b2 01 00 00 01 00 00 00         ........

0000000080006528 <.Lanon.e8426decaacd9092b441bf5c15dffddc.1>:
80006528: 1d 63 00 80 00 00 00 00         .c......
80006530: 4d 00 00 00 00 00 00 00         M.......
80006538: 94 00 00 00 36 00 00 00         ....6...

0000000080006540 <.Lanon.e8426decaacd9092b441bf5c15dffddc.2>:
80006540: 75 6e 73 61 66 65 20 70         unsafe p
80006548: 72 65 63 6f 6e 64 69 74         recondit
80006550: 69 6f 6e 28 73 29 20 76         ion(s) v
80006558: 69 6f 6c 61 74 65 64 3a         iolated:
80006560: 20 73 6c 69 63 65 3a 3a          slice::
80006568: 66 72 6f 6d 5f 72 61 77         from_raw
80006570: 5f 70 61 72 74 73 20 72         _parts r
80006578: 65 71 75 69 72 65 73 20         equires 
80006580: 74 68 65 20 70 6f 69 6e         the poin
80006588: 74 65 72 20 74 6f 20 62         ter to b
80006590: 65 20 61 6c 69 67 6e 65         e aligne
80006598: 64 20 61 6e 64 20 6e 6f         d and no
800065a0: 6e 2d 6e 75 6c 6c 2c 20         n-null, 
800065a8: 61 6e 64 20 74 68 65 20         and the 
800065b0: 74 6f 74 61 6c 20 73 69         total si
800065b8: 7a 65 20 6f 66 20 74 68         ze of th
800065c0: 65 20 73 6c 69 63 65 20         e slice 
800065c8: 6e 6f 74 20 74 6f 20 65         not to e
800065d0: 78 63 65 65 64 20 60 69         xceed `i
800065d8: 73 69 7a 65 3a 3a 4d 41         size::MA
800065e0: 58 60 0a 0a 54 68 69 73         X`..This
800065e8: 20 69 6e 64 69 63 61 74          indicat
800065f0: 65 73 20 61 20 62 75 67         es a bug
800065f8: 20 69 6e 20 74 68 65 20          in the 
80006600: 70 72 6f 67 72 61 6d 2e         program.
80006608: 20 54 68 69 73 20 55 6e          This Un
80006610: 64 65 66 69 6e 65 64 20         defined 
80006618: 42 65 68 61 76 69 6f 72         Behavior
80006620: 20 63 68 65 63 6b 20 69          check i
80006628: 73 20 6f 70 74 69 6f 6e         s option
80006630: 61 6c 2c 20 61 6e 64 20         al, and 
80006638: 63 61 6e 6e 6f 74 20 62         cannot b
80006640: 65 20 72 65 6c 69 65 64         e relied
80006648: 20 6f 6e 20 66 6f 72 20          on for 
80006650: 73 61 66 65 74 79 2e            safety.

0000000080006657 <.Lanon.e8426decaacd9092b441bf5c15dffddc.3>:
80006657: 75 6e 73 61 66 65 20 70         unsafe p
8000665f: 72 65 63 6f 6e 64 69 74         recondit
80006667: 69 6f 6e 28 73 29 20 76         ion(s) v
8000666f: 69 6f 6c 61 74 65 64 3a         iolated:
80006677: 20 73 6c 69 63 65 3a 3a          slice::
8000667f: 66 72 6f 6d 5f 72 61 77         from_raw
80006687: 5f 70 61 72 74 73 5f 6d         _parts_m
8000668f: 75 74 20 72 65 71 75 69         ut requi
80006697: 72 65 73 20 74 68 65 20         res the 
8000669f: 70 6f 69 6e 74 65 72 20         pointer 
800066a7: 74 6f 20 62 65 20 61 6c         to be al
800066af: 69 67 6e 65 64 20 61 6e         igned an
800066b7: 64 20 6e 6f 6e 2d 6e 75         d non-nu
800066bf: 6c 6c 2c 20 61 6e 64 20         ll, and 
800066c7: 74 68 65 20 74 6f 74 61         the tota
800066cf: 6c 20 73 69 7a 65 20 6f         l size o
800066d7: 66 20 74 68 65 20 73 6c         f the sl
800066df: 69 63 65 20 6e 6f 74 20         ice not 
800066e7: 74 6f 20 65 78 63 65 65         to excee
800066ef: 64 20 60 69 73 69 7a 65         d `isize
800066f7: 3a 3a 4d 41 58 60 0a 0a         ::MAX`..
800066ff: 54 68 69 73 20 69 6e 64         This ind
80006707: 69 63 61 74 65 73 20 61         icates a
8000670f: 20 62 75 67 20 69 6e 20          bug in 
80006717: 74 68 65 20 70 72 6f 67         the prog
8000671f: 72 61 6d 2e 20 54 68 69         ram. Thi
80006727: 73 20 55 6e 64 65 66 69         s Undefi
8000672f: 6e 65 64 20 42 65 68 61         ned Beha
80006737: 76 69 6f 72 20 63 68 65         vior che
8000673f: 63 6b 20 69 73 20 6f 70         ck is op
80006747: 74 69 6f 6e 61 6c 2c 20         tional, 
8000674f: 61 6e 64 20 63 61 6e 6e         and cann
80006757: 6f 74 20 62 65 20 72 65         ot be re
8000675f: 6c 69 65 64 20 6f 6e 20         lied on 
80006767: 66 6f 72 20 73 61 66 65         for safe
8000676f: 74 79 2e                        ty.

0000000080006772 <.Lanon.444f4b6b0790fcd22263ea39b1196583.0>:
80006772: 00 00 00 00 00 00               ......

0000000080006778 <.Lanon.5f7c9220f05c42dd0a521207895fcd10.1>:
80006778: 9e 60 00 80 00 00 00 00         .`......
80006780: 0e 00 00 00 00 00 00 00         ........
80006788: 09 00 00 00 0d 00 00 00         ........

0000000080006790 <.Lanon.5f7c9220f05c42dd0a521207895fcd10.2>:
80006790: 9e 60 00 80 00 00 00 00         .`......
80006798: 0e 00 00 00 00 00 00 00         ........
800067a0: 0b 00 00 00 09 00 00 00         ........

00000000800067a8 <.Lanon.a10280e54e69010c16f1c61e747db4fd.0>:
800067a8: 75 6e 73 61 66 65 20 70         unsafe p
800067b0: 72 65 63 6f 6e 64 69 74         recondit
800067b8: 69 6f 6e 28 73 29 20 76         ion(s) v
800067c0: 69 6f 6c 61 74 65 64 3a         iolated:
800067c8: 20 75 73 69 7a 65 3a 3a          usize::
800067d0: 75 6e 63 68 65 63 6b 65         unchecke
800067d8: 64 5f 61 64 64 20 63 61         d_add ca
800067e0: 6e 6e 6f 74 20 6f 76 65         nnot ove
800067e8: 72 66 6c 6f 77 0a 0a 54         rflow..T
800067f0: 68 69 73 20 69 6e 64 69         his indi
800067f8: 63 61 74 65 73 20 61 20         cates a 
80006800: 62 75 67 20 69 6e 20 74         bug in t
80006808: 68 65 20 70 72 6f 67 72         he progr
80006810: 61 6d 2e 20 54 68 69 73         am. This
80006818: 20 55 6e 64 65 66 69 6e          Undefin
80006820: 65 64 20 42 65 68 61 76         ed Behav
80006828: 69 6f 72 20 63 68 65 63         ior chec
80006830: 6b 20 69 73 20 6f 70 74         k is opt
80006838: 69 6f 6e 61 6c 2c 20 61         ional, a
80006840: 6e 64 20 63 61 6e 6e 6f         nd canno
80006848: 74 20 62 65 20 72 65 6c         t be rel
80006850: 69 65 64 20 6f 6e 20 66         ied on f
80006858: 6f 72 20 73 61 66 65 74         or safet
80006860: 79 2e 00 00 00 00 00 00         y.......

0000000080006868 <.Lanon.bc90b582a5a3bd76831568bf63ac5a92.1>:
80006868: 5d 5f 00 80 00 00 00 00         ]_......
80006870: 50 00 00 00 00 00 00 00         P.......
80006878: 62 07 00 00 0e 00 00 00         b.......

0000000080006880 <.Lanon.bc90b582a5a3bd76831568bf63ac5a92.2>:
80006880: 5d 5f 00 80 00 00 00 00         ]_......
80006888: 50 00 00 00 00 00 00 00         P.......
80006890: 55 07 00 00 09 00 00 00         U.......

0000000080006898 <.Lanon.bc90b582a5a3bd76831568bf63ac5a92.3>:
80006898: 12 65 6e 63 6f 64 65 5f         .encode_
800068a0: 75 74 66 38 3a 20 6e 65         utf8: ne
800068a8: 65 64 20 c0 13 20 62 79         ed .. by
800068b0: 74 65 73 20 74 6f 20 65         tes to e
800068b8: 6e 63 6f 64 65 20 55 2b         ncode U+
800068c0: c3 20 00 00 69 04 00 15         . ..i...
800068c8: 20 62 75 74 20 62 75 66          but buf
800068d0: 66 65 72 20 68 61 73 20         fer has 
800068d8: 6a 75 73 74 20 c0 00 00         just ...
800068e0: 64 00 00 00 00 00 00 00         d.......
800068e8: f8 bf 00 02 00 00 00 00         ........
800068f0: 2d 7f 95 4c 2d f4 51 58         -..L-.QX
800068f8: 4b 59 86 38 d6 c5 6d 34         KY.8..m4
80006900: aa aa 99 99 88 88 77 77         ......ww
80006908: 55 55 44 44 33 33 22 22         UUDD33""
80006910: 15 7c 4a 7f b9 79 37 9e         .|J..y7.
80006918: 00 40 00 02 00 00 00 00         .@......
80006920: 80 96 98 00 00 00 00 00         ........
80006928: e0 ac 68 24 df 9b 57 13         ..h$..W.
80006930: 12 00 00 00 00 00 00 00         ........

0000000080006938 <.Lanon.18c15a8f6e1c0dbe4ff694855c69b286.1>:
80006938: 72 72 5f 62 61 73 65 6c         rr_basel
80006940: 69 6e 65 00 00 00 00 00         ine.....

0000000080006948 <lab5_kernel_task2::PHASE_DEFS::h77d039462efebf3e>:
80006948: 38 69 00 80 00 00 00 00         8i......
80006950: 0b 00 00 00 00 00 00 00         ........
80006958: 00 00 00 00 00 00 00 00         ........
80006960: d0 64 00 80 00 00 00 00         .d......
80006968: 10 00 00 00 00 00 00 00         ........
80006970: 01 00 00 00 00 00 00 00         ........

0000000080006978 <.Lanon.18c15a8f6e1c0dbe4ff694855c69b286.4>:
80006978: 77 5e 00 80 00 00 00 00         w^......
80006980: 0b 00 00 00 00 00 00 00         ........
80006988: a0 03 00 00 0e 00 00 00         ........

0000000080006990 <.Lanon.18c15a8f6e1c0dbe4ff694855c69b286.5>:
80006990: 77 5e 00 80 00 00 00 00         w^......
80006998: 0b 00 00 00 00 00 00 00         ........
800069a0: fe 01 00 00 09 00 00 00         ........

00000000800069a8 <.Lanon.18c15a8f6e1c0dbe4ff694855c69b286.7>:
800069a8: 77 5e 00 80 00 00 00 00         w^......
800069b0: 0b 00 00 00 00 00 00 00         ........
800069b8: 0c 02 00 00 09 00 00 00         ........

00000000800069c0 <.Lanon.18c15a8f6e1c0dbe4ff694855c69b286.8>:
800069c0: 77 5e 00 80 00 00 00 00         w^......
800069c8: 0b 00 00 00 00 00 00 00         ........
800069d0: 12 02 00 00 09 00 00 00         ........

00000000800069d8 <.Lanon.18c15a8f6e1c0dbe4ff694855c69b286.9>:
800069d8: 77 5e 00 80 00 00 00 00         w^......
800069e0: 0b 00 00 00 00 00 00 00         ........
800069e8: 13 02 00 00 09 00 00 00         ........

00000000800069f0 <.Lanon.18c15a8f6e1c0dbe4ff694855c69b286.10>:
800069f0: 77 5e 00 80 00 00 00 00         w^......
800069f8: 0b 00 00 00 00 00 00 00         ........
80006a00: 14 02 00 00 09 00 00 00         ........

0000000080006a08 <.Lanon.18c15a8f6e1c0dbe4ff694855c69b286.11>:
80006a08: 01 00 00 00 00 00 00 00         ........

0000000080006a10 <.Lanon.18c15a8f6e1c0dbe4ff694855c69b286.12>:
80006a10: 77 5e 00 80 00 00 00 00         w^......
80006a18: 0b 00 00 00 00 00 00 00         ........
80006a20: 16 02 00 00 20 00 00 00         .... ...

0000000080006a28 <.Lanon.18c15a8f6e1c0dbe4ff694855c69b286.13>:
80006a28: 77 5e 00 80 00 00 00 00         w^......
80006a30: 0b 00 00 00 00 00 00 00         ........
80006a38: 16 02 00 00 0d 00 00 00         ........
80006a40: 46 41 49 4c 62 6f 6f 74         FAILboot
80006a48: 50 41 53 53 74 72 75 65         PASStrue

0000000080006a50 <.Lanon.18c15a8f6e1c0dbe4ff694855c69b286.15>:
80006a50: 65 78 70 6c 69 63 69 74         explicit
80006a58: 5f 79 69 65 6c 64               _yield

0000000080006a5e <.Lanon.18c15a8f6e1c0dbe4ff694855c69b286.16>:
80006a5e: 74 69 6d 65 5f 73 6c 69         time_sli
80006a66: 63 65                           ce

0000000080006a68 <.Lanon.18c15a8f6e1c0dbe4ff694855c69b286.17>:
80006a68: 74 61 73 6b 5f 65 78 69         task_exi
80006a70: 74 00 00 00 00 00 00 00         t.......

0000000080006a78 <.Lanon.18c15a8f6e1c0dbe4ff694855c69b286.18>:
80006a78: 77 5e 00 80 00 00 00 00         w^......
80006a80: 0b 00 00 00 00 00 00 00         ........
80006a88: 2d 03 00 00 0c 00 00 00         -.......

0000000080006a90 <.Lanon.18c15a8f6e1c0dbe4ff694855c69b286.19>:
80006a90: 77 5e 00 80 00 00 00 00         w^......
80006a98: 0b 00 00 00 00 00 00 00         ........
80006aa0: 31 03 00 00 09 00 00 00         1.......

0000000080006aa8 <.Lanon.18c15a8f6e1c0dbe4ff694855c69b286.20>:
80006aa8: 5b 6b 65 72 6e 65 6c 5d         [kernel]
80006ab0: 20 6e 6f 20 63 75 72 72          no curr
80006ab8: 65 6e 74 20 74 61 73 6b         ent task
80006ac0: 20 73 65 74 0a                   set.

0000000080006ac5 <.Lanon.18c15a8f6e1c0dbe4ff694855c69b286.21>:
80006ac5: 21 5b 6b 65 72 6e 65 6c         ![kernel
80006acd: 5d 20 75 6e 65 78 70 65         ] unexpe
80006ad5: 63 74 65 64 20 74 72 61         cted tra
80006add: 70 3a 20 6d 63 61 75 73         p: mcaus
80006ae5: 65 3d c1 20 00 80 60 06         e=. ..`.
80006aed: 20 6d 65 70 63 3d c1 20          mepc=. 
80006af5: 00 80 60 07 20 6d 74 76         ..`. mtv
80006afd: 61 6c 3d c1 20 00 80 60         al=. ..`
80006b05: 01 0a 00                        ...

0000000080006b08 <.Lanon.18c15a8f6e1c0dbe4ff694855c69b286.22>:
80006b08: 77 5e 00 80 00 00 00 00         w^......
80006b10: 0b 00 00 00 00 00 00 00         ........
80006b18: 7f 01 00 00 09 00 00 00         ........

0000000080006b20 <.Lanon.18c15a8f6e1c0dbe4ff694855c69b286.23>:
80006b20: 77 5e 00 80 00 00 00 00         w^......
80006b28: 0b 00 00 00 00 00 00 00         ........
80006b30: 80 01 00 00 09 00 00 00         ........

0000000080006b38 <.Lanon.18c15a8f6e1c0dbe4ff694855c69b286.24>:
80006b38: 77 5e 00 80 00 00 00 00         w^......
80006b40: 0b 00 00 00 00 00 00 00         ........
80006b48: 81 01 00 00 3d 00 00 00         ....=...

0000000080006b50 <.Lanon.18c15a8f6e1c0dbe4ff694855c69b286.25>:
80006b50: 77 5e 00 80 00 00 00 00         w^......
80006b58: 0b 00 00 00 00 00 00 00         ........
80006b60: 81 01 00 00 09 00 00 00         ........

0000000080006b68 <.Lanon.18c15a8f6e1c0dbe4ff694855c69b286.26>:
80006b68: 77 5e 00 80 00 00 00 00         w^......
80006b70: 0b 00 00 00 00 00 00 00         ........
80006b78: 82 01 00 00 09 00 00 00         ........

0000000080006b80 <.Lanon.18c15a8f6e1c0dbe4ff694855c69b286.27>:
80006b80: 77 5e 00 80 00 00 00 00         w^......
80006b88: 0b 00 00 00 00 00 00 00         ........
80006b90: 83 01 00 00 27 00 00 00         ....'...

0000000080006b98 <.Lanon.18c15a8f6e1c0dbe4ff694855c69b286.28>:
80006b98: 77 5e 00 80 00 00 00 00         w^......
80006ba0: 0b 00 00 00 00 00 00 00         ........
80006ba8: 83 01 00 00 09 00 00 00         ........

0000000080006bb0 <.Lanon.18c15a8f6e1c0dbe4ff694855c69b286.29>:
80006bb0: 77 5e 00 80 00 00 00 00         w^......
80006bb8: 0b 00 00 00 00 00 00 00         ........
80006bc0: 89 01 00 00 09 00 00 00         ........

0000000080006bc8 <.Lanon.18c15a8f6e1c0dbe4ff694855c69b286.30>:
80006bc8: 77 5e 00 80 00 00 00 00         w^......
80006bd0: 0b 00 00 00 00 00 00 00         ........
80006bd8: 8a 01 00 00 09 00 00 00         ........

0000000080006be0 <.Lanon.18c15a8f6e1c0dbe4ff694855c69b286.31>:
80006be0: 77 5e 00 80 00 00 00 00         w^......
80006be8: 0b 00 00 00 00 00 00 00         ........
80006bf0: 8b 01 00 00 12 00 00 00         ........

0000000080006bf8 <.Lanon.18c15a8f6e1c0dbe4ff694855c69b286.32>:
80006bf8: 77 5e 00 80 00 00 00 00         w^......
80006c00: 0b 00 00 00 00 00 00 00         ........
80006c08: 8c 01 00 00 12 00 00 00         ........

0000000080006c10 <.Lanon.18c15a8f6e1c0dbe4ff694855c69b286.33>:
80006c10: 09 5b 6b 65 72 6e 65 6c         .[kernel
80006c18: 5d 5b c0 14 5d 20 70 72         ][..] pr
80006c20: 6f 63 65 73 73 20 65 78         ocess ex
80006c28: 69 74 3a 20 70 69 64 3d         it: pid=
80006c30: c0 06 20 6e 61 6d 65 3d         .. name=
80006c38: c0 0d 20 66 69 6e 69 73         .. finis
80006c40: 68 5f 74 69 63 6b 3d c0         h_tick=.
80006c48: 0f 20 72 75 6e 74 69 6d         . runtim
80006c50: 65 5f 74 69 63 6b 73 3d         e_ticks=
80006c58: c0 06 20 63 6f 64 65 3d         .. code=
80006c60: c1 20 00 80 60 01 0a 00         . ..`...

0000000080006c68 <.Lanon.18c15a8f6e1c0dbe4ff694855c69b286.34>:
80006c68: 77 5e 00 80 00 00 00 00         w^......
80006c70: 0b 00 00 00 00 00 00 00         ........
80006c78: 92 01 00 00 0d 00 00 00         ........

0000000080006c80 <.Lanon.18c15a8f6e1c0dbe4ff694855c69b286.35>:
80006c80: 77 5e 00 80 00 00 00 00         w^......
80006c88: 0b 00 00 00 00 00 00 00         ........
80006c90: 1c 03 00 00 14 00 00 00         ........

0000000080006c98 <.Lanon.18c15a8f6e1c0dbe4ff694855c69b286.36>:
80006c98: 77 5e 00 80 00 00 00 00         w^......
80006ca0: 0b 00 00 00 00 00 00 00         ........
80006ca8: 1f 03 00 00 11 00 00 00         ........

0000000080006cb0 <.Lanon.18c15a8f6e1c0dbe4ff694855c69b286.37>:
80006cb0: 77 5e 00 80 00 00 00 00         w^......
80006cb8: 0b 00 00 00 00 00 00 00         ........
80006cc0: 1e 03 00 00 0d 00 00 00         ........

0000000080006cc8 <.Lanon.18c15a8f6e1c0dbe4ff694855c69b286.38>:
80006cc8: 77 5e 00 80 00 00 00 00         w^......
80006cd0: 0b 00 00 00 00 00 00 00         ........
80006cd8: 21 03 00 00 09 00 00 00         !.......

0000000080006ce0 <.Lanon.18c15a8f6e1c0dbe4ff694855c69b286.39>:
80006ce0: 77 5e 00 80 00 00 00 00         w^......
80006ce8: 0b 00 00 00 00 00 00 00         ........
80006cf0: 3a 03 00 00 19 00 00 00         :.......

0000000080006cf8 <.Lanon.18c15a8f6e1c0dbe4ff694855c69b286.40>:
80006cf8: 77 5e 00 80 00 00 00 00         w^......
80006d00: 0b 00 00 00 00 00 00 00         ........
80006d08: 3a 03 00 00 0e 00 00 00         :.......

0000000080006d10 <.Lanon.18c15a8f6e1c0dbe4ff694855c69b286.42>:
80006d10: 77 5e 00 80 00 00 00 00         w^......
80006d18: 0b 00 00 00 00 00 00 00         ........
80006d20: 74 03 00 00 0f 00 00 00         t.......

0000000080006d28 <.Lanon.18c15a8f6e1c0dbe4ff694855c69b286.43>:
80006d28: 77 5e 00 80 00 00 00 00         w^......
80006d30: 0b 00 00 00 00 00 00 00         ........
80006d38: 74 03 00 00 0e 00 00 00         t.......

0000000080006d40 <.Lanon.18c15a8f6e1c0dbe4ff694855c69b286.44>:
80006d40: 72 6f 75 6e 64 5f 72 6f         round_ro
80006d48: 62 69 6e                        bin

0000000080006d4b <.Lanon.18c15a8f6e1c0dbe4ff694855c69b286.45>:
80006d4b: 73 74 61 74 69 63 5f 70         static_p
80006d53: 72 69 6f 72 69 74 79 00         riority.
80006d5b: 00 00 00 00 00                  .....

0000000080006d60 <.Lanon.18c15a8f6e1c0dbe4ff694855c69b286.46>:
80006d60: 77 5e 00 80 00 00 00 00         w^......
80006d68: 0b 00 00 00 00 00 00 00         ........
80006d70: e4 02 00 00 19 00 00 00         ........

0000000080006d78 <.Lanon.18c15a8f6e1c0dbe4ff694855c69b286.47>:
80006d78: 77 5e 00 80 00 00 00 00         w^......
80006d80: 0b 00 00 00 00 00 00 00         ........
80006d88: e5 02 00 00 15 00 00 00         ........

0000000080006d90 <.Lanon.18c15a8f6e1c0dbe4ff694855c69b286.49>:
80006d90: 77 5e 00 80 00 00 00 00         w^......
80006d98: 0b 00 00 00 00 00 00 00         ........
80006da0: b7 01 00 00 09 00 00 00         ........

0000000080006da8 <.Lanon.18c15a8f6e1c0dbe4ff694855c69b286.50>:
80006da8: 77 5e 00 80 00 00 00 00         w^......
80006db0: 0b 00 00 00 00 00 00 00         ........
80006db8: c8 01 00 00 20 00 00 00         .... ...

0000000080006dc0 <.Lanon.18c15a8f6e1c0dbe4ff694855c69b286.51>:
80006dc0: 77 5e 00 80 00 00 00 00         w^......
80006dc8: 0b 00 00 00 00 00 00 00         ........
80006dd0: d2 01 00 00 09 00 00 00         ........

0000000080006dd8 <.Lanon.18c15a8f6e1c0dbe4ff694855c69b286.52>:
80006dd8: 77 5e 00 80 00 00 00 00         w^......
80006de0: 0b 00 00 00 00 00 00 00         ........
80006de8: d3 01 00 00 09 00 00 00         ........

0000000080006df0 <.Lanon.18c15a8f6e1c0dbe4ff694855c69b286.53>:
80006df0: 77 5e 00 80 00 00 00 00         w^......
80006df8: 0b 00 00 00 00 00 00 00         ........
80006e00: d5 01 00 00 09 00 00 00         ........

0000000080006e08 <.Lanon.18c15a8f6e1c0dbe4ff694855c69b286.54>:
80006e08: 77 5e 00 80 00 00 00 00         w^......
80006e10: 0b 00 00 00 00 00 00 00         ........
80006e18: d6 01 00 00 09 00 00 00         ........

0000000080006e20 <.Lanon.18c15a8f6e1c0dbe4ff694855c69b286.55>:
80006e20: 77 5e 00 80 00 00 00 00         w^......
80006e28: 0b 00 00 00 00 00 00 00         ........
80006e30: d8 01 00 00 09 00 00 00         ........

0000000080006e38 <.Lanon.18c15a8f6e1c0dbe4ff694855c69b286.56>:
80006e38: 77 5e 00 80 00 00 00 00         w^......
80006e40: 0b 00 00 00 00 00 00 00         ........
80006e48: d9 01 00 00 09 00 00 00         ........

0000000080006e50 <.Lanon.18c15a8f6e1c0dbe4ff694855c69b286.57>:
80006e50: 08 5b 73 63 68 65 64 5d         .[sched]
80006e58: 5b c0 09 5d 20 73 77 69         [..] swi
80006e60: 74 63 68 23 c3 20 00 00         tch#. ..
80006e68: 69 02 00 08 20 72 65 61         i... rea
80006e70: 73 6f 6e 3d c0 0a 20 66         son=.. f
80006e78: 72 6f 6d 20 70 69 64 3d         rom pid=
80006e80: c0 01 28 c0 0a 29 20 72         ..(..) r
80006e88: 75 6e 74 69 6d 65 3d c0         untime=.
80006e90: 0b 20 2d 3e 20 74 6f 20         . -> to 
80006e98: 70 69 64 3d c0 01 28 c0         pid=..(.
80006ea0: 0a 29 20 72 75 6e 74 69         .) runti
80006ea8: 6d 65 3d c0 0a 20 70 72         me=.. pr
80006eb0: 69 6f 72 69 74 79 3d c0         iority=.
80006eb8: 02 2d 3e c0 01 0a 00 00         .->.....

0000000080006ec0 <.Lanon.18c15a8f6e1c0dbe4ff694855c69b286.58>:
80006ec0: 77 5e 00 80 00 00 00 00         w^......
80006ec8: 0b 00 00 00 00 00 00 00         ........
80006ed0: dd 01 00 00 09 00 00 00         ........

0000000080006ed8 <.Lanon.18c15a8f6e1c0dbe4ff694855c69b286.59>:
80006ed8: 77 5e 00 80 00 00 00 00         w^......
80006ee0: 0b 00 00 00 00 00 00 00         ........
80006ee8: de 01 00 00 0c 00 00 00         ........

0000000080006ef0 <.Lanon.18c15a8f6e1c0dbe4ff694855c69b286.62>:
80006ef0: 77 5e 00 80 00 00 00 00         w^......
80006ef8: 0b 00 00 00 00 00 00 00         ........
80006f00: a6 02 00 00 09 00 00 00         ........

0000000080006f08 <.Lanon.18c15a8f6e1c0dbe4ff694855c69b286.63>:
80006f08: 77 5e 00 80 00 00 00 00         w^......
80006f10: 0b 00 00 00 00 00 00 00         ........
80006f18: a7 02 00 00 09 00 00 00         ........

0000000080006f20 <.Lanon.18c15a8f6e1c0dbe4ff694855c69b286.64>:
80006f20: 77 5e 00 80 00 00 00 00         w^......
80006f28: 0b 00 00 00 00 00 00 00         ........
80006f30: a8 02 00 00 09 00 00 00         ........

0000000080006f38 <.Lanon.18c15a8f6e1c0dbe4ff694855c69b286.65>:
80006f38: 77 5e 00 80 00 00 00 00         w^......
80006f40: 0b 00 00 00 00 00 00 00         ........
80006f48: a9 02 00 00 09 00 00 00         ........

0000000080006f50 <.Lanon.18c15a8f6e1c0dbe4ff694855c69b286.66>:
80006f50: 77 5e 00 80 00 00 00 00         w^......
80006f58: 0b 00 00 00 00 00 00 00         ........
80006f60: aa 02 00 00 09 00 00 00         ........

0000000080006f68 <.Lanon.18c15a8f6e1c0dbe4ff694855c69b286.67>:
80006f68: 77 5e 00 80 00 00 00 00         w^......
80006f70: 0b 00 00 00 00 00 00 00         ........
80006f78: ab 02 00 00 09 00 00 00         ........

0000000080006f80 <.Lanon.18c15a8f6e1c0dbe4ff694855c69b286.68>:
80006f80: 77 5e 00 80 00 00 00 00         w^......
80006f88: 0b 00 00 00 00 00 00 00         ........
80006f90: ac 02 00 00 09 00 00 00         ........

0000000080006f98 <.Lanon.18c15a8f6e1c0dbe4ff694855c69b286.69>:
80006f98: 77 5e 00 80 00 00 00 00         w^......
80006fa0: 0b 00 00 00 00 00 00 00         ........
80006fa8: ad 02 00 00 09 00 00 00         ........

0000000080006fb0 <.Lanon.18c15a8f6e1c0dbe4ff694855c69b286.70>:
80006fb0: 77 5e 00 80 00 00 00 00         w^......
80006fb8: 0b 00 00 00 00 00 00 00         ........
80006fc0: ae 02 00 00 09 00 00 00         ........

0000000080006fc8 <.Lanon.18c15a8f6e1c0dbe4ff694855c69b286.71>:
80006fc8: 77 5e 00 80 00 00 00 00         w^......
80006fd0: 0b 00 00 00 00 00 00 00         ........
80006fd8: af 02 00 00 09 00 00 00         ........

0000000080006fe0 <.Lanon.18c15a8f6e1c0dbe4ff694855c69b286.72>:
80006fe0: 77 5e 00 80 00 00 00 00         w^......
80006fe8: 0b 00 00 00 00 00 00 00         ........
80006ff0: 36 03 00 00 19 00 00 00         6.......

0000000080006ff8 <.Lanon.18c15a8f6e1c0dbe4ff694855c69b286.73>:
80006ff8: 77 5e 00 80 00 00 00 00         w^......
80007000: 0b 00 00 00 00 00 00 00         ........
80007008: 36 03 00 00 0e 00 00 00         6.......

0000000080007010 <.Lanon.18c15a8f6e1c0dbe4ff694855c69b286.74>:
80007010: 77 5e 00 80 00 00 00 00         w^......
80007018: 0b 00 00 00 00 00 00 00         ........
80007020: 27 03 00 00 09 00 00 00         '.......

0000000080007028 <.Lanon.18c15a8f6e1c0dbe4ff694855c69b286.75>:
80007028: 77 5e 00 80 00 00 00 00         w^......
80007030: 0b 00 00 00 00 00 00 00         ........
80007038: 3a 02 00 00 22 00 00 00         :..."...

0000000080007040 <.Lanon.18c15a8f6e1c0dbe4ff694855c69b286.76>:
80007040: 77 5e 00 80 00 00 00 00         w^......
80007048: 0b 00 00 00 00 00 00 00         ........
80007050: 3b 02 00 00 2b 00 00 00         ;...+...

0000000080007058 <.Lanon.18c15a8f6e1c0dbe4ff694855c69b286.77>:
80007058: 77 5e 00 80 00 00 00 00         w^......
80007060: 0b 00 00 00 00 00 00 00         ........
80007068: 3c 02 00 00 27 00 00 00         <...'...

0000000080007070 <.Lanon.18c15a8f6e1c0dbe4ff694855c69b286.78>:
80007070: 77 5e 00 80 00 00 00 00         w^......
80007078: 0b 00 00 00 00 00 00 00         ........
80007080: 3d 02 00 00 26 00 00 00         =...&...

0000000080007088 <.Lanon.18c15a8f6e1c0dbe4ff694855c69b286.79>:
80007088: 77 5e 00 80 00 00 00 00         w^......
80007090: 0b 00 00 00 00 00 00 00         ........
80007098: 3e 02 00 00 24 00 00 00         >...$...

00000000800070a0 <.Lanon.18c15a8f6e1c0dbe4ff694855c69b286.80>:
800070a0: 77 5e 00 80 00 00 00 00         w^......
800070a8: 0b 00 00 00 00 00 00 00         ........
800070b0: 4e 02 00 00 09 00 00 00         N.......

00000000800070b8 <.Lanon.18c15a8f6e1c0dbe4ff694855c69b286.81>:
800070b8: 77 5e 00 80 00 00 00 00         w^......
800070c0: 0b 00 00 00 00 00 00 00         ........
800070c8: 42 02 00 00 16 00 00 00         B.......

00000000800070d0 <.Lanon.18c15a8f6e1c0dbe4ff694855c69b286.82>:
800070d0: 77 5e 00 80 00 00 00 00         w^......
800070d8: 0b 00 00 00 00 00 00 00         ........
800070e0: 43 02 00 00 1b 00 00 00         C.......

00000000800070e8 <.Lanon.18c15a8f6e1c0dbe4ff694855c69b286.83>:
800070e8: 77 5e 00 80 00 00 00 00         w^......
800070f0: 0b 00 00 00 00 00 00 00         ........
800070f8: 44 02 00 00 1d 00 00 00         D.......

0000000080007100 <.Lanon.18c15a8f6e1c0dbe4ff694855c69b286.84>:
80007100: 77 5e 00 80 00 00 00 00         w^......
80007108: 0b 00 00 00 00 00 00 00         ........
80007110: 45 02 00 00 20 00 00 00         E... ...

0000000080007118 <.Lanon.18c15a8f6e1c0dbe4ff694855c69b286.85>:
80007118: 77 5e 00 80 00 00 00 00         w^......
80007120: 0b 00 00 00 00 00 00 00         ........
80007128: 46 02 00 00 1e 00 00 00         F.......

0000000080007130 <.Lanon.18c15a8f6e1c0dbe4ff694855c69b286.86>:
80007130: 77 5e 00 80 00 00 00 00         w^......
80007138: 0b 00 00 00 00 00 00 00         ........
80007140: 47 02 00 00 1f 00 00 00         G.......

0000000080007148 <.Lanon.18c15a8f6e1c0dbe4ff694855c69b286.87>:
80007148: 77 5e 00 80 00 00 00 00         w^......
80007150: 0b 00 00 00 00 00 00 00         ........
80007158: 48 02 00 00 22 00 00 00         H..."...

0000000080007160 <.Lanon.18c15a8f6e1c0dbe4ff694855c69b286.88>:
80007160: 77 5e 00 80 00 00 00 00         w^......
80007168: 0b 00 00 00 00 00 00 00         ........
80007170: 49 02 00 00 29 00 00 00         I...)...

0000000080007178 <.Lanon.18c15a8f6e1c0dbe4ff694855c69b286.89>:
80007178: 77 5e 00 80 00 00 00 00         w^......
80007180: 0b 00 00 00 00 00 00 00         ........
80007188: 4a 02 00 00 1c 00 00 00         J.......

0000000080007190 <.Lanon.18c15a8f6e1c0dbe4ff694855c69b286.90>:
80007190: 77 5e 00 80 00 00 00 00         w^......
80007198: 0b 00 00 00 00 00 00 00         ........
800071a0: 41 02 00 00 0d 00 00 00         A.......

00000000800071a8 <.Lanon.18c15a8f6e1c0dbe4ff694855c69b286.91>:
800071a8: 77 5e 00 80 00 00 00 00         w^......
800071b0: 0b 00 00 00 00 00 00 00         ........
800071b8: c2 02 00 00 12 00 00 00         ........

00000000800071c0 <.Lanon.18c15a8f6e1c0dbe4ff694855c69b286.92>:
800071c0: 77 5e 00 80 00 00 00 00         w^......
800071c8: 0b 00 00 00 00 00 00 00         ........
800071d0: f0 01 00 00 09 00 00 00         ........

00000000800071d8 <.Lanon.18c15a8f6e1c0dbe4ff694855c69b286.93>:
800071d8: 77 5e 00 80 00 00 00 00         w^......
800071e0: 0b 00 00 00 00 00 00 00         ........
800071e8: f1 01 00 00 09 00 00 00         ........

00000000800071f0 <.Lanon.18c15a8f6e1c0dbe4ff694855c69b286.94>:
800071f0: 77 5e 00 80 00 00 00 00         w^......
800071f8: 0b 00 00 00 00 00 00 00         ........
80007200: f2 01 00 00 09 00 00 00         ........

0000000080007208 <.Lanon.18c15a8f6e1c0dbe4ff694855c69b286.95>:
80007208: 77 5e 00 80 00 00 00 00         w^......
80007210: 0b 00 00 00 00 00 00 00         ........
80007218: f3 01 00 00 09 00 00 00         ........

0000000080007220 <.Lanon.18c15a8f6e1c0dbe4ff694855c69b286.96>:
80007220: 77 5e 00 80 00 00 00 00         w^......
80007228: 0b 00 00 00 00 00 00 00         ........
80007230: f5 01 00 00 12 00 00 00         ........

0000000080007238 <.Lanon.18c15a8f6e1c0dbe4ff694855c69b286.97>:
80007238: 08 5b 73 63 68 65 64 5d         .[sched]
80007240: 5b c0 1d 5d 20 62 6f 6f         [..] boo
80007248: 74 20 72 65 73 74 6f 72         t restor
80007250: 65 5f 62 65 67 69 6e 3a         e_begin:
80007258: 20 74 6f 20 70 69 64 3d          to pid=
80007260: c0 06 20 6e 61 6d 65 3d         .. name=
80007268: c0 07 20 63 6c 61 73 73         .. class
80007270: 3d c0 0a 20 70 72 69 6f         =.. prio
80007278: 72 69 74 79 3d c0 08 20         rity=.. 
80007280: 72 65 61 73 6f 6e 3d c0         reason=.
80007288: 0b 20 6e 65 78 74 5f 6d         . next_m
80007290: 65 70 63 3d c1 20 00 80         epc=. ..
80007298: 60 01 0a 00 00 00 00 00         `.......

00000000800072a0 <.Lanon.18c15a8f6e1c0dbe4ff694855c69b286.98>:
800072a0: 77 5e 00 80 00 00 00 00         w^......
800072a8: 0b 00 00 00 00 00 00 00         ........
800072b0: 53 02 00 00 1c 00 00 00         S.......

00000000800072b8 <.Lanon.18c15a8f6e1c0dbe4ff694855c69b286.99>:
800072b8: 77 5e 00 80 00 00 00 00         w^......
800072c0: 0b 00 00 00 00 00 00 00         ........
800072c8: 54 02 00 00 11 00 00 00         T.......

00000000800072d0 <.Lanon.18c15a8f6e1c0dbe4ff694855c69b286.101>:
800072d0: 77 5e 00 80 00 00 00 00         w^......
800072d8: 0b 00 00 00 00 00 00 00         ........
800072e0: 62 02 00 00 15 00 00 00         b.......

00000000800072e8 <.Lanon.18c15a8f6e1c0dbe4ff694855c69b286.102>:
800072e8: 77 5e 00 80 00 00 00 00         w^......
800072f0: 0b 00 00 00 00 00 00 00         ........
800072f8: 67 02 00 00 0d 00 00 00         g.......

0000000080007300 <.Lanon.18c15a8f6e1c0dbe4ff694855c69b286.103>:
80007300: 77 5e 00 80 00 00 00 00         w^......
80007308: 0b 00 00 00 00 00 00 00         ........
80007310: 68 02 00 00 0d 00 00 00         h.......

0000000080007318 <.Lanon.18c15a8f6e1c0dbe4ff694855c69b286.104>:
80007318: 09 5b 6b 65 72 6e 65 6c         .[kernel
80007320: 5d 5b c0 0b 5d 20 70 72         ][..] pr
80007328: 6f 63 20 70 69 64 3d c0         oc pid=.
80007330: 06 20 6e 61 6d 65 3d c0         . name=.
80007338: 07 20 63 6c 61 73 73 3d         . class=
80007340: c0 0a 20 70 72 69 6f 72         .. prior
80007348: 69 74 79 3d c0 0e 20 66         ity=.. f
80007350: 69 6e 69 73 68 5f 6f 72         inish_or
80007358: 64 65 72 3d c0 0d 20 66         der=.. f
80007360: 69 6e 69 73 68 5f 74 69         inish_ti
80007368: 63 6b 3d c0 0f 20 72 75         ck=.. ru
80007370: 6e 74 69 6d 65 5f 74 69         ntime_ti
80007378: 63 6b 73 3d c0 0c 20 73         cks=.. s
80007380: 77 69 74 63 68 5f 69 6e         witch_in
80007388: 73 3d c0 11 20 65 78 70         s=.. exp
80007390: 6c 69 63 69 74 5f 79 69         licit_yi
80007398: 65 6c 64 73 3d c0 18 20         elds=.. 
800073a0: 74 69 6d 65 5f 73 6c 69         time_sli
800073a8: 63 65 5f 70 72 65 65 6d         ce_preem
800073b0: 70 74 69 6f 6e 73 3d c0         ptions=.
800073b8: 0b 20 65 78 69 74 5f 63         . exit_c
800073c0: 6f 64 65 3d c1 20 00 80         ode=. ..
800073c8: 60 01 0a 00 00 00 00 00         `.......

00000000800073d0 <.Lanon.18c15a8f6e1c0dbe4ff694855c69b286.105>:
800073d0: 77 5e 00 80 00 00 00 00         w^......
800073d8: 0b 00 00 00 00 00 00 00         ........
800073e0: 4d 01 00 00 09 00 00 00         M.......

00000000800073e8 <.Lanon.18c15a8f6e1c0dbe4ff694855c69b286.106>:
800073e8: 77 5e 00 80 00 00 00 00         w^......
800073f0: 0b 00 00 00 00 00 00 00         ........
800073f8: 53 01 00 00 11 00 00 00         S.......

0000000080007400 <.Lanon.18c15a8f6e1c0dbe4ff694855c69b286.107>:
80007400: 77 5e 00 80 00 00 00 00         w^......
80007408: 0b 00 00 00 00 00 00 00         ........
80007410: ac 03 00 00 09 00 00 00         ........

0000000080007418 <.Lanon.18c15a8f6e1c0dbe4ff694855c69b286.108>:
80007418: 77 5e 00 80 00 00 00 00         w^......
80007420: 0b 00 00 00 00 00 00 00         ........
80007428: 62 01 00 00 09 00 00 00         b.......

0000000080007430 <.Lanon.18c15a8f6e1c0dbe4ff694855c69b286.109>:
80007430: 77 5e 00 80 00 00 00 00         w^......
80007438: 0b 00 00 00 00 00 00 00         ........
80007440: 6c 01 00 00 11 00 00 00         l.......

0000000080007448 <.Lanon.18c15a8f6e1c0dbe4ff694855c69b286.110>:
80007448: 77 5e 00 80 00 00 00 00         w^......
80007450: 0b 00 00 00 00 00 00 00         ........
80007458: 6d 01 00 00 11 00 00 00         m.......

0000000080007460 <.Lanon.18c15a8f6e1c0dbe4ff694855c69b286.111>:
80007460: 77 5e 00 80 00 00 00 00         w^......
80007468: 0b 00 00 00 00 00 00 00         ........
80007470: 02 03 00 00 16 00 00 00         ........

0000000080007478 <.Lanon.18c15a8f6e1c0dbe4ff694855c69b286.112>:
80007478: 77 5e 00 80 00 00 00 00         w^......
80007480: 0b 00 00 00 00 00 00 00         ........
80007488: 06 03 00 00 0d 00 00 00         ........

0000000080007490 <.Lanon.18c15a8f6e1c0dbe4ff694855c69b286.113>:
80007490: 77 5e 00 80 00 00 00 00         w^......
80007498: 0b 00 00 00 00 00 00 00         ........
800074a0: 0b 03 00 00 19 00 00 00         ........

00000000800074a8 <.Lanon.18c15a8f6e1c0dbe4ff694855c69b286.114>:
800074a8: 77 5e 00 80 00 00 00 00         w^......
800074b0: 0b 00 00 00 00 00 00 00         ........
800074b8: 0f 03 00 00 15 00 00 00         ........

00000000800074c0 <.Lanon.18c15a8f6e1c0dbe4ff694855c69b286.115>:
800074c0: 77 5e 00 80 00 00 00 00         w^......
800074c8: 0b 00 00 00 00 00 00 00         ........
800074d0: 12 03 00 00 0c 00 00 00         ........

00000000800074d8 <.Lanon.18c15a8f6e1c0dbe4ff694855c69b286.116>:
800074d8: 77 5e 00 80 00 00 00 00         w^......
800074e0: 0b 00 00 00 00 00 00 00         ........
800074e8: f5 02 00 00 15 00 00 00         ........

00000000800074f0 <.Lanon.18c15a8f6e1c0dbe4ff694855c69b286.117>:
800074f0: 77 5e 00 80 00 00 00 00         w^......
800074f8: 0b 00 00 00 00 00 00 00         ........
80007500: f8 02 00 00 0c 00 00 00         ........

0000000080007508 <.Lanon.18c15a8f6e1c0dbe4ff694855c69b286.118>:
80007508: 77 5e 00 80 00 00 00 00         w^......
80007510: 0b 00 00 00 00 00 00 00         ........
80007518: f9 02 00 00 1d 00 00 00         ........

0000000080007520 <.Lanon.18c15a8f6e1c0dbe4ff694855c69b286.119>:
80007520: 77 5e 00 80 00 00 00 00         w^......
80007528: 0b 00 00 00 00 00 00 00         ........
80007530: 22 02 00 00 20 00 00 00         "... ...

0000000080007538 <.Lanon.18c15a8f6e1c0dbe4ff694855c69b286.120>:
80007538: 77 5e 00 80 00 00 00 00         w^......
80007540: 0b 00 00 00 00 00 00 00         ........
80007548: 29 02 00 00 08 00 00 00         ).......

0000000080007550 <.Lanon.18c15a8f6e1c0dbe4ff694855c69b286.121>:
80007550: 77 5e 00 80 00 00 00 00         w^......
80007558: 0b 00 00 00 00 00 00 00         ........
80007560: 2c 02 00 00 0d 00 00 00         ,.......

0000000080007568 <.Lanon.18c15a8f6e1c0dbe4ff694855c69b286.122>:
80007568: 77 5e 00 80 00 00 00 00         w^......
80007570: 0b 00 00 00 00 00 00 00         ........
80007578: 2d 02 00 00 18 00 00 00         -.......

0000000080007580 <.Lanon.18c15a8f6e1c0dbe4ff694855c69b286.123>:
80007580: 77 5e 00 80 00 00 00 00         w^......
80007588: 0b 00 00 00 00 00 00 00         ........
80007590: 2d 02 00 00 0d 00 00 00         -.......

0000000080007598 <.Lanon.18c15a8f6e1c0dbe4ff694855c69b286.125>:
80007598: 77 5e 00 80 00 00 00 00         w^......
800075a0: 0b 00 00 00 00 00 00 00         ........
800075a8: 30 02 00 00 15 00 00 00         0.......

00000000800075b0 <.Lanon.18c15a8f6e1c0dbe4ff694855c69b286.126>:
800075b0: 77 5e 00 80 00 00 00 00         w^......
800075b8: 0b 00 00 00 00 00 00 00         ........
800075c0: b6 02 00 00 0d 00 00 00         ........

00000000800075c8 <.Lanon.18c15a8f6e1c0dbe4ff694855c69b286.127>:
800075c8: 77 5e 00 80 00 00 00 00         w^......
800075d0: 0b 00 00 00 00 00 00 00         ........
800075d8: b7 02 00 00 0d 00 00 00         ........

00000000800075e0 <.Lanon.18c15a8f6e1c0dbe4ff694855c69b286.128>:
800075e0: 77 5e 00 80 00 00 00 00         w^......
800075e8: 0b 00 00 00 00 00 00 00         ........
800075f0: b8 02 00 00 0d 00 00 00         ........

00000000800075f8 <.Lanon.18c15a8f6e1c0dbe4ff694855c69b286.129>:
800075f8: 77 5e 00 80 00 00 00 00         w^......
80007600: 0b 00 00 00 00 00 00 00         ........
80007608: d2 02 00 00 0c 00 00 00         ........

0000000080007610 <.Lanon.18c15a8f6e1c0dbe4ff694855c69b286.130>:
80007610: 77 5e 00 80 00 00 00 00         w^......
80007618: 0b 00 00 00 00 00 00 00         ........
80007620: d3 02 00 00 1d 00 00 00         ........

0000000080007628 <.Lanon.18c15a8f6e1c0dbe4ff694855c69b286.131>:
80007628: 77 5e 00 80 00 00 00 00         w^......
80007630: 0b 00 00 00 00 00 00 00         ........
80007638: a6 03 00 00 09 00 00 00         ........

0000000080007640 <.Lanon.18c15a8f6e1c0dbe4ff694855c69b286.132>:
80007640: 77 5e 00 80 00 00 00 00         w^......
80007648: 0b 00 00 00 00 00 00 00         ........
80007650: 76 02 00 00 17 00 00 00         v.......

0000000080007658 <.Lanon.18c15a8f6e1c0dbe4ff694855c69b286.133>:
80007658: 77 5e 00 80 00 00 00 00         w^......
80007660: 0b 00 00 00 00 00 00 00         ........
80007668: 77 02 00 00 1d 00 00 00         w.......

0000000080007670 <.Lanon.18c15a8f6e1c0dbe4ff694855c69b286.139>:
80007670: 77 5e 00 80 00 00 00 00         w^......
80007678: 0b 00 00 00 00 00 00 00         ........
80007680: 60 03 00 00 09 00 00 00         `.......

0000000080007688 <.Lanon.18c15a8f6e1c0dbe4ff694855c69b286.141>:
80007688: 63 6f 6d 70 75 74 65 5f         compute_
80007690: 73 68 6f 72 74                  short

0000000080007695 <.Lanon.18c15a8f6e1c0dbe4ff694855c69b286.142>:
80007695: 63 6f 6d 70 75 74 65 5f         compute_
8000769d: 6c 6f 6e 67 00 00 00 00         long....
800076a5: 00 00 00                        ...

00000000800076a8 <lab5_kernel_task2::TASK_DEFS::h9627446df4a19cb5>:
800076a8: a0 64 00 80 00 00 00 00         .d......
800076b0: 10 00 00 00 00 00 00 00         ........
800076b8: 78 45 00 80 00 00 00 00         xE......
800076c0: 01 00 00 00 00 00 00 00         ........
800076c8: 00 00 00 00 00 00 00 00         ........
800076d0: 00 00 00 00 00 00 00 00         ........
800076d8: 88 76 00 80 00 00 00 00         .v......
800076e0: 0d 00 00 00 00 00 00 00         ........
800076e8: 50 45 00 80 00 00 00 00         PE......
800076f0: 02 00 00 00 00 00 00 00         ........
800076f8: 02 00 00 00 00 00 00 00         ........
80007700: 01 00 00 00 00 00 00 00         ........
80007708: 95 76 00 80 00 00 00 00         .v......
80007710: 0c 00 00 00 00 00 00 00         ........
80007718: 28 45 00 80 00 00 00 00         (E......
80007720: 03 00 00 00 00 00 00 00         ........
80007728: 02 00 00 00 00 00 00 00         ........
80007730: 01 00 00 00 00 00 00 00         ........

0000000080007738 <.Lanon.18c15a8f6e1c0dbe4ff694855c69b286.143>:
80007738: 69 6e 74 65 72 61 63 74         interact
80007740: 69 76 65                        ive

0000000080007743 <.Lanon.18c15a8f6e1c0dbe4ff694855c69b286.144>:
80007743: 63 6f 6d 70 75 74 65 00         compute.
8000774b: 00 00 00 00 00                  .....

0000000080007750 <.Lanon.18c15a8f6e1c0dbe4ff694855c69b286.145>:
80007750: 77 5e 00 80 00 00 00 00         w^......
80007758: 0b 00 00 00 00 00 00 00         ........
80007760: 84 03 00 00 24 00 00 00         ....$...

0000000080007768 <.Lanon.18c15a8f6e1c0dbe4ff694855c69b286.148>:
80007768: 77 5e 00 80 00 00 00 00         w^......
80007770: 0b 00 00 00 00 00 00 00         ........
80007778: d8 03 00 00 09 00 00 00         ........

0000000080007780 <.Lanon.18c15a8f6e1c0dbe4ff694855c69b286.149>:
80007780: 77 5e 00 80 00 00 00 00         w^......
80007788: 0b 00 00 00 00 00 00 00         ........
80007790: 9c 01 00 00 09 00 00 00         ........

0000000080007798 <.Lanon.18c15a8f6e1c0dbe4ff694855c69b286.150>:
80007798: 77 5e 00 80 00 00 00 00         w^......
800077a0: 0b 00 00 00 00 00 00 00         ........
800077a8: 9d 01 00 00 09 00 00 00         ........

00000000800077b0 <.Lanon.18c15a8f6e1c0dbe4ff694855c69b286.151>:
800077b0: 77 5e 00 80 00 00 00 00         w^......
800077b8: 0b 00 00 00 00 00 00 00         ........
800077c0: a6 01 00 00 12 00 00 00         ........

00000000800077c8 <.Lanon.18c15a8f6e1c0dbe4ff694855c69b286.152>:
800077c8: 77 5e 00 80 00 00 00 00         w^......
800077d0: 0b 00 00 00 00 00 00 00         ........
800077d8: a7 01 00 00 12 00 00 00         ........

00000000800077e0 <.Lanon.18c15a8f6e1c0dbe4ff694855c69b286.153>:
800077e0: 77 5e 00 80 00 00 00 00         w^......
800077e8: 0b 00 00 00 00 00 00 00         ........
800077f0: ab 01 00 00 09 00 00 00         ........

00000000800077f8 <.Lanon.18c15a8f6e1c0dbe4ff694855c69b286.154>:
800077f8: 77 5e 00 80 00 00 00 00         w^......
80007800: 0b 00 00 00 00 00 00 00         ........
80007808: ac 01 00 00 09 00 00 00         ........

0000000080007810 <.Lanon.18c15a8f6e1c0dbe4ff694855c69b286.155>:
80007810: 77 5e 00 80 00 00 00 00         w^......
80007818: 0b 00 00 00 00 00 00 00         ........
80007820: ad 01 00 00 09 00 00 00         ........

0000000080007828 <.Lanon.18c15a8f6e1c0dbe4ff694855c69b286.156>:
80007828: 77 5e 00 80 00 00 00 00         w^......
80007830: 0b 00 00 00 00 00 00 00         ........
80007838: af 01 00 00 20 00 00 00         .... ...

0000000080007840 <.Lanon.18c15a8f6e1c0dbe4ff694855c69b286.157>:
80007840: 77 5e 00 80 00 00 00 00         w^......
80007848: 0b 00 00 00 00 00 00 00         ........
80007850: af 01 00 00 0d 00 00 00         ........

0000000080007858 <.Lanon.18c15a8f6e1c0dbe4ff694855c69b286.158>:
80007858: 77 5e 00 80 00 00 00 00         w^......
80007860: 0b 00 00 00 00 00 00 00         ........
80007868: b1 01 00 00 12 00 00 00         ........

0000000080007870 <.Lanon.18c15a8f6e1c0dbe4ff694855c69b286.159>:
80007870: 79 69 65 6c 64 2d 68 65         yield-he
80007878: 61 76 79 20 73 68 6f 72         avy shor
80007880: 74 2d 62 75 72 73 74 20         t-burst 
80007888: 69 6e 74 65 72 61 63 74         interact
80007890: 69 76 65 20 77 6f 72 6b         ive work
80007898: 6c 6f 61 64 63 70 75 2d         loadcpu-
800078a0: 62 6f 75 6e 64 20 73 68         bound sh
800078a8: 6f 72 74 20 63 6f 6d 70         ort comp
800078b0: 75 74 65 20 77 6f 72 6b         ute work
800078b8: 6c 6f 61 64                     load

00000000800078bc <.Lanon.18c15a8f6e1c0dbe4ff694855c69b286.161>:
800078bc: 63 70 75 2d 62 6f 75 6e         cpu-boun
800078c4: 64 20 6c 6f 6e 67 20 63         d long c
800078cc: 6f 6d 70 75 74 65 20 77         ompute w
800078d4: 6f 72 6b 6c 6f 61 64            orkload

00000000800078db <.Lanon.18c15a8f6e1c0dbe4ff694855c69b286.162>:
800078db: 75 6e 6b 6e 6f 77 6e 00         unknown.
800078e3: 00 00 00 00 00                  .....

00000000800078e8 <.Lanon.18c15a8f6e1c0dbe4ff694855c69b286.164>:
800078e8: 83 5e 00 80 00 00 00 00         .^......
800078f0: 4b 00 00 00 00 00 00 00         K.......
800078f8: bc 02 00 00 09 00 00 00         ........

0000000080007900 <.Lanon.18c15a8f6e1c0dbe4ff694855c69b286.165>:
80007900: 77 5e 00 80 00 00 00 00         w^......
80007908: 0b 00 00 00 00 00 00 00         ........
80007910: 45 03 00 00 09 00 00 00         E.......

0000000080007918 <.Lanon.18c15a8f6e1c0dbe4ff694855c69b286.166>:
80007918: 5b 6b 65 72 6e 65 6c 5d         [kernel]
80007920: 20 62 6f 6f 74 65 64 20          booted 
80007928: 69 6e 20 4d 2d 6d 6f 64         in M-mod
80007930: 65 0a                           e.

0000000080007932 <.Lanon.18c15a8f6e1c0dbe4ff694855c69b286.167>:
80007932: 5b 6b 65 72 6e 65 6c 5d         [kernel]
8000793a: 20 4c 41 42 35 20 6b 65          LAB5 ke
80007942: 72 6e 65 6c 20 74 61 73         rnel tas
8000794a: 6b 32 20 6e 6f 6e 2d 52         k2 non-R
80007952: 52 20 73 63 68 65 64 75         R schedu
8000795a: 6c 65 72 20 65 78 70 65         ler expe
80007962: 72 69 6d 65 6e 74 0a            riment.

0000000080007969 <.Lanon.18c15a8f6e1c0dbe4ff694855c69b286.172>:
80007969: 1d 5b 6b 65 72 6e 65 6c         .[kernel
80007971: 5d 20 74 69 6d 65 72 20         ] timer 
80007979: 73 6f 75 72 63 65 3a 20         source: 
80007981: 6d 74 69 6d 65 3d c1 20         mtime=. 
80007989: 00 80 60 0b 2c 20 6d 74         ..`., mt
80007991: 69 6d 65 63 6d 70 3d c1         imecmp=.
80007999: 20 00 80 60 0c 2c 20 66          ..`., f
800079a1: 72 65 71 75 65 6e 63 79         requency
800079a9: 3d c0 0c 20 48 7a 2c 20         =.. Hz, 
800079b1: 31 20 74 69 63 6b 3d c0         1 tick=.
800079b9: 04 20 6e 73 0a 00 00            . ns...

00000000800079c0 <.Lanon.18c15a8f6e1c0dbe4ff694855c69b286.175>:
800079c0: 77 5e 00 80 00 00 00 00         w^......
800079c8: 0b 00 00 00 00 00 00 00         ........
800079d0: 1e 01 00 00 0d 00 00 00         ........

00000000800079d8 <.Lanon.18c15a8f6e1c0dbe4ff694855c69b286.176>:
800079d8: 77 5e 00 80 00 00 00 00         w^......
800079e0: 0b 00 00 00 00 00 00 00         ........
800079e8: 1f 01 00 00 0d 00 00 00         ........

00000000800079f0 <.Lanon.18c15a8f6e1c0dbe4ff694855c69b286.177>:
800079f0: 77 5e 00 80 00 00 00 00         w^......
800079f8: 0b 00 00 00 00 00 00 00         ........
80007a00: 20 01 00 00 0d 00 00 00          .......

0000000080007a08 <.Lanon.18c15a8f6e1c0dbe4ff694855c69b286.178>:
80007a08: 77 5e 00 80 00 00 00 00         w^......
80007a10: 0b 00 00 00 00 00 00 00         ........
80007a18: 21 01 00 00 0d 00 00 00         !.......

0000000080007a20 <.Lanon.406b51792588ab37e63d50777b55a0ca.0>:
80007a20: 69 73 5f 61 6c 69 67 6e         is_align
80007a28: 65 64 5f 74 6f 3a 20 61         ed_to: a
80007a30: 6c 69 67 6e 20 69 73 20         lign is 
80007a38: 6e 6f 74 20 61 20 70 6f         not a po
80007a40: 77 65 72 2d 6f 66 2d 74         wer-of-t
80007a48: 77 6f 00 00 00 00 00 00         wo......

0000000080007a50 <.Lanon.406b51792588ab37e63d50777b55a0ca.2>:
80007a50: 25 64 00 80 00 00 00 00         %d......
80007a58: 51 00 00 00 00 00 00 00         Q.......
80007a60: 5e 05 00 00 0d 00 00 00         ^.......

0000000080007a68 <.Lanon.29dbd3388948ebe0e1743dacf60d94fd.0>:
80007a68: 75 6e 73 61 66 65 20 70         unsafe p
80007a70: 72 65 63 6f 6e 64 69 74         recondit
80007a78: 69 6f 6e 28 73 29 20 76         ion(s) v
80007a80: 69 6f 6c 61 74 65 64 3a         iolated:
80007a88: 20 70 74 72 3a 3a 77 72          ptr::wr
80007a90: 69 74 65 5f 62 79 74 65         ite_byte
80007a98: 73 20 72 65 71 75 69 72         s requir
80007aa0: 65 73 20 74 68 61 74 20         es that 
80007aa8: 74 68 65 20 64 65 73 74         the dest
80007ab0: 69 6e 61 74 69 6f 6e 20         ination 
80007ab8: 70 6f 69 6e 74 65 72 20         pointer 
80007ac0: 69 73 20 61 6c 69 67 6e         is align
80007ac8: 65 64 20 61 6e 64 20 6e         ed and n
80007ad0: 6f 6e 2d 6e 75 6c 6c 0a         on-null.
80007ad8: 0a 54 68 69 73 20 69 6e         .This in
80007ae0: 64 69 63 61 74 65 73 20         dicates 
80007ae8: 61 20 62 75 67 20 69 6e         a bug in
80007af0: 20 74 68 65 20 70 72 6f          the pro
80007af8: 67 72 61 6d 2e 20 54 68         gram. Th
80007b00: 69 73 20 55 6e 64 65 66         is Undef
80007b08: 69 6e 65 64 20 42 65 68         ined Beh
80007b10: 61 76 69 6f 72 20 63 68         avior ch
80007b18: 65 63 6b 20 69 73 20 6f         eck is o
80007b20: 70 74 69 6f 6e 61 6c 2c         ptional,
80007b28: 20 61 6e 64 20 63 61 6e          and can
80007b30: 6e 6f 74 20 62 65 20 72         not be r
80007b38: 65 6c 69 65 64 20 6f 6e         elied on
80007b40: 20 66 6f 72 20 73 61 66          for saf
80007b48: 65 74 79 2e                     ety.

0000000080007b4c <.Lanon.29dbd3388948ebe0e1743dacf60d94fd.1>:
80007b4c: 75 6e 73 61 66 65 20 70         unsafe p
80007b54: 72 65 63 6f 6e 64 69 74         recondit
80007b5c: 69 6f 6e 28 73 29 20 76         ion(s) v
80007b64: 69 6f 6c 61 74 65 64 3a         iolated:
80007b6c: 20 70 74 72 3a 3a 72 65          ptr::re
80007b74: 61 64 5f 76 6f 6c 61 74         ad_volat
80007b7c: 69 6c 65 20 72 65 71 75         ile requ
80007b84: 69 72 65 73 20 74 68 61         ires tha
80007b8c: 74 20 74 68 65 20 70 6f         t the po
80007b94: 69 6e 74 65 72 20 61 72         inter ar
80007b9c: 67 75 6d 65 6e 74 20 69         gument i
80007ba4: 73 20 61 6c 69 67 6e 65         s aligne
80007bac: 64 0a 0a 54 68 69 73 20         d..This 
80007bb4: 69 6e 64 69 63 61 74 65         indicate
80007bbc: 73 20 61 20 62 75 67 20         s a bug 
80007bc4: 69 6e 20 74 68 65 20 70         in the p
80007bcc: 72 6f 67 72 61 6d 2e 20         rogram. 
80007bd4: 54 68 69 73 20 55 6e 64         This Und
80007bdc: 65 66 69 6e 65 64 20 42         efined B
80007be4: 65 68 61 76 69 6f 72 20         ehavior 
80007bec: 63 68 65 63 6b 20 69 73         check is
80007bf4: 20 6f 70 74 69 6f 6e 61          optiona
80007bfc: 6c 2c 20 61 6e 64 20 63         l, and c
80007c04: 61 6e 6e 6f 74 20 62 65         annot be
80007c0c: 20 72 65 6c 69 65 64 20          relied 
80007c14: 6f 6e 20 66 6f 72 20 73         on for s
80007c1c: 61 66 65 74 79 2e               afety.

0000000080007c22 <.Lanon.29dbd3388948ebe0e1743dacf60d94fd.2>:
80007c22: 75 6e 73 61 66 65 20 70         unsafe p
80007c2a: 72 65 63 6f 6e 64 69 74         recondit
80007c32: 69 6f 6e 28 73 29 20 76         ion(s) v
80007c3a: 69 6f 6c 61 74 65 64 3a         iolated:
80007c42: 20 70 74 72 3a 3a 77 72          ptr::wr
80007c4a: 69 74 65 5f 76 6f 6c 61         ite_vola
80007c52: 74 69 6c 65 20 72 65 71         tile req
80007c5a: 75 69 72 65 73 20 74 68         uires th
80007c62: 61 74 20 74 68 65 20 70         at the p
80007c6a: 6f 69 6e 74 65 72 20 61         ointer a
80007c72: 72 67 75 6d 65 6e 74 20         rgument 
80007c7a: 69 73 20 61 6c 69 67 6e         is align
80007c82: 65 64 0a 0a 54 68 69 73         ed..This
80007c8a: 20 69 6e 64 69 63 61 74          indicat
80007c92: 65 73 20 61 20 62 75 67         es a bug
80007c9a: 20 69 6e 20 74 68 65 20          in the 
80007ca2: 70 72 6f 67 72 61 6d 2e         program.
80007caa: 20 54 68 69 73 20 55 6e          This Un
80007cb2: 64 65 66 69 6e 65 64 20         defined 
80007cba: 42 65 68 61 76 69 6f 72         Behavior
80007cc2: 20 63 68 65 63 6b 20 69          check i
80007cca: 73 20 6f 70 74 69 6f 6e         s option
80007cd2: 61 6c 2c 20 61 6e 64 20         al, and 
80007cda: 63 61 6e 6e 6f 74 20 62         cannot b
80007ce2: 65 20 72 65 6c 69 65 64         e relied
80007cea: 20 6f 6e 20 66 6f 72 20          on for 
80007cf2: 73 61 66 65 74 79 2e            safety.

0000000080007cf9 <.Lanon.536f2323b683c81b361b85010efd6979.6>:
80007cf9: 66 61 6c 73 65                  false

0000000080007cfe <.Lanon.536f2323b683c81b361b85010efd6979.10>:
80007cfe: 30 30 30 31 30 32 30 33         00010203
80007d06: 30 34 30 35 30 36 30 37         04050607
80007d0e: 30 38 30 39 31 30 31 31         08091011
80007d16: 31 32 31 33 31 34 31 35         12131415
80007d1e: 31 36 31 37 31 38 31 39         16171819
80007d26: 32 30 32 31 32 32 32 33         20212223
80007d2e: 32 34 32 35 32 36 32 37         24252627
80007d36: 32 38 32 39 33 30 33 31         28293031
80007d3e: 33 32 33 33 33 34 33 35         32333435
80007d46: 33 36 33 37 33 38 33 39         36373839
80007d4e: 34 30 34 31 34 32 34 33         40414243
80007d56: 34 34 34 35 34 36 34 37         44454647
80007d5e: 34 38 34 39 35 30 35 31         48495051
80007d66: 35 32 35 33 35 34 35 35         52535455
80007d6e: 35 36 35 37 35 38 35 39         56575859
80007d76: 36 30 36 31 36 32 36 33         60616263
80007d7e: 36 34 36 35 36 36 36 37         64656667
80007d86: 36 38 36 39 37 30 37 31         68697071
80007d8e: 37 32 37 33 37 34 37 35         72737475
80007d96: 37 36 37 37 37 38 37 39         76777879
80007d9e: 38 30 38 31 38 32 38 33         80818283
80007da6: 38 34 38 35 38 36 38 37         84858687
80007dae: 38 38 38 39 39 30 39 31         88899091
80007db6: 39 32 39 33 39 34 39 35         92939495
80007dbe: 39 36 39 37 39 38 39 39         96979899
80007dc6: 00 00                           ..

0000000080007dc8 <.Lanon.536f2323b683c81b361b85010efd6979.22>:
80007dc8: 0e 62 00 80 00 00 00 00         .b......
80007dd0: 4b 00 00 00 00 00 00 00         K.......
80007dd8: 57 02 00 00 05 00 00 00         W.......

0000000080007de0 <.Lanon.536f2323b683c81b361b85010efd6979.31>:
80007de0: 30 78                           0x

0000000080007de2 <.Lanon.536f2323b683c81b361b85010efd6979.80>:
80007de2: 61 74 74 65 6d 70 74 20         attempt 
80007dea: 74 6f 20 61 64 64 20 77         to add w
80007df2: 69 74 68 20 6f 76 65 72         ith over
80007dfa: 66 6c 6f 77                     flow

0000000080007dfe <.Lanon.536f2323b683c81b361b85010efd6979.87>:
80007dfe: 61 74 74 65 6d 70 74 20         attempt 
80007e06: 74 6f 20 73 75 62 74 72         to subtr
80007e0e: 61 63 74 20 77 69 74 68         act with
80007e16: 20 6f 76 65 72 66 6c 6f          overflo
80007e1e: 77                              w

0000000080007e1f <.Lanon.536f2323b683c81b361b85010efd6979.259>:
80007e1f: 61 74 74 65 6d 70 74 20         attempt 
80007e27: 74 6f 20 64 69 76 69 64         to divid
80007e2f: 65 20 62 79 20 7a 65 72         e by zer
80007e37: 6f                              o

0000000080007e38 <.Lanon.536f2323b683c81b361b85010efd6979.288>:
80007e38: 6e 75 6c 6c 20 70 6f 69         null poi
80007e40: 6e 74 65 72 20 64 65 72         nter der
80007e48: 65 66 65 72 65 6e 63 65         eference
80007e50: 20 6f 63 63 75 72 72 65          occurre
80007e58: 64                              d

0000000080007e59 <.Lanon.536f2323b683c81b361b85010efd6979.399>:
80007e59: 70 61 6e 69 63 6b 65 64         panicked
80007e61: 20 61 74 20                      at 

0000000080007e65 <.Lanon.536f2323b683c81b361b85010efd6979.400>:
80007e65: 3a 0a                           :.
