
lab5_kernel_task4:	file format elf64-littleriscv

Disassembly of section .text:

0000000080000000 <_start>:
80000000: f1402573     	csrr	a0, mhartid

0000000080000004 <.Lpcrel_hi0>:
80000004: 00017297     	auipc	t0, 0x17
80000008: cec28293     	addi	t0, t0, -0x314
8000000c: 6311         	lui	t1, 0x4
8000000e: 026503b3     	mul	t2, a0, t1
80000012: 40728133     	sub	sp, t0, t2
80000016: cd11         	beqz	a0, 0x80000032 <.Lpcrel_hi1+0x1a>

0000000080000018 <.Lpcrel_hi1>:
80000018: 00007297     	auipc	t0, 0x7
8000001c: b3828293     	addi	t0, t0, -0x4c8
80000020: 0002b303     	ld	t1, 0x0(t0)
80000024: fe030ee3     	beqz	t1, 0x80000020 <.Lpcrel_hi1+0x8>
80000028: 00002097     	auipc	ra, 0x2
8000002c: 00a080e7     	jalr	0xa(ra) <start_secondary>
80000030: a029         	j	0x8000003a <.Lpcrel_hi1+0x22>
80000032: 00002097     	auipc	ra, 0x2
80000036: e26080e7     	jalr	-0x1da(ra) <start_primary>
8000003a: a001         	j	0x8000003a <.Lpcrel_hi1+0x22>

000000008000003c <_$LT$$RF$T$u20$as$u20$core..fmt..Display$GT$::fmt::h34f2fc806236b8bd>:
8000003c: 1101         	addi	sp, sp, -0x20
8000003e: ec06         	sd	ra, 0x18(sp)
80000040: e42a         	sd	a0, 0x8(sp)
80000042: e82e         	sd	a1, 0x10(sp)
80000044: 6108         	ld	a0, 0x0(a0)
80000046: 00005097     	auipc	ra, 0x5
8000004a: c9a080e7     	jalr	-0x366(ra) <_$LT$core..panic..panic_info..PanicInfo$u20$as$u20$core..fmt..Display$GT$::fmt::hcccb3fed5b673506>
8000004e: 60e2         	ld	ra, 0x18(sp)
80000050: 6105         	addi	sp, sp, 0x20
80000052: 8082         	ret
		...

0000000080000060 <trap_entry>:
80000060: 34011173     	csrrw	sp, mscratch, sp
80000064: df010113     	addi	sp, sp, -0x210
80000068: e006         	sd	ra, 0x0(sp)
8000006a: e40e         	sd	gp, 0x8(sp)
8000006c: e812         	sd	tp, 0x10(sp)
8000006e: ec16         	sd	t0, 0x18(sp)
80000070: f01a         	sd	t1, 0x20(sp)
80000072: f41e         	sd	t2, 0x28(sp)
80000074: f822         	sd	s0, 0x30(sp)
80000076: fc26         	sd	s1, 0x38(sp)
80000078: e0aa         	sd	a0, 0x40(sp)
8000007a: e4ae         	sd	a1, 0x48(sp)
8000007c: e8b2         	sd	a2, 0x50(sp)
8000007e: ecb6         	sd	a3, 0x58(sp)
80000080: f0ba         	sd	a4, 0x60(sp)
80000082: f4be         	sd	a5, 0x68(sp)
80000084: f8c2         	sd	a6, 0x70(sp)
80000086: fcc6         	sd	a7, 0x78(sp)
80000088: e14a         	sd	s2, 0x80(sp)
8000008a: e54e         	sd	s3, 0x88(sp)
8000008c: e952         	sd	s4, 0x90(sp)
8000008e: ed56         	sd	s5, 0x98(sp)
80000090: f15a         	sd	s6, 0xa0(sp)
80000092: f55e         	sd	s7, 0xa8(sp)
80000094: f962         	sd	s8, 0xb0(sp)
80000096: fd66         	sd	s9, 0xb8(sp)
80000098: e1ea         	sd	s10, 0xc0(sp)
8000009a: e5ee         	sd	s11, 0xc8(sp)
8000009c: e9f2         	sd	t3, 0xd0(sp)
8000009e: edf6         	sd	t4, 0xd8(sp)
800000a0: f1fa         	sd	t5, 0xe0(sp)
800000a2: f5fe         	sd	t6, 0xe8(sp)
800000a4: 340022f3     	csrr	t0, mscratch
800000a8: f996         	sd	t0, 0xf0(sp)
800000aa: 341022f3     	csrr	t0, mepc
800000ae: fd96         	sd	t0, 0xf8(sp)
800000b0: a202         	fsd	ft0, 0x100(sp)
800000b2: a606         	fsd	ft1, 0x108(sp)
800000b4: aa0a         	fsd	ft2, 0x110(sp)
800000b6: ae0e         	fsd	ft3, 0x118(sp)
800000b8: b212         	fsd	ft4, 0x120(sp)
800000ba: b616         	fsd	ft5, 0x128(sp)
800000bc: ba1a         	fsd	ft6, 0x130(sp)
800000be: be1e         	fsd	ft7, 0x138(sp)
800000c0: a2a2         	fsd	fs0, 0x140(sp)
800000c2: a6a6         	fsd	fs1, 0x148(sp)
800000c4: aaaa         	fsd	fa0, 0x150(sp)
800000c6: aeae         	fsd	fa1, 0x158(sp)
800000c8: b2b2         	fsd	fa2, 0x160(sp)
800000ca: b6b6         	fsd	fa3, 0x168(sp)
800000cc: baba         	fsd	fa4, 0x170(sp)
800000ce: bebe         	fsd	fa5, 0x178(sp)
800000d0: a342         	fsd	fa6, 0x180(sp)
800000d2: a746         	fsd	fa7, 0x188(sp)
800000d4: ab4a         	fsd	fs2, 0x190(sp)
800000d6: af4e         	fsd	fs3, 0x198(sp)
800000d8: b352         	fsd	fs4, 0x1a0(sp)
800000da: b756         	fsd	fs5, 0x1a8(sp)
800000dc: bb5a         	fsd	fs6, 0x1b0(sp)
800000de: bf5e         	fsd	fs7, 0x1b8(sp)
800000e0: a3e2         	fsd	fs8, 0x1c0(sp)
800000e2: a7e6         	fsd	fs9, 0x1c8(sp)
800000e4: abea         	fsd	fs10, 0x1d0(sp)
800000e6: afee         	fsd	fs11, 0x1d8(sp)
800000e8: b3f2         	fsd	ft8, 0x1e0(sp)
800000ea: b7f6         	fsd	ft9, 0x1e8(sp)
800000ec: bbfa         	fsd	ft10, 0x1f0(sp)
800000ee: bffe         	fsd	ft11, 0x1f8(sp)
800000f0: 003022f3     	frcsr	t0
800000f4: 20513023     	sd	t0, 0x200(sp)
800000f8: 20013423     	sd	zero, 0x208(sp)
800000fc: 850a         	mv	a0, sp
800000fe: 00002097     	auipc	ra, 0x2
80000102: b80080e7     	jalr	-0x480(ra) <rust_handle_trap>
80000106: 72ee         	ld	t0, 0xf8(sp)
80000108: 34129073     	csrw	mepc, t0
8000010c: 20013283     	ld	t0, 0x200(sp)
80000110: 00329073     	fscsr	t0
80000114: 2012         	fld	ft0, 0x100(sp)
80000116: 20b2         	fld	ft1, 0x108(sp)
80000118: 2152         	fld	ft2, 0x110(sp)
8000011a: 21f2         	fld	ft3, 0x118(sp)
8000011c: 3212         	fld	ft4, 0x120(sp)
8000011e: 32b2         	fld	ft5, 0x128(sp)
80000120: 3352         	fld	ft6, 0x130(sp)
80000122: 33f2         	fld	ft7, 0x138(sp)
80000124: 2416         	fld	fs0, 0x140(sp)
80000126: 24b6         	fld	fs1, 0x148(sp)
80000128: 2556         	fld	fa0, 0x150(sp)
8000012a: 25f6         	fld	fa1, 0x158(sp)
8000012c: 3616         	fld	fa2, 0x160(sp)
8000012e: 36b6         	fld	fa3, 0x168(sp)
80000130: 3756         	fld	fa4, 0x170(sp)
80000132: 37f6         	fld	fa5, 0x178(sp)
80000134: 281a         	fld	fa6, 0x180(sp)
80000136: 28ba         	fld	fa7, 0x188(sp)
80000138: 295a         	fld	fs2, 0x190(sp)
8000013a: 29fa         	fld	fs3, 0x198(sp)
8000013c: 3a1a         	fld	fs4, 0x1a0(sp)
8000013e: 3aba         	fld	fs5, 0x1a8(sp)
80000140: 3b5a         	fld	fs6, 0x1b0(sp)
80000142: 3bfa         	fld	fs7, 0x1b8(sp)
80000144: 2c1e         	fld	fs8, 0x1c0(sp)
80000146: 2cbe         	fld	fs9, 0x1c8(sp)
80000148: 2d5e         	fld	fs10, 0x1d0(sp)
8000014a: 2dfe         	fld	fs11, 0x1d8(sp)
8000014c: 3e1e         	fld	ft8, 0x1e0(sp)
8000014e: 3ebe         	fld	ft9, 0x1e8(sp)
80000150: 3f5e         	fld	ft10, 0x1f0(sp)
80000152: 3ffe         	fld	ft11, 0x1f8(sp)
80000154: 6082         	ld	ra, 0x0(sp)
80000156: 61a2         	ld	gp, 0x8(sp)
80000158: 6242         	ld	tp, 0x10(sp)
8000015a: 62e2         	ld	t0, 0x18(sp)
8000015c: 7302         	ld	t1, 0x20(sp)
8000015e: 73a2         	ld	t2, 0x28(sp)
80000160: 7442         	ld	s0, 0x30(sp)
80000162: 74e2         	ld	s1, 0x38(sp)
80000164: 6506         	ld	a0, 0x40(sp)
80000166: 65a6         	ld	a1, 0x48(sp)
80000168: 6646         	ld	a2, 0x50(sp)
8000016a: 66e6         	ld	a3, 0x58(sp)
8000016c: 7706         	ld	a4, 0x60(sp)
8000016e: 77a6         	ld	a5, 0x68(sp)
80000170: 7846         	ld	a6, 0x70(sp)
80000172: 78e6         	ld	a7, 0x78(sp)
80000174: 690a         	ld	s2, 0x80(sp)
80000176: 69aa         	ld	s3, 0x88(sp)
80000178: 6a4a         	ld	s4, 0x90(sp)
8000017a: 6aea         	ld	s5, 0x98(sp)
8000017c: 7b0a         	ld	s6, 0xa0(sp)
8000017e: 7baa         	ld	s7, 0xa8(sp)
80000180: 7c4a         	ld	s8, 0xb0(sp)
80000182: 7cea         	ld	s9, 0xb8(sp)
80000184: 6d0e         	ld	s10, 0xc0(sp)
80000186: 6dae         	ld	s11, 0xc8(sp)
80000188: 6e4e         	ld	t3, 0xd0(sp)
8000018a: 6eee         	ld	t4, 0xd8(sp)
8000018c: 7f0e         	ld	t5, 0xe0(sp)
8000018e: 7fae         	ld	t6, 0xe8(sp)
80000190: 21010113     	addi	sp, sp, 0x210
80000194: 34011173     	csrrw	sp, mscratch, sp
80000198: 30200073     	mret

000000008000019c <__rustc::rust_begin_unwind>:
8000019c: 7159         	addi	sp, sp, -0x70
8000019e: f486         	sd	ra, 0x68(sp)
800001a0: e42a         	sd	a0, 0x8(sp)
800001a2: 00000097     	auipc	ra, 0x0
800001a6: 5e6080e7     	jalr	0x5e6(ra) <lab5_kernel_task4::read_mhartid::h414b22debd9c6a7c>
800001aa: e82a         	sd	a0, 0x10(sp)
800001ac: 080c         	addi	a1, sp, 0x10
800001ae: ecae         	sd	a1, 0x58(sp)
800001b0: 0028         	addi	a0, sp, 0x8
800001b2: e02a         	sd	a0, 0x0(sp)
800001b4: f0aa         	sd	a0, 0x60(sp)
800001b6: 1828         	addi	a0, sp, 0x38
800001b8: 00003097     	auipc	ra, 0x3
800001bc: da6080e7     	jalr	-0x25a(ra) <core::fmt::rt::Argument::new_display::hf39fee7a07297fe8>
800001c0: 6582         	ld	a1, 0x0(sp)
800001c2: 00a8         	addi	a0, sp, 0x48
800001c4: 00003097     	auipc	ra, 0x3
800001c8: d78080e7     	jalr	-0x288(ra) <core::fmt::rt::Argument::new_display::hdba29bf2699d776a>
800001cc: 6506         	ld	a0, 0x40(sp)
800001ce: f02a         	sd	a0, 0x20(sp)
800001d0: 7562         	ld	a0, 0x38(sp)
800001d2: ec2a         	sd	a0, 0x18(sp)
800001d4: 6546         	ld	a0, 0x50(sp)
800001d6: f82a         	sd	a0, 0x30(sp)
800001d8: 6526         	ld	a0, 0x48(sp)
800001da: f42a         	sd	a0, 0x28(sp)

00000000800001dc <.Lpcrel_hi2>:
800001dc: 00005517     	auipc	a0, 0x5
800001e0: f7a50513     	addi	a0, a0, -0x86
800001e4: 082c         	addi	a1, sp, 0x18
800001e6: 00004097     	auipc	ra, 0x4
800001ea: a08080e7     	jalr	-0x5f8(ra) <core::fmt::Arguments::new::hfa5e910f5a504c65>
800001ee: 00003097     	auipc	ra, 0x3
800001f2: f1a080e7     	jalr	-0xe6(ra) <lab5_kernel_task4::console::print::hbed2e8a51f9bf136>
800001f6: 4505         	li	a0, 0x1
800001f8: 00002097     	auipc	ra, 0x2
800001fc: a3e080e7     	jalr	-0x5c2(ra) <lab5_kernel_task4::qemu_exit::hdb22927d276c8649>

0000000080000200 <lab5_kernel_task4::clear_msip::he38a95306c2d7018>:
80000200: 1141         	addi	sp, sp, -0x10
80000202: e406         	sd	ra, 0x8(sp)
80000204: e02a         	sd	a0, 0x0(sp)
80000206: 00002097     	auipc	ra, 0x2
8000020a: 9b4080e7     	jalr	-0x64c(ra) <lab5_kernel_task4::msip_addr::h5daa1376b1076b5a>

000000008000020e <.Lpcrel_hi3>:
8000020e: 00005597     	auipc	a1, 0x5
80000212: 23a58613     	addi	a2, a1, 0x23a
80000216: 4581         	li	a1, 0x0
80000218: 00002097     	auipc	ra, 0x2
8000021c: 282080e7     	jalr	0x282(ra) <core::ptr::write_volatile::hdca7891ed6676f43>
80000220: 60a2         	ld	ra, 0x8(sp)
80000222: 0141         	addi	sp, sp, 0x10
80000224: 8082         	ret

0000000080000226 <lab5_kernel_task4::local_done::h13793dd44c83c590>:
80000226: 7179         	addi	sp, sp, -0x30
80000228: f406         	sd	ra, 0x28(sp)
8000022a: e42a         	sd	a0, 0x8(sp)
8000022c: ec2a         	sd	a0, 0x18(sp)
8000022e: f02e         	sd	a1, 0x20(sp)
80000230: 452d         	li	a0, 0xb
80000232: 00b56763     	bltu	a0, a1, 0x80000240 <lab5_kernel_task4::local_done::h13793dd44c83c590+0x1a>
80000236: a009         	j	0x80000238 <lab5_kernel_task4::local_done::h13793dd44c83c590+0x12>
80000238: 4501         	li	a0, 0x0
8000023a: 00a10ba3     	sb	a0, 0x17(sp)
8000023e: a0b9         	j	0x8000028c <.Lpcrel_hi5+0x1c>
80000240: 65a2         	ld	a1, 0x8(sp)
80000242: 450d         	li	a0, 0x3
80000244: 02b56563     	bltu	a0, a1, 0x8000026e <.Lpcrel_hi4+0x1e>
80000248: a009         	j	0x8000024a <lab5_kernel_task4::local_done::h13793dd44c83c590+0x24>
8000024a: 6522         	ld	a0, 0x8(sp)
8000024c: 00351593     	slli	a1, a0, 0x3

0000000080000250 <.Lpcrel_hi4>:
80000250: 00007517     	auipc	a0, 0x7
80000254: 93850513     	addi	a0, a0, -0x6c8
80000258: 952e         	add	a0, a0, a1
8000025a: 4589         	li	a1, 0x2
8000025c: 00004097     	auipc	ra, 0x4
80000260: 84c080e7     	jalr	-0x7b4(ra) <core::sync::atomic::AtomicU64::load::h310be17d02a28ae1>
80000264: 85aa         	mv	a1, a0
80000266: 4525         	li	a0, 0x9
80000268: 00b56d63     	bltu	a0, a1, 0x80000282 <.Lpcrel_hi5+0x12>
8000026c: b7f1         	j	0x80000238 <lab5_kernel_task4::local_done::h13793dd44c83c590+0x12>
8000026e: 6522         	ld	a0, 0x8(sp)

0000000080000270 <.Lpcrel_hi5>:
80000270: 00005597     	auipc	a1, 0x5
80000274: 1f058613     	addi	a2, a1, 0x1f0
80000278: 4591         	li	a1, 0x4
8000027a: 00005097     	auipc	ra, 0x5
8000027e: 96c080e7     	jalr	-0x694(ra) <core::panicking::panic_bounds_check::h6aaee0d15e0261eb>
80000282: 6522         	ld	a0, 0x8(sp)
80000284: 4591         	li	a1, 0x4
80000286: 00b56863     	bltu	a0, a1, 0x80000296 <.Lpcrel_hi5+0x26>
8000028a: a815         	j	0x800002be <.Lpcrel_hi6+0x22>
8000028c: 01714503     	lbu	a0, 0x17(sp)
80000290: 70a2         	ld	ra, 0x28(sp)
80000292: 6145         	addi	sp, sp, 0x30
80000294: 8082         	ret
80000296: 6522         	ld	a0, 0x8(sp)
80000298: 00351593     	slli	a1, a0, 0x3

000000008000029c <.Lpcrel_hi6>:
8000029c: 00007517     	auipc	a0, 0x7
800002a0: 9cc50513     	addi	a0, a0, -0x634
800002a4: 952e         	add	a0, a0, a1
800002a6: 4589         	li	a1, 0x2
800002a8: 00004097     	auipc	ra, 0x4
800002ac: 800080e7     	jalr	-0x800(ra) <core::sync::atomic::AtomicU64::load::h310be17d02a28ae1>
800002b0: 00453513     	sltiu	a0, a0, 0x4
800002b4: 00154513     	xori	a0, a0, 0x1
800002b8: 00a10ba3     	sb	a0, 0x17(sp)
800002bc: bfc1         	j	0x8000028c <.Lpcrel_hi5+0x1c>
800002be: 6522         	ld	a0, 0x8(sp)

00000000800002c0 <.Lpcrel_hi7>:
800002c0: 00005597     	auipc	a1, 0x5
800002c4: 1b858613     	addi	a2, a1, 0x1b8
800002c8: 4591         	li	a1, 0x4
800002ca: 00005097     	auipc	ra, 0x5
800002ce: 91c080e7     	jalr	-0x6e4(ra) <core::panicking::panic_bounds_check::h6aaee0d15e0261eb>

00000000800002d2 <lab5_kernel_task4::read_mtime::h08d5af7cc6021f0f>:
800002d2: 1141         	addi	sp, sp, -0x10
800002d4: e406         	sd	ra, 0x8(sp)

00000000800002d6 <.Lpcrel_hi8>:
800002d6: 00005517     	auipc	a0, 0x5
800002da: 1ba50593     	addi	a1, a0, 0x1ba
800002de: 0200c537     	lui	a0, 0x200c
800002e2: 1561         	addi	a0, a0, -0x8
800002e4: 00002097     	auipc	ra, 0x2
800002e8: 12e080e7     	jalr	0x12e(ra) <core::ptr::read_volatile::he20290ed61f6ea67>
800002ec: 60a2         	ld	ra, 0x8(sp)
800002ee: 0141         	addi	sp, sp, 0x10
800002f0: 8082         	ret

00000000800002f2 <lab5_kernel_task4::read_mtval::h5aa05fcce0c961a2>:
800002f2: 1141         	addi	sp, sp, -0x10
800002f4: 34302573     	csrr	a0, mtval
800002f8: e42a         	sd	a0, 0x8(sp)
800002fa: 6522         	ld	a0, 0x8(sp)
800002fc: 0141         	addi	sp, sp, 0x10
800002fe: 8082         	ret

0000000080000300 <lab5_kernel_task4::bool_to_u64::he95085537e2e5daf>:
80000300: 1141         	addi	sp, sp, -0x10
80000302: 00a107a3     	sb	a0, 0xf(sp)
80000306: e509         	bnez	a0, 0x80000310 <lab5_kernel_task4::bool_to_u64::he95085537e2e5daf+0x10>
80000308: a009         	j	0x8000030a <lab5_kernel_task4::bool_to_u64::he95085537e2e5daf+0xa>
8000030a: 4501         	li	a0, 0x0
8000030c: e02a         	sd	a0, 0x0(sp)
8000030e: a021         	j	0x80000316 <lab5_kernel_task4::bool_to_u64::he95085537e2e5daf+0x16>
80000310: 4505         	li	a0, 0x1
80000312: e02a         	sd	a0, 0x0(sp)
80000314: a009         	j	0x80000316 <lab5_kernel_task4::bool_to_u64::he95085537e2e5daf+0x16>
80000316: 6502         	ld	a0, 0x0(sp)
80000318: 0141         	addi	sp, sp, 0x10
8000031a: 8082         	ret

000000008000031c <lab5_kernel_task4::read_mcause::hb0d3764f8885bb5d>:
8000031c: 1141         	addi	sp, sp, -0x10
8000031e: 34202573     	csrr	a0, mcause
80000322: e42a         	sd	a0, 0x8(sp)
80000324: 6522         	ld	a0, 0x8(sp)
80000326: 0141         	addi	sp, sp, 0x10
80000328: 8082         	ret

000000008000032a <lab5_kernel_task4::ticks_to_us::h637b802cc72f0821>:
8000032a: 1141         	addi	sp, sp, -0x10
8000032c: e406         	sd	ra, 0x8(sp)
8000032e: e02a         	sd	a0, 0x0(sp)
80000330: 06400593     	li	a1, 0x64
80000334: 00002097     	auipc	ra, 0x2
80000338: 068080e7     	jalr	0x68(ra) <core::num::_$LT$impl$u20$u64$GT$::saturating_mul::hcb90ca880502b96f>
8000033c: 810d         	srli	a0, a0, 0x3

000000008000033e <.Lpcrel_hi9>:
8000033e: 00005597     	auipc	a1, 0x5
80000342: b0a58593     	addi	a1, a1, -0x4f6
80000346: 618c         	ld	a1, 0x0(a1)
80000348: 02b53533     	mulhu	a0, a0, a1
8000034c: 8111         	srli	a0, a0, 0x4
8000034e: 60a2         	ld	ra, 0x8(sp)
80000350: 0141         	addi	sp, sp, 0x10
80000352: 8082         	ret

0000000080000354 <lab5_kernel_task4::worker_loop::h32b7a1308ff46ea4>:
80000354: db010113     	addi	sp, sp, -0x250
80000358: 24113423     	sd	ra, 0x248(sp)
8000035c: ec2a         	sd	a0, 0x18(sp)
8000035e: 4501         	li	a0, 0x0
80000360: f02a         	sd	a0, 0x20(sp)
80000362: 6562         	ld	a0, 0x18(sp)
80000364: 1522         	slli	a0, a0, 0x28

0000000080000366 <.Lpcrel_hi10>:
80000366: 00005597     	auipc	a1, 0x5
8000036a: b1258593     	addi	a1, a1, -0x4ee
8000036e: 618c         	ld	a1, 0x0(a1)
80000370: 8d2d         	xor	a0, a0, a1
80000372: f42a         	sd	a0, 0x28(sp)
80000374: a009         	j	0x80000376 <.Lpcrel_hi10+0x10>
80000376: 7582         	ld	a1, 0x20(sp)
80000378: 6562         	ld	a0, 0x18(sp)
8000037a: 00000097     	auipc	ra, 0x0
8000037e: eac080e7     	jalr	-0x154(ra) <lab5_kernel_task4::local_done::h13793dd44c83c590>
80000382: e91d         	bnez	a0, 0x800003b8 <.Lpcrel_hi10+0x52>
80000384: a009         	j	0x80000386 <.Lpcrel_hi10+0x20>
80000386: 6562         	ld	a0, 0x18(sp)
80000388: 082c         	addi	a1, sp, 0x18
8000038a: 1030         	addi	a2, sp, 0x28
8000038c: 00002097     	auipc	ra, 0x2
80000390: 1f6080e7     	jalr	0x1f6(ra) <lab5_kernel_task4::with_shared_state_lock::ha51d936714b823ce>
80000394: 7522         	ld	a0, 0x28(sp)
80000396: 7582         	ld	a1, 0x20(sp)
80000398: 8d2d         	xor	a0, a0, a1
8000039a: 6589         	lui	a1, 0x2
8000039c: f4058593     	addi	a1, a1, -0xc0
800003a0: 00001097     	auipc	ra, 0x1
800003a4: 44e080e7     	jalr	0x44e(ra) <lab5_kernel_task4::busy_mix::h4ebb122ae3b40d70>
800003a8: f42a         	sd	a0, 0x28(sp)
800003aa: 7582         	ld	a1, 0x20(sp)
800003ac: 00158513     	addi	a0, a1, 0x1
800003b0: e82a         	sd	a0, 0x10(sp)
800003b2: 02b56f63     	bltu	a0, a1, 0x800003f0 <.Lpcrel_hi12>
800003b6: a035         	j	0x800003e2 <.Lpcrel_hi11+0x22>
800003b8: 00001097     	auipc	ra, 0x1
800003bc: 3ca080e7     	jalr	0x3ca(ra) <lab5_kernel_task4::disable_machine_interrupts::h2d9899e151f95894>

00000000800003c0 <.Lpcrel_hi11>:
800003c0: 00007517     	auipc	a0, 0x7
800003c4: 82850513     	addi	a0, a0, -0x7d8
800003c8: 4585         	li	a1, 0x1
800003ca: 460d         	li	a2, 0x3
800003cc: 00003097     	auipc	ra, 0x3
800003d0: 672080e7     	jalr	0x672(ra) <core::sync::atomic::AtomicUsize::fetch_add::h54f54c5ec52624d9>
800003d4: 85aa         	mv	a1, a0
800003d6: 00158513     	addi	a0, a1, 0x1
800003da: e42a         	sd	a0, 0x8(sp)
800003dc: 1cb56963     	bltu	a0, a1, 0x800005ae <.Lpcrel_hi23>
800003e0: a2c1         	j	0x800005a0 <.Lpcrel_hi22+0x12>
800003e2: 6542         	ld	a0, 0x10(sp)
800003e4: f02a         	sd	a0, 0x20(sp)
800003e6: 6562         	ld	a0, 0x18(sp)
800003e8: 4591         	li	a1, 0x4
800003ea: 00b56b63     	bltu	a0, a1, 0x80000400 <.Lpcrel_hi12+0x10>
800003ee: a8b1         	j	0x8000044a <.Lpcrel_hi14+0x12>

00000000800003f0 <.Lpcrel_hi12>:
800003f0: 00005517     	auipc	a0, 0x5
800003f4: 0b850513     	addi	a0, a0, 0xb8
800003f8: 00004097     	auipc	ra, 0x4
800003fc: 776080e7     	jalr	0x776(ra) <core::panicking::panic_const::panic_const_add_overflow::h67cba067093910f8>
80000400: 6562         	ld	a0, 0x18(sp)
80000402: 00351593     	slli	a1, a0, 0x3

0000000080000406 <.Lpcrel_hi13>:
80000406: 00006517     	auipc	a0, 0x6
8000040a: 7f250513     	addi	a0, a0, 0x7f2
8000040e: 952e         	add	a0, a0, a1
80000410: 7582         	ld	a1, 0x20(sp)
80000412: 4605         	li	a2, 0x1
80000414: 00003097     	auipc	ra, 0x3
80000418: 6ac080e7     	jalr	0x6ac(ra) <core::sync::atomic::AtomicU64::store::hb2aa4fb5f656f3b7>
8000041c: 7502         	ld	a0, 0x20(sp)
8000041e: aaaab5b7     	lui	a1, 0xaaaab
80000422: aab58593     	addi	a1, a1, -0x555
80000426: 02059613     	slli	a2, a1, 0x20
8000042a: 95b2         	add	a1, a1, a2
8000042c: 02b50533     	mul	a0, a0, a1
80000430: 03f51593     	slli	a1, a0, 0x3f
80000434: 8105         	srli	a0, a0, 0x1
80000436: 8d4d         	or	a0, a0, a1

0000000080000438 <.Lpcrel_hi14>:
80000438: 00005597     	auipc	a1, 0x5
8000043c: a2058593     	addi	a1, a1, -0x5e0
80000440: 618c         	ld	a1, 0x0(a1)
80000442: 00b56e63     	bltu	a0, a1, 0x8000045e <.Lpcrel_hi15+0x12>
80000446: a009         	j	0x80000448 <.Lpcrel_hi14+0x10>
80000448: b73d         	j	0x80000376 <.Lpcrel_hi10+0x10>
8000044a: 6562         	ld	a0, 0x18(sp)

000000008000044c <.Lpcrel_hi15>:
8000044c: 00005597     	auipc	a1, 0x5
80000450: 07458613     	addi	a2, a1, 0x74
80000454: 4591         	li	a1, 0x4
80000456: 00004097     	auipc	ra, 0x4
8000045a: 790080e7     	jalr	0x790(ra) <core::panicking::panic_bounds_check::h6aaee0d15e0261eb>
8000045e: 65e2         	ld	a1, 0x18(sp)
80000460: 450d         	li	a0, 0x3
80000462: 02b56663     	bltu	a0, a1, 0x8000048e <.Lpcrel_hi16+0x20>
80000466: a009         	j	0x80000468 <.Lpcrel_hi15+0x1c>
80000468: 6562         	ld	a0, 0x18(sp)
8000046a: 00351593     	slli	a1, a0, 0x3

000000008000046e <.Lpcrel_hi16>:
8000046e: 00006517     	auipc	a0, 0x6
80000472: 71a50513     	addi	a0, a0, 0x71a
80000476: 952e         	add	a0, a0, a1
80000478: 4589         	li	a1, 0x2
8000047a: 00003097     	auipc	ra, 0x3
8000047e: 62e080e7     	jalr	0x62e(ra) <core::sync::atomic::AtomicU64::load::h310be17d02a28ae1>
80000482: ecaa         	sd	a0, 0x58(sp)
80000484: 6562         	ld	a0, 0x18(sp)
80000486: 4591         	li	a1, 0x4
80000488: 00b56d63     	bltu	a0, a1, 0x800004a2 <.Lpcrel_hi17+0x12>
8000048c: a835         	j	0x800004c8 <.Lpcrel_hi18+0x20>
8000048e: 6562         	ld	a0, 0x18(sp)

0000000080000490 <.Lpcrel_hi17>:
80000490: 00005597     	auipc	a1, 0x5
80000494: 04858613     	addi	a2, a1, 0x48
80000498: 4591         	li	a1, 0x4
8000049a: 00004097     	auipc	ra, 0x4
8000049e: 74c080e7     	jalr	0x74c(ra) <core::panicking::panic_bounds_check::h6aaee0d15e0261eb>
800004a2: 6562         	ld	a0, 0x18(sp)
800004a4: 00351593     	slli	a1, a0, 0x3

00000000800004a8 <.Lpcrel_hi18>:
800004a8: 00006517     	auipc	a0, 0x6
800004ac: 7c050513     	addi	a0, a0, 0x7c0
800004b0: 952e         	add	a0, a0, a1
800004b2: 4589         	li	a1, 0x2
800004b4: 00003097     	auipc	ra, 0x3
800004b8: 5f4080e7     	jalr	0x5f4(ra) <core::sync::atomic::AtomicU64::load::h310be17d02a28ae1>
800004bc: f0aa         	sd	a0, 0x60(sp)
800004be: 6562         	ld	a0, 0x18(sp)
800004c0: 4591         	li	a1, 0x4
800004c2: 00b56d63     	bltu	a0, a1, 0x800004dc <.Lpcrel_hi19+0x12>
800004c6: a0d9         	j	0x8000058c <.Lpcrel_hi21+0x1c>
800004c8: 6562         	ld	a0, 0x18(sp)

00000000800004ca <.Lpcrel_hi19>:
800004ca: 00005597     	auipc	a1, 0x5
800004ce: 02658613     	addi	a2, a1, 0x26
800004d2: 4591         	li	a1, 0x4
800004d4: 00004097     	auipc	ra, 0x4
800004d8: 712080e7     	jalr	0x712(ra) <core::panicking::panic_bounds_check::h6aaee0d15e0261eb>
800004dc: 6562         	ld	a0, 0x18(sp)
800004de: 00351593     	slli	a1, a0, 0x3

00000000800004e2 <.Lpcrel_hi20>:
800004e2: 00006517     	auipc	a0, 0x6
800004e6: 76650513     	addi	a0, a0, 0x766
800004ea: 952e         	add	a0, a0, a1
800004ec: 4589         	li	a1, 0x2
800004ee: 00003097     	auipc	ra, 0x3
800004f2: 5ba080e7     	jalr	0x5ba(ra) <core::sync::atomic::AtomicU64::load::h310be17d02a28ae1>
800004f6: f4aa         	sd	a0, 0x68(sp)
800004f8: 0828         	addi	a0, sp, 0x18
800004fa: f82a         	sd	a0, 0x30(sp)
800004fc: 1008         	addi	a0, sp, 0x20
800004fe: fc2a         	sd	a0, 0x38(sp)
80000500: 08a8         	addi	a0, sp, 0x58
80000502: e0aa         	sd	a0, 0x40(sp)
80000504: 1088         	addi	a0, sp, 0x60
80000506: e4aa         	sd	a0, 0x48(sp)
80000508: 10a8         	addi	a0, sp, 0x68
8000050a: e8aa         	sd	a0, 0x50(sp)
8000050c: 75c2         	ld	a1, 0x30(sp)
8000050e: 0188         	addi	a0, sp, 0xc0
80000510: 00003097     	auipc	ra, 0x3
80000514: a4e080e7     	jalr	-0x5b2(ra) <core::fmt::rt::Argument::new_display::hf39fee7a07297fe8>
80000518: 75e2         	ld	a1, 0x38(sp)
8000051a: 0988         	addi	a0, sp, 0xd0
8000051c: 00003097     	auipc	ra, 0x3
80000520: 9fe080e7     	jalr	-0x602(ra) <core::fmt::rt::Argument::new_display::h54aaa8f47c7175a2>
80000524: 6586         	ld	a1, 0x40(sp)
80000526: 1188         	addi	a0, sp, 0xe0
80000528: 00003097     	auipc	ra, 0x3
8000052c: 9f2080e7     	jalr	-0x60e(ra) <core::fmt::rt::Argument::new_display::h54aaa8f47c7175a2>
80000530: 65a6         	ld	a1, 0x48(sp)
80000532: 1988         	addi	a0, sp, 0xf0
80000534: 00003097     	auipc	ra, 0x3
80000538: 9e6080e7     	jalr	-0x61a(ra) <core::fmt::rt::Argument::new_display::h54aaa8f47c7175a2>
8000053c: 65c6         	ld	a1, 0x50(sp)
8000053e: 0208         	addi	a0, sp, 0x100
80000540: 00003097     	auipc	ra, 0x3
80000544: 9da080e7     	jalr	-0x626(ra) <core::fmt::rt::Argument::new_display::h54aaa8f47c7175a2>
80000548: 652e         	ld	a0, 0xc8(sp)
8000054a: fcaa         	sd	a0, 0x78(sp)
8000054c: 650e         	ld	a0, 0xc0(sp)
8000054e: f8aa         	sd	a0, 0x70(sp)
80000550: 656e         	ld	a0, 0xd8(sp)
80000552: e52a         	sd	a0, 0x88(sp)
80000554: 654e         	ld	a0, 0xd0(sp)
80000556: e12a         	sd	a0, 0x80(sp)
80000558: 752e         	ld	a0, 0xe8(sp)
8000055a: ed2a         	sd	a0, 0x98(sp)
8000055c: 750e         	ld	a0, 0xe0(sp)
8000055e: e92a         	sd	a0, 0x90(sp)
80000560: 756e         	ld	a0, 0xf8(sp)
80000562: f52a         	sd	a0, 0xa8(sp)
80000564: 754e         	ld	a0, 0xf0(sp)
80000566: f12a         	sd	a0, 0xa0(sp)
80000568: 6532         	ld	a0, 0x108(sp)
8000056a: fd2a         	sd	a0, 0xb8(sp)
8000056c: 6512         	ld	a0, 0x100(sp)
8000056e: f92a         	sd	a0, 0xb0(sp)

0000000080000570 <.Lpcrel_hi21>:
80000570: 00005517     	auipc	a0, 0x5
80000574: c0550513     	addi	a0, a0, -0x3fb
80000578: 188c         	addi	a1, sp, 0x70
8000057a: 00003097     	auipc	ra, 0x3
8000057e: 606080e7     	jalr	0x606(ra) <core::fmt::Arguments::new::h166d0964d35a5e50>
80000582: 00003097     	auipc	ra, 0x3
80000586: b86080e7     	jalr	-0x47a(ra) <lab5_kernel_task4::console::print::hbed2e8a51f9bf136>
8000058a: bd7d         	j	0x80000448 <.Lpcrel_hi14+0x10>
8000058c: 6562         	ld	a0, 0x18(sp)

000000008000058e <.Lpcrel_hi22>:
8000058e: 00005597     	auipc	a1, 0x5
80000592: f7a58613     	addi	a2, a1, -0x86
80000596: 4591         	li	a1, 0x4
80000598: 00004097     	auipc	ra, 0x4
8000059c: 64e080e7     	jalr	0x64e(ra) <core::panicking::panic_bounds_check::h6aaee0d15e0261eb>
800005a0: 6522         	ld	a0, 0x8(sp)
800005a2: ea2a         	sd	a0, 0x110(sp)
800005a4: 6562         	ld	a0, 0x18(sp)
800005a6: 4591         	li	a1, 0x4
800005a8: 00b56b63     	bltu	a0, a1, 0x800005be <.Lpcrel_hi23+0x10>
800005ac: a825         	j	0x800005e4 <.Lpcrel_hi24+0x20>

00000000800005ae <.Lpcrel_hi23>:
800005ae: 00005517     	auipc	a0, 0x5
800005b2: f7250513     	addi	a0, a0, -0x8e
800005b6: 00004097     	auipc	ra, 0x4
800005ba: 5b8080e7     	jalr	0x5b8(ra) <core::panicking::panic_const::panic_const_add_overflow::h67cba067093910f8>
800005be: 6562         	ld	a0, 0x18(sp)
800005c0: 00351593     	slli	a1, a0, 0x3

00000000800005c4 <.Lpcrel_hi24>:
800005c4: 00006517     	auipc	a0, 0x6
800005c8: 5c450513     	addi	a0, a0, 0x5c4
800005cc: 952e         	add	a0, a0, a1
800005ce: 4589         	li	a1, 0x2
800005d0: 00003097     	auipc	ra, 0x3
800005d4: 4d8080e7     	jalr	0x4d8(ra) <core::sync::atomic::AtomicU64::load::h310be17d02a28ae1>
800005d8: eaaa         	sd	a0, 0x150(sp)
800005da: 6562         	ld	a0, 0x18(sp)
800005dc: 4591         	li	a1, 0x4
800005de: 00b56d63     	bltu	a0, a1, 0x800005f8 <.Lpcrel_hi25+0x12>
800005e2: a835         	j	0x8000061e <.Lpcrel_hi26+0x20>
800005e4: 6562         	ld	a0, 0x18(sp)

00000000800005e6 <.Lpcrel_hi25>:
800005e6: 00005597     	auipc	a1, 0x5
800005ea: f5258613     	addi	a2, a1, -0xae
800005ee: 4591         	li	a1, 0x4
800005f0: 00004097     	auipc	ra, 0x4
800005f4: 5f6080e7     	jalr	0x5f6(ra) <core::panicking::panic_bounds_check::h6aaee0d15e0261eb>
800005f8: 6562         	ld	a0, 0x18(sp)
800005fa: 00351593     	slli	a1, a0, 0x3

00000000800005fe <.Lpcrel_hi26>:
800005fe: 00006517     	auipc	a0, 0x6
80000602: 66a50513     	addi	a0, a0, 0x66a
80000606: 952e         	add	a0, a0, a1
80000608: 4589         	li	a1, 0x2
8000060a: 00003097     	auipc	ra, 0x3
8000060e: 49e080e7     	jalr	0x49e(ra) <core::sync::atomic::AtomicU64::load::h310be17d02a28ae1>
80000612: eeaa         	sd	a0, 0x158(sp)
80000614: 6562         	ld	a0, 0x18(sp)
80000616: 4591         	li	a1, 0x4
80000618: 00b56d63     	bltu	a0, a1, 0x80000632 <.Lpcrel_hi27+0x12>
8000061c: aa21         	j	0x80000734 <.Lpcrel_hi30+0x26>
8000061e: 6562         	ld	a0, 0x18(sp)

0000000080000620 <.Lpcrel_hi27>:
80000620: 00005597     	auipc	a1, 0x5
80000624: f3058613     	addi	a2, a1, -0xd0
80000628: 4591         	li	a1, 0x4
8000062a: 00004097     	auipc	ra, 0x4
8000062e: 5bc080e7     	jalr	0x5bc(ra) <core::panicking::panic_bounds_check::h6aaee0d15e0261eb>
80000632: 6562         	ld	a0, 0x18(sp)
80000634: 00351593     	slli	a1, a0, 0x3

0000000080000638 <.Lpcrel_hi28>:
80000638: 00006517     	auipc	a0, 0x6
8000063c: 61050513     	addi	a0, a0, 0x610
80000640: 952e         	add	a0, a0, a1
80000642: 4589         	li	a1, 0x2
80000644: 00003097     	auipc	ra, 0x3
80000648: 464080e7     	jalr	0x464(ra) <core::sync::atomic::AtomicU64::load::h310be17d02a28ae1>
8000064c: f2aa         	sd	a0, 0x160(sp)
8000064e: 0828         	addi	a0, sp, 0x18
80000650: ee2a         	sd	a0, 0x118(sp)
80000652: 1008         	addi	a0, sp, 0x20
80000654: f22a         	sd	a0, 0x120(sp)
80000656: 0a88         	addi	a0, sp, 0x150
80000658: f62a         	sd	a0, 0x128(sp)
8000065a: 0aa8         	addi	a0, sp, 0x158
8000065c: fa2a         	sd	a0, 0x130(sp)
8000065e: 1288         	addi	a0, sp, 0x160
80000660: fe2a         	sd	a0, 0x138(sp)
80000662: 0a08         	addi	a0, sp, 0x110
80000664: e2aa         	sd	a0, 0x140(sp)

0000000080000666 <.Lpcrel_hi29>:
80000666: 00005517     	auipc	a0, 0x5
8000066a: 80a50513     	addi	a0, a0, -0x7f6
8000066e: e6aa         	sd	a0, 0x148(sp)
80000670: 65f2         	ld	a1, 0x118(sp)
80000672: 0ba8         	addi	a0, sp, 0x1d8
80000674: 00003097     	auipc	ra, 0x3
80000678: 8ea080e7     	jalr	-0x716(ra) <core::fmt::rt::Argument::new_display::hf39fee7a07297fe8>
8000067c: 7592         	ld	a1, 0x120(sp)
8000067e: 13a8         	addi	a0, sp, 0x1e8
80000680: 00003097     	auipc	ra, 0x3
80000684: 89a080e7     	jalr	-0x766(ra) <core::fmt::rt::Argument::new_display::h54aaa8f47c7175a2>
80000688: 75b2         	ld	a1, 0x128(sp)
8000068a: 1ba8         	addi	a0, sp, 0x1f8
8000068c: 00003097     	auipc	ra, 0x3
80000690: 88e080e7     	jalr	-0x772(ra) <core::fmt::rt::Argument::new_display::h54aaa8f47c7175a2>
80000694: 75d2         	ld	a1, 0x130(sp)
80000696: 0428         	addi	a0, sp, 0x208
80000698: 00003097     	auipc	ra, 0x3
8000069c: 882080e7     	jalr	-0x77e(ra) <core::fmt::rt::Argument::new_display::h54aaa8f47c7175a2>
800006a0: 75f2         	ld	a1, 0x138(sp)
800006a2: 0c28         	addi	a0, sp, 0x218
800006a4: 00003097     	auipc	ra, 0x3
800006a8: 876080e7     	jalr	-0x78a(ra) <core::fmt::rt::Argument::new_display::h54aaa8f47c7175a2>
800006ac: 6596         	ld	a1, 0x140(sp)
800006ae: 1428         	addi	a0, sp, 0x228
800006b0: 00003097     	auipc	ra, 0x3
800006b4: 8ae080e7     	jalr	-0x752(ra) <core::fmt::rt::Argument::new_display::hf39fee7a07297fe8>
800006b8: 65b6         	ld	a1, 0x148(sp)
800006ba: 1c28         	addi	a0, sp, 0x238
800006bc: 00003097     	auipc	ra, 0x3
800006c0: 8a2080e7     	jalr	-0x75e(ra) <core::fmt::rt::Argument::new_display::hf39fee7a07297fe8>
800006c4: 751e         	ld	a0, 0x1e0(sp)
800006c6: faaa         	sd	a0, 0x170(sp)
800006c8: 657e         	ld	a0, 0x1d8(sp)
800006ca: f6aa         	sd	a0, 0x168(sp)
800006cc: 755e         	ld	a0, 0x1f0(sp)
800006ce: e32a         	sd	a0, 0x180(sp)
800006d0: 753e         	ld	a0, 0x1e8(sp)
800006d2: feaa         	sd	a0, 0x178(sp)
800006d4: 20013503     	ld	a0, 0x200(sp)
800006d8: eb2a         	sd	a0, 0x190(sp)
800006da: 757e         	ld	a0, 0x1f8(sp)
800006dc: e72a         	sd	a0, 0x188(sp)
800006de: 21013503     	ld	a0, 0x210(sp)
800006e2: f32a         	sd	a0, 0x1a0(sp)
800006e4: 20813503     	ld	a0, 0x208(sp)
800006e8: ef2a         	sd	a0, 0x198(sp)
800006ea: 22013503     	ld	a0, 0x220(sp)
800006ee: fb2a         	sd	a0, 0x1b0(sp)
800006f0: 21813503     	ld	a0, 0x218(sp)
800006f4: f72a         	sd	a0, 0x1a8(sp)
800006f6: 23013503     	ld	a0, 0x230(sp)
800006fa: e3aa         	sd	a0, 0x1c0(sp)
800006fc: 22813503     	ld	a0, 0x228(sp)
80000700: ff2a         	sd	a0, 0x1b8(sp)
80000702: 24013503     	ld	a0, 0x240(sp)
80000706: ebaa         	sd	a0, 0x1d0(sp)
80000708: 23813503     	ld	a0, 0x238(sp)
8000070c: e7aa         	sd	a0, 0x1c8(sp)

000000008000070e <.Lpcrel_hi30>:
8000070e: 00005517     	auipc	a0, 0x5
80000712: ac250513     	addi	a0, a0, -0x53e
80000716: 12ac         	addi	a1, sp, 0x168
80000718: 00003097     	auipc	ra, 0x3
8000071c: 4a4080e7     	jalr	0x4a4(ra) <core::fmt::Arguments::new::haf88e00cad676ea6>
80000720: 00003097     	auipc	ra, 0x3
80000724: 9e8080e7     	jalr	-0x618(ra) <lab5_kernel_task4::console::print::hbed2e8a51f9bf136>
80000728: 6552         	ld	a0, 0x110(sp)
8000072a: 4591         	li	a1, 0x4
8000072c: 02b50a63     	beq	a0, a1, 0x80000760 <.Lpcrel_hi33>
80000730: a009         	j	0x80000732 <.Lpcrel_hi30+0x24>
80000732: a819         	j	0x80000748 <.Lpcrel_hi32>
80000734: 6562         	ld	a0, 0x18(sp)

0000000080000736 <.Lpcrel_hi31>:
80000736: 00005597     	auipc	a1, 0x5
8000073a: e3258613     	addi	a2, a1, -0x1ce
8000073e: 4591         	li	a1, 0x4
80000740: 00004097     	auipc	ra, 0x4
80000744: 4a6080e7     	jalr	0x4a6(ra) <core::panicking::panic_bounds_check::h6aaee0d15e0261eb>

0000000080000748 <.Lpcrel_hi32>:
80000748: 00006517     	auipc	a0, 0x6
8000074c: 56050513     	addi	a0, a0, 0x560
80000750: 4589         	li	a1, 0x2
80000752: 00003097     	auipc	ra, 0x3
80000756: fb0080e7     	jalr	-0x50(ra) <core::sync::atomic::AtomicBool::load::h77ebd9d5a9aba964>
8000075a: c10d         	beqz	a0, 0x8000077c <.Lpcrel_hi33+0x1c>
8000075c: a009         	j	0x8000075e <.Lpcrel_hi32+0x16>
8000075e: a015         	j	0x80000782 <.Lpcrel_hi33+0x22>

0000000080000760 <.Lpcrel_hi33>:
80000760: 00006517     	auipc	a0, 0x6
80000764: 54850513     	addi	a0, a0, 0x548
80000768: 4605         	li	a2, 0x1
8000076a: 85b2         	mv	a1, a2
8000076c: 00003097     	auipc	ra, 0x3
80000770: 190080e7     	jalr	0x190(ra) <core::sync::atomic::AtomicBool::store::hfb6122fe2021251c>
80000774: 00000097     	auipc	ra, 0x0
80000778: 34c080e7     	jalr	0x34c(ra) <lab5_kernel_task4::print_summary_and_exit::hf93ad409906bc12a>
8000077c: 0100000f     	fence	w, 0
80000780: b7e1         	j	0x80000748 <.Lpcrel_hi32>
80000782: 0100000f     	fence	w, 0
80000786: bff5         	j	0x80000782 <.Lpcrel_hi33+0x22>

0000000080000788 <lab5_kernel_task4::read_mhartid::h414b22debd9c6a7c>:
80000788: 1141         	addi	sp, sp, -0x10
8000078a: f1402573     	csrr	a0, mhartid
8000078e: e42a         	sd	a0, 0x8(sp)
80000790: 6522         	ld	a0, 0x8(sp)
80000792: 0141         	addi	sp, sp, 0x10
80000794: 8082         	ret

0000000080000796 <lab5_kernel_task4::configure_pmp::hd9c2b6560f7e1365>:
80000796: 557d         	li	a0, -0x1
80000798: 8109         	srli	a0, a0, 0x2
8000079a: 3b051073     	csrw	pmpaddr0, a0
8000079e: 457d         	li	a0, 0x1f
800007a0: 3a051073     	csrw	pmpcfg0, a0
800007a4: 8082         	ret

00000000800007a6 <lab5_kernel_task4::mtimecmp_addr::hf0337fb3d0365304>:
800007a6: 1101         	addi	sp, sp, -0x20
800007a8: 85aa         	mv	a1, a0
800007aa: ec2e         	sd	a1, 0x18(sp)
800007ac: 00359513     	slli	a0, a1, 0x3
800007b0: e82a         	sd	a0, 0x10(sp)
800007b2: 810d         	srli	a0, a0, 0x3
800007b4: 00b51b63     	bne	a0, a1, 0x800007ca <.Lpcrel_hi34>
800007b8: a009         	j	0x800007ba <lab5_kernel_task4::mtimecmp_addr::hf0337fb3d0365304+0x14>
800007ba: 6542         	ld	a0, 0x10(sp)
800007bc: 020045b7     	lui	a1, 0x2004
800007c0: 952e         	add	a0, a0, a1
800007c2: e42a         	sd	a0, 0x8(sp)
800007c4: 00b56e63     	bltu	a0, a1, 0x800007e0 <.Lpcrel_hi35>
800007c8: a809         	j	0x800007da <.Lpcrel_hi34+0x10>

00000000800007ca <.Lpcrel_hi34>:
800007ca: 00005517     	auipc	a0, 0x5
800007ce: db650513     	addi	a0, a0, -0x24a
800007d2: 00004097     	auipc	ra, 0x4
800007d6: 3ba080e7     	jalr	0x3ba(ra) <core::panicking::panic_const::panic_const_mul_overflow::h67897feae7531d51>
800007da: 6522         	ld	a0, 0x8(sp)
800007dc: 6105         	addi	sp, sp, 0x20
800007de: 8082         	ret

00000000800007e0 <.Lpcrel_hi35>:
800007e0: 00005517     	auipc	a0, 0x5
800007e4: db850513     	addi	a0, a0, -0x248
800007e8: 00004097     	auipc	ra, 0x4
800007ec: 386080e7     	jalr	0x386(ra) <core::panicking::panic_const::panic_const_add_overflow::h67cba067093910f8>

00000000800007f0 <lab5_kernel_task4::update_min_sp::h8ed22371aec4a97b>:
800007f0: 715d         	addi	sp, sp, -0x50
800007f2: e486         	sd	ra, 0x48(sp)
800007f4: e42e         	sd	a1, 0x8(sp)
800007f6: e82a         	sd	a0, 0x10(sp)
800007f8: f82a         	sd	a0, 0x30(sp)
800007fa: fc2e         	sd	a1, 0x38(sp)
800007fc: 4589         	li	a1, 0x2
800007fe: 00003097     	auipc	ra, 0x3
80000802: 13a080e7     	jalr	0x13a(ra) <core::sync::atomic::AtomicUsize::load::hfa451401d719484c>
80000806: ec2a         	sd	a0, 0x18(sp)
80000808: a009         	j	0x8000080a <lab5_kernel_task4::update_min_sp::h8ed22371aec4a97b+0x1a>
8000080a: 6522         	ld	a0, 0x8(sp)
8000080c: 65e2         	ld	a1, 0x18(sp)
8000080e: 00b56663     	bltu	a0, a1, 0x8000081a <lab5_kernel_task4::update_min_sp::h8ed22371aec4a97b+0x2a>
80000812: a009         	j	0x80000814 <lab5_kernel_task4::update_min_sp::h8ed22371aec4a97b+0x24>
80000814: 60a6         	ld	ra, 0x48(sp)
80000816: 6161         	addi	sp, sp, 0x50
80000818: 8082         	ret
8000081a: 6622         	ld	a2, 0x8(sp)
8000081c: 6542         	ld	a0, 0x10(sp)
8000081e: 65e2         	ld	a1, 0x18(sp)
80000820: 468d         	li	a3, 0x3
80000822: 4709         	li	a4, 0x2
80000824: 00003097     	auipc	ra, 0x3
80000828: 0f4080e7     	jalr	0xf4(ra) <core::sync::atomic::AtomicUsize::compare_exchange_weak::ha4d59ece13352772>
8000082c: f02a         	sd	a0, 0x20(sp)
8000082e: f42e         	sd	a1, 0x28(sp)
80000830: 7502         	ld	a0, 0x20(sp)
80000832: 8905         	andi	a0, a0, 0x1
80000834: d165         	beqz	a0, 0x80000814 <lab5_kernel_task4::update_min_sp::h8ed22371aec4a97b+0x24>
80000836: a009         	j	0x80000838 <lab5_kernel_task4::update_min_sp::h8ed22371aec4a97b+0x48>
80000838: 7522         	ld	a0, 0x28(sp)
8000083a: e0aa         	sd	a0, 0x40(sp)
8000083c: ec2a         	sd	a0, 0x18(sp)
8000083e: b7f1         	j	0x8000080a <lab5_kernel_task4::update_min_sp::h8ed22371aec4a97b+0x1a>

0000000080000840 <lab5_kernel_task4::hold_lock_until::h8b6412f6859009a2>:
80000840: 1101         	addi	sp, sp, -0x20
80000842: ec06         	sd	ra, 0x18(sp)
80000844: e42a         	sd	a0, 0x8(sp)
80000846: e82a         	sd	a0, 0x10(sp)
80000848: a009         	j	0x8000084a <lab5_kernel_task4::hold_lock_until::h8b6412f6859009a2+0xa>
8000084a: 00000097     	auipc	ra, 0x0
8000084e: a88080e7     	jalr	-0x578(ra) <lab5_kernel_task4::read_mtime::h08d5af7cc6021f0f>
80000852: 65a2         	ld	a1, 0x8(sp)
80000854: 00b56663     	bltu	a0, a1, 0x80000860 <lab5_kernel_task4::hold_lock_until::h8b6412f6859009a2+0x20>
80000858: a009         	j	0x8000085a <lab5_kernel_task4::hold_lock_until::h8b6412f6859009a2+0x1a>
8000085a: 60e2         	ld	ra, 0x18(sp)
8000085c: 6105         	addi	sp, sp, 0x20
8000085e: 8082         	ret
80000860: 0100000f     	fence	w, 0
80000864: b7dd         	j	0x8000084a <lab5_kernel_task4::hold_lock_until::h8b6412f6859009a2+0xa>

0000000080000866 <lab5_kernel_task4::init_trap_vector::h3b4328a90e372b7d>:
80000866: fffff517     	auipc	a0, 0xfffff
8000086a: 7fa50513     	addi	a0, a0, 0x7fa
8000086e: 30551073     	csrw	mtvec, a0
80000872: 8082         	ret

0000000080000874 <lab5_kernel_task4::SharedKernelState::empty::h35e63c02a8c87a0b>:
80000874: 85aa         	mv	a1, a0
80000876: 4501         	li	a0, 0x0
80000878: e188         	sd	a0, 0x0(a1)
8000087a: e588         	sd	a0, 0x8(a1)
8000087c: e988         	sd	a0, 0x10(a1)
8000087e: 8082         	ret

0000000080000880 <lab5_kernel_task4::enable_fp_context::h67993584fccf5b50>:
80000880: 6519         	lui	a0, 0x6
80000882: 30052073     	csrs	mstatus, a0
80000886: 8082         	ret

0000000080000888 <lab5_kernel_task4::interrupt_stack_top::ha1d336ff1adfaea7>:
80000888: 1101         	addi	sp, sp, -0x20
8000088a: 85aa         	mv	a1, a0
8000088c: e42e         	sd	a1, 0x8(sp)
8000088e: 00d59513     	slli	a0, a1, 0xd
80000892: e02a         	sd	a0, 0x0(sp)
80000894: 8135         	srli	a0, a0, 0xd
80000896: 00b51d63     	bne	a0, a1, 0x800008b0 <.Lpcrel_hi38>
8000089a: a009         	j	0x8000089c <lab5_kernel_task4::interrupt_stack_top::ha1d336ff1adfaea7+0x14>
8000089c: 6582         	ld	a1, 0x0(sp)

000000008000089e <.Lpcrel_hi37>:
8000089e: 0001e517     	auipc	a0, 0x1e
800008a2: 45250513     	addi	a0, a0, 0x452
800008a6: e82a         	sd	a0, 0x10(sp)
800008a8: ec2e         	sd	a1, 0x18(sp)
800008aa: 8d0d         	sub	a0, a0, a1
800008ac: 6105         	addi	sp, sp, 0x20
800008ae: 8082         	ret

00000000800008b0 <.Lpcrel_hi38>:
800008b0: 00005517     	auipc	a0, 0x5
800008b4: d0050513     	addi	a0, a0, -0x300
800008b8: 00004097     	auipc	ra, 0x4
800008bc: 2d4080e7     	jalr	0x2d4(ra) <core::panicking::panic_const::panic_const_mul_overflow::h67897feae7531d51>

00000000800008c0 <lab5_kernel_task4::mark_hart_initialized::h98966dd537f3df54>:
800008c0: 7179         	addi	sp, sp, -0x30
800008c2: f406         	sd	ra, 0x28(sp)
800008c4: 85aa         	mv	a1, a0
800008c6: ec2e         	sd	a1, 0x18(sp)
800008c8: f02e         	sd	a1, 0x20(sp)
800008ca: 450d         	li	a0, 0x3
800008cc: 02b56563     	bltu	a0, a1, 0x800008f6 <.Lpcrel_hi39+0x22>
800008d0: a009         	j	0x800008d2 <lab5_kernel_task4::mark_hart_initialized::h98966dd537f3df54+0x12>
800008d2: 65e2         	ld	a1, 0x18(sp)

00000000800008d4 <.Lpcrel_hi39>:
800008d4: 00006517     	auipc	a0, 0x6
800008d8: 31c50513     	addi	a0, a0, 0x31c
800008dc: 952e         	add	a0, a0, a1
800008de: 4605         	li	a2, 0x1
800008e0: 85b2         	mv	a1, a2
800008e2: 00003097     	auipc	ra, 0x3
800008e6: 01a080e7     	jalr	0x1a(ra) <core::sync::atomic::AtomicBool::store::hfb6122fe2021251c>
800008ea: 6562         	ld	a0, 0x18(sp)
800008ec: 04000593     	li	a1, 0x40
800008f0: 00b56d63     	bltu	a0, a1, 0x8000090a <.Lpcrel_hi40+0x12>
800008f4: a899         	j	0x8000094a <.Lpcrel_hi43>
800008f6: 6562         	ld	a0, 0x18(sp)

00000000800008f8 <.Lpcrel_hi40>:
800008f8: 00005597     	auipc	a1, 0x5
800008fc: cd058613     	addi	a2, a1, -0x330
80000900: 4591         	li	a1, 0x4
80000902: 00004097     	auipc	ra, 0x4
80000906: 2e4080e7     	jalr	0x2e4(ra) <core::panicking::panic_bounds_check::h6aaee0d15e0261eb>
8000090a: 65e2         	ld	a1, 0x18(sp)
8000090c: 4505         	li	a0, 0x1
8000090e: e02a         	sd	a0, 0x0(sp)
80000910: 00b515b3     	sll	a1, a0, a1

0000000080000914 <.Lpcrel_hi41>:
80000914: 00006517     	auipc	a0, 0x6
80000918: 29450513     	addi	a0, a0, 0x294
8000091c: 460d         	li	a2, 0x3
8000091e: e432         	sd	a2, 0x8(sp)
80000920: 00003097     	auipc	ra, 0x3
80000924: 0b4080e7     	jalr	0xb4(ra) <core::sync::atomic::AtomicUsize::fetch_or::hf5bbf1f521f8d4e7>
80000928: 6582         	ld	a1, 0x0(sp)
8000092a: 6622         	ld	a2, 0x8(sp)

000000008000092c <.Lpcrel_hi42>:
8000092c: 00006517     	auipc	a0, 0x6
80000930: 28450513     	addi	a0, a0, 0x284
80000934: 00003097     	auipc	ra, 0x3
80000938: 10a080e7     	jalr	0x10a(ra) <core::sync::atomic::AtomicUsize::fetch_add::h54f54c5ec52624d9>
8000093c: 85aa         	mv	a1, a0
8000093e: 00158513     	addi	a0, a1, 0x1
80000942: e82a         	sd	a0, 0x10(sp)
80000944: 00b56f63     	bltu	a0, a1, 0x80000962 <.Lpcrel_hi44>
80000948: a809         	j	0x8000095a <.Lpcrel_hi43+0x10>

000000008000094a <.Lpcrel_hi43>:
8000094a: 00005517     	auipc	a0, 0x5
8000094e: c9650513     	addi	a0, a0, -0x36a
80000952: 00004097     	auipc	ra, 0x4
80000956: 258080e7     	jalr	0x258(ra) <core::panicking::panic_const::panic_const_shl_overflow::h801c58e583f44244>
8000095a: 6542         	ld	a0, 0x10(sp)
8000095c: 70a2         	ld	ra, 0x28(sp)
8000095e: 6145         	addi	sp, sp, 0x30
80000960: 8082         	ret

0000000080000962 <.Lpcrel_hi44>:
80000962: 00005517     	auipc	a0, 0x5
80000966: c9650513     	addi	a0, a0, -0x36a
8000096a: 00004097     	auipc	ra, 0x4
8000096e: 204080e7     	jalr	0x204(ra) <core::panicking::panic_const::panic_const_add_overflow::h67cba067093910f8>

0000000080000972 <lab5_kernel_task4::handle_timer_interrupt::hf15e546fffb92eea>:
80000972: 715d         	addi	sp, sp, -0x50
80000974: e486         	sd	ra, 0x48(sp)
80000976: ec2a         	sd	a0, 0x18(sp)
80000978: f02a         	sd	a0, 0x20(sp)
8000097a: 00000097     	auipc	ra, 0x0
8000097e: 958080e7     	jalr	-0x6a8(ra) <lab5_kernel_task4::read_mtime::h08d5af7cc6021f0f>
80000982: 85aa         	mv	a1, a0
80000984: 6562         	ld	a0, 0x18(sp)
80000986: f42e         	sd	a1, 0x28(sp)
80000988: 00001097     	auipc	ra, 0x1
8000098c: db4080e7     	jalr	-0x24c(ra) <lab5_kernel_task4::arm_next_timer_interrupt::h1ce996f3962f2f9c>
80000990: 65e2         	ld	a1, 0x18(sp)
80000992: 450d         	li	a0, 0x3
80000994: 02b56863     	bltu	a0, a1, 0x800009c4 <.Lpcrel_hi45+0x24>
80000998: a009         	j	0x8000099a <lab5_kernel_task4::handle_timer_interrupt::hf15e546fffb92eea+0x28>
8000099a: 6562         	ld	a0, 0x18(sp)
8000099c: 00351593     	slli	a1, a0, 0x3

00000000800009a0 <.Lpcrel_hi45>:
800009a0: 00006517     	auipc	a0, 0x6
800009a4: 1e850513     	addi	a0, a0, 0x1e8
800009a8: 952e         	add	a0, a0, a1
800009aa: 4585         	li	a1, 0x1
800009ac: 460d         	li	a2, 0x3
800009ae: 00003097     	auipc	ra, 0x3
800009b2: 12c080e7     	jalr	0x12c(ra) <core::sync::atomic::AtomicU64::fetch_add::hd6a13c485f746a90>
800009b6: 85aa         	mv	a1, a0
800009b8: 00158513     	addi	a0, a1, 0x1
800009bc: e82a         	sd	a0, 0x10(sp)
800009be: 02b56263     	bltu	a0, a1, 0x800009e2 <.Lpcrel_hi47>
800009c2: a819         	j	0x800009d8 <.Lpcrel_hi46+0x12>
800009c4: 6562         	ld	a0, 0x18(sp)

00000000800009c6 <.Lpcrel_hi46>:
800009c6: 00005597     	auipc	a1, 0x5
800009ca: c4a58613     	addi	a2, a1, -0x3b6
800009ce: 4591         	li	a1, 0x4
800009d0: 00004097     	auipc	ra, 0x4
800009d4: 216080e7     	jalr	0x216(ra) <core::panicking::panic_bounds_check::h6aaee0d15e0261eb>
800009d8: 6542         	ld	a0, 0x10(sp)
800009da: f82a         	sd	a0, 0x30(sp)
800009dc: 8905         	andi	a0, a0, 0x1
800009de: cd09         	beqz	a0, 0x800009f8 <.Lpcrel_hi47+0x16>
800009e0: a809         	j	0x800009f2 <.Lpcrel_hi47+0x10>

00000000800009e2 <.Lpcrel_hi47>:
800009e2: 00005517     	auipc	a0, 0x5
800009e6: c2e50513     	addi	a0, a0, -0x3d2
800009ea: 00004097     	auipc	ra, 0x4
800009ee: 184080e7     	jalr	0x184(ra) <core::panicking::panic_const::panic_const_add_overflow::h67cba067093910f8>
800009f2: 60a6         	ld	ra, 0x48(sp)
800009f4: 6161         	addi	sp, sp, 0x50
800009f6: 8082         	ret
800009f8: 65e2         	ld	a1, 0x18(sp)
800009fa: 450d         	li	a0, 0x3
800009fc: 02b56563     	bltu	a0, a1, 0x80000a26 <.Lpcrel_hi48+0x1e>
80000a00: a009         	j	0x80000a02 <.Lpcrel_hi47+0x20>
80000a02: 6562         	ld	a0, 0x18(sp)
80000a04: 00351593     	slli	a1, a0, 0x3

0000000080000a08 <.Lpcrel_hi48>:
80000a08: 00006517     	auipc	a0, 0x6
80000a0c: 28050513     	addi	a0, a0, 0x280
80000a10: 952e         	add	a0, a0, a1
80000a12: 4589         	li	a1, 0x2
80000a14: 00003097     	auipc	ra, 0x3
80000a18: 094080e7     	jalr	0x94(ra) <core::sync::atomic::AtomicU64::load::h310be17d02a28ae1>
80000a1c: fc2a         	sd	a0, 0x38(sp)
80000a1e: 4599         	li	a1, 0x6
80000a20: 00b56d63     	bltu	a0, a1, 0x80000a3a <.Lpcrel_hi49+0x12>
80000a24: b7f9         	j	0x800009f2 <.Lpcrel_hi47+0x10>
80000a26: 6562         	ld	a0, 0x18(sp)

0000000080000a28 <.Lpcrel_hi49>:
80000a28: 00005597     	auipc	a1, 0x5
80000a2c: c0058613     	addi	a2, a1, -0x400
80000a30: 4591         	li	a1, 0x4
80000a32: 00004097     	auipc	ra, 0x4
80000a36: 1b4080e7     	jalr	0x1b4(ra) <core::panicking::panic_bounds_check::h6aaee0d15e0261eb>
80000a3a: 65e2         	ld	a1, 0x18(sp)
80000a3c: 00158513     	addi	a0, a1, 0x1
80000a40: e42a         	sd	a0, 0x8(sp)
80000a42: 00b56f63     	bltu	a0, a1, 0x80000a60 <.Lpcrel_hi50>
80000a46: a009         	j	0x80000a48 <.Lpcrel_hi49+0x20>
80000a48: 6522         	ld	a0, 0x8(sp)
80000a4a: 890d         	andi	a0, a0, 0x3
80000a4c: e0aa         	sd	a0, 0x40(sp)
80000a4e: 00001097     	auipc	ra, 0x1
80000a52: e26080e7     	jalr	-0x1da(ra) <lab5_kernel_task4::send_ipi::h17ec896e3b603fa0>
80000a56: 6562         	ld	a0, 0x18(sp)
80000a58: 4591         	li	a1, 0x4
80000a5a: 00b56b63     	bltu	a0, a1, 0x80000a70 <.Lpcrel_hi50+0x10>
80000a5e: a805         	j	0x80000a8e <.Lpcrel_hi51+0x18>

0000000080000a60 <.Lpcrel_hi50>:
80000a60: 00005517     	auipc	a0, 0x5
80000a64: be050513     	addi	a0, a0, -0x420
80000a68: 00004097     	auipc	ra, 0x4
80000a6c: 106080e7     	jalr	0x106(ra) <core::panicking::panic_const::panic_const_add_overflow::h67cba067093910f8>
80000a70: 6562         	ld	a0, 0x18(sp)
80000a72: 00351593     	slli	a1, a0, 0x3

0000000080000a76 <.Lpcrel_hi51>:
80000a76: 00006517     	auipc	a0, 0x6
80000a7a: 21250513     	addi	a0, a0, 0x212
80000a7e: 952e         	add	a0, a0, a1
80000a80: 4585         	li	a1, 0x1
80000a82: 460d         	li	a2, 0x3
80000a84: 00003097     	auipc	ra, 0x3
80000a88: 056080e7     	jalr	0x56(ra) <core::sync::atomic::AtomicU64::fetch_add::hd6a13c485f746a90>
80000a8c: b79d         	j	0x800009f2 <.Lpcrel_hi47+0x10>
80000a8e: 6562         	ld	a0, 0x18(sp)

0000000080000a90 <.Lpcrel_hi52>:
80000a90: 00005597     	auipc	a1, 0x5
80000a94: bc858613     	addi	a2, a1, -0x438
80000a98: 4591         	li	a1, 0x4
80000a9a: 00004097     	auipc	ra, 0x4
80000a9e: 14c080e7     	jalr	0x14c(ra) <core::panicking::panic_bounds_check::h6aaee0d15e0261eb>

0000000080000aa2 <lab5_kernel_task4::interrupt_stack_bottom::hbc3e86cc90396003>:
80000aa2: 1101         	addi	sp, sp, -0x20
80000aa4: ec06         	sd	ra, 0x18(sp)
80000aa6: e02a         	sd	a0, 0x0(sp)
80000aa8: 00000097     	auipc	ra, 0x0
80000aac: de0080e7     	jalr	-0x220(ra) <lab5_kernel_task4::interrupt_stack_top::ha1d336ff1adfaea7>
80000ab0: e42a         	sd	a0, 0x8(sp)
80000ab2: 6589         	lui	a1, 0x2
80000ab4: e82e         	sd	a1, 0x10(sp)
80000ab6: 75f9         	lui	a1, 0xffffe
80000ab8: 952e         	add	a0, a0, a1
80000aba: 60e2         	ld	ra, 0x18(sp)
80000abc: 6105         	addi	sp, sp, 0x20
80000abe: 8082         	ret

0000000080000ac0 <lab5_kernel_task4::print_summary_and_exit::hf93ad409906bc12a>:
80000ac0: b1010113     	addi	sp, sp, -0x4f0
80000ac4: 4e113423     	sd	ra, 0x4e8(sp)

0000000080000ac8 <.Lpcrel_hi53>:
80000ac8: 00006517     	auipc	a0, 0x6
80000acc: 0f050513     	addi	a0, a0, 0xf0
80000ad0: f42a         	sd	a0, 0x28(sp)
80000ad2: 00001097     	auipc	ra, 0x1
80000ad6: 6fe080e7     	jalr	0x6fe(ra) <lab5_kernel_task4::spinlock::SpinLock$LT$T$GT$::lock::h2b7ae71d77c12c87>
80000ada: ecaa         	sd	a0, 0x58(sp)
80000adc: 08a8         	addi	a0, sp, 0x58
80000ade: ec2a         	sd	a0, 0x18(sp)
80000ae0: 00002097     	auipc	ra, 0x2
80000ae4: 830080e7     	jalr	-0x7d0(ra) <_$LT$lab5_kernel_task4..spinlock..SpinLockGuard$LT$T$GT$$u20$as$u20$core..ops..deref..Deref$GT$::deref::h5799ba4cd87e6252>
80000ae8: 85aa         	mv	a1, a0
80000aea: 6562         	ld	a0, 0x18(sp)
80000aec: 6990         	ld	a2, 0x10(a1)
80000aee: e8b2         	sd	a2, 0x50(sp)
80000af0: 6590         	ld	a2, 0x8(a1)
80000af2: e4b2         	sd	a2, 0x48(sp)
80000af4: 618c         	ld	a1, 0x0(a1)
80000af6: e0ae         	sd	a1, 0x40(sp)
80000af8: 00ac         	addi	a1, sp, 0x48
80000afa: f02e         	sd	a1, 0x20(sp)
80000afc: 00003097     	auipc	ra, 0x3
80000b00: 23c080e7     	jalr	0x23c(ra) <core::ptr::drop_in_place$LT$lab5_kernel_task4..spinlock..SpinLockGuard$LT$lab5_kernel_task4..SharedKernelState$GT$$GT$::hcc8f7eeda4fcb118>

0000000080000b04 <.Lpcrel_hi54>:
80000b04: 00006517     	auipc	a0, 0x6
80000b08: 0ac50513     	addi	a0, a0, 0xac
80000b0c: 4589         	li	a1, 0x2
80000b0e: fc2e         	sd	a1, 0x38(sp)
80000b10: 00003097     	auipc	ra, 0x3
80000b14: e28080e7     	jalr	-0x1d8(ra) <core::sync::atomic::AtomicUsize::load::hfa451401d719484c>
80000b18: 75e2         	ld	a1, 0x38(sp)
80000b1a: e52a         	sd	a0, 0x88(sp)

0000000080000b1c <.Lpcrel_hi55>:
80000b1c: 00006517     	auipc	a0, 0x6
80000b20: 08c50513     	addi	a0, a0, 0x8c
80000b24: 00003097     	auipc	ra, 0x3
80000b28: e14080e7     	jalr	-0x1ec(ra) <core::sync::atomic::AtomicUsize::load::hfa451401d719484c>
80000b2c: 75e2         	ld	a1, 0x38(sp)
80000b2e: e92a         	sd	a0, 0x90(sp)

0000000080000b30 <.Lpcrel_hi56>:
80000b30: 00006517     	auipc	a0, 0x6
80000b34: 0b850513     	addi	a0, a0, 0xb8
80000b38: 00003097     	auipc	ra, 0x3
80000b3c: e00080e7     	jalr	-0x200(ra) <core::sync::atomic::AtomicUsize::load::hfa451401d719484c>
80000b40: 85aa         	mv	a1, a0
80000b42: 7502         	ld	a0, 0x20(sp)
80000b44: ed2e         	sd	a1, 0x98(sp)
80000b46: 012c         	addi	a1, sp, 0x88
80000b48: f0ae         	sd	a1, 0x60(sp)
80000b4a: 090c         	addi	a1, sp, 0x90
80000b4c: f4ae         	sd	a1, 0x68(sp)
80000b4e: 092c         	addi	a1, sp, 0x98
80000b50: f8ae         	sd	a1, 0x70(sp)
80000b52: 008c         	addi	a1, sp, 0x40
80000b54: fcae         	sd	a1, 0x78(sp)
80000b56: e12a         	sd	a0, 0x80(sp)
80000b58: 7586         	ld	a1, 0x60(sp)
80000b5a: 1988         	addi	a0, sp, 0xf0
80000b5c: 00002097     	auipc	ra, 0x2
80000b60: 402080e7     	jalr	0x402(ra) <core::fmt::rt::Argument::new_display::hf39fee7a07297fe8>
80000b64: 75a6         	ld	a1, 0x68(sp)
80000b66: 0208         	addi	a0, sp, 0x100
80000b68: 00002097     	auipc	ra, 0x2
80000b6c: 43a080e7     	jalr	0x43a(ra) <core::fmt::rt::Argument::new_lower_hex::he3e4b83e741bf983>
80000b70: 75c6         	ld	a1, 0x70(sp)
80000b72: 0a08         	addi	a0, sp, 0x110
80000b74: 00002097     	auipc	ra, 0x2
80000b78: 3ea080e7     	jalr	0x3ea(ra) <core::fmt::rt::Argument::new_display::hf39fee7a07297fe8>
80000b7c: 75e6         	ld	a1, 0x78(sp)
80000b7e: 1208         	addi	a0, sp, 0x120
80000b80: 00002097     	auipc	ra, 0x2
80000b84: 39a080e7     	jalr	0x39a(ra) <core::fmt::rt::Argument::new_display::h54aaa8f47c7175a2>
80000b88: 658a         	ld	a1, 0x80(sp)
80000b8a: 1a08         	addi	a0, sp, 0x130
80000b8c: 00002097     	auipc	ra, 0x2
80000b90: 3f4080e7     	jalr	0x3f4(ra) <core::fmt::rt::Argument::new_lower_hex::hcc0dfd77f7b7645b>
80000b94: 756e         	ld	a0, 0xf8(sp)
80000b96: f52a         	sd	a0, 0xa8(sp)
80000b98: 754e         	ld	a0, 0xf0(sp)
80000b9a: f12a         	sd	a0, 0xa0(sp)
80000b9c: 6532         	ld	a0, 0x108(sp)
80000b9e: fd2a         	sd	a0, 0xb8(sp)
80000ba0: 6512         	ld	a0, 0x100(sp)
80000ba2: f92a         	sd	a0, 0xb0(sp)
80000ba4: 6572         	ld	a0, 0x118(sp)
80000ba6: e5aa         	sd	a0, 0xc8(sp)
80000ba8: 6552         	ld	a0, 0x110(sp)
80000baa: e1aa         	sd	a0, 0xc0(sp)
80000bac: 7532         	ld	a0, 0x128(sp)
80000bae: edaa         	sd	a0, 0xd8(sp)
80000bb0: 7512         	ld	a0, 0x120(sp)
80000bb2: e9aa         	sd	a0, 0xd0(sp)
80000bb4: 7572         	ld	a0, 0x138(sp)
80000bb6: f5aa         	sd	a0, 0xe8(sp)
80000bb8: 7552         	ld	a0, 0x130(sp)
80000bba: f1aa         	sd	a0, 0xe0(sp)

0000000080000bbc <.Lpcrel_hi57>:
80000bbc: 00005517     	auipc	a0, 0x5
80000bc0: ab450513     	addi	a0, a0, -0x54c
80000bc4: 110c         	addi	a1, sp, 0xa0
80000bc6: 00003097     	auipc	ra, 0x3
80000bca: 00a080e7     	jalr	0xa(ra) <core::fmt::Arguments::new::hd1e7325709272331>
80000bce: 00002097     	auipc	ra, 0x2
80000bd2: 53a080e7     	jalr	0x53a(ra) <lab5_kernel_task4::console::print::hbed2e8a51f9bf136>
80000bd6: 7522         	ld	a0, 0x28(sp)
80000bd8: 00001097     	auipc	ra, 0x1
80000bdc: 5ca080e7     	jalr	0x5ca(ra) <lab5_kernel_task4::spinlock::SpinLock$LT$T$GT$::acquisitions::h72b7876cf5f4ec31>
80000be0: 85aa         	mv	a1, a0
80000be2: 7522         	ld	a0, 0x28(sp)
80000be4: eeae         	sd	a1, 0x158(sp)
80000be6: 00001097     	auipc	ra, 0x1
80000bea: 5d2080e7     	jalr	0x5d2(ra) <lab5_kernel_task4::spinlock::SpinLock$LT$T$GT$::contention_spins::h13e27446fce71da4>
80000bee: 75e2         	ld	a1, 0x38(sp)
80000bf0: f2aa         	sd	a0, 0x160(sp)

0000000080000bf2 <.Lpcrel_hi58>:
80000bf2: 00006517     	auipc	a0, 0x6
80000bf6: 04e50513     	addi	a0, a0, 0x4e
80000bfa: f82a         	sd	a0, 0x30(sp)
80000bfc: 00003097     	auipc	ra, 0x3
80000c00: eac080e7     	jalr	-0x154(ra) <core::sync::atomic::AtomicU64::load::h310be17d02a28ae1>
80000c04: f6aa         	sd	a0, 0x168(sp)
80000c06: 0aa8         	addi	a0, sp, 0x158
80000c08: e2aa         	sd	a0, 0x140(sp)
80000c0a: 1288         	addi	a0, sp, 0x160
80000c0c: e6aa         	sd	a0, 0x148(sp)
80000c0e: 12a8         	addi	a0, sp, 0x168
80000c10: eaaa         	sd	a0, 0x150(sp)
80000c12: 6596         	ld	a1, 0x140(sp)
80000c14: 1308         	addi	a0, sp, 0x1a0
80000c16: 00002097     	auipc	ra, 0x2
80000c1a: 304080e7     	jalr	0x304(ra) <core::fmt::rt::Argument::new_display::h54aaa8f47c7175a2>
80000c1e: 65b6         	ld	a1, 0x148(sp)
80000c20: 1b08         	addi	a0, sp, 0x1b0
80000c22: 00002097     	auipc	ra, 0x2
80000c26: 2f8080e7     	jalr	0x2f8(ra) <core::fmt::rt::Argument::new_display::h54aaa8f47c7175a2>
80000c2a: 65d6         	ld	a1, 0x150(sp)
80000c2c: 0388         	addi	a0, sp, 0x1c0
80000c2e: 00002097     	auipc	ra, 0x2
80000c32: 2ec080e7     	jalr	0x2ec(ra) <core::fmt::rt::Argument::new_display::h54aaa8f47c7175a2>
80000c36: 753a         	ld	a0, 0x1a8(sp)
80000c38: feaa         	sd	a0, 0x178(sp)
80000c3a: 751a         	ld	a0, 0x1a0(sp)
80000c3c: faaa         	sd	a0, 0x170(sp)
80000c3e: 757a         	ld	a0, 0x1b8(sp)
80000c40: e72a         	sd	a0, 0x188(sp)
80000c42: 755a         	ld	a0, 0x1b0(sp)
80000c44: e32a         	sd	a0, 0x180(sp)
80000c46: 653e         	ld	a0, 0x1c8(sp)
80000c48: ef2a         	sd	a0, 0x198(sp)
80000c4a: 651e         	ld	a0, 0x1c0(sp)
80000c4c: eb2a         	sd	a0, 0x190(sp)

0000000080000c4e <.Lpcrel_hi59>:
80000c4e: 00004517     	auipc	a0, 0x4
80000c52: 28a50513     	addi	a0, a0, 0x28a
80000c56: 1a8c         	addi	a1, sp, 0x170
80000c58: 00003097     	auipc	ra, 0x3
80000c5c: f46080e7     	jalr	-0xba(ra) <core::fmt::Arguments::new::h64a5b45f8125a42e>
80000c60: 00002097     	auipc	ra, 0x2
80000c64: 4a8080e7     	jalr	0x4a8(ra) <lab5_kernel_task4::console::print::hbed2e8a51f9bf136>
80000c68: 7542         	ld	a0, 0x30(sp)
80000c6a: 75e2         	ld	a1, 0x38(sp)
80000c6c: 4605         	li	a2, 0x1
80000c6e: 1cc10a23     	sb	a2, 0x1d4(sp)
80000c72: 1cc10aa3     	sb	a2, 0x1d5(sp)
80000c76: 00003097     	auipc	ra, 0x3
80000c7a: e32080e7     	jalr	-0x1ce(ra) <core::sync::atomic::AtomicU64::load::h310be17d02a28ae1>
80000c7e: 00153513     	seqz	a0, a0
80000c82: 1ca10b23     	sb	a0, 0x1d6(sp)
80000c86: 4501         	li	a0, 0x0
80000c88: 1ca10ba3     	sb	a0, 0x1d7(sp)
80000c8c: 4591         	li	a1, 0x4
80000c8e: 00002097     	auipc	ra, 0x2
80000c92: 202080e7     	jalr	0x202(ra) <_$LT$I$u20$as$u20$core..iter..traits..collect..IntoIterator$GT$::into_iter::h2cebf03328cd003f>
80000c96: efaa         	sd	a0, 0x1d8(sp)
80000c98: f3ae         	sd	a1, 0x1e0(sp)
80000c9a: a009         	j	0x80000c9c <.Lpcrel_hi59+0x4e>
80000c9c: 0ba8         	addi	a0, sp, 0x1d8
80000c9e: 00002097     	auipc	ra, 0x2
80000ca2: 1de080e7     	jalr	0x1de(ra) <core::iter::range::_$LT$impl$u20$core..iter..traits..iterator..Iterator$u20$for$u20$core..ops..range..Range$LT$A$GT$$GT$::next::h4b8b6bdb7de4b87e>
80000ca6: f7aa         	sd	a0, 0x1e8(sp)
80000ca8: fbae         	sd	a1, 0x1f0(sp)
80000caa: 753e         	ld	a0, 0x1e8(sp)
80000cac: 8905         	andi	a0, a0, 0x1
80000cae: c909         	beqz	a0, 0x80000cc0 <.Lpcrel_hi60>
80000cb0: a009         	j	0x80000cb2 <.Lpcrel_hi59+0x64>
80000cb2: 755e         	ld	a0, 0x1f0(sp)
80000cb4: ffaa         	sd	a0, 0x1f8(sp)
80000cb6: 757e         	ld	a0, 0x1f8(sp)
80000cb8: 4591         	li	a1, 0x4
80000cba: 14b56563     	bltu	a0, a1, 0x80000e04 <.Lpcrel_hi63+0x4c>
80000cbe: a2bd         	j	0x80000e2c <.Lpcrel_hi64+0x22>

0000000080000cc0 <.Lpcrel_hi60>:
80000cc0: 00006517     	auipc	a0, 0x6
80000cc4: ef050513     	addi	a0, a0, -0x110
80000cc8: 4589         	li	a1, 0x2
80000cca: 00003097     	auipc	ra, 0x3
80000cce: c6e080e7     	jalr	-0x392(ra) <core::sync::atomic::AtomicUsize::load::hfa451401d719484c>
80000cd2: 4591         	li	a1, 0x4
80000cd4: 00b50763     	beq	a0, a1, 0x80000ce2 <.Lpcrel_hi61>
80000cd8: a009         	j	0x80000cda <.Lpcrel_hi60+0x1a>
80000cda: 4501         	li	a0, 0x0
80000cdc: 46a10723     	sb	a0, 0x46e(sp)
80000ce0: a01d         	j	0x80000d06 <.Lpcrel_hi61+0x24>

0000000080000ce2 <.Lpcrel_hi61>:
80000ce2: 00006517     	auipc	a0, 0x6
80000ce6: f0650513     	addi	a0, a0, -0xfa
80000cea: 4589         	li	a1, 0x2
80000cec: 00003097     	auipc	ra, 0x3
80000cf0: c4c080e7     	jalr	-0x3b4(ra) <core::sync::atomic::AtomicUsize::load::hfa451401d719484c>
80000cf4: 4591         	li	a1, 0x4
80000cf6: feb512e3     	bne	a0, a1, 0x80000cda <.Lpcrel_hi60+0x1a>
80000cfa: a009         	j	0x80000cfc <.Lpcrel_hi61+0x1a>
80000cfc: 1d514503     	lbu	a0, 0x1d5(sp)
80000d00: 46a10723     	sb	a0, 0x46e(sp)
80000d04: a009         	j	0x80000d06 <.Lpcrel_hi61+0x24>
80000d06: 1d414503     	lbu	a0, 0x1d4(sp)
80000d0a: 8905         	andi	a0, a0, 0x1
80000d0c: e511         	bnez	a0, 0x80000d18 <.Lpcrel_hi61+0x36>
80000d0e: a009         	j	0x80000d10 <.Lpcrel_hi61+0x2e>
80000d10: 4501         	li	a0, 0x0
80000d12: 46a107a3     	sb	a0, 0x46f(sp)
80000d16: a819         	j	0x80000d2c <.Lpcrel_hi61+0x4a>
80000d18: 1d614503     	lbu	a0, 0x1d6(sp)
80000d1c: 8905         	andi	a0, a0, 0x1
80000d1e: d96d         	beqz	a0, 0x80000d10 <.Lpcrel_hi61+0x2e>
80000d20: a009         	j	0x80000d22 <.Lpcrel_hi61+0x40>
80000d22: 1d714503     	lbu	a0, 0x1d7(sp)
80000d26: 46a107a3     	sb	a0, 0x46f(sp)
80000d2a: a009         	j	0x80000d2c <.Lpcrel_hi61+0x4a>
80000d2c: 46e14503     	lbu	a0, 0x46e(sp)
80000d30: 00001097     	auipc	ra, 0x1
80000d34: ed4080e7     	jalr	-0x12c(ra) <lab5_kernel_task4::pass_fail::h9f16e09ca53497a4>
80000d38: 46a13823     	sd	a0, 0x470(sp)
80000d3c: 46b13c23     	sd	a1, 0x478(sp)
80000d40: 47010593     	addi	a1, sp, 0x470
80000d44: 4cb13c23     	sd	a1, 0x4d8(sp)
80000d48: 49010513     	addi	a0, sp, 0x490
80000d4c: 00002097     	auipc	ra, 0x2
80000d50: 1ac080e7     	jalr	0x1ac(ra) <core::fmt::rt::Argument::new_display::h21f9a99fdf9004a6>
80000d54: 49813503     	ld	a0, 0x498(sp)
80000d58: 48a13423     	sd	a0, 0x488(sp)
80000d5c: 49013503     	ld	a0, 0x490(sp)
80000d60: 48a13023     	sd	a0, 0x480(sp)

0000000080000d64 <.Lpcrel_hi62>:
80000d64: 00004517     	auipc	a0, 0x4
80000d68: 69850513     	addi	a0, a0, 0x698
80000d6c: 48010593     	addi	a1, sp, 0x480
80000d70: 00003097     	auipc	ra, 0x3
80000d74: df2080e7     	jalr	-0x20e(ra) <core::fmt::Arguments::new::h0083889655e8d11b>
80000d78: 00002097     	auipc	ra, 0x2
80000d7c: 390080e7     	jalr	0x390(ra) <lab5_kernel_task4::console::print::hbed2e8a51f9bf136>
80000d80: 46f14503     	lbu	a0, 0x46f(sp)
80000d84: 00001097     	auipc	ra, 0x1
80000d88: e80080e7     	jalr	-0x180(ra) <lab5_kernel_task4::pass_fail::h9f16e09ca53497a4>
80000d8c: 4aa13023     	sd	a0, 0x4a0(sp)
80000d90: 4ab13423     	sd	a1, 0x4a8(sp)
80000d94: 4a010593     	addi	a1, sp, 0x4a0
80000d98: 4eb13023     	sd	a1, 0x4e0(sp)
80000d9c: 4c010513     	addi	a0, sp, 0x4c0
80000da0: 00002097     	auipc	ra, 0x2
80000da4: 158080e7     	jalr	0x158(ra) <core::fmt::rt::Argument::new_display::h21f9a99fdf9004a6>
80000da8: 4c813503     	ld	a0, 0x4c8(sp)
80000dac: 4aa13c23     	sd	a0, 0x4b8(sp)
80000db0: 4c013503     	ld	a0, 0x4c0(sp)
80000db4: 4aa13823     	sd	a0, 0x4b0(sp)

0000000080000db8 <.Lpcrel_hi63>:
80000db8: 00004517     	auipc	a0, 0x4
80000dbc: 22a50513     	addi	a0, a0, 0x22a
80000dc0: 4b010593     	addi	a1, sp, 0x4b0
80000dc4: 00003097     	auipc	ra, 0x3
80000dc8: e16080e7     	jalr	-0x1ea(ra) <core::fmt::Arguments::new::hd25380b51e8629a6>
80000dcc: 00002097     	auipc	ra, 0x2
80000dd0: 33c080e7     	jalr	0x33c(ra) <lab5_kernel_task4::console::print::hbed2e8a51f9bf136>
80000dd4: 46e14503     	lbu	a0, 0x46e(sp)
80000dd8: 8905         	andi	a0, a0, 0x1
80000dda: e511         	bnez	a0, 0x80000de6 <.Lpcrel_hi63+0x2e>
80000ddc: a009         	j	0x80000dde <.Lpcrel_hi63+0x26>
80000dde: 4505         	li	a0, 0x1
80000de0: 4ca12a23     	sw	a0, 0x4d4(sp)
80000de4: a811         	j	0x80000df8 <.Lpcrel_hi63+0x40>
80000de6: 46f14503     	lbu	a0, 0x46f(sp)
80000dea: 8905         	andi	a0, a0, 0x1
80000dec: d96d         	beqz	a0, 0x80000dde <.Lpcrel_hi63+0x26>
80000dee: a009         	j	0x80000df0 <.Lpcrel_hi63+0x38>
80000df0: 4501         	li	a0, 0x0
80000df2: 4ca12a23     	sw	a0, 0x4d4(sp)
80000df6: a009         	j	0x80000df8 <.Lpcrel_hi63+0x40>
80000df8: 4d412503     	lw	a0, 0x4d4(sp)
80000dfc: 00001097     	auipc	ra, 0x1
80000e00: e3a080e7     	jalr	-0x1c6(ra) <lab5_kernel_task4::qemu_exit::hdb22927d276c8649>
80000e04: 757e         	ld	a0, 0x1f8(sp)
80000e06: 00351593     	slli	a1, a0, 0x3

0000000080000e0a <.Lpcrel_hi64>:
80000e0a: 00006517     	auipc	a0, 0x6
80000e0e: d7e50513     	addi	a0, a0, -0x282
80000e12: 952e         	add	a0, a0, a1
80000e14: 4589         	li	a1, 0x2
80000e16: 00003097     	auipc	ra, 0x3
80000e1a: c92080e7     	jalr	-0x36e(ra) <core::sync::atomic::AtomicU64::load::h310be17d02a28ae1>
80000e1e: 20a13023     	sd	a0, 0x200(sp)
80000e22: 757e         	ld	a0, 0x1f8(sp)
80000e24: 4591         	li	a1, 0x4
80000e26: 00b56d63     	bltu	a0, a1, 0x80000e40 <.Lpcrel_hi65+0x12>
80000e2a: a83d         	j	0x80000e68 <.Lpcrel_hi66+0x22>
80000e2c: 757e         	ld	a0, 0x1f8(sp)

0000000080000e2e <.Lpcrel_hi65>:
80000e2e: 00005597     	auipc	a1, 0x5
80000e32: 8c258613     	addi	a2, a1, -0x73e
80000e36: 4591         	li	a1, 0x4
80000e38: 00004097     	auipc	ra, 0x4
80000e3c: dae080e7     	jalr	-0x252(ra) <core::panicking::panic_bounds_check::h6aaee0d15e0261eb>
80000e40: 757e         	ld	a0, 0x1f8(sp)
80000e42: 00351593     	slli	a1, a0, 0x3

0000000080000e46 <.Lpcrel_hi66>:
80000e46: 00006517     	auipc	a0, 0x6
80000e4a: e2250513     	addi	a0, a0, -0x1de
80000e4e: 952e         	add	a0, a0, a1
80000e50: 4589         	li	a1, 0x2
80000e52: 00003097     	auipc	ra, 0x3
80000e56: c56080e7     	jalr	-0x3aa(ra) <core::sync::atomic::AtomicU64::load::h310be17d02a28ae1>
80000e5a: 20a13423     	sd	a0, 0x208(sp)
80000e5e: 757e         	ld	a0, 0x1f8(sp)
80000e60: 4591         	li	a1, 0x4
80000e62: 00b56d63     	bltu	a0, a1, 0x80000e7c <.Lpcrel_hi67+0x12>
80000e66: a83d         	j	0x80000ea4 <.Lpcrel_hi68+0x22>
80000e68: 757e         	ld	a0, 0x1f8(sp)

0000000080000e6a <.Lpcrel_hi67>:
80000e6a: 00005597     	auipc	a1, 0x5
80000e6e: 89e58613     	addi	a2, a1, -0x762
80000e72: 4591         	li	a1, 0x4
80000e74: 00004097     	auipc	ra, 0x4
80000e78: d72080e7     	jalr	-0x28e(ra) <core::panicking::panic_bounds_check::h6aaee0d15e0261eb>
80000e7c: 757e         	ld	a0, 0x1f8(sp)
80000e7e: 00351593     	slli	a1, a0, 0x3

0000000080000e82 <.Lpcrel_hi68>:
80000e82: 00006517     	auipc	a0, 0x6
80000e86: e0650513     	addi	a0, a0, -0x1fa
80000e8a: 952e         	add	a0, a0, a1
80000e8c: 4589         	li	a1, 0x2
80000e8e: 00003097     	auipc	ra, 0x3
80000e92: c1a080e7     	jalr	-0x3e6(ra) <core::sync::atomic::AtomicU64::load::h310be17d02a28ae1>
80000e96: 20a13823     	sd	a0, 0x210(sp)
80000e9a: 757e         	ld	a0, 0x1f8(sp)
80000e9c: 4591         	li	a1, 0x4
80000e9e: 00b56d63     	bltu	a0, a1, 0x80000eb8 <.Lpcrel_hi69+0x12>
80000ea2: a83d         	j	0x80000ee0 <.Lpcrel_hi70+0x22>
80000ea4: 757e         	ld	a0, 0x1f8(sp)

0000000080000ea6 <.Lpcrel_hi69>:
80000ea6: 00005597     	auipc	a1, 0x5
80000eaa: 87a58613     	addi	a2, a1, -0x786
80000eae: 4591         	li	a1, 0x4
80000eb0: 00004097     	auipc	ra, 0x4
80000eb4: d36080e7     	jalr	-0x2ca(ra) <core::panicking::panic_bounds_check::h6aaee0d15e0261eb>
80000eb8: 757e         	ld	a0, 0x1f8(sp)
80000eba: 00351593     	slli	a1, a0, 0x3

0000000080000ebe <.Lpcrel_hi70>:
80000ebe: 00006517     	auipc	a0, 0x6
80000ec2: d8a50513     	addi	a0, a0, -0x276
80000ec6: 952e         	add	a0, a0, a1
80000ec8: 4589         	li	a1, 0x2
80000eca: 00003097     	auipc	ra, 0x3
80000ece: bde080e7     	jalr	-0x422(ra) <core::sync::atomic::AtomicU64::load::h310be17d02a28ae1>
80000ed2: 20a13c23     	sd	a0, 0x218(sp)
80000ed6: 757e         	ld	a0, 0x1f8(sp)
80000ed8: 4591         	li	a1, 0x4
80000eda: 00b56d63     	bltu	a0, a1, 0x80000ef4 <.Lpcrel_hi71+0x12>
80000ede: a83d         	j	0x80000f1c <.Lpcrel_hi72+0x22>
80000ee0: 757e         	ld	a0, 0x1f8(sp)

0000000080000ee2 <.Lpcrel_hi71>:
80000ee2: 00005597     	auipc	a1, 0x5
80000ee6: 85658613     	addi	a2, a1, -0x7aa
80000eea: 4591         	li	a1, 0x4
80000eec: 00004097     	auipc	ra, 0x4
80000ef0: cfa080e7     	jalr	-0x306(ra) <core::panicking::panic_bounds_check::h6aaee0d15e0261eb>
80000ef4: 757e         	ld	a0, 0x1f8(sp)
80000ef6: 00351593     	slli	a1, a0, 0x3

0000000080000efa <.Lpcrel_hi72>:
80000efa: 00006517     	auipc	a0, 0x6
80000efe: c5e50513     	addi	a0, a0, -0x3a2
80000f02: 952e         	add	a0, a0, a1
80000f04: 4589         	li	a1, 0x2
80000f06: 00003097     	auipc	ra, 0x3
80000f0a: a32080e7     	jalr	-0x5ce(ra) <core::sync::atomic::AtomicUsize::load::hfa451401d719484c>
80000f0e: 22a13023     	sd	a0, 0x220(sp)
80000f12: 757e         	ld	a0, 0x1f8(sp)
80000f14: 4591         	li	a1, 0x4
80000f16: 00b56d63     	bltu	a0, a1, 0x80000f30 <.Lpcrel_hi73+0x12>
80000f1a: a8b1         	j	0x80000f76 <.Lpcrel_hi74+0x40>
80000f1c: 757e         	ld	a0, 0x1f8(sp)

0000000080000f1e <.Lpcrel_hi73>:
80000f1e: 00005597     	auipc	a1, 0x5
80000f22: 83258613     	addi	a2, a1, -0x7ce
80000f26: 4591         	li	a1, 0x4
80000f28: 00004097     	auipc	ra, 0x4
80000f2c: cbe080e7     	jalr	-0x342(ra) <core::panicking::panic_bounds_check::h6aaee0d15e0261eb>
80000f30: 757e         	ld	a0, 0x1f8(sp)
80000f32: 00351593     	slli	a1, a0, 0x3

0000000080000f36 <.Lpcrel_hi74>:
80000f36: 00006517     	auipc	a0, 0x6
80000f3a: cea50513     	addi	a0, a0, -0x316
80000f3e: 952e         	add	a0, a0, a1
80000f40: 4589         	li	a1, 0x2
80000f42: 00003097     	auipc	ra, 0x3
80000f46: 9f6080e7     	jalr	-0x60a(ra) <core::sync::atomic::AtomicUsize::load::hfa451401d719484c>
80000f4a: 22a13423     	sd	a0, 0x228(sp)
80000f4e: 757e         	ld	a0, 0x1f8(sp)
80000f50: 00000097     	auipc	ra, 0x0
80000f54: b52080e7     	jalr	-0x4ae(ra) <lab5_kernel_task4::interrupt_stack_bottom::hbc3e86cc90396003>
80000f58: 22a13823     	sd	a0, 0x230(sp)
80000f5c: 757e         	ld	a0, 0x1f8(sp)
80000f5e: 00000097     	auipc	ra, 0x0
80000f62: 92a080e7     	jalr	-0x6d6(ra) <lab5_kernel_task4::interrupt_stack_top::ha1d336ff1adfaea7>
80000f66: 22a13c23     	sd	a0, 0x238(sp)
80000f6a: 20013583     	ld	a1, 0x200(sp)
80000f6e: 4525         	li	a0, 0x9
80000f70: 02b56163     	bltu	a0, a1, 0x80000f92 <.Lpcrel_hi75+0x1a>
80000f74: a819         	j	0x80000f8a <.Lpcrel_hi75+0x12>
80000f76: 757e         	ld	a0, 0x1f8(sp)

0000000080000f78 <.Lpcrel_hi75>:
80000f78: 00004597     	auipc	a1, 0x4
80000f7c: 7f058613     	addi	a2, a1, 0x7f0
80000f80: 4591         	li	a1, 0x4
80000f82: 00004097     	auipc	ra, 0x4
80000f86: c64080e7     	jalr	-0x39c(ra) <core::panicking::panic_bounds_check::h6aaee0d15e0261eb>
80000f8a: 4501         	li	a0, 0x0
80000f8c: 24a10323     	sb	a0, 0x246(sp)
80000f90: a811         	j	0x80000fa4 <.Lpcrel_hi75+0x2c>
80000f92: 20813503     	ld	a0, 0x208(sp)
80000f96: 00453513     	sltiu	a0, a0, 0x4
80000f9a: 00154513     	xori	a0, a0, 0x1
80000f9e: 24a10323     	sb	a0, 0x246(sp)
80000fa2: a009         	j	0x80000fa4 <.Lpcrel_hi75+0x2c>
80000fa4: 1d514503     	lbu	a0, 0x1d5(sp)
80000fa8: 24614583     	lbu	a1, 0x246(sp)
80000fac: 8d6d         	and	a0, a0, a1
80000fae: 8905         	andi	a0, a0, 0x1
80000fb0: 1ca10aa3     	sb	a0, 0x1d5(sp)
80000fb4: 21813503     	ld	a0, 0x218(sp)
80000fb8: 00a035b3     	snez	a1, a0
80000fbc: 1d714503     	lbu	a0, 0x1d7(sp)
80000fc0: 8d4d         	or	a0, a0, a1
80000fc2: 8905         	andi	a0, a0, 0x1
80000fc4: 1ca10ba3     	sb	a0, 0x1d7(sp)
80000fc8: 22013503     	ld	a0, 0x220(sp)
80000fcc: 23013583     	ld	a1, 0x230(sp)
80000fd0: 00b57763     	bgeu	a0, a1, 0x80000fde <.Lpcrel_hi75+0x66>
80000fd4: a009         	j	0x80000fd6 <.Lpcrel_hi75+0x5e>
80000fd6: 4501         	li	a0, 0x0
80000fd8: 24a103a3     	sb	a0, 0x247(sp)
80000fdc: a811         	j	0x80000ff0 <.Lpcrel_hi75+0x78>
80000fde: 22013503     	ld	a0, 0x220(sp)
80000fe2: 23813583     	ld	a1, 0x238(sp)
80000fe6: 00b53533     	sltu	a0, a0, a1
80000fea: 24a103a3     	sb	a0, 0x247(sp)
80000fee: a009         	j	0x80000ff0 <.Lpcrel_hi75+0x78>
80000ff0: 1d414503     	lbu	a0, 0x1d4(sp)
80000ff4: 24714583     	lbu	a1, 0x247(sp)
80000ff8: 8d6d         	and	a0, a0, a1
80000ffa: 8905         	andi	a0, a0, 0x1
80000ffc: 1ca10a23     	sb	a0, 0x1d4(sp)
80001000: 75fe         	ld	a1, 0x1f8(sp)
80001002: 450d         	li	a0, 0x3
80001004: 02b56a63     	bltu	a0, a1, 0x80001038 <.Lpcrel_hi76+0x2c>
80001008: a009         	j	0x8000100a <.Lpcrel_hi75+0x92>
8000100a: 75fe         	ld	a1, 0x1f8(sp)

000000008000100c <.Lpcrel_hi76>:
8000100c: 00006517     	auipc	a0, 0x6
80001010: c0c50513     	addi	a0, a0, -0x3f4
80001014: 952e         	add	a0, a0, a1
80001016: 4589         	li	a1, 0x2
80001018: 00002097     	auipc	ra, 0x2
8000101c: 6ea080e7     	jalr	0x6ea(ra) <core::sync::atomic::AtomicBool::load::h77ebd9d5a9aba964>
80001020: 00154593     	xori	a1, a0, 0x1
80001024: 1d614503     	lbu	a0, 0x1d6(sp)
80001028: 8d6d         	and	a0, a0, a1
8000102a: 1ca10b23     	sb	a0, 0x1d6(sp)
8000102e: 757e         	ld	a0, 0x1f8(sp)
80001030: 4591         	li	a1, 0x4
80001032: 00b56d63     	bltu	a0, a1, 0x8000104c <.Lpcrel_hi77+0x12>
80001036: a089         	j	0x80001078 <.Lpcrel_hi78+0x2a>
80001038: 757e         	ld	a0, 0x1f8(sp)

000000008000103a <.Lpcrel_hi77>:
8000103a: 00004597     	auipc	a1, 0x4
8000103e: 74658613     	addi	a2, a1, 0x746
80001042: 4591         	li	a1, 0x4
80001044: 00004097     	auipc	ra, 0x4
80001048: ba2080e7     	jalr	-0x45e(ra) <core::panicking::panic_bounds_check::h6aaee0d15e0261eb>
8000104c: 75fe         	ld	a1, 0x1f8(sp)

000000008000104e <.Lpcrel_hi78>:
8000104e: 00006517     	auipc	a0, 0x6
80001052: ba250513     	addi	a0, a0, -0x45e
80001056: 952e         	add	a0, a0, a1
80001058: 4589         	li	a1, 0x2
8000105a: 00002097     	auipc	ra, 0x2
8000105e: 6a8080e7     	jalr	0x6a8(ra) <core::sync::atomic::AtomicBool::load::h77ebd9d5a9aba964>
80001062: fffff097     	auipc	ra, 0xfffff
80001066: 29e080e7     	jalr	0x29e(ra) <lab5_kernel_task4::bool_to_u64::he95085537e2e5daf>
8000106a: 28a13423     	sd	a0, 0x288(sp)
8000106e: 757e         	ld	a0, 0x1f8(sp)
80001070: 4591         	li	a1, 0x4
80001072: 00b56d63     	bltu	a0, a1, 0x8000108c <.Lpcrel_hi79+0x12>
80001076: a83d         	j	0x800010b4 <.Lpcrel_hi80+0x22>
80001078: 757e         	ld	a0, 0x1f8(sp)

000000008000107a <.Lpcrel_hi79>:
8000107a: 00004597     	auipc	a1, 0x4
8000107e: 71e58613     	addi	a2, a1, 0x71e
80001082: 4591         	li	a1, 0x4
80001084: 00004097     	auipc	ra, 0x4
80001088: b62080e7     	jalr	-0x49e(ra) <core::panicking::panic_bounds_check::h6aaee0d15e0261eb>
8000108c: 757e         	ld	a0, 0x1f8(sp)
8000108e: 00351593     	slli	a1, a0, 0x3

0000000080001092 <.Lpcrel_hi80>:
80001092: 00006517     	auipc	a0, 0x6
80001096: b6650513     	addi	a0, a0, -0x49a
8000109a: 952e         	add	a0, a0, a1
8000109c: 4589         	li	a1, 0x2
8000109e: 00003097     	auipc	ra, 0x3
800010a2: a0a080e7     	jalr	-0x5f6(ra) <core::sync::atomic::AtomicU64::load::h310be17d02a28ae1>
800010a6: 28a13823     	sd	a0, 0x290(sp)
800010aa: 757e         	ld	a0, 0x1f8(sp)
800010ac: 4591         	li	a1, 0x4
800010ae: 00b56d63     	bltu	a0, a1, 0x800010c8 <.Lpcrel_hi81+0x12>
800010b2: a4a9         	j	0x800012fc <.Lpcrel_hi84+0x1c>
800010b4: 757e         	ld	a0, 0x1f8(sp)

00000000800010b6 <.Lpcrel_hi81>:
800010b6: 00004597     	auipc	a1, 0x4
800010ba: 6fa58613     	addi	a2, a1, 0x6fa
800010be: 4591         	li	a1, 0x4
800010c0: 00004097     	auipc	ra, 0x4
800010c4: b26080e7     	jalr	-0x4da(ra) <core::panicking::panic_bounds_check::h6aaee0d15e0261eb>
800010c8: 757e         	ld	a0, 0x1f8(sp)
800010ca: 00351593     	slli	a1, a0, 0x3

00000000800010ce <.Lpcrel_hi82>:
800010ce: 00006517     	auipc	a0, 0x6
800010d2: be250513     	addi	a0, a0, -0x41e
800010d6: 952e         	add	a0, a0, a1
800010d8: 4589         	li	a1, 0x2
800010da: 00003097     	auipc	ra, 0x3
800010de: 9ce080e7     	jalr	-0x632(ra) <core::sync::atomic::AtomicU64::load::h310be17d02a28ae1>
800010e2: 28a13c23     	sd	a0, 0x298(sp)
800010e6: 1ba8         	addi	a0, sp, 0x1f8
800010e8: e82a         	sd	a0, 0x10(sp)
800010ea: 24a13423     	sd	a0, 0x248(sp)
800010ee: 0528         	addi	a0, sp, 0x288
800010f0: 24a13823     	sd	a0, 0x250(sp)
800010f4: 0d08         	addi	a0, sp, 0x290
800010f6: 24a13c23     	sd	a0, 0x258(sp)
800010fa: 0408         	addi	a0, sp, 0x200
800010fc: 26a13023     	sd	a0, 0x260(sp)
80001100: 0c08         	addi	a0, sp, 0x210
80001102: 26a13423     	sd	a0, 0x268(sp)
80001106: 0428         	addi	a0, sp, 0x208
80001108: 26a13823     	sd	a0, 0x270(sp)
8000110c: 0c28         	addi	a0, sp, 0x218
8000110e: 26a13c23     	sd	a0, 0x278(sp)
80001112: 0d28         	addi	a0, sp, 0x298
80001114: 28a13023     	sd	a0, 0x280(sp)
80001118: 24813583     	ld	a1, 0x248(sp)
8000111c: 1608         	addi	a0, sp, 0x320
8000111e: 00002097     	auipc	ra, 0x2
80001122: e40080e7     	jalr	-0x1c0(ra) <core::fmt::rt::Argument::new_display::hf39fee7a07297fe8>
80001126: 25013583     	ld	a1, 0x250(sp)
8000112a: 1e08         	addi	a0, sp, 0x330
8000112c: 00002097     	auipc	ra, 0x2
80001130: dee080e7     	jalr	-0x212(ra) <core::fmt::rt::Argument::new_display::h54aaa8f47c7175a2>
80001134: 25813583     	ld	a1, 0x258(sp)
80001138: 0688         	addi	a0, sp, 0x340
8000113a: 00002097     	auipc	ra, 0x2
8000113e: de0080e7     	jalr	-0x220(ra) <core::fmt::rt::Argument::new_display::h54aaa8f47c7175a2>
80001142: 26013583     	ld	a1, 0x260(sp)
80001146: 0e88         	addi	a0, sp, 0x350
80001148: 00002097     	auipc	ra, 0x2
8000114c: dd2080e7     	jalr	-0x22e(ra) <core::fmt::rt::Argument::new_display::h54aaa8f47c7175a2>
80001150: 26813583     	ld	a1, 0x268(sp)
80001154: 1688         	addi	a0, sp, 0x360
80001156: 00002097     	auipc	ra, 0x2
8000115a: dc4080e7     	jalr	-0x23c(ra) <core::fmt::rt::Argument::new_display::h54aaa8f47c7175a2>
8000115e: 27013583     	ld	a1, 0x270(sp)
80001162: 1e88         	addi	a0, sp, 0x370
80001164: 00002097     	auipc	ra, 0x2
80001168: db6080e7     	jalr	-0x24a(ra) <core::fmt::rt::Argument::new_display::h54aaa8f47c7175a2>
8000116c: 27813583     	ld	a1, 0x278(sp)
80001170: 0708         	addi	a0, sp, 0x380
80001172: 00002097     	auipc	ra, 0x2
80001176: da8080e7     	jalr	-0x258(ra) <core::fmt::rt::Argument::new_display::h54aaa8f47c7175a2>
8000117a: 28013583     	ld	a1, 0x280(sp)
8000117e: 0f08         	addi	a0, sp, 0x390
80001180: 00002097     	auipc	ra, 0x2
80001184: e00080e7     	jalr	-0x200(ra) <core::fmt::rt::Argument::new_lower_hex::hcc0dfd77f7b7645b>
80001188: 32813503     	ld	a0, 0x328(sp)
8000118c: 2aa13423     	sd	a0, 0x2a8(sp)
80001190: 32013503     	ld	a0, 0x320(sp)
80001194: 2aa13023     	sd	a0, 0x2a0(sp)
80001198: 33813503     	ld	a0, 0x338(sp)
8000119c: 2aa13c23     	sd	a0, 0x2b8(sp)
800011a0: 33013503     	ld	a0, 0x330(sp)
800011a4: 2aa13823     	sd	a0, 0x2b0(sp)
800011a8: 34813503     	ld	a0, 0x348(sp)
800011ac: 2ca13423     	sd	a0, 0x2c8(sp)
800011b0: 34013503     	ld	a0, 0x340(sp)
800011b4: 2ca13023     	sd	a0, 0x2c0(sp)
800011b8: 35813503     	ld	a0, 0x358(sp)
800011bc: 2ca13c23     	sd	a0, 0x2d8(sp)
800011c0: 35013503     	ld	a0, 0x350(sp)
800011c4: 2ca13823     	sd	a0, 0x2d0(sp)
800011c8: 36813503     	ld	a0, 0x368(sp)
800011cc: 2ea13423     	sd	a0, 0x2e8(sp)
800011d0: 36013503     	ld	a0, 0x360(sp)
800011d4: 2ea13023     	sd	a0, 0x2e0(sp)
800011d8: 37813503     	ld	a0, 0x378(sp)
800011dc: 2ea13c23     	sd	a0, 0x2f8(sp)
800011e0: 37013503     	ld	a0, 0x370(sp)
800011e4: 2ea13823     	sd	a0, 0x2f0(sp)
800011e8: 38813503     	ld	a0, 0x388(sp)
800011ec: 30a13423     	sd	a0, 0x308(sp)
800011f0: 38013503     	ld	a0, 0x380(sp)
800011f4: 30a13023     	sd	a0, 0x300(sp)
800011f8: 39813503     	ld	a0, 0x398(sp)
800011fc: 30a13c23     	sd	a0, 0x318(sp)
80001200: 39013503     	ld	a0, 0x390(sp)
80001204: 30a13823     	sd	a0, 0x310(sp)

0000000080001208 <.Lpcrel_hi83>:
80001208: 00004517     	auipc	a0, 0x4
8000120c: 5d850513     	addi	a0, a0, 0x5d8
80001210: 150c         	addi	a1, sp, 0x2a0
80001212: 00003097     	auipc	ra, 0x3
80001216: 964080e7     	jalr	-0x69c(ra) <core::fmt::Arguments::new::h153383203666317b>
8000121a: 00002097     	auipc	ra, 0x2
8000121e: eee080e7     	jalr	-0x112(ra) <lab5_kernel_task4::console::print::hbed2e8a51f9bf136>
80001222: 6542         	ld	a0, 0x10(sp)
80001224: 3aa13023     	sd	a0, 0x3a0(sp)
80001228: 1c08         	addi	a0, sp, 0x230
8000122a: 3aa13423     	sd	a0, 0x3a8(sp)
8000122e: 1c28         	addi	a0, sp, 0x238
80001230: 3aa13823     	sd	a0, 0x3b0(sp)
80001234: 1408         	addi	a0, sp, 0x220
80001236: 3aa13c23     	sd	a0, 0x3b8(sp)
8000123a: 1428         	addi	a0, sp, 0x228
8000123c: 3ca13023     	sd	a0, 0x3c0(sp)
80001240: 3a013583     	ld	a1, 0x3a0(sp)
80001244: 41810513     	addi	a0, sp, 0x418
80001248: 00002097     	auipc	ra, 0x2
8000124c: d16080e7     	jalr	-0x2ea(ra) <core::fmt::rt::Argument::new_display::hf39fee7a07297fe8>
80001250: 3a813583     	ld	a1, 0x3a8(sp)
80001254: 42810513     	addi	a0, sp, 0x428
80001258: 00002097     	auipc	ra, 0x2
8000125c: d4a080e7     	jalr	-0x2b6(ra) <core::fmt::rt::Argument::new_lower_hex::he3e4b83e741bf983>
80001260: 3b013583     	ld	a1, 0x3b0(sp)
80001264: 43810513     	addi	a0, sp, 0x438
80001268: 00002097     	auipc	ra, 0x2
8000126c: d3a080e7     	jalr	-0x2c6(ra) <core::fmt::rt::Argument::new_lower_hex::he3e4b83e741bf983>
80001270: 3b813583     	ld	a1, 0x3b8(sp)
80001274: 44810513     	addi	a0, sp, 0x448
80001278: 00002097     	auipc	ra, 0x2
8000127c: d2a080e7     	jalr	-0x2d6(ra) <core::fmt::rt::Argument::new_lower_hex::he3e4b83e741bf983>
80001280: 3c013583     	ld	a1, 0x3c0(sp)
80001284: 45810513     	addi	a0, sp, 0x458
80001288: 00002097     	auipc	ra, 0x2
8000128c: d1a080e7     	jalr	-0x2e6(ra) <core::fmt::rt::Argument::new_lower_hex::he3e4b83e741bf983>
80001290: 42013503     	ld	a0, 0x420(sp)
80001294: 3ca13823     	sd	a0, 0x3d0(sp)
80001298: 41813503     	ld	a0, 0x418(sp)
8000129c: 3ca13423     	sd	a0, 0x3c8(sp)
800012a0: 43013503     	ld	a0, 0x430(sp)
800012a4: 3ea13023     	sd	a0, 0x3e0(sp)
800012a8: 42813503     	ld	a0, 0x428(sp)
800012ac: 3ca13c23     	sd	a0, 0x3d8(sp)
800012b0: 44013503     	ld	a0, 0x440(sp)
800012b4: 3ea13823     	sd	a0, 0x3f0(sp)
800012b8: 43813503     	ld	a0, 0x438(sp)
800012bc: 3ea13423     	sd	a0, 0x3e8(sp)
800012c0: 45013503     	ld	a0, 0x450(sp)
800012c4: 40a13023     	sd	a0, 0x400(sp)
800012c8: 44813503     	ld	a0, 0x448(sp)
800012cc: 3ea13c23     	sd	a0, 0x3f8(sp)
800012d0: 46013503     	ld	a0, 0x460(sp)
800012d4: 40a13823     	sd	a0, 0x410(sp)
800012d8: 45813503     	ld	a0, 0x458(sp)
800012dc: 40a13423     	sd	a0, 0x408(sp)

00000000800012e0 <.Lpcrel_hi84>:
800012e0: 00004517     	auipc	a0, 0x4
800012e4: 58550513     	addi	a0, a0, 0x585
800012e8: 07ac         	addi	a1, sp, 0x3c8
800012ea: 00003097     	auipc	ra, 0x3
800012ee: 8fa080e7     	jalr	-0x706(ra) <core::fmt::Arguments::new::he6c3c5f84d94f2d9>
800012f2: 00002097     	auipc	ra, 0x2
800012f6: e16080e7     	jalr	-0x1ea(ra) <lab5_kernel_task4::console::print::hbed2e8a51f9bf136>
800012fa: b24d         	j	0x80000c9c <.Lpcrel_hi59+0x4e>
800012fc: 757e         	ld	a0, 0x1f8(sp)

00000000800012fe <.Lpcrel_hi85>:
800012fe: 00004597     	auipc	a1, 0x4
80001302: 4ca58613     	addi	a2, a1, 0x4ca
80001306: 4591         	li	a1, 0x4
80001308: 00004097     	auipc	ra, 0x4
8000130c: 8de080e7     	jalr	-0x722(ra) <core::panicking::panic_bounds_check::h6aaee0d15e0261eb>

0000000080001310 <lab5_kernel_task4::record_interrupt_stack::h9acdc87b838cf575>:
80001310: 7179         	addi	sp, sp, -0x30
80001312: f406         	sd	ra, 0x28(sp)
80001314: e42e         	sd	a1, 0x8(sp)
80001316: 85aa         	mv	a1, a0
80001318: 6522         	ld	a0, 0x8(sp)
8000131a: e82e         	sd	a1, 0x10(sp)
8000131c: ec2e         	sd	a1, 0x18(sp)
8000131e: f02a         	sd	a0, 0x20(sp)
80001320: 450d         	li	a0, 0x3
80001322: 02b56663     	bltu	a0, a1, 0x8000134e <.Lpcrel_hi86+0x1e>
80001326: a009         	j	0x80001328 <lab5_kernel_task4::record_interrupt_stack::h9acdc87b838cf575+0x18>
80001328: 6542         	ld	a0, 0x10(sp)
8000132a: 65a2         	ld	a1, 0x8(sp)
8000132c: 00351613     	slli	a2, a0, 0x3

0000000080001330 <.Lpcrel_hi86>:
80001330: 00006517     	auipc	a0, 0x6
80001334: 8f050513     	addi	a0, a0, -0x710
80001338: 9532         	add	a0, a0, a2
8000133a: 4601         	li	a2, 0x0
8000133c: 00002097     	auipc	ra, 0x2
80001340: 67e080e7     	jalr	0x67e(ra) <core::sync::atomic::AtomicUsize::store::h3e1d7199369dca9c>
80001344: 6542         	ld	a0, 0x10(sp)
80001346: 4591         	li	a1, 0x4
80001348: 00b56d63     	bltu	a0, a1, 0x80001362 <.Lpcrel_hi87+0x12>
8000134c: a81d         	j	0x80001382 <.Lpcrel_hi88+0x18>
8000134e: 6542         	ld	a0, 0x10(sp)

0000000080001350 <.Lpcrel_hi87>:
80001350: 00004597     	auipc	a1, 0x4
80001354: 56858613     	addi	a2, a1, 0x568
80001358: 4591         	li	a1, 0x4
8000135a: 00004097     	auipc	ra, 0x4
8000135e: 88c080e7     	jalr	-0x774(ra) <core::panicking::panic_bounds_check::h6aaee0d15e0261eb>
80001362: 65a2         	ld	a1, 0x8(sp)
80001364: 6542         	ld	a0, 0x10(sp)
80001366: 00351613     	slli	a2, a0, 0x3

000000008000136a <.Lpcrel_hi88>:
8000136a: 00005517     	auipc	a0, 0x5
8000136e: 7ee50513     	addi	a0, a0, 0x7ee
80001372: 9532         	add	a0, a0, a2
80001374: fffff097     	auipc	ra, 0xfffff
80001378: 47c080e7     	jalr	0x47c(ra) <lab5_kernel_task4::update_min_sp::h8ed22371aec4a97b>
8000137c: 70a2         	ld	ra, 0x28(sp)
8000137e: 6145         	addi	sp, sp, 0x30
80001380: 8082         	ret
80001382: 6542         	ld	a0, 0x10(sp)

0000000080001384 <.Lpcrel_hi89>:
80001384: 00004597     	auipc	a1, 0x4
80001388: 54c58613     	addi	a2, a1, 0x54c
8000138c: 4591         	li	a1, 0x4
8000138e: 00004097     	auipc	ra, 0x4
80001392: 858080e7     	jalr	-0x7a8(ra) <core::panicking::panic_bounds_check::h6aaee0d15e0261eb>

0000000080001396 <lab5_kernel_task4::initialize_global_state::h84d8dd343f2afb08>:
80001396: 7131         	addi	sp, sp, -0xc0
80001398: fd06         	sd	ra, 0xb8(sp)

000000008000139a <.Lpcrel_hi90>:
8000139a: 00006517     	auipc	a0, 0x6
8000139e: 81650513     	addi	a0, a0, -0x7ea
800013a2: 4601         	li	a2, 0x0
800013a4: f4b2         	sd	a2, 0x68(sp)
800013a6: 85b2         	mv	a1, a2
800013a8: 00002097     	auipc	ra, 0x2
800013ac: 612080e7     	jalr	0x612(ra) <core::sync::atomic::AtomicUsize::store::h3e1d7199369dca9c>
800013b0: 7626         	ld	a2, 0x68(sp)

00000000800013b2 <.Lpcrel_hi91>:
800013b2: 00005517     	auipc	a0, 0x5
800013b6: 7f650513     	addi	a0, a0, 0x7f6
800013ba: 85b2         	mv	a1, a2
800013bc: 00002097     	auipc	ra, 0x2
800013c0: 5fe080e7     	jalr	0x5fe(ra) <core::sync::atomic::AtomicUsize::store::h3e1d7199369dca9c>
800013c4: 7626         	ld	a2, 0x68(sp)

00000000800013c6 <.Lpcrel_hi92>:
800013c6: 00005517     	auipc	a0, 0x5
800013ca: 7ba50513     	addi	a0, a0, 0x7ba
800013ce: 85b2         	mv	a1, a2
800013d0: 00002097     	auipc	ra, 0x2
800013d4: 52c080e7     	jalr	0x52c(ra) <core::sync::atomic::AtomicBool::store::hfb6122fe2021251c>
800013d8: 7626         	ld	a2, 0x68(sp)

00000000800013da <.Lpcrel_hi93>:
800013da: 00006517     	auipc	a0, 0x6
800013de: 80e50513     	addi	a0, a0, -0x7f2
800013e2: 85b2         	mv	a1, a2
800013e4: 00002097     	auipc	ra, 0x2
800013e8: 5d6080e7     	jalr	0x5d6(ra) <core::sync::atomic::AtomicUsize::store::h3e1d7199369dca9c>
800013ec: 7626         	ld	a2, 0x68(sp)

00000000800013ee <.Lpcrel_hi94>:
800013ee: 00006517     	auipc	a0, 0x6
800013f2: 8ba50513     	addi	a0, a0, -0x746
800013f6: 85b2         	mv	a1, a2
800013f8: 00002097     	auipc	ra, 0x2
800013fc: 504080e7     	jalr	0x504(ra) <core::sync::atomic::AtomicBool::store::hfb6122fe2021251c>
80001400: 7626         	ld	a2, 0x68(sp)

0000000080001402 <.Lpcrel_hi95>:
80001402: 00005517     	auipc	a0, 0x5
80001406: 77650513     	addi	a0, a0, 0x776
8000140a: 55fd         	li	a1, -0x1
8000140c: 00002097     	auipc	ra, 0x2
80001410: 5ae080e7     	jalr	0x5ae(ra) <core::sync::atomic::AtomicUsize::store::h3e1d7199369dca9c>
80001414: 7626         	ld	a2, 0x68(sp)

0000000080001416 <.Lpcrel_hi96>:
80001416: 00006517     	auipc	a0, 0x6
8000141a: 82a50513     	addi	a0, a0, -0x7d6
8000141e: 85b2         	mv	a1, a2
80001420: 00002097     	auipc	ra, 0x2
80001424: 6a0080e7     	jalr	0x6a0(ra) <core::sync::atomic::AtomicU64::store::hb2aa4fb5f656f3b7>
80001428: 7526         	ld	a0, 0x68(sp)
8000142a: 4591         	li	a1, 0x4
8000142c: 00002097     	auipc	ra, 0x2
80001430: a64080e7     	jalr	-0x59c(ra) <_$LT$I$u20$as$u20$core..iter..traits..collect..IntoIterator$GT$::into_iter::h2cebf03328cd003f>
80001434: f8aa         	sd	a0, 0x70(sp)
80001436: fcae         	sd	a1, 0x78(sp)
80001438: a009         	j	0x8000143a <.Lpcrel_hi96+0x24>
8000143a: 1888         	addi	a0, sp, 0x70
8000143c: 00002097     	auipc	ra, 0x2
80001440: a40080e7     	jalr	-0x5c0(ra) <core::iter::range::_$LT$impl$u20$core..iter..traits..iterator..Iterator$u20$for$u20$core..ops..range..Range$LT$A$GT$$GT$::next::h4b8b6bdb7de4b87e>
80001444: e12a         	sd	a0, 0x80(sp)
80001446: e52e         	sd	a1, 0x88(sp)
80001448: 650a         	ld	a0, 0x80(sp)
8000144a: 8905         	andi	a0, a0, 0x1
8000144c: c919         	beqz	a0, 0x80001462 <.Lpcrel_hi97>
8000144e: a009         	j	0x80001450 <.Lpcrel_hi96+0x3a>
80001450: 652a         	ld	a0, 0x88(sp)
80001452: ecaa         	sd	a0, 0x58(sp)
80001454: f92a         	sd	a0, 0xb0(sp)
80001456: 4591         	li	a1, 0x4
80001458: 862a         	mv	a2, a0
8000145a: f0b2         	sd	a2, 0x60(sp)
8000145c: 04b56663     	bltu	a0, a1, 0x800014a8 <.Lpcrel_hi97+0x46>
80001460: a0bd         	j	0x800014ce <.Lpcrel_hi98+0x24>

0000000080001462 <.Lpcrel_hi97>:
80001462: 00005517     	auipc	a0, 0x5
80001466: 75650513     	addi	a0, a0, 0x756
8000146a: 00001097     	auipc	ra, 0x1
8000146e: d66080e7     	jalr	-0x29a(ra) <lab5_kernel_task4::spinlock::SpinLock$LT$T$GT$::lock::h2b7ae71d77c12c87>
80001472: e92a         	sd	a0, 0x90(sp)
80001474: 0928         	addi	a0, sp, 0x98
80001476: fffff097     	auipc	ra, 0xfffff
8000147a: 3fe080e7     	jalr	0x3fe(ra) <lab5_kernel_task4::SharedKernelState::empty::h35e63c02a8c87a0b>
8000147e: 0908         	addi	a0, sp, 0x90
80001480: e8aa         	sd	a0, 0x50(sp)
80001482: 00001097     	auipc	ra, 0x1
80001486: ed4080e7     	jalr	-0x12c(ra) <_$LT$lab5_kernel_task4..spinlock..SpinLockGuard$LT$T$GT$$u20$as$u20$core..ops..deref..DerefMut$GT$::deref_mut::h771571a091005672>
8000148a: 862a         	mv	a2, a0
8000148c: 6546         	ld	a0, 0x50(sp)
8000148e: 75aa         	ld	a1, 0xa8(sp)
80001490: ea0c         	sd	a1, 0x10(a2)
80001492: 758a         	ld	a1, 0xa0(sp)
80001494: e60c         	sd	a1, 0x8(a2)
80001496: 65ea         	ld	a1, 0x98(sp)
80001498: e20c         	sd	a1, 0x0(a2)
8000149a: 00003097     	auipc	ra, 0x3
8000149e: 89e080e7     	jalr	-0x762(ra) <core::ptr::drop_in_place$LT$lab5_kernel_task4..spinlock..SpinLockGuard$LT$lab5_kernel_task4..SharedKernelState$GT$$GT$::hcc8f7eeda4fcb118>
800014a2: 70ea         	ld	ra, 0xb8(sp)
800014a4: 6129         	addi	sp, sp, 0xc0
800014a6: 8082         	ret
800014a8: 65e6         	ld	a1, 0x58(sp)

00000000800014aa <.Lpcrel_hi98>:
800014aa: 00005517     	auipc	a0, 0x5
800014ae: 74650513     	addi	a0, a0, 0x746
800014b2: 952e         	add	a0, a0, a1
800014b4: 4601         	li	a2, 0x0
800014b6: 85b2         	mv	a1, a2
800014b8: 00002097     	auipc	ra, 0x2
800014bc: 444080e7     	jalr	0x444(ra) <core::sync::atomic::AtomicBool::store::hfb6122fe2021251c>
800014c0: 6566         	ld	a0, 0x58(sp)
800014c2: 4591         	li	a1, 0x4
800014c4: 862a         	mv	a2, a0
800014c6: e4b2         	sd	a2, 0x48(sp)
800014c8: 00b56d63     	bltu	a0, a1, 0x800014e2 <.Lpcrel_hi99+0x12>
800014cc: a081         	j	0x8000150c <.Lpcrel_hi100+0x24>
800014ce: 7506         	ld	a0, 0x60(sp)

00000000800014d0 <.Lpcrel_hi99>:
800014d0: 00004597     	auipc	a1, 0x4
800014d4: 41858613     	addi	a2, a1, 0x418
800014d8: 4591         	li	a1, 0x4
800014da: 00003097     	auipc	ra, 0x3
800014de: 70c080e7     	jalr	0x70c(ra) <core::panicking::panic_bounds_check::h6aaee0d15e0261eb>
800014e2: 6566         	ld	a0, 0x58(sp)
800014e4: 00351593     	slli	a1, a0, 0x3

00000000800014e8 <.Lpcrel_hi100>:
800014e8: 00005517     	auipc	a0, 0x5
800014ec: 71050513     	addi	a0, a0, 0x710
800014f0: 952e         	add	a0, a0, a1
800014f2: 4601         	li	a2, 0x0
800014f4: 85b2         	mv	a1, a2
800014f6: 00002097     	auipc	ra, 0x2
800014fa: 5ca080e7     	jalr	0x5ca(ra) <core::sync::atomic::AtomicU64::store::hb2aa4fb5f656f3b7>
800014fe: 6566         	ld	a0, 0x58(sp)
80001500: 4591         	li	a1, 0x4
80001502: 862a         	mv	a2, a0
80001504: e0b2         	sd	a2, 0x40(sp)
80001506: 00b56d63     	bltu	a0, a1, 0x80001520 <.Lpcrel_hi101+0x12>
8000150a: a081         	j	0x8000154a <.Lpcrel_hi102+0x24>
8000150c: 6526         	ld	a0, 0x48(sp)

000000008000150e <.Lpcrel_hi101>:
8000150e: 00004597     	auipc	a1, 0x4
80001512: 3f258613     	addi	a2, a1, 0x3f2
80001516: 4591         	li	a1, 0x4
80001518: 00003097     	auipc	ra, 0x3
8000151c: 6ce080e7     	jalr	0x6ce(ra) <core::panicking::panic_bounds_check::h6aaee0d15e0261eb>
80001520: 6566         	ld	a0, 0x58(sp)
80001522: 00351593     	slli	a1, a0, 0x3

0000000080001526 <.Lpcrel_hi102>:
80001526: 00005517     	auipc	a0, 0x5
8000152a: 66250513     	addi	a0, a0, 0x662
8000152e: 952e         	add	a0, a0, a1
80001530: 4601         	li	a2, 0x0
80001532: 85b2         	mv	a1, a2
80001534: 00002097     	auipc	ra, 0x2
80001538: 58c080e7     	jalr	0x58c(ra) <core::sync::atomic::AtomicU64::store::hb2aa4fb5f656f3b7>
8000153c: 6566         	ld	a0, 0x58(sp)
8000153e: 4591         	li	a1, 0x4
80001540: 862a         	mv	a2, a0
80001542: fc32         	sd	a2, 0x38(sp)
80001544: 00b56d63     	bltu	a0, a1, 0x8000155e <.Lpcrel_hi103+0x12>
80001548: a081         	j	0x80001588 <.Lpcrel_hi104+0x24>
8000154a: 6506         	ld	a0, 0x40(sp)

000000008000154c <.Lpcrel_hi103>:
8000154c: 00004597     	auipc	a1, 0x4
80001550: 3cc58613     	addi	a2, a1, 0x3cc
80001554: 4591         	li	a1, 0x4
80001556: 00003097     	auipc	ra, 0x3
8000155a: 690080e7     	jalr	0x690(ra) <core::panicking::panic_bounds_check::h6aaee0d15e0261eb>
8000155e: 6566         	ld	a0, 0x58(sp)
80001560: 00351593     	slli	a1, a0, 0x3

0000000080001564 <.Lpcrel_hi104>:
80001564: 00005517     	auipc	a0, 0x5
80001568: 70450513     	addi	a0, a0, 0x704
8000156c: 952e         	add	a0, a0, a1
8000156e: 4601         	li	a2, 0x0
80001570: 85b2         	mv	a1, a2
80001572: 00002097     	auipc	ra, 0x2
80001576: 54e080e7     	jalr	0x54e(ra) <core::sync::atomic::AtomicU64::store::hb2aa4fb5f656f3b7>
8000157a: 6566         	ld	a0, 0x58(sp)
8000157c: 4591         	li	a1, 0x4
8000157e: 862a         	mv	a2, a0
80001580: f832         	sd	a2, 0x30(sp)
80001582: 00b56d63     	bltu	a0, a1, 0x8000159c <.Lpcrel_hi105+0x12>
80001586: a081         	j	0x800015c6 <.Lpcrel_hi106+0x24>
80001588: 7562         	ld	a0, 0x38(sp)

000000008000158a <.Lpcrel_hi105>:
8000158a: 00004597     	auipc	a1, 0x4
8000158e: 3a658613     	addi	a2, a1, 0x3a6
80001592: 4591         	li	a1, 0x4
80001594: 00003097     	auipc	ra, 0x3
80001598: 652080e7     	jalr	0x652(ra) <core::panicking::panic_bounds_check::h6aaee0d15e0261eb>
8000159c: 6566         	ld	a0, 0x58(sp)
8000159e: 00351593     	slli	a1, a0, 0x3

00000000800015a2 <.Lpcrel_hi106>:
800015a2: 00005517     	auipc	a0, 0x5
800015a6: 6e650513     	addi	a0, a0, 0x6e6
800015aa: 952e         	add	a0, a0, a1
800015ac: 4601         	li	a2, 0x0
800015ae: 85b2         	mv	a1, a2
800015b0: 00002097     	auipc	ra, 0x2
800015b4: 510080e7     	jalr	0x510(ra) <core::sync::atomic::AtomicU64::store::hb2aa4fb5f656f3b7>
800015b8: 6566         	ld	a0, 0x58(sp)
800015ba: 4591         	li	a1, 0x4
800015bc: 862a         	mv	a2, a0
800015be: f432         	sd	a2, 0x28(sp)
800015c0: 00b56d63     	bltu	a0, a1, 0x800015da <.Lpcrel_hi107+0x12>
800015c4: a081         	j	0x80001604 <.Lpcrel_hi108+0x24>
800015c6: 7542         	ld	a0, 0x30(sp)

00000000800015c8 <.Lpcrel_hi107>:
800015c8: 00004597     	auipc	a1, 0x4
800015cc: 38058613     	addi	a2, a1, 0x380
800015d0: 4591         	li	a1, 0x4
800015d2: 00003097     	auipc	ra, 0x3
800015d6: 614080e7     	jalr	0x614(ra) <core::panicking::panic_bounds_check::h6aaee0d15e0261eb>
800015da: 6566         	ld	a0, 0x58(sp)
800015dc: 00351593     	slli	a1, a0, 0x3

00000000800015e0 <.Lpcrel_hi108>:
800015e0: 00005517     	auipc	a0, 0x5
800015e4: 66850513     	addi	a0, a0, 0x668
800015e8: 952e         	add	a0, a0, a1
800015ea: 4601         	li	a2, 0x0
800015ec: 85b2         	mv	a1, a2
800015ee: 00002097     	auipc	ra, 0x2
800015f2: 4d2080e7     	jalr	0x4d2(ra) <core::sync::atomic::AtomicU64::store::hb2aa4fb5f656f3b7>
800015f6: 6566         	ld	a0, 0x58(sp)
800015f8: 4591         	li	a1, 0x4
800015fa: 862a         	mv	a2, a0
800015fc: f032         	sd	a2, 0x20(sp)
800015fe: 00b56d63     	bltu	a0, a1, 0x80001618 <.Lpcrel_hi109+0x12>
80001602: a081         	j	0x80001642 <.Lpcrel_hi110+0x24>
80001604: 7522         	ld	a0, 0x28(sp)

0000000080001606 <.Lpcrel_hi109>:
80001606: 00004597     	auipc	a1, 0x4
8000160a: 35a58613     	addi	a2, a1, 0x35a
8000160e: 4591         	li	a1, 0x4
80001610: 00003097     	auipc	ra, 0x3
80001614: 5d6080e7     	jalr	0x5d6(ra) <core::panicking::panic_bounds_check::h6aaee0d15e0261eb>
80001618: 6566         	ld	a0, 0x58(sp)
8000161a: 00351593     	slli	a1, a0, 0x3

000000008000161e <.Lpcrel_hi110>:
8000161e: 00005517     	auipc	a0, 0x5
80001622: 69250513     	addi	a0, a0, 0x692
80001626: 952e         	add	a0, a0, a1
80001628: 4601         	li	a2, 0x0
8000162a: 85b2         	mv	a1, a2
8000162c: 00002097     	auipc	ra, 0x2
80001630: 494080e7     	jalr	0x494(ra) <core::sync::atomic::AtomicU64::store::hb2aa4fb5f656f3b7>
80001634: 6566         	ld	a0, 0x58(sp)
80001636: 4591         	li	a1, 0x4
80001638: 862a         	mv	a2, a0
8000163a: ec32         	sd	a2, 0x18(sp)
8000163c: 00b56d63     	bltu	a0, a1, 0x80001656 <.Lpcrel_hi111+0x12>
80001640: a835         	j	0x8000167c <.Lpcrel_hi112+0x24>
80001642: 7502         	ld	a0, 0x20(sp)

0000000080001644 <.Lpcrel_hi111>:
80001644: 00004597     	auipc	a1, 0x4
80001648: 33458613     	addi	a2, a1, 0x334
8000164c: 4591         	li	a1, 0x4
8000164e: 00003097     	auipc	ra, 0x3
80001652: 598080e7     	jalr	0x598(ra) <core::panicking::panic_bounds_check::h6aaee0d15e0261eb>
80001656: 65e6         	ld	a1, 0x58(sp)

0000000080001658 <.Lpcrel_hi112>:
80001658: 00005517     	auipc	a0, 0x5
8000165c: 5c050513     	addi	a0, a0, 0x5c0
80001660: 952e         	add	a0, a0, a1
80001662: 4601         	li	a2, 0x0
80001664: 85b2         	mv	a1, a2
80001666: 00002097     	auipc	ra, 0x2
8000166a: 296080e7     	jalr	0x296(ra) <core::sync::atomic::AtomicBool::store::hfb6122fe2021251c>
8000166e: 6566         	ld	a0, 0x58(sp)
80001670: 4591         	li	a1, 0x4
80001672: 862a         	mv	a2, a0
80001674: e832         	sd	a2, 0x10(sp)
80001676: 00b56d63     	bltu	a0, a1, 0x80001690 <.Lpcrel_hi113+0x12>
8000167a: a081         	j	0x800016ba <.Lpcrel_hi114+0x24>
8000167c: 6562         	ld	a0, 0x18(sp)

000000008000167e <.Lpcrel_hi113>:
8000167e: 00004597     	auipc	a1, 0x4
80001682: 31258613     	addi	a2, a1, 0x312
80001686: 4591         	li	a1, 0x4
80001688: 00003097     	auipc	ra, 0x3
8000168c: 55e080e7     	jalr	0x55e(ra) <core::panicking::panic_bounds_check::h6aaee0d15e0261eb>
80001690: 6566         	ld	a0, 0x58(sp)
80001692: 00351593     	slli	a1, a0, 0x3

0000000080001696 <.Lpcrel_hi114>:
80001696: 00005517     	auipc	a0, 0x5
8000169a: 4c250513     	addi	a0, a0, 0x4c2
8000169e: 952e         	add	a0, a0, a1
800016a0: 55fd         	li	a1, -0x1
800016a2: 4601         	li	a2, 0x0
800016a4: 00002097     	auipc	ra, 0x2
800016a8: 316080e7     	jalr	0x316(ra) <core::sync::atomic::AtomicUsize::store::h3e1d7199369dca9c>
800016ac: 6566         	ld	a0, 0x58(sp)
800016ae: 4591         	li	a1, 0x4
800016b0: 862a         	mv	a2, a0
800016b2: e432         	sd	a2, 0x8(sp)
800016b4: 00b56d63     	bltu	a0, a1, 0x800016ce <.Lpcrel_hi115+0x12>
800016b8: a815         	j	0x800016ec <.Lpcrel_hi116+0x18>
800016ba: 6542         	ld	a0, 0x10(sp)

00000000800016bc <.Lpcrel_hi115>:
800016bc: 00004597     	auipc	a1, 0x4
800016c0: 2ec58613     	addi	a2, a1, 0x2ec
800016c4: 4591         	li	a1, 0x4
800016c6: 00003097     	auipc	ra, 0x3
800016ca: 520080e7     	jalr	0x520(ra) <core::panicking::panic_bounds_check::h6aaee0d15e0261eb>
800016ce: 6566         	ld	a0, 0x58(sp)
800016d0: 00351593     	slli	a1, a0, 0x3

00000000800016d4 <.Lpcrel_hi116>:
800016d4: 00005517     	auipc	a0, 0x5
800016d8: 54c50513     	addi	a0, a0, 0x54c
800016dc: 952e         	add	a0, a0, a1
800016de: 4601         	li	a2, 0x0
800016e0: 85b2         	mv	a1, a2
800016e2: 00002097     	auipc	ra, 0x2
800016e6: 2d8080e7     	jalr	0x2d8(ra) <core::sync::atomic::AtomicUsize::store::h3e1d7199369dca9c>
800016ea: bb81         	j	0x8000143a <.Lpcrel_hi96+0x24>
800016ec: 6522         	ld	a0, 0x8(sp)

00000000800016ee <.Lpcrel_hi117>:
800016ee: 00004597     	auipc	a1, 0x4
800016f2: 2d258613     	addi	a2, a1, 0x2d2
800016f6: 4591         	li	a1, 0x4
800016f8: 00003097     	auipc	ra, 0x3
800016fc: 4ee080e7     	jalr	0x4ee(ra) <core::panicking::panic_bounds_check::h6aaee0d15e0261eb>

0000000080001700 <lab5_kernel_task4::install_interrupt_stack::hbd4df27fd42560b9>:
80001700: 1141         	addi	sp, sp, -0x10
80001702: e406         	sd	ra, 0x8(sp)
80001704: e02a         	sd	a0, 0x0(sp)
80001706: fffff097     	auipc	ra, 0xfffff
8000170a: 182080e7     	jalr	0x182(ra) <lab5_kernel_task4::interrupt_stack_top::ha1d336ff1adfaea7>
8000170e: 34051073     	csrw	mscratch, a0
80001712: 60a2         	ld	ra, 0x8(sp)
80001714: 0141         	addi	sp, sp, 0x10
80001716: 8082         	ret

0000000080001718 <lab5_kernel_task4::release_secondary_harts::h761e719ff3a522da>:
80001718: 1141         	addi	sp, sp, -0x10
8000171a: e406         	sd	ra, 0x8(sp)

000000008000171c <.Lpcrel_hi118>:
8000171c: 00005517     	auipc	a0, 0x5
80001720: 43450513     	addi	a0, a0, 0x434

0000000080001724 <.Lpcrel_hi119>:
80001724: 00004597     	auipc	a1, 0x4
80001728: 2b458613     	addi	a2, a1, 0x2b4
8000172c: 4585         	li	a1, 0x1
8000172e: 00001097     	auipc	ra, 0x1
80001732: d0e080e7     	jalr	-0x2f2(ra) <core::ptr::write_volatile::h76c5b42fc52fcdda>
80001736: 60a2         	ld	ra, 0x8(sp)
80001738: 0141         	addi	sp, sp, 0x10
8000173a: 8082         	ret

000000008000173c <lab5_kernel_task4::arm_next_timer_interrupt::h1ce996f3962f2f9c>:
8000173c: 7179         	addi	sp, sp, -0x30
8000173e: f406         	sd	ra, 0x28(sp)
80001740: e02e         	sd	a1, 0x0(sp)
80001742: e42a         	sd	a0, 0x8(sp)
80001744: e82e         	sd	a1, 0x10(sp)
80001746: fffff097     	auipc	ra, 0xfffff
8000174a: 060080e7     	jalr	0x60(ra) <lab5_kernel_task4::mtimecmp_addr::hf0337fb3d0365304>
8000174e: 6582         	ld	a1, 0x0(sp)
80001750: ec2e         	sd	a1, 0x18(sp)
80001752: 6605         	lui	a2, 0x1
80001754: 9c460613     	addi	a2, a2, -0x63c
80001758: f032         	sd	a2, 0x20(sp)
8000175a: 95b2         	add	a1, a1, a2

000000008000175c <.Lpcrel_hi120>:
8000175c: 00004617     	auipc	a2, 0x4
80001760: 29460613     	addi	a2, a2, 0x294
80001764: 00001097     	auipc	ra, 0x1
80001768: cd8080e7     	jalr	-0x328(ra) <core::ptr::write_volatile::h76c5b42fc52fcdda>
8000176c: 70a2         	ld	ra, 0x28(sp)
8000176e: 6145         	addi	sp, sp, 0x30
80001770: 8082         	ret

0000000080001772 <lab5_kernel_task4::enable_machine_interrupts::h368eacea6ec79764>:
80001772: 08800513     	li	a0, 0x88
80001776: 30452073     	csrs	mie, a0
8000177a: 4521         	li	a0, 0x8
8000177c: 30052073     	csrs	mstatus, a0
80001780: 8082         	ret

0000000080001782 <lab5_kernel_task4::disable_machine_interrupts::h2d9899e151f95894>:
80001782: 4521         	li	a0, 0x8
80001784: 30053073     	csrc	mstatus, a0
80001788: 08800513     	li	a0, 0x88
8000178c: 30453073     	csrc	mie, a0
80001790: 8082         	ret

0000000080001792 <lab5_kernel_task4::handle_machine_software_interrupt::h7af0e1a81a707a5b>:
80001792: 1101         	addi	sp, sp, -0x20
80001794: ec06         	sd	ra, 0x18(sp)
80001796: e42a         	sd	a0, 0x8(sp)
80001798: e82a         	sd	a0, 0x10(sp)
8000179a: fffff097     	auipc	ra, 0xfffff
8000179e: a66080e7     	jalr	-0x59a(ra) <lab5_kernel_task4::clear_msip::he38a95306c2d7018>
800017a2: 65a2         	ld	a1, 0x8(sp)
800017a4: 450d         	li	a0, 0x3
800017a6: 02b56463     	bltu	a0, a1, 0x800017ce <.Lpcrel_hi121+0x1c>
800017aa: a009         	j	0x800017ac <lab5_kernel_task4::handle_machine_software_interrupt::h7af0e1a81a707a5b+0x1a>
800017ac: 6522         	ld	a0, 0x8(sp)
800017ae: 00351593     	slli	a1, a0, 0x3

00000000800017b2 <.Lpcrel_hi121>:
800017b2: 00005517     	auipc	a0, 0x5
800017b6: 4b650513     	addi	a0, a0, 0x4b6
800017ba: 952e         	add	a0, a0, a1
800017bc: 4585         	li	a1, 0x1
800017be: 460d         	li	a2, 0x3
800017c0: 00002097     	auipc	ra, 0x2
800017c4: 31a080e7     	jalr	0x31a(ra) <core::sync::atomic::AtomicU64::fetch_add::hd6a13c485f746a90>
800017c8: 60e2         	ld	ra, 0x18(sp)
800017ca: 6105         	addi	sp, sp, 0x20
800017cc: 8082         	ret
800017ce: 6522         	ld	a0, 0x8(sp)

00000000800017d0 <.Lpcrel_hi122>:
800017d0: 00004597     	auipc	a1, 0x4
800017d4: 23858613     	addi	a2, a1, 0x238
800017d8: 4591         	li	a1, 0x4
800017da: 00003097     	auipc	ra, 0x3
800017de: 40c080e7     	jalr	0x40c(ra) <core::panicking::panic_bounds_check::h6aaee0d15e0261eb>

00000000800017e2 <lab5_kernel_task4::read_sp::h6b9f67262c739f55>:
800017e2: 1141         	addi	sp, sp, -0x10
800017e4: 850a         	mv	a0, sp
800017e6: e42a         	sd	a0, 0x8(sp)
800017e8: 6522         	ld	a0, 0x8(sp)
800017ea: 0141         	addi	sp, sp, 0x10
800017ec: 8082         	ret

00000000800017ee <lab5_kernel_task4::busy_mix::h4ebb122ae3b40d70>:
800017ee: 711d         	addi	sp, sp, -0x60
800017f0: ec86         	sd	ra, 0x58(sp)
800017f2: e42e         	sd	a1, 0x8(sp)
800017f4: e82a         	sd	a0, 0x10(sp)
800017f6: f02e         	sd	a1, 0x20(sp)
800017f8: 4501         	li	a0, 0x0
800017fa: ec2a         	sd	a0, 0x18(sp)
800017fc: a009         	j	0x800017fe <lab5_kernel_task4::busy_mix::h4ebb122ae3b40d70+0x10>
800017fe: 65a2         	ld	a1, 0x8(sp)
80001800: 6562         	ld	a0, 0x18(sp)
80001802: 00b56b63     	bltu	a0, a1, 0x80001818 <lab5_kernel_task4::busy_mix::h4ebb122ae3b40d70+0x2a>
80001806: a009         	j	0x80001808 <lab5_kernel_task4::busy_mix::h4ebb122ae3b40d70+0x1a>
80001808: 6542         	ld	a0, 0x10(sp)
8000180a: 00001097     	auipc	ra, 0x1
8000180e: 6e0080e7     	jalr	0x6e0(ra) <core::hint::black_box::he81f174fa9c93ffd>
80001812: 60e6         	ld	ra, 0x58(sp)
80001814: 6125         	addi	sp, sp, 0x60
80001816: 8082         	ret
80001818: 6542         	ld	a0, 0x10(sp)
8000181a: f42a         	sd	a0, 0x28(sp)
8000181c: 4595         	li	a1, 0x5
8000181e: da2e         	sw	a1, 0x34(sp)
80001820: 00002097     	auipc	ra, 0x2
80001824: be6080e7     	jalr	-0x41a(ra) <core::intrinsics::rotate_left::hd3094553216b8f6d>
80001828: 65e2         	ld	a1, 0x18(sp)

000000008000182a <.Lpcrel_hi123>:
8000182a: 00003617     	auipc	a2, 0x3
8000182e: 62660613     	addi	a2, a2, 0x626
80001832: 6210         	ld	a2, 0x0(a2)
80001834: 8db1         	xor	a1, a1, a2
80001836: fc2a         	sd	a0, 0x38(sp)
80001838: e0ae         	sd	a1, 0x40(sp)
8000183a: 952e         	add	a0, a0, a1
8000183c: e4aa         	sd	a0, 0x48(sp)

000000008000183e <.Lpcrel_hi124>:
8000183e: 00003597     	auipc	a1, 0x3
80001842: 5fa58593     	addi	a1, a1, 0x5fa
80001846: 618c         	ld	a1, 0x0(a1)
80001848: e8ae         	sd	a1, 0x50(sp)
8000184a: 02b50533     	mul	a0, a0, a1
8000184e: e82a         	sd	a0, 0x10(sp)
80001850: 65e2         	ld	a1, 0x18(sp)
80001852: 00158513     	addi	a0, a1, 0x1
80001856: e02a         	sd	a0, 0x0(sp)
80001858: 00b56663     	bltu	a0, a1, 0x80001864 <.Lpcrel_hi125>
8000185c: a009         	j	0x8000185e <.Lpcrel_hi124+0x20>
8000185e: 6502         	ld	a0, 0x0(sp)
80001860: ec2a         	sd	a0, 0x18(sp)
80001862: bf71         	j	0x800017fe <lab5_kernel_task4::busy_mix::h4ebb122ae3b40d70+0x10>

0000000080001864 <.Lpcrel_hi125>:
80001864: 00004517     	auipc	a0, 0x4
80001868: 1bc50513     	addi	a0, a0, 0x1bc
8000186c: 00003097     	auipc	ra, 0x3
80001870: 302080e7     	jalr	0x302(ra) <core::panicking::panic_const::panic_const_add_overflow::h67cba067093910f8>

0000000080001874 <lab5_kernel_task4::send_ipi::h17ec896e3b603fa0>:
80001874: 1141         	addi	sp, sp, -0x10
80001876: e406         	sd	ra, 0x8(sp)
80001878: e02a         	sd	a0, 0x0(sp)
8000187a: 00000097     	auipc	ra, 0x0
8000187e: 340080e7     	jalr	0x340(ra) <lab5_kernel_task4::msip_addr::h5daa1376b1076b5a>

0000000080001882 <.Lpcrel_hi126>:
80001882: 00004597     	auipc	a1, 0x4
80001886: 1b658613     	addi	a2, a1, 0x1b6
8000188a: 4585         	li	a1, 0x1
8000188c: 00001097     	auipc	ra, 0x1
80001890: c0e080e7     	jalr	-0x3f2(ra) <core::ptr::write_volatile::hdca7891ed6676f43>
80001894: 60a2         	ld	ra, 0x8(sp)
80001896: 0141         	addi	sp, sp, 0x10
80001898: 8082         	ret

000000008000189a <lab5_kernel_task4::clear_bss::h353f270f30a0ab0a>:
8000189a: 715d         	addi	sp, sp, -0x50
8000189c: e486         	sd	ra, 0x48(sp)

000000008000189e <.Lpcrel_hi127>:
8000189e: 00005517     	auipc	a0, 0x5
800018a2: 2e250593     	addi	a1, a0, 0x2e2
800018a6: ec2e         	sd	a1, 0x18(sp)

00000000800018a8 <.Lpcrel_hi128>:
800018a8: 00005517     	auipc	a0, 0x5
800018ac: 44050513     	addi	a0, a0, 0x440
800018b0: f02a         	sd	a0, 0x20(sp)
800018b2: 04b56d63     	bltu	a0, a1, 0x8000190c <.Lpcrel_hi132>
800018b6: a009         	j	0x800018b8 <.Lpcrel_hi129>

00000000800018b8 <.Lpcrel_hi129>:
800018b8: 00005517     	auipc	a0, 0x5
800018bc: 2c850513     	addi	a0, a0, 0x2c8
800018c0: e02a         	sd	a0, 0x0(sp)
800018c2: f82a         	sd	a0, 0x30(sp)
800018c4: 4581         	li	a1, 0x0
800018c6: e42e         	sd	a1, 0x8(sp)
800018c8: 02b10fa3     	sb	a1, 0x3f(sp)

00000000800018cc <.Lpcrel_hi130>:
800018cc: 00005597     	auipc	a1, 0x5
800018d0: 41c58593     	addi	a1, a1, 0x41c
800018d4: 8d89         	sub	a1, a1, a0
800018d6: e82e         	sd	a1, 0x10(sp)
800018d8: e0ae         	sd	a1, 0x40(sp)
800018da: 0015b593     	seqz	a1, a1
800018de: 02b107a3     	sb	a1, 0x2f(sp)
800018e2: 02f14603     	lbu	a2, 0x2f(sp)

00000000800018e6 <.Lpcrel_hi131>:
800018e6: 00004597     	auipc	a1, 0x4
800018ea: 29258693     	addi	a3, a1, 0x292
800018ee: 4585         	li	a1, 0x1
800018f0: 00001097     	auipc	ra, 0x1
800018f4: 4a8080e7     	jalr	0x4a8(ra) <core::ptr::write_bytes::precondition_check::h1f2d7e6346c14c0b>
800018f8: 6502         	ld	a0, 0x0(sp)
800018fa: 65a2         	ld	a1, 0x8(sp)
800018fc: 6642         	ld	a2, 0x10(sp)
800018fe: 00003097     	auipc	ra, 0x3
80001902: 4a8080e7     	jalr	0x4a8(ra) <memset>
80001906: 60a6         	ld	ra, 0x48(sp)
80001908: 6161         	addi	sp, sp, 0x50
8000190a: 8082         	ret

000000008000190c <.Lpcrel_hi132>:
8000190c: 00004517     	auipc	a0, 0x4
80001910: 14450513     	addi	a0, a0, 0x144
80001914: 00003097     	auipc	ra, 0x3
80001918: 2b4080e7     	jalr	0x2b4(ra) <core::panicking::panic_const::panic_const_sub_overflow::hccc965ba9198de7c>

000000008000191c <lab5_kernel_task4::hart_main::h81c8f5a3e8035195>:
8000191c: dd010113     	addi	sp, sp, -0x230
80001920: 22113423     	sd	ra, 0x228(sp)
80001924: ec2e         	sd	a1, 0x18(sp)
80001926: 862e         	mv	a2, a1
80001928: e832         	sd	a2, 0x10(sp)
8000192a: f02a         	sd	a0, 0x20(sp)
8000192c: 20b10fa3     	sb	a1, 0x21f(sp)
80001930: fffff097     	auipc	ra, 0xfffff
80001934: f36080e7     	jalr	-0xca(ra) <lab5_kernel_task4::init_trap_vector::h3b4328a90e372b7d>
80001938: 7502         	ld	a0, 0x20(sp)
8000193a: 00000097     	auipc	ra, 0x0
8000193e: dc6080e7     	jalr	-0x23a(ra) <lab5_kernel_task4::install_interrupt_stack::hbd4df27fd42560b9>
80001942: 7502         	ld	a0, 0x20(sp)
80001944: fffff097     	auipc	ra, 0xfffff
80001948: 8bc080e7     	jalr	-0x744(ra) <lab5_kernel_task4::clear_msip::he38a95306c2d7018>
8000194c: fffff097     	auipc	ra, 0xfffff
80001950: f34080e7     	jalr	-0xcc(ra) <lab5_kernel_task4::enable_fp_context::h67993584fccf5b50>
80001954: 7502         	ld	a0, 0x20(sp)
80001956: fffff097     	auipc	ra, 0xfffff
8000195a: f6a080e7     	jalr	-0x96(ra) <lab5_kernel_task4::mark_hart_initialized::h98966dd537f3df54>
8000195e: 65e2         	ld	a1, 0x18(sp)
80001960: f42a         	sd	a0, 0x28(sp)
80001962: e991         	bnez	a1, 0x80001976 <.Lpcrel_hi134>
80001964: a009         	j	0x80001966 <.Lpcrel_hi133>

0000000080001966 <.Lpcrel_hi133>:
80001966: 00004517     	auipc	a0, 0x4
8000196a: 10250513     	addi	a0, a0, 0x102
8000196e: f4aa         	sd	a0, 0x68(sp)
80001970: 4525         	li	a0, 0x9
80001972: f8aa         	sd	a0, 0x70(sp)
80001974: a809         	j	0x80001986 <.Lpcrel_hi134+0x10>

0000000080001976 <.Lpcrel_hi134>:
80001976: 00004517     	auipc	a0, 0x4
8000197a: 0fb50513     	addi	a0, a0, 0xfb
8000197e: f4aa         	sd	a0, 0x68(sp)
80001980: 451d         	li	a0, 0x7
80001982: f8aa         	sd	a0, 0x70(sp)
80001984: a009         	j	0x80001986 <.Lpcrel_hi134+0x10>
80001986: 00000097     	auipc	ra, 0x0
8000198a: e5c080e7     	jalr	-0x1a4(ra) <lab5_kernel_task4::read_sp::h6b9f67262c739f55>
8000198e: fcaa         	sd	a0, 0x78(sp)
80001990: 7502         	ld	a0, 0x20(sp)
80001992: fffff097     	auipc	ra, 0xfffff
80001996: 110080e7     	jalr	0x110(ra) <lab5_kernel_task4::interrupt_stack_bottom::hbc3e86cc90396003>
8000199a: e12a         	sd	a0, 0x80(sp)
8000199c: 7502         	ld	a0, 0x20(sp)
8000199e: fffff097     	auipc	ra, 0xfffff
800019a2: eea080e7     	jalr	-0x116(ra) <lab5_kernel_task4::interrupt_stack_top::ha1d336ff1adfaea7>
800019a6: e52a         	sd	a0, 0x88(sp)
800019a8: 1008         	addi	a0, sp, 0x20
800019aa: f82a         	sd	a0, 0x30(sp)
800019ac: 10a8         	addi	a0, sp, 0x68
800019ae: fc2a         	sd	a0, 0x38(sp)
800019b0: 18a8         	addi	a0, sp, 0x78
800019b2: e0aa         	sd	a0, 0x40(sp)
800019b4: 0108         	addi	a0, sp, 0x80
800019b6: e4aa         	sd	a0, 0x48(sp)
800019b8: 0128         	addi	a0, sp, 0x88
800019ba: e8aa         	sd	a0, 0x50(sp)
800019bc: 1028         	addi	a0, sp, 0x28
800019be: ecaa         	sd	a0, 0x58(sp)

00000000800019c0 <.Lpcrel_hi135>:
800019c0: 00003517     	auipc	a0, 0x3
800019c4: 4b050513     	addi	a0, a0, 0x4b0
800019c8: f0aa         	sd	a0, 0x60(sp)
800019ca: 75c2         	ld	a1, 0x30(sp)
800019cc: 0208         	addi	a0, sp, 0x100
800019ce: 00001097     	auipc	ra, 0x1
800019d2: 590080e7     	jalr	0x590(ra) <core::fmt::rt::Argument::new_display::hf39fee7a07297fe8>
800019d6: 75e2         	ld	a1, 0x38(sp)
800019d8: 0a08         	addi	a0, sp, 0x110
800019da: 00001097     	auipc	ra, 0x1
800019de: 51e080e7     	jalr	0x51e(ra) <core::fmt::rt::Argument::new_display::h21f9a99fdf9004a6>
800019e2: 6586         	ld	a1, 0x40(sp)
800019e4: 1208         	addi	a0, sp, 0x120
800019e6: 00001097     	auipc	ra, 0x1
800019ea: 5bc080e7     	jalr	0x5bc(ra) <core::fmt::rt::Argument::new_lower_hex::he3e4b83e741bf983>
800019ee: 65a6         	ld	a1, 0x48(sp)
800019f0: 1a08         	addi	a0, sp, 0x130
800019f2: 00001097     	auipc	ra, 0x1
800019f6: 5b0080e7     	jalr	0x5b0(ra) <core::fmt::rt::Argument::new_lower_hex::he3e4b83e741bf983>
800019fa: 65c6         	ld	a1, 0x50(sp)
800019fc: 0288         	addi	a0, sp, 0x140
800019fe: 00001097     	auipc	ra, 0x1
80001a02: 5a4080e7     	jalr	0x5a4(ra) <core::fmt::rt::Argument::new_lower_hex::he3e4b83e741bf983>
80001a06: 65e6         	ld	a1, 0x58(sp)
80001a08: 0a88         	addi	a0, sp, 0x150
80001a0a: 00001097     	auipc	ra, 0x1
80001a0e: 554080e7     	jalr	0x554(ra) <core::fmt::rt::Argument::new_display::hf39fee7a07297fe8>
80001a12: 7586         	ld	a1, 0x60(sp)
80001a14: 1288         	addi	a0, sp, 0x160
80001a16: 00001097     	auipc	ra, 0x1
80001a1a: 548080e7     	jalr	0x548(ra) <core::fmt::rt::Argument::new_display::hf39fee7a07297fe8>
80001a1e: 6532         	ld	a0, 0x108(sp)
80001a20: ed2a         	sd	a0, 0x98(sp)
80001a22: 6512         	ld	a0, 0x100(sp)
80001a24: e92a         	sd	a0, 0x90(sp)
80001a26: 6572         	ld	a0, 0x118(sp)
80001a28: f52a         	sd	a0, 0xa8(sp)
80001a2a: 6552         	ld	a0, 0x110(sp)
80001a2c: f12a         	sd	a0, 0xa0(sp)
80001a2e: 7532         	ld	a0, 0x128(sp)
80001a30: fd2a         	sd	a0, 0xb8(sp)
80001a32: 7512         	ld	a0, 0x120(sp)
80001a34: f92a         	sd	a0, 0xb0(sp)
80001a36: 7572         	ld	a0, 0x138(sp)
80001a38: e5aa         	sd	a0, 0xc8(sp)
80001a3a: 7552         	ld	a0, 0x130(sp)
80001a3c: e1aa         	sd	a0, 0xc0(sp)
80001a3e: 6536         	ld	a0, 0x148(sp)
80001a40: edaa         	sd	a0, 0xd8(sp)
80001a42: 6516         	ld	a0, 0x140(sp)
80001a44: e9aa         	sd	a0, 0xd0(sp)
80001a46: 6576         	ld	a0, 0x158(sp)
80001a48: f5aa         	sd	a0, 0xe8(sp)
80001a4a: 6556         	ld	a0, 0x150(sp)
80001a4c: f1aa         	sd	a0, 0xe0(sp)
80001a4e: 7536         	ld	a0, 0x168(sp)
80001a50: fdaa         	sd	a0, 0xf8(sp)
80001a52: 7516         	ld	a0, 0x160(sp)
80001a54: f9aa         	sd	a0, 0xf0(sp)

0000000080001a56 <.Lpcrel_hi136>:
80001a56: 00004517     	auipc	a0, 0x4
80001a5a: 02250513     	addi	a0, a0, 0x22
80001a5e: 090c         	addi	a1, sp, 0x90
80001a60: 00002097     	auipc	ra, 0x2
80001a64: 152080e7     	jalr	0x152(ra) <core::fmt::Arguments::new::ha08ce78d0b4a6f25>
80001a68: 00001097     	auipc	ra, 0x1
80001a6c: 6a0080e7     	jalr	0x6a0(ra) <lab5_kernel_task4::console::print::hbed2e8a51f9bf136>
80001a70: 6542         	ld	a0, 0x10(sp)
80001a72: 8905         	andi	a0, a0, 0x1
80001a74: e119         	bnez	a0, 0x80001a7a <.Lpcrel_hi136+0x24>
80001a76: a009         	j	0x80001a78 <.Lpcrel_hi136+0x22>
80001a78: a011         	j	0x80001a7c <.Lpcrel_hi137>
80001a7a: a821         	j	0x80001a92 <.Lpcrel_hi138>

0000000080001a7c <.Lpcrel_hi137>:
80001a7c: 00005517     	auipc	a0, 0x5
80001a80: 10450513     	addi	a0, a0, 0x104
80001a84: 4589         	li	a1, 0x2
80001a86: 00002097     	auipc	ra, 0x2
80001a8a: c7c080e7     	jalr	-0x384(ra) <core::sync::atomic::AtomicBool::load::h77ebd9d5a9aba964>
80001a8e: e115         	bnez	a0, 0x80001ab2 <.Lpcrel_hi138+0x20>
80001a90: a831         	j	0x80001aac <.Lpcrel_hi138+0x1a>

0000000080001a92 <.Lpcrel_hi138>:
80001a92: 00005517     	auipc	a0, 0x5
80001a96: 11e50513     	addi	a0, a0, 0x11e
80001a9a: 4589         	li	a1, 0x2
80001a9c: 00002097     	auipc	ra, 0x2
80001aa0: e9c080e7     	jalr	-0x164(ra) <core::sync::atomic::AtomicUsize::load::hfa451401d719484c>
80001aa4: 4591         	li	a1, 0x4
80001aa6: 10b56763     	bltu	a0, a1, 0x80001bb4 <.Lpcrel_hi143+0x1c>
80001aaa: a0a5         	j	0x80001b12 <.Lpcrel_hi140>
80001aac: 0100000f     	fence	w, 0
80001ab0: b7f1         	j	0x80001a7c <.Lpcrel_hi137>
80001ab2: 100c         	addi	a1, sp, 0x20
80001ab4: 22b13023     	sd	a1, 0x220(sp)
80001ab8: 0428         	addi	a0, sp, 0x208
80001aba: 00001097     	auipc	ra, 0x1
80001abe: 4a4080e7     	jalr	0x4a4(ra) <core::fmt::rt::Argument::new_display::hf39fee7a07297fe8>
80001ac2: 21013503     	ld	a0, 0x210(sp)
80001ac6: 20a13023     	sd	a0, 0x200(sp)
80001aca: 20813503     	ld	a0, 0x208(sp)
80001ace: ffaa         	sd	a0, 0x1f8(sp)

0000000080001ad0 <.Lpcrel_hi139>:
80001ad0: 00004517     	auipc	a0, 0x4
80001ad4: 8b850513     	addi	a0, a0, -0x748
80001ad8: 1bac         	addi	a1, sp, 0x1f8
80001ada: 00002097     	auipc	ra, 0x2
80001ade: 0ec080e7     	jalr	0xec(ra) <core::fmt::Arguments::new::hc9e6fa2e7ae3f5fd>
80001ae2: 00001097     	auipc	ra, 0x1
80001ae6: 626080e7     	jalr	0x626(ra) <lab5_kernel_task4::console::print::hbed2e8a51f9bf136>
80001aea: a009         	j	0x80001aec <.Lpcrel_hi139+0x1c>
80001aec: ffffe097     	auipc	ra, 0xffffe
80001af0: 7e6080e7     	jalr	0x7e6(ra) <lab5_kernel_task4::read_mtime::h08d5af7cc6021f0f>
80001af4: 85aa         	mv	a1, a0
80001af6: 7502         	ld	a0, 0x20(sp)
80001af8: 00000097     	auipc	ra, 0x0
80001afc: c44080e7     	jalr	-0x3bc(ra) <lab5_kernel_task4::arm_next_timer_interrupt::h1ce996f3962f2f9c>
80001b00: 00000097     	auipc	ra, 0x0
80001b04: c72080e7     	jalr	-0x38e(ra) <lab5_kernel_task4::enable_machine_interrupts::h368eacea6ec79764>
80001b08: 7502         	ld	a0, 0x20(sp)
80001b0a: fffff097     	auipc	ra, 0xfffff
80001b0e: 84a080e7     	jalr	-0x7b6(ra) <lab5_kernel_task4::worker_loop::h32b7a1308ff46ea4>

0000000080001b12 <.Lpcrel_hi140>:
80001b12: 00005517     	auipc	a0, 0x5
80001b16: 06e50513     	addi	a0, a0, 0x6e
80001b1a: 4605         	li	a2, 0x1
80001b1c: 85b2         	mv	a1, a2
80001b1e: 00002097     	auipc	ra, 0x2
80001b22: dde080e7     	jalr	-0x222(ra) <core::sync::atomic::AtomicBool::store::hfb6122fe2021251c>

0000000080001b26 <.Lpcrel_hi141>:
80001b26: 00005517     	auipc	a0, 0x5
80001b2a: 08a50513     	addi	a0, a0, 0x8a
80001b2e: 4589         	li	a1, 0x2
80001b30: e42e         	sd	a1, 0x8(sp)
80001b32: 00002097     	auipc	ra, 0x2
80001b36: e06080e7     	jalr	-0x1fa(ra) <core::sync::atomic::AtomicUsize::load::hfa451401d719484c>
80001b3a: 65a2         	ld	a1, 0x8(sp)
80001b3c: e72a         	sd	a0, 0x188(sp)

0000000080001b3e <.Lpcrel_hi142>:
80001b3e: 00005517     	auipc	a0, 0x5
80001b42: 06a50513     	addi	a0, a0, 0x6a
80001b46: 00002097     	auipc	ra, 0x2
80001b4a: df2080e7     	jalr	-0x20e(ra) <core::sync::atomic::AtomicUsize::load::hfa451401d719484c>
80001b4e: eb2a         	sd	a0, 0x190(sp)
80001b50: 1008         	addi	a0, sp, 0x20
80001b52: faaa         	sd	a0, 0x170(sp)
80001b54: 0328         	addi	a0, sp, 0x188
80001b56: feaa         	sd	a0, 0x178(sp)
80001b58: 0b08         	addi	a0, sp, 0x190
80001b5a: e32a         	sd	a0, 0x180(sp)
80001b5c: 75d6         	ld	a1, 0x170(sp)
80001b5e: 03a8         	addi	a0, sp, 0x1c8
80001b60: 00001097     	auipc	ra, 0x1
80001b64: 3fe080e7     	jalr	0x3fe(ra) <core::fmt::rt::Argument::new_display::hf39fee7a07297fe8>
80001b68: 75f6         	ld	a1, 0x178(sp)
80001b6a: 0ba8         	addi	a0, sp, 0x1d8
80001b6c: 00001097     	auipc	ra, 0x1
80001b70: 3f2080e7     	jalr	0x3f2(ra) <core::fmt::rt::Argument::new_display::hf39fee7a07297fe8>
80001b74: 659a         	ld	a1, 0x180(sp)
80001b76: 13a8         	addi	a0, sp, 0x1e8
80001b78: 00001097     	auipc	ra, 0x1
80001b7c: 42a080e7     	jalr	0x42a(ra) <core::fmt::rt::Argument::new_lower_hex::he3e4b83e741bf983>
80001b80: 655e         	ld	a0, 0x1d0(sp)
80001b82: f32a         	sd	a0, 0x1a0(sp)
80001b84: 653e         	ld	a0, 0x1c8(sp)
80001b86: ef2a         	sd	a0, 0x198(sp)
80001b88: 751e         	ld	a0, 0x1e0(sp)
80001b8a: fb2a         	sd	a0, 0x1b0(sp)
80001b8c: 657e         	ld	a0, 0x1d8(sp)
80001b8e: f72a         	sd	a0, 0x1a8(sp)
80001b90: 755e         	ld	a0, 0x1f0(sp)
80001b92: e3aa         	sd	a0, 0x1c0(sp)
80001b94: 753e         	ld	a0, 0x1e8(sp)
80001b96: ff2a         	sd	a0, 0x1b8(sp)

0000000080001b98 <.Lpcrel_hi143>:
80001b98: 00004517     	auipc	a0, 0x4
80001b9c: f4650513     	addi	a0, a0, -0xba
80001ba0: 0b2c         	addi	a1, sp, 0x198
80001ba2: 00002097     	auipc	ra, 0x2
80001ba6: fe8080e7     	jalr	-0x18(ra) <core::fmt::Arguments::new::h4b9405094f502388>
80001baa: 00001097     	auipc	ra, 0x1
80001bae: 55e080e7     	jalr	0x55e(ra) <lab5_kernel_task4::console::print::hbed2e8a51f9bf136>
80001bb2: bf2d         	j	0x80001aec <.Lpcrel_hi139+0x1c>
80001bb4: 0100000f     	fence	w, 0
80001bb8: bde9         	j	0x80001a92 <.Lpcrel_hi138>

0000000080001bba <lab5_kernel_task4::msip_addr::h5daa1376b1076b5a>:
80001bba: 1101         	addi	sp, sp, -0x20
80001bbc: 85aa         	mv	a1, a0
80001bbe: ec2e         	sd	a1, 0x18(sp)
80001bc0: 00259513     	slli	a0, a1, 0x2
80001bc4: e82a         	sd	a0, 0x10(sp)
80001bc6: 8109         	srli	a0, a0, 0x2
80001bc8: 00b51b63     	bne	a0, a1, 0x80001bde <.Lpcrel_hi144>
80001bcc: a009         	j	0x80001bce <lab5_kernel_task4::msip_addr::h5daa1376b1076b5a+0x14>
80001bce: 6542         	ld	a0, 0x10(sp)
80001bd0: 020005b7     	lui	a1, 0x2000
80001bd4: 952e         	add	a0, a0, a1
80001bd6: e42a         	sd	a0, 0x8(sp)
80001bd8: 8165         	srli	a0, a0, 0x19
80001bda: cd09         	beqz	a0, 0x80001bf4 <.Lpcrel_hi145>
80001bdc: a809         	j	0x80001bee <.Lpcrel_hi144+0x10>

0000000080001bde <.Lpcrel_hi144>:
80001bde: 00004517     	auipc	a0, 0x4
80001be2: f4a50513     	addi	a0, a0, -0xb6
80001be6: 00003097     	auipc	ra, 0x3
80001bea: fa6080e7     	jalr	-0x5a(ra) <core::panicking::panic_const::panic_const_mul_overflow::h67897feae7531d51>
80001bee: 6522         	ld	a0, 0x8(sp)
80001bf0: 6105         	addi	sp, sp, 0x20
80001bf2: 8082         	ret

0000000080001bf4 <.Lpcrel_hi145>:
80001bf4: 00004517     	auipc	a0, 0x4
80001bf8: f4c50513     	addi	a0, a0, -0xb4
80001bfc: 00003097     	auipc	ra, 0x3
80001c00: f72080e7     	jalr	-0x8e(ra) <core::panicking::panic_const::panic_const_add_overflow::h67cba067093910f8>

0000000080001c04 <lab5_kernel_task4::pass_fail::h9f16e09ca53497a4>:
80001c04: 1101         	addi	sp, sp, -0x20
80001c06: 00a10fa3     	sb	a0, 0x1f(sp)
80001c0a: e911         	bnez	a0, 0x80001c1e <.Lpcrel_hi147>
80001c0c: a009         	j	0x80001c0e <.Lpcrel_hi146>

0000000080001c0e <.Lpcrel_hi146>:
80001c0e: 00004517     	auipc	a0, 0x4
80001c12: f4a50513     	addi	a0, a0, -0xb6
80001c16: e42a         	sd	a0, 0x8(sp)
80001c18: 4511         	li	a0, 0x4
80001c1a: e82a         	sd	a0, 0x10(sp)
80001c1c: a809         	j	0x80001c2e <.Lpcrel_hi147+0x10>

0000000080001c1e <.Lpcrel_hi147>:
80001c1e: 00004517     	auipc	a0, 0x4
80001c22: f3e50513     	addi	a0, a0, -0xc2
80001c26: e42a         	sd	a0, 0x8(sp)
80001c28: 4511         	li	a0, 0x4
80001c2a: e82a         	sd	a0, 0x10(sp)
80001c2c: a009         	j	0x80001c2e <.Lpcrel_hi147+0x10>
80001c2e: 6522         	ld	a0, 0x8(sp)
80001c30: 65c2         	ld	a1, 0x10(sp)
80001c32: 6105         	addi	sp, sp, 0x20
80001c34: 8082         	ret

0000000080001c36 <lab5_kernel_task4::qemu_exit::hdb22927d276c8649>:
80001c36: 1101         	addi	sp, sp, -0x20
80001c38: ec06         	sd	ra, 0x18(sp)
80001c3a: 85aa         	mv	a1, a0
80001c3c: e42e         	sd	a1, 0x8(sp)
80001c3e: ca2a         	sw	a0, 0x14(sp)
80001c40: c919         	beqz	a0, 0x80001c56 <lab5_kernel_task4::qemu_exit::hdb22927d276c8649+0x20>
80001c42: a009         	j	0x80001c44 <lab5_kernel_task4::qemu_exit::hdb22927d276c8649+0xe>
80001c44: 6522         	ld	a0, 0x8(sp)
80001c46: 0105151b     	slliw	a0, a0, 0x10
80001c4a: 658d         	lui	a1, 0x3
80001c4c: 33358593     	addi	a1, a1, 0x333
80001c50: 8d4d         	or	a0, a0, a1
80001c52: c82a         	sw	a0, 0x10(sp)
80001c54: a031         	j	0x80001c60 <lab5_kernel_task4::qemu_exit::hdb22927d276c8649+0x2a>
80001c56: 6515         	lui	a0, 0x5
80001c58: 55550513     	addi	a0, a0, 0x555
80001c5c: c82a         	sw	a0, 0x10(sp)
80001c5e: a009         	j	0x80001c60 <lab5_kernel_task4::qemu_exit::hdb22927d276c8649+0x2a>
80001c60: 45c2         	lw	a1, 0x10(sp)

0000000080001c62 <.Lpcrel_hi148>:
80001c62: 00004517     	auipc	a0, 0x4
80001c66: efe50613     	addi	a2, a0, -0x102
80001c6a: 00100537     	lui	a0, 0x100
80001c6e: 00001097     	auipc	ra, 0x1
80001c72: 82c080e7     	jalr	-0x7d4(ra) <core::ptr::write_volatile::hdca7891ed6676f43>
80001c76: a009         	j	0x80001c78 <.Lpcrel_hi148+0x16>
80001c78: 0100000f     	fence	w, 0
80001c7c: bff5         	j	0x80001c78 <.Lpcrel_hi148+0x16>

0000000080001c7e <rust_handle_trap>:
80001c7e: 7115         	addi	sp, sp, -0xe0
80001c80: ed86         	sd	ra, 0xd8(sp)
80001c82: e82a         	sd	a0, 0x10(sp)
80001c84: e9aa         	sd	a0, 0xd0(sp)
80001c86: fffff097     	auipc	ra, 0xfffff
80001c8a: b02080e7     	jalr	-0x4fe(ra) <lab5_kernel_task4::read_mhartid::h414b22debd9c6a7c>
80001c8e: ec2a         	sd	a0, 0x18(sp)
80001c90: ffffe097     	auipc	ra, 0xffffe
80001c94: 68c080e7     	jalr	0x68c(ra) <lab5_kernel_task4::read_mcause::hb0d3764f8885bb5d>
80001c98: f02a         	sd	a0, 0x20(sp)
80001c9a: 65e2         	ld	a1, 0x18(sp)
80001c9c: 450d         	li	a0, 0x3
80001c9e: 02b56d63     	bltu	a0, a1, 0x80001cd8 <.Lpcrel_hi149+0x2c>
80001ca2: a009         	j	0x80001ca4 <rust_handle_trap+0x26>
80001ca4: 65c2         	ld	a1, 0x10(sp)
80001ca6: 6562         	ld	a0, 0x18(sp)
80001ca8: 00351613     	slli	a2, a0, 0x3

0000000080001cac <.Lpcrel_hi149>:
80001cac: 00005517     	auipc	a0, 0x5
80001cb0: 00450513     	addi	a0, a0, 0x4
80001cb4: 9532         	add	a0, a0, a2
80001cb6: 7dec         	ld	a1, 0xf8(a1)
80001cb8: 4601         	li	a2, 0x0
80001cba: 00002097     	auipc	ra, 0x2
80001cbe: e06080e7     	jalr	-0x1fa(ra) <core::sync::atomic::AtomicU64::store::hb2aa4fb5f656f3b7>
80001cc2: 65c2         	ld	a1, 0x10(sp)
80001cc4: 6562         	ld	a0, 0x18(sp)
80001cc6: fffff097     	auipc	ra, 0xfffff
80001cca: 64a080e7     	jalr	0x64a(ra) <lab5_kernel_task4::record_interrupt_stack::h9acdc87b838cf575>
80001cce: 6562         	ld	a0, 0x18(sp)
80001cd0: 4591         	li	a1, 0x4
80001cd2: 00b56d63     	bltu	a0, a1, 0x80001cec <.Lpcrel_hi150+0x12>
80001cd6: a805         	j	0x80001d06 <.Lpcrel_hi151+0x18>
80001cd8: 6562         	ld	a0, 0x18(sp)

0000000080001cda <.Lpcrel_hi150>:
80001cda: 00004597     	auipc	a1, 0x4
80001cde: eb658613     	addi	a2, a1, -0x14a
80001ce2: 4591         	li	a1, 0x4
80001ce4: 00003097     	auipc	ra, 0x3
80001ce8: f02080e7     	jalr	-0xfe(ra) <core::panicking::panic_bounds_check::h6aaee0d15e0261eb>
80001cec: 65e2         	ld	a1, 0x18(sp)

0000000080001cee <.Lpcrel_hi151>:
80001cee: 00005517     	auipc	a0, 0x5
80001cf2: f2a50513     	addi	a0, a0, -0xd6
80001cf6: 952e         	add	a0, a0, a1
80001cf8: 4589         	li	a1, 0x2
80001cfa: 00002097     	auipc	ra, 0x2
80001cfe: a08080e7     	jalr	-0x5f8(ra) <core::sync::atomic::AtomicBool::load::h77ebd9d5a9aba964>
80001d02: e91d         	bnez	a0, 0x80001d38 <.Lpcrel_hi152+0x30>
80001d04: a819         	j	0x80001d1a <.Lpcrel_hi152+0x12>
80001d06: 6562         	ld	a0, 0x18(sp)

0000000080001d08 <.Lpcrel_hi152>:
80001d08: 00004597     	auipc	a1, 0x4
80001d0c: ea058613     	addi	a2, a1, -0x160
80001d10: 4591         	li	a1, 0x4
80001d12: 00003097     	auipc	ra, 0x3
80001d16: ed4080e7     	jalr	-0x12c(ra) <core::panicking::panic_bounds_check::h6aaee0d15e0261eb>
80001d1a: 7502         	ld	a0, 0x20(sp)
80001d1c: e42a         	sd	a0, 0x8(sp)
80001d1e: 55fd         	li	a1, -0x1
80001d20: 15fe         	slli	a1, a1, 0x3f
80001d22: 058d         	addi	a1, a1, 0x3
80001d24: 12b50163     	beq	a0, a1, 0x80001e46 <.Lpcrel_hi157+0x30>
80001d28: a009         	j	0x80001d2a <.Lpcrel_hi152+0x22>
80001d2a: 6522         	ld	a0, 0x8(sp)
80001d2c: 55fd         	li	a1, -0x1
80001d2e: 15fe         	slli	a1, a1, 0x3f
80001d30: 059d         	addi	a1, a1, 0x7
80001d32: 10b50463     	beq	a0, a1, 0x80001e3a <.Lpcrel_hi157+0x24>
80001d36: a0b5         	j	0x80001da2 <.Lpcrel_hi156+0x16>
80001d38: 65e2         	ld	a1, 0x18(sp)
80001d3a: 450d         	li	a0, 0x3
80001d3c: 02b56e63     	bltu	a0, a1, 0x80001d78 <.Lpcrel_hi154+0x1a>
80001d40: a009         	j	0x80001d42 <.Lpcrel_hi152+0x3a>
80001d42: 6562         	ld	a0, 0x18(sp)
80001d44: 00351593     	slli	a1, a0, 0x3

0000000080001d48 <.Lpcrel_hi153>:
80001d48: 00005517     	auipc	a0, 0x5
80001d4c: f0050513     	addi	a0, a0, -0x100
80001d50: 952e         	add	a0, a0, a1
80001d52: 4585         	li	a1, 0x1
80001d54: 4601         	li	a2, 0x0
80001d56: 00002097     	auipc	ra, 0x2
80001d5a: d84080e7     	jalr	-0x27c(ra) <core::sync::atomic::AtomicU64::fetch_add::hd6a13c485f746a90>

0000000080001d5e <.Lpcrel_hi154>:
80001d5e: 00005517     	auipc	a0, 0x5
80001d62: e1a50513     	addi	a0, a0, -0x1e6
80001d66: 4589         	li	a1, 0x2
80001d68: 00002097     	auipc	ra, 0x2
80001d6c: bd0080e7     	jalr	-0x430(ra) <core::sync::atomic::AtomicUsize::load::hfa451401d719484c>
80001d70: 65e2         	ld	a1, 0x18(sp)
80001d72: 00b51d63     	bne	a0, a1, 0x80001d8c <.Lpcrel_hi156>
80001d76: b755         	j	0x80001d1a <.Lpcrel_hi152+0x12>
80001d78: 6562         	ld	a0, 0x18(sp)

0000000080001d7a <.Lpcrel_hi155>:
80001d7a: 00004597     	auipc	a1, 0x4
80001d7e: e4658613     	addi	a2, a1, -0x1ba
80001d82: 4591         	li	a1, 0x4
80001d84: 00003097     	auipc	ra, 0x3
80001d88: e62080e7     	jalr	-0x19e(ra) <core::panicking::panic_bounds_check::h6aaee0d15e0261eb>

0000000080001d8c <.Lpcrel_hi156>:
80001d8c: 00005517     	auipc	a0, 0x5
80001d90: eb450513     	addi	a0, a0, -0x14c
80001d94: 4585         	li	a1, 0x1
80001d96: 4601         	li	a2, 0x0
80001d98: 00002097     	auipc	ra, 0x2
80001d9c: d42080e7     	jalr	-0x2be(ra) <core::sync::atomic::AtomicU64::fetch_add::hd6a13c485f746a90>
80001da0: bfad         	j	0x80001d1a <.Lpcrel_hi152+0x12>
80001da2: 6542         	ld	a0, 0x10(sp)
80001da4: 0f850513     	addi	a0, a0, 0xf8
80001da8: e02a         	sd	a0, 0x0(sp)
80001daa: ffffe097     	auipc	ra, 0xffffe
80001dae: 548080e7     	jalr	0x548(ra) <lab5_kernel_task4::read_mtval::h5aa05fcce0c961a2>
80001db2: 85aa         	mv	a1, a0
80001db4: 6502         	ld	a0, 0x0(sp)
80001db6: e4ae         	sd	a1, 0x48(sp)
80001db8: 082c         	addi	a1, sp, 0x18
80001dba: f42e         	sd	a1, 0x28(sp)
80001dbc: 100c         	addi	a1, sp, 0x20
80001dbe: f82e         	sd	a1, 0x30(sp)
80001dc0: fc2a         	sd	a0, 0x38(sp)
80001dc2: 00a8         	addi	a0, sp, 0x48
80001dc4: e0aa         	sd	a0, 0x40(sp)
80001dc6: 75a2         	ld	a1, 0x28(sp)
80001dc8: 0908         	addi	a0, sp, 0x90
80001dca: 00001097     	auipc	ra, 0x1
80001dce: 194080e7     	jalr	0x194(ra) <core::fmt::rt::Argument::new_display::hf39fee7a07297fe8>
80001dd2: 75c2         	ld	a1, 0x30(sp)
80001dd4: 1108         	addi	a0, sp, 0xa0
80001dd6: 00001097     	auipc	ra, 0x1
80001dda: 1cc080e7     	jalr	0x1cc(ra) <core::fmt::rt::Argument::new_lower_hex::he3e4b83e741bf983>
80001dde: 75e2         	ld	a1, 0x38(sp)
80001de0: 1908         	addi	a0, sp, 0xb0
80001de2: 00001097     	auipc	ra, 0x1
80001de6: 1c0080e7     	jalr	0x1c0(ra) <core::fmt::rt::Argument::new_lower_hex::he3e4b83e741bf983>
80001dea: 6586         	ld	a1, 0x40(sp)
80001dec: 0188         	addi	a0, sp, 0xc0
80001dee: 00001097     	auipc	ra, 0x1
80001df2: 1b4080e7     	jalr	0x1b4(ra) <core::fmt::rt::Argument::new_lower_hex::he3e4b83e741bf983>
80001df6: 656a         	ld	a0, 0x98(sp)
80001df8: ecaa         	sd	a0, 0x58(sp)
80001dfa: 654a         	ld	a0, 0x90(sp)
80001dfc: e8aa         	sd	a0, 0x50(sp)
80001dfe: 752a         	ld	a0, 0xa8(sp)
80001e00: f4aa         	sd	a0, 0x68(sp)
80001e02: 750a         	ld	a0, 0xa0(sp)
80001e04: f0aa         	sd	a0, 0x60(sp)
80001e06: 756a         	ld	a0, 0xb8(sp)
80001e08: fcaa         	sd	a0, 0x78(sp)
80001e0a: 754a         	ld	a0, 0xb0(sp)
80001e0c: f8aa         	sd	a0, 0x70(sp)
80001e0e: 652e         	ld	a0, 0xc8(sp)
80001e10: e52a         	sd	a0, 0x88(sp)
80001e12: 650e         	ld	a0, 0xc0(sp)
80001e14: e12a         	sd	a0, 0x80(sp)

0000000080001e16 <.Lpcrel_hi157>:
80001e16: 00004517     	auipc	a0, 0x4
80001e1a: dc250513     	addi	a0, a0, -0x23e
80001e1e: 088c         	addi	a1, sp, 0x50
80001e20: 00002097     	auipc	ra, 0x2
80001e24: d74080e7     	jalr	-0x28c(ra) <core::fmt::Arguments::new::h4c7942bce7874a89>
80001e28: 00001097     	auipc	ra, 0x1
80001e2c: 2e0080e7     	jalr	0x2e0(ra) <lab5_kernel_task4::console::print::hbed2e8a51f9bf136>
80001e30: 4505         	li	a0, 0x1
80001e32: 00000097     	auipc	ra, 0x0
80001e36: e04080e7     	jalr	-0x1fc(ra) <lab5_kernel_task4::qemu_exit::hdb22927d276c8649>
80001e3a: 6562         	ld	a0, 0x18(sp)
80001e3c: fffff097     	auipc	ra, 0xfffff
80001e40: b36080e7     	jalr	-0x4ca(ra) <lab5_kernel_task4::handle_timer_interrupt::hf15e546fffb92eea>
80001e44: a039         	j	0x80001e52 <.Lpcrel_hi157+0x3c>
80001e46: 6562         	ld	a0, 0x18(sp)
80001e48: 00000097     	auipc	ra, 0x0
80001e4c: 94a080e7     	jalr	-0x6b6(ra) <lab5_kernel_task4::handle_machine_software_interrupt::h7af0e1a81a707a5b>
80001e50: a009         	j	0x80001e52 <.Lpcrel_hi157+0x3c>
80001e52: 60ee         	ld	ra, 0xd8(sp)
80001e54: 612d         	addi	sp, sp, 0xe0
80001e56: 8082         	ret

0000000080001e58 <start_primary>:
80001e58: 7165         	addi	sp, sp, -0x190
80001e5a: e706         	sd	ra, 0x188(sp)
80001e5c: 00000097     	auipc	ra, 0x0
80001e60: a3e080e7     	jalr	-0x5c2(ra) <lab5_kernel_task4::clear_bss::h353f270f30a0ab0a>
80001e64: fffff097     	auipc	ra, 0xfffff
80001e68: 532080e7     	jalr	0x532(ra) <lab5_kernel_task4::initialize_global_state::h84d8dd343f2afb08>

0000000080001e6c <.Lpcrel_hi158>:
80001e6c: 00004517     	auipc	a0, 0x4
80001e70: db950513     	addi	a0, a0, -0x247
80001e74: 45e9         	li	a1, 0x1a
80001e76: 00002097     	auipc	ra, 0x2
80001e7a: e12080e7     	jalr	-0x1ee(ra) <core::fmt::Arguments::from_str::hd2d42c7bad8a9404>
80001e7e: 00001097     	auipc	ra, 0x1
80001e82: 28a080e7     	jalr	0x28a(ra) <lab5_kernel_task4::console::print::hbed2e8a51f9bf136>

0000000080001e86 <.Lpcrel_hi159>:
80001e86: 00004517     	auipc	a0, 0x4
80001e8a: db950513     	addi	a0, a0, -0x247
80001e8e: 04400593     	li	a1, 0x44
80001e92: 00002097     	auipc	ra, 0x2
80001e96: df6080e7     	jalr	-0x20a(ra) <core::fmt::Arguments::from_str::hd2d42c7bad8a9404>
80001e9a: 00001097     	auipc	ra, 0x1
80001e9e: 26e080e7     	jalr	0x26e(ra) <lab5_kernel_task4::console::print::hbed2e8a51f9bf136>

0000000080001ea2 <.Lpcrel_hi160>:
80001ea2: 00003517     	auipc	a0, 0x3
80001ea6: fce50513     	addi	a0, a0, -0x32
80001eaa: e42a         	sd	a0, 0x8(sp)
80001eac: e82a         	sd	a0, 0x10(sp)

0000000080001eae <.Lpcrel_hi161>:
80001eae: 00003517     	auipc	a0, 0x3
80001eb2: f7a50513     	addi	a0, a0, -0x86
80001eb6: ec2a         	sd	a0, 0x18(sp)

0000000080001eb8 <.Lpcrel_hi162>:
80001eb8: 00003517     	auipc	a0, 0x3
80001ebc: f6850513     	addi	a0, a0, -0x98
80001ec0: f02a         	sd	a0, 0x20(sp)
80001ec2: 65c2         	ld	a1, 0x10(sp)
80001ec4: 08a8         	addi	a0, sp, 0x58
80001ec6: 00001097     	auipc	ra, 0x1
80001eca: 098080e7     	jalr	0x98(ra) <core::fmt::rt::Argument::new_display::hf39fee7a07297fe8>
80001ece: 65e2         	ld	a1, 0x18(sp)
80001ed0: 10a8         	addi	a0, sp, 0x68
80001ed2: 00001097     	auipc	ra, 0x1
80001ed6: 08c080e7     	jalr	0x8c(ra) <core::fmt::rt::Argument::new_display::hf39fee7a07297fe8>
80001eda: 7582         	ld	a1, 0x20(sp)
80001edc: 18a8         	addi	a0, sp, 0x78
80001ede: 00001097     	auipc	ra, 0x1
80001ee2: 080080e7     	jalr	0x80(ra) <core::fmt::rt::Argument::new_display::hf39fee7a07297fe8>
80001ee6: 7506         	ld	a0, 0x60(sp)
80001ee8: f82a         	sd	a0, 0x30(sp)
80001eea: 6566         	ld	a0, 0x58(sp)
80001eec: f42a         	sd	a0, 0x28(sp)
80001eee: 7546         	ld	a0, 0x70(sp)
80001ef0: e0aa         	sd	a0, 0x40(sp)
80001ef2: 7526         	ld	a0, 0x68(sp)
80001ef4: fc2a         	sd	a0, 0x38(sp)
80001ef6: 650a         	ld	a0, 0x80(sp)
80001ef8: e8aa         	sd	a0, 0x50(sp)
80001efa: 7566         	ld	a0, 0x78(sp)
80001efc: e4aa         	sd	a0, 0x48(sp)

0000000080001efe <.Lpcrel_hi163>:
80001efe: 00003517     	auipc	a0, 0x3
80001f02: 09050513     	addi	a0, a0, 0x90
80001f06: 102c         	addi	a1, sp, 0x28
80001f08: 00002097     	auipc	ra, 0x2
80001f0c: ca0080e7     	jalr	-0x360(ra) <core::fmt::Arguments::new::h94b9a88c512adfd8>
80001f10: 00001097     	auipc	ra, 0x1
80001f14: 1f8080e7     	jalr	0x1f8(ra) <lab5_kernel_task4::console::print::hbed2e8a51f9bf136>

0000000080001f18 <.Lpcrel_hi164>:
80001f18: 00004517     	auipc	a0, 0x4
80001f1c: d6b50513     	addi	a0, a0, -0x295
80001f20: 07e00593     	li	a1, 0x7e
80001f24: 00002097     	auipc	ra, 0x2
80001f28: d64080e7     	jalr	-0x29c(ra) <core::fmt::Arguments::from_str::hd2d42c7bad8a9404>
80001f2c: 00001097     	auipc	ra, 0x1
80001f30: 1dc080e7     	jalr	0x1dc(ra) <lab5_kernel_task4::console::print::hbed2e8a51f9bf136>
80001f34: 6505         	lui	a0, 0x1
80001f36: e02a         	sd	a0, 0x0(sp)
80001f38: 9c450513     	addi	a0, a0, -0x63c
80001f3c: ffffe097     	auipc	ra, 0xffffe
80001f40: 3ee080e7     	jalr	0x3ee(ra) <lab5_kernel_task4::ticks_to_us::h637b802cc72f0821>
80001f44: 85aa         	mv	a1, a0
80001f46: 6502         	ld	a0, 0x0(sp)
80001f48: fd2e         	sd	a1, 0xb8(sp)
80001f4a: 19450513     	addi	a0, a0, 0x194
80001f4e: ffffe097     	auipc	ra, 0xffffe
80001f52: 3dc080e7     	jalr	0x3dc(ra) <lab5_kernel_task4::ticks_to_us::h637b802cc72f0821>
80001f56: 85aa         	mv	a1, a0
80001f58: 6522         	ld	a0, 0x8(sp)
80001f5a: e1ae         	sd	a1, 0xc0(sp)

0000000080001f5c <.Lpcrel_hi165>:
80001f5c: 00003597     	auipc	a1, 0x3
80001f60: ed458593     	addi	a1, a1, -0x12c
80001f64: e52e         	sd	a1, 0x88(sp)
80001f66: 192c         	addi	a1, sp, 0xb8
80001f68: e92e         	sd	a1, 0x90(sp)

0000000080001f6a <.Lpcrel_hi166>:
80001f6a: 00003597     	auipc	a1, 0x3
80001f6e: ef658593     	addi	a1, a1, -0x10a
80001f72: ed2e         	sd	a1, 0x98(sp)
80001f74: 018c         	addi	a1, sp, 0xc0
80001f76: f12e         	sd	a1, 0xa0(sp)

0000000080001f78 <.Lpcrel_hi167>:
80001f78: 00003597     	auipc	a1, 0x3
80001f7c: ef058593     	addi	a1, a1, -0x110
80001f80: f52e         	sd	a1, 0xa8(sp)
80001f82: f92a         	sd	a0, 0xb0(sp)
80001f84: 65aa         	ld	a1, 0x88(sp)
80001f86: 1228         	addi	a0, sp, 0x128
80001f88: 00001097     	auipc	ra, 0x1
80001f8c: f92080e7     	jalr	-0x6e(ra) <core::fmt::rt::Argument::new_display::h54aaa8f47c7175a2>
80001f90: 65ca         	ld	a1, 0x90(sp)
80001f92: 1a28         	addi	a0, sp, 0x138
80001f94: 00001097     	auipc	ra, 0x1
80001f98: f86080e7     	jalr	-0x7a(ra) <core::fmt::rt::Argument::new_display::h54aaa8f47c7175a2>
80001f9c: 65ea         	ld	a1, 0x98(sp)
80001f9e: 02a8         	addi	a0, sp, 0x148
80001fa0: 00001097     	auipc	ra, 0x1
80001fa4: f7a080e7     	jalr	-0x86(ra) <core::fmt::rt::Argument::new_display::h54aaa8f47c7175a2>
80001fa8: 758a         	ld	a1, 0xa0(sp)
80001faa: 0aa8         	addi	a0, sp, 0x158
80001fac: 00001097     	auipc	ra, 0x1
80001fb0: f6e080e7     	jalr	-0x92(ra) <core::fmt::rt::Argument::new_display::h54aaa8f47c7175a2>
80001fb4: 75aa         	ld	a1, 0xa8(sp)
80001fb6: 12a8         	addi	a0, sp, 0x168
80001fb8: 00001097     	auipc	ra, 0x1
80001fbc: f62080e7     	jalr	-0x9e(ra) <core::fmt::rt::Argument::new_display::h54aaa8f47c7175a2>
80001fc0: 75ca         	ld	a1, 0xb0(sp)
80001fc2: 1aa8         	addi	a0, sp, 0x178
80001fc4: 00001097     	auipc	ra, 0x1
80001fc8: f56080e7     	jalr	-0xaa(ra) <core::fmt::rt::Argument::new_display::h54aaa8f47c7175a2>
80001fcc: 7552         	ld	a0, 0x130(sp)
80001fce: e9aa         	sd	a0, 0xd0(sp)
80001fd0: 7532         	ld	a0, 0x128(sp)
80001fd2: e5aa         	sd	a0, 0xc8(sp)
80001fd4: 6516         	ld	a0, 0x140(sp)
80001fd6: f1aa         	sd	a0, 0xe0(sp)
80001fd8: 7572         	ld	a0, 0x138(sp)
80001fda: edaa         	sd	a0, 0xd8(sp)
80001fdc: 6556         	ld	a0, 0x150(sp)
80001fde: f9aa         	sd	a0, 0xf0(sp)
80001fe0: 6536         	ld	a0, 0x148(sp)
80001fe2: f5aa         	sd	a0, 0xe8(sp)
80001fe4: 7516         	ld	a0, 0x160(sp)
80001fe6: e22a         	sd	a0, 0x100(sp)
80001fe8: 6576         	ld	a0, 0x158(sp)
80001fea: fdaa         	sd	a0, 0xf8(sp)
80001fec: 7556         	ld	a0, 0x170(sp)
80001fee: ea2a         	sd	a0, 0x110(sp)
80001ff0: 7536         	ld	a0, 0x168(sp)
80001ff2: e62a         	sd	a0, 0x108(sp)
80001ff4: 651a         	ld	a0, 0x180(sp)
80001ff6: f22a         	sd	a0, 0x120(sp)
80001ff8: 7576         	ld	a0, 0x178(sp)
80001ffa: ee2a         	sd	a0, 0x118(sp)

0000000080001ffc <.Lpcrel_hi168>:
80001ffc: 00003517     	auipc	a0, 0x3
80002000: 03d50513     	addi	a0, a0, 0x3d
80002004: 01ac         	addi	a1, sp, 0xc8
80002006: 00002097     	auipc	ra, 0x2
8000200a: b66080e7     	jalr	-0x49a(ra) <core::fmt::Arguments::new::h0d279cd06f713579>
8000200e: 00001097     	auipc	ra, 0x1
80002012: 0fa080e7     	jalr	0xfa(ra) <lab5_kernel_task4::console::print::hbed2e8a51f9bf136>
80002016: ffffe097     	auipc	ra, 0xffffe
8000201a: 780080e7     	jalr	0x780(ra) <lab5_kernel_task4::configure_pmp::hd9c2b6560f7e1365>
8000201e: fffff097     	auipc	ra, 0xfffff
80002022: 6fa080e7     	jalr	0x6fa(ra) <lab5_kernel_task4::release_secondary_harts::h761e719ff3a522da>
80002026: 4501         	li	a0, 0x0
80002028: 4585         	li	a1, 0x1
8000202a: 00000097     	auipc	ra, 0x0
8000202e: 8f2080e7     	jalr	-0x70e(ra) <lab5_kernel_task4::hart_main::h81c8f5a3e8035195>

0000000080002032 <start_secondary>:
80002032: 1101         	addi	sp, sp, -0x20
80002034: ec06         	sd	ra, 0x18(sp)
80002036: e42a         	sd	a0, 0x8(sp)
80002038: e82a         	sd	a0, 0x10(sp)
8000203a: 4591         	li	a1, 0x4
8000203c: 00b56463     	bltu	a0, a1, 0x80002044 <start_secondary+0x12>
80002040: a009         	j	0x80002042 <start_secondary+0x10>
80002042: a819         	j	0x80002058 <start_secondary+0x26>
80002044: ffffe097     	auipc	ra, 0xffffe
80002048: 752080e7     	jalr	0x752(ra) <lab5_kernel_task4::configure_pmp::hd9c2b6560f7e1365>
8000204c: 6522         	ld	a0, 0x8(sp)
8000204e: 4581         	li	a1, 0x0
80002050: 00000097     	auipc	ra, 0x0
80002054: 8cc080e7     	jalr	-0x734(ra) <lab5_kernel_task4::hart_main::h81c8f5a3e8035195>
80002058: 0100000f     	fence	w, 0
8000205c: bff5         	j	0x80002058 <start_secondary+0x26>

000000008000205e <core::slice::raw::from_raw_parts::precondition_check::h7b4080893911aa93>:
8000205e: 7119         	addi	sp, sp, -0x80
80002060: fc86         	sd	ra, 0x78(sp)
80002062: e43a         	sd	a4, 0x8(sp)
80002064: e836         	sd	a3, 0x10(sp)
80002066: ec32         	sd	a2, 0x18(sp)
80002068: 862e         	mv	a2, a1
8000206a: 65e2         	ld	a1, 0x18(sp)
8000206c: f032         	sd	a2, 0x20(sp)
8000206e: f42a         	sd	a0, 0x28(sp)
80002070: fc2a         	sd	a0, 0x38(sp)
80002072: e0b2         	sd	a2, 0x40(sp)
80002074: e4ae         	sd	a1, 0x48(sp)
80002076: e8b6         	sd	a3, 0x50(sp)
80002078: 4601         	li	a2, 0x0
8000207a: 04c10fa3     	sb	a2, 0x5f(sp)
8000207e: f0aa         	sd	a0, 0x60(sp)
80002080: 00002097     	auipc	ra, 0x2
80002084: c16080e7     	jalr	-0x3ea(ra) <core::ptr::const_ptr::_$LT$impl$u20$$BP$const$u20$T$GT$::is_aligned_to::ha71949ecaa4d0304>
80002088: e119         	bnez	a0, 0x8000208e <core::slice::raw::from_raw_parts::precondition_check::h7b4080893911aa93+0x30>
8000208a: a009         	j	0x8000208c <core::slice::raw::from_raw_parts::precondition_check::h7b4080893911aa93+0x2e>
8000208c: a021         	j	0x80002094 <core::slice::raw::from_raw_parts::precondition_check::h7b4080893911aa93+0x36>
8000208e: 7522         	ld	a0, 0x28(sp)
80002090: e119         	bnez	a0, 0x80002096 <core::slice::raw::from_raw_parts::precondition_check::h7b4080893911aa93+0x38>
80002092: a009         	j	0x80002094 <core::slice::raw::from_raw_parts::precondition_check::h7b4080893911aa93+0x36>
80002094: a039         	j	0x800020a2 <core::slice::raw::from_raw_parts::precondition_check::h7b4080893911aa93+0x44>
80002096: 7502         	ld	a0, 0x20(sp)
80002098: 00153593     	seqz	a1, a0
8000209c: e02e         	sd	a1, 0x0(sp)
8000209e: c115         	beqz	a0, 0x800020c2 <.Lpcrel_hi0+0x1e>
800020a0: a025         	j	0x800020c8 <.Lpcrel_hi0+0x24>
800020a2: 66a2         	ld	a3, 0x8(sp)

00000000800020a4 <.Lpcrel_hi0>:
800020a4: 00004517     	auipc	a0, 0x4
800020a8: c7c50513     	addi	a0, a0, -0x384
800020ac: f4aa         	sd	a0, 0x68(sp)
800020ae: 11700593     	li	a1, 0x117
800020b2: f8ae         	sd	a1, 0x70(sp)
800020b4: 22f00593     	li	a1, 0x22f
800020b8: 4601         	li	a2, 0x0
800020ba: 00003097     	auipc	ra, 0x3
800020be: b68080e7     	jalr	-0x498(ra) <core::panicking::panic_nounwind_fmt::h2e018e50a8d3bc73>
800020c2: 557d         	li	a0, -0x1
800020c4: f82a         	sd	a0, 0x30(sp)
800020c6: a029         	j	0x800020d0 <.Lpcrel_hi0+0x2c>
800020c8: 6502         	ld	a0, 0x0(sp)
800020ca: 8905         	andi	a0, a0, 0x1
800020cc: ed11         	bnez	a0, 0x800020e8 <.Lpcrel_hi1>
800020ce: a031         	j	0x800020da <.Lpcrel_hi0+0x36>
800020d0: 65c2         	ld	a1, 0x10(sp)
800020d2: 7542         	ld	a0, 0x30(sp)
800020d4: 02b57363     	bgeu	a0, a1, 0x800020fa <.Lpcrel_hi1+0x12>
800020d8: a005         	j	0x800020f8 <.Lpcrel_hi1+0x10>
800020da: 7582         	ld	a1, 0x20(sp)
800020dc: 557d         	li	a0, -0x1
800020de: 8105         	srli	a0, a0, 0x1
800020e0: 02b55533     	divu	a0, a0, a1
800020e4: f82a         	sd	a0, 0x30(sp)
800020e6: b7ed         	j	0x800020d0 <.Lpcrel_hi0+0x2c>

00000000800020e8 <.Lpcrel_hi1>:
800020e8: 00004517     	auipc	a0, 0x4
800020ec: c2050513     	addi	a0, a0, -0x3e0
800020f0: 00003097     	auipc	ra, 0x3
800020f4: a60080e7     	jalr	-0x5a0(ra) <core::panicking::panic_const::panic_const_div_by_zero::hcfde4c26e8ecfc4b>
800020f8: b76d         	j	0x800020a2 <core::slice::raw::from_raw_parts::precondition_check::h7b4080893911aa93+0x44>
800020fa: 70e6         	ld	ra, 0x78(sp)
800020fc: 6109         	addi	sp, sp, 0x80
800020fe: 8082         	ret

0000000080002100 <core::slice::raw::from_raw_parts_mut::precondition_check::ha67b1768a8d7b7e8>:
80002100: 7119         	addi	sp, sp, -0x80
80002102: fc86         	sd	ra, 0x78(sp)
80002104: e43a         	sd	a4, 0x8(sp)
80002106: e836         	sd	a3, 0x10(sp)
80002108: ec32         	sd	a2, 0x18(sp)
8000210a: 862e         	mv	a2, a1
8000210c: 65e2         	ld	a1, 0x18(sp)
8000210e: f032         	sd	a2, 0x20(sp)
80002110: f42a         	sd	a0, 0x28(sp)
80002112: fc2a         	sd	a0, 0x38(sp)
80002114: e0b2         	sd	a2, 0x40(sp)
80002116: e4ae         	sd	a1, 0x48(sp)
80002118: e8b6         	sd	a3, 0x50(sp)
8000211a: 4601         	li	a2, 0x0
8000211c: 04c10fa3     	sb	a2, 0x5f(sp)
80002120: f0aa         	sd	a0, 0x60(sp)
80002122: 00002097     	auipc	ra, 0x2
80002126: b74080e7     	jalr	-0x48c(ra) <core::ptr::const_ptr::_$LT$impl$u20$$BP$const$u20$T$GT$::is_aligned_to::ha71949ecaa4d0304>
8000212a: e119         	bnez	a0, 0x80002130 <core::slice::raw::from_raw_parts_mut::precondition_check::ha67b1768a8d7b7e8+0x30>
8000212c: a009         	j	0x8000212e <core::slice::raw::from_raw_parts_mut::precondition_check::ha67b1768a8d7b7e8+0x2e>
8000212e: a021         	j	0x80002136 <core::slice::raw::from_raw_parts_mut::precondition_check::ha67b1768a8d7b7e8+0x36>
80002130: 7522         	ld	a0, 0x28(sp)
80002132: e119         	bnez	a0, 0x80002138 <core::slice::raw::from_raw_parts_mut::precondition_check::ha67b1768a8d7b7e8+0x38>
80002134: a009         	j	0x80002136 <core::slice::raw::from_raw_parts_mut::precondition_check::ha67b1768a8d7b7e8+0x36>
80002136: a039         	j	0x80002144 <core::slice::raw::from_raw_parts_mut::precondition_check::ha67b1768a8d7b7e8+0x44>
80002138: 7502         	ld	a0, 0x20(sp)
8000213a: 00153593     	seqz	a1, a0
8000213e: e02e         	sd	a1, 0x0(sp)
80002140: c115         	beqz	a0, 0x80002164 <.Lpcrel_hi2+0x1e>
80002142: a025         	j	0x8000216a <.Lpcrel_hi2+0x24>
80002144: 66a2         	ld	a3, 0x8(sp)

0000000080002146 <.Lpcrel_hi2>:
80002146: 00004517     	auipc	a0, 0x4
8000214a: cf150513     	addi	a0, a0, -0x30f
8000214e: f4aa         	sd	a0, 0x68(sp)
80002150: 11b00593     	li	a1, 0x11b
80002154: f8ae         	sd	a1, 0x70(sp)
80002156: 23700593     	li	a1, 0x237
8000215a: 4601         	li	a2, 0x0
8000215c: 00003097     	auipc	ra, 0x3
80002160: ac6080e7     	jalr	-0x53a(ra) <core::panicking::panic_nounwind_fmt::h2e018e50a8d3bc73>
80002164: 557d         	li	a0, -0x1
80002166: f82a         	sd	a0, 0x30(sp)
80002168: a029         	j	0x80002172 <.Lpcrel_hi2+0x2c>
8000216a: 6502         	ld	a0, 0x0(sp)
8000216c: 8905         	andi	a0, a0, 0x1
8000216e: ed11         	bnez	a0, 0x8000218a <.Lpcrel_hi3>
80002170: a031         	j	0x8000217c <.Lpcrel_hi2+0x36>
80002172: 65c2         	ld	a1, 0x10(sp)
80002174: 7542         	ld	a0, 0x30(sp)
80002176: 02b57363     	bgeu	a0, a1, 0x8000219c <.Lpcrel_hi3+0x12>
8000217a: a005         	j	0x8000219a <.Lpcrel_hi3+0x10>
8000217c: 7582         	ld	a1, 0x20(sp)
8000217e: 557d         	li	a0, -0x1
80002180: 8105         	srli	a0, a0, 0x1
80002182: 02b55533     	divu	a0, a0, a1
80002186: f82a         	sd	a0, 0x30(sp)
80002188: b7ed         	j	0x80002172 <.Lpcrel_hi2+0x2c>

000000008000218a <.Lpcrel_hi3>:
8000218a: 00004517     	auipc	a0, 0x4
8000218e: b7e50513     	addi	a0, a0, -0x482
80002192: 00003097     	auipc	ra, 0x3
80002196: 9be080e7     	jalr	-0x642(ra) <core::panicking::panic_const::panic_const_div_by_zero::hcfde4c26e8ecfc4b>
8000219a: b76d         	j	0x80002144 <core::slice::raw::from_raw_parts_mut::precondition_check::ha67b1768a8d7b7e8+0x44>
8000219c: 70e6         	ld	ra, 0x78(sp)
8000219e: 6109         	addi	sp, sp, 0x80
800021a0: 8082         	ret

00000000800021a2 <lab5_kernel_task4::spinlock::SpinLock$LT$T$GT$::acquisitions::h72b7876cf5f4ec31>:
800021a2: 1141         	addi	sp, sp, -0x10
800021a4: e406         	sd	ra, 0x8(sp)
800021a6: e02a         	sd	a0, 0x0(sp)
800021a8: 4581         	li	a1, 0x0
800021aa: 00002097     	auipc	ra, 0x2
800021ae: 8fe080e7     	jalr	-0x702(ra) <core::sync::atomic::AtomicU64::load::h310be17d02a28ae1>
800021b2: 60a2         	ld	ra, 0x8(sp)
800021b4: 0141         	addi	sp, sp, 0x10
800021b6: 8082         	ret

00000000800021b8 <lab5_kernel_task4::spinlock::SpinLock$LT$T$GT$::contention_spins::h13e27446fce71da4>:
800021b8: 1141         	addi	sp, sp, -0x10
800021ba: e406         	sd	ra, 0x8(sp)
800021bc: e02a         	sd	a0, 0x0(sp)
800021be: 0521         	addi	a0, a0, 0x8
800021c0: 4581         	li	a1, 0x0
800021c2: 00002097     	auipc	ra, 0x2
800021c6: 8e6080e7     	jalr	-0x71a(ra) <core::sync::atomic::AtomicU64::load::h310be17d02a28ae1>
800021ca: 60a2         	ld	ra, 0x8(sp)
800021cc: 0141         	addi	sp, sp, 0x10
800021ce: 8082         	ret

00000000800021d0 <lab5_kernel_task4::spinlock::SpinLock$LT$T$GT$::lock::h2b7ae71d77c12c87>:
800021d0: 715d         	addi	sp, sp, -0x50
800021d2: e486         	sd	ra, 0x48(sp)
800021d4: e42a         	sd	a0, 0x8(sp)
800021d6: f02a         	sd	a0, 0x20(sp)
800021d8: 4501         	li	a0, 0x0
800021da: e82a         	sd	a0, 0x10(sp)
800021dc: a009         	j	0x800021de <lab5_kernel_task4::spinlock::SpinLock$LT$T$GT$::lock::h2b7ae71d77c12c87+0xe>
800021de: 6522         	ld	a0, 0x8(sp)
800021e0: 02850513     	addi	a0, a0, 0x28
800021e4: 4605         	li	a2, 0x1
800021e6: 4689         	li	a3, 0x2
800021e8: 4701         	li	a4, 0x0
800021ea: 85ba         	mv	a1, a4
800021ec: 00001097     	auipc	ra, 0x1
800021f0: 4f2080e7     	jalr	0x4f2(ra) <core::sync::atomic::AtomicBool::compare_exchange_weak::hb6a33b517124d973>
800021f4: 8905         	andi	a0, a0, 0x1
800021f6: 00a10f23     	sb	a0, 0x1e(sp)
800021fa: 00b10fa3     	sb	a1, 0x1f(sp)
800021fe: 01e10513     	addi	a0, sp, 0x1e
80002202: 00001097     	auipc	ra, 0x1
80002206: c68080e7     	jalr	-0x398(ra) <core::result::Result$LT$T$C$E$GT$::is_ok::hf28f2643275208c8>
8000220a: ed09         	bnez	a0, 0x80002224 <lab5_kernel_task4::spinlock::SpinLock$LT$T$GT$::lock::h2b7ae71d77c12c87+0x54>
8000220c: a009         	j	0x8000220e <lab5_kernel_task4::spinlock::SpinLock$LT$T$GT$::lock::h2b7ae71d77c12c87+0x3e>
8000220e: a009         	j	0x80002210 <lab5_kernel_task4::spinlock::SpinLock$LT$T$GT$::lock::h2b7ae71d77c12c87+0x40>
80002210: 6522         	ld	a0, 0x8(sp)
80002212: 02850513     	addi	a0, a0, 0x28
80002216: 4581         	li	a1, 0x0
80002218: 00001097     	auipc	ra, 0x1
8000221c: 4ea080e7     	jalr	0x4ea(ra) <core::sync::atomic::AtomicBool::load::h77ebd9d5a9aba964>
80002220: e11d         	bnez	a0, 0x80002246 <lab5_kernel_task4::spinlock::SpinLock$LT$T$GT$::lock::h2b7ae71d77c12c87+0x76>
80002222: a819         	j	0x80002238 <lab5_kernel_task4::spinlock::SpinLock$LT$T$GT$::lock::h2b7ae71d77c12c87+0x68>
80002224: 6522         	ld	a0, 0x8(sp)
80002226: 4585         	li	a1, 0x1
80002228: 4601         	li	a2, 0x0
8000222a: 00002097     	auipc	ra, 0x2
8000222e: 8b0080e7     	jalr	-0x750(ra) <core::sync::atomic::AtomicU64::fetch_add::hd6a13c485f746a90>
80002232: 6542         	ld	a0, 0x10(sp)
80002234: e515         	bnez	a0, 0x80002260 <lab5_kernel_task4::spinlock::SpinLock$LT$T$GT$::lock::h2b7ae71d77c12c87+0x90>
80002236: a00d         	j	0x80002258 <lab5_kernel_task4::spinlock::SpinLock$LT$T$GT$::lock::h2b7ae71d77c12c87+0x88>
80002238: 6542         	ld	a0, 0x10(sp)
8000223a: fc2a         	sd	a0, 0x38(sp)
8000223c: 4585         	li	a1, 0x1
8000223e: e0ae         	sd	a1, 0x40(sp)
80002240: 0505         	addi	a0, a0, 0x1
80002242: e82a         	sd	a0, 0x10(sp)
80002244: bf69         	j	0x800021de <lab5_kernel_task4::spinlock::SpinLock$LT$T$GT$::lock::h2b7ae71d77c12c87+0xe>
80002246: 6542         	ld	a0, 0x10(sp)
80002248: f42a         	sd	a0, 0x28(sp)
8000224a: 4585         	li	a1, 0x1
8000224c: f82e         	sd	a1, 0x30(sp)
8000224e: 0505         	addi	a0, a0, 0x1
80002250: e82a         	sd	a0, 0x10(sp)
80002252: 0100000f     	fence	w, 0
80002256: bf6d         	j	0x80002210 <lab5_kernel_task4::spinlock::SpinLock$LT$T$GT$::lock::h2b7ae71d77c12c87+0x40>
80002258: 6522         	ld	a0, 0x8(sp)
8000225a: 60a6         	ld	ra, 0x48(sp)
8000225c: 6161         	addi	sp, sp, 0x50
8000225e: 8082         	ret
80002260: 6522         	ld	a0, 0x8(sp)
80002262: 0521         	addi	a0, a0, 0x8
80002264: 65c2         	ld	a1, 0x10(sp)
80002266: 4601         	li	a2, 0x0
80002268: 00002097     	auipc	ra, 0x2
8000226c: 872080e7     	jalr	-0x78e(ra) <core::sync::atomic::AtomicU64::fetch_add::hd6a13c485f746a90>
80002270: b7e5         	j	0x80002258 <lab5_kernel_task4::spinlock::SpinLock$LT$T$GT$::lock::h2b7ae71d77c12c87+0x88>

0000000080002272 <lab5_kernel_task4::spinlock::SpinLock$LT$T$GT$::lock::hb51c34a285e36840>:
80002272: 715d         	addi	sp, sp, -0x50
80002274: e486         	sd	ra, 0x48(sp)
80002276: e42a         	sd	a0, 0x8(sp)
80002278: f02a         	sd	a0, 0x20(sp)
8000227a: 4501         	li	a0, 0x0
8000227c: e82a         	sd	a0, 0x10(sp)
8000227e: a009         	j	0x80002280 <lab5_kernel_task4::spinlock::SpinLock$LT$T$GT$::lock::hb51c34a285e36840+0xe>
80002280: 6522         	ld	a0, 0x8(sp)
80002282: 0541         	addi	a0, a0, 0x10
80002284: 4605         	li	a2, 0x1
80002286: 4689         	li	a3, 0x2
80002288: 4701         	li	a4, 0x0
8000228a: 85ba         	mv	a1, a4
8000228c: 00001097     	auipc	ra, 0x1
80002290: 452080e7     	jalr	0x452(ra) <core::sync::atomic::AtomicBool::compare_exchange_weak::hb6a33b517124d973>
80002294: 8905         	andi	a0, a0, 0x1
80002296: 00a10f23     	sb	a0, 0x1e(sp)
8000229a: 00b10fa3     	sb	a1, 0x1f(sp)
8000229e: 01e10513     	addi	a0, sp, 0x1e
800022a2: 00001097     	auipc	ra, 0x1
800022a6: bc8080e7     	jalr	-0x438(ra) <core::result::Result$LT$T$C$E$GT$::is_ok::hf28f2643275208c8>
800022aa: ed01         	bnez	a0, 0x800022c2 <lab5_kernel_task4::spinlock::SpinLock$LT$T$GT$::lock::hb51c34a285e36840+0x50>
800022ac: a009         	j	0x800022ae <lab5_kernel_task4::spinlock::SpinLock$LT$T$GT$::lock::hb51c34a285e36840+0x3c>
800022ae: a009         	j	0x800022b0 <lab5_kernel_task4::spinlock::SpinLock$LT$T$GT$::lock::hb51c34a285e36840+0x3e>
800022b0: 6522         	ld	a0, 0x8(sp)
800022b2: 0541         	addi	a0, a0, 0x10
800022b4: 4581         	li	a1, 0x0
800022b6: 00001097     	auipc	ra, 0x1
800022ba: 44c080e7     	jalr	0x44c(ra) <core::sync::atomic::AtomicBool::load::h77ebd9d5a9aba964>
800022be: e11d         	bnez	a0, 0x800022e4 <lab5_kernel_task4::spinlock::SpinLock$LT$T$GT$::lock::hb51c34a285e36840+0x72>
800022c0: a819         	j	0x800022d6 <lab5_kernel_task4::spinlock::SpinLock$LT$T$GT$::lock::hb51c34a285e36840+0x64>
800022c2: 6522         	ld	a0, 0x8(sp)
800022c4: 4585         	li	a1, 0x1
800022c6: 4601         	li	a2, 0x0
800022c8: 00002097     	auipc	ra, 0x2
800022cc: 812080e7     	jalr	-0x7ee(ra) <core::sync::atomic::AtomicU64::fetch_add::hd6a13c485f746a90>
800022d0: 6542         	ld	a0, 0x10(sp)
800022d2: e515         	bnez	a0, 0x800022fe <lab5_kernel_task4::spinlock::SpinLock$LT$T$GT$::lock::hb51c34a285e36840+0x8c>
800022d4: a00d         	j	0x800022f6 <lab5_kernel_task4::spinlock::SpinLock$LT$T$GT$::lock::hb51c34a285e36840+0x84>
800022d6: 6542         	ld	a0, 0x10(sp)
800022d8: fc2a         	sd	a0, 0x38(sp)
800022da: 4585         	li	a1, 0x1
800022dc: e0ae         	sd	a1, 0x40(sp)
800022de: 0505         	addi	a0, a0, 0x1
800022e0: e82a         	sd	a0, 0x10(sp)
800022e2: bf79         	j	0x80002280 <lab5_kernel_task4::spinlock::SpinLock$LT$T$GT$::lock::hb51c34a285e36840+0xe>
800022e4: 6542         	ld	a0, 0x10(sp)
800022e6: f42a         	sd	a0, 0x28(sp)
800022e8: 4585         	li	a1, 0x1
800022ea: f82e         	sd	a1, 0x30(sp)
800022ec: 0505         	addi	a0, a0, 0x1
800022ee: e82a         	sd	a0, 0x10(sp)
800022f0: 0100000f     	fence	w, 0
800022f4: bf75         	j	0x800022b0 <lab5_kernel_task4::spinlock::SpinLock$LT$T$GT$::lock::hb51c34a285e36840+0x3e>
800022f6: 6522         	ld	a0, 0x8(sp)
800022f8: 60a6         	ld	ra, 0x48(sp)
800022fa: 6161         	addi	sp, sp, 0x50
800022fc: 8082         	ret
800022fe: 6522         	ld	a0, 0x8(sp)
80002300: 0521         	addi	a0, a0, 0x8
80002302: 65c2         	ld	a1, 0x10(sp)
80002304: 4601         	li	a2, 0x0
80002306: 00001097     	auipc	ra, 0x1
8000230a: 7d4080e7     	jalr	0x7d4(ra) <core::sync::atomic::AtomicU64::fetch_add::hd6a13c485f746a90>
8000230e: b7e5         	j	0x800022f6 <lab5_kernel_task4::spinlock::SpinLock$LT$T$GT$::lock::hb51c34a285e36840+0x84>

0000000080002310 <_$LT$lab5_kernel_task4..spinlock..SpinLockGuard$LT$T$GT$$u20$as$u20$core..ops..deref..Deref$GT$::deref::h5799ba4cd87e6252>:
80002310: 1101         	addi	sp, sp, -0x20
80002312: e82a         	sd	a0, 0x10(sp)
80002314: 6108         	ld	a0, 0x0(a0)
80002316: 0541         	addi	a0, a0, 0x10
80002318: e02a         	sd	a0, 0x0(sp)
8000231a: 85aa         	mv	a1, a0
8000231c: e42e         	sd	a1, 0x8(sp)
8000231e: ec2a         	sd	a0, 0x18(sp)
80002320: 891d         	andi	a0, a0, 0x7
80002322: e509         	bnez	a0, 0x8000232c <_$LT$lab5_kernel_task4..spinlock..SpinLockGuard$LT$T$GT$$u20$as$u20$core..ops..deref..Deref$GT$::deref::h5799ba4cd87e6252+0x1c>
80002324: a009         	j	0x80002326 <_$LT$lab5_kernel_task4..spinlock..SpinLockGuard$LT$T$GT$$u20$as$u20$core..ops..deref..Deref$GT$::deref::h5799ba4cd87e6252+0x16>
80002326: 6522         	ld	a0, 0x8(sp)
80002328: ed01         	bnez	a0, 0x80002340 <.Lpcrel_hi0+0x12>
8000232a: a831         	j	0x80002346 <.Lpcrel_hi1>
8000232c: 6582         	ld	a1, 0x0(sp)

000000008000232e <.Lpcrel_hi0>:
8000232e: 00004517     	auipc	a0, 0x4
80002332: c2a50613     	addi	a2, a0, -0x3d6
80002336: 4521         	li	a0, 0x8
80002338: 00003097     	auipc	ra, 0x3
8000233c: 93a080e7     	jalr	-0x6c6(ra) <core::panicking::panic_misaligned_pointer_dereference::hda85f7fb51d959f0>
80002340: 6522         	ld	a0, 0x8(sp)
80002342: 6105         	addi	sp, sp, 0x20
80002344: 8082         	ret

0000000080002346 <.Lpcrel_hi1>:
80002346: 00004517     	auipc	a0, 0x4
8000234a: c1250513     	addi	a0, a0, -0x3ee
8000234e: 00003097     	auipc	ra, 0x3
80002352: 904080e7     	jalr	-0x6fc(ra) <core::panicking::panic_null_pointer_dereference::hbac6411af4f2e916>

0000000080002356 <_$LT$lab5_kernel_task4..spinlock..SpinLockGuard$LT$T$GT$$u20$as$u20$core..ops..deref..DerefMut$GT$::deref_mut::h771571a091005672>:
80002356: 1101         	addi	sp, sp, -0x20
80002358: e82a         	sd	a0, 0x10(sp)
8000235a: 6108         	ld	a0, 0x0(a0)
8000235c: 0541         	addi	a0, a0, 0x10
8000235e: e02a         	sd	a0, 0x0(sp)
80002360: 85aa         	mv	a1, a0
80002362: e42e         	sd	a1, 0x8(sp)
80002364: ec2a         	sd	a0, 0x18(sp)
80002366: 891d         	andi	a0, a0, 0x7
80002368: e509         	bnez	a0, 0x80002372 <_$LT$lab5_kernel_task4..spinlock..SpinLockGuard$LT$T$GT$$u20$as$u20$core..ops..deref..DerefMut$GT$::deref_mut::h771571a091005672+0x1c>
8000236a: a009         	j	0x8000236c <_$LT$lab5_kernel_task4..spinlock..SpinLockGuard$LT$T$GT$$u20$as$u20$core..ops..deref..DerefMut$GT$::deref_mut::h771571a091005672+0x16>
8000236c: 6522         	ld	a0, 0x8(sp)
8000236e: ed01         	bnez	a0, 0x80002386 <.Lpcrel_hi2+0x12>
80002370: a831         	j	0x8000238c <.Lpcrel_hi3>
80002372: 6582         	ld	a1, 0x0(sp)

0000000080002374 <.Lpcrel_hi2>:
80002374: 00004517     	auipc	a0, 0x4
80002378: bfc50613     	addi	a2, a0, -0x404
8000237c: 4521         	li	a0, 0x8
8000237e: 00003097     	auipc	ra, 0x3
80002382: 8f4080e7     	jalr	-0x70c(ra) <core::panicking::panic_misaligned_pointer_dereference::hda85f7fb51d959f0>
80002386: 6522         	ld	a0, 0x8(sp)
80002388: 6105         	addi	sp, sp, 0x20
8000238a: 8082         	ret

000000008000238c <.Lpcrel_hi3>:
8000238c: 00004517     	auipc	a0, 0x4
80002390: be450513     	addi	a0, a0, -0x41c
80002394: 00003097     	auipc	ra, 0x3
80002398: 8be080e7     	jalr	-0x742(ra) <core::panicking::panic_null_pointer_dereference::hbac6411af4f2e916>

000000008000239c <core::num::_$LT$impl$u20$u64$GT$::saturating_mul::hcb90ca880502b96f>:
8000239c: 7139         	addi	sp, sp, -0x40
8000239e: 86ae         	mv	a3, a1
800023a0: 862a         	mv	a2, a0
800023a2: f032         	sd	a2, 0x20(sp)
800023a4: f436         	sd	a3, 0x28(sp)
800023a6: 02d63533     	mulhu	a0, a2, a3
800023aa: 00a035b3     	snez	a1, a0
800023ae: 02d60633     	mul	a2, a2, a3
800023b2: e032         	sd	a2, 0x0(sp)
800023b4: f832         	sd	a2, 0x30(sp)
800023b6: 02b10fa3     	sb	a1, 0x3f(sp)
800023ba: e909         	bnez	a0, 0x800023cc <core::num::_$LT$impl$u20$u64$GT$::saturating_mul::hcb90ca880502b96f+0x30>
800023bc: a009         	j	0x800023be <core::num::_$LT$impl$u20$u64$GT$::saturating_mul::hcb90ca880502b96f+0x22>
800023be: 6502         	ld	a0, 0x0(sp)
800023c0: ec2a         	sd	a0, 0x18(sp)
800023c2: 4505         	li	a0, 0x1
800023c4: e82a         	sd	a0, 0x10(sp)
800023c6: 6562         	ld	a0, 0x18(sp)
800023c8: e42a         	sd	a0, 0x8(sp)
800023ca: a021         	j	0x800023d2 <core::num::_$LT$impl$u20$u64$GT$::saturating_mul::hcb90ca880502b96f+0x36>
800023cc: 557d         	li	a0, -0x1
800023ce: e42a         	sd	a0, 0x8(sp)
800023d0: a009         	j	0x800023d2 <core::num::_$LT$impl$u20$u64$GT$::saturating_mul::hcb90ca880502b96f+0x36>
800023d2: 6522         	ld	a0, 0x8(sp)
800023d4: 6121         	addi	sp, sp, 0x40
800023d6: 8082         	ret

00000000800023d8 <core::num::_$LT$impl$u20$usize$GT$::unchecked_add::precondition_check::h45d15d599d8aa34c>:
800023d8: 7179         	addi	sp, sp, -0x30
800023da: e032         	sd	a2, 0x0(sp)
800023dc: e42e         	sd	a1, 0x8(sp)
800023de: 85aa         	mv	a1, a0
800023e0: 6522         	ld	a0, 0x8(sp)
800023e2: e82e         	sd	a1, 0x10(sp)
800023e4: ec2a         	sd	a0, 0x18(sp)
800023e6: 952e         	add	a0, a0, a1
800023e8: 00b56563     	bltu	a0, a1, 0x800023f2 <core::num::_$LT$impl$u20$usize$GT$::unchecked_add::precondition_check::h45d15d599d8aa34c+0x1a>
800023ec: a009         	j	0x800023ee <core::num::_$LT$impl$u20$usize$GT$::unchecked_add::precondition_check::h45d15d599d8aa34c+0x16>
800023ee: 6145         	addi	sp, sp, 0x30
800023f0: 8082         	ret
800023f2: 6682         	ld	a3, 0x0(sp)

00000000800023f4 <.Lpcrel_hi0>:
800023f4: 00004517     	auipc	a0, 0x4
800023f8: b9450513     	addi	a0, a0, -0x46c
800023fc: f02a         	sd	a0, 0x20(sp)
800023fe: 0ba00593     	li	a1, 0xba
80002402: f42e         	sd	a1, 0x28(sp)
80002404: 17500593     	li	a1, 0x175
80002408: 4601         	li	a2, 0x0
8000240a: 00003097     	auipc	ra, 0x3
8000240e: 818080e7     	jalr	-0x7e8(ra) <core::panicking::panic_nounwind_fmt::h2e018e50a8d3bc73>

0000000080002412 <core::ptr::read_volatile::he20290ed61f6ea67>:
80002412: 7179         	addi	sp, sp, -0x30
80002414: f406         	sd	ra, 0x28(sp)
80002416: e42e         	sd	a1, 0x8(sp)
80002418: e82a         	sd	a0, 0x10(sp)
8000241a: ec2a         	sd	a0, 0x18(sp)
8000241c: a009         	j	0x8000241e <core::ptr::read_volatile::he20290ed61f6ea67+0xc>
8000241e: 6622         	ld	a2, 0x8(sp)
80002420: 6542         	ld	a0, 0x10(sp)
80002422: 45a1         	li	a1, 0x8
80002424: 00001097     	auipc	ra, 0x1
80002428: 9cc080e7     	jalr	-0x634(ra) <core::ptr::read_volatile::precondition_check::hf046cf469b7044a7>
8000242c: a009         	j	0x8000242e <core::ptr::read_volatile::he20290ed61f6ea67+0x1c>
8000242e: 6542         	ld	a0, 0x10(sp)
80002430: 6108         	ld	a0, 0x0(a0)
80002432: f02a         	sd	a0, 0x20(sp)
80002434: 7502         	ld	a0, 0x20(sp)
80002436: 70a2         	ld	ra, 0x28(sp)
80002438: 6145         	addi	sp, sp, 0x30
8000243a: 8082         	ret

000000008000243c <core::ptr::write_volatile::h76c5b42fc52fcdda>:
8000243c: 7179         	addi	sp, sp, -0x30
8000243e: f406         	sd	ra, 0x28(sp)
80002440: e032         	sd	a2, 0x0(sp)
80002442: e42e         	sd	a1, 0x8(sp)
80002444: e82a         	sd	a0, 0x10(sp)
80002446: ec2a         	sd	a0, 0x18(sp)
80002448: f02e         	sd	a1, 0x20(sp)
8000244a: a009         	j	0x8000244c <core::ptr::write_volatile::h76c5b42fc52fcdda+0x10>
8000244c: 6602         	ld	a2, 0x0(sp)
8000244e: 6542         	ld	a0, 0x10(sp)
80002450: 45a1         	li	a1, 0x8
80002452: 00001097     	auipc	ra, 0x1
80002456: 9da080e7     	jalr	-0x626(ra) <core::ptr::write_volatile::precondition_check::h855d8d12fa3f667c>
8000245a: a009         	j	0x8000245c <core::ptr::write_volatile::h76c5b42fc52fcdda+0x20>
8000245c: 6522         	ld	a0, 0x8(sp)
8000245e: 65c2         	ld	a1, 0x10(sp)
80002460: e188         	sd	a0, 0x0(a1)
80002462: 70a2         	ld	ra, 0x28(sp)
80002464: 6145         	addi	sp, sp, 0x30
80002466: 8082         	ret

0000000080002468 <core::ptr::write_volatile::hcafa03912750de8b>:
80002468: 7179         	addi	sp, sp, -0x30
8000246a: f406         	sd	ra, 0x28(sp)
8000246c: e032         	sd	a2, 0x0(sp)
8000246e: e42a         	sd	a0, 0x8(sp)
80002470: 862e         	mv	a2, a1
80002472: e832         	sd	a2, 0x10(sp)
80002474: ec2a         	sd	a0, 0x18(sp)
80002476: 02b103a3     	sb	a1, 0x27(sp)
8000247a: a009         	j	0x8000247c <core::ptr::write_volatile::hcafa03912750de8b+0x14>
8000247c: 6602         	ld	a2, 0x0(sp)
8000247e: 6522         	ld	a0, 0x8(sp)
80002480: 4585         	li	a1, 0x1
80002482: 00001097     	auipc	ra, 0x1
80002486: 9aa080e7     	jalr	-0x656(ra) <core::ptr::write_volatile::precondition_check::h855d8d12fa3f667c>
8000248a: a009         	j	0x8000248c <core::ptr::write_volatile::hcafa03912750de8b+0x24>
8000248c: 6542         	ld	a0, 0x10(sp)
8000248e: 65a2         	ld	a1, 0x8(sp)
80002490: 00a58023     	sb	a0, 0x0(a1)
80002494: 70a2         	ld	ra, 0x28(sp)
80002496: 6145         	addi	sp, sp, 0x30
80002498: 8082         	ret

000000008000249a <core::ptr::write_volatile::hdca7891ed6676f43>:
8000249a: 7179         	addi	sp, sp, -0x30
8000249c: f406         	sd	ra, 0x28(sp)
8000249e: e032         	sd	a2, 0x0(sp)
800024a0: e42a         	sd	a0, 0x8(sp)
800024a2: 862e         	mv	a2, a1
800024a4: e832         	sd	a2, 0x10(sp)
800024a6: ec2a         	sd	a0, 0x18(sp)
800024a8: d22e         	sw	a1, 0x24(sp)
800024aa: a009         	j	0x800024ac <core::ptr::write_volatile::hdca7891ed6676f43+0x12>
800024ac: 6602         	ld	a2, 0x0(sp)
800024ae: 6522         	ld	a0, 0x8(sp)
800024b0: 4591         	li	a1, 0x4
800024b2: 00001097     	auipc	ra, 0x1
800024b6: 97a080e7     	jalr	-0x686(ra) <core::ptr::write_volatile::precondition_check::h855d8d12fa3f667c>
800024ba: a009         	j	0x800024bc <core::ptr::write_volatile::hdca7891ed6676f43+0x22>
800024bc: 6542         	ld	a0, 0x10(sp)
800024be: 65a2         	ld	a1, 0x8(sp)
800024c0: c188         	sw	a0, 0x0(a1)
800024c2: 70a2         	ld	ra, 0x28(sp)
800024c4: 6145         	addi	sp, sp, 0x30
800024c6: 8082         	ret

00000000800024c8 <lab5_kernel_task4::worker_loop::_$u7b$$u7b$closure$u7d$$u7d$::hbf56722b962c082e>:
800024c8: 7159         	addi	sp, sp, -0x70
800024ca: f486         	sd	ra, 0x68(sp)
800024cc: e832         	sd	a2, 0x10(sp)
800024ce: ec2e         	sd	a1, 0x18(sp)
800024d0: f02a         	sd	a0, 0x20(sp)
800024d2: f82a         	sd	a0, 0x30(sp)
800024d4: fc2e         	sd	a1, 0x38(sp)
800024d6: e0b2         	sd	a2, 0x40(sp)
800024d8: 620c         	ld	a1, 0x0(a2)
800024da: 00158513     	addi	a0, a1, 0x1
800024de: f42a         	sd	a0, 0x28(sp)
800024e0: 06b56063     	bltu	a0, a1, 0x80002540 <.Lpcrel_hi0>
800024e4: a009         	j	0x800024e6 <lab5_kernel_task4::worker_loop::_$u7b$$u7b$closure$u7d$$u7d$::hbf56722b962c082e+0x1e>
800024e6: 7602         	ld	a2, 0x20(sp)
800024e8: 6562         	ld	a0, 0x18(sp)
800024ea: 65c2         	ld	a1, 0x10(sp)
800024ec: 76a2         	ld	a3, 0x28(sp)
800024ee: e194         	sd	a3, 0x0(a1)
800024f0: 6210         	ld	a2, 0x0(a2)
800024f2: e990         	sd	a2, 0x10(a1)
800024f4: 6108         	ld	a0, 0x0(a0)
800024f6: 6590         	ld	a2, 0x8(a1)
800024f8: 8d31         	xor	a0, a0, a2
800024fa: 618c         	ld	a1, 0x0(a1)
800024fc: 8d2d         	xor	a0, a0, a1
800024fe: 20000593     	li	a1, 0x200
80002502: fffff097     	auipc	ra, 0xfffff
80002506: 2ec080e7     	jalr	0x2ec(ra) <lab5_kernel_task4::busy_mix::h4ebb122ae3b40d70>
8000250a: 65e2         	ld	a1, 0x18(sp)
8000250c: e188         	sd	a0, 0x0(a1)
8000250e: ffffe097     	auipc	ra, 0xffffe
80002512: dc4080e7     	jalr	-0x23c(ra) <lab5_kernel_task4::read_mtime::h08d5af7cc6021f0f>
80002516: ecaa         	sd	a0, 0x58(sp)
80002518: 6585         	lui	a1, 0x1
8000251a: 19458593     	addi	a1, a1, 0x194
8000251e: f0ae         	sd	a1, 0x60(sp)
80002520: 952e         	add	a0, a0, a1
80002522: ffffe097     	auipc	ra, 0xffffe
80002526: 31e080e7     	jalr	0x31e(ra) <lab5_kernel_task4::hold_lock_until::h8b6412f6859009a2>
8000252a: 65e2         	ld	a1, 0x18(sp)
8000252c: 7502         	ld	a0, 0x20(sp)
8000252e: 618c         	ld	a1, 0x0(a1)
80002530: e02e         	sd	a1, 0x0(sp)
80002532: 410c         	lw	a1, 0x0(a0)
80002534: 0015851b     	addiw	a0, a1, 0x1
80002538: e42a         	sd	a0, 0x8(sp)
8000253a: 02b56c63     	bltu	a0, a1, 0x80002572 <.Lpcrel_hi1>
8000253e: a809         	j	0x80002550 <.Lpcrel_hi0+0x10>

0000000080002540 <.Lpcrel_hi0>:
80002540: 00004517     	auipc	a0, 0x4
80002544: b0850513     	addi	a0, a0, -0x4f8
80002548: 00002097     	auipc	ra, 0x2
8000254c: 626080e7     	jalr	0x626(ra) <core::panicking::panic_const::panic_const_add_overflow::h67cba067093910f8>
80002550: 6502         	ld	a0, 0x0(sp)
80002552: 65a2         	ld	a1, 0x8(sp)
80002554: e4aa         	sd	a0, 0x48(sp)
80002556: caae         	sw	a1, 0x54(sp)
80002558: 2581         	sext.w	a1, a1
8000255a: 00001097     	auipc	ra, 0x1
8000255e: eac080e7     	jalr	-0x154(ra) <core::intrinsics::rotate_left::hd3094553216b8f6d>
80002562: 65c2         	ld	a1, 0x10(sp)
80002564: 862a         	mv	a2, a0
80002566: 6588         	ld	a0, 0x8(a1)
80002568: 8d31         	xor	a0, a0, a2
8000256a: e588         	sd	a0, 0x8(a1)
8000256c: 70a6         	ld	ra, 0x68(sp)
8000256e: 6165         	addi	sp, sp, 0x70
80002570: 8082         	ret

0000000080002572 <.Lpcrel_hi1>:
80002572: 00004517     	auipc	a0, 0x4
80002576: aee50513     	addi	a0, a0, -0x512
8000257a: 00002097     	auipc	ra, 0x2
8000257e: 5f4080e7     	jalr	0x5f4(ra) <core::panicking::panic_const::panic_const_add_overflow::h67cba067093910f8>

0000000080002582 <lab5_kernel_task4::with_shared_state_lock::ha51d936714b823ce>:
80002582: 715d         	addi	sp, sp, -0x50
80002584: e486         	sd	ra, 0x48(sp)
80002586: e032         	sd	a2, 0x0(sp)
80002588: e42e         	sd	a1, 0x8(sp)
8000258a: e82a         	sd	a0, 0x10(sp)
8000258c: f02a         	sd	a0, 0x20(sp)
8000258e: f42e         	sd	a1, 0x28(sp)
80002590: f832         	sd	a2, 0x30(sp)

0000000080002592 <.Lpcrel_hi2>:
80002592: 00004517     	auipc	a0, 0x4
80002596: 62650513     	addi	a0, a0, 0x626
8000259a: 00000097     	auipc	ra, 0x0
8000259e: c36080e7     	jalr	-0x3ca(ra) <lab5_kernel_task4::spinlock::SpinLock$LT$T$GT$::lock::h2b7ae71d77c12c87>
800025a2: 65c2         	ld	a1, 0x10(sp)
800025a4: ec2a         	sd	a0, 0x18(sp)

00000000800025a6 <.Lpcrel_hi3>:
800025a6: 00004517     	auipc	a0, 0x4
800025aa: 5d250513     	addi	a0, a0, 0x5d2
800025ae: 460d         	li	a2, 0x3
800025b0: 00001097     	auipc	ra, 0x1
800025b4: 3a0080e7     	jalr	0x3a0(ra) <core::sync::atomic::AtomicUsize::swap::h50d0652b9befb0cc>
800025b8: fc2a         	sd	a0, 0x38(sp)
800025ba: 55fd         	li	a1, -0x1
800025bc: 00b51863     	bne	a0, a1, 0x800025cc <.Lpcrel_hi4>
800025c0: a009         	j	0x800025c2 <.Lpcrel_hi3+0x1c>
800025c2: 6542         	ld	a0, 0x10(sp)
800025c4: 4591         	li	a1, 0x4
800025c6: 00b56e63     	bltu	a0, a1, 0x800025e2 <.Lpcrel_hi4+0x16>
800025ca: a889         	j	0x8000261c <.Lpcrel_hi5+0x38>

00000000800025cc <.Lpcrel_hi4>:
800025cc: 00004517     	auipc	a0, 0x4
800025d0: 67450513     	addi	a0, a0, 0x674
800025d4: 4585         	li	a1, 0x1
800025d6: 4601         	li	a2, 0x0
800025d8: 00001097     	auipc	ra, 0x1
800025dc: 502080e7     	jalr	0x502(ra) <core::sync::atomic::AtomicU64::fetch_add::hd6a13c485f746a90>
800025e0: b7cd         	j	0x800025c2 <.Lpcrel_hi3+0x1c>
800025e2: 65c2         	ld	a1, 0x10(sp)

00000000800025e4 <.Lpcrel_hi5>:
800025e4: 00004517     	auipc	a0, 0x4
800025e8: 63450513     	addi	a0, a0, 0x634
800025ec: 952e         	add	a0, a0, a1
800025ee: 4605         	li	a2, 0x1
800025f0: 85b2         	mv	a1, a2
800025f2: 00001097     	auipc	ra, 0x1
800025f6: 30a080e7     	jalr	0x30a(ra) <core::sync::atomic::AtomicBool::store::hfb6122fe2021251c>
800025fa: 0828         	addi	a0, sp, 0x18
800025fc: 00000097     	auipc	ra, 0x0
80002600: d5a080e7     	jalr	-0x2a6(ra) <_$LT$lab5_kernel_task4..spinlock..SpinLockGuard$LT$T$GT$$u20$as$u20$core..ops..deref..DerefMut$GT$::deref_mut::h771571a091005672>
80002604: 6582         	ld	a1, 0x0(sp)
80002606: 862a         	mv	a2, a0
80002608: 6522         	ld	a0, 0x8(sp)
8000260a: 00000097     	auipc	ra, 0x0
8000260e: ebe080e7     	jalr	-0x142(ra) <lab5_kernel_task4::worker_loop::_$u7b$$u7b$closure$u7d$$u7d$::hbf56722b962c082e>
80002612: 6542         	ld	a0, 0x10(sp)
80002614: 4591         	li	a1, 0x4
80002616: 00b56d63     	bltu	a0, a1, 0x80002630 <.Lpcrel_hi6+0x12>
8000261a: a0b1         	j	0x80002666 <.Lpcrel_hi8+0x1e>
8000261c: 6542         	ld	a0, 0x10(sp)

000000008000261e <.Lpcrel_hi6>:
8000261e: 00004597     	auipc	a1, 0x4
80002622: a5a58613     	addi	a2, a1, -0x5a6
80002626: 4591         	li	a1, 0x4
80002628: 00002097     	auipc	ra, 0x2
8000262c: 5be080e7     	jalr	0x5be(ra) <core::panicking::panic_bounds_check::h6aaee0d15e0261eb>
80002630: 65c2         	ld	a1, 0x10(sp)

0000000080002632 <.Lpcrel_hi7>:
80002632: 00004517     	auipc	a0, 0x4
80002636: 5e650513     	addi	a0, a0, 0x5e6
8000263a: 952e         	add	a0, a0, a1
8000263c: 4581         	li	a1, 0x0
8000263e: 4605         	li	a2, 0x1
80002640: 00001097     	auipc	ra, 0x1
80002644: 2bc080e7     	jalr	0x2bc(ra) <core::sync::atomic::AtomicBool::store::hfb6122fe2021251c>

0000000080002648 <.Lpcrel_hi8>:
80002648: 00004517     	auipc	a0, 0x4
8000264c: 53050513     	addi	a0, a0, 0x530
80002650: 55fd         	li	a1, -0x1
80002652: 460d         	li	a2, 0x3
80002654: 00001097     	auipc	ra, 0x1
80002658: 2fc080e7     	jalr	0x2fc(ra) <core::sync::atomic::AtomicUsize::swap::h50d0652b9befb0cc>
8000265c: 65c2         	ld	a1, 0x10(sp)
8000265e: e0aa         	sd	a0, 0x40(sp)
80002660: 02b51563     	bne	a0, a1, 0x8000268a <.Lpcrel_hi10>
80002664: a819         	j	0x8000267a <.Lpcrel_hi9+0x12>
80002666: 6542         	ld	a0, 0x10(sp)

0000000080002668 <.Lpcrel_hi9>:
80002668: 00004597     	auipc	a1, 0x4
8000266c: a2858613     	addi	a2, a1, -0x5d8
80002670: 4591         	li	a1, 0x4
80002672: 00002097     	auipc	ra, 0x2
80002676: 574080e7     	jalr	0x574(ra) <core::panicking::panic_bounds_check::h6aaee0d15e0261eb>
8000267a: 0828         	addi	a0, sp, 0x18
8000267c: 00001097     	auipc	ra, 0x1
80002680: 6bc080e7     	jalr	0x6bc(ra) <core::ptr::drop_in_place$LT$lab5_kernel_task4..spinlock..SpinLockGuard$LT$lab5_kernel_task4..SharedKernelState$GT$$GT$::hcc8f7eeda4fcb118>
80002684: 60a6         	ld	ra, 0x48(sp)
80002686: 6161         	addi	sp, sp, 0x50
80002688: 8082         	ret

000000008000268a <.Lpcrel_hi10>:
8000268a: 00004517     	auipc	a0, 0x4
8000268e: 5b650513     	addi	a0, a0, 0x5b6
80002692: 4585         	li	a1, 0x1
80002694: 4601         	li	a2, 0x0
80002696: 00001097     	auipc	ra, 0x1
8000269a: 444080e7     	jalr	0x444(ra) <core::sync::atomic::AtomicU64::fetch_add::hd6a13c485f746a90>
8000269e: bff1         	j	0x8000267a <.Lpcrel_hi9+0x12>

00000000800026a0 <core::sync::atomic::atomic_load::h002e80802249dc67>:
800026a0: 715d         	addi	sp, sp, -0x50
800026a2: e42a         	sd	a0, 0x8(sp)
800026a4: f02a         	sd	a0, 0x20(sp)
800026a6: 02b107a3     	sb	a1, 0x2f(sp)
800026aa: e82e         	sd	a1, 0x10(sp)
800026ac: 6542         	ld	a0, 0x10(sp)
800026ae: 00351593     	slli	a1, a0, 0x3

00000000800026b2 <.Lpcrel_hi0>:
800026b2: 00004517     	auipc	a0, 0x4
800026b6: 9f650513     	addi	a0, a0, -0x60a
800026ba: 952e         	add	a0, a0, a1
800026bc: 6108         	ld	a0, 0x0(a0)
800026be: 8502         	jr	a0
800026c0: 0000         	unimp
800026c2: 6522         	ld	a0, 0x8(sp)
800026c4: 00050503     	lb	a0, 0x0(a0)
800026c8: 00a10fa3     	sb	a0, 0x1f(sp)
800026cc: a0bd         	j	0x8000273a <.Lpcrel_hi4+0x28>

00000000800026ce <.Lpcrel_hi1>:
800026ce: 00004517     	auipc	a0, 0x4
800026d2: af250513     	addi	a0, a0, -0x50e
800026d6: f82a         	sd	a0, 0x30(sp)
800026d8: 02800593     	li	a1, 0x28
800026dc: fc2e         	sd	a1, 0x38(sp)

00000000800026de <.Lpcrel_hi2>:
800026de: 00004597     	auipc	a1, 0x4
800026e2: b0a58613     	addi	a2, a1, -0x4f6
800026e6: 05100593     	li	a1, 0x51
800026ea: 00002097     	auipc	ra, 0x2
800026ee: 5c8080e7     	jalr	0x5c8(ra) <core::panicking::panic_fmt::h767dc8ac4dd44648>
800026f2: 6522         	ld	a0, 0x8(sp)
800026f4: 00050503     	lb	a0, 0x0(a0)
800026f8: 0230000f     	fence	r, rw
800026fc: 00a10fa3     	sb	a0, 0x1f(sp)
80002700: a82d         	j	0x8000273a <.Lpcrel_hi4+0x28>

0000000080002702 <.Lpcrel_hi3>:
80002702: 00004517     	auipc	a0, 0x4
80002706: afe50513     	addi	a0, a0, -0x502
8000270a: e0aa         	sd	a0, 0x40(sp)
8000270c: 03100593     	li	a1, 0x31
80002710: e4ae         	sd	a1, 0x48(sp)

0000000080002712 <.Lpcrel_hi4>:
80002712: 00004597     	auipc	a1, 0x4
80002716: b2658613     	addi	a2, a1, -0x4da
8000271a: 06300593     	li	a1, 0x63
8000271e: 00002097     	auipc	ra, 0x2
80002722: 594080e7     	jalr	0x594(ra) <core::panicking::panic_fmt::h767dc8ac4dd44648>
80002726: 6522         	ld	a0, 0x8(sp)
80002728: 0330000f     	fence	rw, rw
8000272c: 00050503     	lb	a0, 0x0(a0)
80002730: 0230000f     	fence	r, rw
80002734: 00a10fa3     	sb	a0, 0x1f(sp)
80002738: a009         	j	0x8000273a <.Lpcrel_hi4+0x28>
8000273a: 01f14503     	lbu	a0, 0x1f(sp)
8000273e: 6161         	addi	sp, sp, 0x50
80002740: 8082         	ret

0000000080002742 <core::sync::atomic::atomic_load::h5d7382a3b69030d2>:
80002742: 715d         	addi	sp, sp, -0x50
80002744: e42a         	sd	a0, 0x8(sp)
80002746: f02a         	sd	a0, 0x20(sp)
80002748: 02b107a3     	sb	a1, 0x2f(sp)
8000274c: e82e         	sd	a1, 0x10(sp)
8000274e: 6542         	ld	a0, 0x10(sp)
80002750: 00351593     	slli	a1, a0, 0x3

0000000080002754 <.Lpcrel_hi5>:
80002754: 00004517     	auipc	a0, 0x4
80002758: 97c50513     	addi	a0, a0, -0x684
8000275c: 952e         	add	a0, a0, a1
8000275e: 6108         	ld	a0, 0x0(a0)
80002760: 8502         	jr	a0
80002762: 0000         	unimp
80002764: 6522         	ld	a0, 0x8(sp)
80002766: 6108         	ld	a0, 0x0(a0)
80002768: ec2a         	sd	a0, 0x18(sp)
8000276a: a09d         	j	0x800027d0 <.Lpcrel_hi9+0x24>

000000008000276c <.Lpcrel_hi6>:
8000276c: 00004517     	auipc	a0, 0x4
80002770: a5450513     	addi	a0, a0, -0x5ac
80002774: f82a         	sd	a0, 0x30(sp)
80002776: 02800593     	li	a1, 0x28
8000277a: fc2e         	sd	a1, 0x38(sp)

000000008000277c <.Lpcrel_hi7>:
8000277c: 00004597     	auipc	a1, 0x4
80002780: a6c58613     	addi	a2, a1, -0x594
80002784: 05100593     	li	a1, 0x51
80002788: 00002097     	auipc	ra, 0x2
8000278c: 52a080e7     	jalr	0x52a(ra) <core::panicking::panic_fmt::h767dc8ac4dd44648>
80002790: 6522         	ld	a0, 0x8(sp)
80002792: 6108         	ld	a0, 0x0(a0)
80002794: 0230000f     	fence	r, rw
80002798: ec2a         	sd	a0, 0x18(sp)
8000279a: a81d         	j	0x800027d0 <.Lpcrel_hi9+0x24>

000000008000279c <.Lpcrel_hi8>:
8000279c: 00004517     	auipc	a0, 0x4
800027a0: a6450513     	addi	a0, a0, -0x59c
800027a4: e0aa         	sd	a0, 0x40(sp)
800027a6: 03100593     	li	a1, 0x31
800027aa: e4ae         	sd	a1, 0x48(sp)

00000000800027ac <.Lpcrel_hi9>:
800027ac: 00004597     	auipc	a1, 0x4
800027b0: a8c58613     	addi	a2, a1, -0x574
800027b4: 06300593     	li	a1, 0x63
800027b8: 00002097     	auipc	ra, 0x2
800027bc: 4fa080e7     	jalr	0x4fa(ra) <core::panicking::panic_fmt::h767dc8ac4dd44648>
800027c0: 6522         	ld	a0, 0x8(sp)
800027c2: 0330000f     	fence	rw, rw
800027c6: 6108         	ld	a0, 0x0(a0)
800027c8: 0230000f     	fence	r, rw
800027cc: ec2a         	sd	a0, 0x18(sp)
800027ce: a009         	j	0x800027d0 <.Lpcrel_hi9+0x24>
800027d0: 6562         	ld	a0, 0x18(sp)
800027d2: 6161         	addi	sp, sp, 0x50
800027d4: 8082         	ret

00000000800027d6 <core::sync::atomic::atomic_load::h7e40074220660692>:
800027d6: 715d         	addi	sp, sp, -0x50
800027d8: e42a         	sd	a0, 0x8(sp)
800027da: f02a         	sd	a0, 0x20(sp)
800027dc: 02b107a3     	sb	a1, 0x2f(sp)
800027e0: e82e         	sd	a1, 0x10(sp)
800027e2: 6542         	ld	a0, 0x10(sp)
800027e4: 00351593     	slli	a1, a0, 0x3

00000000800027e8 <.Lpcrel_hi10>:
800027e8: 00004517     	auipc	a0, 0x4
800027ec: 91050513     	addi	a0, a0, -0x6f0
800027f0: 952e         	add	a0, a0, a1
800027f2: 6108         	ld	a0, 0x0(a0)
800027f4: 8502         	jr	a0
800027f6: 0000         	unimp
800027f8: 6522         	ld	a0, 0x8(sp)
800027fa: 6108         	ld	a0, 0x0(a0)
800027fc: ec2a         	sd	a0, 0x18(sp)
800027fe: a09d         	j	0x80002864 <.Lpcrel_hi14+0x24>

0000000080002800 <.Lpcrel_hi11>:
80002800: 00004517     	auipc	a0, 0x4
80002804: 9c050513     	addi	a0, a0, -0x640
80002808: f82a         	sd	a0, 0x30(sp)
8000280a: 02800593     	li	a1, 0x28
8000280e: fc2e         	sd	a1, 0x38(sp)

0000000080002810 <.Lpcrel_hi12>:
80002810: 00004597     	auipc	a1, 0x4
80002814: 9d858613     	addi	a2, a1, -0x628
80002818: 05100593     	li	a1, 0x51
8000281c: 00002097     	auipc	ra, 0x2
80002820: 496080e7     	jalr	0x496(ra) <core::panicking::panic_fmt::h767dc8ac4dd44648>
80002824: 6522         	ld	a0, 0x8(sp)
80002826: 6108         	ld	a0, 0x0(a0)
80002828: 0230000f     	fence	r, rw
8000282c: ec2a         	sd	a0, 0x18(sp)
8000282e: a81d         	j	0x80002864 <.Lpcrel_hi14+0x24>

0000000080002830 <.Lpcrel_hi13>:
80002830: 00004517     	auipc	a0, 0x4
80002834: 9d050513     	addi	a0, a0, -0x630
80002838: e0aa         	sd	a0, 0x40(sp)
8000283a: 03100593     	li	a1, 0x31
8000283e: e4ae         	sd	a1, 0x48(sp)

0000000080002840 <.Lpcrel_hi14>:
80002840: 00004597     	auipc	a1, 0x4
80002844: 9f858613     	addi	a2, a1, -0x608
80002848: 06300593     	li	a1, 0x63
8000284c: 00002097     	auipc	ra, 0x2
80002850: 466080e7     	jalr	0x466(ra) <core::panicking::panic_fmt::h767dc8ac4dd44648>
80002854: 6522         	ld	a0, 0x8(sp)
80002856: 0330000f     	fence	rw, rw
8000285a: 6108         	ld	a0, 0x0(a0)
8000285c: 0230000f     	fence	r, rw
80002860: ec2a         	sd	a0, 0x18(sp)
80002862: a009         	j	0x80002864 <.Lpcrel_hi14+0x24>
80002864: 6562         	ld	a0, 0x18(sp)
80002866: 6161         	addi	sp, sp, 0x50
80002868: 8082         	ret

000000008000286a <core::sync::atomic::atomic_store::h3bec87568798d88e>:
8000286a: 715d         	addi	sp, sp, -0x50
8000286c: e42a         	sd	a0, 0x8(sp)
8000286e: 86ae         	mv	a3, a1
80002870: e836         	sd	a3, 0x10(sp)
80002872: f02a         	sd	a0, 0x20(sp)
80002874: 02b10723     	sb	a1, 0x2e(sp)
80002878: 02c107a3     	sb	a2, 0x2f(sp)
8000287c: ec32         	sd	a2, 0x18(sp)
8000287e: 6562         	ld	a0, 0x18(sp)
80002880: 00351593     	slli	a1, a0, 0x3

0000000080002884 <.Lpcrel_hi15>:
80002884: 00004517     	auipc	a0, 0x4
80002888: 89c50513     	addi	a0, a0, -0x764
8000288c: 952e         	add	a0, a0, a1
8000288e: 6108         	ld	a0, 0x0(a0)
80002890: 8502         	jr	a0
80002892: 0000         	unimp
80002894: 6542         	ld	a0, 0x10(sp)
80002896: 65a2         	ld	a1, 0x8(sp)
80002898: 00a58023     	sb	a0, 0x0(a1)
8000289c: a0ad         	j	0x80002906 <.Lpcrel_hi19+0x26>
8000289e: 6542         	ld	a0, 0x10(sp)
800028a0: 65a2         	ld	a1, 0x8(sp)
800028a2: 0310000f     	fence	rw, w
800028a6: 00a58023     	sb	a0, 0x0(a1)
800028aa: a8b1         	j	0x80002906 <.Lpcrel_hi19+0x26>

00000000800028ac <.Lpcrel_hi16>:
800028ac: 00004517     	auipc	a0, 0x4
800028b0: 9a450513     	addi	a0, a0, -0x65c
800028b4: f82a         	sd	a0, 0x30(sp)
800028b6: 02a00593     	li	a1, 0x2a
800028ba: fc2e         	sd	a1, 0x38(sp)

00000000800028bc <.Lpcrel_hi17>:
800028bc: 00004597     	auipc	a1, 0x4
800028c0: 9c458613     	addi	a2, a1, -0x63c
800028c4: 05500593     	li	a1, 0x55
800028c8: 00002097     	auipc	ra, 0x2
800028cc: 3ea080e7     	jalr	0x3ea(ra) <core::panicking::panic_fmt::h767dc8ac4dd44648>

00000000800028d0 <.Lpcrel_hi18>:
800028d0: 00004517     	auipc	a0, 0x4
800028d4: 9c850513     	addi	a0, a0, -0x638
800028d8: e0aa         	sd	a0, 0x40(sp)
800028da: 03200593     	li	a1, 0x32
800028de: e4ae         	sd	a1, 0x48(sp)

00000000800028e0 <.Lpcrel_hi19>:
800028e0: 00004597     	auipc	a1, 0x4
800028e4: 9f058613     	addi	a2, a1, -0x610
800028e8: 06500593     	li	a1, 0x65
800028ec: 00002097     	auipc	ra, 0x2
800028f0: 3c6080e7     	jalr	0x3c6(ra) <core::panicking::panic_fmt::h767dc8ac4dd44648>
800028f4: 6542         	ld	a0, 0x10(sp)
800028f6: 65a2         	ld	a1, 0x8(sp)
800028f8: 0310000f     	fence	rw, w
800028fc: 00a58023     	sb	a0, 0x0(a1)
80002900: 0330000f     	fence	rw, rw
80002904: a009         	j	0x80002906 <.Lpcrel_hi19+0x26>
80002906: 6161         	addi	sp, sp, 0x50
80002908: 8082         	ret

000000008000290a <core::sync::atomic::atomic_store::h4e6a49b5f311f729>:
8000290a: 715d         	addi	sp, sp, -0x50
8000290c: e02e         	sd	a1, 0x0(sp)
8000290e: e42a         	sd	a0, 0x8(sp)
80002910: ec2a         	sd	a0, 0x18(sp)
80002912: f02e         	sd	a1, 0x20(sp)
80002914: 02c107a3     	sb	a2, 0x2f(sp)
80002918: e832         	sd	a2, 0x10(sp)
8000291a: 6542         	ld	a0, 0x10(sp)
8000291c: 00351593     	slli	a1, a0, 0x3

0000000080002920 <.Lpcrel_hi20>:
80002920: 00004517     	auipc	a0, 0x4
80002924: 82850513     	addi	a0, a0, -0x7d8
80002928: 952e         	add	a0, a0, a1
8000292a: 6108         	ld	a0, 0x0(a0)
8000292c: 8502         	jr	a0
8000292e: 0000         	unimp
80002930: 6502         	ld	a0, 0x0(sp)
80002932: 65a2         	ld	a1, 0x8(sp)
80002934: e188         	sd	a0, 0x0(a1)
80002936: a09d         	j	0x8000299c <.Lpcrel_hi24+0x24>
80002938: 6502         	ld	a0, 0x0(sp)
8000293a: 65a2         	ld	a1, 0x8(sp)
8000293c: 0310000f     	fence	rw, w
80002940: e188         	sd	a0, 0x0(a1)
80002942: a8a9         	j	0x8000299c <.Lpcrel_hi24+0x24>

0000000080002944 <.Lpcrel_hi21>:
80002944: 00004517     	auipc	a0, 0x4
80002948: 90c50513     	addi	a0, a0, -0x6f4
8000294c: f82a         	sd	a0, 0x30(sp)
8000294e: 02a00593     	li	a1, 0x2a
80002952: fc2e         	sd	a1, 0x38(sp)

0000000080002954 <.Lpcrel_hi22>:
80002954: 00004597     	auipc	a1, 0x4
80002958: 92c58613     	addi	a2, a1, -0x6d4
8000295c: 05500593     	li	a1, 0x55
80002960: 00002097     	auipc	ra, 0x2
80002964: 352080e7     	jalr	0x352(ra) <core::panicking::panic_fmt::h767dc8ac4dd44648>

0000000080002968 <.Lpcrel_hi23>:
80002968: 00004517     	auipc	a0, 0x4
8000296c: 93050513     	addi	a0, a0, -0x6d0
80002970: e0aa         	sd	a0, 0x40(sp)
80002972: 03200593     	li	a1, 0x32
80002976: e4ae         	sd	a1, 0x48(sp)

0000000080002978 <.Lpcrel_hi24>:
80002978: 00004597     	auipc	a1, 0x4
8000297c: 95858613     	addi	a2, a1, -0x6a8
80002980: 06500593     	li	a1, 0x65
80002984: 00002097     	auipc	ra, 0x2
80002988: 32e080e7     	jalr	0x32e(ra) <core::panicking::panic_fmt::h767dc8ac4dd44648>
8000298c: 6502         	ld	a0, 0x0(sp)
8000298e: 65a2         	ld	a1, 0x8(sp)
80002990: 0310000f     	fence	rw, w
80002994: e188         	sd	a0, 0x0(a1)
80002996: 0330000f     	fence	rw, rw
8000299a: a009         	j	0x8000299c <.Lpcrel_hi24+0x24>
8000299c: 6161         	addi	sp, sp, 0x50
8000299e: 8082         	ret

00000000800029a0 <core::sync::atomic::atomic_store::hf5626850cf4c646b>:
800029a0: 715d         	addi	sp, sp, -0x50
800029a2: e02e         	sd	a1, 0x0(sp)
800029a4: e42a         	sd	a0, 0x8(sp)
800029a6: ec2a         	sd	a0, 0x18(sp)
800029a8: f02e         	sd	a1, 0x20(sp)
800029aa: 02c107a3     	sb	a2, 0x2f(sp)
800029ae: e832         	sd	a2, 0x10(sp)
800029b0: 6542         	ld	a0, 0x10(sp)
800029b2: 00351593     	slli	a1, a0, 0x3

00000000800029b6 <.Lpcrel_hi25>:
800029b6: 00003517     	auipc	a0, 0x3
800029ba: 7ba50513     	addi	a0, a0, 0x7ba
800029be: 952e         	add	a0, a0, a1
800029c0: 6108         	ld	a0, 0x0(a0)
800029c2: 8502         	jr	a0
800029c4: 0000         	unimp
800029c6: 6502         	ld	a0, 0x0(sp)
800029c8: 65a2         	ld	a1, 0x8(sp)
800029ca: e188         	sd	a0, 0x0(a1)
800029cc: a09d         	j	0x80002a32 <.Lpcrel_hi29+0x24>
800029ce: 6502         	ld	a0, 0x0(sp)
800029d0: 65a2         	ld	a1, 0x8(sp)
800029d2: 0310000f     	fence	rw, w
800029d6: e188         	sd	a0, 0x0(a1)
800029d8: a8a9         	j	0x80002a32 <.Lpcrel_hi29+0x24>

00000000800029da <.Lpcrel_hi26>:
800029da: 00004517     	auipc	a0, 0x4
800029de: 87650513     	addi	a0, a0, -0x78a
800029e2: f82a         	sd	a0, 0x30(sp)
800029e4: 02a00593     	li	a1, 0x2a
800029e8: fc2e         	sd	a1, 0x38(sp)

00000000800029ea <.Lpcrel_hi27>:
800029ea: 00004597     	auipc	a1, 0x4
800029ee: 89658613     	addi	a2, a1, -0x76a
800029f2: 05500593     	li	a1, 0x55
800029f6: 00002097     	auipc	ra, 0x2
800029fa: 2bc080e7     	jalr	0x2bc(ra) <core::panicking::panic_fmt::h767dc8ac4dd44648>

00000000800029fe <.Lpcrel_hi28>:
800029fe: 00004517     	auipc	a0, 0x4
80002a02: 89a50513     	addi	a0, a0, -0x766
80002a06: e0aa         	sd	a0, 0x40(sp)
80002a08: 03200593     	li	a1, 0x32
80002a0c: e4ae         	sd	a1, 0x48(sp)

0000000080002a0e <.Lpcrel_hi29>:
80002a0e: 00004597     	auipc	a1, 0x4
80002a12: 8c258613     	addi	a2, a1, -0x73e
80002a16: 06500593     	li	a1, 0x65
80002a1a: 00002097     	auipc	ra, 0x2
80002a1e: 298080e7     	jalr	0x298(ra) <core::panicking::panic_fmt::h767dc8ac4dd44648>
80002a22: 6502         	ld	a0, 0x0(sp)
80002a24: 65a2         	ld	a1, 0x8(sp)
80002a26: 0310000f     	fence	rw, w
80002a2a: e188         	sd	a0, 0x0(a1)
80002a2c: 0330000f     	fence	rw, rw
80002a30: a009         	j	0x80002a32 <.Lpcrel_hi29+0x24>
80002a32: 6161         	addi	sp, sp, 0x50
80002a34: 8082         	ret

0000000080002a36 <core::sync::atomic::atomic_compare_exchange_weak::haec615c5698a47c0>:
80002a36: 7155         	addi	sp, sp, -0xd0
80002a38: fc32         	sd	a2, 0x38(sp)
80002a3a: e0ae         	sd	a1, 0x40(sp)
80002a3c: e4aa         	sd	a0, 0x48(sp)
80002a3e: 87ba         	mv	a5, a4
80002a40: e8be         	sd	a5, 0x50(sp)
80002a42: e12a         	sd	a0, 0x80(sp)
80002a44: e52e         	sd	a1, 0x88(sp)
80002a46: e932         	sd	a2, 0x90(sp)
80002a48: 08d10f23     	sb	a3, 0x9e(sp)
80002a4c: 08e10fa3     	sb	a4, 0x9f(sp)
80002a50: ecb6         	sd	a3, 0x58(sp)
80002a52: 6566         	ld	a0, 0x58(sp)
80002a54: 00351593     	slli	a1, a0, 0x3

0000000080002a58 <.Lpcrel_hi30>:
80002a58: 00003517     	auipc	a0, 0x3
80002a5c: 74050513     	addi	a0, a0, 0x740
80002a60: 952e         	add	a0, a0, a1
80002a62: 6108         	ld	a0, 0x0(a0)
80002a64: 8502         	jr	a0
80002a66: 0000         	unimp
80002a68: 6546         	ld	a0, 0x50(sp)
80002a6a: 0ff57513     	zext.b	a0, a0
80002a6e: f82a         	sd	a0, 0x30(sp)
80002a70: c55d         	beqz	a0, 0x80002b1e <.Lpcrel_hi30+0xc6>
80002a72: a009         	j	0x80002a74 <.Lpcrel_hi30+0x1c>
80002a74: 7542         	ld	a0, 0x30(sp)
80002a76: 4589         	li	a1, 0x2
80002a78: 0cb50463     	beq	a0, a1, 0x80002b40 <.Lpcrel_hi30+0xe8>
80002a7c: a009         	j	0x80002a7e <.Lpcrel_hi30+0x26>
80002a7e: 7542         	ld	a0, 0x30(sp)
80002a80: 4591         	li	a1, 0x4
80002a82: 0eb50063     	beq	a0, a1, 0x80002b62 <.Lpcrel_hi30+0x10a>
80002a86: a069         	j	0x80002b10 <.Lpcrel_hi30+0xb8>
80002a88: 6546         	ld	a0, 0x50(sp)
80002a8a: 0ff57513     	zext.b	a0, a0
80002a8e: f42a         	sd	a0, 0x28(sp)
80002a90: 10050663     	beqz	a0, 0x80002b9c <.Lpcrel_hi30+0x144>
80002a94: a009         	j	0x80002a96 <.Lpcrel_hi30+0x3e>
80002a96: 7522         	ld	a0, 0x28(sp)
80002a98: 4589         	li	a1, 0x2
80002a9a: 12b50263     	beq	a0, a1, 0x80002bbe <.Lpcrel_hi30+0x166>
80002a9e: a009         	j	0x80002aa0 <.Lpcrel_hi30+0x48>
80002aa0: 7522         	ld	a0, 0x28(sp)
80002aa2: 4591         	li	a1, 0x4
80002aa4: 12b50e63     	beq	a0, a1, 0x80002be0 <.Lpcrel_hi30+0x188>
80002aa8: a0a5         	j	0x80002b10 <.Lpcrel_hi30+0xb8>
80002aaa: 6546         	ld	a0, 0x50(sp)
80002aac: 0ff57513     	zext.b	a0, a0
80002ab0: f02a         	sd	a0, 0x20(sp)
80002ab2: 14050863     	beqz	a0, 0x80002c02 <.Lpcrel_hi30+0x1aa>
80002ab6: a009         	j	0x80002ab8 <.Lpcrel_hi30+0x60>
80002ab8: 7502         	ld	a0, 0x20(sp)
80002aba: 4589         	li	a1, 0x2
80002abc: 16b50463     	beq	a0, a1, 0x80002c24 <.Lpcrel_hi30+0x1cc>
80002ac0: a009         	j	0x80002ac2 <.Lpcrel_hi30+0x6a>
80002ac2: 7502         	ld	a0, 0x20(sp)
80002ac4: 4591         	li	a1, 0x4
80002ac6: 18b50063     	beq	a0, a1, 0x80002c46 <.Lpcrel_hi30+0x1ee>
80002aca: a099         	j	0x80002b10 <.Lpcrel_hi30+0xb8>
80002acc: 6546         	ld	a0, 0x50(sp)
80002ace: 0ff57513     	zext.b	a0, a0
80002ad2: ec2a         	sd	a0, 0x18(sp)
80002ad4: 18050a63     	beqz	a0, 0x80002c68 <.Lpcrel_hi30+0x210>
80002ad8: a009         	j	0x80002ada <.Lpcrel_hi30+0x82>
80002ada: 6562         	ld	a0, 0x18(sp)
80002adc: 4589         	li	a1, 0x2
80002ade: 1ab50663     	beq	a0, a1, 0x80002c8a <.Lpcrel_hi30+0x232>
80002ae2: a009         	j	0x80002ae4 <.Lpcrel_hi30+0x8c>
80002ae4: 6562         	ld	a0, 0x18(sp)
80002ae6: 4591         	li	a1, 0x4
80002ae8: 1cb50263     	beq	a0, a1, 0x80002cac <.Lpcrel_hi30+0x254>
80002aec: a015         	j	0x80002b10 <.Lpcrel_hi30+0xb8>
80002aee: 6546         	ld	a0, 0x50(sp)
80002af0: 0ff57513     	zext.b	a0, a0
80002af4: e82a         	sd	a0, 0x10(sp)
80002af6: 1c050c63     	beqz	a0, 0x80002cce <.Lpcrel_hi30+0x276>
80002afa: a009         	j	0x80002afc <.Lpcrel_hi30+0xa4>
80002afc: 6542         	ld	a0, 0x10(sp)
80002afe: 4589         	li	a1, 0x2
80002b00: 1eb50863     	beq	a0, a1, 0x80002cf0 <.Lpcrel_hi30+0x298>
80002b04: a009         	j	0x80002b06 <.Lpcrel_hi30+0xae>
80002b06: 6542         	ld	a0, 0x10(sp)
80002b08: 4591         	li	a1, 0x4
80002b0a: 20b50463     	beq	a0, a1, 0x80002d12 <.Lpcrel_hi30+0x2ba>
80002b0e: a009         	j	0x80002b10 <.Lpcrel_hi30+0xb8>
80002b10: 6546         	ld	a0, 0x50(sp)
80002b12: 0ff57513     	zext.b	a0, a0
80002b16: 4585         	li	a1, 0x1
80002b18: 22b50c63     	beq	a0, a1, 0x80002d50 <.Lpcrel_hi31>
80002b1c: aca1         	j	0x80002d74 <.Lpcrel_hi33>
80002b1e: 6506         	ld	a0, 0x40(sp)
80002b20: 66a6         	ld	a3, 0x48(sp)
80002b22: 7762         	ld	a4, 0x38(sp)
80002b24: 1006b5af     	lr.d	a1, (a3)
80002b28: 00a59563     	bne	a1, a0, 0x80002b32 <.Lpcrel_hi30+0xda>
80002b2c: 18e6b62f     	sc.d	a2, a4, (a3)
80002b30: fa75         	bnez	a2, 0x80002b24 <.Lpcrel_hi30+0xcc>
80002b32: 8d2d         	xor	a0, a0, a1
80002b34: 00153513     	seqz	a0, a0
80002b38: f8ae         	sd	a1, 0x70(sp)
80002b3a: 06a10c23     	sb	a0, 0x78(sp)
80002b3e: a099         	j	0x80002b84 <.Lpcrel_hi30+0x12c>
80002b40: 6506         	ld	a0, 0x40(sp)
80002b42: 66a6         	ld	a3, 0x48(sp)
80002b44: 7762         	ld	a4, 0x38(sp)
80002b46: 1406b5af     	lr.d.aq	a1, (a3)
80002b4a: 00a59563     	bne	a1, a0, 0x80002b54 <.Lpcrel_hi30+0xfc>
80002b4e: 18e6b62f     	sc.d	a2, a4, (a3)
80002b52: fa75         	bnez	a2, 0x80002b46 <.Lpcrel_hi30+0xee>
80002b54: 8d2d         	xor	a0, a0, a1
80002b56: 00153513     	seqz	a0, a0
80002b5a: f8ae         	sd	a1, 0x70(sp)
80002b5c: 06a10c23     	sb	a0, 0x78(sp)
80002b60: a015         	j	0x80002b84 <.Lpcrel_hi30+0x12c>
80002b62: 6506         	ld	a0, 0x40(sp)
80002b64: 66a6         	ld	a3, 0x48(sp)
80002b66: 7762         	ld	a4, 0x38(sp)
80002b68: 1606b5af     	lr.d.aqrl	a1, (a3)
80002b6c: 00a59563     	bne	a1, a0, 0x80002b76 <.Lpcrel_hi30+0x11e>
80002b70: 1ae6b62f     	sc.d.rl	a2, a4, (a3)
80002b74: fa75         	bnez	a2, 0x80002b68 <.Lpcrel_hi30+0x110>
80002b76: 8d2d         	xor	a0, a0, a1
80002b78: 00153513     	seqz	a0, a0
80002b7c: f8ae         	sd	a1, 0x70(sp)
80002b7e: 06a10c23     	sb	a0, 0x78(sp)
80002b82: a009         	j	0x80002b84 <.Lpcrel_hi30+0x12c>
80002b84: 7546         	ld	a0, 0x70(sp)
80002b86: e42a         	sd	a0, 0x8(sp)
80002b88: f12a         	sd	a0, 0xa0(sp)
80002b8a: 07814583     	lbu	a1, 0x78(sp)
80002b8e: 0015f513     	andi	a0, a1, 0x1
80002b92: 0ab107a3     	sb	a1, 0xaf(sp)
80002b96: 1a051463     	bnez	a0, 0x80002d3e <.Lpcrel_hi30+0x2e6>
80002b9a: aa69         	j	0x80002d34 <.Lpcrel_hi30+0x2dc>
80002b9c: 6506         	ld	a0, 0x40(sp)
80002b9e: 66a6         	ld	a3, 0x48(sp)
80002ba0: 7762         	ld	a4, 0x38(sp)
80002ba2: 1006b5af     	lr.d	a1, (a3)
80002ba6: 00a59563     	bne	a1, a0, 0x80002bb0 <.Lpcrel_hi30+0x158>
80002baa: 1ae6b62f     	sc.d.rl	a2, a4, (a3)
80002bae: fa75         	bnez	a2, 0x80002ba2 <.Lpcrel_hi30+0x14a>
80002bb0: 8d2d         	xor	a0, a0, a1
80002bb2: 00153513     	seqz	a0, a0
80002bb6: f8ae         	sd	a1, 0x70(sp)
80002bb8: 06a10c23     	sb	a0, 0x78(sp)
80002bbc: b7e1         	j	0x80002b84 <.Lpcrel_hi30+0x12c>
80002bbe: 6506         	ld	a0, 0x40(sp)
80002bc0: 66a6         	ld	a3, 0x48(sp)
80002bc2: 7762         	ld	a4, 0x38(sp)
80002bc4: 1406b5af     	lr.d.aq	a1, (a3)
80002bc8: 00a59563     	bne	a1, a0, 0x80002bd2 <.Lpcrel_hi30+0x17a>
80002bcc: 1ae6b62f     	sc.d.rl	a2, a4, (a3)
80002bd0: fa75         	bnez	a2, 0x80002bc4 <.Lpcrel_hi30+0x16c>
80002bd2: 8d2d         	xor	a0, a0, a1
80002bd4: 00153513     	seqz	a0, a0
80002bd8: f8ae         	sd	a1, 0x70(sp)
80002bda: 06a10c23     	sb	a0, 0x78(sp)
80002bde: b75d         	j	0x80002b84 <.Lpcrel_hi30+0x12c>
80002be0: 6506         	ld	a0, 0x40(sp)
80002be2: 66a6         	ld	a3, 0x48(sp)
80002be4: 7762         	ld	a4, 0x38(sp)
80002be6: 1606b5af     	lr.d.aqrl	a1, (a3)
80002bea: 00a59563     	bne	a1, a0, 0x80002bf4 <.Lpcrel_hi30+0x19c>
80002bee: 1ae6b62f     	sc.d.rl	a2, a4, (a3)
80002bf2: fa75         	bnez	a2, 0x80002be6 <.Lpcrel_hi30+0x18e>
80002bf4: 8d2d         	xor	a0, a0, a1
80002bf6: 00153513     	seqz	a0, a0
80002bfa: f8ae         	sd	a1, 0x70(sp)
80002bfc: 06a10c23     	sb	a0, 0x78(sp)
80002c00: b751         	j	0x80002b84 <.Lpcrel_hi30+0x12c>
80002c02: 6506         	ld	a0, 0x40(sp)
80002c04: 66a6         	ld	a3, 0x48(sp)
80002c06: 7762         	ld	a4, 0x38(sp)
80002c08: 1406b5af     	lr.d.aq	a1, (a3)
80002c0c: 00a59563     	bne	a1, a0, 0x80002c16 <.Lpcrel_hi30+0x1be>
80002c10: 18e6b62f     	sc.d	a2, a4, (a3)
80002c14: fa75         	bnez	a2, 0x80002c08 <.Lpcrel_hi30+0x1b0>
80002c16: 8d2d         	xor	a0, a0, a1
80002c18: 00153513     	seqz	a0, a0
80002c1c: f8ae         	sd	a1, 0x70(sp)
80002c1e: 06a10c23     	sb	a0, 0x78(sp)
80002c22: b78d         	j	0x80002b84 <.Lpcrel_hi30+0x12c>
80002c24: 6506         	ld	a0, 0x40(sp)
80002c26: 66a6         	ld	a3, 0x48(sp)
80002c28: 7762         	ld	a4, 0x38(sp)
80002c2a: 1406b5af     	lr.d.aq	a1, (a3)
80002c2e: 00a59563     	bne	a1, a0, 0x80002c38 <.Lpcrel_hi30+0x1e0>
80002c32: 18e6b62f     	sc.d	a2, a4, (a3)
80002c36: fa75         	bnez	a2, 0x80002c2a <.Lpcrel_hi30+0x1d2>
80002c38: 8d2d         	xor	a0, a0, a1
80002c3a: 00153513     	seqz	a0, a0
80002c3e: f8ae         	sd	a1, 0x70(sp)
80002c40: 06a10c23     	sb	a0, 0x78(sp)
80002c44: b781         	j	0x80002b84 <.Lpcrel_hi30+0x12c>
80002c46: 6506         	ld	a0, 0x40(sp)
80002c48: 66a6         	ld	a3, 0x48(sp)
80002c4a: 7762         	ld	a4, 0x38(sp)
80002c4c: 1606b5af     	lr.d.aqrl	a1, (a3)
80002c50: 00a59563     	bne	a1, a0, 0x80002c5a <.Lpcrel_hi30+0x202>
80002c54: 1ae6b62f     	sc.d.rl	a2, a4, (a3)
80002c58: fa75         	bnez	a2, 0x80002c4c <.Lpcrel_hi30+0x1f4>
80002c5a: 8d2d         	xor	a0, a0, a1
80002c5c: 00153513     	seqz	a0, a0
80002c60: f8ae         	sd	a1, 0x70(sp)
80002c62: 06a10c23     	sb	a0, 0x78(sp)
80002c66: bf39         	j	0x80002b84 <.Lpcrel_hi30+0x12c>
80002c68: 6506         	ld	a0, 0x40(sp)
80002c6a: 66a6         	ld	a3, 0x48(sp)
80002c6c: 7762         	ld	a4, 0x38(sp)
80002c6e: 1406b5af     	lr.d.aq	a1, (a3)
80002c72: 00a59563     	bne	a1, a0, 0x80002c7c <.Lpcrel_hi30+0x224>
80002c76: 1ae6b62f     	sc.d.rl	a2, a4, (a3)
80002c7a: fa75         	bnez	a2, 0x80002c6e <.Lpcrel_hi30+0x216>
80002c7c: 8d2d         	xor	a0, a0, a1
80002c7e: 00153513     	seqz	a0, a0
80002c82: f8ae         	sd	a1, 0x70(sp)
80002c84: 06a10c23     	sb	a0, 0x78(sp)
80002c88: bdf5         	j	0x80002b84 <.Lpcrel_hi30+0x12c>
80002c8a: 6506         	ld	a0, 0x40(sp)
80002c8c: 66a6         	ld	a3, 0x48(sp)
80002c8e: 7762         	ld	a4, 0x38(sp)
80002c90: 1406b5af     	lr.d.aq	a1, (a3)
80002c94: 00a59563     	bne	a1, a0, 0x80002c9e <.Lpcrel_hi30+0x246>
80002c98: 1ae6b62f     	sc.d.rl	a2, a4, (a3)
80002c9c: fa75         	bnez	a2, 0x80002c90 <.Lpcrel_hi30+0x238>
80002c9e: 8d2d         	xor	a0, a0, a1
80002ca0: 00153513     	seqz	a0, a0
80002ca4: f8ae         	sd	a1, 0x70(sp)
80002ca6: 06a10c23     	sb	a0, 0x78(sp)
80002caa: bde9         	j	0x80002b84 <.Lpcrel_hi30+0x12c>
80002cac: 6506         	ld	a0, 0x40(sp)
80002cae: 66a6         	ld	a3, 0x48(sp)
80002cb0: 7762         	ld	a4, 0x38(sp)
80002cb2: 1606b5af     	lr.d.aqrl	a1, (a3)
80002cb6: 00a59563     	bne	a1, a0, 0x80002cc0 <.Lpcrel_hi30+0x268>
80002cba: 1ae6b62f     	sc.d.rl	a2, a4, (a3)
80002cbe: fa75         	bnez	a2, 0x80002cb2 <.Lpcrel_hi30+0x25a>
80002cc0: 8d2d         	xor	a0, a0, a1
80002cc2: 00153513     	seqz	a0, a0
80002cc6: f8ae         	sd	a1, 0x70(sp)
80002cc8: 06a10c23     	sb	a0, 0x78(sp)
80002ccc: bd65         	j	0x80002b84 <.Lpcrel_hi30+0x12c>
80002cce: 6506         	ld	a0, 0x40(sp)
80002cd0: 66a6         	ld	a3, 0x48(sp)
80002cd2: 7762         	ld	a4, 0x38(sp)
80002cd4: 1606b5af     	lr.d.aqrl	a1, (a3)
80002cd8: 00a59563     	bne	a1, a0, 0x80002ce2 <.Lpcrel_hi30+0x28a>
80002cdc: 1ae6b62f     	sc.d.rl	a2, a4, (a3)
80002ce0: fa75         	bnez	a2, 0x80002cd4 <.Lpcrel_hi30+0x27c>
80002ce2: 8d2d         	xor	a0, a0, a1
80002ce4: 00153513     	seqz	a0, a0
80002ce8: f8ae         	sd	a1, 0x70(sp)
80002cea: 06a10c23     	sb	a0, 0x78(sp)
80002cee: bd59         	j	0x80002b84 <.Lpcrel_hi30+0x12c>
80002cf0: 6506         	ld	a0, 0x40(sp)
80002cf2: 66a6         	ld	a3, 0x48(sp)
80002cf4: 7762         	ld	a4, 0x38(sp)
80002cf6: 1606b5af     	lr.d.aqrl	a1, (a3)
80002cfa: 00a59563     	bne	a1, a0, 0x80002d04 <.Lpcrel_hi30+0x2ac>
80002cfe: 1ae6b62f     	sc.d.rl	a2, a4, (a3)
80002d02: fa75         	bnez	a2, 0x80002cf6 <.Lpcrel_hi30+0x29e>
80002d04: 8d2d         	xor	a0, a0, a1
80002d06: 00153513     	seqz	a0, a0
80002d0a: f8ae         	sd	a1, 0x70(sp)
80002d0c: 06a10c23     	sb	a0, 0x78(sp)
80002d10: bd95         	j	0x80002b84 <.Lpcrel_hi30+0x12c>
80002d12: 6506         	ld	a0, 0x40(sp)
80002d14: 66a6         	ld	a3, 0x48(sp)
80002d16: 7762         	ld	a4, 0x38(sp)
80002d18: 1606b5af     	lr.d.aqrl	a1, (a3)
80002d1c: 00a59563     	bne	a1, a0, 0x80002d26 <.Lpcrel_hi30+0x2ce>
80002d20: 1ae6b62f     	sc.d.rl	a2, a4, (a3)
80002d24: fa75         	bnez	a2, 0x80002d18 <.Lpcrel_hi30+0x2c0>
80002d26: 8d2d         	xor	a0, a0, a1
80002d28: 00153513     	seqz	a0, a0
80002d2c: f8ae         	sd	a1, 0x70(sp)
80002d2e: 06a10c23     	sb	a0, 0x78(sp)
80002d32: bd89         	j	0x80002b84 <.Lpcrel_hi30+0x12c>
80002d34: 6522         	ld	a0, 0x8(sp)
80002d36: f4aa         	sd	a0, 0x68(sp)
80002d38: 4505         	li	a0, 0x1
80002d3a: f0aa         	sd	a0, 0x60(sp)
80002d3c: a031         	j	0x80002d48 <.Lpcrel_hi30+0x2f0>
80002d3e: 6522         	ld	a0, 0x8(sp)
80002d40: f4aa         	sd	a0, 0x68(sp)
80002d42: 4501         	li	a0, 0x0
80002d44: f0aa         	sd	a0, 0x60(sp)
80002d46: a009         	j	0x80002d48 <.Lpcrel_hi30+0x2f0>
80002d48: 7506         	ld	a0, 0x60(sp)
80002d4a: 75a6         	ld	a1, 0x68(sp)
80002d4c: 6169         	addi	sp, sp, 0xd0
80002d4e: 8082         	ret

0000000080002d50 <.Lpcrel_hi31>:
80002d50: 00003517     	auipc	a0, 0x3
80002d54: 59850513     	addi	a0, a0, 0x598
80002d58: f92a         	sd	a0, 0xb0(sp)
80002d5a: 03400593     	li	a1, 0x34
80002d5e: fd2e         	sd	a1, 0xb8(sp)

0000000080002d60 <.Lpcrel_hi32>:
80002d60: 00003597     	auipc	a1, 0x3
80002d64: 5c058613     	addi	a2, a1, 0x5c0
80002d68: 06900593     	li	a1, 0x69
80002d6c: 00002097     	auipc	ra, 0x2
80002d70: f46080e7     	jalr	-0xba(ra) <core::panicking::panic_fmt::h767dc8ac4dd44648>

0000000080002d74 <.Lpcrel_hi33>:
80002d74: 00003517     	auipc	a0, 0x3
80002d78: 5c450513     	addi	a0, a0, 0x5c4
80002d7c: e1aa         	sd	a0, 0xc0(sp)
80002d7e: 03d00593     	li	a1, 0x3d
80002d82: e5ae         	sd	a1, 0xc8(sp)

0000000080002d84 <.Lpcrel_hi34>:
80002d84: 00003597     	auipc	a1, 0x3
80002d88: 5f458613     	addi	a2, a1, 0x5f4
80002d8c: 07b00593     	li	a1, 0x7b
80002d90: 00002097     	auipc	ra, 0x2
80002d94: f22080e7     	jalr	-0xde(ra) <core::panicking::panic_fmt::h767dc8ac4dd44648>

0000000080002d98 <core::ptr::write_bytes::precondition_check::h1f2d7e6346c14c0b>:
80002d98: 715d         	addi	sp, sp, -0x50
80002d9a: e486         	sd	ra, 0x48(sp)
80002d9c: e436         	sd	a3, 0x8(sp)
80002d9e: e82a         	sd	a0, 0x10(sp)
80002da0: 86b2         	mv	a3, a2
80002da2: ec36         	sd	a3, 0x18(sp)
80002da4: f02a         	sd	a0, 0x20(sp)
80002da6: f42e         	sd	a1, 0x28(sp)
80002da8: 02c10ba3     	sb	a2, 0x37(sp)
80002dac: 00001097     	auipc	ra, 0x1
80002db0: eea080e7     	jalr	-0x116(ra) <core::ptr::const_ptr::_$LT$impl$u20$$BP$const$u20$T$GT$::is_aligned_to::ha71949ecaa4d0304>
80002db4: e119         	bnez	a0, 0x80002dba <core::ptr::write_bytes::precondition_check::h1f2d7e6346c14c0b+0x22>
80002db6: a009         	j	0x80002db8 <core::ptr::write_bytes::precondition_check::h1f2d7e6346c14c0b+0x20>
80002db8: a029         	j	0x80002dc2 <core::ptr::write_bytes::precondition_check::h1f2d7e6346c14c0b+0x2a>
80002dba: 6562         	ld	a0, 0x18(sp)
80002dbc: 8905         	andi	a0, a0, 0x1
80002dbe: e50d         	bnez	a0, 0x80002de8 <.Lpcrel_hi0+0x24>
80002dc0: a00d         	j	0x80002de2 <.Lpcrel_hi0+0x1e>
80002dc2: 66a2         	ld	a3, 0x8(sp)

0000000080002dc4 <.Lpcrel_hi0>:
80002dc4: 00003517     	auipc	a0, 0x3
80002dc8: 5cc50513     	addi	a0, a0, 0x5cc
80002dcc: fc2a         	sd	a0, 0x38(sp)
80002dce: 0e400593     	li	a1, 0xe4
80002dd2: e0ae         	sd	a1, 0x40(sp)
80002dd4: 1c900593     	li	a1, 0x1c9
80002dd8: 4601         	li	a2, 0x0
80002dda: 00002097     	auipc	ra, 0x2
80002dde: e48080e7     	jalr	-0x1b8(ra) <core::panicking::panic_nounwind_fmt::h2e018e50a8d3bc73>
80002de2: 6542         	ld	a0, 0x10(sp)
80002de4: e119         	bnez	a0, 0x80002dea <.Lpcrel_hi0+0x26>
80002de6: bff1         	j	0x80002dc2 <core::ptr::write_bytes::precondition_check::h1f2d7e6346c14c0b+0x2a>
80002de8: a009         	j	0x80002dea <.Lpcrel_hi0+0x26>
80002dea: 60a6         	ld	ra, 0x48(sp)
80002dec: 6161         	addi	sp, sp, 0x50
80002dee: 8082         	ret

0000000080002df0 <core::ptr::read_volatile::precondition_check::hf046cf469b7044a7>:
80002df0: 7179         	addi	sp, sp, -0x30
80002df2: f406         	sd	ra, 0x28(sp)
80002df4: e032         	sd	a2, 0x0(sp)
80002df6: e42a         	sd	a0, 0x8(sp)
80002df8: e82e         	sd	a1, 0x10(sp)
80002dfa: 00001097     	auipc	ra, 0x1
80002dfe: e9c080e7     	jalr	-0x164(ra) <core::ptr::const_ptr::_$LT$impl$u20$$BP$const$u20$T$GT$::is_aligned_to::ha71949ecaa4d0304>
80002e02: e115         	bnez	a0, 0x80002e26 <.Lpcrel_hi1+0x1e>
80002e04: a009         	j	0x80002e06 <core::ptr::read_volatile::precondition_check::hf046cf469b7044a7+0x16>
80002e06: 6682         	ld	a3, 0x0(sp)

0000000080002e08 <.Lpcrel_hi1>:
80002e08: 00003517     	auipc	a0, 0x3
80002e0c: 66c50513     	addi	a0, a0, 0x66c
80002e10: ec2a         	sd	a0, 0x18(sp)
80002e12: 0d600593     	li	a1, 0xd6
80002e16: f02e         	sd	a1, 0x20(sp)
80002e18: 1ad00593     	li	a1, 0x1ad
80002e1c: 4601         	li	a2, 0x0
80002e1e: 00002097     	auipc	ra, 0x2
80002e22: e04080e7     	jalr	-0x1fc(ra) <core::panicking::panic_nounwind_fmt::h2e018e50a8d3bc73>
80002e26: 70a2         	ld	ra, 0x28(sp)
80002e28: 6145         	addi	sp, sp, 0x30
80002e2a: 8082         	ret

0000000080002e2c <core::ptr::write_volatile::precondition_check::h855d8d12fa3f667c>:
80002e2c: 7139         	addi	sp, sp, -0x40
80002e2e: fc06         	sd	ra, 0x38(sp)
80002e30: e432         	sd	a2, 0x8(sp)
80002e32: e82a         	sd	a0, 0x10(sp)
80002e34: ec2e         	sd	a1, 0x18(sp)
80002e36: f02a         	sd	a0, 0x20(sp)
80002e38: 00001097     	auipc	ra, 0x1
80002e3c: e5e080e7     	jalr	-0x1a2(ra) <core::ptr::const_ptr::_$LT$impl$u20$$BP$const$u20$T$GT$::is_aligned_to::ha71949ecaa4d0304>
80002e40: e115         	bnez	a0, 0x80002e64 <.Lpcrel_hi2+0x1e>
80002e42: a009         	j	0x80002e44 <core::ptr::write_volatile::precondition_check::h855d8d12fa3f667c+0x18>
80002e44: 66a2         	ld	a3, 0x8(sp)

0000000080002e46 <.Lpcrel_hi2>:
80002e46: 00003517     	auipc	a0, 0x3
80002e4a: 70450513     	addi	a0, a0, 0x704
80002e4e: f42a         	sd	a0, 0x28(sp)
80002e50: 0d700593     	li	a1, 0xd7
80002e54: f82e         	sd	a1, 0x30(sp)
80002e56: 1af00593     	li	a1, 0x1af
80002e5a: 4601         	li	a2, 0x0
80002e5c: 00002097     	auipc	ra, 0x2
80002e60: dc6080e7     	jalr	-0x23a(ra) <core::panicking::panic_nounwind_fmt::h2e018e50a8d3bc73>
80002e64: 70e2         	ld	ra, 0x38(sp)
80002e66: 6121         	addi	sp, sp, 0x40
80002e68: 8082         	ret

0000000080002e6a <core::result::Result$LT$T$C$E$GT$::is_ok::hf28f2643275208c8>:
80002e6a: 1141         	addi	sp, sp, -0x10
80002e6c: e42a         	sd	a0, 0x8(sp)
80002e6e: 00054503     	lbu	a0, 0x0(a0)
80002e72: fff54513     	not	a0, a0
80002e76: 8905         	andi	a0, a0, 0x1
80002e78: 0141         	addi	sp, sp, 0x10
80002e7a: 8082         	ret

0000000080002e7c <core::iter::range::_$LT$impl$u20$core..iter..traits..iterator..Iterator$u20$for$u20$core..ops..range..Range$LT$A$GT$$GT$::next::h4b8b6bdb7de4b87e>:
80002e7c: 1141         	addi	sp, sp, -0x10
80002e7e: e406         	sd	ra, 0x8(sp)
80002e80: e02a         	sd	a0, 0x0(sp)
80002e82: 00000097     	auipc	ra, 0x0
80002e86: 018080e7     	jalr	0x18(ra) <_$LT$core..ops..range..Range$LT$T$GT$$u20$as$u20$core..iter..range..RangeIteratorImpl$GT$::spec_next::hcf6c6f0a1162efd5>
80002e8a: 60a2         	ld	ra, 0x8(sp)
80002e8c: 0141         	addi	sp, sp, 0x10
80002e8e: 8082         	ret

0000000080002e90 <_$LT$I$u20$as$u20$core..iter..traits..collect..IntoIterator$GT$::into_iter::h2cebf03328cd003f>:
80002e90: 1141         	addi	sp, sp, -0x10
80002e92: e02a         	sd	a0, 0x0(sp)
80002e94: e42e         	sd	a1, 0x8(sp)
80002e96: 0141         	addi	sp, sp, 0x10
80002e98: 8082         	ret

0000000080002e9a <_$LT$core..ops..range..Range$LT$T$GT$$u20$as$u20$core..iter..range..RangeIteratorImpl$GT$::spec_next::hcf6c6f0a1162efd5>:
80002e9a: 715d         	addi	sp, sp, -0x50
80002e9c: e486         	sd	ra, 0x48(sp)
80002e9e: 85aa         	mv	a1, a0
80002ea0: e82e         	sd	a1, 0x10(sp)
80002ea2: f42e         	sd	a1, 0x28(sp)
80002ea4: 00858513     	addi	a0, a1, 0x8
80002ea8: fc2e         	sd	a1, 0x38(sp)
80002eaa: e0aa         	sd	a0, 0x40(sp)
80002eac: 6188         	ld	a0, 0x0(a1)
80002eae: 658c         	ld	a1, 0x8(a1)
80002eb0: 00b56663     	bltu	a0, a1, 0x80002ebc <_$LT$core..ops..range..Range$LT$T$GT$$u20$as$u20$core..iter..range..RangeIteratorImpl$GT$::spec_next::hcf6c6f0a1162efd5+0x22>
80002eb4: a009         	j	0x80002eb6 <_$LT$core..ops..range..Range$LT$T$GT$$u20$as$u20$core..iter..range..RangeIteratorImpl$GT$::spec_next::hcf6c6f0a1162efd5+0x1c>
80002eb6: 4501         	li	a0, 0x0
80002eb8: ec2a         	sd	a0, 0x18(sp)
80002eba: a01d         	j	0x80002ee0 <_$LT$core..ops..range..Range$LT$T$GT$$u20$as$u20$core..iter..range..RangeIteratorImpl$GT$::spec_next::hcf6c6f0a1162efd5+0x46>
80002ebc: 6542         	ld	a0, 0x10(sp)
80002ebe: 6108         	ld	a0, 0x0(a0)
80002ec0: e02a         	sd	a0, 0x0(sp)
80002ec2: f82a         	sd	a0, 0x30(sp)
80002ec4: 4585         	li	a1, 0x1
80002ec6: e42e         	sd	a1, 0x8(sp)
80002ec8: 00000097     	auipc	ra, 0x0
80002ecc: 50e080e7     	jalr	0x50e(ra) <_$LT$usize$u20$as$u20$core..iter..range..Step$GT$::forward_unchecked::h42fba541cd5184d6>
80002ed0: 66c2         	ld	a3, 0x10(sp)
80002ed2: 6582         	ld	a1, 0x0(sp)
80002ed4: 862a         	mv	a2, a0
80002ed6: 6522         	ld	a0, 0x8(sp)
80002ed8: e290         	sd	a2, 0x0(a3)
80002eda: f02e         	sd	a1, 0x20(sp)
80002edc: ec2a         	sd	a0, 0x18(sp)
80002ede: a009         	j	0x80002ee0 <_$LT$core..ops..range..Range$LT$T$GT$$u20$as$u20$core..iter..range..RangeIteratorImpl$GT$::spec_next::hcf6c6f0a1162efd5+0x46>
80002ee0: 6562         	ld	a0, 0x18(sp)
80002ee2: 7582         	ld	a1, 0x20(sp)
80002ee4: 60a6         	ld	ra, 0x48(sp)
80002ee6: 6161         	addi	sp, sp, 0x50
80002ee8: 8082         	ret

0000000080002eea <core::hint::black_box::he81f174fa9c93ffd>:
80002eea: 1141         	addi	sp, sp, -0x10
80002eec: e02a         	sd	a0, 0x0(sp)
80002eee: e42a         	sd	a0, 0x8(sp)
80002ef0: 0028         	addi	a0, sp, 0x8
80002ef2: 6522         	ld	a0, 0x8(sp)
80002ef4: 0141         	addi	sp, sp, 0x10
80002ef6: 8082         	ret

0000000080002ef8 <core::fmt::rt::Argument::new_display::h21f9a99fdf9004a6>:
80002ef8: 1101         	addi	sp, sp, -0x20
80002efa: e02e         	sd	a1, 0x0(sp)
80002efc: 85aa         	mv	a1, a0
80002efe: 6502         	ld	a0, 0x0(sp)
80002f00: ec2a         	sd	a0, 0x18(sp)
80002f02: e42a         	sd	a0, 0x8(sp)

0000000080002f04 <.Lpcrel_hi0>:
80002f04: 00001517     	auipc	a0, 0x1
80002f08: c4050513     	addi	a0, a0, -0x3c0
80002f0c: e82a         	sd	a0, 0x10(sp)
80002f0e: 6542         	ld	a0, 0x10(sp)
80002f10: e588         	sd	a0, 0x8(a1)
80002f12: 6522         	ld	a0, 0x8(sp)
80002f14: e188         	sd	a0, 0x0(a1)
80002f16: 6105         	addi	sp, sp, 0x20
80002f18: 8082         	ret

0000000080002f1a <core::fmt::rt::Argument::new_display::h54aaa8f47c7175a2>:
80002f1a: 1101         	addi	sp, sp, -0x20
80002f1c: e02e         	sd	a1, 0x0(sp)
80002f1e: 85aa         	mv	a1, a0
80002f20: 6502         	ld	a0, 0x0(sp)
80002f22: ec2a         	sd	a0, 0x18(sp)
80002f24: e42a         	sd	a0, 0x8(sp)

0000000080002f26 <.Lpcrel_hi1>:
80002f26: 00001517     	auipc	a0, 0x1
80002f2a: 35050513     	addi	a0, a0, 0x350
80002f2e: e82a         	sd	a0, 0x10(sp)
80002f30: 6542         	ld	a0, 0x10(sp)
80002f32: e588         	sd	a0, 0x8(a1)
80002f34: 6522         	ld	a0, 0x8(sp)
80002f36: e188         	sd	a0, 0x0(a1)
80002f38: 6105         	addi	sp, sp, 0x20
80002f3a: 8082         	ret

0000000080002f3c <core::fmt::rt::Argument::new_display::hdba29bf2699d776a>:
80002f3c: 1101         	addi	sp, sp, -0x20
80002f3e: e02e         	sd	a1, 0x0(sp)
80002f40: 85aa         	mv	a1, a0
80002f42: 6502         	ld	a0, 0x0(sp)
80002f44: ec2a         	sd	a0, 0x18(sp)
80002f46: e42a         	sd	a0, 0x8(sp)

0000000080002f48 <.Lpcrel_hi2>:
80002f48: ffffd517     	auipc	a0, 0xffffd
80002f4c: 0f450513     	addi	a0, a0, 0xf4
80002f50: e82a         	sd	a0, 0x10(sp)
80002f52: 6542         	ld	a0, 0x10(sp)
80002f54: e588         	sd	a0, 0x8(a1)
80002f56: 6522         	ld	a0, 0x8(sp)
80002f58: e188         	sd	a0, 0x0(a1)
80002f5a: 6105         	addi	sp, sp, 0x20
80002f5c: 8082         	ret

0000000080002f5e <core::fmt::rt::Argument::new_display::hf39fee7a07297fe8>:
80002f5e: 1101         	addi	sp, sp, -0x20
80002f60: e02e         	sd	a1, 0x0(sp)
80002f62: 85aa         	mv	a1, a0
80002f64: 6502         	ld	a0, 0x0(sp)
80002f66: ec2a         	sd	a0, 0x18(sp)
80002f68: e42a         	sd	a0, 0x8(sp)

0000000080002f6a <.Lpcrel_hi3>:
80002f6a: 00001517     	auipc	a0, 0x1
80002f6e: 30c50513     	addi	a0, a0, 0x30c
80002f72: e82a         	sd	a0, 0x10(sp)
80002f74: 6542         	ld	a0, 0x10(sp)
80002f76: e588         	sd	a0, 0x8(a1)
80002f78: 6522         	ld	a0, 0x8(sp)
80002f7a: e188         	sd	a0, 0x0(a1)
80002f7c: 6105         	addi	sp, sp, 0x20
80002f7e: 8082         	ret

0000000080002f80 <core::fmt::rt::Argument::new_lower_hex::hcc0dfd77f7b7645b>:
80002f80: 1101         	addi	sp, sp, -0x20
80002f82: e02e         	sd	a1, 0x0(sp)
80002f84: 85aa         	mv	a1, a0
80002f86: 6502         	ld	a0, 0x0(sp)
80002f88: ec2a         	sd	a0, 0x18(sp)
80002f8a: e42a         	sd	a0, 0x8(sp)

0000000080002f8c <.Lpcrel_hi4>:
80002f8c: 00001517     	auipc	a0, 0x1
80002f90: 33650513     	addi	a0, a0, 0x336
80002f94: e82a         	sd	a0, 0x10(sp)
80002f96: 6542         	ld	a0, 0x10(sp)
80002f98: e588         	sd	a0, 0x8(a1)
80002f9a: 6522         	ld	a0, 0x8(sp)
80002f9c: e188         	sd	a0, 0x0(a1)
80002f9e: 6105         	addi	sp, sp, 0x20
80002fa0: 8082         	ret

0000000080002fa2 <core::fmt::rt::Argument::new_lower_hex::he3e4b83e741bf983>:
80002fa2: 1101         	addi	sp, sp, -0x20
80002fa4: e02e         	sd	a1, 0x0(sp)
80002fa6: 85aa         	mv	a1, a0
80002fa8: 6502         	ld	a0, 0x0(sp)
80002faa: ec2a         	sd	a0, 0x18(sp)
80002fac: e42a         	sd	a0, 0x8(sp)

0000000080002fae <.Lpcrel_hi5>:
80002fae: 00001517     	auipc	a0, 0x1
80002fb2: 31450513     	addi	a0, a0, 0x314
80002fb6: e82a         	sd	a0, 0x10(sp)
80002fb8: 6542         	ld	a0, 0x10(sp)
80002fba: e588         	sd	a0, 0x8(a1)
80002fbc: 6522         	ld	a0, 0x8(sp)
80002fbe: e188         	sd	a0, 0x0(a1)
80002fc0: 6105         	addi	sp, sp, 0x20
80002fc2: 8082         	ret

0000000080002fc4 <core::fmt::Write::write_char::hbc5fd599c34b4f44>:
80002fc4: 711d         	addi	sp, sp, -0x60
80002fc6: ec86         	sd	ra, 0x58(sp)
80002fc8: e42e         	sd	a1, 0x8(sp)
80002fca: 85aa         	mv	a1, a0
80002fcc: 6522         	ld	a0, 0x8(sp)
80002fce: e82e         	sd	a1, 0x10(sp)
80002fd0: f42e         	sd	a1, 0x28(sp)
80002fd2: da2a         	sw	a0, 0x34(sp)
80002fd4: 4581         	li	a1, 0x0
80002fd6: d22e         	sw	a1, 0x24(sp)
80002fd8: 104c         	addi	a1, sp, 0x24
80002fda: fc2e         	sd	a1, 0x38(sp)
80002fdc: 4611         	li	a2, 0x4
80002fde: e0b2         	sd	a2, 0x40(sp)
80002fe0: 00000097     	auipc	ra, 0x0
80002fe4: 1d4080e7     	jalr	0x1d4(ra) <core::char::methods::encode_utf8_raw::h8748c29b6a5742f8>
80002fe8: 862a         	mv	a2, a0
80002fea: 6542         	ld	a0, 0x10(sp)
80002fec: ec32         	sd	a2, 0x18(sp)
80002fee: 862e         	mv	a2, a1
80002ff0: 65e2         	ld	a1, 0x18(sp)
80002ff2: e4ae         	sd	a1, 0x48(sp)
80002ff4: e8b2         	sd	a2, 0x50(sp)
80002ff6: 00000097     	auipc	ra, 0x0
80002ffa: 150080e7     	jalr	0x150(ra) <_$LT$lab5_kernel_task4..console..KernelConsole$u20$as$u20$core..fmt..Write$GT$::write_str::h40c234e8d8a71db5>
80002ffe: 60e6         	ld	ra, 0x58(sp)
80003000: 6125         	addi	sp, sp, 0x60
80003002: 8082         	ret

0000000080003004 <core::fmt::Write::write_fmt::he65c1e50f9705bcd>:
80003004: 1101         	addi	sp, sp, -0x20
80003006: ec06         	sd	ra, 0x18(sp)
80003008: e02a         	sd	a0, 0x0(sp)
8000300a: e42e         	sd	a1, 0x8(sp)
8000300c: e832         	sd	a2, 0x10(sp)
8000300e: 00000097     	auipc	ra, 0x0
80003012: 00e080e7     	jalr	0xe(ra) <_$LT$$RF$mut$u20$W$u20$as$u20$core..fmt..Write..write_fmt..SpecWriteFmt$GT$::spec_write_fmt::h1f18f95ff517c55b>
80003016: 60e2         	ld	ra, 0x18(sp)
80003018: 6105         	addi	sp, sp, 0x20
8000301a: 8082         	ret

000000008000301c <_$LT$$RF$mut$u20$W$u20$as$u20$core..fmt..Write..write_fmt..SpecWriteFmt$GT$::spec_write_fmt::h1f18f95ff517c55b>:
8000301c: 715d         	addi	sp, sp, -0x50
8000301e: e486         	sd	ra, 0x48(sp)
80003020: e02a         	sd	a0, 0x0(sp)
80003022: e42e         	sd	a1, 0x8(sp)
80003024: e832         	sd	a2, 0x10(sp)
80003026: f82a         	sd	a0, 0x30(sp)
80003028: 0028         	addi	a0, sp, 0x8
8000302a: 00001097     	auipc	ra, 0x1
8000302e: bce080e7     	jalr	-0x432(ra) <core::fmt::Arguments::as_statically_known_str::he1b18457f3dc3aef>
80003032: f02a         	sd	a0, 0x20(sp)
80003034: f42e         	sd	a1, 0x28(sp)
80003036: 7502         	ld	a0, 0x20(sp)
80003038: cd11         	beqz	a0, 0x80003054 <_$LT$$RF$mut$u20$W$u20$as$u20$core..fmt..Write..write_fmt..SpecWriteFmt$GT$::spec_write_fmt::h1f18f95ff517c55b+0x38>
8000303a: a009         	j	0x8000303c <_$LT$$RF$mut$u20$W$u20$as$u20$core..fmt..Write..write_fmt..SpecWriteFmt$GT$::spec_write_fmt::h1f18f95ff517c55b+0x20>
8000303c: 6502         	ld	a0, 0x0(sp)
8000303e: 7582         	ld	a1, 0x20(sp)
80003040: 7622         	ld	a2, 0x28(sp)
80003042: fc2e         	sd	a1, 0x38(sp)
80003044: e0b2         	sd	a2, 0x40(sp)
80003046: 00000097     	auipc	ra, 0x0
8000304a: 100080e7     	jalr	0x100(ra) <_$LT$lab5_kernel_task4..console..KernelConsole$u20$as$u20$core..fmt..Write$GT$::write_str::h40c234e8d8a71db5>
8000304e: 00a10fa3     	sb	a0, 0x1f(sp)
80003052: a839         	j	0x80003070 <.Lpcrel_hi0+0x16>
80003054: 6502         	ld	a0, 0x0(sp)
80003056: 6622         	ld	a2, 0x8(sp)
80003058: 66c2         	ld	a3, 0x10(sp)

000000008000305a <.Lpcrel_hi0>:
8000305a: 00003597     	auipc	a1, 0x3
8000305e: 5ce58593     	addi	a1, a1, 0x5ce
80003062: 00001097     	auipc	ra, 0x1
80003066: 314080e7     	jalr	0x314(ra) <core::fmt::write::hfd17e9e8e823b619>
8000306a: 00a10fa3     	sb	a0, 0x1f(sp)
8000306e: a009         	j	0x80003070 <.Lpcrel_hi0+0x16>
80003070: 01f14503     	lbu	a0, 0x1f(sp)
80003074: 60a6         	ld	ra, 0x48(sp)
80003076: 6161         	addi	sp, sp, 0x50
80003078: 8082         	ret

000000008000307a <_$LT$core..slice..iter..Iter$LT$T$GT$$u20$as$u20$core..iter..traits..iterator..Iterator$GT$::next::hdbcf4e58d0b0cdce>:
8000307a: 715d         	addi	sp, sp, -0x50
8000307c: e42a         	sd	a0, 0x8(sp)
8000307e: f42a         	sd	a0, 0x28(sp)
80003080: 4585         	li	a1, 0x1
80003082: f82e         	sd	a1, 0x30(sp)
80003084: fc2e         	sd	a1, 0x38(sp)
80003086: 610c         	ld	a1, 0x0(a0)
80003088: e82e         	sd	a1, 0x10(sp)
8000308a: e0ae         	sd	a1, 0x40(sp)
8000308c: 6508         	ld	a0, 0x8(a0)
8000308e: ec2a         	sd	a0, 0x18(sp)
80003090: e4aa         	sd	a0, 0x48(sp)
80003092: a009         	j	0x80003094 <_$LT$core..slice..iter..Iter$LT$T$GT$$u20$as$u20$core..iter..traits..iterator..Iterator$GT$::next::hdbcf4e58d0b0cdce+0x1a>
80003094: 6542         	ld	a0, 0x10(sp)
80003096: 65e2         	ld	a1, 0x18(sp)
80003098: 00b50863     	beq	a0, a1, 0x800030a8 <_$LT$core..slice..iter..Iter$LT$T$GT$$u20$as$u20$core..iter..traits..iterator..Iterator$GT$::next::hdbcf4e58d0b0cdce+0x2e>
8000309c: a009         	j	0x8000309e <_$LT$core..slice..iter..Iter$LT$T$GT$$u20$as$u20$core..iter..traits..iterator..Iterator$GT$::next::hdbcf4e58d0b0cdce+0x24>
8000309e: 65a2         	ld	a1, 0x8(sp)
800030a0: 6542         	ld	a0, 0x10(sp)
800030a2: 0505         	addi	a0, a0, 0x1
800030a4: e188         	sd	a0, 0x0(a1)
800030a6: a021         	j	0x800030ae <_$LT$core..slice..iter..Iter$LT$T$GT$$u20$as$u20$core..iter..traits..iterator..Iterator$GT$::next::hdbcf4e58d0b0cdce+0x34>
800030a8: 4501         	li	a0, 0x0
800030aa: f02a         	sd	a0, 0x20(sp)
800030ac: a039         	j	0x800030ba <_$LT$core..slice..iter..Iter$LT$T$GT$$u20$as$u20$core..iter..traits..iterator..Iterator$GT$::next::hdbcf4e58d0b0cdce+0x40>
800030ae: 6542         	ld	a0, 0x10(sp)
800030b0: f02a         	sd	a0, 0x20(sp)
800030b2: a009         	j	0x800030b4 <_$LT$core..slice..iter..Iter$LT$T$GT$$u20$as$u20$core..iter..traits..iterator..Iterator$GT$::next::hdbcf4e58d0b0cdce+0x3a>
800030b4: 7502         	ld	a0, 0x20(sp)
800030b6: 6161         	addi	sp, sp, 0x50
800030b8: 8082         	ret
800030ba: bfed         	j	0x800030b4 <_$LT$core..slice..iter..Iter$LT$T$GT$$u20$as$u20$core..iter..traits..iterator..Iterator$GT$::next::hdbcf4e58d0b0cdce+0x3a>

00000000800030bc <lab5_kernel_task4::console::write_byte::h3e19c02ebcea4244>:
800030bc: 1101         	addi	sp, sp, -0x20
800030be: ec06         	sd	ra, 0x18(sp)
800030c0: 85aa         	mv	a1, a0
800030c2: e42e         	sd	a1, 0x8(sp)
800030c4: 00a10ba3     	sb	a0, 0x17(sp)
800030c8: 45a9         	li	a1, 0xa
800030ca: 02b50363     	beq	a0, a1, 0x800030f0 <.Lpcrel_hi1>
800030ce: a009         	j	0x800030d0 <lab5_kernel_task4::console::write_byte::h3e19c02ebcea4244+0x14>
800030d0: 6522         	ld	a0, 0x8(sp)
800030d2: 0ff57593     	zext.b	a1, a0

00000000800030d6 <.Lpcrel_hi0>:
800030d6: 00003517     	auipc	a0, 0x3
800030da: 59a50613     	addi	a2, a0, 0x59a
800030de: 10000537     	lui	a0, 0x10000
800030e2: fffff097     	auipc	ra, 0xfffff
800030e6: 386080e7     	jalr	0x386(ra) <core::ptr::write_volatile::hcafa03912750de8b>
800030ea: 60e2         	ld	ra, 0x18(sp)
800030ec: 6105         	addi	sp, sp, 0x20
800030ee: 8082         	ret

00000000800030f0 <.Lpcrel_hi1>:
800030f0: 00003517     	auipc	a0, 0x3
800030f4: 56850613     	addi	a2, a0, 0x568
800030f8: 10000537     	lui	a0, 0x10000
800030fc: 45b5         	li	a1, 0xd
800030fe: fffff097     	auipc	ra, 0xfffff
80003102: 36a080e7     	jalr	0x36a(ra) <core::ptr::write_volatile::hcafa03912750de8b>
80003106: b7e9         	j	0x800030d0 <lab5_kernel_task4::console::write_byte::h3e19c02ebcea4244+0x14>

0000000080003108 <lab5_kernel_task4::console::print::hbed2e8a51f9bf136>:
80003108: 7139         	addi	sp, sp, -0x40
8000310a: fc06         	sd	ra, 0x38(sp)
8000310c: e42e         	sd	a1, 0x8(sp)
8000310e: e02a         	sd	a0, 0x0(sp)
80003110: f02a         	sd	a0, 0x20(sp)
80003112: f42e         	sd	a1, 0x28(sp)

0000000080003114 <.Lpcrel_hi2>:
80003114: 00004517     	auipc	a0, 0x4
80003118: bbc50513     	addi	a0, a0, -0x444
8000311c: fffff097     	auipc	ra, 0xfffff
80003120: 156080e7     	jalr	0x156(ra) <lab5_kernel_task4::spinlock::SpinLock$LT$T$GT$::lock::hb51c34a285e36840>
80003124: 6582         	ld	a1, 0x0(sp)
80003126: 6622         	ld	a2, 0x8(sp)
80003128: e82a         	sd	a0, 0x10(sp)
8000312a: 01f10513     	addi	a0, sp, 0x1f
8000312e: 00000097     	auipc	ra, 0x0
80003132: ed6080e7     	jalr	-0x12a(ra) <core::fmt::Write::write_fmt::he65c1e50f9705bcd>
80003136: 0808         	addi	a0, sp, 0x10
80003138: 00001097     	auipc	ra, 0x1
8000313c: c14080e7     	jalr	-0x3ec(ra) <core::ptr::drop_in_place$LT$lab5_kernel_task4..spinlock..SpinLockGuard$LT$$LP$$RP$$GT$$GT$::h60b79a773d76e28f>
80003140: 70e2         	ld	ra, 0x38(sp)
80003142: 6121         	addi	sp, sp, 0x40
80003144: 8082         	ret

0000000080003146 <_$LT$lab5_kernel_task4..console..KernelConsole$u20$as$u20$core..fmt..Write$GT$::write_str::h40c234e8d8a71db5>:
80003146: 715d         	addi	sp, sp, -0x50
80003148: e486         	sd	ra, 0x48(sp)
8000314a: e032         	sd	a2, 0x0(sp)
8000314c: 862e         	mv	a2, a1
8000314e: 6582         	ld	a1, 0x0(sp)
80003150: e432         	sd	a2, 0x8(sp)
80003152: 862a         	mv	a2, a0
80003154: 6522         	ld	a0, 0x8(sp)
80003156: f432         	sd	a2, 0x28(sp)
80003158: f82a         	sd	a0, 0x30(sp)
8000315a: fc2e         	sd	a1, 0x38(sp)
8000315c: 00001097     	auipc	ra, 0x1
80003160: c92080e7     	jalr	-0x36e(ra) <core::str::_$LT$impl$u20$str$GT$::bytes::hbf4ea4d0c9cb1020>
80003164: 00000097     	auipc	ra, 0x0
80003168: 046080e7     	jalr	0x46(ra) <_$LT$I$u20$as$u20$core..iter..traits..collect..IntoIterator$GT$::into_iter::h449bb4a83299847d>
8000316c: e82a         	sd	a0, 0x10(sp)
8000316e: ec2e         	sd	a1, 0x18(sp)
80003170: a009         	j	0x80003172 <_$LT$lab5_kernel_task4..console..KernelConsole$u20$as$u20$core..fmt..Write$GT$::write_str::h40c234e8d8a71db5+0x2c>
80003172: 0808         	addi	a0, sp, 0x10
80003174: 00001097     	auipc	ra, 0x1
80003178: c26080e7     	jalr	-0x3da(ra) <_$LT$core..str..iter..Bytes$u20$as$u20$core..iter..traits..iterator..Iterator$GT$::next::hd7fcc34f36f145e3>
8000317c: 8905         	andi	a0, a0, 0x1
8000317e: 02a10323     	sb	a0, 0x26(sp)
80003182: 02b103a3     	sb	a1, 0x27(sp)
80003186: 02614503     	lbu	a0, 0x26(sp)
8000318a: 8905         	andi	a0, a0, 0x1
8000318c: c919         	beqz	a0, 0x800031a2 <_$LT$lab5_kernel_task4..console..KernelConsole$u20$as$u20$core..fmt..Write$GT$::write_str::h40c234e8d8a71db5+0x5c>
8000318e: a009         	j	0x80003190 <_$LT$lab5_kernel_task4..console..KernelConsole$u20$as$u20$core..fmt..Write$GT$::write_str::h40c234e8d8a71db5+0x4a>
80003190: 02714503     	lbu	a0, 0x27(sp)
80003194: 04a103a3     	sb	a0, 0x47(sp)
80003198: 00000097     	auipc	ra, 0x0
8000319c: f24080e7     	jalr	-0xdc(ra) <lab5_kernel_task4::console::write_byte::h3e19c02ebcea4244>
800031a0: bfc9         	j	0x80003172 <_$LT$lab5_kernel_task4..console..KernelConsole$u20$as$u20$core..fmt..Write$GT$::write_str::h40c234e8d8a71db5+0x2c>
800031a2: 4501         	li	a0, 0x0
800031a4: 60a6         	ld	ra, 0x48(sp)
800031a6: 6161         	addi	sp, sp, 0x50
800031a8: 8082         	ret

00000000800031aa <_$LT$I$u20$as$u20$core..iter..traits..collect..IntoIterator$GT$::into_iter::h449bb4a83299847d>:
800031aa: 1141         	addi	sp, sp, -0x10
800031ac: e02a         	sd	a0, 0x0(sp)
800031ae: e42e         	sd	a1, 0x8(sp)
800031b0: 0141         	addi	sp, sp, 0x10
800031b2: 8082         	ret

00000000800031b4 <core::char::methods::encode_utf8_raw::h8748c29b6a5742f8>:
800031b4: 715d         	addi	sp, sp, -0x50
800031b6: e486         	sd	ra, 0x48(sp)
800031b8: e032         	sd	a2, 0x0(sp)
800031ba: e42e         	sd	a1, 0x8(sp)
800031bc: 86aa         	mv	a3, a0
800031be: e836         	sd	a3, 0x10(sp)
800031c0: d22a         	sw	a0, 0x24(sp)
800031c2: f42e         	sd	a1, 0x28(sp)
800031c4: f832         	sd	a2, 0x30(sp)
800031c6: 08000593     	li	a1, 0x80
800031ca: 00b56863     	bltu	a0, a1, 0x800031da <core::char::methods::encode_utf8_raw::h8748c29b6a5742f8+0x26>
800031ce: a009         	j	0x800031d0 <core::char::methods::encode_utf8_raw::h8748c29b6a5742f8+0x1c>
800031d0: 6542         	ld	a0, 0x10(sp)
800031d2: 00b5551b     	srliw	a0, a0, 0xb
800031d6: c911         	beqz	a0, 0x800031ea <core::char::methods::encode_utf8_raw::h8748c29b6a5742f8+0x36>
800031d8: a021         	j	0x800031e0 <core::char::methods::encode_utf8_raw::h8748c29b6a5742f8+0x2c>
800031da: 4505         	li	a0, 0x1
800031dc: ec2a         	sd	a0, 0x18(sp)
800031de: a839         	j	0x800031fc <core::char::methods::encode_utf8_raw::h8748c29b6a5742f8+0x48>
800031e0: 6542         	ld	a0, 0x10(sp)
800031e2: 0105551b     	srliw	a0, a0, 0x10
800031e6: c901         	beqz	a0, 0x800031f6 <core::char::methods::encode_utf8_raw::h8748c29b6a5742f8+0x42>
800031e8: a021         	j	0x800031f0 <core::char::methods::encode_utf8_raw::h8748c29b6a5742f8+0x3c>
800031ea: 4509         	li	a0, 0x2
800031ec: ec2a         	sd	a0, 0x18(sp)
800031ee: a039         	j	0x800031fc <core::char::methods::encode_utf8_raw::h8748c29b6a5742f8+0x48>
800031f0: 4511         	li	a0, 0x4
800031f2: ec2a         	sd	a0, 0x18(sp)
800031f4: a021         	j	0x800031fc <core::char::methods::encode_utf8_raw::h8748c29b6a5742f8+0x48>
800031f6: 450d         	li	a0, 0x3
800031f8: ec2a         	sd	a0, 0x18(sp)
800031fa: a009         	j	0x800031fc <core::char::methods::encode_utf8_raw::h8748c29b6a5742f8+0x48>
800031fc: 6502         	ld	a0, 0x0(sp)
800031fe: fc2a         	sd	a0, 0x38(sp)
80003200: 65e2         	ld	a1, 0x18(sp)
80003202: 00b56d63     	bltu	a0, a1, 0x8000321c <core::char::methods::encode_utf8_raw::h8748c29b6a5742f8+0x68>
80003206: a009         	j	0x80003208 <core::char::methods::encode_utf8_raw::h8748c29b6a5742f8+0x54>
80003208: 65a2         	ld	a1, 0x8(sp)
8000320a: 6542         	ld	a0, 0x10(sp)
8000320c: 2501         	sext.w	a0, a0
8000320e: 00000097     	auipc	ra, 0x0
80003212: 0cc080e7     	jalr	0xcc(ra) <core::char::methods::encode_utf8_raw_unchecked::h7bff46b06e430fc7>
80003216: 6522         	ld	a0, 0x8(sp)
80003218: e0aa         	sd	a0, 0x40(sp)
8000321a: a829         	j	0x80003234 <.Lpcrel_hi0+0x10>
8000321c: 6602         	ld	a2, 0x0(sp)
8000321e: 6542         	ld	a0, 0x10(sp)
80003220: 65e2         	ld	a1, 0x18(sp)
80003222: 2501         	sext.w	a0, a0

0000000080003224 <.Lpcrel_hi0>:
80003224: 00003697     	auipc	a3, 0x3
80003228: 47c68693     	addi	a3, a3, 0x47c
8000322c: 00000097     	auipc	ra, 0x0
80003230: 02c080e7     	jalr	0x2c(ra) <core::char::methods::encode_utf8_raw::do_panic::runtime::h9b4f5d91681e2cb1>
80003234: 6522         	ld	a0, 0x8(sp)
80003236: 66e2         	ld	a3, 0x18(sp)

0000000080003238 <.Lpcrel_hi1>:
80003238: 00003597     	auipc	a1, 0x3
8000323c: 45058713     	addi	a4, a1, 0x450
80003240: 4605         	li	a2, 0x1
80003242: 85b2         	mv	a1, a2
80003244: fffff097     	auipc	ra, 0xfffff
80003248: ebc080e7     	jalr	-0x144(ra) <core::slice::raw::from_raw_parts_mut::precondition_check::ha67b1768a8d7b7e8>
8000324c: a009         	j	0x8000324e <.Lpcrel_hi1+0x16>
8000324e: 6522         	ld	a0, 0x8(sp)
80003250: 65e2         	ld	a1, 0x18(sp)
80003252: 60a6         	ld	ra, 0x48(sp)
80003254: 6161         	addi	sp, sp, 0x50
80003256: 8082         	ret

0000000080003258 <core::char::methods::encode_utf8_raw::do_panic::runtime::h9b4f5d91681e2cb1>:
80003258: 7115         	addi	sp, sp, -0xe0
8000325a: e036         	sd	a3, 0x0(sp)
8000325c: 86b2         	mv	a3, a2
8000325e: 6602         	ld	a2, 0x0(sp)
80003260: e436         	sd	a3, 0x8(sp)
80003262: 86aa         	mv	a3, a0
80003264: 6522         	ld	a0, 0x8(sp)
80003266: ca36         	sw	a3, 0x14(sp)
80003268: ec2e         	sd	a1, 0x18(sp)
8000326a: f02a         	sd	a0, 0x20(sp)

000000008000326c <.Lpcrel_hi2>:
8000326c: 00003517     	auipc	a0, 0x3
80003270: 44c50513     	addi	a0, a0, 0x44c
80003274: fd2a         	sd	a0, 0xb8(sp)
80003276: 082c         	addi	a1, sp, 0x18
80003278: e1ae         	sd	a1, 0xc0(sp)
8000327a: 0858         	addi	a4, sp, 0x14
8000327c: e5ba         	sd	a4, 0xc8(sp)
8000327e: 1014         	addi	a3, sp, 0x20
80003280: e9b6         	sd	a3, 0xd0(sp)
80003282: e52e         	sd	a1, 0x88(sp)

0000000080003284 <.Lpcrel_hi3>:
80003284: 00001597     	auipc	a1, 0x1
80003288: ff258593     	addi	a1, a1, -0xe
8000328c: e92e         	sd	a1, 0x90(sp)
8000328e: 67ca         	ld	a5, 0x90(sp)
80003290: f0be         	sd	a5, 0x60(sp)
80003292: 67aa         	ld	a5, 0x88(sp)
80003294: ecbe         	sd	a5, 0x58(sp)
80003296: ed3a         	sd	a4, 0x98(sp)

0000000080003298 <.Lpcrel_hi4>:
80003298: 00001717     	auipc	a4, 0x1
8000329c: 08270713     	addi	a4, a4, 0x82
800032a0: f13a         	sd	a4, 0xa0(sp)
800032a2: 770a         	ld	a4, 0xa0(sp)
800032a4: f8ba         	sd	a4, 0x70(sp)
800032a6: 676a         	ld	a4, 0x98(sp)
800032a8: f4ba         	sd	a4, 0x68(sp)
800032aa: f536         	sd	a3, 0xa8(sp)
800032ac: f92e         	sd	a1, 0xb0(sp)
800032ae: 75ca         	ld	a1, 0xb0(sp)
800032b0: e12e         	sd	a1, 0x80(sp)
800032b2: 75aa         	ld	a1, 0xa8(sp)
800032b4: fcae         	sd	a1, 0x78(sp)
800032b6: 7586         	ld	a1, 0x60(sp)
800032b8: f82e         	sd	a1, 0x30(sp)
800032ba: 65e6         	ld	a1, 0x58(sp)
800032bc: f42e         	sd	a1, 0x28(sp)
800032be: 75c6         	ld	a1, 0x70(sp)
800032c0: e0ae         	sd	a1, 0x40(sp)
800032c2: 75a6         	ld	a1, 0x68(sp)
800032c4: fc2e         	sd	a1, 0x38(sp)
800032c6: 658a         	ld	a1, 0x80(sp)
800032c8: e8ae         	sd	a1, 0x50(sp)
800032ca: 75e6         	ld	a1, 0x78(sp)
800032cc: e4ae         	sd	a1, 0x48(sp)
800032ce: 102c         	addi	a1, sp, 0x28
800032d0: edae         	sd	a1, 0xd8(sp)
800032d2: 00002097     	auipc	ra, 0x2
800032d6: 9e0080e7     	jalr	-0x620(ra) <core::panicking::panic_fmt::h767dc8ac4dd44648>

00000000800032da <core::char::methods::encode_utf8_raw_unchecked::h7bff46b06e430fc7>:
800032da: 7119         	addi	sp, sp, -0x80
800032dc: f02e         	sd	a1, 0x20(sp)
800032de: 862a         	mv	a2, a0
800032e0: f432         	sd	a2, 0x28(sp)
800032e2: de2a         	sw	a0, 0x3c(sp)
800032e4: e0ae         	sd	a1, 0x40(sp)
800032e6: 4585         	li	a1, 0x1
800032e8: e4ae         	sd	a1, 0x48(sp)
800032ea: e8ae         	sd	a1, 0x50(sp)
800032ec: ecae         	sd	a1, 0x58(sp)
800032ee: 4589         	li	a1, 0x2
800032f0: f0ae         	sd	a1, 0x60(sp)
800032f2: f4ae         	sd	a1, 0x68(sp)
800032f4: 458d         	li	a1, 0x3
800032f6: f8ae         	sd	a1, 0x70(sp)
800032f8: 08000593     	li	a1, 0x80
800032fc: 00b56863     	bltu	a0, a1, 0x8000330c <core::char::methods::encode_utf8_raw_unchecked::h7bff46b06e430fc7+0x32>
80003300: a009         	j	0x80003302 <core::char::methods::encode_utf8_raw_unchecked::h7bff46b06e430fc7+0x28>
80003302: 7522         	ld	a0, 0x28(sp)
80003304: 00b5551b     	srliw	a0, a0, 0xb
80003308: cd11         	beqz	a0, 0x80003324 <core::char::methods::encode_utf8_raw_unchecked::h7bff46b06e430fc7+0x4a>
8000330a: a801         	j	0x8000331a <core::char::methods::encode_utf8_raw_unchecked::h7bff46b06e430fc7+0x40>
8000330c: 7522         	ld	a0, 0x28(sp)
8000330e: 7582         	ld	a1, 0x20(sp)
80003310: 4605         	li	a2, 0x1
80003312: f832         	sd	a2, 0x30(sp)
80003314: 00a58023     	sb	a0, 0x0(a1)
80003318: a049         	j	0x8000339a <core::char::methods::encode_utf8_raw_unchecked::h7bff46b06e430fc7+0xc0>
8000331a: 7522         	ld	a0, 0x28(sp)
8000331c: 0105551b     	srliw	a0, a0, 0x10
80003320: c901         	beqz	a0, 0x80003330 <core::char::methods::encode_utf8_raw_unchecked::h7bff46b06e430fc7+0x56>
80003322: a021         	j	0x8000332a <core::char::methods::encode_utf8_raw_unchecked::h7bff46b06e430fc7+0x50>
80003324: 4509         	li	a0, 0x2
80003326: f82a         	sd	a0, 0x30(sp)
80003328: a039         	j	0x80003336 <core::char::methods::encode_utf8_raw_unchecked::h7bff46b06e430fc7+0x5c>
8000332a: 4511         	li	a0, 0x4
8000332c: f82a         	sd	a0, 0x30(sp)
8000332e: a021         	j	0x80003336 <core::char::methods::encode_utf8_raw_unchecked::h7bff46b06e430fc7+0x5c>
80003330: 450d         	li	a0, 0x3
80003332: f82a         	sd	a0, 0x30(sp)
80003334: a009         	j	0x80003336 <core::char::methods::encode_utf8_raw_unchecked::h7bff46b06e430fc7+0x5c>
80003336: 7522         	ld	a0, 0x28(sp)
80003338: 03f57593     	andi	a1, a0, 0x3f
8000333c: f805859b     	addiw	a1, a1, -0x80
80003340: e02e         	sd	a1, 0x0(sp)
80003342: 06b10e23     	sb	a1, 0x7c(sp)
80003346: 03451593     	slli	a1, a0, 0x34
8000334a: 91e9         	srli	a1, a1, 0x3a
8000334c: f805859b     	addiw	a1, a1, -0x80
80003350: e42e         	sd	a1, 0x8(sp)
80003352: 06b10ea3     	sb	a1, 0x7d(sp)
80003356: 02e51593     	slli	a1, a0, 0x2e
8000335a: 91e9         	srli	a1, a1, 0x3a
8000335c: f805859b     	addiw	a1, a1, -0x80
80003360: e82e         	sd	a1, 0x10(sp)
80003362: 06b10f23     	sb	a1, 0x7e(sp)
80003366: 8149         	srli	a0, a0, 0x12
80003368: ff056513     	ori	a0, a0, -0x10
8000336c: ec2a         	sd	a0, 0x18(sp)
8000336e: 06a10fa3     	sb	a0, 0x7f(sp)
80003372: 7542         	ld	a0, 0x30(sp)
80003374: 4589         	li	a1, 0x2
80003376: 00b51d63     	bne	a0, a1, 0x80003390 <core::char::methods::encode_utf8_raw_unchecked::h7bff46b06e430fc7+0xb6>
8000337a: a009         	j	0x8000337c <core::char::methods::encode_utf8_raw_unchecked::h7bff46b06e430fc7+0xa2>
8000337c: 6502         	ld	a0, 0x0(sp)
8000337e: 7582         	ld	a1, 0x20(sp)
80003380: 6622         	ld	a2, 0x8(sp)
80003382: 0c066613     	ori	a2, a2, 0xc0
80003386: 00c58023     	sb	a2, 0x0(a1)
8000338a: 00a580a3     	sb	a0, 0x1(a1)
8000338e: a031         	j	0x8000339a <core::char::methods::encode_utf8_raw_unchecked::h7bff46b06e430fc7+0xc0>
80003390: 7542         	ld	a0, 0x30(sp)
80003392: 458d         	li	a1, 0x3
80003394: 00b50463     	beq	a0, a1, 0x8000339c <core::char::methods::encode_utf8_raw_unchecked::h7bff46b06e430fc7+0xc2>
80003398: a839         	j	0x800033b6 <core::char::methods::encode_utf8_raw_unchecked::h7bff46b06e430fc7+0xdc>
8000339a: a825         	j	0x800033d2 <core::char::methods::encode_utf8_raw_unchecked::h7bff46b06e430fc7+0xf8>
8000339c: 6502         	ld	a0, 0x0(sp)
8000339e: 7582         	ld	a1, 0x20(sp)
800033a0: 6622         	ld	a2, 0x8(sp)
800033a2: 66c2         	ld	a3, 0x10(sp)
800033a4: 0e06e693     	ori	a3, a3, 0xe0
800033a8: 00d58023     	sb	a3, 0x0(a1)
800033ac: 00c580a3     	sb	a2, 0x1(a1)
800033b0: 00a58123     	sb	a0, 0x2(a1)
800033b4: b7dd         	j	0x8000339a <core::char::methods::encode_utf8_raw_unchecked::h7bff46b06e430fc7+0xc0>
800033b6: 6502         	ld	a0, 0x0(sp)
800033b8: 7582         	ld	a1, 0x20(sp)
800033ba: 6622         	ld	a2, 0x8(sp)
800033bc: 66c2         	ld	a3, 0x10(sp)
800033be: 6762         	ld	a4, 0x18(sp)
800033c0: 00e58023     	sb	a4, 0x0(a1)
800033c4: 00d580a3     	sb	a3, 0x1(a1)
800033c8: 00c58123     	sb	a2, 0x2(a1)
800033cc: 00a581a3     	sb	a0, 0x3(a1)
800033d0: a009         	j	0x800033d2 <core::char::methods::encode_utf8_raw_unchecked::h7bff46b06e430fc7+0xf8>
800033d2: 6109         	addi	sp, sp, 0x80
800033d4: 8082         	ret

00000000800033d6 <_$LT$usize$u20$as$u20$core..iter..range..Step$GT$::forward_unchecked::h42fba541cd5184d6>:
800033d6: 7179         	addi	sp, sp, -0x30
800033d8: f406         	sd	ra, 0x28(sp)
800033da: e42e         	sd	a1, 0x8(sp)
800033dc: e82a         	sd	a0, 0x10(sp)
800033de: ec2a         	sd	a0, 0x18(sp)
800033e0: f02e         	sd	a1, 0x20(sp)
800033e2: a009         	j	0x800033e4 <_$LT$usize$u20$as$u20$core..iter..range..Step$GT$::forward_unchecked::h42fba541cd5184d6+0xe>
800033e4: 65a2         	ld	a1, 0x8(sp)
800033e6: 6542         	ld	a0, 0x10(sp)

00000000800033e8 <.Lpcrel_hi0>:
800033e8: 00003617     	auipc	a2, 0x3
800033ec: 31860613     	addi	a2, a2, 0x318
800033f0: fffff097     	auipc	ra, 0xfffff
800033f4: fe8080e7     	jalr	-0x18(ra) <core::num::_$LT$impl$u20$usize$GT$::unchecked_add::precondition_check::h45d15d599d8aa34c>
800033f8: a009         	j	0x800033fa <.Lpcrel_hi0+0x12>
800033fa: 6542         	ld	a0, 0x10(sp)
800033fc: 65a2         	ld	a1, 0x8(sp)
800033fe: 952e         	add	a0, a0, a1
80003400: 70a2         	ld	ra, 0x28(sp)
80003402: 6145         	addi	sp, sp, 0x30
80003404: 8082         	ret

0000000080003406 <core::intrinsics::rotate_left::hd3094553216b8f6d>:
80003406: 1101         	addi	sp, sp, -0x20
80003408: 86ae         	mv	a3, a1
8000340a: 85aa         	mv	a1, a0
8000340c: e42e         	sd	a1, 0x8(sp)
8000340e: ca36         	sw	a3, 0x14(sp)
80003410: 00d59533     	sll	a0, a1, a3
80003414: 4601         	li	a2, 0x0
80003416: 9e15         	subw	a2, a2, a3
80003418: 00c5d5b3     	srl	a1, a1, a2
8000341c: 8d4d         	or	a0, a0, a1
8000341e: ec2a         	sd	a0, 0x18(sp)
80003420: 6562         	ld	a0, 0x18(sp)
80003422: 6105         	addi	sp, sp, 0x20
80003424: 8082         	ret

0000000080003426 <core::sync::atomic::AtomicBool::compare_exchange::h527c7f7bb26ca376>:
80003426: 7119         	addi	sp, sp, -0x80
80003428: fc86         	sd	ra, 0x78(sp)
8000342a: e42a         	sd	a0, 0x8(sp)
8000342c: 87ba         	mv	a5, a4
8000342e: e83e         	sd	a5, 0x10(sp)
80003430: 87b2         	mv	a5, a2
80003432: ec3e         	sd	a5, 0x18(sp)
80003434: 87ae         	mv	a5, a1
80003436: f03e         	sd	a5, 0x20(sp)
80003438: e4aa         	sd	a0, 0x48(sp)
8000343a: 04b10923     	sb	a1, 0x52(sp)
8000343e: 04c109a3     	sb	a2, 0x53(sp)
80003442: 04d10a23     	sb	a3, 0x54(sp)
80003446: 04e10aa3     	sb	a4, 0x55(sp)
8000344a: 4501         	li	a0, 0x0
8000344c: 04a10b23     	sb	a0, 0x56(sp)
80003450: 04a10ba3     	sb	a0, 0x57(sp)
80003454: 8536         	mv	a0, a3
80003456: f42a         	sd	a0, 0x28(sp)
80003458: 4511         	li	a0, 0x4
8000345a: 00a69763     	bne	a3, a0, 0x80003468 <core::sync::atomic::AtomicBool::compare_exchange::h527c7f7bb26ca376+0x42>
8000345e: a009         	j	0x80003460 <core::sync::atomic::AtomicBool::compare_exchange::h527c7f7bb26ca376+0x3a>
80003460: 4511         	li	a0, 0x4
80003462: 02a10a23     	sb	a0, 0x34(sp)
80003466: a809         	j	0x80003478 <core::sync::atomic::AtomicBool::compare_exchange::h527c7f7bb26ca376+0x52>
80003468: 6542         	ld	a0, 0x10(sp)
8000346a: 0ff57513     	zext.b	a0, a0
8000346e: e02a         	sd	a0, 0x0(sp)
80003470: 4591         	li	a1, 0x4
80003472: 02b50063     	beq	a0, a1, 0x80003492 <core::sync::atomic::AtomicBool::compare_exchange::h527c7f7bb26ca376+0x6c>
80003476: a015         	j	0x8000349a <core::sync::atomic::AtomicBool::compare_exchange::h527c7f7bb26ca376+0x74>
80003478: 7502         	ld	a0, 0x20(sp)
8000347a: 65e2         	ld	a1, 0x18(sp)
8000347c: 8d2d         	xor	a0, a0, a1
8000347e: fff54513     	not	a0, a0
80003482: 8905         	andi	a0, a0, 0x1
80003484: 02a10b23     	sb	a0, 0x36(sp)
80003488: 03614503     	lbu	a0, 0x36(sp)
8000348c: 8905         	andi	a0, a0, 0x1
8000348e: e51d         	bnez	a0, 0x800034bc <core::sync::atomic::AtomicBool::compare_exchange::h527c7f7bb26ca376+0x96>
80003490: a811         	j	0x800034a4 <core::sync::atomic::AtomicBool::compare_exchange::h527c7f7bb26ca376+0x7e>
80003492: 4511         	li	a0, 0x4
80003494: 02a10a23     	sb	a0, 0x34(sp)
80003498: b7c5         	j	0x80003478 <core::sync::atomic::AtomicBool::compare_exchange::h527c7f7bb26ca376+0x52>
8000349a: 7522         	ld	a0, 0x28(sp)
8000349c: 458d         	li	a1, 0x3
8000349e: 04b50763     	beq	a0, a1, 0x800034ec <core::sync::atomic::AtomicBool::compare_exchange::h527c7f7bb26ca376+0xc6>
800034a2: a889         	j	0x800034f4 <core::sync::atomic::AtomicBool::compare_exchange::h527c7f7bb26ca376+0xce>
800034a4: 6522         	ld	a0, 0x8(sp)
800034a6: 65e2         	ld	a1, 0x18(sp)
800034a8: 03414603     	lbu	a2, 0x34(sp)
800034ac: 8985         	andi	a1, a1, 0x1
800034ae: 00000097     	auipc	ra, 0x0
800034b2: 274080e7     	jalr	0x274(ra) <core::sync::atomic::AtomicBool::swap::h182d310569f8bb9c>
800034b6: 02a10aa3     	sb	a0, 0x35(sp)
800034ba: a2dd         	j	0x800036a0 <.Lpcrel_hi3+0xbc>
800034bc: 6522         	ld	a0, 0x8(sp)
800034be: e0aa         	sd	a0, 0x40(sp)
800034c0: 6506         	ld	a0, 0x40(sp)
800034c2: fc2a         	sd	a0, 0x38(sp)
800034c4: 75e2         	ld	a1, 0x38(sp)
800034c6: ffc5f513     	andi	a0, a1, -0x4
800034ca: 0035959b     	slliw	a1, a1, 0x3
800034ce: 4601         	li	a2, 0x0
800034d0: 46c5252f     	amoor.w.aqrl	a0, a2, (a0)
800034d4: 00b5553b     	srlw	a0, a0, a1
800034d8: 02a10ba3     	sb	a0, 0x37(sp)
800034dc: a009         	j	0x800034de <core::sync::atomic::AtomicBool::compare_exchange::h527c7f7bb26ca376+0xb8>
800034de: 03714503     	lbu	a0, 0x37(sp)
800034e2: 00a03533     	snez	a0, a0
800034e6: 02a10aa3     	sb	a0, 0x35(sp)
800034ea: aa5d         	j	0x800036a0 <.Lpcrel_hi3+0xbc>
800034ec: 450d         	li	a0, 0x3
800034ee: 02a10a23     	sb	a0, 0x34(sp)
800034f2: a819         	j	0x80003508 <core::sync::atomic::AtomicBool::compare_exchange::h527c7f7bb26ca376+0xe2>
800034f4: 6502         	ld	a0, 0x0(sp)
800034f6: 4589         	li	a1, 0x2
800034f8: 02b50a63     	beq	a0, a1, 0x8000352c <core::sync::atomic::AtomicBool::compare_exchange::h527c7f7bb26ca376+0x106>
800034fc: a009         	j	0x800034fe <core::sync::atomic::AtomicBool::compare_exchange::h527c7f7bb26ca376+0xd8>
800034fe: 6502         	ld	a0, 0x0(sp)
80003500: 458d         	li	a1, 0x3
80003502: 02b50a63     	beq	a0, a1, 0x80003536 <.Lpcrel_hi0>
80003506: a831         	j	0x80003522 <core::sync::atomic::AtomicBool::compare_exchange::h527c7f7bb26ca376+0xfc>
80003508: 7502         	ld	a0, 0x20(sp)
8000350a: 65e2         	ld	a1, 0x18(sp)
8000350c: 8d2d         	xor	a0, a0, a1
8000350e: fff54513     	not	a0, a0
80003512: 8905         	andi	a0, a0, 0x1
80003514: 02a10b23     	sb	a0, 0x36(sp)
80003518: 03614503     	lbu	a0, 0x36(sp)
8000351c: 8905         	andi	a0, a0, 0x1
8000351e: e539         	bnez	a0, 0x8000356c <.Lpcrel_hi1+0x26>
80003520: b751         	j	0x800034a4 <core::sync::atomic::AtomicBool::compare_exchange::h527c7f7bb26ca376+0x7e>
80003522: 7522         	ld	a0, 0x28(sp)
80003524: 4589         	li	a1, 0x2
80003526: 06b50463     	beq	a0, a1, 0x8000358e <.Lpcrel_hi1+0x48>
8000352a: a895         	j	0x8000359e <.Lpcrel_hi1+0x58>
8000352c: 7522         	ld	a0, 0x28(sp)
8000352e: 4585         	li	a1, 0x1
80003530: 02b50563     	beq	a0, a1, 0x8000355a <.Lpcrel_hi1+0x14>
80003534: a03d         	j	0x80003562 <.Lpcrel_hi1+0x1c>

0000000080003536 <.Lpcrel_hi0>:
80003536: 00003517     	auipc	a0, 0x3
8000353a: 2d250513     	addi	a0, a0, 0x2d2
8000353e: ecaa         	sd	a0, 0x58(sp)
80003540: 03d00593     	li	a1, 0x3d
80003544: f0ae         	sd	a1, 0x60(sp)

0000000080003546 <.Lpcrel_hi1>:
80003546: 00003597     	auipc	a1, 0x3
8000354a: 30258613     	addi	a2, a1, 0x302
8000354e: 07b00593     	li	a1, 0x7b
80003552: 00001097     	auipc	ra, 0x1
80003556: 760080e7     	jalr	0x760(ra) <core::panicking::panic_fmt::h767dc8ac4dd44648>
8000355a: 450d         	li	a0, 0x3
8000355c: 02a10a23     	sb	a0, 0x34(sp)
80003560: b765         	j	0x80003508 <core::sync::atomic::AtomicBool::compare_exchange::h527c7f7bb26ca376+0xe2>
80003562: 7522         	ld	a0, 0x28(sp)
80003564: 4589         	li	a1, 0x2
80003566: 02b50463     	beq	a0, a1, 0x8000358e <.Lpcrel_hi1+0x48>
8000356a: a035         	j	0x80003596 <.Lpcrel_hi1+0x50>
8000356c: 6522         	ld	a0, 0x8(sp)
8000356e: e0aa         	sd	a0, 0x40(sp)
80003570: 6506         	ld	a0, 0x40(sp)
80003572: fc2a         	sd	a0, 0x38(sp)
80003574: 75e2         	ld	a1, 0x38(sp)
80003576: ffc5f513     	andi	a0, a1, -0x4
8000357a: 0035959b     	slliw	a1, a1, 0x3
8000357e: 4601         	li	a2, 0x0
80003580: 46c5252f     	amoor.w.aqrl	a0, a2, (a0)
80003584: 00b5553b     	srlw	a0, a0, a1
80003588: 02a10ba3     	sb	a0, 0x37(sp)
8000358c: bf89         	j	0x800034de <core::sync::atomic::AtomicBool::compare_exchange::h527c7f7bb26ca376+0xb8>
8000358e: 4509         	li	a0, 0x2
80003590: 02a10a23     	sb	a0, 0x34(sp)
80003594: a831         	j	0x800035b0 <.Lpcrel_hi1+0x6a>
80003596: 4509         	li	a0, 0x2
80003598: 02a10a23     	sb	a0, 0x34(sp)
8000359c: a811         	j	0x800035b0 <.Lpcrel_hi1+0x6a>
8000359e: 6502         	ld	a0, 0x0(sp)
800035a0: c515         	beqz	a0, 0x800035cc <.Lpcrel_hi1+0x86>
800035a2: a009         	j	0x800035a4 <.Lpcrel_hi1+0x5e>
800035a4: 6502         	ld	a0, 0x0(sp)
800035a6: 4585         	li	a1, 0x1
800035a8: 02b50663     	beq	a0, a1, 0x800035d4 <.Lpcrel_hi2>
800035ac: a009         	j	0x800035ae <.Lpcrel_hi1+0x68>
800035ae: b7e5         	j	0x80003596 <.Lpcrel_hi1+0x50>
800035b0: 7502         	ld	a0, 0x20(sp)
800035b2: 65e2         	ld	a1, 0x18(sp)
800035b4: 8d2d         	xor	a0, a0, a1
800035b6: fff54513     	not	a0, a0
800035ba: 8905         	andi	a0, a0, 0x1
800035bc: 02a10b23     	sb	a0, 0x36(sp)
800035c0: 03614503     	lbu	a0, 0x36(sp)
800035c4: 8905         	andi	a0, a0, 0x1
800035c6: ed45         	bnez	a0, 0x8000367e <.Lpcrel_hi3+0x9a>
800035c8: bdf1         	j	0x800034a4 <core::sync::atomic::AtomicBool::compare_exchange::h527c7f7bb26ca376+0x7e>
800035ca: 0000         	unimp
800035cc: 7522         	ld	a0, 0x28(sp)
800035ce: 8905         	andi	a0, a0, 0x1
800035d0: e505         	bnez	a0, 0x800035f8 <.Lpcrel_hi3+0x14>
800035d2: a099         	j	0x80003618 <.Lpcrel_hi3+0x34>

00000000800035d4 <.Lpcrel_hi2>:
800035d4: 00003517     	auipc	a0, 0x3
800035d8: 28c50513     	addi	a0, a0, 0x28c
800035dc: f4aa         	sd	a0, 0x68(sp)
800035de: 03400593     	li	a1, 0x34
800035e2: f8ae         	sd	a1, 0x70(sp)

00000000800035e4 <.Lpcrel_hi3>:
800035e4: 00003597     	auipc	a1, 0x3
800035e8: 2b458613     	addi	a2, a1, 0x2b4
800035ec: 06900593     	li	a1, 0x69
800035f0: 00001097     	auipc	ra, 0x1
800035f4: 6c2080e7     	jalr	0x6c2(ra) <core::panicking::panic_fmt::h767dc8ac4dd44648>
800035f8: 7502         	ld	a0, 0x20(sp)
800035fa: 65e2         	ld	a1, 0x18(sp)
800035fc: 4605         	li	a2, 0x1
800035fe: 02c10a23     	sb	a2, 0x34(sp)
80003602: 8d2d         	xor	a0, a0, a1
80003604: fff54513     	not	a0, a0
80003608: 8905         	andi	a0, a0, 0x1
8000360a: 02a10b23     	sb	a0, 0x36(sp)
8000360e: 03614503     	lbu	a0, 0x36(sp)
80003612: 8905         	andi	a0, a0, 0x1
80003614: e521         	bnez	a0, 0x8000365c <.Lpcrel_hi3+0x78>
80003616: b579         	j	0x800034a4 <core::sync::atomic::AtomicBool::compare_exchange::h527c7f7bb26ca376+0x7e>
80003618: 7502         	ld	a0, 0x20(sp)
8000361a: 65e2         	ld	a1, 0x18(sp)
8000361c: 4601         	li	a2, 0x0
8000361e: 02c10a23     	sb	a2, 0x34(sp)
80003622: 8d2d         	xor	a0, a0, a1
80003624: fff54513     	not	a0, a0
80003628: 8905         	andi	a0, a0, 0x1
8000362a: 02a10b23     	sb	a0, 0x36(sp)
8000362e: 03614503     	lbu	a0, 0x36(sp)
80003632: 8905         	andi	a0, a0, 0x1
80003634: e60508e3     	beqz	a0, 0x800034a4 <core::sync::atomic::AtomicBool::compare_exchange::h527c7f7bb26ca376+0x7e>
80003638: a009         	j	0x8000363a <.Lpcrel_hi3+0x56>
8000363a: 6522         	ld	a0, 0x8(sp)
8000363c: e0aa         	sd	a0, 0x40(sp)
8000363e: 6506         	ld	a0, 0x40(sp)
80003640: fc2a         	sd	a0, 0x38(sp)
80003642: 75e2         	ld	a1, 0x38(sp)
80003644: ffc5f513     	andi	a0, a1, -0x4
80003648: 0035959b     	slliw	a1, a1, 0x3
8000364c: 4601         	li	a2, 0x0
8000364e: 40c5252f     	amoor.w	a0, a2, (a0)
80003652: 00b5553b     	srlw	a0, a0, a1
80003656: 02a10ba3     	sb	a0, 0x37(sp)
8000365a: b551         	j	0x800034de <core::sync::atomic::AtomicBool::compare_exchange::h527c7f7bb26ca376+0xb8>
8000365c: 6522         	ld	a0, 0x8(sp)
8000365e: e0aa         	sd	a0, 0x40(sp)
80003660: 6506         	ld	a0, 0x40(sp)
80003662: fc2a         	sd	a0, 0x38(sp)
80003664: 75e2         	ld	a1, 0x38(sp)
80003666: ffc5f513     	andi	a0, a1, -0x4
8000366a: 0035959b     	slliw	a1, a1, 0x3
8000366e: 4601         	li	a2, 0x0
80003670: 42c5252f     	amoor.w.rl	a0, a2, (a0)
80003674: 00b5553b     	srlw	a0, a0, a1
80003678: 02a10ba3     	sb	a0, 0x37(sp)
8000367c: b58d         	j	0x800034de <core::sync::atomic::AtomicBool::compare_exchange::h527c7f7bb26ca376+0xb8>
8000367e: 6522         	ld	a0, 0x8(sp)
80003680: e0aa         	sd	a0, 0x40(sp)
80003682: 6506         	ld	a0, 0x40(sp)
80003684: fc2a         	sd	a0, 0x38(sp)
80003686: 75e2         	ld	a1, 0x38(sp)
80003688: ffc5f513     	andi	a0, a1, -0x4
8000368c: 0035959b     	slliw	a1, a1, 0x3
80003690: 4601         	li	a2, 0x0
80003692: 44c5252f     	amoor.w.aq	a0, a2, (a0)
80003696: 00b5553b     	srlw	a0, a0, a1
8000369a: 02a10ba3     	sb	a0, 0x37(sp)
8000369e: b581         	j	0x800034de <core::sync::atomic::AtomicBool::compare_exchange::h527c7f7bb26ca376+0xb8>
800036a0: 7582         	ld	a1, 0x20(sp)
800036a2: 03514503     	lbu	a0, 0x35(sp)
800036a6: 8905         	andi	a0, a0, 0x1
800036a8: 8985         	andi	a1, a1, 0x1
800036aa: 00b50b63     	beq	a0, a1, 0x800036c0 <.Lpcrel_hi3+0xdc>
800036ae: a009         	j	0x800036b0 <.Lpcrel_hi3+0xcc>
800036b0: 03514503     	lbu	a0, 0x35(sp)
800036b4: 02a109a3     	sb	a0, 0x33(sp)
800036b8: 4505         	li	a0, 0x1
800036ba: 02a10923     	sb	a0, 0x32(sp)
800036be: a809         	j	0x800036d0 <.Lpcrel_hi3+0xec>
800036c0: 03514503     	lbu	a0, 0x35(sp)
800036c4: 02a109a3     	sb	a0, 0x33(sp)
800036c8: 4501         	li	a0, 0x0
800036ca: 02a10923     	sb	a0, 0x32(sp)
800036ce: a009         	j	0x800036d0 <.Lpcrel_hi3+0xec>
800036d0: 03214503     	lbu	a0, 0x32(sp)
800036d4: 03314583     	lbu	a1, 0x33(sp)
800036d8: 70e6         	ld	ra, 0x78(sp)
800036da: 6109         	addi	sp, sp, 0x80
800036dc: 8082         	ret

00000000800036de <core::sync::atomic::AtomicBool::compare_exchange_weak::hb6a33b517124d973>:
800036de: 1101         	addi	sp, sp, -0x20
800036e0: ec06         	sd	ra, 0x18(sp)
800036e2: e42a         	sd	a0, 0x8(sp)
800036e4: 00b10a23     	sb	a1, 0x14(sp)
800036e8: 00c10aa3     	sb	a2, 0x15(sp)
800036ec: 00d10b23     	sb	a3, 0x16(sp)
800036f0: 00e10ba3     	sb	a4, 0x17(sp)
800036f4: 00000097     	auipc	ra, 0x0
800036f8: d32080e7     	jalr	-0x2ce(ra) <core::sync::atomic::AtomicBool::compare_exchange::h527c7f7bb26ca376>
800036fc: 60e2         	ld	ra, 0x18(sp)
800036fe: 6105         	addi	sp, sp, 0x20
80003700: 8082         	ret

0000000080003702 <core::sync::atomic::AtomicBool::load::h77ebd9d5a9aba964>:
80003702: 1101         	addi	sp, sp, -0x20
80003704: ec06         	sd	ra, 0x18(sp)
80003706: e42a         	sd	a0, 0x8(sp)
80003708: 00b10ba3     	sb	a1, 0x17(sp)
8000370c: fffff097     	auipc	ra, 0xfffff
80003710: f94080e7     	jalr	-0x6c(ra) <core::sync::atomic::atomic_load::h002e80802249dc67>
80003714: 0ff57513     	zext.b	a0, a0
80003718: 00a03533     	snez	a0, a0
8000371c: 60e2         	ld	ra, 0x18(sp)
8000371e: 6105         	addi	sp, sp, 0x20
80003720: 8082         	ret

0000000080003722 <core::sync::atomic::AtomicBool::swap::h182d310569f8bb9c>:
80003722: 715d         	addi	sp, sp, -0x50
80003724: ec2a         	sd	a0, 0x18(sp)
80003726: 86b2         	mv	a3, a2
80003728: f036         	sd	a3, 0x20(sp)
8000372a: f82a         	sd	a0, 0x30(sp)
8000372c: 02b10d23     	sb	a1, 0x3a(sp)
80003730: 02c10da3     	sb	a2, 0x3b(sp)
80003734: 4505         	li	a0, 0x1
80003736: 02a10e23     	sb	a0, 0x3c(sp)
8000373a: 02a10ea3     	sb	a0, 0x3d(sp)
8000373e: 4501         	li	a0, 0x0
80003740: 02a10f23     	sb	a0, 0x3e(sp)
80003744: 02a10fa3     	sb	a0, 0x3f(sp)
80003748: e195         	bnez	a1, 0x8000376c <.Lpcrel_hi4+0xe>
8000374a: a009         	j	0x8000374c <core::sync::atomic::AtomicBool::swap::h182d310569f8bb9c+0x2a>
8000374c: 7502         	ld	a0, 0x20(sp)
8000374e: 65e2         	ld	a1, 0x18(sp)
80003750: e0ae         	sd	a1, 0x40(sp)
80003752: 0ff57513     	zext.b	a0, a0
80003756: e82a         	sd	a0, 0x10(sp)
80003758: 6542         	ld	a0, 0x10(sp)
8000375a: 00351593     	slli	a1, a0, 0x3

000000008000375e <.Lpcrel_hi4>:
8000375e: 00003517     	auipc	a0, 0x3
80003762: fba50513     	addi	a0, a0, -0x46
80003766: 952e         	add	a0, a0, a1
80003768: 6108         	ld	a0, 0x0(a0)
8000376a: 8502         	jr	a0
8000376c: 7502         	ld	a0, 0x20(sp)
8000376e: 65e2         	ld	a1, 0x18(sp)
80003770: e4ae         	sd	a1, 0x48(sp)
80003772: 0ff57513     	zext.b	a0, a0
80003776: e42a         	sd	a0, 0x8(sp)
80003778: 6522         	ld	a0, 0x8(sp)
8000377a: 00351593     	slli	a1, a0, 0x3

000000008000377e <.Lpcrel_hi5>:
8000377e: 00003517     	auipc	a0, 0x3
80003782: fc250513     	addi	a0, a0, -0x3e
80003786: 952e         	add	a0, a0, a1
80003788: 6108         	ld	a0, 0x0(a0)
8000378a: 8502         	jr	a0
8000378c: 0000         	unimp
8000378e: 65e2         	ld	a1, 0x18(sp)
80003790: ffc5f513     	andi	a0, a1, -0x4
80003794: 0035959b     	slliw	a1, a1, 0x3
80003798: 0ff00613     	li	a2, 0xff
8000379c: 00b6163b     	sllw	a2, a2, a1
800037a0: fff64613     	not	a2, a2
800037a4: 60c5252f     	amoand.w	a0, a2, (a0)
800037a8: 00b5553b     	srlw	a0, a0, a1
800037ac: 02a107a3     	sb	a0, 0x2f(sp)
800037b0: a849         	j	0x80003842 <.Lpcrel_hi5+0xc4>
800037b2: 65e2         	ld	a1, 0x18(sp)
800037b4: ffc5f513     	andi	a0, a1, -0x4
800037b8: 0035959b     	slliw	a1, a1, 0x3
800037bc: 0ff00613     	li	a2, 0xff
800037c0: 00b6163b     	sllw	a2, a2, a1
800037c4: fff64613     	not	a2, a2
800037c8: 62c5252f     	amoand.w.rl	a0, a2, (a0)
800037cc: 00b5553b     	srlw	a0, a0, a1
800037d0: 02a107a3     	sb	a0, 0x2f(sp)
800037d4: a0bd         	j	0x80003842 <.Lpcrel_hi5+0xc4>
800037d6: 65e2         	ld	a1, 0x18(sp)
800037d8: ffc5f513     	andi	a0, a1, -0x4
800037dc: 0035959b     	slliw	a1, a1, 0x3
800037e0: 0ff00613     	li	a2, 0xff
800037e4: 00b6163b     	sllw	a2, a2, a1
800037e8: fff64613     	not	a2, a2
800037ec: 64c5252f     	amoand.w.aq	a0, a2, (a0)
800037f0: 00b5553b     	srlw	a0, a0, a1
800037f4: 02a107a3     	sb	a0, 0x2f(sp)
800037f8: a0a9         	j	0x80003842 <.Lpcrel_hi5+0xc4>
800037fa: 65e2         	ld	a1, 0x18(sp)
800037fc: ffc5f513     	andi	a0, a1, -0x4
80003800: 0035959b     	slliw	a1, a1, 0x3
80003804: 0ff00613     	li	a2, 0xff
80003808: 00b6163b     	sllw	a2, a2, a1
8000380c: fff64613     	not	a2, a2
80003810: 66c5252f     	amoand.w.aqrl	a0, a2, (a0)
80003814: 00b5553b     	srlw	a0, a0, a1
80003818: 02a107a3     	sb	a0, 0x2f(sp)
8000381c: a01d         	j	0x80003842 <.Lpcrel_hi5+0xc4>
8000381e: 65e2         	ld	a1, 0x18(sp)
80003820: ffc5f513     	andi	a0, a1, -0x4
80003824: 0035959b     	slliw	a1, a1, 0x3
80003828: 0ff00613     	li	a2, 0xff
8000382c: 00b6163b     	sllw	a2, a2, a1
80003830: fff64613     	not	a2, a2
80003834: 66c5252f     	amoand.w.aqrl	a0, a2, (a0)
80003838: 00b5553b     	srlw	a0, a0, a1
8000383c: 02a107a3     	sb	a0, 0x2f(sp)
80003840: a009         	j	0x80003842 <.Lpcrel_hi5+0xc4>
80003842: 02f14503     	lbu	a0, 0x2f(sp)
80003846: 00a03533     	snez	a0, a0
8000384a: 02a106a3     	sb	a0, 0x2d(sp)
8000384e: a009         	j	0x80003850 <.Lpcrel_hi5+0xd2>
80003850: 02d14503     	lbu	a0, 0x2d(sp)
80003854: 6161         	addi	sp, sp, 0x50
80003856: 8082         	ret
80003858: 65e2         	ld	a1, 0x18(sp)
8000385a: ffc5f513     	andi	a0, a1, -0x4
8000385e: 0035959b     	slliw	a1, a1, 0x3
80003862: 4605         	li	a2, 0x1
80003864: 00b6163b     	sllw	a2, a2, a1
80003868: 40c5252f     	amoor.w	a0, a2, (a0)
8000386c: 00b5553b     	srlw	a0, a0, a1
80003870: 02a10723     	sb	a0, 0x2e(sp)
80003874: a8ad         	j	0x800038ee <.Lpcrel_hi5+0x170>
80003876: 65e2         	ld	a1, 0x18(sp)
80003878: ffc5f513     	andi	a0, a1, -0x4
8000387c: 0035959b     	slliw	a1, a1, 0x3
80003880: 4605         	li	a2, 0x1
80003882: 00b6163b     	sllw	a2, a2, a1
80003886: 42c5252f     	amoor.w.rl	a0, a2, (a0)
8000388a: 00b5553b     	srlw	a0, a0, a1
8000388e: 02a10723     	sb	a0, 0x2e(sp)
80003892: a8b1         	j	0x800038ee <.Lpcrel_hi5+0x170>
80003894: 65e2         	ld	a1, 0x18(sp)
80003896: ffc5f513     	andi	a0, a1, -0x4
8000389a: 0035959b     	slliw	a1, a1, 0x3
8000389e: 4605         	li	a2, 0x1
800038a0: 00b6163b     	sllw	a2, a2, a1
800038a4: 44c5252f     	amoor.w.aq	a0, a2, (a0)
800038a8: 00b5553b     	srlw	a0, a0, a1
800038ac: 02a10723     	sb	a0, 0x2e(sp)
800038b0: a83d         	j	0x800038ee <.Lpcrel_hi5+0x170>
800038b2: 65e2         	ld	a1, 0x18(sp)
800038b4: ffc5f513     	andi	a0, a1, -0x4
800038b8: 0035959b     	slliw	a1, a1, 0x3
800038bc: 4605         	li	a2, 0x1
800038be: 00b6163b     	sllw	a2, a2, a1
800038c2: 46c5252f     	amoor.w.aqrl	a0, a2, (a0)
800038c6: 00b5553b     	srlw	a0, a0, a1
800038ca: 02a10723     	sb	a0, 0x2e(sp)
800038ce: a005         	j	0x800038ee <.Lpcrel_hi5+0x170>
800038d0: 65e2         	ld	a1, 0x18(sp)
800038d2: ffc5f513     	andi	a0, a1, -0x4
800038d6: 0035959b     	slliw	a1, a1, 0x3
800038da: 4605         	li	a2, 0x1
800038dc: 00b6163b     	sllw	a2, a2, a1
800038e0: 46c5252f     	amoor.w.aqrl	a0, a2, (a0)
800038e4: 00b5553b     	srlw	a0, a0, a1
800038e8: 02a10723     	sb	a0, 0x2e(sp)
800038ec: a009         	j	0x800038ee <.Lpcrel_hi5+0x170>
800038ee: 02e14503     	lbu	a0, 0x2e(sp)
800038f2: 00a03533     	snez	a0, a0
800038f6: 02a106a3     	sb	a0, 0x2d(sp)
800038fa: bf99         	j	0x80003850 <.Lpcrel_hi5+0xd2>

00000000800038fc <core::sync::atomic::AtomicBool::store::hfb6122fe2021251c>:
800038fc: 1101         	addi	sp, sp, -0x20
800038fe: ec06         	sd	ra, 0x18(sp)
80003900: e42a         	sd	a0, 0x8(sp)
80003902: 00b10b23     	sb	a1, 0x16(sp)
80003906: 00c10ba3     	sb	a2, 0x17(sp)
8000390a: fffff097     	auipc	ra, 0xfffff
8000390e: f60080e7     	jalr	-0xa0(ra) <core::sync::atomic::atomic_store::h3bec87568798d88e>
80003912: 60e2         	ld	ra, 0x18(sp)
80003914: 6105         	addi	sp, sp, 0x20
80003916: 8082         	ret

0000000080003918 <core::sync::atomic::AtomicUsize::compare_exchange_weak::ha4d59ece13352772>:
80003918: 7179         	addi	sp, sp, -0x30
8000391a: f406         	sd	ra, 0x28(sp)
8000391c: e42a         	sd	a0, 0x8(sp)
8000391e: e82e         	sd	a1, 0x10(sp)
80003920: ec32         	sd	a2, 0x18(sp)
80003922: 02d10323     	sb	a3, 0x26(sp)
80003926: 02e103a3     	sb	a4, 0x27(sp)
8000392a: fffff097     	auipc	ra, 0xfffff
8000392e: 10c080e7     	jalr	0x10c(ra) <core::sync::atomic::atomic_compare_exchange_weak::haec615c5698a47c0>
80003932: 70a2         	ld	ra, 0x28(sp)
80003934: 6145         	addi	sp, sp, 0x30
80003936: 8082         	ret

0000000080003938 <core::sync::atomic::AtomicUsize::load::hfa451401d719484c>:
80003938: 1101         	addi	sp, sp, -0x20
8000393a: ec06         	sd	ra, 0x18(sp)
8000393c: e42a         	sd	a0, 0x8(sp)
8000393e: 00b10ba3     	sb	a1, 0x17(sp)
80003942: fffff097     	auipc	ra, 0xfffff
80003946: e00080e7     	jalr	-0x200(ra) <core::sync::atomic::atomic_load::h5d7382a3b69030d2>
8000394a: 60e2         	ld	ra, 0x18(sp)
8000394c: 6105         	addi	sp, sp, 0x20
8000394e: 8082         	ret

0000000080003950 <core::sync::atomic::AtomicUsize::swap::h50d0652b9befb0cc>:
80003950: 7139         	addi	sp, sp, -0x40
80003952: e02e         	sd	a1, 0x0(sp)
80003954: e42a         	sd	a0, 0x8(sp)
80003956: f02a         	sd	a0, 0x20(sp)
80003958: f42e         	sd	a1, 0x28(sp)
8000395a: 02c10ba3     	sb	a2, 0x37(sp)
8000395e: fc2a         	sd	a0, 0x38(sp)
80003960: e832         	sd	a2, 0x10(sp)
80003962: 6542         	ld	a0, 0x10(sp)
80003964: 00351593     	slli	a1, a0, 0x3

0000000080003968 <.Lpcrel_hi6>:
80003968: 00003517     	auipc	a0, 0x3
8000396c: e0050513     	addi	a0, a0, -0x200
80003970: 952e         	add	a0, a0, a1
80003972: 6108         	ld	a0, 0x0(a0)
80003974: 8502         	jr	a0
80003976: 0000         	unimp
80003978: 6522         	ld	a0, 0x8(sp)
8000397a: 6582         	ld	a1, 0x0(sp)
8000397c: 08b5352f     	amoswap.d	a0, a1, (a0)
80003980: ec2a         	sd	a0, 0x18(sp)
80003982: a80d         	j	0x800039b4 <.Lpcrel_hi6+0x4c>
80003984: 6522         	ld	a0, 0x8(sp)
80003986: 6582         	ld	a1, 0x0(sp)
80003988: 0ab5352f     	amoswap.d.rl	a0, a1, (a0)
8000398c: ec2a         	sd	a0, 0x18(sp)
8000398e: a01d         	j	0x800039b4 <.Lpcrel_hi6+0x4c>
80003990: 6522         	ld	a0, 0x8(sp)
80003992: 6582         	ld	a1, 0x0(sp)
80003994: 0cb5352f     	amoswap.d.aq	a0, a1, (a0)
80003998: ec2a         	sd	a0, 0x18(sp)
8000399a: a829         	j	0x800039b4 <.Lpcrel_hi6+0x4c>
8000399c: 6522         	ld	a0, 0x8(sp)
8000399e: 6582         	ld	a1, 0x0(sp)
800039a0: 0eb5352f     	amoswap.d.aqrl	a0, a1, (a0)
800039a4: ec2a         	sd	a0, 0x18(sp)
800039a6: a039         	j	0x800039b4 <.Lpcrel_hi6+0x4c>
800039a8: 6522         	ld	a0, 0x8(sp)
800039aa: 6582         	ld	a1, 0x0(sp)
800039ac: 0eb5352f     	amoswap.d.aqrl	a0, a1, (a0)
800039b0: ec2a         	sd	a0, 0x18(sp)
800039b2: a009         	j	0x800039b4 <.Lpcrel_hi6+0x4c>
800039b4: 6562         	ld	a0, 0x18(sp)
800039b6: 6121         	addi	sp, sp, 0x40
800039b8: 8082         	ret

00000000800039ba <core::sync::atomic::AtomicUsize::store::h3e1d7199369dca9c>:
800039ba: 1101         	addi	sp, sp, -0x20
800039bc: ec06         	sd	ra, 0x18(sp)
800039be: e02a         	sd	a0, 0x0(sp)
800039c0: e42e         	sd	a1, 0x8(sp)
800039c2: 00c10ba3     	sb	a2, 0x17(sp)
800039c6: fffff097     	auipc	ra, 0xfffff
800039ca: f44080e7     	jalr	-0xbc(ra) <core::sync::atomic::atomic_store::h4e6a49b5f311f729>
800039ce: 60e2         	ld	ra, 0x18(sp)
800039d0: 6105         	addi	sp, sp, 0x20
800039d2: 8082         	ret

00000000800039d4 <core::sync::atomic::AtomicUsize::fetch_or::hf5bbf1f521f8d4e7>:
800039d4: 7139         	addi	sp, sp, -0x40
800039d6: e02e         	sd	a1, 0x0(sp)
800039d8: e42a         	sd	a0, 0x8(sp)
800039da: f02a         	sd	a0, 0x20(sp)
800039dc: f42e         	sd	a1, 0x28(sp)
800039de: 02c10ba3     	sb	a2, 0x37(sp)
800039e2: fc2a         	sd	a0, 0x38(sp)
800039e4: e832         	sd	a2, 0x10(sp)
800039e6: 6542         	ld	a0, 0x10(sp)
800039e8: 00351593     	slli	a1, a0, 0x3

00000000800039ec <.Lpcrel_hi7>:
800039ec: 00003517     	auipc	a0, 0x3
800039f0: da450513     	addi	a0, a0, -0x25c
800039f4: 952e         	add	a0, a0, a1
800039f6: 6108         	ld	a0, 0x0(a0)
800039f8: 8502         	jr	a0
800039fa: 0000         	unimp
800039fc: 6522         	ld	a0, 0x8(sp)
800039fe: 6582         	ld	a1, 0x0(sp)
80003a00: 40b5352f     	amoor.d	a0, a1, (a0)
80003a04: ec2a         	sd	a0, 0x18(sp)
80003a06: a80d         	j	0x80003a38 <.Lpcrel_hi7+0x4c>
80003a08: 6522         	ld	a0, 0x8(sp)
80003a0a: 6582         	ld	a1, 0x0(sp)
80003a0c: 42b5352f     	amoor.d.rl	a0, a1, (a0)
80003a10: ec2a         	sd	a0, 0x18(sp)
80003a12: a01d         	j	0x80003a38 <.Lpcrel_hi7+0x4c>
80003a14: 6522         	ld	a0, 0x8(sp)
80003a16: 6582         	ld	a1, 0x0(sp)
80003a18: 44b5352f     	amoor.d.aq	a0, a1, (a0)
80003a1c: ec2a         	sd	a0, 0x18(sp)
80003a1e: a829         	j	0x80003a38 <.Lpcrel_hi7+0x4c>
80003a20: 6522         	ld	a0, 0x8(sp)
80003a22: 6582         	ld	a1, 0x0(sp)
80003a24: 46b5352f     	amoor.d.aqrl	a0, a1, (a0)
80003a28: ec2a         	sd	a0, 0x18(sp)
80003a2a: a039         	j	0x80003a38 <.Lpcrel_hi7+0x4c>
80003a2c: 6522         	ld	a0, 0x8(sp)
80003a2e: 6582         	ld	a1, 0x0(sp)
80003a30: 46b5352f     	amoor.d.aqrl	a0, a1, (a0)
80003a34: ec2a         	sd	a0, 0x18(sp)
80003a36: a009         	j	0x80003a38 <.Lpcrel_hi7+0x4c>
80003a38: 6562         	ld	a0, 0x18(sp)
80003a3a: 6121         	addi	sp, sp, 0x40
80003a3c: 8082         	ret

0000000080003a3e <core::sync::atomic::AtomicUsize::fetch_add::h54f54c5ec52624d9>:
80003a3e: 7139         	addi	sp, sp, -0x40
80003a40: e02e         	sd	a1, 0x0(sp)
80003a42: e42a         	sd	a0, 0x8(sp)
80003a44: f02a         	sd	a0, 0x20(sp)
80003a46: f42e         	sd	a1, 0x28(sp)
80003a48: 02c10ba3     	sb	a2, 0x37(sp)
80003a4c: fc2a         	sd	a0, 0x38(sp)
80003a4e: e832         	sd	a2, 0x10(sp)
80003a50: 6542         	ld	a0, 0x10(sp)
80003a52: 00351593     	slli	a1, a0, 0x3

0000000080003a56 <.Lpcrel_hi8>:
80003a56: 00003517     	auipc	a0, 0x3
80003a5a: d6250513     	addi	a0, a0, -0x29e
80003a5e: 952e         	add	a0, a0, a1
80003a60: 6108         	ld	a0, 0x0(a0)
80003a62: 8502         	jr	a0
80003a64: 0000         	unimp
80003a66: 6522         	ld	a0, 0x8(sp)
80003a68: 6582         	ld	a1, 0x0(sp)
80003a6a: 00b5352f     	amoadd.d	a0, a1, (a0)
80003a6e: ec2a         	sd	a0, 0x18(sp)
80003a70: a80d         	j	0x80003aa2 <.Lpcrel_hi8+0x4c>
80003a72: 6522         	ld	a0, 0x8(sp)
80003a74: 6582         	ld	a1, 0x0(sp)
80003a76: 02b5352f     	amoadd.d.rl	a0, a1, (a0)
80003a7a: ec2a         	sd	a0, 0x18(sp)
80003a7c: a01d         	j	0x80003aa2 <.Lpcrel_hi8+0x4c>
80003a7e: 6522         	ld	a0, 0x8(sp)
80003a80: 6582         	ld	a1, 0x0(sp)
80003a82: 04b5352f     	amoadd.d.aq	a0, a1, (a0)
80003a86: ec2a         	sd	a0, 0x18(sp)
80003a88: a829         	j	0x80003aa2 <.Lpcrel_hi8+0x4c>
80003a8a: 6522         	ld	a0, 0x8(sp)
80003a8c: 6582         	ld	a1, 0x0(sp)
80003a8e: 06b5352f     	amoadd.d.aqrl	a0, a1, (a0)
80003a92: ec2a         	sd	a0, 0x18(sp)
80003a94: a039         	j	0x80003aa2 <.Lpcrel_hi8+0x4c>
80003a96: 6522         	ld	a0, 0x8(sp)
80003a98: 6582         	ld	a1, 0x0(sp)
80003a9a: 06b5352f     	amoadd.d.aqrl	a0, a1, (a0)
80003a9e: ec2a         	sd	a0, 0x18(sp)
80003aa0: a009         	j	0x80003aa2 <.Lpcrel_hi8+0x4c>
80003aa2: 6562         	ld	a0, 0x18(sp)
80003aa4: 6121         	addi	sp, sp, 0x40
80003aa6: 8082         	ret

0000000080003aa8 <core::sync::atomic::AtomicU64::load::h310be17d02a28ae1>:
80003aa8: 1101         	addi	sp, sp, -0x20
80003aaa: ec06         	sd	ra, 0x18(sp)
80003aac: e42a         	sd	a0, 0x8(sp)
80003aae: 00b10ba3     	sb	a1, 0x17(sp)
80003ab2: fffff097     	auipc	ra, 0xfffff
80003ab6: d24080e7     	jalr	-0x2dc(ra) <core::sync::atomic::atomic_load::h7e40074220660692>
80003aba: 60e2         	ld	ra, 0x18(sp)
80003abc: 6105         	addi	sp, sp, 0x20
80003abe: 8082         	ret

0000000080003ac0 <core::sync::atomic::AtomicU64::store::hb2aa4fb5f656f3b7>:
80003ac0: 1101         	addi	sp, sp, -0x20
80003ac2: ec06         	sd	ra, 0x18(sp)
80003ac4: e02a         	sd	a0, 0x0(sp)
80003ac6: e42e         	sd	a1, 0x8(sp)
80003ac8: 00c10ba3     	sb	a2, 0x17(sp)
80003acc: fffff097     	auipc	ra, 0xfffff
80003ad0: ed4080e7     	jalr	-0x12c(ra) <core::sync::atomic::atomic_store::hf5626850cf4c646b>
80003ad4: 60e2         	ld	ra, 0x18(sp)
80003ad6: 6105         	addi	sp, sp, 0x20
80003ad8: 8082         	ret

0000000080003ada <core::sync::atomic::AtomicU64::fetch_add::hd6a13c485f746a90>:
80003ada: 7139         	addi	sp, sp, -0x40
80003adc: e02e         	sd	a1, 0x0(sp)
80003ade: e42a         	sd	a0, 0x8(sp)
80003ae0: f02a         	sd	a0, 0x20(sp)
80003ae2: f42e         	sd	a1, 0x28(sp)
80003ae4: 02c10ba3     	sb	a2, 0x37(sp)
80003ae8: fc2a         	sd	a0, 0x38(sp)
80003aea: e832         	sd	a2, 0x10(sp)
80003aec: 6542         	ld	a0, 0x10(sp)
80003aee: 00351593     	slli	a1, a0, 0x3

0000000080003af2 <.Lpcrel_hi9>:
80003af2: 00003517     	auipc	a0, 0x3
80003af6: cee50513     	addi	a0, a0, -0x312
80003afa: 952e         	add	a0, a0, a1
80003afc: 6108         	ld	a0, 0x0(a0)
80003afe: 8502         	jr	a0
80003b00: 0000         	unimp
80003b02: 6522         	ld	a0, 0x8(sp)
80003b04: 6582         	ld	a1, 0x0(sp)
80003b06: 00b5352f     	amoadd.d	a0, a1, (a0)
80003b0a: ec2a         	sd	a0, 0x18(sp)
80003b0c: a80d         	j	0x80003b3e <.Lpcrel_hi9+0x4c>
80003b0e: 6522         	ld	a0, 0x8(sp)
80003b10: 6582         	ld	a1, 0x0(sp)
80003b12: 02b5352f     	amoadd.d.rl	a0, a1, (a0)
80003b16: ec2a         	sd	a0, 0x18(sp)
80003b18: a01d         	j	0x80003b3e <.Lpcrel_hi9+0x4c>
80003b1a: 6522         	ld	a0, 0x8(sp)
80003b1c: 6582         	ld	a1, 0x0(sp)
80003b1e: 04b5352f     	amoadd.d.aq	a0, a1, (a0)
80003b22: ec2a         	sd	a0, 0x18(sp)
80003b24: a829         	j	0x80003b3e <.Lpcrel_hi9+0x4c>
80003b26: 6522         	ld	a0, 0x8(sp)
80003b28: 6582         	ld	a1, 0x0(sp)
80003b2a: 06b5352f     	amoadd.d.aqrl	a0, a1, (a0)
80003b2e: ec2a         	sd	a0, 0x18(sp)
80003b30: a039         	j	0x80003b3e <.Lpcrel_hi9+0x4c>
80003b32: 6522         	ld	a0, 0x8(sp)
80003b34: 6582         	ld	a1, 0x0(sp)
80003b36: 06b5352f     	amoadd.d.aqrl	a0, a1, (a0)
80003b3a: ec2a         	sd	a0, 0x18(sp)
80003b3c: a009         	j	0x80003b3e <.Lpcrel_hi9+0x4c>
80003b3e: 6562         	ld	a0, 0x18(sp)
80003b40: 6121         	addi	sp, sp, 0x40
80003b42: 8082         	ret

0000000080003b44 <_$LT$$RF$T$u20$as$u20$core..fmt..Display$GT$::fmt::hcc8909d302e36ec7>:
80003b44: 1101         	addi	sp, sp, -0x20
80003b46: ec06         	sd	ra, 0x18(sp)
80003b48: 862e         	mv	a2, a1
80003b4a: 85aa         	mv	a1, a0
80003b4c: e42e         	sd	a1, 0x8(sp)
80003b4e: e832         	sd	a2, 0x10(sp)
80003b50: 6188         	ld	a0, 0x0(a1)
80003b52: 658c         	ld	a1, 0x8(a1)
80003b54: 00000097     	auipc	ra, 0x0
80003b58: 2a6080e7     	jalr	0x2a6(ra) <_$LT$str$u20$as$u20$core..fmt..Display$GT$::fmt::h53474d83e2b0968b>
80003b5c: 60e2         	ld	ra, 0x18(sp)
80003b5e: 6105         	addi	sp, sp, 0x20
80003b60: 8082         	ret

0000000080003b62 <core::fmt::Arguments::new::h0083889655e8d11b>:
80003b62: 1141         	addi	sp, sp, -0x10
80003b64: e02a         	sd	a0, 0x0(sp)
80003b66: e42e         	sd	a1, 0x8(sp)
80003b68: 0141         	addi	sp, sp, 0x10
80003b6a: 8082         	ret

0000000080003b6c <core::fmt::Arguments::new::h0d279cd06f713579>:
80003b6c: 1141         	addi	sp, sp, -0x10
80003b6e: e02a         	sd	a0, 0x0(sp)
80003b70: e42e         	sd	a1, 0x8(sp)
80003b72: 0141         	addi	sp, sp, 0x10
80003b74: 8082         	ret

0000000080003b76 <core::fmt::Arguments::new::h153383203666317b>:
80003b76: 1141         	addi	sp, sp, -0x10
80003b78: e02a         	sd	a0, 0x0(sp)
80003b7a: e42e         	sd	a1, 0x8(sp)
80003b7c: 0141         	addi	sp, sp, 0x10
80003b7e: 8082         	ret

0000000080003b80 <core::fmt::Arguments::new::h166d0964d35a5e50>:
80003b80: 1141         	addi	sp, sp, -0x10
80003b82: e02a         	sd	a0, 0x0(sp)
80003b84: e42e         	sd	a1, 0x8(sp)
80003b86: 0141         	addi	sp, sp, 0x10
80003b88: 8082         	ret

0000000080003b8a <core::fmt::Arguments::new::h4b9405094f502388>:
80003b8a: 1141         	addi	sp, sp, -0x10
80003b8c: e02a         	sd	a0, 0x0(sp)
80003b8e: e42e         	sd	a1, 0x8(sp)
80003b90: 0141         	addi	sp, sp, 0x10
80003b92: 8082         	ret

0000000080003b94 <core::fmt::Arguments::new::h4c7942bce7874a89>:
80003b94: 1141         	addi	sp, sp, -0x10
80003b96: e02a         	sd	a0, 0x0(sp)
80003b98: e42e         	sd	a1, 0x8(sp)
80003b9a: 0141         	addi	sp, sp, 0x10
80003b9c: 8082         	ret

0000000080003b9e <core::fmt::Arguments::new::h64a5b45f8125a42e>:
80003b9e: 1141         	addi	sp, sp, -0x10
80003ba0: e02a         	sd	a0, 0x0(sp)
80003ba2: e42e         	sd	a1, 0x8(sp)
80003ba4: 0141         	addi	sp, sp, 0x10
80003ba6: 8082         	ret

0000000080003ba8 <core::fmt::Arguments::new::h94b9a88c512adfd8>:
80003ba8: 1141         	addi	sp, sp, -0x10
80003baa: e02a         	sd	a0, 0x0(sp)
80003bac: e42e         	sd	a1, 0x8(sp)
80003bae: 0141         	addi	sp, sp, 0x10
80003bb0: 8082         	ret

0000000080003bb2 <core::fmt::Arguments::new::ha08ce78d0b4a6f25>:
80003bb2: 1141         	addi	sp, sp, -0x10
80003bb4: e02a         	sd	a0, 0x0(sp)
80003bb6: e42e         	sd	a1, 0x8(sp)
80003bb8: 0141         	addi	sp, sp, 0x10
80003bba: 8082         	ret

0000000080003bbc <core::fmt::Arguments::new::haf88e00cad676ea6>:
80003bbc: 1141         	addi	sp, sp, -0x10
80003bbe: e02a         	sd	a0, 0x0(sp)
80003bc0: e42e         	sd	a1, 0x8(sp)
80003bc2: 0141         	addi	sp, sp, 0x10
80003bc4: 8082         	ret

0000000080003bc6 <core::fmt::Arguments::new::hc9e6fa2e7ae3f5fd>:
80003bc6: 1141         	addi	sp, sp, -0x10
80003bc8: e02a         	sd	a0, 0x0(sp)
80003bca: e42e         	sd	a1, 0x8(sp)
80003bcc: 0141         	addi	sp, sp, 0x10
80003bce: 8082         	ret

0000000080003bd0 <core::fmt::Arguments::new::hd1e7325709272331>:
80003bd0: 1141         	addi	sp, sp, -0x10
80003bd2: e02a         	sd	a0, 0x0(sp)
80003bd4: e42e         	sd	a1, 0x8(sp)
80003bd6: 0141         	addi	sp, sp, 0x10
80003bd8: 8082         	ret

0000000080003bda <core::fmt::Arguments::new::hd25380b51e8629a6>:
80003bda: 1141         	addi	sp, sp, -0x10
80003bdc: e02a         	sd	a0, 0x0(sp)
80003bde: e42e         	sd	a1, 0x8(sp)
80003be0: 0141         	addi	sp, sp, 0x10
80003be2: 8082         	ret

0000000080003be4 <core::fmt::Arguments::new::he6c3c5f84d94f2d9>:
80003be4: 1141         	addi	sp, sp, -0x10
80003be6: e02a         	sd	a0, 0x0(sp)
80003be8: e42e         	sd	a1, 0x8(sp)
80003bea: 0141         	addi	sp, sp, 0x10
80003bec: 8082         	ret

0000000080003bee <core::fmt::Arguments::new::hfa5e910f5a504c65>:
80003bee: 1141         	addi	sp, sp, -0x10
80003bf0: e02a         	sd	a0, 0x0(sp)
80003bf2: e42e         	sd	a1, 0x8(sp)
80003bf4: 0141         	addi	sp, sp, 0x10
80003bf6: 8082         	ret

0000000080003bf8 <core::fmt::Arguments::as_statically_known_str::he1b18457f3dc3aef>:
80003bf8: 7119         	addi	sp, sp, -0x80
80003bfa: fc86         	sd	ra, 0x78(sp)
80003bfc: ec2a         	sd	a0, 0x18(sp)
80003bfe: fc2a         	sd	a0, 0x38(sp)
80003c00: 6508         	ld	a0, 0x8(a0)
80003c02: f02a         	sd	a0, 0x20(sp)
80003c04: e0aa         	sd	a0, 0x40(sp)
80003c06: 8905         	andi	a0, a0, 0x1
80003c08: cd01         	beqz	a0, 0x80003c20 <.Lpcrel_hi0>
80003c0a: a009         	j	0x80003c0c <core::fmt::Arguments::as_statically_known_str::he1b18457f3dc3aef+0x14>
80003c0c: 7502         	ld	a0, 0x20(sp)
80003c0e: 65e2         	ld	a1, 0x18(sp)
80003c10: 618c         	ld	a1, 0x0(a1)
80003c12: e42e         	sd	a1, 0x8(sp)
80003c14: e4ae         	sd	a1, 0x48(sp)
80003c16: e8ae         	sd	a1, 0x50(sp)
80003c18: 8105         	srli	a0, a0, 0x1
80003c1a: e82a         	sd	a0, 0x10(sp)
80003c1c: ecaa         	sd	a0, 0x58(sp)
80003c1e: a811         	j	0x80003c32 <.Lpcrel_hi0+0x12>

0000000080003c20 <.Lpcrel_hi0>:
80003c20: 00003517     	auipc	a0, 0x3
80003c24: cb850513     	addi	a0, a0, -0x348
80003c28: 610c         	ld	a1, 0x0(a0)
80003c2a: 6508         	ld	a0, 0x8(a0)
80003c2c: f42e         	sd	a1, 0x28(sp)
80003c2e: f82a         	sd	a0, 0x30(sp)
80003c30: a02d         	j	0x80003c5a <.Lpcrel_hi1+0x24>
80003c32: 66c2         	ld	a3, 0x10(sp)
80003c34: 6522         	ld	a0, 0x8(sp)

0000000080003c36 <.Lpcrel_hi1>:
80003c36: 00003597     	auipc	a1, 0x3
80003c3a: c7a58713     	addi	a4, a1, -0x386
80003c3e: 4605         	li	a2, 0x1
80003c40: 85b2         	mv	a1, a2
80003c42: ffffe097     	auipc	ra, 0xffffe
80003c46: 41c080e7     	jalr	0x41c(ra) <core::slice::raw::from_raw_parts::precondition_check::h7b4080893911aa93>
80003c4a: a009         	j	0x80003c4c <.Lpcrel_hi1+0x16>
80003c4c: 6542         	ld	a0, 0x10(sp)
80003c4e: 65a2         	ld	a1, 0x8(sp)
80003c50: f0ae         	sd	a1, 0x60(sp)
80003c52: f4aa         	sd	a0, 0x68(sp)
80003c54: f42e         	sd	a1, 0x28(sp)
80003c56: f82a         	sd	a0, 0x30(sp)
80003c58: a009         	j	0x80003c5a <.Lpcrel_hi1+0x24>
80003c5a: 4501         	li	a0, 0x0
80003c5c: 06a10ba3     	sb	a0, 0x77(sp)
80003c60: 07714503     	lbu	a0, 0x77(sp)
80003c64: 8905         	andi	a0, a0, 0x1
80003c66: e919         	bnez	a0, 0x80003c7c <.Lpcrel_hi2+0x12>
80003c68: a009         	j	0x80003c6a <.Lpcrel_hi2>

0000000080003c6a <.Lpcrel_hi2>:
80003c6a: 00003517     	auipc	a0, 0x3
80003c6e: c6e50513     	addi	a0, a0, -0x392
80003c72: 610c         	ld	a1, 0x0(a0)
80003c74: 6508         	ld	a0, 0x8(a0)
80003c76: f42e         	sd	a1, 0x28(sp)
80003c78: f82a         	sd	a0, 0x30(sp)
80003c7a: a011         	j	0x80003c7e <.Lpcrel_hi2+0x14>
80003c7c: a009         	j	0x80003c7e <.Lpcrel_hi2+0x14>
80003c7e: 7522         	ld	a0, 0x28(sp)
80003c80: 75c2         	ld	a1, 0x30(sp)
80003c82: 70e6         	ld	ra, 0x78(sp)
80003c84: 6109         	addi	sp, sp, 0x80
80003c86: 8082         	ret

0000000080003c88 <core::fmt::Arguments::from_str::hd2d42c7bad8a9404>:
80003c88: 1141         	addi	sp, sp, -0x10
80003c8a: e02a         	sd	a0, 0x0(sp)
80003c8c: e42e         	sd	a1, 0x8(sp)
80003c8e: 0586         	slli	a1, a1, 0x1
80003c90: 0585         	addi	a1, a1, 0x1
80003c92: 0141         	addi	sp, sp, 0x10
80003c94: 8082         	ret

0000000080003c96 <core::ptr::const_ptr::_$LT$impl$u20$$BP$const$u20$T$GT$::is_aligned_to::ha71949ecaa4d0304>:
80003c96: 7139         	addi	sp, sp, -0x40
80003c98: e42e         	sd	a1, 0x8(sp)
80003c9a: e82a         	sd	a0, 0x10(sp)
80003c9c: ec2a         	sd	a0, 0x18(sp)
80003c9e: f02e         	sd	a1, 0x20(sp)
80003ca0: 0015d513     	srli	a0, a1, 0x1
80003ca4: 55555637     	lui	a2, 0x55555
80003ca8: 55560613     	addi	a2, a2, 0x555
80003cac: 02061693     	slli	a3, a2, 0x20
80003cb0: 9636         	add	a2, a2, a3
80003cb2: 8d71         	and	a0, a0, a2
80003cb4: 8d89         	sub	a1, a1, a0
80003cb6: 33333537     	lui	a0, 0x33333
80003cba: 33350513     	addi	a0, a0, 0x333
80003cbe: 02051613     	slli	a2, a0, 0x20
80003cc2: 962a         	add	a2, a2, a0
80003cc4: 00c5f533     	and	a0, a1, a2
80003cc8: 8189         	srli	a1, a1, 0x2
80003cca: 8df1         	and	a1, a1, a2
80003ccc: 952e         	add	a0, a0, a1
80003cce: 00455593     	srli	a1, a0, 0x4
80003cd2: 952e         	add	a0, a0, a1
80003cd4: 0f0f15b7     	lui	a1, 0xf0f1
80003cd8: f0f58593     	addi	a1, a1, -0xf1
80003cdc: 02059613     	slli	a2, a1, 0x20
80003ce0: 95b2         	add	a1, a1, a2
80003ce2: 8d6d         	and	a0, a0, a1
80003ce4: 010105b7     	lui	a1, 0x1010
80003ce8: 10158593     	addi	a1, a1, 0x101
80003cec: 02059613     	slli	a2, a1, 0x20
80003cf0: 95b2         	add	a1, a1, a2
80003cf2: 02b50533     	mul	a0, a0, a1
80003cf6: 9161         	srli	a0, a0, 0x38
80003cf8: d62a         	sw	a0, 0x2c(sp)
80003cfa: 5532         	lw	a0, 0x2c(sp)
80003cfc: 4585         	li	a1, 0x1
80003cfe: 00b51b63     	bne	a0, a1, 0x80003d14 <.Lpcrel_hi0>
80003d02: a009         	j	0x80003d04 <core::ptr::const_ptr::_$LT$impl$u20$$BP$const$u20$T$GT$::is_aligned_to::ha71949ecaa4d0304+0x6e>
80003d04: 6542         	ld	a0, 0x10(sp)
80003d06: 65a2         	ld	a1, 0x8(sp)
80003d08: 15fd         	addi	a1, a1, -0x1
80003d0a: 8d6d         	and	a0, a0, a1
80003d0c: 00153513     	seqz	a0, a0
80003d10: 6121         	addi	sp, sp, 0x40
80003d12: 8082         	ret

0000000080003d14 <.Lpcrel_hi0>:
80003d14: 00003517     	auipc	a0, 0x3
80003d18: be450513     	addi	a0, a0, -0x41c
80003d1c: f82a         	sd	a0, 0x30(sp)
80003d1e: 02a00593     	li	a1, 0x2a
80003d22: fc2e         	sd	a1, 0x38(sp)

0000000080003d24 <.Lpcrel_hi1>:
80003d24: 00003597     	auipc	a1, 0x3
80003d28: c0458613     	addi	a2, a1, -0x3fc
80003d2c: 05500593     	li	a1, 0x55
80003d30: 00001097     	auipc	ra, 0x1
80003d34: f82080e7     	jalr	-0x7e(ra) <core::panicking::panic_fmt::h767dc8ac4dd44648>

0000000080003d38 <core::ptr::drop_in_place$LT$lab5_kernel_task4..spinlock..SpinLockGuard$LT$lab5_kernel_task4..SharedKernelState$GT$$GT$::hcc8f7eeda4fcb118>:
80003d38: 1141         	addi	sp, sp, -0x10
80003d3a: e406         	sd	ra, 0x8(sp)
80003d3c: e02a         	sd	a0, 0x0(sp)
80003d3e: 00000097     	auipc	ra, 0x0
80003d42: 022080e7     	jalr	0x22(ra) <_$LT$lab5_kernel_task4..spinlock..SpinLockGuard$LT$T$GT$$u20$as$u20$core..ops..drop..Drop$GT$::drop::h88fb3f3e3acb7e03>
80003d46: 60a2         	ld	ra, 0x8(sp)
80003d48: 0141         	addi	sp, sp, 0x10
80003d4a: 8082         	ret

0000000080003d4c <core::ptr::drop_in_place$LT$lab5_kernel_task4..spinlock..SpinLockGuard$LT$$LP$$RP$$GT$$GT$::h60b79a773d76e28f>:
80003d4c: 1141         	addi	sp, sp, -0x10
80003d4e: e406         	sd	ra, 0x8(sp)
80003d50: e02a         	sd	a0, 0x0(sp)
80003d52: 00000097     	auipc	ra, 0x0
80003d56: 02c080e7     	jalr	0x2c(ra) <_$LT$lab5_kernel_task4..spinlock..SpinLockGuard$LT$T$GT$$u20$as$u20$core..ops..drop..Drop$GT$::drop::hb9910d4aaf5d5627>
80003d5a: 60a2         	ld	ra, 0x8(sp)
80003d5c: 0141         	addi	sp, sp, 0x10
80003d5e: 8082         	ret

0000000080003d60 <_$LT$lab5_kernel_task4..spinlock..SpinLockGuard$LT$T$GT$$u20$as$u20$core..ops..drop..Drop$GT$::drop::h88fb3f3e3acb7e03>:
80003d60: 1141         	addi	sp, sp, -0x10
80003d62: e406         	sd	ra, 0x8(sp)
80003d64: e02a         	sd	a0, 0x0(sp)
80003d66: 6108         	ld	a0, 0x0(a0)
80003d68: 02850513     	addi	a0, a0, 0x28
80003d6c: 4581         	li	a1, 0x0
80003d6e: 4605         	li	a2, 0x1
80003d70: 00000097     	auipc	ra, 0x0
80003d74: b8c080e7     	jalr	-0x474(ra) <core::sync::atomic::AtomicBool::store::hfb6122fe2021251c>
80003d78: 60a2         	ld	ra, 0x8(sp)
80003d7a: 0141         	addi	sp, sp, 0x10
80003d7c: 8082         	ret

0000000080003d7e <_$LT$lab5_kernel_task4..spinlock..SpinLockGuard$LT$T$GT$$u20$as$u20$core..ops..drop..Drop$GT$::drop::hb9910d4aaf5d5627>:
80003d7e: 1141         	addi	sp, sp, -0x10
80003d80: e406         	sd	ra, 0x8(sp)
80003d82: e02a         	sd	a0, 0x0(sp)
80003d84: 6108         	ld	a0, 0x0(a0)
80003d86: 0541         	addi	a0, a0, 0x10
80003d88: 4581         	li	a1, 0x0
80003d8a: 4605         	li	a2, 0x1
80003d8c: 00000097     	auipc	ra, 0x0
80003d90: b70080e7     	jalr	-0x490(ra) <core::sync::atomic::AtomicBool::store::hfb6122fe2021251c>
80003d94: 60a2         	ld	ra, 0x8(sp)
80003d96: 0141         	addi	sp, sp, 0x10
80003d98: 8082         	ret

0000000080003d9a <_$LT$core..str..iter..Bytes$u20$as$u20$core..iter..traits..iterator..Iterator$GT$::next::hd7fcc34f36f145e3>:
80003d9a: 7179         	addi	sp, sp, -0x30
80003d9c: f406         	sd	ra, 0x28(sp)
80003d9e: ec2a         	sd	a0, 0x18(sp)
80003da0: fffff097     	auipc	ra, 0xfffff
80003da4: 2da080e7     	jalr	0x2da(ra) <_$LT$core..slice..iter..Iter$LT$T$GT$$u20$as$u20$core..iter..traits..iterator..Iterator$GT$::next::hdbcf4e58d0b0cdce>
80003da8: e82a         	sd	a0, 0x10(sp)
80003daa: 6542         	ld	a0, 0x10(sp)
80003dac: cd09         	beqz	a0, 0x80003dc6 <.Lpcrel_hi0>
80003dae: a009         	j	0x80003db0 <_$LT$core..str..iter..Bytes$u20$as$u20$core..iter..traits..iterator..Iterator$GT$::next::hd7fcc34f36f145e3+0x16>
80003db0: 6542         	ld	a0, 0x10(sp)
80003db2: 00054503     	lbu	a0, 0x0(a0)
80003db6: 02a103a3     	sb	a0, 0x27(sp)
80003dba: 00a107a3     	sb	a0, 0xf(sp)
80003dbe: 4505         	li	a0, 0x1
80003dc0: 00a10723     	sb	a0, 0xe(sp)
80003dc4: a831         	j	0x80003de0 <.Lpcrel_hi0+0x1a>

0000000080003dc6 <.Lpcrel_hi0>:
80003dc6: 00003517     	auipc	a0, 0x3
80003dca: b7a50513     	addi	a0, a0, -0x486
80003dce: 00054583     	lbu	a1, 0x0(a0)
80003dd2: 00154503     	lbu	a0, 0x1(a0)
80003dd6: 00b10723     	sb	a1, 0xe(sp)
80003dda: 00a107a3     	sb	a0, 0xf(sp)
80003dde: a009         	j	0x80003de0 <.Lpcrel_hi0+0x1a>
80003de0: 00e14503     	lbu	a0, 0xe(sp)
80003de4: 00f14583     	lbu	a1, 0xf(sp)
80003de8: 70a2         	ld	ra, 0x28(sp)
80003dea: 6145         	addi	sp, sp, 0x30
80003dec: 8082         	ret

0000000080003dee <core::str::_$LT$impl$u20$str$GT$::bytes::hbf4ea4d0c9cb1020>:
80003dee: 1141         	addi	sp, sp, -0x10
80003df0: e02a         	sd	a0, 0x0(sp)
80003df2: e42e         	sd	a1, 0x8(sp)
80003df4: 95aa         	add	a1, a1, a0
80003df6: 0141         	addi	sp, sp, 0x10
80003df8: 8082         	ret

0000000080003dfa <_$LT$str$u20$as$u20$core..fmt..Display$GT$::fmt::h53474d83e2b0968b>:
80003dfa: 86ae         	mv	a3, a1
80003dfc: 85aa         	mv	a1, a0
80003dfe: 8532         	mv	a0, a2
80003e00: 8636         	mv	a2, a3
80003e02: 00001317     	auipc	t1, 0x1
80003e06: 9f630067     	jr	-0x60a(t1) <core::fmt::Formatter::pad::h239e525174ab4a17>

0000000080003e0a <_$LT$$RF$T$u20$as$u20$core..fmt..Display$GT$::fmt::h60cf88dbe6a53042>:
80003e0a: 6114         	ld	a3, 0x0(a0)
80003e0c: 6510         	ld	a2, 0x8(a0)
80003e0e: 852e         	mv	a0, a1
80003e10: 85b6         	mv	a1, a3
80003e12: 00001317     	auipc	t1, 0x1
80003e16: 9e630067     	jr	-0x61a(t1) <core::fmt::Formatter::pad::h239e525174ab4a17>

0000000080003e1a <core::fmt::num::imp::_$LT$impl$u20$u32$GT$::_fmt_inner::h2c8ef1aec4279901>:
80003e1a: 7139         	addi	sp, sp, -0x40
80003e1c: fc06         	sd	ra, 0x38(sp)
80003e1e: f822         	sd	s0, 0x30(sp)
80003e20: f426         	sd	s1, 0x28(sp)
80003e22: f04a         	sd	s2, 0x20(sp)
80003e24: ec4e         	sd	s3, 0x18(sp)
80003e26: e852         	sd	s4, 0x10(sp)
80003e28: e456         	sd	s5, 0x8(sp)
80003e2a: 0080         	addi	s0, sp, 0x40
80003e2c: 3e800693     	li	a3, 0x3e8
80003e30: 882a         	mv	a6, a0
80003e32: 8732         	mv	a4, a2
80003e34: 0cd56163     	bltu	a0, a3, 0x80003ef6 <.Lpcrel_hi74+0xac>
80003e38: 4f01         	li	t5, 0x0
80003e3a: ffe58f93     	addi	t6, a1, -0x2
80003e3e: d1b71837     	lui	a6, 0xd1b71
80003e42: 6709         	lui	a4, 0x2
80003e44: 6785         	lui	a5, 0x1
80003e46: 06400893     	li	a7, 0x64

0000000080003e4a <.Lpcrel_hi74>:
80003e4a: 00003497     	auipc	s1, 0x3
80003e4e: 009896b7     	lui	a3, 0x989
80003e52: 75980e13     	addi	t3, a6, 0x759
80003e56: 71070293     	addi	t0, a4, 0x710
80003e5a: 47b78313     	addi	t1, a5, 0x47b
80003e5e: af848393     	addi	t2, s1, -0x508
80003e62: 1e02         	slli	t3, t3, 0x20
80003e64: 67f68e93     	addi	t4, a3, 0x67f
80003e68: 882a         	mv	a6, a0
80003e6a: 01e60a33     	add	s4, a2, t5
80003e6e: ffca0693     	addi	a3, s4, -0x4
80003e72: 14c6fe63     	bgeu	a3, a2, 0x80003fce <.Lpcrel_hi80>
80003e76: 8942         	mv	s2, a6
80003e78: 02081693     	slli	a3, a6, 0x20
80003e7c: 03c6b6b3     	mulhu	a3, a3, t3
80003e80: 02d6d813     	srli	a6, a3, 0x2d
80003e84: 025806b3     	mul	a3, a6, t0
80003e88: 40d909bb     	subw	s3, s2, a3
80003e8c: 03099693     	slli	a3, s3, 0x30
80003e90: 92c9         	srli	a3, a3, 0x32
80003e92: 026687b3     	mul	a5, a3, t1
80003e96: 83c5         	srli	a5, a5, 0x11
80003e98: 00179713     	slli	a4, a5, 0x1
80003e9c: 971e         	add	a4, a4, t2
80003e9e: 00074a83     	lbu	s5, 0x0(a4)
80003ea2: 00cf84b3     	add	s1, t6, a2
80003ea6: ffda0693     	addi	a3, s4, -0x3
80003eaa: ff548f23     	sb	s5, -0x2(s1)
80003eae: 10c6f563     	bgeu	a3, a2, 0x80003fb8 <.Lpcrel_hi81>
80003eb2: 00174703     	lbu	a4, 0x1(a4)
80003eb6: ffea0693     	addi	a3, s4, -0x2
80003eba: fee48fa3     	sb	a4, -0x1(s1)
80003ebe: 0ec6f263     	bgeu	a3, a2, 0x80003fa2 <.Lpcrel_hi82>
80003ec2: 031786b3     	mul	a3, a5, a7
80003ec6: 40d986b3     	sub	a3, s3, a3
80003eca: 16c6         	slli	a3, a3, 0x31
80003ecc: 92c1         	srli	a3, a3, 0x30
80003ece: 00d38733     	add	a4, t2, a3
80003ed2: 00074783     	lbu	a5, 0x0(a4)
80003ed6: fffa0693     	addi	a3, s4, -0x1
80003eda: 00f48023     	sb	a5, 0x0(s1)
80003ede: 0ac6f763     	bgeu	a3, a2, 0x80003f8c <.Lpcrel_hi83>
80003ee2: 00174683     	lbu	a3, 0x1(a4)
80003ee6: 1f71         	addi	t5, t5, -0x4
80003ee8: 00d480a3     	sb	a3, 0x1(s1)
80003eec: 1ff1         	addi	t6, t6, -0x4
80003eee: f72eeee3     	bltu	t4, s2, 0x80003e6a <.Lpcrel_hi74+0x20>
80003ef2: 01e60733     	add	a4, a2, t5
80003ef6: 46a5         	li	a3, 0x9
80003ef8: 0506fd63     	bgeu	a3, a6, 0x80003f52 <.Lpcrel_hi75+0x3a>
80003efc: ffe70693     	addi	a3, a4, -0x2
80003f00: 0ec6f263     	bgeu	a3, a2, 0x80003fe4 <.Lpcrel_hi76>
80003f04: 03081793     	slli	a5, a6, 0x30
80003f08: 6485         	lui	s1, 0x1
80003f0a: 06400893     	li	a7, 0x64
80003f0e: 93c9         	srli	a5, a5, 0x32
80003f10: 47b48493     	addi	s1, s1, 0x47b
80003f14: 029787b3     	mul	a5, a5, s1

0000000080003f18 <.Lpcrel_hi75>:
80003f18: 00003297     	auipc	t0, 0x3
80003f1c: 83c5         	srli	a5, a5, 0x11
80003f1e: 031784b3     	mul	s1, a5, a7
80003f22: 409804bb     	subw	s1, a6, s1
80003f26: 14c6         	slli	s1, s1, 0x31
80003f28: 0304d813     	srli	a6, s1, 0x30
80003f2c: a2a28493     	addi	s1, t0, -0x5d6
80003f30: 94c2         	add	s1, s1, a6
80003f32: 0004c803     	lbu	a6, 0x0(s1)
80003f36: 00d588b3     	add	a7, a1, a3
80003f3a: 177d         	addi	a4, a4, -0x1
80003f3c: 01088023     	sb	a6, 0x0(a7)
80003f40: 0ac77d63     	bgeu	a4, a2, 0x80003ffa <.Lpcrel_hi77>
80003f44: 0014c483     	lbu	s1, 0x1(s1)
80003f48: 972e         	add	a4, a4, a1
80003f4a: 00970023     	sb	s1, 0x0(a4)
80003f4e: e509         	bnez	a0, 0x80003f58 <.Lpcrel_hi75+0x40>
80003f50: a029         	j	0x80003f5a <.Lpcrel_hi75+0x42>
80003f52: 87c2         	mv	a5, a6
80003f54: 86ba         	mv	a3, a4
80003f56: c111         	beqz	a0, 0x80003f5a <.Lpcrel_hi75+0x42>
80003f58: c385         	beqz	a5, 0x80003f78 <.Lpcrel_hi79+0x14>
80003f5a: 16fd         	addi	a3, a3, -0x1
80003f5c: 0ac6fa63     	bgeu	a3, a2, 0x80004010 <.Lpcrel_hi78>
80003f60: 0017951b     	slliw	a0, a5, 0x1

0000000080003f64 <.Lpcrel_hi79>:
80003f64: 00003617     	auipc	a2, 0x3
80003f68: 9de60613     	addi	a2, a2, -0x622
80003f6c: 9532         	add	a0, a0, a2
80003f6e: 00154503     	lbu	a0, 0x1(a0)
80003f72: 95b6         	add	a1, a1, a3
80003f74: 00a58023     	sb	a0, 0x0(a1)
80003f78: 8536         	mv	a0, a3
80003f7a: 70e2         	ld	ra, 0x38(sp)
80003f7c: 7442         	ld	s0, 0x30(sp)
80003f7e: 74a2         	ld	s1, 0x28(sp)
80003f80: 7902         	ld	s2, 0x20(sp)
80003f82: 69e2         	ld	s3, 0x18(sp)
80003f84: 6a42         	ld	s4, 0x10(sp)
80003f86: 6aa2         	ld	s5, 0x8(sp)
80003f88: 6121         	addi	sp, sp, 0x40
80003f8a: 8082         	ret

0000000080003f8c <.Lpcrel_hi83>:
80003f8c: 00003517     	auipc	a0, 0x3
80003f90: a8450713     	addi	a4, a0, -0x57c
80003f94: 8536         	mv	a0, a3
80003f96: 85b2         	mv	a1, a2
80003f98: 863a         	mv	a2, a4
80003f9a: 00001097     	auipc	ra, 0x1
80003f9e: c4c080e7     	jalr	-0x3b4(ra) <core::panicking::panic_bounds_check::h6aaee0d15e0261eb>

0000000080003fa2 <.Lpcrel_hi82>:
80003fa2: 00003517     	auipc	a0, 0x3
80003fa6: a6e50713     	addi	a4, a0, -0x592
80003faa: 8536         	mv	a0, a3
80003fac: 85b2         	mv	a1, a2
80003fae: 863a         	mv	a2, a4
80003fb0: 00001097     	auipc	ra, 0x1
80003fb4: c36080e7     	jalr	-0x3ca(ra) <core::panicking::panic_bounds_check::h6aaee0d15e0261eb>

0000000080003fb8 <.Lpcrel_hi81>:
80003fb8: 00003517     	auipc	a0, 0x3
80003fbc: a5850713     	addi	a4, a0, -0x5a8
80003fc0: 8536         	mv	a0, a3
80003fc2: 85b2         	mv	a1, a2
80003fc4: 863a         	mv	a2, a4
80003fc6: 00001097     	auipc	ra, 0x1
80003fca: c20080e7     	jalr	-0x3e0(ra) <core::panicking::panic_bounds_check::h6aaee0d15e0261eb>

0000000080003fce <.Lpcrel_hi80>:
80003fce: 00003517     	auipc	a0, 0x3
80003fd2: a4250713     	addi	a4, a0, -0x5be
80003fd6: 8536         	mv	a0, a3
80003fd8: 85b2         	mv	a1, a2
80003fda: 863a         	mv	a2, a4
80003fdc: 00001097     	auipc	ra, 0x1
80003fe0: c0a080e7     	jalr	-0x3f6(ra) <core::panicking::panic_bounds_check::h6aaee0d15e0261eb>

0000000080003fe4 <.Lpcrel_hi76>:
80003fe4: 00003517     	auipc	a0, 0x3
80003fe8: a2c50713     	addi	a4, a0, -0x5d4
80003fec: 8536         	mv	a0, a3
80003fee: 85b2         	mv	a1, a2
80003ff0: 863a         	mv	a2, a4
80003ff2: 00001097     	auipc	ra, 0x1
80003ff6: bf4080e7     	jalr	-0x40c(ra) <core::panicking::panic_bounds_check::h6aaee0d15e0261eb>

0000000080003ffa <.Lpcrel_hi77>:
80003ffa: 00003517     	auipc	a0, 0x3
80003ffe: a1650693     	addi	a3, a0, -0x5ea
80004002: 853a         	mv	a0, a4
80004004: 85b2         	mv	a1, a2
80004006: 8636         	mv	a2, a3
80004008: 00001097     	auipc	ra, 0x1
8000400c: bde080e7     	jalr	-0x422(ra) <core::panicking::panic_bounds_check::h6aaee0d15e0261eb>

0000000080004010 <.Lpcrel_hi78>:
80004010: 00003517     	auipc	a0, 0x3
80004014: a0050713     	addi	a4, a0, -0x600
80004018: 8536         	mv	a0, a3
8000401a: 85b2         	mv	a1, a2
8000401c: 863a         	mv	a2, a4
8000401e: 00001097     	auipc	ra, 0x1
80004022: bc8080e7     	jalr	-0x438(ra) <core::panicking::panic_bounds_check::h6aaee0d15e0261eb>

0000000080004026 <core::fmt::num::imp::_$LT$impl$u20$u64$GT$::_fmt_inner::habf36a285bd59e0b>:
80004026: 7139         	addi	sp, sp, -0x40
80004028: fc06         	sd	ra, 0x38(sp)
8000402a: f822         	sd	s0, 0x30(sp)
8000402c: f426         	sd	s1, 0x28(sp)
8000402e: f04a         	sd	s2, 0x20(sp)
80004030: ec4e         	sd	s3, 0x18(sp)
80004032: e852         	sd	s4, 0x10(sp)
80004034: e456         	sd	s5, 0x8(sp)
80004036: 0080         	addi	s0, sp, 0x40
80004038: 3e800693     	li	a3, 0x3e8
8000403c: 882a         	mv	a6, a0
8000403e: 8732         	mv	a4, a2
80004040: 0ad56e63     	bltu	a0, a3, 0x800040fc <.Lpcrel_hi85+0x9a>
80004044: 4f01         	li	t5, 0x0
80004046: ffe58f93     	addi	t6, a1, -0x2

000000008000404a <.Lpcrel_hi84>:
8000404a: 00001697     	auipc	a3, 0x1
8000404e: 6709         	lui	a4, 0x2
80004050: 6785         	lui	a5, 0x1
80004052: 06400893     	li	a7, 0x64
80004056: df66b283     	ld	t0, -0x20a(a3)
8000405a: 71070313     	addi	t1, a4, 0x710
8000405e: 47b78393     	addi	t2, a5, 0x47b

0000000080004062 <.Lpcrel_hi85>:
80004062: 00003697     	auipc	a3, 0x3
80004066: 8e068e13     	addi	t3, a3, -0x720
8000406a: 009896b7     	lui	a3, 0x989
8000406e: 67f68e93     	addi	t4, a3, 0x67f
80004072: 882a         	mv	a6, a0
80004074: 01e60a33     	add	s4, a2, t5
80004078: ffca0693     	addi	a3, s4, -0x4
8000407c: 14c6fb63     	bgeu	a3, a2, 0x800041d2 <.Lpcrel_hi91>
80004080: 8942         	mv	s2, a6
80004082: 025836b3     	mulhu	a3, a6, t0
80004086: 00b6d813     	srli	a6, a3, 0xb
8000408a: 026806b3     	mul	a3, a6, t1
8000408e: 40d909b3     	sub	s3, s2, a3
80004092: 03099693     	slli	a3, s3, 0x30
80004096: 92c9         	srli	a3, a3, 0x32
80004098: 027687b3     	mul	a5, a3, t2
8000409c: 83c5         	srli	a5, a5, 0x11
8000409e: 00179713     	slli	a4, a5, 0x1
800040a2: 9772         	add	a4, a4, t3
800040a4: 00074a83     	lbu	s5, 0x0(a4)
800040a8: 00cf84b3     	add	s1, t6, a2
800040ac: ffda0693     	addi	a3, s4, -0x3
800040b0: ff548f23     	sb	s5, -0x2(s1)
800040b4: 10c6f463     	bgeu	a3, a2, 0x800041bc <.Lpcrel_hi92>
800040b8: 00174703     	lbu	a4, 0x1(a4)
800040bc: ffea0693     	addi	a3, s4, -0x2
800040c0: fee48fa3     	sb	a4, -0x1(s1)
800040c4: 0ec6f163     	bgeu	a3, a2, 0x800041a6 <.Lpcrel_hi93>
800040c8: 031786b3     	mul	a3, a5, a7
800040cc: 40d986b3     	sub	a3, s3, a3
800040d0: 16c6         	slli	a3, a3, 0x31
800040d2: 92c1         	srli	a3, a3, 0x30
800040d4: 00de0733     	add	a4, t3, a3
800040d8: 00074783     	lbu	a5, 0x0(a4)
800040dc: fffa0693     	addi	a3, s4, -0x1
800040e0: 00f48023     	sb	a5, 0x0(s1)
800040e4: 0ac6f663     	bgeu	a3, a2, 0x80004190 <.Lpcrel_hi94>
800040e8: 00174683     	lbu	a3, 0x1(a4)
800040ec: 1f71         	addi	t5, t5, -0x4
800040ee: 00d480a3     	sb	a3, 0x1(s1)
800040f2: 1ff1         	addi	t6, t6, -0x4
800040f4: f92ee0e3     	bltu	t4, s2, 0x80004074 <.Lpcrel_hi85+0x12>
800040f8: 01e60733     	add	a4, a2, t5
800040fc: 46a5         	li	a3, 0x9
800040fe: 0506fd63     	bgeu	a3, a6, 0x80004158 <.Lpcrel_hi86+0x3a>
80004102: ffe70693     	addi	a3, a4, -0x2
80004106: 0ec6f163     	bgeu	a3, a2, 0x800041e8 <.Lpcrel_hi87>
8000410a: 03081793     	slli	a5, a6, 0x30
8000410e: 6485         	lui	s1, 0x1
80004110: 06400893     	li	a7, 0x64
80004114: 93c9         	srli	a5, a5, 0x32
80004116: 47b48493     	addi	s1, s1, 0x47b
8000411a: 029787b3     	mul	a5, a5, s1

000000008000411e <.Lpcrel_hi86>:
8000411e: 00003297     	auipc	t0, 0x3
80004122: 83c5         	srli	a5, a5, 0x11
80004124: 031784b3     	mul	s1, a5, a7
80004128: 409804bb     	subw	s1, a6, s1
8000412c: 14c6         	slli	s1, s1, 0x31
8000412e: 0304d813     	srli	a6, s1, 0x30
80004132: 82428493     	addi	s1, t0, -0x7dc
80004136: 94c2         	add	s1, s1, a6
80004138: 0004c803     	lbu	a6, 0x0(s1)
8000413c: 00d588b3     	add	a7, a1, a3
80004140: 177d         	addi	a4, a4, -0x1
80004142: 01088023     	sb	a6, 0x0(a7)
80004146: 0ac77c63     	bgeu	a4, a2, 0x800041fe <.Lpcrel_hi88>
8000414a: 0014c483     	lbu	s1, 0x1(s1)
8000414e: 972e         	add	a4, a4, a1
80004150: 00970023     	sb	s1, 0x0(a4)
80004154: e509         	bnez	a0, 0x8000415e <.Lpcrel_hi86+0x40>
80004156: a029         	j	0x80004160 <.Lpcrel_hi86+0x42>
80004158: 87c2         	mv	a5, a6
8000415a: 86ba         	mv	a3, a4
8000415c: c111         	beqz	a0, 0x80004160 <.Lpcrel_hi86+0x42>
8000415e: cf99         	beqz	a5, 0x8000417c <.Lpcrel_hi90+0x14>
80004160: 16fd         	addi	a3, a3, -0x1
80004162: 0ac6f963     	bgeu	a3, a2, 0x80004214 <.Lpcrel_hi89>
80004166: 0786         	slli	a5, a5, 0x1

0000000080004168 <.Lpcrel_hi90>:
80004168: 00002517     	auipc	a0, 0x2
8000416c: 7da50513     	addi	a0, a0, 0x7da
80004170: 953e         	add	a0, a0, a5
80004172: 00154503     	lbu	a0, 0x1(a0)
80004176: 95b6         	add	a1, a1, a3
80004178: 00a58023     	sb	a0, 0x0(a1)
8000417c: 8536         	mv	a0, a3
8000417e: 70e2         	ld	ra, 0x38(sp)
80004180: 7442         	ld	s0, 0x30(sp)
80004182: 74a2         	ld	s1, 0x28(sp)
80004184: 7902         	ld	s2, 0x20(sp)
80004186: 69e2         	ld	s3, 0x18(sp)
80004188: 6a42         	ld	s4, 0x10(sp)
8000418a: 6aa2         	ld	s5, 0x8(sp)
8000418c: 6121         	addi	sp, sp, 0x40
8000418e: 8082         	ret

0000000080004190 <.Lpcrel_hi94>:
80004190: 00003517     	auipc	a0, 0x3
80004194: 88050713     	addi	a4, a0, -0x780
80004198: 8536         	mv	a0, a3
8000419a: 85b2         	mv	a1, a2
8000419c: 863a         	mv	a2, a4
8000419e: 00001097     	auipc	ra, 0x1
800041a2: a48080e7     	jalr	-0x5b8(ra) <core::panicking::panic_bounds_check::h6aaee0d15e0261eb>

00000000800041a6 <.Lpcrel_hi93>:
800041a6: 00003517     	auipc	a0, 0x3
800041aa: 86a50713     	addi	a4, a0, -0x796
800041ae: 8536         	mv	a0, a3
800041b0: 85b2         	mv	a1, a2
800041b2: 863a         	mv	a2, a4
800041b4: 00001097     	auipc	ra, 0x1
800041b8: a32080e7     	jalr	-0x5ce(ra) <core::panicking::panic_bounds_check::h6aaee0d15e0261eb>

00000000800041bc <.Lpcrel_hi92>:
800041bc: 00003517     	auipc	a0, 0x3
800041c0: 85450713     	addi	a4, a0, -0x7ac
800041c4: 8536         	mv	a0, a3
800041c6: 85b2         	mv	a1, a2
800041c8: 863a         	mv	a2, a4
800041ca: 00001097     	auipc	ra, 0x1
800041ce: a1c080e7     	jalr	-0x5e4(ra) <core::panicking::panic_bounds_check::h6aaee0d15e0261eb>

00000000800041d2 <.Lpcrel_hi91>:
800041d2: 00003517     	auipc	a0, 0x3
800041d6: 83e50713     	addi	a4, a0, -0x7c2
800041da: 8536         	mv	a0, a3
800041dc: 85b2         	mv	a1, a2
800041de: 863a         	mv	a2, a4
800041e0: 00001097     	auipc	ra, 0x1
800041e4: a06080e7     	jalr	-0x5fa(ra) <core::panicking::panic_bounds_check::h6aaee0d15e0261eb>

00000000800041e8 <.Lpcrel_hi87>:
800041e8: 00003517     	auipc	a0, 0x3
800041ec: 82850713     	addi	a4, a0, -0x7d8
800041f0: 8536         	mv	a0, a3
800041f2: 85b2         	mv	a1, a2
800041f4: 863a         	mv	a2, a4
800041f6: 00001097     	auipc	ra, 0x1
800041fa: 9f0080e7     	jalr	-0x610(ra) <core::panicking::panic_bounds_check::h6aaee0d15e0261eb>

00000000800041fe <.Lpcrel_hi88>:
800041fe: 00003517     	auipc	a0, 0x3
80004202: 81250693     	addi	a3, a0, -0x7ee
80004206: 853a         	mv	a0, a4
80004208: 85b2         	mv	a1, a2
8000420a: 8636         	mv	a2, a3
8000420c: 00001097     	auipc	ra, 0x1
80004210: 9da080e7     	jalr	-0x626(ra) <core::panicking::panic_bounds_check::h6aaee0d15e0261eb>

0000000080004214 <.Lpcrel_hi89>:
80004214: 00002517     	auipc	a0, 0x2
80004218: 7fc50713     	addi	a4, a0, 0x7fc
8000421c: 8536         	mv	a0, a3
8000421e: 85b2         	mv	a1, a2
80004220: 863a         	mv	a2, a4
80004222: 00001097     	auipc	ra, 0x1
80004226: 9c4080e7     	jalr	-0x63c(ra) <core::panicking::panic_bounds_check::h6aaee0d15e0261eb>

000000008000422a <core::fmt::num::imp::_$LT$impl$u20$core..fmt..Display$u20$for$u20$u32$GT$::fmt::hc19fd54e2a0ceeb1>:
8000422a: 7139         	addi	sp, sp, -0x40
8000422c: fc06         	sd	ra, 0x38(sp)
8000422e: f822         	sd	s0, 0x30(sp)
80004230: f426         	sd	s1, 0x28(sp)
80004232: f04a         	sd	s2, 0x20(sp)
80004234: ec4e         	sd	s3, 0x18(sp)
80004236: 0080         	addi	s0, sp, 0x40
80004238: 4108         	lw	a0, 0x0(a0)
8000423a: 84ae         	mv	s1, a1
8000423c: fce40913     	addi	s2, s0, -0x32
80004240: fce40593     	addi	a1, s0, -0x32
80004244: 4629         	li	a2, 0xa
80004246: 49a9         	li	s3, 0xa
80004248: 00000097     	auipc	ra, 0x0
8000424c: bd2080e7     	jalr	-0x42e(ra) <core::fmt::num::imp::_$LT$impl$u20$u32$GT$::_fmt_inner::h2c8ef1aec4279901>
80004250: 40a987b3     	sub	a5, s3, a0
80004254: 00a90733     	add	a4, s2, a0
80004258: 4585         	li	a1, 0x1
8000425a: 4605         	li	a2, 0x1
8000425c: 8526         	mv	a0, s1
8000425e: 4681         	li	a3, 0x0
80004260: 00000097     	auipc	ra, 0x0
80004264: 348080e7     	jalr	0x348(ra) <core::fmt::Formatter::pad_integral::h0745a9fd037e4d44>
80004268: 70e2         	ld	ra, 0x38(sp)
8000426a: 7442         	ld	s0, 0x30(sp)
8000426c: 74a2         	ld	s1, 0x28(sp)
8000426e: 7902         	ld	s2, 0x20(sp)
80004270: 69e2         	ld	s3, 0x18(sp)
80004272: 6121         	addi	sp, sp, 0x40
80004274: 8082         	ret

0000000080004276 <core::fmt::num::imp::_$LT$impl$u20$core..fmt..Display$u20$for$u20$usize$GT$::fmt::h566085f0242c3154>:
80004276: 7139         	addi	sp, sp, -0x40
80004278: fc06         	sd	ra, 0x38(sp)
8000427a: f822         	sd	s0, 0x30(sp)
8000427c: f426         	sd	s1, 0x28(sp)
8000427e: f04a         	sd	s2, 0x20(sp)
80004280: ec4e         	sd	s3, 0x18(sp)
80004282: 0080         	addi	s0, sp, 0x40
80004284: 6108         	ld	a0, 0x0(a0)
80004286: 84ae         	mv	s1, a1
80004288: fc440913     	addi	s2, s0, -0x3c
8000428c: fc440593     	addi	a1, s0, -0x3c
80004290: 4651         	li	a2, 0x14
80004292: 49d1         	li	s3, 0x14
80004294: 00000097     	auipc	ra, 0x0
80004298: d92080e7     	jalr	-0x26e(ra) <core::fmt::num::imp::_$LT$impl$u20$u64$GT$::_fmt_inner::habf36a285bd59e0b>
8000429c: 40a987b3     	sub	a5, s3, a0
800042a0: 00a90733     	add	a4, s2, a0
800042a4: 4585         	li	a1, 0x1
800042a6: 4605         	li	a2, 0x1
800042a8: 8526         	mv	a0, s1
800042aa: 4681         	li	a3, 0x0
800042ac: 00000097     	auipc	ra, 0x0
800042b0: 2fc080e7     	jalr	0x2fc(ra) <core::fmt::Formatter::pad_integral::h0745a9fd037e4d44>
800042b4: 70e2         	ld	ra, 0x38(sp)
800042b6: 7442         	ld	s0, 0x30(sp)
800042b8: 74a2         	ld	s1, 0x28(sp)
800042ba: 7902         	ld	s2, 0x20(sp)
800042bc: 69e2         	ld	s3, 0x18(sp)
800042be: 6121         	addi	sp, sp, 0x40
800042c0: 8082         	ret

00000000800042c2 <core::fmt::num::_$LT$impl$u20$core..fmt..LowerHex$u20$for$u20$usize$GT$::fmt::hcb99b156cc230e11>:
800042c2: 1101         	addi	sp, sp, -0x20
800042c4: ec06         	sd	ra, 0x18(sp)
800042c6: e822         	sd	s0, 0x10(sp)
800042c8: 1000         	addi	s0, sp, 0x20
800042ca: 882e         	mv	a6, a1
800042cc: 4781         	li	a5, 0x0
800042ce: 6108         	ld	a0, 0x0(a0)
800042d0: fef40593     	addi	a1, s0, -0x11

00000000800042d4 <.Lpcrel_hi209>:
800042d4: 00002617     	auipc	a2, 0x2
800042d8: 61460613     	addi	a2, a2, 0x614
800042dc: 00f57693     	andi	a3, a0, 0xf
800042e0: 96b2         	add	a3, a3, a2
800042e2: 0006c683     	lbu	a3, 0x0(a3)
800042e6: 8111         	srli	a0, a0, 0x4
800042e8: 0785         	addi	a5, a5, 0x1
800042ea: 00d58023     	sb	a3, 0x0(a1)
800042ee: 15fd         	addi	a1, a1, -0x1
800042f0: f575         	bnez	a0, 0x800042dc <.Lpcrel_hi209+0x8>
800042f2: fe040513     	addi	a0, s0, -0x20
800042f6: 8d1d         	sub	a0, a0, a5
800042f8: 01050713     	addi	a4, a0, 0x10

00000000800042fc <.Lpcrel_hi210>:
800042fc: 00002517     	auipc	a0, 0x2
80004300: 4585         	li	a1, 0x1
80004302: 72c50613     	addi	a2, a0, 0x72c
80004306: 4689         	li	a3, 0x2
80004308: 8542         	mv	a0, a6
8000430a: 00000097     	auipc	ra, 0x0
8000430e: 29e080e7     	jalr	0x29e(ra) <core::fmt::Formatter::pad_integral::h0745a9fd037e4d44>
80004312: 60e2         	ld	ra, 0x18(sp)
80004314: 6442         	ld	s0, 0x10(sp)
80004316: 6105         	addi	sp, sp, 0x20
80004318: 8082         	ret

000000008000431a <core::fmt::num::_$LT$impl$u20$core..fmt..UpperHex$u20$for$u20$u32$GT$::fmt::h07f6b7b2f3968c14>:
8000431a: 1101         	addi	sp, sp, -0x20
8000431c: ec06         	sd	ra, 0x18(sp)
8000431e: e822         	sd	s0, 0x10(sp)
80004320: 1000         	addi	s0, sp, 0x20
80004322: 882e         	mv	a6, a1
80004324: 4781         	li	a5, 0x0
80004326: 4110         	lw	a2, 0x0(a0)
80004328: fef40513     	addi	a0, s0, -0x11

000000008000432c <.Lpcrel_hi219>:
8000432c: 00002597     	auipc	a1, 0x2
80004330: 59c58593     	addi	a1, a1, 0x59c
80004334: 00f67693     	andi	a3, a2, 0xf
80004338: 96ae         	add	a3, a3, a1
8000433a: 0006c683     	lbu	a3, 0x0(a3)
8000433e: 0046571b     	srliw	a4, a2, 0x4
80004342: 0785         	addi	a5, a5, 0x1
80004344: 00d50023     	sb	a3, 0x0(a0)
80004348: 157d         	addi	a0, a0, -0x1
8000434a: 863a         	mv	a2, a4
8000434c: f765         	bnez	a4, 0x80004334 <.Lpcrel_hi219+0x8>
8000434e: fe840513     	addi	a0, s0, -0x18
80004352: 8d1d         	sub	a0, a0, a5
80004354: 00850713     	addi	a4, a0, 0x8

0000000080004358 <.Lpcrel_hi220>:
80004358: 00002517     	auipc	a0, 0x2
8000435c: 4585         	li	a1, 0x1
8000435e: 6d050613     	addi	a2, a0, 0x6d0
80004362: 4689         	li	a3, 0x2
80004364: 8542         	mv	a0, a6
80004366: 00000097     	auipc	ra, 0x0
8000436a: 242080e7     	jalr	0x242(ra) <core::fmt::Formatter::pad_integral::h0745a9fd037e4d44>
8000436e: 60e2         	ld	ra, 0x18(sp)
80004370: 6442         	ld	s0, 0x10(sp)
80004372: 6105         	addi	sp, sp, 0x20
80004374: 8082         	ret

0000000080004376 <core::fmt::write::hfd17e9e8e823b619>:
80004376: 7119         	addi	sp, sp, -0x80
80004378: fc86         	sd	ra, 0x78(sp)
8000437a: f8a2         	sd	s0, 0x70(sp)
8000437c: f4a6         	sd	s1, 0x68(sp)
8000437e: f0ca         	sd	s2, 0x60(sp)
80004380: ecce         	sd	s3, 0x58(sp)
80004382: e8d2         	sd	s4, 0x50(sp)
80004384: e4d6         	sd	s5, 0x48(sp)
80004386: e0da         	sd	s6, 0x40(sp)
80004388: fc5e         	sd	s7, 0x38(sp)
8000438a: f862         	sd	s8, 0x30(sp)
8000438c: f466         	sd	s9, 0x28(sp)
8000438e: f06a         	sd	s10, 0x20(sp)
80004390: 0100         	addi	s0, sp, 0x80
80004392: 89b6         	mv	s3, a3
80004394: 892e         	mv	s2, a1
80004396: 0016f593     	andi	a1, a3, 0x1
8000439a: 8a2a         	mv	s4, a0
8000439c: 16059063     	bnez	a1, 0x800044fc <core::fmt::write::hfd17e9e8e823b619+0x186>
800043a0: 00064483     	lbu	s1, 0x0(a2)
800043a4: 18048163     	beqz	s1, 0x80004526 <core::fmt::write::hfd17e9e8e823b619+0x1b0>
800043a8: 4c81         	li	s9, 0x0
800043aa: 01893b03     	ld	s6, 0x18(s2)
800043ae: 08000b93     	li	s7, 0x80
800043b2: 0c000c13     	li	s8, 0xc0
800043b6: 60000537     	lui	a0, 0x60000
800043ba: 02050d13     	addi	s10, a0, 0x20
800043be: a805         	j	0x800043ee <core::fmt::write::hfd17e9e8e823b619+0x78>
800043c0: 004c9513     	slli	a0, s9, 0x4
800043c4: 00a985b3     	add	a1, s3, a0
800043c8: 6188         	ld	a0, 0x0(a1)
800043ca: 6590         	ld	a2, 0x8(a1)
800043cc: f9443423     	sd	s4, -0x78(s0)
800043d0: f9243823     	sd	s2, -0x70(s0)
800043d4: f9a43c23     	sd	s10, -0x68(s0)
800043d8: f8840593     	addi	a1, s0, -0x78
800043dc: 9602         	jalr	a2
800043de: 14051663     	bnez	a0, 0x8000452a <core::fmt::write::hfd17e9e8e823b619+0x1b4>
800043e2: 0c85         	addi	s9, s9, 0x1
800043e4: 000ac483     	lbu	s1, 0x0(s5)
800043e8: 8656         	mv	a2, s5
800043ea: 12048e63     	beqz	s1, 0x80004526 <core::fmt::write::hfd17e9e8e823b619+0x1b0>
800043ee: 03849513     	slli	a0, s1, 0x38
800043f2: 00160a93     	addi	s5, a2, 0x1
800043f6: 00054a63     	bltz	a0, 0x8000440a <core::fmt::write::hfd17e9e8e823b619+0x94>
800043fa: 8552         	mv	a0, s4
800043fc: 85d6         	mv	a1, s5
800043fe: 8626         	mv	a2, s1
80004400: 9b02         	jalr	s6
80004402: 12051463     	bnez	a0, 0x8000452a <core::fmt::write::hfd17e9e8e823b619+0x1b4>
80004406: 9aa6         	add	s5, s5, s1
80004408: bff1         	j	0x800043e4 <core::fmt::write::hfd17e9e8e823b619+0x6e>
8000440a: 05748b63     	beq	s1, s7, 0x80004460 <core::fmt::write::hfd17e9e8e823b619+0xea>
8000440e: fb8489e3     	beq	s1, s8, 0x800043c0 <core::fmt::write::hfd17e9e8e823b619+0x4a>
80004412: 0014f513     	andi	a0, s1, 0x1
80004416: 85ea         	mv	a1, s10
80004418: c115         	beqz	a0, 0x8000443c <core::fmt::write::hfd17e9e8e823b619+0xc6>
8000441a: 00264503     	lbu	a0, 0x2(a2)
8000441e: 00164583     	lbu	a1, 0x1(a2)
80004422: 00364683     	lbu	a3, 0x3(a2)
80004426: 00464703     	lbu	a4, 0x4(a2)
8000442a: 0522         	slli	a0, a0, 0x8
8000442c: 8d4d         	or	a0, a0, a1
8000442e: 06c2         	slli	a3, a3, 0x10
80004430: 0762         	slli	a4, a4, 0x18
80004432: 00d765b3     	or	a1, a4, a3
80004436: 8dc9         	or	a1, a1, a0
80004438: 00560a93     	addi	s5, a2, 0x5
8000443c: 0024f513     	andi	a0, s1, 0x2
80004440: e121         	bnez	a0, 0x80004480 <core::fmt::write::hfd17e9e8e823b619+0x10a>
80004442: 4601         	li	a2, 0x0
80004444: 0044f513     	andi	a0, s1, 0x4
80004448: c531         	beqz	a0, 0x80004494 <core::fmt::write::hfd17e9e8e823b619+0x11e>
8000444a: 001ac503     	lbu	a0, 0x1(s5)
8000444e: 000ac683     	lbu	a3, 0x0(s5)
80004452: 0522         	slli	a0, a0, 0x8
80004454: 8ec9         	or	a3, a3, a0
80004456: 0a89         	addi	s5, s5, 0x2
80004458: 0084f513     	andi	a0, s1, 0x8
8000445c: e121         	bnez	a0, 0x8000449c <core::fmt::write::hfd17e9e8e823b619+0x126>
8000445e: a0b9         	j	0x800044ac <core::fmt::write::hfd17e9e8e823b619+0x136>
80004460: 00264503     	lbu	a0, 0x2(a2)
80004464: 00164583     	lbu	a1, 0x1(a2)
80004468: 0522         	slli	a0, a0, 0x8
8000446a: 00b56ab3     	or	s5, a0, a1
8000446e: 00360493     	addi	s1, a2, 0x3
80004472: 8552         	mv	a0, s4
80004474: 85a6         	mv	a1, s1
80004476: 8656         	mv	a2, s5
80004478: 9b02         	jalr	s6
8000447a: e945         	bnez	a0, 0x8000452a <core::fmt::write::hfd17e9e8e823b619+0x1b4>
8000447c: 9aa6         	add	s5, s5, s1
8000447e: b79d         	j	0x800043e4 <core::fmt::write::hfd17e9e8e823b619+0x6e>
80004480: 001ac503     	lbu	a0, 0x1(s5)
80004484: 000ac603     	lbu	a2, 0x0(s5)
80004488: 0522         	slli	a0, a0, 0x8
8000448a: 8e49         	or	a2, a2, a0
8000448c: 0a89         	addi	s5, s5, 0x2
8000448e: 0044f513     	andi	a0, s1, 0x4
80004492: fd45         	bnez	a0, 0x8000444a <core::fmt::write::hfd17e9e8e823b619+0xd4>
80004494: 4681         	li	a3, 0x0
80004496: 0084f513     	andi	a0, s1, 0x8
8000449a: c909         	beqz	a0, 0x800044ac <core::fmt::write::hfd17e9e8e823b619+0x136>
8000449c: 001ac503     	lbu	a0, 0x1(s5)
800044a0: 000ac703     	lbu	a4, 0x0(s5)
800044a4: 0522         	slli	a0, a0, 0x8
800044a6: 00e56cb3     	or	s9, a0, a4
800044aa: 0a89         	addi	s5, s5, 0x2
800044ac: 0104f513     	andi	a0, s1, 0x10
800044b0: ed15         	bnez	a0, 0x800044ec <core::fmt::write::hfd17e9e8e823b619+0x176>
800044b2: 0204f513     	andi	a0, s1, 0x20
800044b6: c509         	beqz	a0, 0x800044c0 <core::fmt::write::hfd17e9e8e823b619+0x14a>
800044b8: 0692         	slli	a3, a3, 0x4
800044ba: 96ce         	add	a3, a3, s3
800044bc: 0086d683     	lhu	a3, 0x8(a3)
800044c0: 004c9513     	slli	a0, s9, 0x4
800044c4: 00a98733     	add	a4, s3, a0
800044c8: 6308         	ld	a0, 0x0(a4)
800044ca: 6718         	ld	a4, 0x8(a4)
800044cc: f9443423     	sd	s4, -0x78(s0)
800044d0: f9243823     	sd	s2, -0x70(s0)
800044d4: f8b42c23     	sw	a1, -0x68(s0)
800044d8: f8c41e23     	sh	a2, -0x64(s0)
800044dc: f8d41f23     	sh	a3, -0x62(s0)
800044e0: f8840593     	addi	a1, s0, -0x78
800044e4: 9702         	jalr	a4
800044e6: ee050ee3     	beqz	a0, 0x800043e2 <core::fmt::write::hfd17e9e8e823b619+0x6c>
800044ea: a081         	j	0x8000452a <core::fmt::write::hfd17e9e8e823b619+0x1b4>
800044ec: 0612         	slli	a2, a2, 0x4
800044ee: 964e         	add	a2, a2, s3
800044f0: 00865603     	lhu	a2, 0x8(a2)
800044f4: 0204f513     	andi	a0, s1, 0x20
800044f8: f161         	bnez	a0, 0x800044b8 <core::fmt::write::hfd17e9e8e823b619+0x142>
800044fa: b7d9         	j	0x800044c0 <core::fmt::write::hfd17e9e8e823b619+0x14a>
800044fc: 01893783     	ld	a5, 0x18(s2)
80004500: 0019d693     	srli	a3, s3, 0x1
80004504: 8552         	mv	a0, s4
80004506: 85b2         	mv	a1, a2
80004508: 8636         	mv	a2, a3
8000450a: 70e6         	ld	ra, 0x78(sp)
8000450c: 7446         	ld	s0, 0x70(sp)
8000450e: 74a6         	ld	s1, 0x68(sp)
80004510: 7906         	ld	s2, 0x60(sp)
80004512: 69e6         	ld	s3, 0x58(sp)
80004514: 6a46         	ld	s4, 0x50(sp)
80004516: 6aa6         	ld	s5, 0x48(sp)
80004518: 6b06         	ld	s6, 0x40(sp)
8000451a: 7be2         	ld	s7, 0x38(sp)
8000451c: 7c42         	ld	s8, 0x30(sp)
8000451e: 7ca2         	ld	s9, 0x28(sp)
80004520: 7d02         	ld	s10, 0x20(sp)
80004522: 6109         	addi	sp, sp, 0x80
80004524: 8782         	jr	a5
80004526: 4501         	li	a0, 0x0
80004528: a011         	j	0x8000452c <core::fmt::write::hfd17e9e8e823b619+0x1b6>
8000452a: 4505         	li	a0, 0x1
8000452c: 70e6         	ld	ra, 0x78(sp)
8000452e: 7446         	ld	s0, 0x70(sp)
80004530: 74a6         	ld	s1, 0x68(sp)
80004532: 7906         	ld	s2, 0x60(sp)
80004534: 69e6         	ld	s3, 0x58(sp)
80004536: 6a46         	ld	s4, 0x50(sp)
80004538: 6aa6         	ld	s5, 0x48(sp)
8000453a: 6b06         	ld	s6, 0x40(sp)
8000453c: 7be2         	ld	s7, 0x38(sp)
8000453e: 7c42         	ld	s8, 0x30(sp)
80004540: 7ca2         	ld	s9, 0x28(sp)
80004542: 7d02         	ld	s10, 0x20(sp)
80004544: 6109         	addi	sp, sp, 0x80
80004546: 8082         	ret

0000000080004548 <core::fmt::Formatter::pad_integral::write_prefix::hfc34f482b9af976a>:
80004548: 7179         	addi	sp, sp, -0x30
8000454a: f406         	sd	ra, 0x28(sp)
8000454c: f022         	sd	s0, 0x20(sp)
8000454e: ec26         	sd	s1, 0x18(sp)
80004550: e84a         	sd	s2, 0x10(sp)
80004552: e44e         	sd	s3, 0x8(sp)
80004554: e052         	sd	s4, 0x0(sp)
80004556: 1800         	addi	s0, sp, 0x30
80004558: 893a         	mv	s2, a4
8000455a: 8a36         	mv	s4, a3
8000455c: 89ae         	mv	s3, a1
8000455e: 001105b7     	lui	a1, 0x110
80004562: 00b60c63     	beq	a2, a1, 0x8000457a <core::fmt::Formatter::pad_integral::write_prefix::hfc34f482b9af976a+0x32>
80004566: 0209b683     	ld	a3, 0x20(s3)
8000456a: 84aa         	mv	s1, a0
8000456c: 85b2         	mv	a1, a2
8000456e: 9682         	jalr	a3
80004570: 85aa         	mv	a1, a0
80004572: 8526         	mv	a0, s1
80004574: c199         	beqz	a1, 0x8000457a <core::fmt::Formatter::pad_integral::write_prefix::hfc34f482b9af976a+0x32>
80004576: 4505         	li	a0, 0x1
80004578: a005         	j	0x80004598 <core::fmt::Formatter::pad_integral::write_prefix::hfc34f482b9af976a+0x50>
8000457a: 000a0e63     	beqz	s4, 0x80004596 <core::fmt::Formatter::pad_integral::write_prefix::hfc34f482b9af976a+0x4e>
8000457e: 0189b783     	ld	a5, 0x18(s3)
80004582: 85d2         	mv	a1, s4
80004584: 864a         	mv	a2, s2
80004586: 70a2         	ld	ra, 0x28(sp)
80004588: 7402         	ld	s0, 0x20(sp)
8000458a: 64e2         	ld	s1, 0x18(sp)
8000458c: 6942         	ld	s2, 0x10(sp)
8000458e: 69a2         	ld	s3, 0x8(sp)
80004590: 6a02         	ld	s4, 0x0(sp)
80004592: 6145         	addi	sp, sp, 0x30
80004594: 8782         	jr	a5
80004596: 4501         	li	a0, 0x0
80004598: 70a2         	ld	ra, 0x28(sp)
8000459a: 7402         	ld	s0, 0x20(sp)
8000459c: 64e2         	ld	s1, 0x18(sp)
8000459e: 6942         	ld	s2, 0x10(sp)
800045a0: 69a2         	ld	s3, 0x8(sp)
800045a2: 6a02         	ld	s4, 0x0(sp)
800045a4: 6145         	addi	sp, sp, 0x30
800045a6: 8082         	ret

00000000800045a8 <core::fmt::Formatter::pad_integral::h0745a9fd037e4d44>:
800045a8: 7119         	addi	sp, sp, -0x80
800045aa: fc86         	sd	ra, 0x78(sp)
800045ac: f8a2         	sd	s0, 0x70(sp)
800045ae: f4a6         	sd	s1, 0x68(sp)
800045b0: f0ca         	sd	s2, 0x60(sp)
800045b2: ecce         	sd	s3, 0x58(sp)
800045b4: e8d2         	sd	s4, 0x50(sp)
800045b6: e4d6         	sd	s5, 0x48(sp)
800045b8: e0da         	sd	s6, 0x40(sp)
800045ba: fc5e         	sd	s7, 0x38(sp)
800045bc: f862         	sd	s8, 0x30(sp)
800045be: f466         	sd	s9, 0x28(sp)
800045c0: f06a         	sd	s10, 0x20(sp)
800045c2: ec6e         	sd	s11, 0x18(sp)
800045c4: 0100         	addi	s0, sp, 0x80
800045c6: 89be         	mv	s3, a5
800045c8: 8d3a         	mv	s10, a4
800045ca: 8a36         	mv	s4, a3
800045cc: 8ab2         	mv	s5, a2
800045ce: 8baa         	mv	s7, a0
800045d0: cdbd         	beqz	a1, 0x8000464e <core::fmt::Formatter::pad_integral::h0745a9fd037e4d44+0xa6>
800045d2: 010bec03     	lwu	s8, 0x10(s7)
800045d6: 00200537     	lui	a0, 0x200
800045da: 00ac7533     	and	a0, s8, a0
800045de: 00110b37     	lui	s6, 0x110
800045e2: c119         	beqz	a0, 0x800045e8 <core::fmt::Formatter::pad_integral::h0745a9fd037e4d44+0x40>
800045e4: 02b00b13     	li	s6, 0x2b
800045e8: 8155         	srli	a0, a0, 0x15
800045ea: 00a98cb3     	add	s9, s3, a0
800045ee: 028c1513     	slli	a0, s8, 0x28
800045f2: 06055863     	bgez	a0, 0x80004662 <core::fmt::Formatter::pad_integral::h0745a9fd037e4d44+0xba>
800045f6: 02000513     	li	a0, 0x20
800045fa: 0aaa7a63     	bgeu	s4, a0, 0x800046ae <core::fmt::Formatter::pad_integral::h0745a9fd037e4d44+0x106>
800045fe: 4501         	li	a0, 0x0
80004600: 000a0f63     	beqz	s4, 0x8000461e <core::fmt::Formatter::pad_integral::h0745a9fd037e4d44+0x76>
80004604: 014a85b3     	add	a1, s5, s4
80004608: 8656         	mv	a2, s5
8000460a: 00060683     	lb	a3, 0x0(a2)
8000460e: 0605         	addi	a2, a2, 0x1
80004610: fc06a693     	slti	a3, a3, -0x40
80004614: 0016c693     	xori	a3, a3, 0x1
80004618: 9536         	add	a0, a0, a3
8000461a: feb618e3     	bne	a2, a1, 0x8000460a <core::fmt::Formatter::pad_integral::h0745a9fd037e4d44+0x62>
8000461e: 9caa         	add	s9, s9, a0
80004620: 014bd903     	lhu	s2, 0x14(s7)
80004624: 052cf463     	bgeu	s9, s2, 0x8000466c <core::fmt::Formatter::pad_integral::h0745a9fd037e4d44+0xc4>
80004628: 027c1513     	slli	a0, s8, 0x27
8000462c: f9a43823     	sd	s10, -0x70(s0)
80004630: 08054b63     	bltz	a0, 0x800046c6 <core::fmt::Formatter::pad_integral::h0745a9fd037e4d44+0x11e>
80004634: 41990633     	sub	a2, s2, s9
80004638: 021c1513     	slli	a0, s8, 0x21
8000463c: 9179         	srli	a0, a0, 0x3e
8000463e: 4585         	li	a1, 0x1
80004640: 1c2e         	slli	s8, s8, 0x2b
80004642: 0ea5c263     	blt	a1, a0, 0x80004726 <core::fmt::Formatter::pad_integral::h0745a9fd037e4d44+0x17e>
80004646: 10051563     	bnez	a0, 0x80004750 <core::fmt::Formatter::pad_integral::h0745a9fd037e4d44+0x1a8>
8000464a: 4d81         	li	s11, 0x0
8000464c: a219         	j	0x80004752 <core::fmt::Formatter::pad_integral::h0745a9fd037e4d44+0x1aa>
8000464e: 010bac03     	lw	s8, 0x10(s7)
80004652: 00198c93     	addi	s9, s3, 0x1
80004656: 02d00b13     	li	s6, 0x2d
8000465a: 028c1513     	slli	a0, s8, 0x28
8000465e: f8054ce3     	bltz	a0, 0x800045f6 <core::fmt::Formatter::pad_integral::h0745a9fd037e4d44+0x4e>
80004662: 4a81         	li	s5, 0x0
80004664: 014bd903     	lhu	s2, 0x14(s7)
80004668: fd2ce0e3     	bltu	s9, s2, 0x80004628 <core::fmt::Formatter::pad_integral::h0745a9fd037e4d44+0x80>
8000466c: 000bbc03     	ld	s8, 0x0(s7)
80004670: 008bb483     	ld	s1, 0x8(s7)
80004674: 8562         	mv	a0, s8
80004676: 85a6         	mv	a1, s1
80004678: 865a         	mv	a2, s6
8000467a: 86d6         	mv	a3, s5
8000467c: 8752         	mv	a4, s4
8000467e: 00000097     	auipc	ra, 0x0
80004682: eca080e7     	jalr	-0x136(ra) <core::fmt::Formatter::pad_integral::write_prefix::hfc34f482b9af976a>
80004686: ed75         	bnez	a0, 0x80004782 <core::fmt::Formatter::pad_integral::h0745a9fd037e4d44+0x1da>
80004688: 6c9c         	ld	a5, 0x18(s1)
8000468a: 8562         	mv	a0, s8
8000468c: 85ea         	mv	a1, s10
8000468e: 864e         	mv	a2, s3
80004690: 70e6         	ld	ra, 0x78(sp)
80004692: 7446         	ld	s0, 0x70(sp)
80004694: 74a6         	ld	s1, 0x68(sp)
80004696: 7906         	ld	s2, 0x60(sp)
80004698: 69e6         	ld	s3, 0x58(sp)
8000469a: 6a46         	ld	s4, 0x50(sp)
8000469c: 6aa6         	ld	s5, 0x48(sp)
8000469e: 6b06         	ld	s6, 0x40(sp)
800046a0: 7be2         	ld	s7, 0x38(sp)
800046a2: 7c42         	ld	s8, 0x30(sp)
800046a4: 7ca2         	ld	s9, 0x28(sp)
800046a6: 7d02         	ld	s10, 0x20(sp)
800046a8: 6de2         	ld	s11, 0x18(sp)
800046aa: 6109         	addi	sp, sp, 0x80
800046ac: 8782         	jr	a5
800046ae: 8556         	mv	a0, s5
800046b0: 85d2         	mv	a1, s4
800046b2: 00000097     	auipc	ra, 0x0
800046b6: 30c080e7     	jalr	0x30c(ra) <core::str::count::do_count_chars::h6ce55074ab2fe9d1>
800046ba: 9caa         	add	s9, s9, a0
800046bc: 014bd903     	lhu	s2, 0x14(s7)
800046c0: fb2cf6e3     	bgeu	s9, s2, 0x8000466c <core::fmt::Formatter::pad_integral::h0745a9fd037e4d44+0xc4>
800046c4: b795         	j	0x80004628 <core::fmt::Formatter::pad_integral::h0745a9fd037e4d44+0x80>
800046c6: 010bbd03     	ld	s10, 0x10(s7)
800046ca: 000bbc03     	ld	s8, 0x0(s7)
800046ce: 008bbd83     	ld	s11, 0x8(s7)
800046d2: 9fe00537     	lui	a0, 0x9fe00
800046d6: 200005b7     	lui	a1, 0x20000
800046da: 00ad7533     	and	a0, s10, a0
800046de: 03058593     	addi	a1, a1, 0x30
800046e2: 8d4d         	or	a0, a0, a1
800046e4: 00aba823     	sw	a0, 0x10(s7)
800046e8: 8562         	mv	a0, s8
800046ea: 85ee         	mv	a1, s11
800046ec: 865a         	mv	a2, s6
800046ee: 86d6         	mv	a3, s5
800046f0: 8752         	mv	a4, s4
800046f2: 00000097     	auipc	ra, 0x0
800046f6: e56080e7     	jalr	-0x1aa(ra) <core::fmt::Formatter::pad_integral::write_prefix::hfc34f482b9af976a>
800046fa: 4a05         	li	s4, 0x1
800046fc: e541         	bnez	a0, 0x80004784 <core::fmt::Formatter::pad_integral::h0745a9fd037e4d44+0x1dc>
800046fe: 4481         	li	s1, 0x0
80004700: 41990533     	sub	a0, s2, s9
80004704: 6941         	lui	s2, 0x10
80004706: 197d         	addi	s2, s2, -0x1
80004708: 01257ab3     	and	s5, a0, s2
8000470c: 0124f533     	and	a0, s1, s2
80004710: 03557463     	bgeu	a0, s5, 0x80004738 <core::fmt::Formatter::pad_integral::h0745a9fd037e4d44+0x190>
80004714: 020db603     	ld	a2, 0x20(s11)
80004718: 0485         	addi	s1, s1, 0x1
8000471a: 03000593     	li	a1, 0x30
8000471e: 8562         	mv	a0, s8
80004720: 9602         	jalr	a2
80004722: d56d         	beqz	a0, 0x8000470c <core::fmt::Formatter::pad_integral::h0745a9fd037e4d44+0x164>
80004724: a085         	j	0x80004784 <core::fmt::Formatter::pad_integral::h0745a9fd037e4d44+0x1dc>
80004726: 4589         	li	a1, 0x2
80004728: 8db2         	mv	s11, a2
8000472a: 02b51463     	bne	a0, a1, 0x80004752 <core::fmt::Formatter::pad_integral::h0745a9fd037e4d44+0x1aa>
8000472e: 03061513     	slli	a0, a2, 0x30
80004732: 03155d93     	srli	s11, a0, 0x31
80004736: a831         	j	0x80004752 <core::fmt::Formatter::pad_integral::h0745a9fd037e4d44+0x1aa>
80004738: 018db683     	ld	a3, 0x18(s11)
8000473c: 8562         	mv	a0, s8
8000473e: f9043583     	ld	a1, -0x70(s0)
80004742: 864e         	mv	a2, s3
80004744: 9682         	jalr	a3
80004746: ed1d         	bnez	a0, 0x80004784 <core::fmt::Formatter::pad_integral::h0745a9fd037e4d44+0x1dc>
80004748: 4a01         	li	s4, 0x0
8000474a: 01abb823     	sd	s10, 0x10(s7)
8000474e: a81d         	j	0x80004784 <core::fmt::Formatter::pad_integral::h0745a9fd037e4d44+0x1dc>
80004750: 8db2         	mv	s11, a2
80004752: f8c43423     	sd	a2, -0x78(s0)
80004756: 4d01         	li	s10, 0x0
80004758: 02bc5c13     	srli	s8, s8, 0x2b
8000475c: 000bbc83     	ld	s9, 0x0(s7)
80004760: 008bbb83     	ld	s7, 0x8(s7)
80004764: 64c1         	lui	s1, 0x10
80004766: 14fd         	addi	s1, s1, -0x1
80004768: 009df933     	and	s2, s11, s1
8000476c: 009d7533     	and	a0, s10, s1
80004770: 03257a63     	bgeu	a0, s2, 0x800047a4 <core::fmt::Formatter::pad_integral::h0745a9fd037e4d44+0x1fc>
80004774: 020bb603     	ld	a2, 0x20(s7)
80004778: 0d05         	addi	s10, s10, 0x1
8000477a: 8566         	mv	a0, s9
8000477c: 85e2         	mv	a1, s8
8000477e: 9602         	jalr	a2
80004780: d575         	beqz	a0, 0x8000476c <core::fmt::Formatter::pad_integral::h0745a9fd037e4d44+0x1c4>
80004782: 4a05         	li	s4, 0x1
80004784: 8552         	mv	a0, s4
80004786: 70e6         	ld	ra, 0x78(sp)
80004788: 7446         	ld	s0, 0x70(sp)
8000478a: 74a6         	ld	s1, 0x68(sp)
8000478c: 7906         	ld	s2, 0x60(sp)
8000478e: 69e6         	ld	s3, 0x58(sp)
80004790: 6a46         	ld	s4, 0x50(sp)
80004792: 6aa6         	ld	s5, 0x48(sp)
80004794: 6b06         	ld	s6, 0x40(sp)
80004796: 7be2         	ld	s7, 0x38(sp)
80004798: 7c42         	ld	s8, 0x30(sp)
8000479a: 7ca2         	ld	s9, 0x28(sp)
8000479c: 7d02         	ld	s10, 0x20(sp)
8000479e: 6de2         	ld	s11, 0x18(sp)
800047a0: 6109         	addi	sp, sp, 0x80
800047a2: 8082         	ret
800047a4: 8566         	mv	a0, s9
800047a6: 85de         	mv	a1, s7
800047a8: 865a         	mv	a2, s6
800047aa: 86d6         	mv	a3, s5
800047ac: 8752         	mv	a4, s4
800047ae: 00000097     	auipc	ra, 0x0
800047b2: d9a080e7     	jalr	-0x266(ra) <core::fmt::Formatter::pad_integral::write_prefix::hfc34f482b9af976a>
800047b6: 4a05         	li	s4, 0x1
800047b8: f571         	bnez	a0, 0x80004784 <core::fmt::Formatter::pad_integral::h0745a9fd037e4d44+0x1dc>
800047ba: 018bb683     	ld	a3, 0x18(s7)
800047be: 8566         	mv	a0, s9
800047c0: f9043583     	ld	a1, -0x70(s0)
800047c4: 864e         	mv	a2, s3
800047c6: 9682         	jalr	a3
800047c8: fd55         	bnez	a0, 0x80004784 <core::fmt::Formatter::pad_integral::h0745a9fd037e4d44+0x1dc>
800047ca: 4481         	li	s1, 0x0
800047cc: f8843503     	ld	a0, -0x78(s0)
800047d0: 41b50533     	sub	a0, a0, s11
800047d4: 6941         	lui	s2, 0x10
800047d6: 197d         	addi	s2, s2, -0x1
800047d8: 012579b3     	and	s3, a0, s2
800047dc: 0124f533     	and	a0, s1, s2
800047e0: 01353a33     	sltu	s4, a0, s3
800047e4: fb3570e3     	bgeu	a0, s3, 0x80004784 <core::fmt::Formatter::pad_integral::h0745a9fd037e4d44+0x1dc>
800047e8: 020bb603     	ld	a2, 0x20(s7)
800047ec: 0485         	addi	s1, s1, 0x1
800047ee: 8566         	mv	a0, s9
800047f0: 85e2         	mv	a1, s8
800047f2: 9602         	jalr	a2
800047f4: d565         	beqz	a0, 0x800047dc <core::fmt::Formatter::pad_integral::h0745a9fd037e4d44+0x234>
800047f6: b779         	j	0x80004784 <core::fmt::Formatter::pad_integral::h0745a9fd037e4d44+0x1dc>

00000000800047f8 <core::fmt::Formatter::pad::h239e525174ab4a17>:
800047f8: 711d         	addi	sp, sp, -0x60
800047fa: ec86         	sd	ra, 0x58(sp)
800047fc: e8a2         	sd	s0, 0x50(sp)
800047fe: e4a6         	sd	s1, 0x48(sp)
80004800: e0ca         	sd	s2, 0x40(sp)
80004802: fc4e         	sd	s3, 0x38(sp)
80004804: f852         	sd	s4, 0x30(sp)
80004806: f456         	sd	s5, 0x28(sp)
80004808: f05a         	sd	s6, 0x20(sp)
8000480a: ec5e         	sd	s7, 0x18(sp)
8000480c: e862         	sd	s8, 0x10(sp)
8000480e: e466         	sd	s9, 0x8(sp)
80004810: e06a         	sd	s10, 0x0(sp)
80004812: 1080         	addi	s0, sp, 0x60
80004814: 89b2         	mv	s3, a2
80004816: 01056483     	lwu	s1, 0x10(a0)
8000481a: 18000637     	lui	a2, 0x18000
8000481e: 8e65         	and	a2, a2, s1
80004820: 892e         	mv	s2, a1
80004822: ce45         	beqz	a2, 0x800048da <core::fmt::Formatter::pad::h239e525174ab4a17+0xe2>
80004824: 02349593     	slli	a1, s1, 0x23
80004828: 0405c863     	bltz	a1, 0x80004878 <core::fmt::Formatter::pad::h239e525174ab4a17+0x80>
8000482c: 02000593     	li	a1, 0x20
80004830: 0cb9f863     	bgeu	s3, a1, 0x80004900 <core::fmt::Formatter::pad::h239e525174ab4a17+0x108>
80004834: 4581         	li	a1, 0x0
80004836: 00098f63     	beqz	s3, 0x80004854 <core::fmt::Formatter::pad::h239e525174ab4a17+0x5c>
8000483a: 01390633     	add	a2, s2, s3
8000483e: 86ca         	mv	a3, s2
80004840: 00068703     	lb	a4, 0x0(a3)
80004844: 0685         	addi	a3, a3, 0x1
80004846: fc072713     	slti	a4, a4, -0x40
8000484a: 00174713     	xori	a4, a4, 0x1
8000484e: 95ba         	add	a1, a1, a4
80004850: fec698e3     	bne	a3, a2, 0x80004840 <core::fmt::Formatter::pad::h239e525174ab4a17+0x48>
80004854: 01455603     	lhu	a2, 0x14(a0)
80004858: 08c5f163     	bgeu	a1, a2, 0x800048da <core::fmt::Formatter::pad::h239e525174ab4a17+0xe2>
8000485c: 4b81         	li	s7, 0x0
8000485e: 40b60b33     	sub	s6, a2, a1
80004862: 02149613     	slli	a2, s1, 0x21
80004866: 9279         	srli	a2, a2, 0x3e
80004868: 4685         	li	a3, 0x1
8000486a: 02b49593     	slli	a1, s1, 0x2b
8000486e: 0ac6c763     	blt	a3, a2, 0x8000491c <core::fmt::Formatter::pad::h239e525174ab4a17+0x124>
80004872: ce45         	beqz	a2, 0x8000492a <core::fmt::Formatter::pad::h239e525174ab4a17+0x132>
80004874: 8bda         	mv	s7, s6
80004876: a855         	j	0x8000492a <core::fmt::Formatter::pad::h239e525174ab4a17+0x132>
80004878: 01655583     	lhu	a1, 0x16(a0)
8000487c: 10058563     	beqz	a1, 0x80004986 <core::fmt::Formatter::pad::h239e525174ab4a17+0x18e>
80004880: 013906b3     	add	a3, s2, s3
80004884: 0e000893     	li	a7, 0xe0
80004888: 0f000813     	li	a6, 0xf0
8000488c: 87ca         	mv	a5, s2
8000488e: 862e         	mv	a2, a1
80004890: 4981         	li	s3, 0x0
80004892: a811         	j	0x800048a6 <core::fmt::Formatter::pad::h239e525174ab4a17+0xae>
80004894: 00178713     	addi	a4, a5, 0x1
80004898: 413787b3     	sub	a5, a5, s3
8000489c: 167d         	addi	a2, a2, -0x1
8000489e: 40f709b3     	sub	s3, a4, a5
800048a2: 87ba         	mv	a5, a4
800048a4: c615         	beqz	a2, 0x800048d0 <core::fmt::Formatter::pad::h239e525174ab4a17+0xd8>
800048a6: 02d78563     	beq	a5, a3, 0x800048d0 <core::fmt::Formatter::pad::h239e525174ab4a17+0xd8>
800048aa: 00078703     	lb	a4, 0x0(a5)
800048ae: fe0753e3     	bgez	a4, 0x80004894 <core::fmt::Formatter::pad::h239e525174ab4a17+0x9c>
800048b2: 0ff77713     	zext.b	a4, a4
800048b6: 01176763     	bltu	a4, a7, 0x800048c4 <core::fmt::Formatter::pad::h239e525174ab4a17+0xcc>
800048ba: 01076863     	bltu	a4, a6, 0x800048ca <core::fmt::Formatter::pad::h239e525174ab4a17+0xd2>
800048be: 00478713     	addi	a4, a5, 0x4
800048c2: bfd9         	j	0x80004898 <core::fmt::Formatter::pad::h239e525174ab4a17+0xa0>
800048c4: 00278713     	addi	a4, a5, 0x2
800048c8: bfc1         	j	0x80004898 <core::fmt::Formatter::pad::h239e525174ab4a17+0xa0>
800048ca: 00378713     	addi	a4, a5, 0x3
800048ce: b7e9         	j	0x80004898 <core::fmt::Formatter::pad::h239e525174ab4a17+0xa0>
800048d0: 8d91         	sub	a1, a1, a2
800048d2: 01455603     	lhu	a2, 0x14(a0)
800048d6: f8c5e3e3     	bltu	a1, a2, 0x8000485c <core::fmt::Formatter::pad::h239e525174ab4a17+0x64>
800048da: 650c         	ld	a1, 0x8(a0)
800048dc: 6108         	ld	a0, 0x0(a0)
800048de: 6d9c         	ld	a5, 0x18(a1)
800048e0: 85ca         	mv	a1, s2
800048e2: 864e         	mv	a2, s3
800048e4: 60e6         	ld	ra, 0x58(sp)
800048e6: 6446         	ld	s0, 0x50(sp)
800048e8: 64a6         	ld	s1, 0x48(sp)
800048ea: 6906         	ld	s2, 0x40(sp)
800048ec: 79e2         	ld	s3, 0x38(sp)
800048ee: 7a42         	ld	s4, 0x30(sp)
800048f0: 7aa2         	ld	s5, 0x28(sp)
800048f2: 7b02         	ld	s6, 0x20(sp)
800048f4: 6be2         	ld	s7, 0x18(sp)
800048f6: 6c42         	ld	s8, 0x10(sp)
800048f8: 6ca2         	ld	s9, 0x8(sp)
800048fa: 6d02         	ld	s10, 0x0(sp)
800048fc: 6125         	addi	sp, sp, 0x60
800048fe: 8782         	jr	a5
80004900: 8a2a         	mv	s4, a0
80004902: 854a         	mv	a0, s2
80004904: 85ce         	mv	a1, s3
80004906: 00000097     	auipc	ra, 0x0
8000490a: 0b8080e7     	jalr	0xb8(ra) <core::str::count::do_count_chars::h6ce55074ab2fe9d1>
8000490e: 85aa         	mv	a1, a0
80004910: 8552         	mv	a0, s4
80004912: 014a5603     	lhu	a2, 0x14(s4)
80004916: fcc5f2e3     	bgeu	a1, a2, 0x800048da <core::fmt::Formatter::pad::h239e525174ab4a17+0xe2>
8000491a: b789         	j	0x8000485c <core::fmt::Formatter::pad::h239e525174ab4a17+0x64>
8000491c: 4689         	li	a3, 0x2
8000491e: 00d61663     	bne	a2, a3, 0x8000492a <core::fmt::Formatter::pad::h239e525174ab4a17+0x132>
80004922: 030b1613     	slli	a2, s6, 0x30
80004926: 03165b93     	srli	s7, a2, 0x31
8000492a: 4481         	li	s1, 0x0
8000492c: 02b5da13     	srli	s4, a1, 0x2b
80004930: 00053a83     	ld	s5, 0x0(a0)
80004934: 00853c03     	ld	s8, 0x8(a0)
80004938: 6cc1         	lui	s9, 0x10
8000493a: 1cfd         	addi	s9, s9, -0x1
8000493c: 019bfd33     	and	s10, s7, s9
80004940: 0194f533     	and	a0, s1, s9
80004944: 01a57a63     	bgeu	a0, s10, 0x80004958 <core::fmt::Formatter::pad::h239e525174ab4a17+0x160>
80004948: 020c3603     	ld	a2, 0x20(s8)
8000494c: 0485         	addi	s1, s1, 0x1
8000494e: 8556         	mv	a0, s5
80004950: 85d2         	mv	a1, s4
80004952: 9602         	jalr	a2
80004954: d575         	beqz	a0, 0x80004940 <core::fmt::Formatter::pad::h239e525174ab4a17+0x148>
80004956: a801         	j	0x80004966 <core::fmt::Formatter::pad::h239e525174ab4a17+0x16e>
80004958: 018c3683     	ld	a3, 0x18(s8)
8000495c: 8556         	mv	a0, s5
8000495e: 85ca         	mv	a1, s2
80004960: 864e         	mv	a2, s3
80004962: 9682         	jalr	a3
80004964: c905         	beqz	a0, 0x80004994 <core::fmt::Formatter::pad::h239e525174ab4a17+0x19c>
80004966: 4905         	li	s2, 0x1
80004968: 854a         	mv	a0, s2
8000496a: 60e6         	ld	ra, 0x58(sp)
8000496c: 6446         	ld	s0, 0x50(sp)
8000496e: 64a6         	ld	s1, 0x48(sp)
80004970: 6906         	ld	s2, 0x40(sp)
80004972: 79e2         	ld	s3, 0x38(sp)
80004974: 7a42         	ld	s4, 0x30(sp)
80004976: 7aa2         	ld	s5, 0x28(sp)
80004978: 7b02         	ld	s6, 0x20(sp)
8000497a: 6be2         	ld	s7, 0x18(sp)
8000497c: 6c42         	ld	s8, 0x10(sp)
8000497e: 6ca2         	ld	s9, 0x8(sp)
80004980: 6d02         	ld	s10, 0x0(sp)
80004982: 6125         	addi	sp, sp, 0x60
80004984: 8082         	ret
80004986: 4981         	li	s3, 0x0
80004988: 85ae         	mv	a1, a1
8000498a: 01455603     	lhu	a2, 0x14(a0)
8000498e: ecc5e7e3     	bltu	a1, a2, 0x8000485c <core::fmt::Formatter::pad::h239e525174ab4a17+0x64>
80004992: b7a1         	j	0x800048da <core::fmt::Formatter::pad::h239e525174ab4a17+0xe2>
80004994: 4481         	li	s1, 0x0
80004996: 417b0533     	sub	a0, s6, s7
8000499a: 69c1         	lui	s3, 0x10
8000499c: 19fd         	addi	s3, s3, -0x1
8000499e: 01357b33     	and	s6, a0, s3
800049a2: 0134f533     	and	a0, s1, s3
800049a6: 01653933     	sltu	s2, a0, s6
800049aa: fb657fe3     	bgeu	a0, s6, 0x80004968 <core::fmt::Formatter::pad::h239e525174ab4a17+0x170>
800049ae: 020c3603     	ld	a2, 0x20(s8)
800049b2: 0485         	addi	s1, s1, 0x1
800049b4: 8556         	mv	a0, s5
800049b6: 85d2         	mv	a1, s4
800049b8: 9602         	jalr	a2
800049ba: d565         	beqz	a0, 0x800049a2 <core::fmt::Formatter::pad::h239e525174ab4a17+0x1aa>
800049bc: b775         	j	0x80004968 <core::fmt::Formatter::pad::h239e525174ab4a17+0x170>

00000000800049be <core::str::count::do_count_chars::h6ce55074ab2fe9d1>:
800049be: 1141         	addi	sp, sp, -0x10
800049c0: e422         	sd	s0, 0x8(sp)
800049c2: 862a         	mv	a2, a0
800049c4: 00750693     	addi	a3, a0, 0x7
800049c8: 9ae1         	andi	a3, a3, -0x8
800049ca: 40a68333     	sub	t1, a3, a0
800049ce: 0265f263     	bgeu	a1, t1, 0x800049f2 <core::str::count::do_count_chars::h6ce55074ab2fe9d1+0x34>
800049d2: 4501         	li	a0, 0x0
800049d4: cd81         	beqz	a1, 0x800049ec <core::str::count::do_count_chars::h6ce55074ab2fe9d1+0x2e>
800049d6: 95b2         	add	a1, a1, a2
800049d8: 00060683     	lb	a3, 0x0(a2)
800049dc: 0605         	addi	a2, a2, 0x1
800049de: fc06a693     	slti	a3, a3, -0x40
800049e2: 0016c693     	xori	a3, a3, 0x1
800049e6: 9536         	add	a0, a0, a3
800049e8: feb618e3     	bne	a2, a1, 0x800049d8 <core::str::count::do_count_chars::h6ce55074ab2fe9d1+0x1a>
800049ec: 6422         	ld	s0, 0x8(sp)
800049ee: 0141         	addi	sp, sp, 0x10
800049f0: 8082         	ret
800049f2: 40658733     	sub	a4, a1, t1
800049f6: 00375393     	srli	t2, a4, 0x3
800049fa: fc038ce3     	beqz	t2, 0x800049d2 <core::str::count::do_count_chars::h6ce55074ab2fe9d1+0x14>
800049fe: 9332         	add	t1, t1, a2
80004a00: 00777813     	andi	a6, a4, 0x7
80004a04: 4501         	li	a0, 0x0
80004a06: 00c68c63     	beq	a3, a2, 0x80004a1e <core::str::count::do_count_chars::h6ce55074ab2fe9d1+0x60>
80004a0a: 00060583     	lb	a1, 0x0(a2)
80004a0e: 0605         	addi	a2, a2, 0x1
80004a10: fc05a593     	slti	a1, a1, -0x40
80004a14: 0015c593     	xori	a1, a1, 0x1
80004a18: 952e         	add	a0, a0, a1
80004a1a: fe6618e3     	bne	a2, t1, 0x80004a0a <core::str::count::do_count_chars::h6ce55074ab2fe9d1+0x4c>
80004a1e: 4581         	li	a1, 0x0
80004a20: 02080363     	beqz	a6, 0x80004a46 <core::str::count::do_count_chars::h6ce55074ab2fe9d1+0x88>
80004a24: 96c2         	add	a3, a3, a6
80004a26: 5645         	li	a2, -0xf
80004a28: 8205         	srli	a2, a2, 0x1
80004a2a: 8f71         	and	a4, a4, a2
80004a2c: 00e30633     	add	a2, t1, a4
80004a30: 96ba         	add	a3, a3, a4
80004a32: 00060703     	lb	a4, 0x0(a2)
80004a36: 0605         	addi	a2, a2, 0x1
80004a38: fc072713     	slti	a4, a4, -0x40
80004a3c: 00174713     	xori	a4, a4, 0x1
80004a40: 95ba         	add	a1, a1, a4
80004a42: fed618e3     	bne	a2, a3, 0x80004a32 <core::str::count::do_count_chars::h6ce55074ab2fe9d1+0x74>
80004a46: 01010637     	lui	a2, 0x1010
80004a4a: 00ff06b7     	lui	a3, 0xff0
80004a4e: 6741         	lui	a4, 0x10
80004a50: 10160613     	addi	a2, a2, 0x101
80004a54: 0ff68893     	addi	a7, a3, 0xff
80004a58: 00170813     	addi	a6, a4, 0x1
80004a5c: 02061713     	slli	a4, a2, 0x20
80004a60: 00e60f33     	add	t5, a2, a4
80004a64: 02089613     	slli	a2, a7, 0x20
80004a68: 98b2         	add	a7, a7, a2
80004a6a: 02081613     	slli	a2, a6, 0x20
80004a6e: 9832         	add	a6, a6, a2
80004a70: 952e         	add	a0, a0, a1
80004a72: a015         	j	0x80004a96 <core::str::count::do_count_chars::h6ce55074ab2fe9d1+0xd8>
80004a74: 9372         	add	t1, t1, t3
80004a76: 405383b3     	sub	t2, t2, t0
80004a7a: 0032f793     	andi	a5, t0, 0x3
80004a7e: 011ff5b3     	and	a1, t6, a7
80004a82: 008fd613     	srli	a2, t6, 0x8
80004a86: 01167633     	and	a2, a2, a7
80004a8a: 95b2         	add	a1, a1, a2
80004a8c: 030585b3     	mul	a1, a1, a6
80004a90: 91c1         	srli	a1, a1, 0x30
80004a92: 952e         	add	a0, a0, a1
80004a94: efad         	bnez	a5, 0x80004b0e <core::str::count::do_count_chars::h6ce55074ab2fe9d1+0x150>
80004a96: f4038be3     	beqz	t2, 0x800049ec <core::str::count::do_count_chars::h6ce55074ab2fe9d1+0x2e>
80004a9a: 8e1a         	mv	t3, t1
80004a9c: 0c000593     	li	a1, 0xc0
80004aa0: 829e         	mv	t0, t2
80004aa2: 00b3e463     	bltu	t2, a1, 0x80004aaa <core::str::count::do_count_chars::h6ce55074ab2fe9d1+0xec>
80004aa6: 0c000293     	li	t0, 0xc0
80004aaa: 00329313     	slli	t1, t0, 0x3
80004aae: 4f81         	li	t6, 0x0
80004ab0: 7e037793     	andi	a5, t1, 0x7e0
80004ab4: d3e1         	beqz	a5, 0x80004a74 <core::str::count::do_count_chars::h6ce55074ab2fe9d1+0xb6>
80004ab6: 00fe0eb3     	add	t4, t3, a5
80004aba: 85f2         	mv	a1, t3
80004abc: 6194         	ld	a3, 0x0(a1)
80004abe: 659c         	ld	a5, 0x8(a1)
80004ac0: 6998         	ld	a4, 0x10(a1)
80004ac2: 6d90         	ld	a2, 0x18(a1)
80004ac4: fff6c413     	not	s0, a3
80004ac8: 8299         	srli	a3, a3, 0x6
80004aca: 801d         	srli	s0, s0, 0x7
80004acc: 8ec1         	or	a3, a3, s0
80004ace: fff7c413     	not	s0, a5
80004ad2: 8399         	srli	a5, a5, 0x6
80004ad4: 801d         	srli	s0, s0, 0x7
80004ad6: 8fc1         	or	a5, a5, s0
80004ad8: fff74413     	not	s0, a4
80004adc: 8319         	srli	a4, a4, 0x6
80004ade: 801d         	srli	s0, s0, 0x7
80004ae0: 8f41         	or	a4, a4, s0
80004ae2: fff64413     	not	s0, a2
80004ae6: 8219         	srli	a2, a2, 0x6
80004ae8: 801d         	srli	s0, s0, 0x7
80004aea: 8e41         	or	a2, a2, s0
80004aec: 01e6f6b3     	and	a3, a3, t5
80004af0: 96fe         	add	a3, a3, t6
80004af2: 01e7f7b3     	and	a5, a5, t5
80004af6: 01e77733     	and	a4, a4, t5
80004afa: 01e67fb3     	and	t6, a2, t5
80004afe: 973e         	add	a4, a4, a5
80004b00: 96ba         	add	a3, a3, a4
80004b02: 02058593     	addi	a1, a1, 0x20
80004b06: 9fb6         	add	t6, t6, a3
80004b08: fbd59ae3     	bne	a1, t4, 0x80004abc <core::str::count::do_count_chars::h6ce55074ab2fe9d1+0xfe>
80004b0c: b7a5         	j	0x80004a74 <core::str::count::do_count_chars::h6ce55074ab2fe9d1+0xb6>
80004b0e: 4581         	li	a1, 0x0
80004b10: 0fc2f613     	andi	a2, t0, 0xfc
80004b14: 060e         	slli	a2, a2, 0x3
80004b16: 00ce06b3     	add	a3, t3, a2
80004b1a: 00379613     	slli	a2, a5, 0x3
80004b1e: 6298         	ld	a4, 0x0(a3)
80004b20: 06a1         	addi	a3, a3, 0x8
80004b22: fff74793     	not	a5, a4
80004b26: 8319         	srli	a4, a4, 0x6
80004b28: 839d         	srli	a5, a5, 0x7
80004b2a: 8f5d         	or	a4, a4, a5
80004b2c: 01e77733     	and	a4, a4, t5
80004b30: 1661         	addi	a2, a2, -0x8
80004b32: 95ba         	add	a1, a1, a4
80004b34: f66d         	bnez	a2, 0x80004b1e <core::str::count::do_count_chars::h6ce55074ab2fe9d1+0x160>
80004b36: 0115f633     	and	a2, a1, a7
80004b3a: 81a1         	srli	a1, a1, 0x8
80004b3c: 0115f5b3     	and	a1, a1, a7
80004b40: 95b2         	add	a1, a1, a2
80004b42: 030585b3     	mul	a1, a1, a6
80004b46: 91c1         	srli	a1, a1, 0x30
80004b48: 952e         	add	a0, a0, a1
80004b4a: 6422         	ld	s0, 0x8(sp)
80004b4c: 0141         	addi	sp, sp, 0x10
80004b4e: 8082         	ret

0000000080004b50 <core::panicking::panic_const::panic_const_div_by_zero::hcfde4c26e8ecfc4b>:
80004b50: 1141         	addi	sp, sp, -0x10
80004b52: e406         	sd	ra, 0x8(sp)
80004b54: e022         	sd	s0, 0x0(sp)
80004b56: 0800         	addi	s0, sp, 0x10
80004b58: 862a         	mv	a2, a0

0000000080004b5a <.Lpcrel_hi967>:
80004b5a: 00002517     	auipc	a0, 0x2
80004b5e: f5150513     	addi	a0, a0, -0xaf
80004b62: 03300593     	li	a1, 0x33
80004b66: 00000097     	auipc	ra, 0x0
80004b6a: 14c080e7     	jalr	0x14c(ra) <core::panicking::panic_fmt::h767dc8ac4dd44648>

0000000080004b6e <core::panicking::panic_const::panic_const_add_overflow::h67cba067093910f8>:
80004b6e: 1141         	addi	sp, sp, -0x10
80004b70: e406         	sd	ra, 0x8(sp)
80004b72: e022         	sd	s0, 0x0(sp)
80004b74: 0800         	addi	s0, sp, 0x10
80004b76: 862a         	mv	a2, a0

0000000080004b78 <.Lpcrel_hi970>:
80004b78: 00002517     	auipc	a0, 0x2
80004b7c: eb250513     	addi	a0, a0, -0x14e
80004b80: 03900593     	li	a1, 0x39
80004b84: 00000097     	auipc	ra, 0x0
80004b88: 12e080e7     	jalr	0x12e(ra) <core::panicking::panic_fmt::h767dc8ac4dd44648>

0000000080004b8c <core::panicking::panic_const::panic_const_mul_overflow::h67897feae7531d51>:
80004b8c: 1141         	addi	sp, sp, -0x10
80004b8e: e406         	sd	ra, 0x8(sp)
80004b90: e022         	sd	s0, 0x0(sp)
80004b92: 0800         	addi	s0, sp, 0x10
80004b94: 862a         	mv	a2, a0

0000000080004b96 <.Lpcrel_hi972>:
80004b96: 00002517     	auipc	a0, 0x2
80004b9a: eb050513     	addi	a0, a0, -0x150
80004b9e: 04300593     	li	a1, 0x43
80004ba2: 00000097     	auipc	ra, 0x0
80004ba6: 110080e7     	jalr	0x110(ra) <core::panicking::panic_fmt::h767dc8ac4dd44648>

0000000080004baa <core::panicking::panic_const::panic_const_shl_overflow::h801c58e583f44244>:
80004baa: 1141         	addi	sp, sp, -0x10
80004bac: e406         	sd	ra, 0x8(sp)
80004bae: e022         	sd	s0, 0x0(sp)
80004bb0: 0800         	addi	s0, sp, 0x10
80004bb2: 862a         	mv	a2, a0

0000000080004bb4 <.Lpcrel_hi975>:
80004bb4: 00002517     	auipc	a0, 0x2
80004bb8: eb350513     	addi	a0, a0, -0x14d
80004bbc: 04700593     	li	a1, 0x47
80004bc0: 00000097     	auipc	ra, 0x0
80004bc4: 0f2080e7     	jalr	0xf2(ra) <core::panicking::panic_fmt::h767dc8ac4dd44648>

0000000080004bc8 <core::panicking::panic_const::panic_const_sub_overflow::hccc965ba9198de7c>:
80004bc8: 1141         	addi	sp, sp, -0x10
80004bca: e406         	sd	ra, 0x8(sp)
80004bcc: e022         	sd	s0, 0x0(sp)
80004bce: 0800         	addi	s0, sp, 0x10
80004bd0: 862a         	mv	a2, a0

0000000080004bd2 <.Lpcrel_hi977>:
80004bd2: 00002517     	auipc	a0, 0x2
80004bd6: eb850513     	addi	a0, a0, -0x148
80004bda: 04300593     	li	a1, 0x43
80004bde: 00000097     	auipc	ra, 0x0
80004be2: 0d4080e7     	jalr	0xd4(ra) <core::panicking::panic_fmt::h767dc8ac4dd44648>

0000000080004be6 <core::panicking::panic_bounds_check::h6aaee0d15e0261eb>:
80004be6: 7139         	addi	sp, sp, -0x40
80004be8: fc06         	sd	ra, 0x38(sp)
80004bea: f822         	sd	s0, 0x30(sp)
80004bec: 0080         	addi	s0, sp, 0x40
80004bee: f0040713     	addi	a4, s0, -0x100
80004bf2: e368         	sd	a0, 0xc0(a4)
80004bf4: e76c         	sd	a1, 0xc8(a4)
80004bf6: fc840513     	addi	a0, s0, -0x38

0000000080004bfa <.Lpcrel_hi997>:
80004bfa: fffff597     	auipc	a1, 0xfffff
80004bfe: fc040693     	addi	a3, s0, -0x40
80004c02: 67c58593     	addi	a1, a1, 0x67c
80004c06: eb68         	sd	a0, 0xd0(a4)
80004c08: ef6c         	sd	a1, 0xd8(a4)
80004c0a: f374         	sd	a3, 0xe0(a4)
80004c0c: f76c         	sd	a1, 0xe8(a4)

0000000080004c0e <.Lpcrel_hi998>:
80004c0e: 00000517     	auipc	a0, 0x0
80004c12: 4b650513     	addi	a0, a0, 0x4b6
80004c16: fd040593     	addi	a1, s0, -0x30
80004c1a: 00000097     	auipc	ra, 0x0
80004c1e: 098080e7     	jalr	0x98(ra) <core::panicking::panic_fmt::h767dc8ac4dd44648>

0000000080004c22 <core::panicking::panic_nounwind_fmt::h2e018e50a8d3bc73>:
80004c22: 7139         	addi	sp, sp, -0x40
80004c24: fc06         	sd	ra, 0x38(sp)
80004c26: f822         	sd	s0, 0x30(sp)
80004c28: 0080         	addi	s0, sp, 0x40
80004c2a: fca43423     	sd	a0, -0x38(s0)
80004c2e: fcb43823     	sd	a1, -0x30(s0)
80004c32: fc840513     	addi	a0, s0, -0x38
80004c36: fca43c23     	sd	a0, -0x28(s0)
80004c3a: fed43023     	sd	a3, -0x20(s0)
80004c3e: fe040423     	sb	zero, -0x18(s0)
80004c42: fec404a3     	sb	a2, -0x17(s0)
80004c46: fd840513     	addi	a0, s0, -0x28
80004c4a: ffffb097     	auipc	ra, 0xffffb
80004c4e: 552080e7     	jalr	0x552(ra) <__rustc::rust_begin_unwind>

0000000080004c52 <core::panicking::panic_null_pointer_dereference::hbac6411af4f2e916>:
80004c52: 1141         	addi	sp, sp, -0x10
80004c54: e406         	sd	ra, 0x8(sp)
80004c56: e022         	sd	s0, 0x0(sp)
80004c58: 0800         	addi	s0, sp, 0x10
80004c5a: 86aa         	mv	a3, a0

0000000080004c5c <.Lpcrel_hi1010>:
80004c5c: 00002517     	auipc	a0, 0x2
80004c60: e6850513     	addi	a0, a0, -0x198
80004c64: 04300593     	li	a1, 0x43
80004c68: 4601         	li	a2, 0x0
80004c6a: 00000097     	auipc	ra, 0x0
80004c6e: fb8080e7     	jalr	-0x48(ra) <core::panicking::panic_nounwind_fmt::h2e018e50a8d3bc73>

0000000080004c72 <core::panicking::panic_misaligned_pointer_dereference::hda85f7fb51d959f0>:
80004c72: 7139         	addi	sp, sp, -0x40
80004c74: fc06         	sd	ra, 0x38(sp)
80004c76: f822         	sd	s0, 0x30(sp)
80004c78: 0080         	addi	s0, sp, 0x40
80004c7a: 86b2         	mv	a3, a2
80004c7c: f0040713     	addi	a4, s0, -0x100
80004c80: e368         	sd	a0, 0xc0(a4)
80004c82: e76c         	sd	a1, 0xc8(a4)
80004c84: fc040513     	addi	a0, s0, -0x40

0000000080004c88 <.Lpcrel_hi1013>:
80004c88: fffff597     	auipc	a1, 0xfffff
80004c8c: fc840613     	addi	a2, s0, -0x38
80004c90: 63a58593     	addi	a1, a1, 0x63a
80004c94: eb68         	sd	a0, 0xd0(a4)
80004c96: ef6c         	sd	a1, 0xd8(a4)
80004c98: f370         	sd	a2, 0xe0(a4)
80004c9a: f76c         	sd	a1, 0xe8(a4)

0000000080004c9c <.Lpcrel_hi1014>:
80004c9c: 00002517     	auipc	a0, 0x2
80004ca0: e4950513     	addi	a0, a0, -0x1b7
80004ca4: fd040593     	addi	a1, s0, -0x30
80004ca8: 4601         	li	a2, 0x0
80004caa: 00000097     	auipc	ra, 0x0
80004cae: f78080e7     	jalr	-0x88(ra) <core::panicking::panic_nounwind_fmt::h2e018e50a8d3bc73>

0000000080004cb2 <core::panicking::panic_fmt::h767dc8ac4dd44648>:
80004cb2: 7139         	addi	sp, sp, -0x40
80004cb4: fc06         	sd	ra, 0x38(sp)
80004cb6: f822         	sd	s0, 0x30(sp)
80004cb8: 0080         	addi	s0, sp, 0x40
80004cba: fca43423     	sd	a0, -0x38(s0)
80004cbe: fcb43823     	sd	a1, -0x30(s0)
80004cc2: fc840513     	addi	a0, s0, -0x38
80004cc6: 4585         	li	a1, 0x1
80004cc8: fca43c23     	sd	a0, -0x28(s0)
80004ccc: fec43023     	sd	a2, -0x20(s0)
80004cd0: feb41423     	sh	a1, -0x18(s0)
80004cd4: fd840513     	addi	a0, s0, -0x28
80004cd8: ffffb097     	auipc	ra, 0xffffb
80004cdc: 4c4080e7     	jalr	0x4c4(ra) <__rustc::rust_begin_unwind>

0000000080004ce0 <_$LT$core..panic..panic_info..PanicInfo$u20$as$u20$core..fmt..Display$GT$::fmt::hcccb3fed5b673506>:
80004ce0: 7119         	addi	sp, sp, -0x80
80004ce2: fc86         	sd	ra, 0x78(sp)
80004ce4: f8a2         	sd	s0, 0x70(sp)
80004ce6: f4a6         	sd	s1, 0x68(sp)
80004ce8: f0ca         	sd	s2, 0x60(sp)
80004cea: ecce         	sd	s3, 0x58(sp)
80004cec: e8d2         	sd	s4, 0x50(sp)
80004cee: e4d6         	sd	s5, 0x48(sp)
80004cf0: 0100         	addi	s0, sp, 0x80
80004cf2: 0085b903     	ld	s2, 0x8(a1)
80004cf6: 6184         	ld	s1, 0x0(a1)
80004cf8: 01893a83     	ld	s5, 0x18(s2)
80004cfc: 89aa         	mv	s3, a0

0000000080004cfe <.Lpcrel_hi1258>:
80004cfe: 00002517     	auipc	a0, 0x2
80004d02: e3a50593     	addi	a1, a0, -0x1c6
80004d06: 4631         	li	a2, 0xc
80004d08: 8526         	mv	a0, s1
80004d0a: 9a82         	jalr	s5
80004d0c: 4a05         	li	s4, 0x1
80004d0e: e151         	bnez	a0, 0x80004d92 <.Lpcrel_hi1262+0x26>
80004d10: 0089b503     	ld	a0, 0x8(s3)
80004d14: f8840813     	addi	a6, s0, -0x78

0000000080004d18 <.Lpcrel_hi1259>:
80004d18: fffff617     	auipc	a2, 0xfffff

0000000080004d1c <.Lpcrel_hi1260>:
80004d1c: fffff697     	auipc	a3, 0xfffff
80004d20: 0f260613     	addi	a2, a2, 0xf2
80004d24: 50e68693     	addi	a3, a3, 0x50e
80004d28: 6118         	ld	a4, 0x0(a0)
80004d2a: 651c         	ld	a5, 0x8(a0)
80004d2c: 01050593     	addi	a1, a0, 0x10
80004d30: 0551         	addi	a0, a0, 0x14
80004d32: f9043c23     	sd	a6, -0x68(s0)
80004d36: fac43023     	sd	a2, -0x60(s0)
80004d3a: fab43423     	sd	a1, -0x58(s0)
80004d3e: fad43823     	sd	a3, -0x50(s0)
80004d42: f8e43423     	sd	a4, -0x78(s0)
80004d46: f8f43823     	sd	a5, -0x70(s0)
80004d4a: faa43c23     	sd	a0, -0x48(s0)
80004d4e: fcd43023     	sd	a3, -0x40(s0)

0000000080004d52 <.Lpcrel_hi1261>:
80004d52: 00000517     	auipc	a0, 0x0
80004d56: 62e50613     	addi	a2, a0, 0x62e
80004d5a: f9840693     	addi	a3, s0, -0x68
80004d5e: 8526         	mv	a0, s1
80004d60: 85ca         	mv	a1, s2
80004d62: fffff097     	auipc	ra, 0xfffff
80004d66: 614080e7     	jalr	0x614(ra) <core::fmt::write::hfd17e9e8e823b619>
80004d6a: e505         	bnez	a0, 0x80004d92 <.Lpcrel_hi1262+0x26>

0000000080004d6c <.Lpcrel_hi1262>:
80004d6c: 00002517     	auipc	a0, 0x2
80004d70: dd850593     	addi	a1, a0, -0x228
80004d74: 4609         	li	a2, 0x2
80004d76: 8526         	mv	a0, s1
80004d78: 9a82         	jalr	s5
80004d7a: ed01         	bnez	a0, 0x80004d92 <.Lpcrel_hi1262+0x26>
80004d7c: 0009b503     	ld	a0, 0x0(s3)
80004d80: 6110         	ld	a2, 0x0(a0)
80004d82: 6514         	ld	a3, 0x8(a0)
80004d84: 8526         	mv	a0, s1
80004d86: 85ca         	mv	a1, s2
80004d88: fffff097     	auipc	ra, 0xfffff
80004d8c: 5ee080e7     	jalr	0x5ee(ra) <core::fmt::write::hfd17e9e8e823b619>
80004d90: 8a2a         	mv	s4, a0
80004d92: 8552         	mv	a0, s4
80004d94: 70e6         	ld	ra, 0x78(sp)
80004d96: 7446         	ld	s0, 0x70(sp)
80004d98: 74a6         	ld	s1, 0x68(sp)
80004d9a: 7906         	ld	s2, 0x60(sp)
80004d9c: 69e6         	ld	s3, 0x58(sp)
80004d9e: 6a46         	ld	s4, 0x50(sp)
80004da0: 6aa6         	ld	s5, 0x48(sp)
80004da2: 6109         	addi	sp, sp, 0x80
80004da4: 8082         	ret

0000000080004da6 <memset>:
80004da6: 46c1         	li	a3, 0x10
80004da8: 06d66463     	bltu	a2, a3, 0x80004e10 <memset+0x6a>
80004dac: 40a006bb     	negw	a3, a0
80004db0: 0076f813     	andi	a6, a3, 0x7
80004db4: 01050733     	add	a4, a0, a6
80004db8: 00e57963     	bgeu	a0, a4, 0x80004dca <memset+0x24>
80004dbc: 87c2         	mv	a5, a6
80004dbe: 86aa         	mv	a3, a0
80004dc0: 00b68023     	sb	a1, 0x0(a3)
80004dc4: 17fd         	addi	a5, a5, -0x1
80004dc6: 0685         	addi	a3, a3, 0x1
80004dc8: ffe5         	bnez	a5, 0x80004dc0 <memset+0x1a>
80004dca: 41060633     	sub	a2, a2, a6
80004dce: ff867693     	andi	a3, a2, -0x8
80004dd2: 96ba         	add	a3, a3, a4
80004dd4: 02d77363     	bgeu	a4, a3, 0x80004dfa <memset+0x54>
80004dd8: 03859813     	slli	a6, a1, 0x38
80004ddc: 101017b7     	lui	a5, 0x10101
80004de0: 0792         	slli	a5, a5, 0x4
80004de2: 10078793     	addi	a5, a5, 0x100
80004de6: 02f83833     	mulhu	a6, a6, a5
80004dea: 02081793     	slli	a5, a6, 0x20
80004dee: 0107e7b3     	or	a5, a5, a6
80004df2: e31c         	sd	a5, 0x0(a4)
80004df4: 0721         	addi	a4, a4, 0x8
80004df6: fed76ee3     	bltu	a4, a3, 0x80004df2 <memset+0x4c>
80004dfa: 8a1d         	andi	a2, a2, 0x7
80004dfc: 00c68733     	add	a4, a3, a2
80004e00: 00e6f763     	bgeu	a3, a4, 0x80004e0e <memset+0x68>
80004e04: 00b68023     	sb	a1, 0x0(a3)
80004e08: 167d         	addi	a2, a2, -0x1
80004e0a: 0685         	addi	a3, a3, 0x1
80004e0c: fe65         	bnez	a2, 0x80004e04 <memset+0x5e>
80004e0e: 8082         	ret
80004e10: 86aa         	mv	a3, a0
80004e12: 00c50733     	add	a4, a0, a2
80004e16: fee567e3     	bltu	a0, a4, 0x80004e04 <memset+0x5e>
80004e1a: bfd5         	j	0x80004e0e <memset+0x68>
80004e1c: 0000         	unimp
80004e1e: 0000         	unimp
80004e20: 2000         	fld	fs0, 0x0(s0)
80004e22: 0000         	unimp
80004e24: 0000         	unimp
80004e26: 0000         	unimp
80004e28: 4000         	lw	s0, 0x0(s0)
80004e2a: 0000         	unimp
80004e2c: 0000         	unimp
80004e2e: 0000         	unimp
80004e30: 09c4         	addi	s1, sp, 0xd4
80004e32: 0000         	unimp
80004e34: 0000         	unimp
80004e36: 0000         	unimp
80004e38: 7f2d         	lui	t5, 0xfffeb
80004e3a: 4c95         	li	s9, 0x5
80004e3c: f42d         	bnez	s0, 0x80004da6 <memset>
80004e3e: 5851         	li	a6, -0xc
80004e40: 3886594b     	<unknown>
80004e44: c5d6         	sw	s5, 0xc8(sp)
80004e46: 346d         	addiw	s0, s0, -0x5
80004e48: e353f7cf     	fnmadd.d	fa5, ft7, fs5, ft8
80004e4c: 9ba5         	andi	a5, a5, -0x17
80004e4e: 20c4         	fld	fs1, 0x80(s1)
80004e50: 7c15         	lui	s8, 0xfffe5
80004e52: 7f4a         	ld	t5, 0xb0(sp)
80004e54: 79b9         	lui	s3, 0xfffee
80004e56: aaab9e37     	lui	t3, 0xaaab9
80004e5a: aaaa         	fsd	fa0, 0x150(sp)
80004e5c: aaaa         	fsd	fa0, 0x150(sp)
80004e5e: 2aaa         	fld	fs5, 0x88(sp)
80004e60: 1194         	addi	a3, sp, 0xe0
80004e62: 0000         	unimp
80004e64: 0000         	unimp
80004e66: 0000         	unimp
80004e68: 000a         	c.slli	zero, 0x2
80004e6a: 0000         	unimp
80004e6c: 0000         	unimp
80004e6e: 0000         	unimp
80004e70: 0004         	<unknown>
80004e72: 0000         	unimp
80004e74: 0000         	unimp
80004e76: 0000         	unimp
80004e78: def0         	sw	a2, 0x7c(a3)
80004e7a: 9abc         	<unknown>
80004e7c: 5678         	lw	a4, 0x6c(a2)
80004e7e: 1234         	addi	a3, sp, 0x128
80004e80: 2f637273     	csrrci	tp, 0x2f6, 0x6
80004e84: 616d         	addi	sp, sp, 0xf0
80004e86: 6e69         	lui	t3, 0x1a
80004e88: 722e         	ld	tp, 0xe8(sp)
80004e8a: 722f0073     	<unknown>
80004e8e: 7375         	lui	t1, 0xffffd
80004e90: 6374         	ld	a3, 0xc0(a4)
80004e92: 3034652f     	<unknown>
80004e96: 3938         	fld	fa4, 0x70(a0)
80004e98: 3734         	fld	fa3, 0x68(a4)
80004e9a: 6662         	ld	a2, 0x18(sp)
80004e9c: 3264         	fld	fs1, 0xe0(a2)
80004e9e: 3030         	fld	fa2, 0x60(s0)
80004ea0: 6661         	lui	a2, 0x18
80004ea2: 3234         	fld	fa3, 0x60(a2)
80004ea4: 6264         	ld	s1, 0xc0(a2)
80004ea6: 64323233     	<unknown>
80004eaa: 6661         	lui	a2, 0x18
80004eac: 6630         	ld	a2, 0x48(a2)
80004eae: 6461         	lui	s0, 0x18
80004eb0: 6566         	ld	a0, 0x58(sp)
80004eb2: 36326537     	lui	a0, 0x36326
80004eb6: 3364         	fld	fs1, 0xe0(a4)
80004eb8: 6462         	ld	s0, 0x18(sp)
80004eba: 2f31         	addiw	t5, t5, 0xc
80004ebc: 696c         	ld	a1, 0xd0(a0)
80004ebe: 7262         	ld	tp, 0x38(sp)
80004ec0: 7261         	lui	tp, 0xffff8
80004ec2: 2f79         	addiw	t5, t5, 0x1e
80004ec4: 65726f63     	bltu	tp, s7, 0x80005522 <.Lanon.e48d8eb57257041136080bedefd66852.12+0x2>
80004ec8: 6372732f     	<unknown>
80004ecc: 7274702f     	<unknown>
80004ed0: 646f6d2f     	<unknown>
80004ed4: 722e         	ld	tp, 0xe8(sp)
80004ed6: 5b230073     	<unknown>
80004eda: 6e72656b     	<unknown>
80004ede: 6c65         	lui	s8, 0x19
80004ee0: 205d         	<unknown>
80004ee2: 72616873     	csrrsi	a6, 0x726, 0x2
80004ee6: 6465         	lui	s0, 0x19
80004ee8: 6c5f 636f 3a6b       	<unknown>
80004eee: 6120         	ld	s0, 0x40(a0)
80004ef0: 69757163     	bgeu	a0, s7, 0x80005572 <.Lanon.e48d8eb57257041136080bedefd66852.15+0xa>
80004ef4: 69746973     	csrrsi	s2, 0x697, 0x8
80004ef8: 3d736e6f     	jal	t3, 0x8003bace <__interrupt_stack_top+0x1cdde>
80004efc: 12c0         	addi	s0, sp, 0x164
80004efe: 6320         	ld	s0, 0x40(a4)
80004f00: 65746e6f     	jal	t3, 0x8004bd56 <__interrupt_stack_top+0x2d066>
80004f04: 746e         	ld	s0, 0xf8(sp)
80004f06: 6f69         	lui	t5, 0x1a
80004f08: 5f6e         	lw	t5, 0xf8(sp)
80004f0a: 6e697073     	csrci	0x6e6, 0x12
80004f0e: 17c03d73     	csrrc	s10, 0x17c, zero
80004f12: 6c20         	ld	s0, 0x58(s0)
80004f14: 5f6b636f     	jal	t1, 0x800bb50a <__interrupt_stack_top+0x9c81a>
80004f18: 74617473     	csrrci	s0, 0x746, 0x2
80004f1c: 5f65         	li	t5, -0x7
80004f1e: 6976         	ld	s2, 0x158(sp)
80004f20: 74616c6f     	jal	s8, 0x8001b666 <__interrupt_stack_bottom+0x4976>
80004f24: 6f69         	lui	t5, 0x1a
80004f26: 736e         	ld	t1, 0xf8(sp)
80004f28: c03d         	beqz	s0, 0x80004f8e <memset+0x1e8>
80004f2a: 0a01         	c.addi	s4, 0x0
80004f2c: 7300         	ld	s0, 0x20(a4)
80004f2e: 6372         	ld	t1, 0x118(sp)
80004f30: 6970732f     	<unknown>
80004f34: 6c6e         	ld	s8, 0xd8(sp)
80004f36: 2e6b636f     	jal	t1, 0x800bb21c <__interrupt_stack_top+0x9c52c>
80004f3a: 7372         	ld	t1, 0x138(sp)
80004f3c: 2f00         	fld	fs0, 0x18(a4)
80004f3e: 7572         	ld	a0, 0x138(sp)
80004f40: 2f637473     	csrrci	s0, 0x2f6, 0x6
80004f44: 3465         	addiw	s0, s0, -0x7
80004f46: 3830         	fld	fa2, 0x70(s0)
80004f48: 3439         	addiw	s0, s0, -0x12
80004f4a: 64666237     	lui	tp, 0x64666
80004f4e: 3032         	fld	ft0, 0x128(sp)
80004f50: 6130         	ld	a2, 0x40(a0)
80004f52: 3466         	fld	fs0, 0x78(sp)
80004f54: 6432         	ld	s0, 0x108(sp)
80004f56: 3362         	fld	ft6, 0x38(sp)
80004f58: 3232         	fld	ft4, 0x128(sp)
80004f5a: 6164         	ld	s1, 0xc0(a0)
80004f5c: 3066         	fld	ft0, 0x78(sp)
80004f5e: 6166         	ld	sp, 0x58(sp)
80004f60: 6664         	ld	s1, 0xc8(a2)
80004f62: 3765         	addiw	a4, a4, -0x7
80004f64: 3265         	addiw	tp, tp, -0x7
80004f66: 6436         	ld	s0, 0x148(sp)
80004f68: 31646233     	<unknown>
80004f6c: 62696c2f     	<unknown>
80004f70: 6172         	ld	sp, 0x118(sp)
80004f72: 7972         	ld	s2, 0x138(sp)
80004f74: 726f632f     	<unknown>
80004f78: 2f65         	addiw	t5, t5, 0x19
80004f7a: 2f637273     	csrrci	tp, 0x2f6, 0x6
80004f7e: 72616863     	bltu	sp, t1, 0x800056ae <.Lanon.e48d8eb57257041136080bedefd66852.28+0x3e>
80004f82: 74656d2f     	<unknown>
80004f86: 6f68         	ld	a0, 0xd8(a4)
80004f88: 7364         	ld	s1, 0xe0(a4)
80004f8a: 722e         	ld	tp, 0xe8(sp)
80004f8c: 5b1c0073     	<unknown>
80004f90: 6e72656b     	<unknown>
80004f94: 6c65         	lui	s8, 0x19
80004f96: 205d         	<unknown>
80004f98: 6e65         	lui	t3, 0x19
80004f9a: 6976         	ld	s2, 0x158(sp)
80004f9c: 6f72         	ld	t5, 0x118(sp)
80004f9e: 6d6e         	ld	s10, 0xd8(sp)
80004fa0: 6e65         	lui	t3, 0x19
80004fa2: 3a74         	fld	fa3, 0xf0(a2)
80004fa4: 6820         	ld	s0, 0x50(s0)
80004fa6: 7261         	lui	tp, 0xffff8
80004fa8: 7374         	ld	a3, 0xe0(a4)
80004faa: c03d         	beqz	s0, 0x80005010 <memset+0x26a>
80004fac: 2015         	<unknown>
80004fae: 6f62         	ld	t5, 0x18(sp)
80004fb0: 735f746f     	jal	s0, 0x800fcee4 <__interrupt_stack_top+0xde1f4>
80004fb4: 6174         	ld	a3, 0xc0(a0)
80004fb6: 705f6b63     	bltu	t5, t0, 0x800056cc <.Lanon.e48d8eb57257041136080bedefd66852.28+0x5c>
80004fba: 7265         	lui	tp, 0xffff9
80004fbc: 685f 7261 3d74       	<unknown>
80004fc2: 1ac0         	addi	s0, sp, 0x174
80004fc4: 6920         	ld	s0, 0x50(a0)
80004fc6: 746e         	ld	s0, 0xf8(sp)
80004fc8: 7265         	lui	tp, 0xffff9
80004fca: 7572         	ld	a0, 0x138(sp)
80004fcc: 7470         	ld	a2, 0xe8(s0)
80004fce: 735f 6174 6b63       	<unknown>
80004fd4: 705f 7265 685f       	<unknown>
80004fda: 7261         	lui	tp, 0xffff8
80004fdc: 3d74         	fld	fa3, 0xf8(a0)
80004fde: 01c0         	addi	s0, sp, 0xc4
80004fe0: 000a         	c.slli	zero, 0x2
80004fe2: 5b52         	lw	s6, 0x34(sp)
80004fe4: 6e72656b     	<unknown>
80004fe8: 6c65         	lui	s8, 0x19
80004fea: 205d         	<unknown>
80004fec: 6361         	lui	t1, 0x18
80004fee: 74706563     	bltu	zero, t2, 0x80005738 <.Lanon.e48d8eb57257041136080bedefd66852.35>
80004ff2: 6e61         	lui	t3, 0x18
80004ff4: 69206563     	bltu	zero, s2, 0x8000567e <.Lanon.e48d8eb57257041136080bedefd66852.28+0xe>
80004ff8: 746e         	ld	s0, 0xf8(sp)
80004ffa: 7265         	lui	tp, 0xffff9
80004ffc: 7572         	ld	a0, 0x138(sp)
80004ffe: 7470         	ld	a2, 0xe8(s0)
80005000: 6820         	ld	s0, 0x50(s0)
80005002: 6e61         	lui	t3, 0x18
80005004: 6c64         	ld	s1, 0xd8(s0)
80005006: 7265         	lui	tp, 0xffff9
80005008: 72702073     	csrr	zero, 0x727
8000500c: 7365         	lui	t1, 0xffff9
8000500e: 7265         	lui	tp, 0xffff9
80005010: 6576         	ld	a0, 0x158(sp)
80005012: 2064         	fld	fs1, 0xc0(s0)
80005014: 6564         	ld	s1, 0xc8(a0)
80005016: 6964         	ld	s1, 0xd0(a0)
80005018: 65746163     	bltu	s0, s7, 0x8000565a <.Lanon.e48d8eb57257041136080bedefd66852.27+0x2>
8000501c: 2064         	fld	fs1, 0xc0(s0)
8000501e: 63617473     	csrrci	s0, 0x636, 0x2
80005022: 6120736b     	<unknown>
80005026: 646e         	ld	s0, 0xd8(sp)
80005028: 6c20         	ld	s0, 0x58(s0)
8000502a: 206b636f     	jal	t1, 0x800bb230 <__interrupt_stack_top+0x9c540>
8000502e: 74617473     	csrrci	s0, 0x746, 0x2
80005032: 3a65         	addiw	s4, s4, -0x7
80005034: c020         	sw	s0, 0x40(s0)
80005036: 0a01         	c.addi	s4, 0x0
80005038: 1800         	addi	s0, sp, 0x30
8000503a: 72656b5b     	<unknown>
8000503e: 656e         	ld	a0, 0xd8(sp)
80005040: 5d6c         	lw	a1, 0x7c(a0)
80005042: 7420         	ld	s0, 0x68(s0)
80005044: 6d69         	lui	s10, 0x1a
80005046: 7265         	lui	tp, 0xffff9
80005048: 6920         	ld	s0, 0x50(a0)
8000504a: 746e         	ld	s0, 0xf8(sp)
8000504c: 7265         	lui	tp, 0xffff9
8000504e: 6176         	ld	sp, 0x158(sp)
80005050: 3d6c         	fld	fa1, 0xf8(a0)
80005052: 08c0         	addi	s0, sp, 0x54
80005054: 7420         	ld	s0, 0x68(s0)
80005056: 6369         	lui	t1, 0x1a
80005058: 2820736b     	<unknown>
8000505c: 14c0         	addi	s0, sp, 0x264
8000505e: 7520         	ld	s0, 0x68(a0)
80005060: 202c2973     	csrrs	s2, 0x202, s8
80005064: 74697263     	bgeu	s2, t1, 0x800057a8 <.Lanon.e48d8eb57257041136080bedefd66852.39+0x10>
80005068: 6369         	lui	t1, 0x1a
8000506a: 6c61         	lui	s8, 0x18
8000506c: 685f 6c6f 3d64       	<unknown>
80005072: 08c0         	addi	s0, sp, 0x54
80005074: 7420         	ld	s0, 0x68(s0)
80005076: 6369         	lui	t1, 0x1a
80005078: 2820736b     	<unknown>
8000507c: 21c0         	fld	fs0, 0x80(a1)
8000507e: 7520         	ld	s0, 0x68(a0)
80005080: 202c2973     	csrrs	s2, 0x202, s8
80005084: 6174         	ld	a3, 0xc0(a0)
80005086: 6772         	ld	a4, 0x118(sp)
80005088: 7465         	lui	s0, 0xffff9
8000508a: 745f 6d69 7265       	<unknown>
80005090: 695f 7172 5f73       	<unknown>
80005096: 6570         	ld	a2, 0xc8(a0)
80005098: 5f72         	lw	t5, 0x3c(sp)
8000509a: 6168         	ld	a0, 0xc0(a0)
8000509c: 7472         	ld	s0, 0x138(sp)
8000509e: c03d         	beqz	s0, 0x80005104 <memset+0x35e>
800050a0: 2c1f 7420 7261       	<unknown>
800050a6: 5f746567     	<unknown>
800050aa: 7069         	c.lui	zero, 0xffffa
800050ac: 5f69         	li	t5, -0x6
800050ae: 6572         	ld	a0, 0x118(sp)
800050b0: 76696563     	bltu	s2, t1, 0x8000581a <.Lanon.e48d8eb57257041136080bedefd66852.42+0x3a>
800050b4: 7365         	lui	t1, 0xffff9
800050b6: 705f 7265 685f       	<unknown>
800050bc: 7261         	lui	tp, 0xffff8
800050be: 3d74         	fld	fa3, 0xf8(a0)
800050c0: 01c0         	addi	s0, sp, 0xc4
800050c2: 000a         	c.slli	zero, 0x2
800050c4: 6920         	ld	s0, 0x50(a0)
800050c6: 646e         	ld	s0, 0xd8(sp)
800050c8: 7865         	lui	a6, 0xffff9
800050ca: 6f20         	ld	s0, 0x58(a4)
800050cc: 7475         	lui	s0, 0xffffd
800050ce: 6f20         	ld	s0, 0x58(a4)
800050d0: 2066         	fld	ft0, 0x58(sp)
800050d2: 6f62         	ld	t5, 0x18(sp)
800050d4: 6e75         	lui	t3, 0x1d
800050d6: 7364         	ld	s1, 0xe0(a4)
800050d8: 203a         	fld	ft0, 0x188(sp)
800050da: 6874         	ld	a3, 0xd0(s0)
800050dc: 2065         	<unknown>
800050de: 656c         	ld	a1, 0xc8(a0)
800050e0: 206e         	fld	ft0, 0xd8(sp)
800050e2: 7369         	lui	t1, 0xffffa
800050e4: c020         	sw	s0, 0x40(s0)
800050e6: 2012         	fld	ft0, 0x100(sp)
800050e8: 7562         	ld	a0, 0x38(sp)
800050ea: 2074         	fld	fa3, 0xc0(s0)
800050ec: 6874         	ld	a3, 0xd0(s0)
800050ee: 2065         	<unknown>
800050f0: 6e69         	lui	t3, 0x1a
800050f2: 6564         	ld	s1, 0xc8(a0)
800050f4: 2078         	fld	fa4, 0xc0(s0)
800050f6: 7369         	lui	t1, 0xffffa
800050f8: c020         	sw	s0, 0x40(s0)
800050fa: 2f00         	fld	fs0, 0x18(a4)
800050fc: 7572         	ld	a0, 0x138(sp)
800050fe: 2f637473     	csrrci	s0, 0x2f6, 0x6
80005102: 3465         	addiw	s0, s0, -0x7
80005104: 3830         	fld	fa2, 0x70(s0)
80005106: 3439         	addiw	s0, s0, -0x12
80005108: 64666237     	lui	tp, 0x64666
8000510c: 3032         	fld	ft0, 0x128(sp)
8000510e: 6130         	ld	a2, 0x40(a0)
80005110: 3466         	fld	fs0, 0x78(sp)
80005112: 6432         	ld	s0, 0x108(sp)
80005114: 3362         	fld	ft6, 0x38(sp)
80005116: 3232         	fld	ft4, 0x128(sp)
80005118: 6164         	ld	s1, 0xc0(a0)
8000511a: 3066         	fld	ft0, 0x78(sp)
8000511c: 6166         	ld	sp, 0x58(sp)
8000511e: 6664         	ld	s1, 0xc8(a2)
80005120: 3765         	addiw	a4, a4, -0x7
80005122: 3265         	addiw	tp, tp, -0x7
80005124: 6436         	ld	s0, 0x148(sp)
80005126: 31646233     	<unknown>
8000512a: 62696c2f     	<unknown>
8000512e: 6172         	ld	sp, 0x118(sp)
80005130: 7972         	ld	s2, 0x138(sp)
80005132: 726f632f     	<unknown>
80005136: 2f65         	addiw	t5, t5, 0x19
80005138: 2f637273     	csrrci	tp, 0x2f6, 0x6
8000513c: 6d66         	ld	s10, 0x58(sp)
8000513e: 2f74         	fld	fa3, 0xd8(a4)
80005140: 6f6d         	lui	t5, 0x1b
80005142: 2e64         	fld	fs1, 0xd8(a2)
80005144: 7372         	ld	t1, 0x138(sp)
80005146: 7300         	ld	s0, 0x20(a4)
80005148: 6372         	ld	t1, 0x118(sp)
8000514a: 6e6f632f     	<unknown>
8000514e: 656c6f73     	csrrsi	t5, 0x656, 0x18
80005152: 722e         	ld	tp, 0xe8(sp)
80005154: 5b160073     	<unknown>
80005158: 6e72656b     	<unknown>
8000515c: 6c65         	lui	s8, 0x19
8000515e: 205d         	<unknown>
80005160: 6170         	ld	a2, 0xc0(a0)
80005162: 696e         	ld	s2, 0xd8(sp)
80005164: 6e6f2063     	<unknown>
80005168: 6820         	ld	s0, 0x50(s0)
8000516a: 7261         	lui	tp, 0xffff8
8000516c: c074         	sw	a3, 0x44(s0)
8000516e: 3a02         	fld	fs4, 0x20(sp)
80005170: c020         	sw	s0, 0x40(s0)
80005172: 0a01         	c.addi	s4, 0x0
80005174: 0500         	addi	s0, sp, 0x280
80005176: 7261685b     	<unknown>
8000517a: c074         	sw	a3, 0x44(s0)
8000517c: 70205d17     	auipc	s10, 0x70205
80005180: 6f72         	ld	t5, 0x118(sp)
80005182: 73657267     	<unknown>
80005186: 77203a73     	csrrc	s4, 0x772, zero
8000518a: 5f6b726f     	jal	tp, 0x800bc780 <__interrupt_stack_top+0x9da90>
8000518e: 6e75         	lui	t3, 0x1d
80005190: 7469         	lui	s0, 0xffffa
80005192: 0cc03d73     	csrrc	s10, 0xcc, zero
80005196: 7420         	ld	s0, 0x68(s0)
80005198: 6d69         	lui	s10, 0x1a
8000519a: 7265         	lui	tp, 0xffff9
8000519c: 695f 7172 3d73       	<unknown>
800051a2: 0ac0         	addi	s0, sp, 0x154
800051a4: 6920         	ld	s0, 0x50(a0)
800051a6: 6970         	ld	a2, 0xd0(a0)
800051a8: 695f 7172 3d73       	<unknown>
800051ae: 1cc0         	addi	s0, sp, 0x274
800051b0: 6920         	ld	s0, 0x50(a0)
800051b2: 746e         	ld	s0, 0xf8(sp)
800051b4: 7265         	lui	tp, 0xffff9
800051b6: 7572         	ld	a0, 0x138(sp)
800051b8: 7470         	ld	a2, 0xe8(s0)
800051ba: 68775f73     	csrrwi	t5, 0x687, 0xe
800051be: 6c69         	lui	s8, 0x1a
800051c0: 5f65         	li	t5, -0x7
800051c2: 6f6c         	ld	a1, 0xd8(a4)
800051c4: 685f6b63     	bltu	t5, t0, 0x8000585a <.Lanon.e48d8eb57257041136080bedefd66852.42+0x7a>
800051c8: 6c65         	lui	s8, 0x19
800051ca: 3d64         	fld	fs1, 0xf8(a0)
800051cc: 01c0         	addi	s0, sp, 0xc4
800051ce: 000a         	c.slli	zero, 0x2
800051d0: 5b05         	li	s6, -0x1f
800051d2: 6168         	ld	a0, 0xc0(a0)
800051d4: 7472         	ld	s0, 0x138(sp)
800051d6: 1ec0         	addi	s0, sp, 0x374
800051d8: 205d         	<unknown>
800051da: 6b726f77     	<unknown>
800051de: 7265         	lui	tp, 0xffff9
800051e0: 6320         	ld	s0, 0x40(a4)
800051e2: 6c706d6f     	jal	s10, 0x8000c0a8 <__boot_stack_bottom+0x53b8>
800051e6: 7465         	lui	s0, 0xffff9
800051e8: 3a65         	addiw	s4, s4, -0x7
800051ea: 7720         	ld	s0, 0x68(a4)
800051ec: 5f6b726f     	jal	tp, 0x800bc7e2 <__interrupt_stack_top+0x9daf2>
800051f0: 6e75         	lui	t3, 0x1d
800051f2: 7469         	lui	s0, 0xffffa
800051f4: 0cc03d73     	csrrc	s10, 0xcc, zero
800051f8: 7420         	ld	s0, 0x68(s0)
800051fa: 6d69         	lui	s10, 0x1a
800051fc: 7265         	lui	tp, 0xffff9
800051fe: 695f 7172 3d73       	<unknown>
80005204: 0ac0         	addi	s0, sp, 0x154
80005206: 6920         	ld	s0, 0x50(a0)
80005208: 6970         	ld	a2, 0xd0(a0)
8000520a: 695f 7172 3d73       	<unknown>
80005210: 1cc0         	addi	s0, sp, 0x274
80005212: 6920         	ld	s0, 0x50(a0)
80005214: 746e         	ld	s0, 0xf8(sp)
80005216: 7265         	lui	tp, 0xffff9
80005218: 7572         	ld	a0, 0x138(sp)
8000521a: 7470         	ld	a2, 0xe8(s0)
8000521c: 68775f73     	csrrwi	t5, 0x687, 0xe
80005220: 6c69         	lui	s8, 0x1a
80005222: 5f65         	li	t5, -0x7
80005224: 6f6c         	ld	a1, 0xd8(a4)
80005226: 685f6b63     	bltu	t5, t0, 0x800058bc <.Lanon.e48d8eb57257041136080bedefd66852.44+0x4>
8000522a: 6c65         	lui	s8, 0x19
8000522c: 3d64         	fld	fs1, 0xf8(a0)
8000522e: 10c0         	addi	s0, sp, 0x64
80005230: 6620         	ld	s0, 0x48(a2)
80005232: 6e69         	lui	t3, 0x1a
80005234: 7369         	lui	t1, 0xffffa
80005236: 6568         	ld	a0, 0xc8(a0)
80005238: 5f64         	lw	s1, 0x7c(a4)
8000523a: 6168         	ld	a0, 0xc0(a0)
8000523c: 7472         	ld	s0, 0x138(sp)
8000523e: 01c03d73     	csrrc	s10, 0x1c, zero
80005242: 0a01c02f     	<unknown>
80005246: 2f00         	fld	fs0, 0x18(a4)
80005248: 7572         	ld	a0, 0x138(sp)
8000524a: 2f637473     	csrrci	s0, 0x2f6, 0x6
8000524e: 3465         	addiw	s0, s0, -0x7
80005250: 3830         	fld	fa2, 0x70(s0)
80005252: 3439         	addiw	s0, s0, -0x12
80005254: 64666237     	lui	tp, 0x64666
80005258: 3032         	fld	ft0, 0x128(sp)
8000525a: 6130         	ld	a2, 0x40(a0)
8000525c: 3466         	fld	fs0, 0x78(sp)
8000525e: 6432         	ld	s0, 0x108(sp)
80005260: 3362         	fld	ft6, 0x38(sp)
80005262: 3232         	fld	ft4, 0x128(sp)
80005264: 6164         	ld	s1, 0xc0(a0)
80005266: 3066         	fld	ft0, 0x78(sp)
80005268: 6166         	ld	sp, 0x58(sp)
8000526a: 6664         	ld	s1, 0xc8(a2)
8000526c: 3765         	addiw	a4, a4, -0x7
8000526e: 3265         	addiw	tp, tp, -0x7
80005270: 6436         	ld	s0, 0x148(sp)
80005272: 31646233     	<unknown>
80005276: 62696c2f     	<unknown>
8000527a: 6172         	ld	sp, 0x118(sp)
8000527c: 7972         	ld	s2, 0x138(sp)
8000527e: 726f632f     	<unknown>
80005282: 2f65         	addiw	t5, t5, 0x19
80005284: 2f637273     	csrrci	tp, 0x2f6, 0x6
80005288: 7469         	lui	s0, 0xffffa
8000528a: 7265         	lui	tp, 0xffff9
8000528c: 6e61722f     	<unknown>
80005290: 722e6567     	<unknown>
80005294: 722f0073     	<unknown>
80005298: 7375         	lui	t1, 0xffffd
8000529a: 6374         	ld	a3, 0xc0(a4)
8000529c: 3034652f     	<unknown>
800052a0: 3938         	fld	fa4, 0x70(a0)
800052a2: 3734         	fld	fa3, 0x68(a4)
800052a4: 6662         	ld	a2, 0x18(sp)
800052a6: 3264         	fld	fs1, 0xe0(a2)
800052a8: 3030         	fld	fa2, 0x60(s0)
800052aa: 6661         	lui	a2, 0x18
800052ac: 3234         	fld	fa3, 0x60(a2)
800052ae: 6264         	ld	s1, 0xc0(a2)
800052b0: 64323233     	<unknown>
800052b4: 6661         	lui	a2, 0x18
800052b6: 6630         	ld	a2, 0x48(a2)
800052b8: 6461         	lui	s0, 0x18
800052ba: 6566         	ld	a0, 0x58(sp)
800052bc: 36326537     	lui	a0, 0x36326
800052c0: 3364         	fld	fs1, 0xe0(a4)
800052c2: 6462         	ld	s0, 0x18(sp)
800052c4: 2f31         	addiw	t5, t5, 0xc
800052c6: 696c         	ld	a1, 0xd0(a0)
800052c8: 7262         	ld	tp, 0x38(sp)
800052ca: 7261         	lui	tp, 0xffff8
800052cc: 2f79         	addiw	t5, t5, 0x1e
800052ce: 65726f63     	bltu	tp, s7, 0x8000592c <.Lanon.e48d8eb57257041136080bedefd66852.48+0x14>
800052d2: 6372732f     	<unknown>
800052d6: 746d662f     	<unknown>
800052da: 6d756e2f     	<unknown>
800052de: 722e         	ld	tp, 0xe8(sp)
800052e0: 722f0073     	<unknown>
800052e4: 7375         	lui	t1, 0xffffd
800052e6: 6374         	ld	a3, 0xc0(a4)
800052e8: 3034652f     	<unknown>
800052ec: 3938         	fld	fa4, 0x70(a0)
800052ee: 3734         	fld	fa3, 0x68(a4)
800052f0: 6662         	ld	a2, 0x18(sp)
800052f2: 3264         	fld	fs1, 0xe0(a2)
800052f4: 3030         	fld	fa2, 0x60(s0)
800052f6: 6661         	lui	a2, 0x18
800052f8: 3234         	fld	fa3, 0x60(a2)
800052fa: 6264         	ld	s1, 0xc0(a2)
800052fc: 64323233     	<unknown>
80005300: 6661         	lui	a2, 0x18
80005302: 6630         	ld	a2, 0x48(a2)
80005304: 6461         	lui	s0, 0x18
80005306: 6566         	ld	a0, 0x58(sp)
80005308: 36326537     	lui	a0, 0x36326
8000530c: 3364         	fld	fs1, 0xe0(a4)
8000530e: 6462         	ld	s0, 0x18(sp)
80005310: 2f31         	addiw	t5, t5, 0xc
80005312: 696c         	ld	a1, 0xd0(a0)
80005314: 7262         	ld	tp, 0x38(sp)
80005316: 7261         	lui	tp, 0xffff8
80005318: 2f79         	addiw	t5, t5, 0x1e
8000531a: 65726f63     	bltu	tp, s7, 0x80005978 <.Lanon.e48d8eb57257041136080bedefd66852.52>
8000531e: 6372732f     	<unknown>
80005322: 5f62752f     	<unknown>
80005326: 63656863     	bltu	a0, s6, 0x80005956 <.Lanon.e48d8eb57257041136080bedefd66852.50+0xe>
8000532a: 722e736b     	<unknown>
8000532e: 722f0073     	<unknown>
80005332: 7375         	lui	t1, 0xffffd
80005334: 6374         	ld	a3, 0xc0(a4)
80005336: 3034652f     	<unknown>
8000533a: 3938         	fld	fa4, 0x70(a0)
8000533c: 3734         	fld	fa3, 0x68(a4)
8000533e: 6662         	ld	a2, 0x18(sp)
80005340: 3264         	fld	fs1, 0xe0(a2)
80005342: 3030         	fld	fa2, 0x60(s0)
80005344: 6661         	lui	a2, 0x18
80005346: 3234         	fld	fa3, 0x60(a2)
80005348: 6264         	ld	s1, 0xc0(a2)
8000534a: 64323233     	<unknown>
8000534e: 6661         	lui	a2, 0x18
80005350: 6630         	ld	a2, 0x48(a2)
80005352: 6461         	lui	s0, 0x18
80005354: 6566         	ld	a0, 0x58(sp)
80005356: 36326537     	lui	a0, 0x36326
8000535a: 3364         	fld	fs1, 0xe0(a4)
8000535c: 6462         	ld	s0, 0x18(sp)
8000535e: 2f31         	addiw	t5, t5, 0xc
80005360: 696c         	ld	a1, 0xd0(a0)
80005362: 7262         	ld	tp, 0x38(sp)
80005364: 7261         	lui	tp, 0xffff8
80005366: 2f79         	addiw	t5, t5, 0x1e
80005368: 65726f63     	bltu	tp, s7, 0x800059c6 <.Lanon.e48d8eb57257041136080bedefd66852.55+0x6>
8000536c: 6372732f     	<unknown>
80005370: 6e79732f     	<unknown>
80005374: 74612f63     	<unknown>
80005378: 63696d6f     	jal	s10, 0x8009b9ae <__interrupt_stack_top+0x7ccbe>
8000537c: 722e         	ld	tp, 0xe8(sp)
8000537e: 01c00073     	<unknown>
80005382: c03a         	sw	a4, 0x0(sp)
80005384: 3a01         	addiw	s4, s4, -0x20
80005386: 00c0         	addi	s0, sp, 0x44
80005388: 5b05         	li	s6, -0x1f
8000538a: 6168         	ld	a0, 0xc0(a0)
8000538c: 7472         	ld	s0, 0x138(sp)
8000538e: 19c0         	addi	s0, sp, 0xf4
80005390: 205d         	<unknown>
80005392: 72617473     	csrrci	s0, 0x726, 0x2
80005396: 2074         	fld	fa3, 0xc0(s0)
80005398: 6162         	ld	sp, 0x18(sp)
8000539a: 7272         	ld	tp, 0x138(sp)
8000539c: 6569         	lui	a0, 0x1a
8000539e: 2072         	fld	ft0, 0x118(sp)
800053a0: 6573626f     	jal	tp, 0x8003c1f6 <__interrupt_stack_top+0x1d506>
800053a4: 7672         	ld	a2, 0x138(sp)
800053a6: 6465         	lui	s0, 0x19
800053a8: 000a         	c.slli	zero, 0x2
800053aa: 7375722f     	<unknown>
800053ae: 6374         	ld	a3, 0xc0(a4)
800053b0: 3034652f     	<unknown>
800053b4: 3938         	fld	fa4, 0x70(a0)
800053b6: 3734         	fld	fa3, 0x68(a4)
800053b8: 6662         	ld	a2, 0x18(sp)
800053ba: 3264         	fld	fs1, 0xe0(a2)
800053bc: 3030         	fld	fa2, 0x60(s0)
800053be: 6661         	lui	a2, 0x18
800053c0: 3234         	fld	fa3, 0x60(a2)
800053c2: 6264         	ld	s1, 0xc0(a2)
800053c4: 64323233     	<unknown>
800053c8: 6661         	lui	a2, 0x18
800053ca: 6630         	ld	a2, 0x48(a2)
800053cc: 6461         	lui	s0, 0x18
800053ce: 6566         	ld	a0, 0x58(sp)
800053d0: 36326537     	lui	a0, 0x36326
800053d4: 3364         	fld	fs1, 0xe0(a4)
800053d6: 6462         	ld	s0, 0x18(sp)
800053d8: 2f31         	addiw	t5, t5, 0xc
800053da: 696c         	ld	a1, 0xd0(a0)
800053dc: 7262         	ld	tp, 0x38(sp)
800053de: 7261         	lui	tp, 0xffff8
800053e0: 2f79         	addiw	t5, t5, 0x1e
800053e2: 65726f63     	bltu	tp, s7, 0x80005a40 <.Lanon.e48d8eb57257041136080bedefd66852.60+0x8>
800053e6: 6372732f     	<unknown>
800053ea: 7274702f     	<unknown>
800053ee: 6e6f632f     	<unknown>
800053f2: 705f7473     	csrrci	s0, 0x705, 0x1e
800053f6: 7274         	ld	a3, 0xe0(a2)
800053f8: 722e         	ld	tp, 0xe8(sp)
800053fa: 5b410073     	<unknown>
800053fe: 6e72656b     	<unknown>
80005402: 6c65         	lui	s8, 0x19
80005404: 205d         	<unknown>
80005406: 6361         	lui	t1, 0x18
80005408: 74706563     	bltu	zero, t2, 0x80005b52 <.Lanon.e48d8eb57257041136080bedefd66852.68+0x12>
8000540c: 6e61         	lui	t3, 0x18
8000540e: 65206563     	bltu	zero, s2, 0x80005a58 <.Lanon.e48d8eb57257041136080bedefd66852.61+0x8>
80005412: 6361         	lui	t1, 0x18
80005414: 2068         	fld	fa0, 0xc0(s0)
80005416: 6168         	ld	a0, 0xc0(a0)
80005418: 7472         	ld	s0, 0x138(sp)
8000541a: 6820         	ld	s0, 0x50(s0)
8000541c: 6e61         	lui	t3, 0x18
8000541e: 6c64         	ld	s1, 0xd8(s0)
80005420: 6465         	lui	s0, 0x19
80005422: 7420         	ld	s0, 0x68(s0)
80005424: 6d69         	lui	s10, 0x1a
80005426: 7265         	lui	tp, 0xffff9
80005428: 6920         	ld	s0, 0x50(a0)
8000542a: 746e         	ld	s0, 0xf8(sp)
8000542c: 7265         	lui	tp, 0xffff9
8000542e: 7572         	ld	a0, 0x138(sp)
80005430: 7470         	ld	a2, 0xe8(s0)
80005432: 6e612073     	csrs	0x6e6, sp
80005436: 2064         	fld	fs1, 0xc0(s0)
80005438: 5049         	c.li	zero, -0xe
8000543a: 7349         	lui	t1, 0xffff2
8000543c: 203a         	fld	ft0, 0x188(sp)
8000543e: 01c0         	addi	s0, sp, 0xc4
80005440: 000a         	c.slli	zero, 0x2
80005442: 0000         	unimp
80005444: 0000         	unimp
80005446: 0000         	unimp

0000000080005448 <.Lanon.e48d8eb57257041136080bedefd66852.2>:
80005448: 80 4e 00 80 00 00 00 00         .N......
80005450: 0b 00 00 00 00 00 00 00         ........
80005458: 34 02 00 00 09 00 00 00         4.......

0000000080005460 <.Lanon.e48d8eb57257041136080bedefd66852.3>:
80005460: 80 4e 00 80 00 00 00 00         .N......
80005468: 0b 00 00 00 00 00 00 00         ........
80005470: 1e 01 00 00 0c 00 00 00         ........

0000000080005478 <.Lanon.e48d8eb57257041136080bedefd66852.4>:
80005478: 80 4e 00 80 00 00 00 00         .N......
80005480: 0b 00 00 00 00 00 00 00         ........
80005488: 1f 01 00 00 0c 00 00 00         ........

0000000080005490 <.Lanon.e48d8eb57257041136080bedefd66852.5>:
80005490: 80 4e 00 80 00 00 00 00         .N......
80005498: 0b 00 00 00 00 00 00 00         ........
800054a0: 75 02 00 00 0e 00 00 00         u.......

00000000800054a8 <.Lanon.e48d8eb57257041136080bedefd66852.6>:
800054a8: 80 4e 00 80 00 00 00 00         .N......
800054b0: 0b 00 00 00 00 00 00 00         ........
800054b8: f1 00 00 00 09 00 00 00         ........

00000000800054c0 <.Lanon.e48d8eb57257041136080bedefd66852.7>:
800054c0: 80 4e 00 80 00 00 00 00         .N......
800054c8: 0b 00 00 00 00 00 00 00         ........
800054d0: f2 00 00 00 09 00 00 00         ........

00000000800054d8 <.Lanon.e48d8eb57257041136080bedefd66852.8>:
800054d8: 80 4e 00 80 00 00 00 00         .N......
800054e0: 0b 00 00 00 00 00 00 00         ........
800054e8: f9 00 00 00 11 00 00 00         ........

00000000800054f0 <.Lanon.e48d8eb57257041136080bedefd66852.9>:
800054f0: 80 4e 00 80 00 00 00 00         .N......
800054f8: 0b 00 00 00 00 00 00 00         ........
80005500: fa 00 00 00 11 00 00 00         ........

0000000080005508 <.Lanon.e48d8eb57257041136080bedefd66852.10>:
80005508: 80 4e 00 80 00 00 00 00         .N......
80005510: 0b 00 00 00 00 00 00 00         ........
80005518: fb 00 00 00 11 00 00 00         ........

0000000080005520 <.Lanon.e48d8eb57257041136080bedefd66852.12>:
80005520: 80 4e 00 80 00 00 00 00         .N......
80005528: 0b 00 00 00 00 00 00 00         ........
80005530: 02 01 00 00 14 00 00 00         ........

0000000080005538 <.Lanon.e48d8eb57257041136080bedefd66852.13>:
80005538: 80 4e 00 80 00 00 00 00         .N......
80005540: 0b 00 00 00 00 00 00 00         ........
80005548: 07 01 00 00 09 00 00 00         ........

0000000080005550 <.Lanon.e48d8eb57257041136080bedefd66852.14>:
80005550: 80 4e 00 80 00 00 00 00         .N......
80005558: 0b 00 00 00 00 00 00 00         ........
80005560: 08 01 00 00 09 00 00 00         ........

0000000080005568 <.Lanon.e48d8eb57257041136080bedefd66852.15>:
80005568: 80 4e 00 80 00 00 00 00         .N......
80005570: 0b 00 00 00 00 00 00 00         ........
80005578: 09 01 00 00 09 00 00 00         ........

0000000080005580 <.Lanon.e48d8eb57257041136080bedefd66852.18>:
80005580: 80 4e 00 80 00 00 00 00         .N......
80005588: 0b 00 00 00 00 00 00 00         ........
80005590: 43 02 00 00 2a 00 00 00         C...*...

0000000080005598 <.Lanon.e48d8eb57257041136080bedefd66852.19>:
80005598: 80 4e 00 80 00 00 00 00         .N......
800055a0: 0b 00 00 00 00 00 00 00         ........
800055a8: 43 02 00 00 05 00 00 00         C.......

00000000800055b0 <.Lanon.e48d8eb57257041136080bedefd66852.20>:
800055b0: 80 4e 00 80 00 00 00 00         .N......
800055b8: 0b 00 00 00 00 00 00 00         ........
800055c0: 6d 02 00 00 17 00 00 00         m.......

00000000800055c8 <.Lanon.e48d8eb57257041136080bedefd66852.21>:
800055c8: 80 4e 00 80 00 00 00 00         .N......
800055d0: 0b 00 00 00 00 00 00 00         ........
800055d8: a7 01 00 00 05 00 00 00         ........

00000000800055e0 <.Lanon.e48d8eb57257041136080bedefd66852.22>:
800055e0: 80 4e 00 80 00 00 00 00         .N......
800055e8: 0b 00 00 00 00 00 00 00         ........
800055f0: a8 01 00 00 1a 00 00 00         ........

00000000800055f8 <.Lanon.e48d8eb57257041136080bedefd66852.23>:
800055f8: 80 4e 00 80 00 00 00 00         .N......
80005600: 0b 00 00 00 00 00 00 00         ........
80005608: a9 01 00 00 05 00 00 00         ........

0000000080005610 <.Lanon.e48d8eb57257041136080bedefd66852.24>:
80005610: 80 4e 00 80 00 00 00 00         .N......
80005618: 0b 00 00 00 00 00 00 00         ........
80005620: 1c 02 00 00 11 00 00 00         ........

0000000080005628 <.Lanon.e48d8eb57257041136080bedefd66852.25>:
80005628: 80 4e 00 80 00 00 00 00         .N......
80005630: 0b 00 00 00 00 00 00 00         ........
80005638: 1e 02 00 00 1c 00 00 00         ........

0000000080005640 <.Lanon.e48d8eb57257041136080bedefd66852.26>:
80005640: 80 4e 00 80 00 00 00 00         .N......
80005648: 0b 00 00 00 00 00 00 00         ........
80005650: 20 02 00 00 1d 00 00 00          .......

0000000080005658 <.Lanon.e48d8eb57257041136080bedefd66852.27>:
80005658: 80 4e 00 80 00 00 00 00         .N......
80005660: 0b 00 00 00 00 00 00 00         ........
80005668: 22 02 00 00 0d 00 00 00         ".......

0000000080005670 <.Lanon.e48d8eb57257041136080bedefd66852.28>:
80005670: 1e 5b 6b 65 72 6e 65 6c         .[kernel
80005678: 5d 20 73 75 6d 6d 61 72         ] summar
80005680: 79 3a 20 72 65 61 64 79         y: ready
80005688: 5f 68 61 72 74 73 3d c0         _harts=.
80005690: 0d 20 62 6f 6f 74 65 64         . booted
80005698: 5f 6d 61 73 6b 3d c1 20         _mask=. 
800056a0: 00 80 60 10 20 66 69 6e         ..`. fin
800056a8: 69 73 68 65 64 5f 68 61         ished_ha
800056b0: 72 74 73 3d c0 1a 20 73         rts=.. s
800056b8: 68 61 72 65 64 5f 63 72         hared_cr
800056c0: 69 74 69 63 61 6c 5f 73         itical_s
800056c8: 65 63 74 69 6f 6e 73 3d         ections=
800056d0: c0 11 20 73 68 61 72 65         .. share
800056d8: 64 5f 63 68 65 63 6b 73         d_checks
800056e0: 75 6d 3d c1 20 00 80 60         um=. ..`
800056e8: 01 0a 00 00 00 00 00 00         ........

00000000800056f0 <.Lanon.e48d8eb57257041136080bedefd66852.32>:
800056f0: 80 4e 00 80 00 00 00 00         .N......
800056f8: 0b 00 00 00 00 00 00 00         ........
80005700: 51 01 00 00 1a 00 00 00         Q.......

0000000080005708 <.Lanon.e48d8eb57257041136080bedefd66852.33>:
80005708: 80 4e 00 80 00 00 00 00         .N......
80005710: 0b 00 00 00 00 00 00 00         ........
80005718: 52 01 00 00 18 00 00 00         R.......

0000000080005720 <.Lanon.e48d8eb57257041136080bedefd66852.34>:
80005720: 80 4e 00 80 00 00 00 00         .N......
80005728: 0b 00 00 00 00 00 00 00         ........
80005730: 53 01 00 00 18 00 00 00         S.......

0000000080005738 <.Lanon.e48d8eb57257041136080bedefd66852.35>:
80005738: 80 4e 00 80 00 00 00 00         .N......
80005740: 0b 00 00 00 00 00 00 00         ........
80005748: 55 01 00 00 0d 00 00 00         U.......

0000000080005750 <.Lanon.e48d8eb57257041136080bedefd66852.36>:
80005750: 80 4e 00 80 00 00 00 00         .N......
80005758: 0b 00 00 00 00 00 00 00         ........
80005760: 56 01 00 00 16 00 00 00         V.......

0000000080005768 <.Lanon.e48d8eb57257041136080bedefd66852.37>:
80005768: 80 4e 00 80 00 00 00 00         .N......
80005770: 0b 00 00 00 00 00 00 00         ........
80005778: 57 01 00 00 17 00 00 00         W.......

0000000080005780 <.Lanon.e48d8eb57257041136080bedefd66852.38>:
80005780: 80 4e 00 80 00 00 00 00         .N......
80005788: 0b 00 00 00 00 00 00 00         ........
80005790: 5e 01 00 00 20 00 00 00         ^... ...

0000000080005798 <.Lanon.e48d8eb57257041136080bedefd66852.39>:
80005798: 80 4e 00 80 00 00 00 00         .N......
800057a0: 0b 00 00 00 00 00 00 00         ........
800057a8: 63 01 00 00 19 00 00 00         c.......

00000000800057b0 <.Lanon.e48d8eb57257041136080bedefd66852.40>:
800057b0: 80 4e 00 80 00 00 00 00         .N......
800057b8: 0b 00 00 00 00 00 00 00         ........
800057c0: 64 01 00 00 0d 00 00 00         d.......

00000000800057c8 <.Lanon.e48d8eb57257041136080bedefd66852.41>:
800057c8: 80 4e 00 80 00 00 00 00         .N......
800057d0: 0b 00 00 00 00 00 00 00         ........
800057d8: 69 01 00 00 0d 00 00 00         i.......

00000000800057e0 <.Lanon.e48d8eb57257041136080bedefd66852.42>:
800057e0: 0e 5b 6b 65 72 6e 65 6c         .[kernel
800057e8: 5d 20 68 61 72 74 5b c0         ] hart[.
800057f0: 0d 5d 3a 20 69 6e 69 74         .]: init
800057f8: 5f 64 6f 6e 65 3d c0 0c         _done=..
80005800: 20 77 6f 72 6b 5f 75 6e          work_un
80005808: 69 74 73 3d c0 0c 20 74         its=.. t
80005810: 69 6d 65 72 5f 69 72 71         imer_irq
80005818: 73 3d c0 0a 20 69 70 69         s=.. ipi
80005820: 5f 73 65 6e 74 3d c0 0a         _sent=..
80005828: 20 69 70 69 5f 69 72 71          ipi_irq
80005830: 73 3d c0 1c 20 69 6e 74         s=.. int
80005838: 65 72 72 75 70 74 73 5f         errupts_
80005840: 77 68 69 6c 65 5f 6c 6f         while_lo
80005848: 63 6b 5f 68 65 6c 64 3d         ck_held=
80005850: c0 0b 20 6c 61 73 74 5f         .. last_
80005858: 6d 65 70 63 3d c1 20 00         mepc=. .
80005860: 80 60 01 0a 00                  .`...

0000000080005865 <.Lanon.e48d8eb57257041136080bedefd66852.43>:
80005865: 0e 5b 6b 65 72 6e 65 6c         .[kernel
8000586d: 5d 20 68 61 72 74 5b c0         ] hart[.
80005875: 14 5d 3a 20 69 6e 74 65         .]: inte
8000587d: 72 72 75 70 74 5f 73 74         rrupt_st
80005885: 61 63 6b 3d 5b c1 20 00         ack=[. .
8000588d: 80 60 02 2c 20 c1 20 00         .`., . .
80005895: 80 60 09 29 20 6d 69 6e         .`.) min
8000589d: 5f 73 70 3d c1 20 00 80         _sp=. ..
800058a5: 60 09 20 6c 61 73 74 5f         `. last_
800058ad: 73 70 3d c1 20 00 80 60         sp=. ..`
800058b5: 01 0a 00                        ...

00000000800058b8 <.Lanon.e48d8eb57257041136080bedefd66852.44>:
800058b8: 80 4e 00 80 00 00 00 00         .N......
800058c0: 0b 00 00 00 00 00 00 00         ........
800058c8: 47 02 00 00 05 00 00 00         G.......

00000000800058d0 <.Lanon.e48d8eb57257041136080bedefd66852.45>:
800058d0: 80 4e 00 80 00 00 00 00         .N......
800058d8: 0b 00 00 00 00 00 00 00         ........
800058e0: 48 02 00 00 14 00 00 00         H.......

00000000800058e8 <.Lanon.e48d8eb57257041136080bedefd66852.46>:
800058e8: 80 4e 00 80 00 00 00 00         .N......
800058f0: 0b 00 00 00 00 00 00 00         ........
800058f8: 94 01 00 00 09 00 00 00         ........

0000000080005900 <.Lanon.e48d8eb57257041136080bedefd66852.47>:
80005900: 80 4e 00 80 00 00 00 00         .N......
80005908: 0b 00 00 00 00 00 00 00         ........
80005910: 95 01 00 00 09 00 00 00         ........

0000000080005918 <.Lanon.e48d8eb57257041136080bedefd66852.48>:
80005918: 80 4e 00 80 00 00 00 00         .N......
80005920: 0b 00 00 00 00 00 00 00         ........
80005928: 96 01 00 00 09 00 00 00         ........

0000000080005930 <.Lanon.e48d8eb57257041136080bedefd66852.49>:
80005930: 80 4e 00 80 00 00 00 00         .N......
80005938: 0b 00 00 00 00 00 00 00         ........
80005940: 97 01 00 00 09 00 00 00         ........

0000000080005948 <.Lanon.e48d8eb57257041136080bedefd66852.50>:
80005948: 80 4e 00 80 00 00 00 00         .N......
80005950: 0b 00 00 00 00 00 00 00         ........
80005958: 98 01 00 00 09 00 00 00         ........

0000000080005960 <.Lanon.e48d8eb57257041136080bedefd66852.51>:
80005960: 80 4e 00 80 00 00 00 00         .N......
80005968: 0b 00 00 00 00 00 00 00         ........
80005970: 99 01 00 00 09 00 00 00         ........

0000000080005978 <.Lanon.e48d8eb57257041136080bedefd66852.52>:
80005978: 80 4e 00 80 00 00 00 00         .N......
80005980: 0b 00 00 00 00 00 00 00         ........
80005988: 9a 01 00 00 09 00 00 00         ........

0000000080005990 <.Lanon.e48d8eb57257041136080bedefd66852.53>:
80005990: 80 4e 00 80 00 00 00 00         .N......
80005998: 0b 00 00 00 00 00 00 00         ........
800059a0: 9b 01 00 00 09 00 00 00         ........

00000000800059a8 <.Lanon.e48d8eb57257041136080bedefd66852.54>:
800059a8: 80 4e 00 80 00 00 00 00         .N......
800059b0: 0b 00 00 00 00 00 00 00         ........
800059b8: 9c 01 00 00 09 00 00 00         ........

00000000800059c0 <.Lanon.e48d8eb57257041136080bedefd66852.55>:
800059c0: 80 4e 00 80 00 00 00 00         .N......
800059c8: 0b 00 00 00 00 00 00 00         ........
800059d0: 9d 01 00 00 09 00 00 00         ........

00000000800059d8 <.Lanon.e48d8eb57257041136080bedefd66852.56>:
800059d8: 80 4e 00 80 00 00 00 00         .N......
800059e0: 0b 00 00 00 00 00 00 00         ........
800059e8: ae 01 00 00 09 00 00 00         ........

00000000800059f0 <.Lanon.e48d8eb57257041136080bedefd66852.57>:
800059f0: 80 4e 00 80 00 00 00 00         .N......
800059f8: 0b 00 00 00 00 00 00 00         ........
80005a00: 3a 02 00 00 09 00 00 00         :.......

0000000080005a08 <.Lanon.e48d8eb57257041136080bedefd66852.58>:
80005a08: 80 4e 00 80 00 00 00 00         .N......
80005a10: 0b 00 00 00 00 00 00 00         ........
80005a18: 29 02 00 00 05 00 00 00         ).......

0000000080005a20 <.Lanon.e48d8eb57257041136080bedefd66852.59>:
80005a20: 80 4e 00 80 00 00 00 00         .N......
80005a28: 0b 00 00 00 00 00 00 00         ........
80005a30: 65 02 00 00 09 00 00 00         e.......

0000000080005a38 <.Lanon.e48d8eb57257041136080bedefd66852.60>:
80005a38: 80 4e 00 80 00 00 00 00         .N......
80005a40: 0b 00 00 00 00 00 00 00         ........
80005a48: 2e 02 00 00 09 00 00 00         ........

0000000080005a50 <.Lanon.e48d8eb57257041136080bedefd66852.61>:
80005a50: 80 4e 00 80 00 00 00 00         .N......
80005a58: 0b 00 00 00 00 00 00 00         ........
80005a60: b0 02 00 00 24 00 00 00         ....$...

0000000080005a68 <.Lanon.e48d8eb57257041136080bedefd66852.62>:
80005a68: 73 65 63 6f 6e 64 61 72         secondar
80005a70: 79                              y

0000000080005a71 <.Lanon.e48d8eb57257041136080bedefd66852.63>:
80005a71: 70 72 69 6d 61 72 79            primary

0000000080005a78 <.Lanon.e48d8eb57257041136080bedefd66852.64>:
80005a78: 05 5b 68 61 72 74 c0 16         .[hart..
80005a80: 5d 20 69 6e 69 74 20 63         ] init c
80005a88: 6f 6d 70 6c 65 74 65 3a         omplete:
80005a90: 20 72 6f 6c 65 3d c0 0b          role=..
80005a98: 20 6e 6f 72 6d 61 6c 5f          normal_
80005aa0: 73 70 3d c1 20 00 80 60         sp=. ..`
80005aa8: 12 20 69 6e 74 65 72 72         . interr
80005ab0: 75 70 74 5f 73 74 61 63         upt_stac
80005ab8: 6b 3d 5b c1 20 00 80 60         k=[. ..`
80005ac0: 02 2c 20 c1 20 00 80 60         ., . ..`
80005ac8: 0e 29 20 72 65 61 64 79         .) ready
80005ad0: 5f 68 61 72 74 73 3d c0         _harts=.
80005ad8: 01 2f c0 01 0a 00               ./....

0000000080005ade <.Lanon.e48d8eb57257041136080bedefd66852.66>:
80005ade: 05 5b 68 61 72 74 c0 26         .[hart.&
80005ae6: 5d 20 73 74 61 72 74 20         ] start 
80005aee: 62 61 72 72 69 65 72 20         barrier 
80005af6: 72 65 6c 65 61 73 65 64         released
80005afe: 3a 20 72 65 61 64 79 5f         : ready_
80005b06: 68 61 72 74 73 3d c0 0d         harts=..
80005b0e: 20 62 6f 6f 74 65 64 5f          booted_
80005b16: 6d 61 73 6b 3d c1 20 00         mask=. .
80005b1e: 80 60 01 0a 00 00 00 00         .`......
80005b26: 00 00                           ..

0000000080005b28 <.Lanon.e48d8eb57257041136080bedefd66852.67>:
80005b28: 80 4e 00 80 00 00 00 00         .N......
80005b30: 0b 00 00 00 00 00 00 00         ........
80005b38: 3f 02 00 00 12 00 00 00         ?.......

0000000080005b40 <.Lanon.e48d8eb57257041136080bedefd66852.68>:
80005b40: 80 4e 00 80 00 00 00 00         .N......
80005b48: 0b 00 00 00 00 00 00 00         ........
80005b50: 3f 02 00 00 05 00 00 00         ?.......
80005b58: 46 41 49 4c 50 41 53 53         FAILPASS

0000000080005b60 <.Lanon.e48d8eb57257041136080bedefd66852.71>:
80005b60: 80 4e 00 80 00 00 00 00         .N......
80005b68: 0b 00 00 00 00 00 00 00         ........
80005b70: b8 02 00 00 09 00 00 00         ........

0000000080005b78 <.Lanon.e48d8eb57257041136080bedefd66852.73>:
80005b78: 8c 4e 00 80 00 00 00 00         .N......
80005b80: 4b 00 00 00 00 00 00 00         K.......
80005b88: bc 02 00 00 09 00 00 00         ........

0000000080005b90 <.Lanon.e48d8eb57257041136080bedefd66852.74>:
80005b90: 80 4e 00 80 00 00 00 00         .N......
80005b98: 0b 00 00 00 00 00 00 00         ........
80005ba0: fe 01 00 00 05 00 00 00         ........

0000000080005ba8 <.Lanon.e48d8eb57257041136080bedefd66852.75>:
80005ba8: 80 4e 00 80 00 00 00 00         .N......
80005bb0: 0b 00 00 00 00 00 00 00         ........
80005bb8: 01 02 00 00 08 00 00 00         ........

0000000080005bc0 <.Lanon.e48d8eb57257041136080bedefd66852.76>:
80005bc0: 80 4e 00 80 00 00 00 00         .N......
80005bc8: 0b 00 00 00 00 00 00 00         ........
80005bd0: 02 02 00 00 09 00 00 00         ........

0000000080005bd8 <.Lanon.e48d8eb57257041136080bedefd66852.77>:
80005bd8: 20 5b 6b 65 72 6e 65 6c          [kernel
80005be0: 5d 20 75 6e 65 78 70 65         ] unexpe
80005be8: 63 74 65 64 20 74 72 61         cted tra
80005bf0: 70 20 6f 6e 20 68 61 72         p on har
80005bf8: 74 c0 09 3a 20 6d 63 61         t..: mca
80005c00: 75 73 65 3d c1 20 00 80         use=. ..
80005c08: 60 06 20 6d 65 70 63 3d         `. mepc=
80005c10: c1 20 00 80 60 07 20 6d         . ..`. m
80005c18: 74 76 61 6c 3d c1 20 00         tval=. .
80005c20: 80 60 01 0a 00                  .`...

0000000080005c25 <.Lanon.e48d8eb57257041136080bedefd66852.78>:
80005c25: 5b 6b 65 72 6e 65 6c 5d         [kernel]
80005c2d: 20 62 6f 6f 74 65 64 20          booted 
80005c35: 69 6e 20 4d 2d 6d 6f 64         in M-mod
80005c3d: 65 0a                           e.

0000000080005c3f <.Lanon.e48d8eb57257041136080bedefd66852.79>:
80005c3f: 5b 6b 65 72 6e 65 6c 5d         [kernel]
80005c47: 20 4c 41 42 35 20 6b 65          LAB5 ke
80005c4f: 72 6e 65 6c 20 74 61 73         rnel tas
80005c57: 6b 34 20 6b 65 72 6e 65         k4 kerne
80005c5f: 6c 2d 63 6f 6e 74 65 78         l-contex
80005c67: 74 20 69 6e 74 65 72 72         t interr
80005c6f: 75 70 74 20 68 61 6e 64         upt hand
80005c77: 6c 69 6e 67 20 6f 6e 20         ling on 
80005c7f: 53 4d 50 0a                     SMP.

0000000080005c83 <.Lanon.e48d8eb57257041136080bedefd66852.83>:
80005c83: 5b 6b 65 72 6e 65 6c 5d         [kernel]
80005c8b: 20 69 6e 74 65 72 72 75          interru
80005c93: 70 74 20 70 6f 6c 69 63         pt polic
80005c9b: 79 3a 20 74 69 6d 65 72         y: timer
80005ca3: 3d 4d 54 49 50 20 69 70         =MTIP ip
80005cab: 69 3d 4d 53 49 50 2c 20         i=MSIP, 
80005cb3: 68 61 6e 64 6c 65 72 73         handlers
80005cbb: 20 72 75 6e 20 6f 6e 20          run on 
80005cc3: 64 65 64 69 63 61 74 65         dedicate
80005ccb: 64 20 69 6e 74 65 72 72         d interr
80005cd3: 75 70 74 20 73 74 61 63         upt stac
80005cdb: 6b 73 20 61 6e 64 20 6e         ks and n
80005ce3: 65 76 65 72 20 74 61 6b         ever tak
80005ceb: 65 20 74 68 65 20 73 68         e the sh
80005cf3: 61 72 65 64 20 73 70 69         ared spi
80005cfb: 6e 6c 6f 63 6b 0a 00 00         nlock...
80005d03: 00 00 00 00 00                  .....

0000000080005d08 <.Lanon.416a8c1506022a9611cad07afe9e4ed9.1>:
80005d08: e2 52 00 80 00 00 00 00         .R......
80005d10: 4d 00 00 00 00 00 00 00         M.......
80005d18: 94 00 00 00 36 00 00 00         ....6...

0000000080005d20 <.Lanon.416a8c1506022a9611cad07afe9e4ed9.2>:
80005d20: 75 6e 73 61 66 65 20 70         unsafe p
80005d28: 72 65 63 6f 6e 64 69 74         recondit
80005d30: 69 6f 6e 28 73 29 20 76         ion(s) v
80005d38: 69 6f 6c 61 74 65 64 3a         iolated:
80005d40: 20 73 6c 69 63 65 3a 3a          slice::
80005d48: 66 72 6f 6d 5f 72 61 77         from_raw
80005d50: 5f 70 61 72 74 73 20 72         _parts r
80005d58: 65 71 75 69 72 65 73 20         equires 
80005d60: 74 68 65 20 70 6f 69 6e         the poin
80005d68: 74 65 72 20 74 6f 20 62         ter to b
80005d70: 65 20 61 6c 69 67 6e 65         e aligne
80005d78: 64 20 61 6e 64 20 6e 6f         d and no
80005d80: 6e 2d 6e 75 6c 6c 2c 20         n-null, 
80005d88: 61 6e 64 20 74 68 65 20         and the 
80005d90: 74 6f 74 61 6c 20 73 69         total si
80005d98: 7a 65 20 6f 66 20 74 68         ze of th
80005da0: 65 20 73 6c 69 63 65 20         e slice 
80005da8: 6e 6f 74 20 74 6f 20 65         not to e
80005db0: 78 63 65 65 64 20 60 69         xceed `i
80005db8: 73 69 7a 65 3a 3a 4d 41         size::MA
80005dc0: 58 60 0a 0a 54 68 69 73         X`..This
80005dc8: 20 69 6e 64 69 63 61 74          indicat
80005dd0: 65 73 20 61 20 62 75 67         es a bug
80005dd8: 20 69 6e 20 74 68 65 20          in the 
80005de0: 70 72 6f 67 72 61 6d 2e         program.
80005de8: 20 54 68 69 73 20 55 6e          This Un
80005df0: 64 65 66 69 6e 65 64 20         defined 
80005df8: 42 65 68 61 76 69 6f 72         Behavior
80005e00: 20 63 68 65 63 6b 20 69          check i
80005e08: 73 20 6f 70 74 69 6f 6e         s option
80005e10: 61 6c 2c 20 61 6e 64 20         al, and 
80005e18: 63 61 6e 6e 6f 74 20 62         cannot b
80005e20: 65 20 72 65 6c 69 65 64         e relied
80005e28: 20 6f 6e 20 66 6f 72 20          on for 
80005e30: 73 61 66 65 74 79 2e            safety.

0000000080005e37 <.Lanon.416a8c1506022a9611cad07afe9e4ed9.3>:
80005e37: 75 6e 73 61 66 65 20 70         unsafe p
80005e3f: 72 65 63 6f 6e 64 69 74         recondit
80005e47: 69 6f 6e 28 73 29 20 76         ion(s) v
80005e4f: 69 6f 6c 61 74 65 64 3a         iolated:
80005e57: 20 73 6c 69 63 65 3a 3a          slice::
80005e5f: 66 72 6f 6d 5f 72 61 77         from_raw
80005e67: 5f 70 61 72 74 73 5f 6d         _parts_m
80005e6f: 75 74 20 72 65 71 75 69         ut requi
80005e77: 72 65 73 20 74 68 65 20         res the 
80005e7f: 70 6f 69 6e 74 65 72 20         pointer 
80005e87: 74 6f 20 62 65 20 61 6c         to be al
80005e8f: 69 67 6e 65 64 20 61 6e         igned an
80005e97: 64 20 6e 6f 6e 2d 6e 75         d non-nu
80005e9f: 6c 6c 2c 20 61 6e 64 20         ll, and 
80005ea7: 74 68 65 20 74 6f 74 61         the tota
80005eaf: 6c 20 73 69 7a 65 20 6f         l size o
80005eb7: 66 20 74 68 65 20 73 6c         f the sl
80005ebf: 69 63 65 20 6e 6f 74 20         ice not 
80005ec7: 74 6f 20 65 78 63 65 65         to excee
80005ecf: 64 20 60 69 73 69 7a 65         d `isize
80005ed7: 3a 3a 4d 41 58 60 0a 0a         ::MAX`..
80005edf: 54 68 69 73 20 69 6e 64         This ind
80005ee7: 69 63 61 74 65 73 20 61         icates a
80005eef: 20 62 75 67 20 69 6e 20          bug in 
80005ef7: 74 68 65 20 70 72 6f 67         the prog
80005eff: 72 61 6d 2e 20 54 68 69         ram. Thi
80005f07: 73 20 55 6e 64 65 66 69         s Undefi
80005f0f: 6e 65 64 20 42 65 68 61         ned Beha
80005f17: 76 69 6f 72 20 63 68 65         vior che
80005f1f: 63 6b 20 69 73 20 6f 70         ck is op
80005f27: 74 69 6f 6e 61 6c 2c 20         tional, 
80005f2f: 61 6e 64 20 63 61 6e 6e         and cann
80005f37: 6f 74 20 62 65 20 72 65         ot be re
80005f3f: 6c 69 65 64 20 6f 6e 20         lied on 
80005f47: 66 6f 72 20 73 61 66 65         for safe
80005f4f: 74 79 2e 00 00 00 00 00         ty......
80005f57: 00                              .

0000000080005f58 <.Lanon.58b80e82ce2316e510fc70c798ef5333.1>:
80005f58: 2d 4f 00 80 00 00 00 00         -O......
80005f60: 0f 00 00 00 00 00 00 00         ........
80005f68: 43 00 00 00 12 00 00 00         C.......

0000000080005f70 <.Lanon.58b80e82ce2316e510fc70c798ef5333.2>:
80005f70: 2d 4f 00 80 00 00 00 00         -O......
80005f78: 0f 00 00 00 00 00 00 00         ........
80005f80: 49 00 00 00 12 00 00 00         I.......

0000000080005f88 <.Lanon.5f9c122178db8c96636677e4a0fa0f3f.0>:
80005f88: 75 6e 73 61 66 65 20 70         unsafe p
80005f90: 72 65 63 6f 6e 64 69 74         recondit
80005f98: 69 6f 6e 28 73 29 20 76         ion(s) v
80005fa0: 69 6f 6c 61 74 65 64 3a         iolated:
80005fa8: 20 75 73 69 7a 65 3a 3a          usize::
80005fb0: 75 6e 63 68 65 63 6b 65         unchecke
80005fb8: 64 5f 61 64 64 20 63 61         d_add ca
80005fc0: 6e 6e 6f 74 20 6f 76 65         nnot ove
80005fc8: 72 66 6c 6f 77 0a 0a 54         rflow..T
80005fd0: 68 69 73 20 69 6e 64 69         his indi
80005fd8: 63 61 74 65 73 20 61 20         cates a 
80005fe0: 62 75 67 20 69 6e 20 74         bug in t
80005fe8: 68 65 20 70 72 6f 67 72         he progr
80005ff0: 61 6d 2e 20 54 68 69 73         am. This
80005ff8: 20 55 6e 64 65 66 69 6e          Undefin
80006000: 65 64 20 42 65 68 61 76         ed Behav
80006008: 69 6f 72 20 63 68 65 63         ior chec
80006010: 6b 20 69 73 20 6f 70 74         k is opt
80006018: 69 6f 6e 61 6c 2c 20 61         ional, a
80006020: 6e 64 20 63 61 6e 6e 6f         nd canno
80006028: 74 20 62 65 20 72 65 6c         t be rel
80006030: 69 65 64 20 6f 6e 20 66         ied on f
80006038: 6f 72 20 73 61 66 65 74         or safet
80006040: 79 2e 00 00 00 00 00 00         y.......

0000000080006048 <.Lanon.60b21bd526d7b6093f3c3842c48f4f50.1>:
80006048: 80 4e 00 80 00 00 00 00         .N......
80006050: 0b 00 00 00 00 00 00 00         ........
80006058: e9 00 00 00 0d 00 00 00         ........

0000000080006060 <.Lanon.60b21bd526d7b6093f3c3842c48f4f50.2>:
80006060: 80 4e 00 80 00 00 00 00         .N......
80006068: 0b 00 00 00 00 00 00 00         ........
80006070: ed 00 00 00 38 00 00 00         ....8...

0000000080006078 <.Lanon.60b21bd526d7b6093f3c3842c48f4f50.3>:
80006078: 80 4e 00 80 00 00 00 00         .N......
80006080: 0b 00 00 00 00 00 00 00         ........
80006088: 2c 01 00 00 05 00 00 00         ,.......

0000000080006090 <.Lanon.60b21bd526d7b6093f3c3842c48f4f50.4>:
80006090: 80 4e 00 80 00 00 00 00         .N......
80006098: 0b 00 00 00 00 00 00 00         ........
800060a0: 2e 01 00 00 05 00 00 00         ........

00000000800060a8 <.LJTI0_0>:
800060a8: 26c2         	fld	fa3, 0x10(sp)
800060aa: 8000         	<unknown>
800060ac: 0000         	unimp
800060ae: 0000         	unimp
800060b0: 26ce         	fld	fa3, 0xd0(sp)
800060b2: 8000         	<unknown>
800060b4: 0000         	unimp
800060b6: 0000         	unimp
800060b8: 26f2         	fld	fa3, 0x118(sp)
800060ba: 8000         	<unknown>
800060bc: 0000         	unimp
800060be: 0000         	unimp
800060c0: 2702         	fld	fa4, 0x0(sp)
800060c2: 8000         	<unknown>
800060c4: 0000         	unimp
800060c6: 0000         	unimp
800060c8: 2726         	fld	fa4, 0x48(sp)
800060ca: 8000         	<unknown>
800060cc: 0000         	unimp
800060ce: 0000         	unimp

00000000800060d0 <.LJTI1_0>:
800060d0: 2764         	fld	fs1, 0xc8(a4)
800060d2: 8000         	<unknown>
800060d4: 0000         	unimp
800060d6: 0000         	unimp
800060d8: 276c         	fld	fa1, 0xc8(a4)
800060da: 8000         	<unknown>
800060dc: 0000         	unimp
800060de: 0000         	unimp
800060e0: 2790         	fld	fa2, 0x8(a5)
800060e2: 8000         	<unknown>
800060e4: 0000         	unimp
800060e6: 0000         	unimp
800060e8: 279c         	fld	fa5, 0x8(a5)
800060ea: 8000         	<unknown>
800060ec: 0000         	unimp
800060ee: 0000         	unimp
800060f0: 27c0         	fld	fs0, 0x88(a5)
800060f2: 8000         	<unknown>
800060f4: 0000         	unimp
800060f6: 0000         	unimp

00000000800060f8 <.LJTI2_0>:
800060f8: 27f8         	fld	fa4, 0xc8(a5)
800060fa: 8000         	<unknown>
800060fc: 0000         	unimp
800060fe: 0000         	unimp
80006100: 2800         	fld	fs0, 0x10(s0)
80006102: 8000         	<unknown>
80006104: 0000         	unimp
80006106: 0000         	unimp
80006108: 2824         	fld	fs1, 0x50(s0)
8000610a: 8000         	<unknown>
8000610c: 0000         	unimp
8000610e: 0000         	unimp
80006110: 2830         	fld	fa2, 0x50(s0)
80006112: 8000         	<unknown>
80006114: 0000         	unimp
80006116: 0000         	unimp
80006118: 2854         	fld	fa3, 0x90(s0)
8000611a: 8000         	<unknown>
8000611c: 0000         	unimp
8000611e: 0000         	unimp

0000000080006120 <.LJTI3_0>:
80006120: 2894         	fld	fa3, 0x10(s1)
80006122: 8000         	<unknown>
80006124: 0000         	unimp
80006126: 0000         	unimp
80006128: 289e         	fld	fa7, 0x1c0(sp)
8000612a: 8000         	<unknown>
8000612c: 0000         	unimp
8000612e: 0000         	unimp
80006130: 28ac         	fld	fa1, 0x50(s1)
80006132: 8000         	<unknown>
80006134: 0000         	unimp
80006136: 0000         	unimp
80006138: 28d0         	fld	fa2, 0x90(s1)
8000613a: 8000         	<unknown>
8000613c: 0000         	unimp
8000613e: 0000         	unimp
80006140: 28f4         	fld	fa3, 0xd0(s1)
80006142: 8000         	<unknown>
80006144: 0000         	unimp
80006146: 0000         	unimp

0000000080006148 <.LJTI4_0>:
80006148: 2930         	fld	fa2, 0x50(a0)
8000614a: 8000         	<unknown>
8000614c: 0000         	unimp
8000614e: 0000         	unimp
80006150: 2938         	fld	fa4, 0x50(a0)
80006152: 8000         	<unknown>
80006154: 0000         	unimp
80006156: 0000         	unimp
80006158: 2944         	fld	fs1, 0x90(a0)
8000615a: 8000         	<unknown>
8000615c: 0000         	unimp
8000615e: 0000         	unimp
80006160: 2968         	fld	fa0, 0xd0(a0)
80006162: 8000         	<unknown>
80006164: 0000         	unimp
80006166: 0000         	unimp
80006168: 298c         	fld	fa1, 0x10(a1)
8000616a: 8000         	<unknown>
8000616c: 0000         	unimp
8000616e: 0000         	unimp

0000000080006170 <.LJTI5_0>:
80006170: 29c6         	fld	fs3, 0x50(sp)
80006172: 8000         	<unknown>
80006174: 0000         	unimp
80006176: 0000         	unimp
80006178: 29ce         	fld	fs3, 0xd0(sp)
8000617a: 8000         	<unknown>
8000617c: 0000         	unimp
8000617e: 0000         	unimp
80006180: 29da         	fld	fs3, 0x190(sp)
80006182: 8000         	<unknown>
80006184: 0000         	unimp
80006186: 0000         	unimp
80006188: 29fe         	fld	fs3, 0x1d8(sp)
8000618a: 8000         	<unknown>
8000618c: 0000         	unimp
8000618e: 0000         	unimp
80006190: 2a22         	fld	fs4, 0x8(sp)
80006192: 8000         	<unknown>
80006194: 0000         	unimp
80006196: 0000         	unimp

0000000080006198 <.LJTI6_0>:
80006198: 2a68         	fld	fa0, 0xd0(a2)
8000619a: 8000         	<unknown>
8000619c: 0000         	unimp
8000619e: 0000         	unimp
800061a0: 2a88         	fld	fa0, 0x10(a3)
800061a2: 8000         	<unknown>
800061a4: 0000         	unimp
800061a6: 0000         	unimp
800061a8: 2aaa         	fld	fs5, 0x88(sp)
800061aa: 8000         	<unknown>
800061ac: 0000         	unimp
800061ae: 0000         	unimp
800061b0: 2acc         	fld	fa1, 0x90(a3)
800061b2: 8000         	<unknown>
800061b4: 0000         	unimp
800061b6: 0000         	unimp
800061b8: 2aee         	fld	fs5, 0xd8(sp)
800061ba: 8000         	<unknown>
800061bc: 0000         	unimp
800061be: 0000         	unimp

00000000800061c0 <.Lanon.fc4d0a993a751fb9cde27a7442c7130a.0>:
800061c0: 74 68 65 72 65 20 69 73         there is
800061c8: 20 6e 6f 20 73 75 63 68          no such
800061d0: 20 74 68 69 6e 67 20 61          thing a
800061d8: 73 20 61 20 72 65 6c 65         s a rele
800061e0: 61 73 65 20 6c 6f 61 64         ase load

00000000800061e8 <.Lanon.fc4d0a993a751fb9cde27a7442c7130a.2>:
800061e8: 30 53 00 80 00 00 00 00         0S......
800061f0: 4f 00 00 00 00 00 00 00         O.......
800061f8: be 0f 00 00 18 00 00 00         ........

0000000080006200 <.Lanon.fc4d0a993a751fb9cde27a7442c7130a.3>:
80006200: 74 68 65 72 65 20 69 73         there is
80006208: 20 6e 6f 20 73 75 63 68          no such
80006210: 20 74 68 69 6e 67 20 61          thing a
80006218: 73 20 61 6e 20 61 63 71         s an acq
80006220: 75 69 72 65 2d 72 65 6c         uire-rel
80006228: 65 61 73 65 20 6c 6f 61         ease loa
80006230: 64 00 00 00 00 00 00 00         d.......

0000000080006238 <.Lanon.fc4d0a993a751fb9cde27a7442c7130a.4>:
80006238: 30 53 00 80 00 00 00 00         0S......
80006240: 4f 00 00 00 00 00 00 00         O.......
80006248: bf 0f 00 00 17 00 00 00         ........

0000000080006250 <.Lanon.fc4d0a993a751fb9cde27a7442c7130a.5>:
80006250: 74 68 65 72 65 20 69 73         there is
80006258: 20 6e 6f 20 73 75 63 68          no such
80006260: 20 74 68 69 6e 67 20 61          thing a
80006268: 73 20 61 6e 20 61 63 71         s an acq
80006270: 75 69 72 65 20 73 74 6f         uire sto
80006278: 72 65 00 00 00 00 00 00         re......

0000000080006280 <.Lanon.fc4d0a993a751fb9cde27a7442c7130a.6>:
80006280: 30 53 00 80 00 00 00 00         0S......
80006288: 4f 00 00 00 00 00 00 00         O.......
80006290: af 0f 00 00 18 00 00 00         ........

0000000080006298 <.Lanon.fc4d0a993a751fb9cde27a7442c7130a.7>:
80006298: 74 68 65 72 65 20 69 73         there is
800062a0: 20 6e 6f 20 73 75 63 68          no such
800062a8: 20 74 68 69 6e 67 20 61          thing a
800062b0: 73 20 61 6e 20 61 63 71         s an acq
800062b8: 75 69 72 65 2d 72 65 6c         uire-rel
800062c0: 65 61 73 65 20 73 74 6f         ease sto
800062c8: 72 65 00 00 00 00 00 00         re......

00000000800062d0 <.Lanon.fc4d0a993a751fb9cde27a7442c7130a.8>:
800062d0: 30 53 00 80 00 00 00 00         0S......
800062d8: 4f 00 00 00 00 00 00 00         O.......
800062e0: b0 0f 00 00 17 00 00 00         ........

00000000800062e8 <.Lanon.fc4d0a993a751fb9cde27a7442c7130a.9>:
800062e8: 74 68 65 72 65 20 69 73         there is
800062f0: 20 6e 6f 20 73 75 63 68          no such
800062f8: 20 74 68 69 6e 67 20 61          thing a
80006300: 73 20 61 20 72 65 6c 65         s a rele
80006308: 61 73 65 20 66 61 69 6c         ase fail
80006310: 75 72 65 20 6f 72 64 65         ure orde
80006318: 72 69 6e 67 00 00 00 00         ring....

0000000080006320 <.Lanon.fc4d0a993a751fb9cde27a7442c7130a.10>:
80006320: 30 53 00 80 00 00 00 00         0S......
80006328: 4f 00 00 00 00 00 00 00         O.......
80006330: 75 10 00 00 1d 00 00 00         u.......

0000000080006338 <.Lanon.fc4d0a993a751fb9cde27a7442c7130a.11>:
80006338: 74 68 65 72 65 20 69 73         there is
80006340: 20 6e 6f 20 73 75 63 68          no such
80006348: 20 74 68 69 6e 67 20 61          thing a
80006350: 73 20 61 6e 20 61 63 71         s an acq
80006358: 75 69 72 65 2d 72 65 6c         uire-rel
80006360: 65 61 73 65 20 66 61 69         ease fai
80006368: 6c 75 72 65 20 6f 72 64         lure ord
80006370: 65 72 69 6e 67 00 00 00         ering...

0000000080006378 <.Lanon.fc4d0a993a751fb9cde27a7442c7130a.12>:
80006378: 30 53 00 80 00 00 00 00         0S......
80006380: 4f 00 00 00 00 00 00 00         O.......
80006388: 74 10 00 00 1c 00 00 00         t.......

0000000080006390 <.Lanon.715583fb97a4012707a3f342c59c8acd.0>:
80006390: 75 6e 73 61 66 65 20 70         unsafe p
80006398: 72 65 63 6f 6e 64 69 74         recondit
800063a0: 69 6f 6e 28 73 29 20 76         ion(s) v
800063a8: 69 6f 6c 61 74 65 64 3a         iolated:
800063b0: 20 70 74 72 3a 3a 77 72          ptr::wr
800063b8: 69 74 65 5f 62 79 74 65         ite_byte
800063c0: 73 20 72 65 71 75 69 72         s requir
800063c8: 65 73 20 74 68 61 74 20         es that 
800063d0: 74 68 65 20 64 65 73 74         the dest
800063d8: 69 6e 61 74 69 6f 6e 20         ination 
800063e0: 70 6f 69 6e 74 65 72 20         pointer 
800063e8: 69 73 20 61 6c 69 67 6e         is align
800063f0: 65 64 20 61 6e 64 20 6e         ed and n
800063f8: 6f 6e 2d 6e 75 6c 6c 0a         on-null.
80006400: 0a 54 68 69 73 20 69 6e         .This in
80006408: 64 69 63 61 74 65 73 20         dicates 
80006410: 61 20 62 75 67 20 69 6e         a bug in
80006418: 20 74 68 65 20 70 72 6f          the pro
80006420: 67 72 61 6d 2e 20 54 68         gram. Th
80006428: 69 73 20 55 6e 64 65 66         is Undef
80006430: 69 6e 65 64 20 42 65 68         ined Beh
80006438: 61 76 69 6f 72 20 63 68         avior ch
80006440: 65 63 6b 20 69 73 20 6f         eck is o
80006448: 70 74 69 6f 6e 61 6c 2c         ptional,
80006450: 20 61 6e 64 20 63 61 6e          and can
80006458: 6e 6f 74 20 62 65 20 72         not be r
80006460: 65 6c 69 65 64 20 6f 6e         elied on
80006468: 20 66 6f 72 20 73 61 66          for saf
80006470: 65 74 79 2e                     ety.

0000000080006474 <.Lanon.715583fb97a4012707a3f342c59c8acd.1>:
80006474: 75 6e 73 61 66 65 20 70         unsafe p
8000647c: 72 65 63 6f 6e 64 69 74         recondit
80006484: 69 6f 6e 28 73 29 20 76         ion(s) v
8000648c: 69 6f 6c 61 74 65 64 3a         iolated:
80006494: 20 70 74 72 3a 3a 72 65          ptr::re
8000649c: 61 64 5f 76 6f 6c 61 74         ad_volat
800064a4: 69 6c 65 20 72 65 71 75         ile requ
800064ac: 69 72 65 73 20 74 68 61         ires tha
800064b4: 74 20 74 68 65 20 70 6f         t the po
800064bc: 69 6e 74 65 72 20 61 72         inter ar
800064c4: 67 75 6d 65 6e 74 20 69         gument i
800064cc: 73 20 61 6c 69 67 6e 65         s aligne
800064d4: 64 0a 0a 54 68 69 73 20         d..This 
800064dc: 69 6e 64 69 63 61 74 65         indicate
800064e4: 73 20 61 20 62 75 67 20         s a bug 
800064ec: 69 6e 20 74 68 65 20 70         in the p
800064f4: 72 6f 67 72 61 6d 2e 20         rogram. 
800064fc: 54 68 69 73 20 55 6e 64         This Und
80006504: 65 66 69 6e 65 64 20 42         efined B
8000650c: 65 68 61 76 69 6f 72 20         ehavior 
80006514: 63 68 65 63 6b 20 69 73         check is
8000651c: 20 6f 70 74 69 6f 6e 61          optiona
80006524: 6c 2c 20 61 6e 64 20 63         l, and c
8000652c: 61 6e 6e 6f 74 20 62 65         annot be
80006534: 20 72 65 6c 69 65 64 20          relied 
8000653c: 6f 6e 20 66 6f 72 20 73         on for s
80006544: 61 66 65 74 79 2e               afety.

000000008000654a <.Lanon.715583fb97a4012707a3f342c59c8acd.2>:
8000654a: 75 6e 73 61 66 65 20 70         unsafe p
80006552: 72 65 63 6f 6e 64 69 74         recondit
8000655a: 69 6f 6e 28 73 29 20 76         ion(s) v
80006562: 69 6f 6c 61 74 65 64 3a         iolated:
8000656a: 20 70 74 72 3a 3a 77 72          ptr::wr
80006572: 69 74 65 5f 76 6f 6c 61         ite_vola
8000657a: 74 69 6c 65 20 72 65 71         tile req
80006582: 75 69 72 65 73 20 74 68         uires th
8000658a: 61 74 20 74 68 65 20 70         at the p
80006592: 6f 69 6e 74 65 72 20 61         ointer a
8000659a: 72 67 75 6d 65 6e 74 20         rgument 
800065a2: 69 73 20 61 6c 69 67 6e         is align
800065aa: 65 64 0a 0a 54 68 69 73         ed..This
800065b2: 20 69 6e 64 69 63 61 74          indicat
800065ba: 65 73 20 61 20 62 75 67         es a bug
800065c2: 20 69 6e 20 74 68 65 20          in the 
800065ca: 70 72 6f 67 72 61 6d 2e         program.
800065d2: 20 54 68 69 73 20 55 6e          This Un
800065da: 64 65 66 69 6e 65 64 20         defined 
800065e2: 42 65 68 61 76 69 6f 72         Behavior
800065ea: 20 63 68 65 63 6b 20 69          check i
800065f2: 73 20 6f 70 74 69 6f 6e         s option
800065fa: 61 6c 2c 20 61 6e 64 20         al, and 
80006602: 63 61 6e 6e 6f 74 20 62         cannot b
8000660a: 65 20 72 65 6c 69 65 64         e relied
80006612: 20 6f 6e 20 66 6f 72 20          on for 
8000661a: 73 61 66 65 74 79 2e 00         safety..
80006622: 00 00 00 00 00 00               ......

0000000080006628 <.Lanon.0d28f8bdc2424ab23863999f9c043184.0>:
80006628: 00 00 00 00 00 00 00 00         ........
80006630: 00 00 00 00 00 00 00 00         ........
80006638: 01 00 00 00 00 00 00 00         ........
80006640: 46 31 00 80 00 00 00 00         F1......
80006648: c4 2f 00 80 00 00 00 00         ./......
80006650: 04 30 00 80 00 00 00 00         .0......

0000000080006658 <.Lanon.759454917b768f8f13379ce0671eda0b.1>:
80006658: 47 51 00 80 00 00 00 00         GQ......
80006660: 0e 00 00 00 00 00 00 00         ........
80006668: 0c 00 00 00 0d 00 00 00         ........

0000000080006670 <.Lanon.759454917b768f8f13379ce0671eda0b.2>:
80006670: 47 51 00 80 00 00 00 00         GQ......
80006678: 0e 00 00 00 00 00 00 00         ........
80006680: 0e 00 00 00 09 00 00 00         ........

0000000080006688 <.Lanon.1c9496d38d74a89fe1b26f60085e56b4.1>:
80006688: 3d 4f 00 80 00 00 00 00         =O......
80006690: 50 00 00 00 00 00 00 00         P.......
80006698: 62 07 00 00 0e 00 00 00         b.......

00000000800066a0 <.Lanon.1c9496d38d74a89fe1b26f60085e56b4.2>:
800066a0: 3d 4f 00 80 00 00 00 00         =O......
800066a8: 50 00 00 00 00 00 00 00         P.......
800066b0: 55 07 00 00 09 00 00 00         U.......

00000000800066b8 <.Lanon.1c9496d38d74a89fe1b26f60085e56b4.3>:
800066b8: 12 65 6e 63 6f 64 65 5f         .encode_
800066c0: 75 74 66 38 3a 20 6e 65         utf8: ne
800066c8: 65 64 20 c0 13 20 62 79         ed .. by
800066d0: 74 65 73 20 74 6f 20 65         tes to e
800066d8: 6e 63 6f 64 65 20 55 2b         ncode U+
800066e0: c3 20 00 00 69 04 00 15         . ..i...
800066e8: 20 62 75 74 20 62 75 66          but buf
800066f0: 66 65 72 20 68 61 73 20         fer has 
800066f8: 6a 75 73 74 20 c0 00 00         just ...

0000000080006700 <.Lanon.097f31cb3a9770375efd4edf7a88fbe7.1>:
80006700: 47 52 00 80 00 00 00 00         GR......
80006708: 4e 00 00 00 00 00 00 00         N.......
80006710: b2 01 00 00 01 00 00 00         ........

0000000080006718 <.LJTI3_0>:
80006718: 378e         	fld	fa5, 0xe0(sp)
8000671a: 8000         	<unknown>
8000671c: 0000         	unimp
8000671e: 0000         	unimp
80006720: 37b2         	fld	fa5, 0x128(sp)
80006722: 8000         	<unknown>
80006724: 0000         	unimp
80006726: 0000         	unimp
80006728: 37d6         	fld	fa5, 0x170(sp)
8000672a: 8000         	<unknown>
8000672c: 0000         	unimp
8000672e: 0000         	unimp
80006730: 37fa         	fld	fa5, 0x1b8(sp)
80006732: 8000         	<unknown>
80006734: 0000         	unimp
80006736: 0000         	unimp
80006738: 381e         	fld	fa6, 0x1e0(sp)
8000673a: 8000         	<unknown>
8000673c: 0000         	unimp
8000673e: 0000         	unimp

0000000080006740 <.LJTI3_1>:
80006740: 3858         	fld	fa4, 0xb0(s0)
80006742: 8000         	<unknown>
80006744: 0000         	unimp
80006746: 0000         	unimp
80006748: 3876         	fld	fa6, 0x178(sp)
8000674a: 8000         	<unknown>
8000674c: 0000         	unimp
8000674e: 0000         	unimp
80006750: 3894         	fld	fa3, 0x30(s1)
80006752: 8000         	<unknown>
80006754: 0000         	unimp
80006756: 0000         	unimp
80006758: 38b2         	fld	fa7, 0x128(sp)
8000675a: 8000         	<unknown>
8000675c: 0000         	unimp
8000675e: 0000         	unimp
80006760: 38d0         	fld	fa2, 0xb0(s1)
80006762: 8000         	<unknown>
80006764: 0000         	unimp
80006766: 0000         	unimp

0000000080006768 <.LJTI7_0>:
80006768: 3978         	fld	fa4, 0xf0(a0)
8000676a: 8000         	<unknown>
8000676c: 0000         	unimp
8000676e: 0000         	unimp
80006770: 3984         	fld	fs1, 0x30(a1)
80006772: 8000         	<unknown>
80006774: 0000         	unimp
80006776: 0000         	unimp
80006778: 3990         	fld	fa2, 0x30(a1)
8000677a: 8000         	<unknown>
8000677c: 0000         	unimp
8000677e: 0000         	unimp
80006780: 399c         	fld	fa5, 0x30(a1)
80006782: 8000         	<unknown>
80006784: 0000         	unimp
80006786: 0000         	unimp
80006788: 39a8         	fld	fa0, 0x70(a1)
8000678a: 8000         	<unknown>
8000678c: 0000         	unimp
8000678e: 0000         	unimp

0000000080006790 <.LJTI9_0>:
80006790: 39fc         	fld	fa5, 0xf0(a1)
80006792: 8000         	<unknown>
80006794: 0000         	unimp
80006796: 0000         	unimp
80006798: 3a08         	fld	fa0, 0x30(a2)
8000679a: 8000         	<unknown>
8000679c: 0000         	unimp
8000679e: 0000         	unimp
800067a0: 3a14         	fld	fa3, 0x30(a2)
800067a2: 8000         	<unknown>
800067a4: 0000         	unimp
800067a6: 0000         	unimp
800067a8: 3a20         	fld	fs0, 0x70(a2)
800067aa: 8000         	<unknown>
800067ac: 0000         	unimp
800067ae: 0000         	unimp
800067b0: 3a2c         	fld	fa1, 0x70(a2)
800067b2: 8000         	<unknown>
800067b4: 0000         	unimp
800067b6: 0000         	unimp

00000000800067b8 <.LJTI10_0>:
800067b8: 3a66         	fld	fs4, 0x78(sp)
800067ba: 8000         	<unknown>
800067bc: 0000         	unimp
800067be: 0000         	unimp
800067c0: 3a72         	fld	fs4, 0x138(sp)
800067c2: 8000         	<unknown>
800067c4: 0000         	unimp
800067c6: 0000         	unimp
800067c8: 3a7e         	fld	fs4, 0x1f8(sp)
800067ca: 8000         	<unknown>
800067cc: 0000         	unimp
800067ce: 0000         	unimp
800067d0: 3a8a         	fld	fs5, 0xa0(sp)
800067d2: 8000         	<unknown>
800067d4: 0000         	unimp
800067d6: 0000         	unimp
800067d8: 3a96         	fld	fs5, 0x160(sp)
800067da: 8000         	<unknown>
800067dc: 0000         	unimp
800067de: 0000         	unimp

00000000800067e0 <.LJTI13_0>:
800067e0: 3b02         	fld	fs6, 0x20(sp)
800067e2: 8000         	<unknown>
800067e4: 0000         	unimp
800067e6: 0000         	unimp
800067e8: 3b0e         	fld	fs6, 0xe0(sp)
800067ea: 8000         	<unknown>
800067ec: 0000         	unimp
800067ee: 0000         	unimp
800067f0: 3b1a         	fld	fs6, 0x1a0(sp)
800067f2: 8000         	<unknown>
800067f4: 0000         	unimp
800067f6: 0000         	unimp
800067f8: 3b26         	fld	fs6, 0x68(sp)
800067fa: 8000         	<unknown>
800067fc: 0000         	unimp
800067fe: 0000         	unimp
80006800: 3b32         	fld	fs6, 0x128(sp)
80006802: 8000         	<unknown>
80006804: 0000         	unimp
80006806: 0000         	unimp

0000000080006808 <.Lanon.751a54723c1fe2514ef76d2367594f7a.0>:
80006808: 74 68 65 72 65 20 69 73         there is
80006810: 20 6e 6f 20 73 75 63 68          no such
80006818: 20 74 68 69 6e 67 20 61          thing a
80006820: 73 20 61 6e 20 61 63 71         s an acq
80006828: 75 69 72 65 2d 72 65 6c         uire-rel
80006830: 65 61 73 65 20 66 61 69         ease fai
80006838: 6c 75 72 65 20 6f 72 64         lure ord
80006840: 65 72 69 6e 67 00 00 00         ering...

0000000080006848 <.Lanon.751a54723c1fe2514ef76d2367594f7a.2>:
80006848: 30 53 00 80 00 00 00 00         0S......
80006850: 4f 00 00 00 00 00 00 00         O.......
80006858: a4 03 00 00 15 00 00 00         ........

0000000080006860 <.Lanon.751a54723c1fe2514ef76d2367594f7a.3>:
80006860: 74 68 65 72 65 20 69 73         there is
80006868: 20 6e 6f 20 73 75 63 68          no such
80006870: 20 74 68 69 6e 67 20 61          thing a
80006878: 73 20 61 20 72 65 6c 65         s a rele
80006880: 61 73 65 20 66 61 69 6c         ase fail
80006888: 75 72 65 20 6f 72 64 65         ure orde
80006890: 72 69 6e 67 00 00 00 00         ring....

0000000080006898 <.Lanon.751a54723c1fe2514ef76d2367594f7a.4>:
80006898: 30 53 00 80 00 00 00 00         0S......
800068a0: 4f 00 00 00 00 00 00 00         O.......
800068a8: aa 03 00 00 21 00 00 00         ....!...

00000000800068b0 <.Lanon.c54ebfb32ad3b40ea6a9f05aa97be38c.1>:
800068b0: fb 50 00 80 00 00 00 00         .P......
800068b8: 4b 00 00 00 00 00 00 00         K.......
800068c0: 71 03 00 00 2a 00 00 00         q...*...
800068c8: 30 31 32 33 34 35 36 37         01234567
800068d0: 38 39 41 42 43 44 45 46         89ABCDEF
800068d8: 00 00 00 00 00 00 00 00         ........
800068e0: 00 00 00 00 00 00 00 00         ........
800068e8: 30 31 32 33 34 35 36 37         01234567
800068f0: 38 39 61 62 63 64 65 66         89abcdef

00000000800068f8 <.Lanon.5aeef1afb50448199b2806e9c586ad3d.0>:
800068f8: 69 73 5f 61 6c 69 67 6e         is_align
80006900: 65 64 5f 74 6f 3a 20 61         ed_to: a
80006908: 6c 69 67 6e 20 69 73 20         lign is 
80006910: 6e 6f 74 20 61 20 70 6f         not a po
80006918: 77 65 72 2d 6f 66 2d 74         wer-of-t
80006920: 77 6f 00 00 00 00 00 00         wo......

0000000080006928 <.Lanon.5aeef1afb50448199b2806e9c586ad3d.2>:
80006928: aa 53 00 80 00 00 00 00         .S......
80006930: 51 00 00 00 00 00 00 00         Q.......
80006938: 5e 05 00 00 0d 00 00 00         ^.......

0000000080006940 <.Lanon.4c425ed320dac126677a186d794e48ec.0>:
80006940: 00 00                           ..

0000000080006942 <.Lanon.536f2323b683c81b361b85010efd6979.10>:
80006942: 30 30 30 31 30 32 30 33         00010203
8000694a: 30 34 30 35 30 36 30 37         04050607
80006952: 30 38 30 39 31 30 31 31         08091011
8000695a: 31 32 31 33 31 34 31 35         12131415
80006962: 31 36 31 37 31 38 31 39         16171819
8000696a: 32 30 32 31 32 32 32 33         20212223
80006972: 32 34 32 35 32 36 32 37         24252627
8000697a: 32 38 32 39 33 30 33 31         28293031
80006982: 33 32 33 33 33 34 33 35         32333435
8000698a: 33 36 33 37 33 38 33 39         36373839
80006992: 34 30 34 31 34 32 34 33         40414243
8000699a: 34 34 34 35 34 36 34 37         44454647
800069a2: 34 38 34 39 35 30 35 31         48495051
800069aa: 35 32 35 33 35 34 35 35         52535455
800069b2: 35 36 35 37 35 38 35 39         56575859
800069ba: 36 30 36 31 36 32 36 33         60616263
800069c2: 36 34 36 35 36 36 36 37         64656667
800069ca: 36 38 36 39 37 30 37 31         68697071
800069d2: 37 32 37 33 37 34 37 35         72737475
800069da: 37 36 37 37 37 38 37 39         76777879
800069e2: 38 30 38 31 38 32 38 33         80818283
800069ea: 38 34 38 35 38 36 38 37         84858687
800069f2: 38 38 38 39 39 30 39 31         88899091
800069fa: 39 32 39 33 39 34 39 35         92939495
80006a02: 39 36 39 37 39 38 39 39         96979899
80006a0a: 00 00 00 00 00 00               ......

0000000080006a10 <.Lanon.536f2323b683c81b361b85010efd6979.22>:
80006a10: 96 52 00 80 00 00 00 00         .R......
80006a18: 4b 00 00 00 00 00 00 00         K.......
80006a20: 57 02 00 00 05 00 00 00         W.......

0000000080006a28 <.Lanon.536f2323b683c81b361b85010efd6979.31>:
80006a28: 30 78                           0x

0000000080006a2a <.Lanon.536f2323b683c81b361b85010efd6979.80>:
80006a2a: 61 74 74 65 6d 70 74 20         attempt 
80006a32: 74 6f 20 61 64 64 20 77         to add w
80006a3a: 69 74 68 20 6f 76 65 72         ith over
80006a42: 66 6c 6f 77                     flow

0000000080006a46 <.Lanon.536f2323b683c81b361b85010efd6979.82>:
80006a46: 61 74 74 65 6d 70 74 20         attempt 
80006a4e: 74 6f 20 6d 75 6c 74 69         to multi
80006a56: 70 6c 79 20 77 69 74 68         ply with
80006a5e: 20 6f 76 65 72 66 6c 6f          overflo
80006a66: 77                              w

0000000080006a67 <.Lanon.536f2323b683c81b361b85010efd6979.85>:
80006a67: 61 74 74 65 6d 70 74 20         attempt 
80006a6f: 74 6f 20 73 68 69 66 74         to shift
80006a77: 20 6c 65 66 74 20 77 69          left wi
80006a7f: 74 68 20 6f 76 65 72 66         th overf
80006a87: 6c 6f 77                        low

0000000080006a8a <.Lanon.536f2323b683c81b361b85010efd6979.87>:
80006a8a: 61 74 74 65 6d 70 74 20         attempt 
80006a92: 74 6f 20 73 75 62 74 72         to subtr
80006a9a: 61 63 74 20 77 69 74 68         act with
80006aa2: 20 6f 76 65 72 66 6c 6f          overflo
80006aaa: 77                              w

0000000080006aab <.Lanon.536f2323b683c81b361b85010efd6979.259>:
80006aab: 61 74 74 65 6d 70 74 20         attempt 
80006ab3: 74 6f 20 64 69 76 69 64         to divid
80006abb: 65 20 62 79 20 7a 65 72         e by zer
80006ac3: 6f                              o

0000000080006ac4 <.Lanon.536f2323b683c81b361b85010efd6979.288>:
80006ac4: 6e 75 6c 6c 20 70 6f 69         null poi
80006acc: 6e 74 65 72 20 64 65 72         nter der
80006ad4: 65 66 65 72 65 6e 63 65         eference
80006adc: 20 6f 63 63 75 72 72 65          occurre
80006ae4: 64                              d

0000000080006ae5 <.Lanon.536f2323b683c81b361b85010efd6979.290>:
80006ae5: 3e 6d 69 73 61 6c 69 67         >misalig
80006aed: 6e 65 64 20 70 6f 69 6e         ned poin
80006af5: 74 65 72 20 64 65 72 65         ter dere
80006afd: 66 65 72 65 6e 63 65 3a         ference:
80006b05: 20 61 64 64 72 65 73 73          address
80006b0d: 20 6d 75 73 74 20 62 65          must be
80006b15: 20 61 20 6d 75 6c 74 69          a multi
80006b1d: 70 6c 65 20 6f 66 20 c1         ple of .
80006b25: 20 00 80 60 08 20 62 75          ..`. bu
80006b2d: 74 20 69 73 20 c1 20 00         t is . .
80006b35: 80 60 00                        .`.

0000000080006b38 <.Lanon.536f2323b683c81b361b85010efd6979.399>:
80006b38: 70 61 6e 69 63 6b 65 64         panicked
80006b40: 20 61 74 20                      at 

0000000080006b44 <.Lanon.536f2323b683c81b361b85010efd6979.400>:
80006b44: 3a 0a                           :.
