    Blocking waiting for file lock on package cache
    Blocking waiting for file lock on artifact directory
    Finished `dev` profile [unoptimized + debuginfo] target(s) in 0.00s

lab4_kernel_task1:	file format elf64-littleriscv

Disassembly of section .text:

0000000080000000 <_start>:
80000000: 00013117     	auipc	sp, 0x13
80000004: 01010113     	addi	sp, sp, 0x10
80000008: 00002097     	auipc	ra, 0x2
8000000c: 320080e7     	jalr	0x320(ra) <start_machine>
80000010: a001         	j	0x80000010 <_start+0x10>

0000000080000012 <core::ub_checks::maybe_is_nonoverlapping::runtime::h5a2912b89302ddd3>:
80000012: 7119         	addi	sp, sp, -0x80
80000014: fc2a         	sd	a0, 0x38(sp)
80000016: e0ae         	sd	a1, 0x40(sp)
80000018: e4b2         	sd	a2, 0x48(sp)
8000001a: e8b6         	sd	a3, 0x50(sp)
8000001c: 872a         	mv	a4, a0
8000001e: e43a         	sd	a4, 0x8(sp)
80000020: ecaa         	sd	a0, 0x58(sp)
80000022: 852e         	mv	a0, a1
80000024: e82a         	sd	a0, 0x10(sp)
80000026: f0ae         	sd	a1, 0x60(sp)
80000028: 02d605b3     	mul	a1, a2, a3
8000002c: ec2e         	sd	a1, 0x18(sp)
8000002e: 02d63533     	mulhu	a0, a2, a3
80000032: 00a03633     	snez	a2, a0
80000036: 06c107a3     	sb	a2, 0x6f(sp)
8000003a: f8ae         	sd	a1, 0x70(sp)
8000003c: ed11         	bnez	a0, 0x80000058 <.Lpcrel_hi0>
8000003e: a009         	j	0x80000040 <core::ub_checks::maybe_is_nonoverlapping::runtime::h5a2912b89302ddd3+0x2e>
80000040: 6522         	ld	a0, 0x8(sp)
80000042: 65c2         	ld	a1, 0x10(sp)
80000044: 6662         	ld	a2, 0x18(sp)
80000046: f432         	sd	a2, 0x28(sp)
80000048: 4605         	li	a2, 0x1
8000004a: f032         	sd	a2, 0x20(sp)
8000004c: 7622         	ld	a2, 0x28(sp)
8000004e: e032         	sd	a2, 0x0(sp)
80000050: fcb2         	sd	a2, 0x78(sp)
80000052: 02b56263     	bltu	a0, a1, 0x80000076 <.Lpcrel_hi0+0x1e>
80000056: a819         	j	0x8000006c <.Lpcrel_hi0+0x14>

0000000080000058 <.Lpcrel_hi0>:
80000058: 00004517     	auipc	a0, 0x4
8000005c: 36050513     	addi	a0, a0, 0x360
80000060: 03d00593     	li	a1, 0x3d
80000064: 00004097     	auipc	ra, 0x4
80000068: f3a080e7     	jalr	-0xc6(ra) <core::panicking::panic_nounwind::hf19a354d0b2d9097>
8000006c: 6522         	ld	a0, 0x8(sp)
8000006e: 65c2         	ld	a1, 0x10(sp)
80000070: 8d0d         	sub	a0, a0, a1
80000072: f82a         	sd	a0, 0x30(sp)
80000074: a031         	j	0x80000080 <.Lpcrel_hi0+0x28>
80000076: 6542         	ld	a0, 0x10(sp)
80000078: 65a2         	ld	a1, 0x8(sp)
8000007a: 8d0d         	sub	a0, a0, a1
8000007c: f82a         	sd	a0, 0x30(sp)
8000007e: a009         	j	0x80000080 <.Lpcrel_hi0+0x28>
80000080: 6582         	ld	a1, 0x0(sp)
80000082: 7542         	ld	a0, 0x30(sp)
80000084: 00b53533     	sltu	a0, a0, a1
80000088: 00154513     	xori	a0, a0, 0x1
8000008c: 6109         	addi	sp, sp, 0x80
8000008e: 8082         	ret

0000000080000090 <core::str::_$LT$impl$u20$str$GT$::bytes::h0bc3828a91e3f8b7>:
80000090: 1141         	addi	sp, sp, -0x10
80000092: e02a         	sd	a0, 0x0(sp)
80000094: e42e         	sd	a1, 0x8(sp)
80000096: 95aa         	add	a1, a1, a0
80000098: 0141         	addi	sp, sp, 0x10
8000009a: 8082         	ret

000000008000009c <_$LT$core..slice..iter..Iter$LT$T$GT$$u20$as$u20$core..iter..traits..iterator..Iterator$GT$::next::hb117a1a4fc0fb839>:
8000009c: 715d         	addi	sp, sp, -0x50
8000009e: e42a         	sd	a0, 0x8(sp)
800000a0: f42a         	sd	a0, 0x28(sp)
800000a2: 4585         	li	a1, 0x1
800000a4: f82e         	sd	a1, 0x30(sp)
800000a6: fc2e         	sd	a1, 0x38(sp)
800000a8: 610c         	ld	a1, 0x0(a0)
800000aa: e82e         	sd	a1, 0x10(sp)
800000ac: e0ae         	sd	a1, 0x40(sp)
800000ae: 6508         	ld	a0, 0x8(a0)
800000b0: ec2a         	sd	a0, 0x18(sp)
800000b2: e4aa         	sd	a0, 0x48(sp)
800000b4: a009         	j	0x800000b6 <_$LT$core..slice..iter..Iter$LT$T$GT$$u20$as$u20$core..iter..traits..iterator..Iterator$GT$::next::hb117a1a4fc0fb839+0x1a>
800000b6: 6542         	ld	a0, 0x10(sp)
800000b8: 65e2         	ld	a1, 0x18(sp)
800000ba: 00b50863     	beq	a0, a1, 0x800000ca <_$LT$core..slice..iter..Iter$LT$T$GT$$u20$as$u20$core..iter..traits..iterator..Iterator$GT$::next::hb117a1a4fc0fb839+0x2e>
800000be: a009         	j	0x800000c0 <_$LT$core..slice..iter..Iter$LT$T$GT$$u20$as$u20$core..iter..traits..iterator..Iterator$GT$::next::hb117a1a4fc0fb839+0x24>
800000c0: 65a2         	ld	a1, 0x8(sp)
800000c2: 6542         	ld	a0, 0x10(sp)
800000c4: 0505         	addi	a0, a0, 0x1
800000c6: e188         	sd	a0, 0x0(a1)
800000c8: a021         	j	0x800000d0 <_$LT$core..slice..iter..Iter$LT$T$GT$$u20$as$u20$core..iter..traits..iterator..Iterator$GT$::next::hb117a1a4fc0fb839+0x34>
800000ca: 4501         	li	a0, 0x0
800000cc: f02a         	sd	a0, 0x20(sp)
800000ce: a039         	j	0x800000dc <_$LT$core..slice..iter..Iter$LT$T$GT$$u20$as$u20$core..iter..traits..iterator..Iterator$GT$::next::hb117a1a4fc0fb839+0x40>
800000d0: 6542         	ld	a0, 0x10(sp)
800000d2: f02a         	sd	a0, 0x20(sp)
800000d4: a009         	j	0x800000d6 <_$LT$core..slice..iter..Iter$LT$T$GT$$u20$as$u20$core..iter..traits..iterator..Iterator$GT$::next::hb117a1a4fc0fb839+0x3a>
800000d6: 7502         	ld	a0, 0x20(sp)
800000d8: 6161         	addi	sp, sp, 0x50
800000da: 8082         	ret
800000dc: bfed         	j	0x800000d6 <_$LT$core..slice..iter..Iter$LT$T$GT$$u20$as$u20$core..iter..traits..iterator..Iterator$GT$::next::hb117a1a4fc0fb839+0x3a>

00000000800000de <core::fmt::Arguments::as_statically_known_str::hc756b294b9fca5d0>:
800000de: 7119         	addi	sp, sp, -0x80
800000e0: fc86         	sd	ra, 0x78(sp)
800000e2: ec2a         	sd	a0, 0x18(sp)
800000e4: fc2a         	sd	a0, 0x38(sp)
800000e6: 6508         	ld	a0, 0x8(a0)
800000e8: f02a         	sd	a0, 0x20(sp)
800000ea: e0aa         	sd	a0, 0x40(sp)
800000ec: 8905         	andi	a0, a0, 0x1
800000ee: cd01         	beqz	a0, 0x80000106 <.Lpcrel_hi0>
800000f0: a009         	j	0x800000f2 <core::fmt::Arguments::as_statically_known_str::hc756b294b9fca5d0+0x14>
800000f2: 7502         	ld	a0, 0x20(sp)
800000f4: 65e2         	ld	a1, 0x18(sp)
800000f6: 618c         	ld	a1, 0x0(a1)
800000f8: e42e         	sd	a1, 0x8(sp)
800000fa: e4ae         	sd	a1, 0x48(sp)
800000fc: e8ae         	sd	a1, 0x50(sp)
800000fe: 8105         	srli	a0, a0, 0x1
80000100: e82a         	sd	a0, 0x10(sp)
80000102: ecaa         	sd	a0, 0x58(sp)
80000104: a811         	j	0x80000118 <.Lpcrel_hi0+0x12>

0000000080000106 <.Lpcrel_hi0>:
80000106: 00004517     	auipc	a0, 0x4
8000010a: 79a50513     	addi	a0, a0, 0x79a
8000010e: 610c         	ld	a1, 0x0(a0)
80000110: 6508         	ld	a0, 0x8(a0)
80000112: f42e         	sd	a1, 0x28(sp)
80000114: f82a         	sd	a0, 0x30(sp)
80000116: a02d         	j	0x80000140 <.Lpcrel_hi1+0x24>
80000118: 66c2         	ld	a3, 0x10(sp)
8000011a: 6522         	ld	a0, 0x8(sp)

000000008000011c <.Lpcrel_hi1>:
8000011c: 00004597     	auipc	a1, 0x4
80000120: 75c58713     	addi	a4, a1, 0x75c
80000124: 4605         	li	a2, 0x1
80000126: 85b2         	mv	a1, a2
80000128: 00003097     	auipc	ra, 0x3
8000012c: c28080e7     	jalr	-0x3d8(ra) <core::slice::raw::from_raw_parts::precondition_check::h3fe0dedbc1e371ea>
80000130: a009         	j	0x80000132 <.Lpcrel_hi1+0x16>
80000132: 6542         	ld	a0, 0x10(sp)
80000134: 65a2         	ld	a1, 0x8(sp)
80000136: f0ae         	sd	a1, 0x60(sp)
80000138: f4aa         	sd	a0, 0x68(sp)
8000013a: f42e         	sd	a1, 0x28(sp)
8000013c: f82a         	sd	a0, 0x30(sp)
8000013e: a009         	j	0x80000140 <.Lpcrel_hi1+0x24>
80000140: 4501         	li	a0, 0x0
80000142: 06a10ba3     	sb	a0, 0x77(sp)
80000146: 07714503     	lbu	a0, 0x77(sp)
8000014a: 8905         	andi	a0, a0, 0x1
8000014c: e919         	bnez	a0, 0x80000162 <.Lpcrel_hi2+0x12>
8000014e: a009         	j	0x80000150 <.Lpcrel_hi2>

0000000080000150 <.Lpcrel_hi2>:
80000150: 00004517     	auipc	a0, 0x4
80000154: 75050513     	addi	a0, a0, 0x750
80000158: 610c         	ld	a1, 0x0(a0)
8000015a: 6508         	ld	a0, 0x8(a0)
8000015c: f42e         	sd	a1, 0x28(sp)
8000015e: f82a         	sd	a0, 0x30(sp)
80000160: a011         	j	0x80000164 <.Lpcrel_hi2+0x14>
80000162: a009         	j	0x80000164 <.Lpcrel_hi2+0x14>
80000164: 7522         	ld	a0, 0x28(sp)
80000166: 75c2         	ld	a1, 0x30(sp)
80000168: 70e6         	ld	ra, 0x78(sp)
8000016a: 6109         	addi	sp, sp, 0x80
8000016c: 8082         	ret

000000008000016e <core::fmt::Arguments::from_str::hf314c9ed1c598c7e>:
8000016e: 1141         	addi	sp, sp, -0x10
80000170: e02a         	sd	a0, 0x0(sp)
80000172: e42e         	sd	a1, 0x8(sp)
80000174: 0586         	slli	a1, a1, 0x1
80000176: 0585         	addi	a1, a1, 0x1
80000178: 0141         	addi	sp, sp, 0x10
8000017a: 8082         	ret

000000008000017c <core::fmt::Formatter::write_fmt::h9b74350a18fd76e6>:
8000017c: 715d         	addi	sp, sp, -0x50
8000017e: e486         	sd	ra, 0x48(sp)
80000180: e02a         	sd	a0, 0x0(sp)
80000182: e42e         	sd	a1, 0x8(sp)
80000184: e832         	sd	a2, 0x10(sp)
80000186: f82a         	sd	a0, 0x30(sp)
80000188: 0028         	addi	a0, sp, 0x8
8000018a: 00000097     	auipc	ra, 0x0
8000018e: f54080e7     	jalr	-0xac(ra) <core::fmt::Arguments::as_statically_known_str::hc756b294b9fca5d0>
80000192: f02a         	sd	a0, 0x20(sp)
80000194: f42e         	sd	a1, 0x28(sp)
80000196: 7502         	ld	a0, 0x20(sp)
80000198: cd11         	beqz	a0, 0x800001b4 <core::fmt::Formatter::write_fmt::h9b74350a18fd76e6+0x38>
8000019a: a009         	j	0x8000019c <core::fmt::Formatter::write_fmt::h9b74350a18fd76e6+0x20>
8000019c: 6682         	ld	a3, 0x0(sp)
8000019e: 7582         	ld	a1, 0x20(sp)
800001a0: 7622         	ld	a2, 0x28(sp)
800001a2: fc2e         	sd	a1, 0x38(sp)
800001a4: e0b2         	sd	a2, 0x40(sp)
800001a6: 6288         	ld	a0, 0x0(a3)
800001a8: 6694         	ld	a3, 0x8(a3)
800001aa: 6e94         	ld	a3, 0x18(a3)
800001ac: 9682         	jalr	a3
800001ae: 00a10fa3     	sb	a0, 0x1f(sp)
800001b2: a829         	j	0x800001cc <core::fmt::Formatter::write_fmt::h9b74350a18fd76e6+0x50>
800001b4: 6582         	ld	a1, 0x0(sp)
800001b6: 6188         	ld	a0, 0x0(a1)
800001b8: 658c         	ld	a1, 0x8(a1)
800001ba: 6622         	ld	a2, 0x8(sp)
800001bc: 66c2         	ld	a3, 0x10(sp)
800001be: 00003097     	auipc	ra, 0x3
800001c2: 58e080e7     	jalr	0x58e(ra) <core::fmt::write::hfd17e9e8e823b619>
800001c6: 00a10fa3     	sb	a0, 0x1f(sp)
800001ca: a009         	j	0x800001cc <core::fmt::Formatter::write_fmt::h9b74350a18fd76e6+0x50>
800001cc: 01f14503     	lbu	a0, 0x1f(sp)
800001d0: 60a6         	ld	ra, 0x48(sp)
800001d2: 6161         	addi	sp, sp, 0x50
800001d4: 8082         	ret

00000000800001d6 <core::iter::range::_$LT$impl$u20$core..iter..traits..iterator..Iterator$u20$for$u20$core..ops..range..Range$LT$A$GT$$GT$::next::h53730fe1ae44bb6d>:
800001d6: 1141         	addi	sp, sp, -0x10
800001d8: e406         	sd	ra, 0x8(sp)
800001da: e02a         	sd	a0, 0x0(sp)
800001dc: 00000097     	auipc	ra, 0x0
800001e0: 018080e7     	jalr	0x18(ra) <_$LT$core..ops..range..Range$LT$T$GT$$u20$as$u20$core..iter..range..RangeIteratorImpl$GT$::spec_next::hff185fd56c285052>
800001e4: 60a2         	ld	ra, 0x8(sp)
800001e6: 0141         	addi	sp, sp, 0x10
800001e8: 8082         	ret

00000000800001ea <_$LT$I$u20$as$u20$core..iter..traits..collect..IntoIterator$GT$::into_iter::hd84722667483065b>:
800001ea: 1141         	addi	sp, sp, -0x10
800001ec: e02a         	sd	a0, 0x0(sp)
800001ee: e42e         	sd	a1, 0x8(sp)
800001f0: 0141         	addi	sp, sp, 0x10
800001f2: 8082         	ret

00000000800001f4 <_$LT$core..ops..range..Range$LT$T$GT$$u20$as$u20$core..iter..range..RangeIteratorImpl$GT$::spec_next::hff185fd56c285052>:
800001f4: 715d         	addi	sp, sp, -0x50
800001f6: e486         	sd	ra, 0x48(sp)
800001f8: 85aa         	mv	a1, a0
800001fa: e82e         	sd	a1, 0x10(sp)
800001fc: f42e         	sd	a1, 0x28(sp)
800001fe: 00858513     	addi	a0, a1, 0x8
80000202: fc2e         	sd	a1, 0x38(sp)
80000204: e0aa         	sd	a0, 0x40(sp)
80000206: 6188         	ld	a0, 0x0(a1)
80000208: 658c         	ld	a1, 0x8(a1)
8000020a: 00b56663     	bltu	a0, a1, 0x80000216 <_$LT$core..ops..range..Range$LT$T$GT$$u20$as$u20$core..iter..range..RangeIteratorImpl$GT$::spec_next::hff185fd56c285052+0x22>
8000020e: a009         	j	0x80000210 <_$LT$core..ops..range..Range$LT$T$GT$$u20$as$u20$core..iter..range..RangeIteratorImpl$GT$::spec_next::hff185fd56c285052+0x1c>
80000210: 4501         	li	a0, 0x0
80000212: ec2a         	sd	a0, 0x18(sp)
80000214: a01d         	j	0x8000023a <_$LT$core..ops..range..Range$LT$T$GT$$u20$as$u20$core..iter..range..RangeIteratorImpl$GT$::spec_next::hff185fd56c285052+0x46>
80000216: 6542         	ld	a0, 0x10(sp)
80000218: 6108         	ld	a0, 0x0(a0)
8000021a: e02a         	sd	a0, 0x0(sp)
8000021c: f82a         	sd	a0, 0x30(sp)
8000021e: 4585         	li	a1, 0x1
80000220: e42e         	sd	a1, 0x8(sp)
80000222: 00002097     	auipc	ra, 0x2
80000226: 608080e7     	jalr	0x608(ra) <_$LT$usize$u20$as$u20$core..iter..range..Step$GT$::forward_unchecked::h2e89fafb93465329>
8000022a: 66c2         	ld	a3, 0x10(sp)
8000022c: 6582         	ld	a1, 0x0(sp)
8000022e: 862a         	mv	a2, a0
80000230: 6522         	ld	a0, 0x8(sp)
80000232: e290         	sd	a2, 0x0(a3)
80000234: f02e         	sd	a1, 0x20(sp)
80000236: ec2a         	sd	a0, 0x18(sp)
80000238: a009         	j	0x8000023a <_$LT$core..ops..range..Range$LT$T$GT$$u20$as$u20$core..iter..range..RangeIteratorImpl$GT$::spec_next::hff185fd56c285052+0x46>
8000023a: 6562         	ld	a0, 0x18(sp)
8000023c: 7582         	ld	a1, 0x20(sp)
8000023e: 60a6         	ld	ra, 0x48(sp)
80000240: 6161         	addi	sp, sp, 0x50
80000242: 8082         	ret

0000000080000244 <_$LT$usize$u20$as$u20$core..slice..index..SliceIndex$LT$$u5b$T$u5d$$GT$$GT$::get_unchecked::precondition_check::h5de7a599af21d523>:
80000244: 7179         	addi	sp, sp, -0x30
80000246: e432         	sd	a2, 0x8(sp)
80000248: e82a         	sd	a0, 0x10(sp)
8000024a: ec2e         	sd	a1, 0x18(sp)
8000024c: 02b56363     	bltu	a0, a1, 0x80000272 <.Lpcrel_hi0+0x1e>
80000250: a009         	j	0x80000252 <_$LT$usize$u20$as$u20$core..slice..index..SliceIndex$LT$$u5b$T$u5d$$GT$$GT$::get_unchecked::precondition_check::h5de7a599af21d523+0xe>
80000252: 66a2         	ld	a3, 0x8(sp)

0000000080000254 <.Lpcrel_hi0>:
80000254: 00004517     	auipc	a0, 0x4
80000258: 66c50513     	addi	a0, a0, 0x66c
8000025c: f02a         	sd	a0, 0x20(sp)
8000025e: 0d600593     	li	a1, 0xd6
80000262: f42e         	sd	a1, 0x28(sp)
80000264: 1ad00593     	li	a1, 0x1ad
80000268: 4601         	li	a2, 0x0
8000026a: 00004097     	auipc	ra, 0x4
8000026e: d8e080e7     	jalr	-0x272(ra) <core::panicking::panic_nounwind_fmt::h2e018e50a8d3bc73>
80000272: 6145         	addi	sp, sp, 0x30
80000274: 8082         	ret

0000000080000276 <core::fmt::rt::Argument::new_display::h0bb7bd39743f5df9>:
80000276: 1101         	addi	sp, sp, -0x20
80000278: e02e         	sd	a1, 0x0(sp)
8000027a: 85aa         	mv	a1, a0
8000027c: 6502         	ld	a0, 0x0(sp)
8000027e: ec2a         	sd	a0, 0x18(sp)
80000280: e42a         	sd	a0, 0x8(sp)

0000000080000282 <.Lpcrel_hi0>:
80000282: 00002517     	auipc	a0, 0x2
80000286: 4c050513     	addi	a0, a0, 0x4c0
8000028a: e82a         	sd	a0, 0x10(sp)
8000028c: 6542         	ld	a0, 0x10(sp)
8000028e: e588         	sd	a0, 0x8(a1)
80000290: 6522         	ld	a0, 0x8(sp)
80000292: e188         	sd	a0, 0x0(a1)
80000294: 6105         	addi	sp, sp, 0x20
80000296: 8082         	ret

0000000080000298 <core::fmt::rt::Argument::new_display::h0cafb074541621a0>:
80000298: 1101         	addi	sp, sp, -0x20
8000029a: e02e         	sd	a1, 0x0(sp)
8000029c: 85aa         	mv	a1, a0
8000029e: 6502         	ld	a0, 0x0(sp)
800002a0: ec2a         	sd	a0, 0x18(sp)
800002a2: e42a         	sd	a0, 0x8(sp)

00000000800002a4 <.Lpcrel_hi1>:
800002a4: 00003517     	auipc	a0, 0x3
800002a8: 3a850513     	addi	a0, a0, 0x3a8
800002ac: e82a         	sd	a0, 0x10(sp)
800002ae: 6542         	ld	a0, 0x10(sp)
800002b0: e588         	sd	a0, 0x8(a1)
800002b2: 6522         	ld	a0, 0x8(sp)
800002b4: e188         	sd	a0, 0x0(a1)
800002b6: 6105         	addi	sp, sp, 0x20
800002b8: 8082         	ret

00000000800002ba <core::fmt::rt::Argument::new_display::h130bc57604401dd9>:
800002ba: 1101         	addi	sp, sp, -0x20
800002bc: e02e         	sd	a1, 0x0(sp)
800002be: 85aa         	mv	a1, a0
800002c0: 6502         	ld	a0, 0x0(sp)
800002c2: ec2a         	sd	a0, 0x18(sp)
800002c4: e42a         	sd	a0, 0x8(sp)

00000000800002c6 <.Lpcrel_hi2>:
800002c6: 00002517     	auipc	a0, 0x2
800002ca: 5b250513     	addi	a0, a0, 0x5b2
800002ce: e82a         	sd	a0, 0x10(sp)
800002d0: 6542         	ld	a0, 0x10(sp)
800002d2: e588         	sd	a0, 0x8(a1)
800002d4: 6522         	ld	a0, 0x8(sp)
800002d6: e188         	sd	a0, 0x0(a1)
800002d8: 6105         	addi	sp, sp, 0x20
800002da: 8082         	ret

00000000800002dc <core::fmt::rt::Argument::new_display::h45668c1f8b76f40a>:
800002dc: 1101         	addi	sp, sp, -0x20
800002de: e02e         	sd	a1, 0x0(sp)
800002e0: 85aa         	mv	a1, a0
800002e2: 6502         	ld	a0, 0x0(sp)
800002e4: ec2a         	sd	a0, 0x18(sp)
800002e6: e42a         	sd	a0, 0x8(sp)

00000000800002e8 <.Lpcrel_hi3>:
800002e8: 00003517     	auipc	a0, 0x3
800002ec: e4a50513     	addi	a0, a0, -0x1b6
800002f0: e82a         	sd	a0, 0x10(sp)
800002f2: 6542         	ld	a0, 0x10(sp)
800002f4: e588         	sd	a0, 0x8(a1)
800002f6: 6522         	ld	a0, 0x8(sp)
800002f8: e188         	sd	a0, 0x0(a1)
800002fa: 6105         	addi	sp, sp, 0x20
800002fc: 8082         	ret

00000000800002fe <core::fmt::rt::Argument::new_display::hf358f8cf7955ba58>:
800002fe: 1101         	addi	sp, sp, -0x20
80000300: e02e         	sd	a1, 0x0(sp)
80000302: 85aa         	mv	a1, a0
80000304: 6502         	ld	a0, 0x0(sp)
80000306: ec2a         	sd	a0, 0x18(sp)
80000308: e42a         	sd	a0, 0x8(sp)

000000008000030a <.Lpcrel_hi4>:
8000030a: 00002517     	auipc	a0, 0x2
8000030e: cb850513     	addi	a0, a0, -0x348
80000312: e82a         	sd	a0, 0x10(sp)
80000314: 6542         	ld	a0, 0x10(sp)
80000316: e588         	sd	a0, 0x8(a1)
80000318: 6522         	ld	a0, 0x8(sp)
8000031a: e188         	sd	a0, 0x0(a1)
8000031c: 6105         	addi	sp, sp, 0x20
8000031e: 8082         	ret

0000000080000320 <core::fmt::rt::Argument::new_lower_hex::h1a0176f9d1efc27f>:
80000320: 1101         	addi	sp, sp, -0x20
80000322: e02e         	sd	a1, 0x0(sp)
80000324: 85aa         	mv	a1, a0
80000326: 6502         	ld	a0, 0x0(sp)
80000328: ec2a         	sd	a0, 0x18(sp)
8000032a: e42a         	sd	a0, 0x8(sp)

000000008000032c <.Lpcrel_hi5>:
8000032c: 00003517     	auipc	a0, 0x3
80000330: 36c50513     	addi	a0, a0, 0x36c
80000334: e82a         	sd	a0, 0x10(sp)
80000336: 6542         	ld	a0, 0x10(sp)
80000338: e588         	sd	a0, 0x8(a1)
8000033a: 6522         	ld	a0, 0x8(sp)
8000033c: e188         	sd	a0, 0x0(a1)
8000033e: 6105         	addi	sp, sp, 0x20
80000340: 8082         	ret

0000000080000342 <core::fmt::rt::Argument::new_lower_hex::hd4789b212b1113cd>:
80000342: 1101         	addi	sp, sp, -0x20
80000344: e02e         	sd	a1, 0x0(sp)
80000346: 85aa         	mv	a1, a0
80000348: 6502         	ld	a0, 0x0(sp)
8000034a: ec2a         	sd	a0, 0x18(sp)
8000034c: e42a         	sd	a0, 0x8(sp)

000000008000034e <.Lpcrel_hi6>:
8000034e: 00003517     	auipc	a0, 0x3
80000352: 34a50513     	addi	a0, a0, 0x34a
80000356: e82a         	sd	a0, 0x10(sp)
80000358: 6542         	ld	a0, 0x10(sp)
8000035a: e588         	sd	a0, 0x8(a1)
8000035c: 6522         	ld	a0, 0x8(sp)
8000035e: e188         	sd	a0, 0x0(a1)
80000360: 6105         	addi	sp, sp, 0x20
80000362: 8082         	ret

0000000080000364 <core::fmt::Write::write_char::h5d98f9ab9d8c7bcc>:
80000364: 711d         	addi	sp, sp, -0x60
80000366: ec86         	sd	ra, 0x58(sp)
80000368: e42e         	sd	a1, 0x8(sp)
8000036a: 85aa         	mv	a1, a0
8000036c: 6522         	ld	a0, 0x8(sp)
8000036e: e82e         	sd	a1, 0x10(sp)
80000370: f42e         	sd	a1, 0x28(sp)
80000372: da2a         	sw	a0, 0x34(sp)
80000374: 4581         	li	a1, 0x0
80000376: d22e         	sw	a1, 0x24(sp)
80000378: 104c         	addi	a1, sp, 0x24
8000037a: fc2e         	sd	a1, 0x38(sp)
8000037c: 4611         	li	a2, 0x4
8000037e: e0b2         	sd	a2, 0x40(sp)
80000380: 00003097     	auipc	ra, 0x3
80000384: b14080e7     	jalr	-0x4ec(ra) <core::char::methods::encode_utf8_raw::h09f41e913191e858>
80000388: 862a         	mv	a2, a0
8000038a: 6542         	ld	a0, 0x10(sp)
8000038c: ec32         	sd	a2, 0x18(sp)
8000038e: 862e         	mv	a2, a1
80000390: 65e2         	ld	a1, 0x18(sp)
80000392: e4ae         	sd	a1, 0x48(sp)
80000394: e8b2         	sd	a2, 0x50(sp)
80000396: 00002097     	auipc	ra, 0x2
8000039a: 750080e7     	jalr	0x750(ra) <_$LT$lab4_kernel_task1..console..KernelConsole$u20$as$u20$core..fmt..Write$GT$::write_str::hccc695331ce431ef>
8000039e: 60e6         	ld	ra, 0x58(sp)
800003a0: 6125         	addi	sp, sp, 0x60
800003a2: 8082         	ret

00000000800003a4 <core::fmt::Write::write_fmt::ha021e4ca7039adf9>:
800003a4: 1101         	addi	sp, sp, -0x20
800003a6: ec06         	sd	ra, 0x18(sp)
800003a8: e02a         	sd	a0, 0x0(sp)
800003aa: e42e         	sd	a1, 0x8(sp)
800003ac: e832         	sd	a2, 0x10(sp)
800003ae: 00000097     	auipc	ra, 0x0
800003b2: 00e080e7     	jalr	0xe(ra) <_$LT$$RF$mut$u20$W$u20$as$u20$core..fmt..Write..write_fmt..SpecWriteFmt$GT$::spec_write_fmt::h2fb7da4bc7baaa38>
800003b6: 60e2         	ld	ra, 0x18(sp)
800003b8: 6105         	addi	sp, sp, 0x20
800003ba: 8082         	ret

00000000800003bc <_$LT$$RF$mut$u20$W$u20$as$u20$core..fmt..Write..write_fmt..SpecWriteFmt$GT$::spec_write_fmt::h2fb7da4bc7baaa38>:
800003bc: 715d         	addi	sp, sp, -0x50
800003be: e486         	sd	ra, 0x48(sp)
800003c0: e02a         	sd	a0, 0x0(sp)
800003c2: e42e         	sd	a1, 0x8(sp)
800003c4: e832         	sd	a2, 0x10(sp)
800003c6: f82a         	sd	a0, 0x30(sp)
800003c8: 0028         	addi	a0, sp, 0x8
800003ca: 00000097     	auipc	ra, 0x0
800003ce: d14080e7     	jalr	-0x2ec(ra) <core::fmt::Arguments::as_statically_known_str::hc756b294b9fca5d0>
800003d2: f02a         	sd	a0, 0x20(sp)
800003d4: f42e         	sd	a1, 0x28(sp)
800003d6: 7502         	ld	a0, 0x20(sp)
800003d8: cd11         	beqz	a0, 0x800003f4 <_$LT$$RF$mut$u20$W$u20$as$u20$core..fmt..Write..write_fmt..SpecWriteFmt$GT$::spec_write_fmt::h2fb7da4bc7baaa38+0x38>
800003da: a009         	j	0x800003dc <_$LT$$RF$mut$u20$W$u20$as$u20$core..fmt..Write..write_fmt..SpecWriteFmt$GT$::spec_write_fmt::h2fb7da4bc7baaa38+0x20>
800003dc: 6502         	ld	a0, 0x0(sp)
800003de: 7582         	ld	a1, 0x20(sp)
800003e0: 7622         	ld	a2, 0x28(sp)
800003e2: fc2e         	sd	a1, 0x38(sp)
800003e4: e0b2         	sd	a2, 0x40(sp)
800003e6: 00002097     	auipc	ra, 0x2
800003ea: 700080e7     	jalr	0x700(ra) <_$LT$lab4_kernel_task1..console..KernelConsole$u20$as$u20$core..fmt..Write$GT$::write_str::hccc695331ce431ef>
800003ee: 00a10fa3     	sb	a0, 0x1f(sp)
800003f2: a839         	j	0x80000410 <.Lpcrel_hi0+0x16>
800003f4: 6502         	ld	a0, 0x0(sp)
800003f6: 6622         	ld	a2, 0x8(sp)
800003f8: 66c2         	ld	a3, 0x10(sp)

00000000800003fa <.Lpcrel_hi0>:
800003fa: 00004597     	auipc	a1, 0x4
800003fe: 59e58593     	addi	a1, a1, 0x59e
80000402: 00003097     	auipc	ra, 0x3
80000406: 34a080e7     	jalr	0x34a(ra) <core::fmt::write::hfd17e9e8e823b619>
8000040a: 00a10fa3     	sb	a0, 0x1f(sp)
8000040e: a009         	j	0x80000410 <.Lpcrel_hi0+0x16>
80000410: 01f14503     	lbu	a0, 0x1f(sp)
80000414: 60a6         	ld	ra, 0x48(sp)
80000416: 6161         	addi	sp, sp, 0x50
80000418: 8082         	ret

000000008000041a <_$LT$core..str..iter..Bytes$u20$as$u20$core..iter..traits..iterator..Iterator$GT$::next::h137a59da96abe29a>:
8000041a: 7179         	addi	sp, sp, -0x30
8000041c: f406         	sd	ra, 0x28(sp)
8000041e: ec2a         	sd	a0, 0x18(sp)
80000420: 00000097     	auipc	ra, 0x0
80000424: c7c080e7     	jalr	-0x384(ra) <_$LT$core..slice..iter..Iter$LT$T$GT$$u20$as$u20$core..iter..traits..iterator..Iterator$GT$::next::hb117a1a4fc0fb839>
80000428: e82a         	sd	a0, 0x10(sp)
8000042a: 6542         	ld	a0, 0x10(sp)
8000042c: cd09         	beqz	a0, 0x80000446 <.Lpcrel_hi0>
8000042e: a009         	j	0x80000430 <_$LT$core..str..iter..Bytes$u20$as$u20$core..iter..traits..iterator..Iterator$GT$::next::h137a59da96abe29a+0x16>
80000430: 6542         	ld	a0, 0x10(sp)
80000432: 00054503     	lbu	a0, 0x0(a0)
80000436: 02a103a3     	sb	a0, 0x27(sp)
8000043a: 00a107a3     	sb	a0, 0xf(sp)
8000043e: 4505         	li	a0, 0x1
80000440: 00a10723     	sb	a0, 0xe(sp)
80000444: a831         	j	0x80000460 <.Lpcrel_hi0+0x1a>

0000000080000446 <.Lpcrel_hi0>:
80000446: 00004517     	auipc	a0, 0x4
8000044a: 58250513     	addi	a0, a0, 0x582
8000044e: 00054583     	lbu	a1, 0x0(a0)
80000452: 00154503     	lbu	a0, 0x1(a0)
80000456: 00b10723     	sb	a1, 0xe(sp)
8000045a: 00a107a3     	sb	a0, 0xf(sp)
8000045e: a009         	j	0x80000460 <.Lpcrel_hi0+0x1a>
80000460: 00e14503     	lbu	a0, 0xe(sp)
80000464: 00f14583     	lbu	a1, 0xf(sp)
80000468: 70a2         	ld	ra, 0x28(sp)
8000046a: 6145         	addi	sp, sp, 0x30
8000046c: 8082         	ret
8000046e: 0000         	unimp

0000000080000470 <enter_supervisor>:
80000470: 34151073     	csrw	mepc, a0
80000474: 300022f3     	csrr	t0, mstatus
80000478: 430d         	li	t1, 0x3
8000047a: 032e         	slli	t1, t1, 0xb
8000047c: fff34313     	not	t1, t1
80000480: 0062f2b3     	and	t0, t0, t1
80000484: 4305         	li	t1, 0x1
80000486: 032e         	slli	t1, t1, 0xb
80000488: 0062e2b3     	or	t0, t0, t1
8000048c: 30029073     	csrw	mstatus, t0
80000490: 812e         	mv	sp, a1
80000492: 30200073     	mret

0000000080000496 <enter_user_task>:
80000496: 8faa         	mv	t6, a0
80000498: 14059073     	csrw	sscratch, a1
8000049c: 0f8fb283     	ld	t0, 0xf8(t6)
800004a0: 14129073     	csrw	sepc, t0
800004a4: 100022f3     	csrr	t0, sstatus
800004a8: 12200313     	li	t1, 0x122
800004ac: fff34313     	not	t1, t1
800004b0: 0062f2b3     	and	t0, t0, t1
800004b4: 02000313     	li	t1, 0x20
800004b8: 0062e2b3     	or	t0, t0, t1
800004bc: 10029073     	csrw	sstatus, t0
800004c0: 000fb083     	ld	ra, 0x0(t6)
800004c4: 008fb183     	ld	gp, 0x8(t6)
800004c8: 010fb203     	ld	tp, 0x10(t6)
800004cc: 018fb283     	ld	t0, 0x18(t6)
800004d0: 020fb303     	ld	t1, 0x20(t6)
800004d4: 028fb383     	ld	t2, 0x28(t6)
800004d8: 030fb403     	ld	s0, 0x30(t6)
800004dc: 038fb483     	ld	s1, 0x38(t6)
800004e0: 040fb503     	ld	a0, 0x40(t6)
800004e4: 048fb583     	ld	a1, 0x48(t6)
800004e8: 050fb603     	ld	a2, 0x50(t6)
800004ec: 058fb683     	ld	a3, 0x58(t6)
800004f0: 060fb703     	ld	a4, 0x60(t6)
800004f4: 068fb783     	ld	a5, 0x68(t6)
800004f8: 070fb803     	ld	a6, 0x70(t6)
800004fc: 078fb883     	ld	a7, 0x78(t6)
80000500: 080fb903     	ld	s2, 0x80(t6)
80000504: 088fb983     	ld	s3, 0x88(t6)
80000508: 090fba03     	ld	s4, 0x90(t6)
8000050c: 098fba83     	ld	s5, 0x98(t6)
80000510: 0a0fbb03     	ld	s6, 0xa0(t6)
80000514: 0a8fbb83     	ld	s7, 0xa8(t6)
80000518: 0b0fbc03     	ld	s8, 0xb0(t6)
8000051c: 0b8fbc83     	ld	s9, 0xb8(t6)
80000520: 0c0fbd03     	ld	s10, 0xc0(t6)
80000524: 0c8fbd83     	ld	s11, 0xc8(t6)
80000528: 0d0fbe03     	ld	t3, 0xd0(t6)
8000052c: 0d8fbe83     	ld	t4, 0xd8(t6)
80000530: 0e0fbf03     	ld	t5, 0xe0(t6)
80000534: 0f0fb103     	ld	sp, 0xf0(t6)
80000538: 0e8fbf83     	ld	t6, 0xe8(t6)
8000053c: 10200073     	sret

0000000080000540 <machine_trap_entry>:
80000540: 34011173     	csrrw	sp, mscratch, sp
80000544: 7111         	addi	sp, sp, -0x100
80000546: e006         	sd	ra, 0x0(sp)
80000548: e40e         	sd	gp, 0x8(sp)
8000054a: e812         	sd	tp, 0x10(sp)
8000054c: ec16         	sd	t0, 0x18(sp)
8000054e: f01a         	sd	t1, 0x20(sp)
80000550: f41e         	sd	t2, 0x28(sp)
80000552: f822         	sd	s0, 0x30(sp)
80000554: fc26         	sd	s1, 0x38(sp)
80000556: e0aa         	sd	a0, 0x40(sp)
80000558: e4ae         	sd	a1, 0x48(sp)
8000055a: e8b2         	sd	a2, 0x50(sp)
8000055c: ecb6         	sd	a3, 0x58(sp)
8000055e: f0ba         	sd	a4, 0x60(sp)
80000560: f4be         	sd	a5, 0x68(sp)
80000562: f8c2         	sd	a6, 0x70(sp)
80000564: fcc6         	sd	a7, 0x78(sp)
80000566: e14a         	sd	s2, 0x80(sp)
80000568: e54e         	sd	s3, 0x88(sp)
8000056a: e952         	sd	s4, 0x90(sp)
8000056c: ed56         	sd	s5, 0x98(sp)
8000056e: f15a         	sd	s6, 0xa0(sp)
80000570: f55e         	sd	s7, 0xa8(sp)
80000572: f962         	sd	s8, 0xb0(sp)
80000574: fd66         	sd	s9, 0xb8(sp)
80000576: e1ea         	sd	s10, 0xc0(sp)
80000578: e5ee         	sd	s11, 0xc8(sp)
8000057a: e9f2         	sd	t3, 0xd0(sp)
8000057c: edf6         	sd	t4, 0xd8(sp)
8000057e: f1fa         	sd	t5, 0xe0(sp)
80000580: f5fe         	sd	t6, 0xe8(sp)
80000582: 340022f3     	csrr	t0, mscratch
80000586: f996         	sd	t0, 0xf0(sp)
80000588: 341022f3     	csrr	t0, mepc
8000058c: fd96         	sd	t0, 0xf8(sp)
8000058e: 850a         	mv	a0, sp
80000590: 00002097     	auipc	ra, 0x2
80000594: c22080e7     	jalr	-0x3de(ra) <handle_machine_trap>
80000598: 72ee         	ld	t0, 0xf8(sp)
8000059a: 34129073     	csrw	mepc, t0
8000059e: 72ce         	ld	t0, 0xf0(sp)
800005a0: 34029073     	csrw	mscratch, t0
800005a4: 6082         	ld	ra, 0x0(sp)
800005a6: 61a2         	ld	gp, 0x8(sp)
800005a8: 6242         	ld	tp, 0x10(sp)
800005aa: 62e2         	ld	t0, 0x18(sp)
800005ac: 7302         	ld	t1, 0x20(sp)
800005ae: 73a2         	ld	t2, 0x28(sp)
800005b0: 7442         	ld	s0, 0x30(sp)
800005b2: 74e2         	ld	s1, 0x38(sp)
800005b4: 6506         	ld	a0, 0x40(sp)
800005b6: 65a6         	ld	a1, 0x48(sp)
800005b8: 6646         	ld	a2, 0x50(sp)
800005ba: 66e6         	ld	a3, 0x58(sp)
800005bc: 7706         	ld	a4, 0x60(sp)
800005be: 77a6         	ld	a5, 0x68(sp)
800005c0: 7846         	ld	a6, 0x70(sp)
800005c2: 78e6         	ld	a7, 0x78(sp)
800005c4: 690a         	ld	s2, 0x80(sp)
800005c6: 69aa         	ld	s3, 0x88(sp)
800005c8: 6a4a         	ld	s4, 0x90(sp)
800005ca: 6aea         	ld	s5, 0x98(sp)
800005cc: 7b0a         	ld	s6, 0xa0(sp)
800005ce: 7baa         	ld	s7, 0xa8(sp)
800005d0: 7c4a         	ld	s8, 0xb0(sp)
800005d2: 7cea         	ld	s9, 0xb8(sp)
800005d4: 6d0e         	ld	s10, 0xc0(sp)
800005d6: 6dae         	ld	s11, 0xc8(sp)
800005d8: 6e4e         	ld	t3, 0xd0(sp)
800005da: 6eee         	ld	t4, 0xd8(sp)
800005dc: 7f0e         	ld	t5, 0xe0(sp)
800005de: 7fae         	ld	t6, 0xe8(sp)
800005e0: 6111         	addi	sp, sp, 0x100
800005e2: 34011173     	csrrw	sp, mscratch, sp
800005e6: 30200073     	mret
800005ea: 0001         	nop
800005ec: 00000013     	nop

00000000800005f0 <supervisor_trap_entry>:
800005f0: 14011173     	csrrw	sp, sscratch, sp
800005f4: 7111         	addi	sp, sp, -0x100
800005f6: e006         	sd	ra, 0x0(sp)
800005f8: e40e         	sd	gp, 0x8(sp)
800005fa: e812         	sd	tp, 0x10(sp)
800005fc: ec16         	sd	t0, 0x18(sp)
800005fe: f01a         	sd	t1, 0x20(sp)
80000600: f41e         	sd	t2, 0x28(sp)
80000602: f822         	sd	s0, 0x30(sp)
80000604: fc26         	sd	s1, 0x38(sp)
80000606: e0aa         	sd	a0, 0x40(sp)
80000608: e4ae         	sd	a1, 0x48(sp)
8000060a: e8b2         	sd	a2, 0x50(sp)
8000060c: ecb6         	sd	a3, 0x58(sp)
8000060e: f0ba         	sd	a4, 0x60(sp)
80000610: f4be         	sd	a5, 0x68(sp)
80000612: f8c2         	sd	a6, 0x70(sp)
80000614: fcc6         	sd	a7, 0x78(sp)
80000616: e14a         	sd	s2, 0x80(sp)
80000618: e54e         	sd	s3, 0x88(sp)
8000061a: e952         	sd	s4, 0x90(sp)
8000061c: ed56         	sd	s5, 0x98(sp)
8000061e: f15a         	sd	s6, 0xa0(sp)
80000620: f55e         	sd	s7, 0xa8(sp)
80000622: f962         	sd	s8, 0xb0(sp)
80000624: fd66         	sd	s9, 0xb8(sp)
80000626: e1ea         	sd	s10, 0xc0(sp)
80000628: e5ee         	sd	s11, 0xc8(sp)
8000062a: e9f2         	sd	t3, 0xd0(sp)
8000062c: edf6         	sd	t4, 0xd8(sp)
8000062e: f1fa         	sd	t5, 0xe0(sp)
80000630: f5fe         	sd	t6, 0xe8(sp)
80000632: 140022f3     	csrr	t0, sscratch
80000636: f996         	sd	t0, 0xf0(sp)
80000638: 141022f3     	csrr	t0, sepc
8000063c: fd96         	sd	t0, 0xf8(sp)
8000063e: 850a         	mv	a0, sp
80000640: 00002097     	auipc	ra, 0x2
80000644: c06080e7     	jalr	-0x3fa(ra) <handle_supervisor_trap>
80000648: 72ee         	ld	t0, 0xf8(sp)
8000064a: 14129073     	csrw	sepc, t0
8000064e: 72ce         	ld	t0, 0xf0(sp)
80000650: 14029073     	csrw	sscratch, t0
80000654: 6082         	ld	ra, 0x0(sp)
80000656: 61a2         	ld	gp, 0x8(sp)
80000658: 6242         	ld	tp, 0x10(sp)
8000065a: 62e2         	ld	t0, 0x18(sp)
8000065c: 7302         	ld	t1, 0x20(sp)
8000065e: 73a2         	ld	t2, 0x28(sp)
80000660: 7442         	ld	s0, 0x30(sp)
80000662: 74e2         	ld	s1, 0x38(sp)
80000664: 6506         	ld	a0, 0x40(sp)
80000666: 65a6         	ld	a1, 0x48(sp)
80000668: 6646         	ld	a2, 0x50(sp)
8000066a: 66e6         	ld	a3, 0x58(sp)
8000066c: 7706         	ld	a4, 0x60(sp)
8000066e: 77a6         	ld	a5, 0x68(sp)
80000670: 7846         	ld	a6, 0x70(sp)
80000672: 78e6         	ld	a7, 0x78(sp)
80000674: 690a         	ld	s2, 0x80(sp)
80000676: 69aa         	ld	s3, 0x88(sp)
80000678: 6a4a         	ld	s4, 0x90(sp)
8000067a: 6aea         	ld	s5, 0x98(sp)
8000067c: 7b0a         	ld	s6, 0xa0(sp)
8000067e: 7baa         	ld	s7, 0xa8(sp)
80000680: 7c4a         	ld	s8, 0xb0(sp)
80000682: 7cea         	ld	s9, 0xb8(sp)
80000684: 6d0e         	ld	s10, 0xc0(sp)
80000686: 6dae         	ld	s11, 0xc8(sp)
80000688: 6e4e         	ld	t3, 0xd0(sp)
8000068a: 6eee         	ld	t4, 0xd8(sp)
8000068c: 7f0e         	ld	t5, 0xe0(sp)
8000068e: 7fae         	ld	t6, 0xe8(sp)
80000690: 6111         	addi	sp, sp, 0x100
80000692: 14011173     	csrrw	sp, sscratch, sp
80000696: 10200073     	sret
8000069a: 0001         	nop
8000069c: 00000013     	nop

00000000800006a0 <__user_program_start>:
800006a0: 004012b7     	lui	t0, 0x401
800006a4: 0002b303     	ld	t1, 0x0(t0)
800006a8: 0062b423     	sd	t1, 0x8(t0)
800006ac: 1141         	addi	sp, sp, -0x10
800006ae: e01a         	sd	t1, 0x0(sp)
800006b0: 6382         	ld	t2, 0x0(sp)
800006b2: 0141         	addi	sp, sp, 0x10
800006b4: 0272b023     	sd	t2, 0x20(t0)
800006b8: ff770e37     	lui	t3, 0xff770
800006bc: d67e0e13     	addi	t3, t3, -0x299
800006c0: 1e06         	slli	t3, t3, 0x21
800006c2: 0e05         	addi	t3, t3, 0x1
800006c4: 01c2b823     	sd	t3, 0x10(t0)
800006c8: 4e85         	li	t4, 0x1
800006ca: 0efe         	slli	t4, t4, 0x1f
800006cc: 000ebf03     	ld	t5, 0x0(t4)
800006d0: 01e2bc23     	sd	t5, 0x18(t0)
800006d4: feeb4537     	lui	a0, 0xfeeb4
800006d8: 2eb50513     	addi	a0, a0, 0x2eb
800006dc: 0532         	slli	a0, a0, 0xc
800006de: 42f50513     	addi	a0, a0, 0x42f
800006e2: 0532         	slli	a0, a0, 0xc
800006e4: b4350513     	addi	a0, a0, -0x4bd
800006e8: 053a         	slli	a0, a0, 0xe
800006ea: ad050513     	addi	a0, a0, -0x530
800006ee: 4885         	li	a7, 0x1
800006f0: 00000073     	ecall
800006f4: a001         	j	0x800006f4 <__user_program_start+0x54>

00000000800006f6 <__user_program_end>:
800006f6: 7139         	addi	sp, sp, -0x40
800006f8: fc06         	sd	ra, 0x38(sp)
800006fa: e42a         	sd	a0, 0x8(sp)
800006fc: 002c         	addi	a1, sp, 0x8
800006fe: f82e         	sd	a1, 0x30(sp)
80000700: 1008         	addi	a0, sp, 0x20
80000702: 00000097     	auipc	ra, 0x0
80000706: b74080e7     	jalr	-0x48c(ra) <core::fmt::rt::Argument::new_display::h0bb7bd39743f5df9>
8000070a: 7522         	ld	a0, 0x28(sp)
8000070c: ec2a         	sd	a0, 0x18(sp)
8000070e: 7502         	ld	a0, 0x20(sp)
80000710: e82a         	sd	a0, 0x10(sp)

0000000080000712 <.Lpcrel_hi1>:
80000712: 00004517     	auipc	a0, 0x4
80000716: d8150513     	addi	a0, a0, -0x27f
8000071a: 080c         	addi	a1, sp, 0x10
8000071c: 00002097     	auipc	ra, 0x2
80000720: 184080e7     	jalr	0x184(ra) <core::fmt::Arguments::new::h27d484f1facd1a2a>
80000724: 00002097     	auipc	ra, 0x2
80000728: 3a4080e7     	jalr	0x3a4(ra) <lab4_kernel_task1::console::print::h54002e5355b05751>
8000072c: 4505         	li	a0, 0x1
8000072e: 00002097     	auipc	ra, 0x2
80000732: 830080e7     	jalr	-0x7d0(ra) <lab4_kernel_task1::qemu_exit::h7939a00c8edf54b9>

0000000080000736 <lab4_kernel_task1::WalkResult::zeroed::h507baf1d113632a4>:
80000736: 85aa         	mv	a1, a0
80000738: 4501         	li	a0, 0x0
8000073a: e188         	sd	a0, 0x0(a1)
8000073c: e588         	sd	a0, 0x8(a1)
8000073e: e988         	sd	a0, 0x10(a1)
80000740: ed88         	sd	a0, 0x18(a1)
80000742: f188         	sd	a0, 0x20(a1)
80000744: f588         	sd	a0, 0x28(a1)
80000746: 567d         	li	a2, -0x1
80000748: f990         	sd	a2, 0x30(a1)
8000074a: fd88         	sd	a0, 0x38(a1)
8000074c: 8082         	ret

000000008000074e <lab4_kernel_task1::print_walk::hde93fb214e4f5e87>:
8000074e: da010113     	addi	sp, sp, -0x260
80000752: 24113c23     	sd	ra, 0x258(sp)
80000756: e436         	sd	a3, 0x8(sp)
80000758: e0aa         	sd	a0, 0x40(sp)
8000075a: e4ae         	sd	a1, 0x48(sp)
8000075c: e8b2         	sd	a2, 0x50(sp)
8000075e: 00868513     	addi	a0, a3, 0x8
80000762: e82a         	sd	a0, 0x10(sp)
80000764: 01068513     	addi	a0, a3, 0x10
80000768: ec2a         	sd	a0, 0x18(sp)
8000076a: 7a88         	ld	a0, 0x30(a3)
8000076c: 00000097     	auipc	ra, 0x0
80000770: 526080e7     	jalr	0x526(ra) <lab4_kernel_task1::leaf_level_name::h26cc32cfb49a2a6b>
80000774: 66a2         	ld	a3, 0x8(sp)
80000776: fd2a         	sd	a0, 0xb8(sp)
80000778: e1ae         	sd	a1, 0xc0(sp)
8000077a: 01868513     	addi	a0, a3, 0x18
8000077e: f02a         	sd	a0, 0x20(sp)
80000780: 02068513     	addi	a0, a3, 0x20
80000784: f42a         	sd	a0, 0x28(sp)
80000786: 02868513     	addi	a0, a3, 0x28
8000078a: f82a         	sd	a0, 0x30(sp)
8000078c: 03868513     	addi	a0, a3, 0x38
80000790: fc2a         	sd	a0, 0x38(sp)
80000792: 7e88         	ld	a0, 0x38(a3)
80000794: 00001097     	auipc	ra, 0x1
80000798: 7be080e7     	jalr	0x7be(ra) <lab4_kernel_task1::pte_to_pa::h36b6beb4c82022f3>
8000079c: 6822         	ld	a6, 0x8(sp)
8000079e: 67c2         	ld	a5, 0x10(sp)
800007a0: 6762         	ld	a4, 0x18(sp)
800007a2: 7682         	ld	a3, 0x20(sp)
800007a4: 7622         	ld	a2, 0x28(sp)
800007a6: 75c2         	ld	a1, 0x30(sp)
800007a8: 88aa         	mv	a7, a0
800007aa: 7562         	ld	a0, 0x38(sp)
800007ac: e5c6         	sd	a7, 0xc8(sp)
800007ae: 03883883     	ld	a7, 0x38(a6)
800007b2: e9c6         	sd	a7, 0xd0(sp)
800007b4: 04010893     	addi	a7, sp, 0x40
800007b8: ecc6         	sd	a7, 0x58(sp)
800007ba: 05010893     	addi	a7, sp, 0x50
800007be: f0c6         	sd	a7, 0x60(sp)
800007c0: f4c2         	sd	a6, 0x68(sp)
800007c2: f8be         	sd	a5, 0x70(sp)
800007c4: fcba         	sd	a4, 0x78(sp)
800007c6: 1938         	addi	a4, sp, 0xb8
800007c8: e13a         	sd	a4, 0x80(sp)
800007ca: e536         	sd	a3, 0x88(sp)
800007cc: e932         	sd	a2, 0x90(sp)
800007ce: ed2e         	sd	a1, 0x98(sp)
800007d0: f12a         	sd	a0, 0xa0(sp)
800007d2: 01a8         	addi	a0, sp, 0xc8
800007d4: f52a         	sd	a0, 0xa8(sp)
800007d6: 0988         	addi	a0, sp, 0xd0
800007d8: f92a         	sd	a0, 0xb0(sp)
800007da: 65e6         	ld	a1, 0x58(sp)
800007dc: 0b28         	addi	a0, sp, 0x198
800007de: 00000097     	auipc	ra, 0x0
800007e2: adc080e7     	jalr	-0x524(ra) <core::fmt::rt::Argument::new_display::h130bc57604401dd9>
800007e6: 7586         	ld	a1, 0x60(sp)
800007e8: 1328         	addi	a0, sp, 0x1a8
800007ea: 00000097     	auipc	ra, 0x0
800007ee: b58080e7     	jalr	-0x4a8(ra) <core::fmt::rt::Argument::new_lower_hex::hd4789b212b1113cd>
800007f2: 75a6         	ld	a1, 0x68(sp)
800007f4: 1b28         	addi	a0, sp, 0x1b8
800007f6: 00000097     	auipc	ra, 0x0
800007fa: aa2080e7     	jalr	-0x55e(ra) <core::fmt::rt::Argument::new_display::h0cafb074541621a0>
800007fe: 75c6         	ld	a1, 0x70(sp)
80000800: 03a8         	addi	a0, sp, 0x1c8
80000802: 00000097     	auipc	ra, 0x0
80000806: a96080e7     	jalr	-0x56a(ra) <core::fmt::rt::Argument::new_display::h0cafb074541621a0>
8000080a: 75e6         	ld	a1, 0x78(sp)
8000080c: 0ba8         	addi	a0, sp, 0x1d8
8000080e: 00000097     	auipc	ra, 0x0
80000812: a8a080e7     	jalr	-0x576(ra) <core::fmt::rt::Argument::new_display::h0cafb074541621a0>
80000816: 658a         	ld	a1, 0x80(sp)
80000818: 13a8         	addi	a0, sp, 0x1e8
8000081a: 00000097     	auipc	ra, 0x0
8000081e: aa0080e7     	jalr	-0x560(ra) <core::fmt::rt::Argument::new_display::h130bc57604401dd9>
80000822: 65aa         	ld	a1, 0x88(sp)
80000824: 1ba8         	addi	a0, sp, 0x1f8
80000826: 00000097     	auipc	ra, 0x0
8000082a: b1c080e7     	jalr	-0x4e4(ra) <core::fmt::rt::Argument::new_lower_hex::hd4789b212b1113cd>
8000082e: 65ca         	ld	a1, 0x90(sp)
80000830: 0428         	addi	a0, sp, 0x208
80000832: 00000097     	auipc	ra, 0x0
80000836: b10080e7     	jalr	-0x4f0(ra) <core::fmt::rt::Argument::new_lower_hex::hd4789b212b1113cd>
8000083a: 65ea         	ld	a1, 0x98(sp)
8000083c: 0c28         	addi	a0, sp, 0x218
8000083e: 00000097     	auipc	ra, 0x0
80000842: b04080e7     	jalr	-0x4fc(ra) <core::fmt::rt::Argument::new_lower_hex::hd4789b212b1113cd>
80000846: 758a         	ld	a1, 0xa0(sp)
80000848: 1428         	addi	a0, sp, 0x228
8000084a: 00000097     	auipc	ra, 0x0
8000084e: af8080e7     	jalr	-0x508(ra) <core::fmt::rt::Argument::new_lower_hex::hd4789b212b1113cd>
80000852: 75aa         	ld	a1, 0xa8(sp)
80000854: 1c28         	addi	a0, sp, 0x238
80000856: 00000097     	auipc	ra, 0x0
8000085a: aec080e7     	jalr	-0x514(ra) <core::fmt::rt::Argument::new_lower_hex::hd4789b212b1113cd>
8000085e: 75ca         	ld	a1, 0xb0(sp)
80000860: 04a8         	addi	a0, sp, 0x248
80000862: 00000097     	auipc	ra, 0x0
80000866: a9c080e7     	jalr	-0x564(ra) <core::fmt::rt::Argument::new_display::hf358f8cf7955ba58>
8000086a: 751a         	ld	a0, 0x1a0(sp)
8000086c: f1aa         	sd	a0, 0xe0(sp)
8000086e: 657a         	ld	a0, 0x198(sp)
80000870: edaa         	sd	a0, 0xd8(sp)
80000872: 755a         	ld	a0, 0x1b0(sp)
80000874: f9aa         	sd	a0, 0xf0(sp)
80000876: 753a         	ld	a0, 0x1a8(sp)
80000878: f5aa         	sd	a0, 0xe8(sp)
8000087a: 651e         	ld	a0, 0x1c0(sp)
8000087c: e22a         	sd	a0, 0x100(sp)
8000087e: 757a         	ld	a0, 0x1b8(sp)
80000880: fdaa         	sd	a0, 0xf8(sp)
80000882: 655e         	ld	a0, 0x1d0(sp)
80000884: ea2a         	sd	a0, 0x110(sp)
80000886: 653e         	ld	a0, 0x1c8(sp)
80000888: e62a         	sd	a0, 0x108(sp)
8000088a: 751e         	ld	a0, 0x1e0(sp)
8000088c: f22a         	sd	a0, 0x120(sp)
8000088e: 657e         	ld	a0, 0x1d8(sp)
80000890: ee2a         	sd	a0, 0x118(sp)
80000892: 755e         	ld	a0, 0x1f0(sp)
80000894: fa2a         	sd	a0, 0x130(sp)
80000896: 753e         	ld	a0, 0x1e8(sp)
80000898: f62a         	sd	a0, 0x128(sp)
8000089a: 20013503     	ld	a0, 0x200(sp)
8000089e: e2aa         	sd	a0, 0x140(sp)
800008a0: 757e         	ld	a0, 0x1f8(sp)
800008a2: fe2a         	sd	a0, 0x138(sp)
800008a4: 21013503     	ld	a0, 0x210(sp)
800008a8: eaaa         	sd	a0, 0x150(sp)
800008aa: 20813503     	ld	a0, 0x208(sp)
800008ae: e6aa         	sd	a0, 0x148(sp)
800008b0: 22013503     	ld	a0, 0x220(sp)
800008b4: f2aa         	sd	a0, 0x160(sp)
800008b6: 21813503     	ld	a0, 0x218(sp)
800008ba: eeaa         	sd	a0, 0x158(sp)
800008bc: 23013503     	ld	a0, 0x230(sp)
800008c0: faaa         	sd	a0, 0x170(sp)
800008c2: 22813503     	ld	a0, 0x228(sp)
800008c6: f6aa         	sd	a0, 0x168(sp)
800008c8: 24013503     	ld	a0, 0x240(sp)
800008cc: e32a         	sd	a0, 0x180(sp)
800008ce: 23813503     	ld	a0, 0x238(sp)
800008d2: feaa         	sd	a0, 0x178(sp)
800008d4: 25013503     	ld	a0, 0x250(sp)
800008d8: eb2a         	sd	a0, 0x190(sp)
800008da: 24813503     	ld	a0, 0x248(sp)
800008de: e72a         	sd	a0, 0x188(sp)

00000000800008e0 <.Lpcrel_hi2>:
800008e0: 00004517     	auipc	a0, 0x4
800008e4: 12850513     	addi	a0, a0, 0x128
800008e8: 09ac         	addi	a1, sp, 0xd8
800008ea: 00002097     	auipc	ra, 0x2
800008ee: fca080e7     	jalr	-0x36(ra) <core::fmt::Arguments::new::h2aa2a7d8db6bbec5>
800008f2: 00002097     	auipc	ra, 0x2
800008f6: 1d6080e7     	jalr	0x1d6(ra) <lab4_kernel_task1::console::print::h54002e5355b05751>
800008fa: 25813083     	ld	ra, 0x258(sp)
800008fe: 26010113     	addi	sp, sp, 0x260
80000902: 8082         	ret

0000000080000904 <lab4_kernel_task1::read_mtval::hdee5e80206f59900>:
80000904: 1141         	addi	sp, sp, -0x10
80000906: 34302573     	csrr	a0, mtval
8000090a: e42a         	sd	a0, 0x8(sp)
8000090c: 6522         	ld	a0, 0x8(sp)
8000090e: 0141         	addi	sp, sp, 0x10
80000910: 8082         	ret

0000000080000912 <lab4_kernel_task1::read_stval::h88e4fe5530b25773>:
80000912: 1141         	addi	sp, sp, -0x10
80000914: 14302573     	csrr	a0, stval
80000918: e42a         	sd	a0, 0x8(sp)
8000091a: 6522         	ld	a0, 0x8(sp)
8000091c: 0141         	addi	sp, sp, 0x10
8000091e: 8082         	ret

0000000080000920 <lab4_kernel_task1::vpn0_index::h1fcb52b0e82b2b3f>:
80000920: 1141         	addi	sp, sp, -0x10
80000922: e42a         	sd	a0, 0x8(sp)
80000924: 152e         	slli	a0, a0, 0x2b
80000926: 915d         	srli	a0, a0, 0x37
80000928: 0141         	addi	sp, sp, 0x10
8000092a: 8082         	ret

000000008000092c <lab4_kernel_task1::vpn1_index::h603b3353da120392>:
8000092c: 1141         	addi	sp, sp, -0x10
8000092e: e42a         	sd	a0, 0x8(sp)
80000930: 150a         	slli	a0, a0, 0x22
80000932: 915d         	srli	a0, a0, 0x37
80000934: 0141         	addi	sp, sp, 0x10
80000936: 8082         	ret

0000000080000938 <lab4_kernel_task1::vpn2_index::h5a2986948174d06c>:
80000938: 1141         	addi	sp, sp, -0x10
8000093a: e42a         	sd	a0, 0x8(sp)
8000093c: 0566         	slli	a0, a0, 0x19
8000093e: 915d         	srli	a0, a0, 0x37
80000940: 0141         	addi	sp, sp, 0x10
80000942: 8082         	ret

0000000080000944 <lab4_kernel_task1::pte_is_leaf::h65a99516df759649>:
80000944: 1141         	addi	sp, sp, -0x10
80000946: e42a         	sd	a0, 0x8(sp)
80000948: 8939         	andi	a0, a0, 0xe
8000094a: 00a03533     	snez	a0, a0
8000094e: 0141         	addi	sp, sp, 0x10
80000950: 8082         	ret

0000000080000952 <lab4_kernel_task1::read_mcause::hf08e4d64e59cec5f>:
80000952: 1141         	addi	sp, sp, -0x10
80000954: 34202573     	csrr	a0, mcause
80000958: e42a         	sd	a0, 0x8(sp)
8000095a: 6522         	ld	a0, 0x8(sp)
8000095c: 0141         	addi	sp, sp, 0x10
8000095e: 8082         	ret

0000000080000960 <lab4_kernel_task1::read_scause::h3f50e3d06b7c04c9>:
80000960: 1141         	addi	sp, sp, -0x10
80000962: 14202573     	csrr	a0, scause
80000966: e42a         	sd	a0, 0x8(sp)
80000968: 6522         	ld	a0, 0x8(sp)
8000096a: 0141         	addi	sp, sp, 0x10
8000096c: 8082         	ret

000000008000096e <lab4_kernel_task1::user_shared::h8bba5647b29ec119>:
8000096e: 1141         	addi	sp, sp, -0x10

0000000080000970 <.Lpcrel_hi3>:
80000970: 00007517     	auipc	a0, 0x7
80000974: 69050513     	addi	a0, a0, 0x690
80000978: e02a         	sd	a0, 0x0(sp)
8000097a: e42a         	sd	a0, 0x8(sp)
8000097c: 891d         	andi	a0, a0, 0x7
8000097e: e901         	bnez	a0, 0x8000098e <.Lpcrel_hi4+0xc>
80000980: a009         	j	0x80000982 <.Lpcrel_hi4>

0000000080000982 <.Lpcrel_hi4>:
80000982: 00007517     	auipc	a0, 0x7
80000986: 67e50513     	addi	a0, a0, 0x67e
8000098a: ed01         	bnez	a0, 0x800009a2 <.Lpcrel_hi6>
8000098c: a00d         	j	0x800009ae <.Lpcrel_hi7>
8000098e: 6582         	ld	a1, 0x0(sp)

0000000080000990 <.Lpcrel_hi5>:
80000990: 00004517     	auipc	a0, 0x4
80000994: 10050613     	addi	a2, a0, 0x100
80000998: 4521         	li	a0, 0x8
8000099a: 00003097     	auipc	ra, 0x3
8000099e: 6ae080e7     	jalr	0x6ae(ra) <core::panicking::panic_misaligned_pointer_dereference::hda85f7fb51d959f0>

00000000800009a2 <.Lpcrel_hi6>:
800009a2: 00007517     	auipc	a0, 0x7
800009a6: 65e50513     	addi	a0, a0, 0x65e
800009aa: 0141         	addi	sp, sp, 0x10
800009ac: 8082         	ret

00000000800009ae <.Lpcrel_hi7>:
800009ae: 00004517     	auipc	a0, 0x4
800009b2: 0e250513     	addi	a0, a0, 0xe2
800009b6: 00003097     	auipc	ra, 0x3
800009ba: 672080e7     	jalr	0x672(ra) <core::panicking::panic_null_pointer_dereference::hbac6411af4f2e916>

00000000800009be <lab4_kernel_task1::UserEvidence::collect::h93b6bfcc2c8f4304>:
800009be: 1101         	addi	sp, sp, -0x20
800009c0: ec06         	sd	ra, 0x18(sp)
800009c2: e42a         	sd	a0, 0x8(sp)
800009c4: 00000097     	auipc	ra, 0x0
800009c8: faa080e7     	jalr	-0x56(ra) <lab4_kernel_task1::user_shared::h8bba5647b29ec119>
800009cc: 65a2         	ld	a1, 0x8(sp)
800009ce: e82a         	sd	a0, 0x10(sp)
800009d0: 00053803     	ld	a6, 0x0(a0)
800009d4: 651c         	ld	a5, 0x8(a0)
800009d6: 6918         	ld	a4, 0x10(a0)
800009d8: 6d14         	ld	a3, 0x18(a0)
800009da: 7110         	ld	a2, 0x20(a0)
800009dc: 7508         	ld	a0, 0x28(a0)
800009de: 0105b023     	sd	a6, 0x0(a1)
800009e2: e59c         	sd	a5, 0x8(a1)
800009e4: e998         	sd	a4, 0x10(a1)
800009e6: ed94         	sd	a3, 0x18(a1)
800009e8: f190         	sd	a2, 0x20(a1)
800009ea: f588         	sd	a0, 0x28(a1)
800009ec: 60e2         	ld	ra, 0x18(sp)
800009ee: 6105         	addi	sp, sp, 0x20
800009f0: 8082         	ret

00000000800009f2 <lab4_kernel_task1::pte_has_user::hbdfcf558c843601d>:
800009f2: 1141         	addi	sp, sp, -0x10
800009f4: e42a         	sd	a0, 0x8(sp)
800009f6: 156e         	slli	a0, a0, 0x3b
800009f8: 917d         	srli	a0, a0, 0x3f
800009fa: 0141         	addi	sp, sp, 0x10
800009fc: 8082         	ret

00000000800009fe <lab4_kernel_task1::pte_is_valid::h98d785e09d73f6d5>:
800009fe: 1141         	addi	sp, sp, -0x10
80000a00: e42a         	sd	a0, 0x8(sp)
80000a02: 8905         	andi	a0, a0, 0x1
80000a04: 0141         	addi	sp, sp, 0x10
80000a06: 8082         	ret

0000000080000a08 <lab4_kernel_task1::walk_virtual::h673833ad33696b21>:
80000a08: 7171         	addi	sp, sp, -0xb0
80000a0a: f506         	sd	ra, 0xa8(sp)
80000a0c: fc2e         	sd	a1, 0x38(sp)
80000a0e: f82a         	sd	a0, 0x30(sp)
80000a10: e52e         	sd	a1, 0x88(sp)
80000a12: 00a8         	addi	a0, sp, 0x48
80000a14: 00000097     	auipc	ra, 0x0
80000a18: d22080e7     	jalr	-0x2de(ra) <lab4_kernel_task1::WalkResult::zeroed::h507baf1d113632a4>
80000a1c: 7562         	ld	a0, 0x38(sp)

0000000080000a1e <.Lpcrel_hi8>:
80000a1e: 00008597     	auipc	a1, 0x8
80000a22: 5e258593     	addi	a1, a1, 0x5e2
80000a26: e92e         	sd	a1, 0x90(sp)
80000a28: 00000097     	auipc	ra, 0x0
80000a2c: f10080e7     	jalr	-0xf0(ra) <lab4_kernel_task1::vpn2_index::h5a2986948174d06c>
80000a30: 85aa         	mv	a1, a0
80000a32: 7562         	ld	a0, 0x38(sp)
80000a34: e4ae         	sd	a1, 0x48(sp)
80000a36: 00000097     	auipc	ra, 0x0
80000a3a: ef6080e7     	jalr	-0x10a(ra) <lab4_kernel_task1::vpn1_index::h603b3353da120392>
80000a3e: 85aa         	mv	a1, a0
80000a40: 7562         	ld	a0, 0x38(sp)
80000a42: e8ae         	sd	a1, 0x50(sp)
80000a44: 00000097     	auipc	ra, 0x0
80000a48: edc080e7     	jalr	-0x124(ra) <lab4_kernel_task1::vpn0_index::h1fcb52b0e82b2b3f>
80000a4c: ecaa         	sd	a0, 0x58(sp)
80000a4e: 65a6         	ld	a1, 0x48(sp)
80000a50: e0ae         	sd	a1, 0x40(sp)
80000a52: 1ff00513     	li	a0, 0x1ff
80000a56: 00b56a63     	bltu	a0, a1, 0x80000a6a <.Lpcrel_hi9+0xe>
80000a5a: a009         	j	0x80000a5c <.Lpcrel_hi9>

0000000080000a5c <.Lpcrel_hi9>:
80000a5c: 00008517     	auipc	a0, 0x8
80000a60: 5a450513     	addi	a0, a0, 0x5a4
80000a64: 1552         	slli	a0, a0, 0x34
80000a66: cd09         	beqz	a0, 0x80000a80 <.Lpcrel_hi11>
80000a68: a015         	j	0x80000a8c <.Lpcrel_hi12>
80000a6a: 6506         	ld	a0, 0x40(sp)

0000000080000a6c <.Lpcrel_hi10>:
80000a6c: 00004597     	auipc	a1, 0x4
80000a70: 03c58613     	addi	a2, a1, 0x3c
80000a74: 20000593     	li	a1, 0x200
80000a78: 00003097     	auipc	ra, 0x3
80000a7c: 544080e7     	jalr	0x544(ra) <core::panicking::panic_bounds_check::h6aaee0d15e0261eb>

0000000080000a80 <.Lpcrel_hi11>:
80000a80: 00008517     	auipc	a0, 0x8
80000a84: 58050513     	addi	a0, a0, 0x580
80000a88: ed19         	bnez	a0, 0x80000aa6 <.Lpcrel_hi13+0x12>
80000a8a: a83d         	j	0x80000ac8 <.Lpcrel_hi15>

0000000080000a8c <.Lpcrel_hi12>:
80000a8c: 00008517     	auipc	a0, 0x8
80000a90: 57450593     	addi	a1, a0, 0x574

0000000080000a94 <.Lpcrel_hi13>:
80000a94: 00004517     	auipc	a0, 0x4
80000a98: 01450613     	addi	a2, a0, 0x14
80000a9c: 6505         	lui	a0, 0x1
80000a9e: 00003097     	auipc	ra, 0x3
80000aa2: 5aa080e7     	jalr	0x5aa(ra) <core::panicking::panic_misaligned_pointer_dereference::hda85f7fb51d959f0>
80000aa6: 6506         	ld	a0, 0x40(sp)
80000aa8: 00351593     	slli	a1, a0, 0x3

0000000080000aac <.Lpcrel_hi14>:
80000aac: 00008517     	auipc	a0, 0x8
80000ab0: 55450513     	addi	a0, a0, 0x554
80000ab4: 952e         	add	a0, a0, a1
80000ab6: 6108         	ld	a0, 0x0(a0)
80000ab8: f0aa         	sd	a0, 0x60(sp)
80000aba: 7506         	ld	a0, 0x60(sp)
80000abc: 00000097     	auipc	ra, 0x0
80000ac0: f42080e7     	jalr	-0xbe(ra) <lab4_kernel_task1::pte_is_valid::h98d785e09d73f6d5>
80000ac4: e121         	bnez	a0, 0x80000b04 <.Lpcrel_hi15+0x3c>
80000ac6: a809         	j	0x80000ad8 <.Lpcrel_hi15+0x10>

0000000080000ac8 <.Lpcrel_hi15>:
80000ac8: 00004517     	auipc	a0, 0x4
80000acc: fe050513     	addi	a0, a0, -0x20
80000ad0: 00003097     	auipc	ra, 0x3
80000ad4: 558080e7     	jalr	0x558(ra) <core::panicking::panic_null_pointer_dereference::hbac6411af4f2e916>
80000ad8: 75c2         	ld	a1, 0x30(sp)
80000ada: 4509         	li	a0, 0x2
80000adc: fcaa         	sd	a0, 0x78(sp)
80000ade: 7506         	ld	a0, 0x60(sp)
80000ae0: e12a         	sd	a0, 0x80(sp)
80000ae2: 650a         	ld	a0, 0x80(sp)
80000ae4: fd88         	sd	a0, 0x38(a1)
80000ae6: 7566         	ld	a0, 0x78(sp)
80000ae8: f988         	sd	a0, 0x30(a1)
80000aea: 7546         	ld	a0, 0x70(sp)
80000aec: f588         	sd	a0, 0x28(a1)
80000aee: 7526         	ld	a0, 0x68(sp)
80000af0: f188         	sd	a0, 0x20(a1)
80000af2: 7506         	ld	a0, 0x60(sp)
80000af4: ed88         	sd	a0, 0x18(a1)
80000af6: 6566         	ld	a0, 0x58(sp)
80000af8: e988         	sd	a0, 0x10(a1)
80000afa: 6546         	ld	a0, 0x50(sp)
80000afc: e588         	sd	a0, 0x8(a1)
80000afe: 6526         	ld	a0, 0x48(sp)
80000b00: e188         	sd	a0, 0x0(a1)
80000b02: aa85         	j	0x80000c72 <.Lpcrel_hi21+0x14>
80000b04: 7506         	ld	a0, 0x60(sp)
80000b06: 00000097     	auipc	ra, 0x0
80000b0a: e3e080e7     	jalr	-0x1c2(ra) <lab4_kernel_task1::pte_is_leaf::h65a99516df759649>
80000b0e: f569         	bnez	a0, 0x80000ad8 <.Lpcrel_hi15+0x10>
80000b10: a009         	j	0x80000b12 <.Lpcrel_hi15+0x4a>
80000b12: 7506         	ld	a0, 0x60(sp)
80000b14: 00001097     	auipc	ra, 0x1
80000b18: 43e080e7     	jalr	0x43e(ra) <lab4_kernel_task1::pte_to_pa::h36b6beb4c82022f3>
80000b1c: 85aa         	mv	a1, a0
80000b1e: f02e         	sd	a1, 0x20(sp)
80000b20: 85aa         	mv	a1, a0
80000b22: f42e         	sd	a1, 0x28(sp)
80000b24: 1552         	slli	a0, a0, 0x34
80000b26: e509         	bnez	a0, 0x80000b30 <.Lpcrel_hi15+0x68>
80000b28: a009         	j	0x80000b2a <.Lpcrel_hi15+0x62>
80000b2a: 7502         	ld	a0, 0x20(sp)
80000b2c: ed01         	bnez	a0, 0x80000b44 <.Lpcrel_hi16+0x12>
80000b2e: a025         	j	0x80000b56 <.Lpcrel_hi17>
80000b30: 75a2         	ld	a1, 0x28(sp)

0000000080000b32 <.Lpcrel_hi16>:
80000b32: 00004517     	auipc	a0, 0x4
80000b36: f8e50613     	addi	a2, a0, -0x72
80000b3a: 6505         	lui	a0, 0x1
80000b3c: 00003097     	auipc	ra, 0x3
80000b40: 50c080e7     	jalr	0x50c(ra) <core::panicking::panic_misaligned_pointer_dereference::hda85f7fb51d959f0>
80000b44: 7502         	ld	a0, 0x20(sp)
80000b46: ed2a         	sd	a0, 0x98(sp)
80000b48: 6546         	ld	a0, 0x50(sp)
80000b4a: ec2a         	sd	a0, 0x18(sp)
80000b4c: 20000593     	li	a1, 0x200
80000b50: 00b56b63     	bltu	a0, a1, 0x80000b66 <.Lpcrel_hi17+0x10>
80000b54: a035         	j	0x80000b80 <.Lpcrel_hi17+0x2a>

0000000080000b56 <.Lpcrel_hi17>:
80000b56: 00004517     	auipc	a0, 0x4
80000b5a: f6a50513     	addi	a0, a0, -0x96
80000b5e: 00003097     	auipc	ra, 0x3
80000b62: 4ca080e7     	jalr	0x4ca(ra) <core::panicking::panic_null_pointer_dereference::hbac6411af4f2e916>
80000b66: 7502         	ld	a0, 0x20(sp)
80000b68: 65e2         	ld	a1, 0x18(sp)
80000b6a: 058e         	slli	a1, a1, 0x3
80000b6c: 952e         	add	a0, a0, a1
80000b6e: 6108         	ld	a0, 0x0(a0)
80000b70: f4aa         	sd	a0, 0x68(sp)
80000b72: 7526         	ld	a0, 0x68(sp)
80000b74: 00000097     	auipc	ra, 0x0
80000b78: e8a080e7     	jalr	-0x176(ra) <lab4_kernel_task1::pte_is_valid::h98d785e09d73f6d5>
80000b7c: e139         	bnez	a0, 0x80000bc2 <.Lpcrel_hi18+0x40>
80000b7e: a821         	j	0x80000b96 <.Lpcrel_hi18+0x14>
80000b80: 6562         	ld	a0, 0x18(sp)

0000000080000b82 <.Lpcrel_hi18>:
80000b82: 00004597     	auipc	a1, 0x4
80000b86: f5658613     	addi	a2, a1, -0xaa
80000b8a: 20000593     	li	a1, 0x200
80000b8e: 00003097     	auipc	ra, 0x3
80000b92: 42e080e7     	jalr	0x42e(ra) <core::panicking::panic_bounds_check::h6aaee0d15e0261eb>
80000b96: 75c2         	ld	a1, 0x30(sp)
80000b98: 4505         	li	a0, 0x1
80000b9a: fcaa         	sd	a0, 0x78(sp)
80000b9c: 7526         	ld	a0, 0x68(sp)
80000b9e: e12a         	sd	a0, 0x80(sp)
80000ba0: 650a         	ld	a0, 0x80(sp)
80000ba2: fd88         	sd	a0, 0x38(a1)
80000ba4: 7566         	ld	a0, 0x78(sp)
80000ba6: f988         	sd	a0, 0x30(a1)
80000ba8: 7546         	ld	a0, 0x70(sp)
80000baa: f588         	sd	a0, 0x28(a1)
80000bac: 7526         	ld	a0, 0x68(sp)
80000bae: f188         	sd	a0, 0x20(a1)
80000bb0: 7506         	ld	a0, 0x60(sp)
80000bb2: ed88         	sd	a0, 0x18(a1)
80000bb4: 6566         	ld	a0, 0x58(sp)
80000bb6: e988         	sd	a0, 0x10(a1)
80000bb8: 6546         	ld	a0, 0x50(sp)
80000bba: e588         	sd	a0, 0x8(a1)
80000bbc: 6526         	ld	a0, 0x48(sp)
80000bbe: e188         	sd	a0, 0x0(a1)
80000bc0: a84d         	j	0x80000c72 <.Lpcrel_hi21+0x14>
80000bc2: 7526         	ld	a0, 0x68(sp)
80000bc4: 00000097     	auipc	ra, 0x0
80000bc8: d80080e7     	jalr	-0x280(ra) <lab4_kernel_task1::pte_is_leaf::h65a99516df759649>
80000bcc: f569         	bnez	a0, 0x80000b96 <.Lpcrel_hi18+0x14>
80000bce: a009         	j	0x80000bd0 <.Lpcrel_hi18+0x4e>
80000bd0: 7526         	ld	a0, 0x68(sp)
80000bd2: 00001097     	auipc	ra, 0x1
80000bd6: 380080e7     	jalr	0x380(ra) <lab4_kernel_task1::pte_to_pa::h36b6beb4c82022f3>
80000bda: 85aa         	mv	a1, a0
80000bdc: e42e         	sd	a1, 0x8(sp)
80000bde: 85aa         	mv	a1, a0
80000be0: e82e         	sd	a1, 0x10(sp)
80000be2: 1552         	slli	a0, a0, 0x34
80000be4: e509         	bnez	a0, 0x80000bee <.Lpcrel_hi18+0x6c>
80000be6: a009         	j	0x80000be8 <.Lpcrel_hi18+0x66>
80000be8: 6522         	ld	a0, 0x8(sp)
80000bea: ed01         	bnez	a0, 0x80000c02 <.Lpcrel_hi19+0x12>
80000bec: a025         	j	0x80000c14 <.Lpcrel_hi20>
80000bee: 65c2         	ld	a1, 0x10(sp)

0000000080000bf0 <.Lpcrel_hi19>:
80000bf0: 00004517     	auipc	a0, 0x4
80000bf4: f0050613     	addi	a2, a0, -0x100
80000bf8: 6505         	lui	a0, 0x1
80000bfa: 00003097     	auipc	ra, 0x3
80000bfe: 44e080e7     	jalr	0x44e(ra) <core::panicking::panic_misaligned_pointer_dereference::hda85f7fb51d959f0>
80000c02: 6522         	ld	a0, 0x8(sp)
80000c04: f12a         	sd	a0, 0xa0(sp)
80000c06: 6566         	ld	a0, 0x58(sp)
80000c08: e02a         	sd	a0, 0x0(sp)
80000c0a: 20000593     	li	a1, 0x200
80000c0e: 00b56b63     	bltu	a0, a1, 0x80000c24 <.Lpcrel_hi20+0x10>
80000c12: a0a9         	j	0x80000c5c <.Lpcrel_hi20+0x48>

0000000080000c14 <.Lpcrel_hi20>:
80000c14: 00004517     	auipc	a0, 0x4
80000c18: edc50513     	addi	a0, a0, -0x124
80000c1c: 00003097     	auipc	ra, 0x3
80000c20: 40c080e7     	jalr	0x40c(ra) <core::panicking::panic_null_pointer_dereference::hbac6411af4f2e916>
80000c24: 75c2         	ld	a1, 0x30(sp)
80000c26: 6522         	ld	a0, 0x8(sp)
80000c28: 6602         	ld	a2, 0x0(sp)
80000c2a: 060e         	slli	a2, a2, 0x3
80000c2c: 9532         	add	a0, a0, a2
80000c2e: 6108         	ld	a0, 0x0(a0)
80000c30: f8aa         	sd	a0, 0x70(sp)
80000c32: 4501         	li	a0, 0x0
80000c34: fcaa         	sd	a0, 0x78(sp)
80000c36: 7546         	ld	a0, 0x70(sp)
80000c38: e12a         	sd	a0, 0x80(sp)
80000c3a: 650a         	ld	a0, 0x80(sp)
80000c3c: fd88         	sd	a0, 0x38(a1)
80000c3e: 7566         	ld	a0, 0x78(sp)
80000c40: f988         	sd	a0, 0x30(a1)
80000c42: 7546         	ld	a0, 0x70(sp)
80000c44: f588         	sd	a0, 0x28(a1)
80000c46: 7526         	ld	a0, 0x68(sp)
80000c48: f188         	sd	a0, 0x20(a1)
80000c4a: 7506         	ld	a0, 0x60(sp)
80000c4c: ed88         	sd	a0, 0x18(a1)
80000c4e: 6566         	ld	a0, 0x58(sp)
80000c50: e988         	sd	a0, 0x10(a1)
80000c52: 6546         	ld	a0, 0x50(sp)
80000c54: e588         	sd	a0, 0x8(a1)
80000c56: 6526         	ld	a0, 0x48(sp)
80000c58: e188         	sd	a0, 0x0(a1)
80000c5a: a821         	j	0x80000c72 <.Lpcrel_hi21+0x14>
80000c5c: 6502         	ld	a0, 0x0(sp)

0000000080000c5e <.Lpcrel_hi21>:
80000c5e: 00004597     	auipc	a1, 0x4
80000c62: eaa58613     	addi	a2, a1, -0x156
80000c66: 20000593     	li	a1, 0x200
80000c6a: 00003097     	auipc	ra, 0x3
80000c6e: 352080e7     	jalr	0x352(ra) <core::panicking::panic_bounds_check::h6aaee0d15e0261eb>
80000c72: 70aa         	ld	ra, 0xa8(sp)
80000c74: 614d         	addi	sp, sp, 0xb0
80000c76: 8082         	ret

0000000080000c78 <lab4_kernel_task1::configure_pmp::h6c8da2dc995011f6>:
80000c78: 557d         	li	a0, -0x1
80000c7a: 8109         	srli	a0, a0, 0x2
80000c7c: 3b051073     	csrw	pmpaddr0, a0
80000c80: 457d         	li	a0, 0x1f
80000c82: 3a051073     	csrw	pmpcfg0, a0
80000c86: 8082         	ret

0000000080000c88 <lab4_kernel_task1::dev_l0_table_pa::hc6a702bb6ac82856>:
80000c88: 0000a517     	auipc	a0, 0xa
80000c8c: 37850513     	addi	a0, a0, 0x378
80000c90: 8082         	ret

0000000080000c92 <lab4_kernel_task1::leaf_level_name::h26cc32cfb49a2a6b>:
80000c92: 1101         	addi	sp, sp, -0x20
80000c94: e02a         	sd	a0, 0x0(sp)
80000c96: ec2a         	sd	a0, 0x18(sp)
80000c98: c505         	beqz	a0, 0x80000cc0 <.Lpcrel_hi24>
80000c9a: a009         	j	0x80000c9c <lab4_kernel_task1::leaf_level_name::h26cc32cfb49a2a6b+0xa>
80000c9c: 6502         	ld	a0, 0x0(sp)
80000c9e: 4585         	li	a1, 0x1
80000ca0: 02b50863     	beq	a0, a1, 0x80000cd0 <.Lpcrel_hi25>
80000ca4: a009         	j	0x80000ca6 <lab4_kernel_task1::leaf_level_name::h26cc32cfb49a2a6b+0x14>
80000ca6: 6502         	ld	a0, 0x0(sp)
80000ca8: 4589         	li	a1, 0x2
80000caa: 02b50b63     	beq	a0, a1, 0x80000ce0 <.Lpcrel_hi26>
80000cae: a009         	j	0x80000cb0 <.Lpcrel_hi23>

0000000080000cb0 <.Lpcrel_hi23>:
80000cb0: 00004517     	auipc	a0, 0x4
80000cb4: e7f50513     	addi	a0, a0, -0x181
80000cb8: e42a         	sd	a0, 0x8(sp)
80000cba: 451d         	li	a0, 0x7
80000cbc: e82a         	sd	a0, 0x10(sp)
80000cbe: a80d         	j	0x80000cf0 <.Lpcrel_hi26+0x10>

0000000080000cc0 <.Lpcrel_hi24>:
80000cc0: 00004517     	auipc	a0, 0x4
80000cc4: e6050513     	addi	a0, a0, -0x1a0
80000cc8: e42a         	sd	a0, 0x8(sp)
80000cca: 4515         	li	a0, 0x5
80000ccc: e82a         	sd	a0, 0x10(sp)
80000cce: a00d         	j	0x80000cf0 <.Lpcrel_hi26+0x10>

0000000080000cd0 <.Lpcrel_hi25>:
80000cd0: 00004517     	auipc	a0, 0x4
80000cd4: e5550513     	addi	a0, a0, -0x1ab
80000cd8: e42a         	sd	a0, 0x8(sp)
80000cda: 4515         	li	a0, 0x5
80000cdc: e82a         	sd	a0, 0x10(sp)
80000cde: a809         	j	0x80000cf0 <.Lpcrel_hi26+0x10>

0000000080000ce0 <.Lpcrel_hi26>:
80000ce0: 00004517     	auipc	a0, 0x4
80000ce4: e4a50513     	addi	a0, a0, -0x1b6
80000ce8: e42a         	sd	a0, 0x8(sp)
80000cea: 4515         	li	a0, 0x5
80000cec: e82a         	sd	a0, 0x10(sp)
80000cee: a009         	j	0x80000cf0 <.Lpcrel_hi26+0x10>
80000cf0: 6522         	ld	a0, 0x8(sp)
80000cf2: 65c2         	ld	a1, 0x10(sp)
80000cf4: 6105         	addi	sp, sp, 0x20
80000cf6: 8082         	ret

0000000080000cf8 <lab4_kernel_task1::low_l1_table_pa::h0e5c8c0f0207c754>:
80000cf8: 0000b517     	auipc	a0, 0xb
80000cfc: 30850513     	addi	a0, a0, 0x308
80000d00: 8082         	ret

0000000080000d02 <lab4_kernel_task1::user_shared_mut::h01badbe7365bbab5>:
80000d02: 1141         	addi	sp, sp, -0x10

0000000080000d04 <.Lpcrel_hi28>:
80000d04: 00007517     	auipc	a0, 0x7
80000d08: 2fc50513     	addi	a0, a0, 0x2fc
80000d0c: e02a         	sd	a0, 0x0(sp)
80000d0e: e42a         	sd	a0, 0x8(sp)
80000d10: 891d         	andi	a0, a0, 0x7
80000d12: e901         	bnez	a0, 0x80000d22 <.Lpcrel_hi29+0xc>
80000d14: a009         	j	0x80000d16 <.Lpcrel_hi29>

0000000080000d16 <.Lpcrel_hi29>:
80000d16: 00007517     	auipc	a0, 0x7
80000d1a: 2ea50513     	addi	a0, a0, 0x2ea
80000d1e: ed01         	bnez	a0, 0x80000d36 <.Lpcrel_hi31>
80000d20: a00d         	j	0x80000d42 <.Lpcrel_hi32>
80000d22: 6582         	ld	a1, 0x0(sp)

0000000080000d24 <.Lpcrel_hi30>:
80000d24: 00004517     	auipc	a0, 0x4
80000d28: e1450613     	addi	a2, a0, -0x1ec
80000d2c: 4521         	li	a0, 0x8
80000d2e: 00003097     	auipc	ra, 0x3
80000d32: 31a080e7     	jalr	0x31a(ra) <core::panicking::panic_misaligned_pointer_dereference::hda85f7fb51d959f0>

0000000080000d36 <.Lpcrel_hi31>:
80000d36: 00007517     	auipc	a0, 0x7
80000d3a: 2ca50513     	addi	a0, a0, 0x2ca
80000d3e: 0141         	addi	sp, sp, 0x10
80000d40: 8082         	ret

0000000080000d42 <.Lpcrel_hi32>:
80000d42: 00004517     	auipc	a0, 0x4
80000d46: df650513     	addi	a0, a0, -0x20a
80000d4a: 00003097     	auipc	ra, 0x3
80000d4e: 2de080e7     	jalr	0x2de(ra) <core::panicking::panic_null_pointer_dereference::hbac6411af4f2e916>

0000000080000d52 <lab4_kernel_task1::clear_page_table::he96fbc3a5abf1255>:
80000d52: 711d         	addi	sp, sp, -0x60
80000d54: ec86         	sd	ra, 0x58(sp)
80000d56: f02a         	sd	a0, 0x20(sp)
80000d58: e4aa         	sd	a0, 0x48(sp)
80000d5a: 4501         	li	a0, 0x0
80000d5c: 20000593     	li	a1, 0x200
80000d60: fffff097     	auipc	ra, 0xfffff
80000d64: 48a080e7     	jalr	0x48a(ra) <_$LT$I$u20$as$u20$core..iter..traits..collect..IntoIterator$GT$::into_iter::hd84722667483065b>
80000d68: f42a         	sd	a0, 0x28(sp)
80000d6a: f82e         	sd	a1, 0x30(sp)
80000d6c: a009         	j	0x80000d6e <lab4_kernel_task1::clear_page_table::he96fbc3a5abf1255+0x1c>
80000d6e: 1028         	addi	a0, sp, 0x28
80000d70: fffff097     	auipc	ra, 0xfffff
80000d74: 466080e7     	jalr	0x466(ra) <core::iter::range::_$LT$impl$u20$core..iter..traits..iterator..Iterator$u20$for$u20$core..ops..range..Range$LT$A$GT$$GT$::next::h53730fe1ae44bb6d>
80000d78: fc2a         	sd	a0, 0x38(sp)
80000d7a: e0ae         	sd	a1, 0x40(sp)
80000d7c: 7562         	ld	a0, 0x38(sp)
80000d7e: 8905         	andi	a0, a0, 0x1
80000d80: cd01         	beqz	a0, 0x80000d98 <lab4_kernel_task1::clear_page_table::he96fbc3a5abf1255+0x46>
80000d82: a009         	j	0x80000d84 <lab4_kernel_task1::clear_page_table::he96fbc3a5abf1255+0x32>
80000d84: 6506         	ld	a0, 0x40(sp)
80000d86: e82a         	sd	a0, 0x10(sp)
80000d88: e8aa         	sd	a0, 0x50(sp)
80000d8a: 20000593     	li	a1, 0x200
80000d8e: 862a         	mv	a2, a0
80000d90: ec32         	sd	a2, 0x18(sp)
80000d92: 00b56663     	bltu	a0, a1, 0x80000d9e <lab4_kernel_task1::clear_page_table::he96fbc3a5abf1255+0x4c>
80000d96: a811         	j	0x80000daa <lab4_kernel_task1::clear_page_table::he96fbc3a5abf1255+0x58>
80000d98: 60e6         	ld	ra, 0x58(sp)
80000d9a: 6125         	addi	sp, sp, 0x60
80000d9c: 8082         	ret
80000d9e: 7502         	ld	a0, 0x20(sp)
80000da0: 85aa         	mv	a1, a0
80000da2: 1552         	slli	a0, a0, 0x34
80000da4: e42e         	sd	a1, 0x8(sp)
80000da6: cd09         	beqz	a0, 0x80000dc0 <.Lpcrel_hi33+0x14>
80000da8: a839         	j	0x80000dc6 <.Lpcrel_hi33+0x1a>
80000daa: 6562         	ld	a0, 0x18(sp)

0000000080000dac <.Lpcrel_hi33>:
80000dac: 00004597     	auipc	a1, 0x4
80000db0: da458613     	addi	a2, a1, -0x25c
80000db4: 20000593     	li	a1, 0x200
80000db8: 00003097     	auipc	ra, 0x3
80000dbc: 204080e7     	jalr	0x204(ra) <core::panicking::panic_bounds_check::h6aaee0d15e0261eb>
80000dc0: 7502         	ld	a0, 0x20(sp)
80000dc2: ed01         	bnez	a0, 0x80000dda <.Lpcrel_hi34+0x12>
80000dc4: a015         	j	0x80000de8 <.Lpcrel_hi35>
80000dc6: 65a2         	ld	a1, 0x8(sp)

0000000080000dc8 <.Lpcrel_hi34>:
80000dc8: 00004517     	auipc	a0, 0x4
80000dcc: d8850613     	addi	a2, a0, -0x278
80000dd0: 6505         	lui	a0, 0x1
80000dd2: 00003097     	auipc	ra, 0x3
80000dd6: 276080e7     	jalr	0x276(ra) <core::panicking::panic_misaligned_pointer_dereference::hda85f7fb51d959f0>
80000dda: 7502         	ld	a0, 0x20(sp)
80000ddc: 65c2         	ld	a1, 0x10(sp)
80000dde: 058e         	slli	a1, a1, 0x3
80000de0: 95aa         	add	a1, a1, a0
80000de2: 4501         	li	a0, 0x0
80000de4: e188         	sd	a0, 0x0(a1)
80000de6: b761         	j	0x80000d6e <lab4_kernel_task1::clear_page_table::he96fbc3a5abf1255+0x1c>

0000000080000de8 <.Lpcrel_hi35>:
80000de8: 00004517     	auipc	a0, 0x4
80000dec: d6850513     	addi	a0, a0, -0x298
80000df0: 00003097     	auipc	ra, 0x3
80000df4: 238080e7     	jalr	0x238(ra) <core::panicking::panic_null_pointer_dereference::hbac6411af4f2e916>

0000000080000df8 <lab4_kernel_task1::kernel_stack_top::hb5f46af0ebaf8799>:
80000df8: 00012517     	auipc	a0, 0x12
80000dfc: 21850513     	addi	a0, a0, 0x218
80000e00: 8082         	ret

0000000080000e02 <lab4_kernel_task1::user_l0_table_pa::h3107575610447ccc>:
80000e02: 0000c517     	auipc	a0, 0xc
80000e06: 1fe50513     	addi	a0, a0, 0x1fe
80000e0a: 8082         	ret

0000000080000e0c <lab4_kernel_task1::user_program_len::h654d543e02e67df0>:
80000e0c: 00000517     	auipc	a0, 0x0
80000e10: 89450593     	addi	a1, a0, -0x76c

0000000080000e14 <.Lpcrel_hi39>:
80000e14: 00000517     	auipc	a0, 0x0
80000e18: 8e250513     	addi	a0, a0, -0x71e
80000e1c: 00b56d63     	bltu	a0, a1, 0x80000e36 <.Lpcrel_hi42>
80000e20: a009         	j	0x80000e22 <.Lpcrel_hi40>

0000000080000e22 <.Lpcrel_hi40>:
80000e22: 00000517     	auipc	a0, 0x0
80000e26: 87e50593     	addi	a1, a0, -0x782

0000000080000e2a <.Lpcrel_hi41>:
80000e2a: 00000517     	auipc	a0, 0x0
80000e2e: 8cc50513     	addi	a0, a0, -0x734
80000e32: 8d0d         	sub	a0, a0, a1
80000e34: 8082         	ret

0000000080000e36 <.Lpcrel_hi42>:
80000e36: 00004517     	auipc	a0, 0x4
80000e3a: d3250513     	addi	a0, a0, -0x2ce
80000e3e: 00003097     	auipc	ra, 0x3
80000e42: 142080e7     	jalr	0x142(ra) <core::panicking::panic_const::panic_const_sub_overflow::hccc965ba9198de7c>

0000000080000e46 <lab4_kernel_task1::user_code_page_pa::h406cdbb3f3d6d005>:
80000e46: 00006517     	auipc	a0, 0x6
80000e4a: 1ba50513     	addi	a0, a0, 0x1ba
80000e4e: 8082         	ret

0000000080000e50 <lab4_kernel_task1::user_data_page_pa::h1f203e8f4785de6c>:
80000e50: 00007517     	auipc	a0, 0x7
80000e54: 1b050513     	addi	a0, a0, 0x1b0
80000e58: 8082         	ret

0000000080000e5a <lab4_kernel_task1::kernel_l1_table_pa::hc3a6fb8af38a3c53>:
80000e5a: 0000d517     	auipc	a0, 0xd
80000e5e: 1a650513     	addi	a0, a0, 0x1a6
80000e62: 8082         	ret

0000000080000e64 <lab4_kernel_task1::prepare_user_frame::h8d6b18127323476a>:
80000e64: 716d         	addi	sp, sp, -0x110
80000e66: e606         	sd	ra, 0x108(sp)
80000e68: 0028         	addi	a0, sp, 0x8
80000e6a: 00002097     	auipc	ra, 0x2
80000e6e: 268080e7     	jalr	0x268(ra) <lab4_kernel_task1::trap::TrapFrame::zeroed::he276510802c16075>

0000000080000e72 <.Lpcrel_hi46>:
80000e72: 00005517     	auipc	a0, 0x5
80000e76: 18e50513     	addi	a0, a0, 0x18e
80000e7a: c10d         	beqz	a0, 0x80000e9c <.Lpcrel_hi48>
80000e7c: a009         	j	0x80000e7e <.Lpcrel_hi47>

0000000080000e7e <.Lpcrel_hi47>:
80000e7e: 00005517     	auipc	a0, 0x5
80000e82: 18250513     	addi	a0, a0, 0x182
80000e86: e02a         	sd	a0, 0x0(sp)
80000e88: 002c         	addi	a1, sp, 0x8
80000e8a: 10000613     	li	a2, 0x100
80000e8e: 00003097     	auipc	ra, 0x3
80000e92: 364080e7     	jalr	0x364(ra) <memcpy>
80000e96: 6502         	ld	a0, 0x0(sp)
80000e98: e911         	bnez	a0, 0x80000eac <.Lpcrel_hi49>
80000e9a: a015         	j	0x80000ebe <.Lpcrel_hi50>

0000000080000e9c <.Lpcrel_hi48>:
80000e9c: 00004517     	auipc	a0, 0x4
80000ea0: ce450513     	addi	a0, a0, -0x31c
80000ea4: 00003097     	auipc	ra, 0x3
80000ea8: 184080e7     	jalr	0x184(ra) <core::panicking::panic_null_pointer_dereference::hbac6411af4f2e916>

0000000080000eac <.Lpcrel_hi49>:
80000eac: 00005517     	auipc	a0, 0x5
80000eb0: 15450513     	addi	a0, a0, 0x154
80000eb4: 004005b7     	lui	a1, 0x400
80000eb8: fd6c         	sd	a1, 0xf8(a0)
80000eba: e911         	bnez	a0, 0x80000ece <.Lpcrel_hi51>
80000ebc: a01d         	j	0x80000ee2 <.Lpcrel_hi52>

0000000080000ebe <.Lpcrel_hi50>:
80000ebe: 00004517     	auipc	a0, 0x4
80000ec2: cda50513     	addi	a0, a0, -0x326
80000ec6: 00003097     	auipc	ra, 0x3
80000eca: 162080e7     	jalr	0x162(ra) <core::panicking::panic_null_pointer_dereference::hbac6411af4f2e916>

0000000080000ece <.Lpcrel_hi51>:
80000ece: 00005517     	auipc	a0, 0x5
80000ed2: 13250593     	addi	a1, a0, 0x132
80000ed6: 00403537     	lui	a0, 0x403
80000eda: f9e8         	sd	a0, 0xf0(a1)
80000edc: 60b2         	ld	ra, 0x108(sp)
80000ede: 6151         	addi	sp, sp, 0x110
80000ee0: 8082         	ret

0000000080000ee2 <.Lpcrel_hi52>:
80000ee2: 00004517     	auipc	a0, 0x4
80000ee6: cce50513     	addi	a0, a0, -0x332
80000eea: 00003097     	auipc	ra, 0x3
80000eee: 13e080e7     	jalr	0x13e(ra) <core::panicking::panic_null_pointer_dereference::hbac6411af4f2e916>

0000000080000ef2 <lab4_kernel_task1::root_page_table_pa::h9fd19df79909b7c6>:
80000ef2: 00008517     	auipc	a0, 0x8
80000ef6: 10e50513     	addi	a0, a0, 0x10e
80000efa: 8082         	ret

0000000080000efc <lab4_kernel_task1::user_stack_page_pa::h0069fa8165aaef3d>:
80000efc: 00009517     	auipc	a0, 0x9
80000f00: 10450513     	addi	a0, a0, 0x104
80000f04: 8082         	ret

0000000080000f06 <lab4_kernel_task1::initialize_user_pages::h07a181df81d32158>:
80000f06: 7141         	addi	sp, sp, -0x1f0
80000f08: f786         	sd	ra, 0x1e8(sp)
80000f0a: f3a2         	sd	s0, 0x1e0(sp)
80000f0c: 1b80         	addi	s0, sp, 0x1f0
80000f0e: 6519         	lui	a0, 0x6
80000f10: e1050513     	addi	a0, a0, -0x1f0
80000f14: 40a10133     	sub	sp, sp, a0
80000f18: 00c15513     	srli	a0, sp, 0xc
80000f1c: 00c51113     	slli	sp, a0, 0xc
80000f20: 6515         	lui	a0, 0x5
80000f22: fb850513     	addi	a0, a0, -0x48
80000f26: 950a         	add	a0, a0, sp
80000f28: 6585         	lui	a1, 0x1
80000f2a: 958a         	add	a1, a1, sp
80000f2c: fea5bc23     	sd	a0, -0x8(a1)
80000f30: 6505         	lui	a0, 0x1
80000f32: 950a         	add	a0, a0, sp
80000f34: 00001097     	auipc	ra, 0x1
80000f38: f10080e7     	jalr	-0xf0(ra) <lab4_kernel_task1::Page::zeroed::h8ce39d29c7694908>

0000000080000f3c <.Lpcrel_hi55>:
80000f3c: 00006517     	auipc	a0, 0x6
80000f40: 0c450513     	addi	a0, a0, 0xc4
80000f44: 1552         	slli	a0, a0, 0x34
80000f46: e901         	bnez	a0, 0x80000f56 <.Lpcrel_hi57>
80000f48: a009         	j	0x80000f4a <.Lpcrel_hi56>

0000000080000f4a <.Lpcrel_hi56>:
80000f4a: 00006517     	auipc	a0, 0x6
80000f4e: 0b650513     	addi	a0, a0, 0xb6
80000f52: ed19         	bnez	a0, 0x80000f70 <.Lpcrel_hi59>
80000f54: a0b1         	j	0x80000fa0 <.Lpcrel_hi61>

0000000080000f56 <.Lpcrel_hi57>:
80000f56: 00006517     	auipc	a0, 0x6
80000f5a: 0aa50593     	addi	a1, a0, 0xaa

0000000080000f5e <.Lpcrel_hi58>:
80000f5e: 00004517     	auipc	a0, 0x4
80000f62: c6a50613     	addi	a2, a0, -0x396
80000f66: 6505         	lui	a0, 0x1
80000f68: 00003097     	auipc	ra, 0x3
80000f6c: 0e0080e7     	jalr	0xe0(ra) <core::panicking::panic_misaligned_pointer_dereference::hda85f7fb51d959f0>

0000000080000f70 <.Lpcrel_hi59>:
80000f70: 00006517     	auipc	a0, 0x6
80000f74: 09050513     	addi	a0, a0, 0x90
80000f78: 6585         	lui	a1, 0x1
80000f7a: 958a         	add	a1, a1, sp
80000f7c: 6605         	lui	a2, 0x1
80000f7e: 00003097     	auipc	ra, 0x3
80000f82: 274080e7     	jalr	0x274(ra) <memcpy>
80000f86: 6509         	lui	a0, 0x2
80000f88: 950a         	add	a0, a0, sp
80000f8a: 00001097     	auipc	ra, 0x1
80000f8e: eba080e7     	jalr	-0x146(ra) <lab4_kernel_task1::Page::zeroed::h8ce39d29c7694908>

0000000080000f92 <.Lpcrel_hi60>:
80000f92: 00007517     	auipc	a0, 0x7
80000f96: 06e50513     	addi	a0, a0, 0x6e
80000f9a: 1552         	slli	a0, a0, 0x34
80000f9c: c911         	beqz	a0, 0x80000fb0 <.Lpcrel_hi62>
80000f9e: a839         	j	0x80000fbc <.Lpcrel_hi63>

0000000080000fa0 <.Lpcrel_hi61>:
80000fa0: 00004517     	auipc	a0, 0x4
80000fa4: c2850513     	addi	a0, a0, -0x3d8
80000fa8: 00003097     	auipc	ra, 0x3
80000fac: 080080e7     	jalr	0x80(ra) <core::panicking::panic_null_pointer_dereference::hbac6411af4f2e916>

0000000080000fb0 <.Lpcrel_hi62>:
80000fb0: 00007517     	auipc	a0, 0x7
80000fb4: 05050513     	addi	a0, a0, 0x50
80000fb8: ed19         	bnez	a0, 0x80000fd6 <.Lpcrel_hi65>
80000fba: a0b1         	j	0x80001006 <.Lpcrel_hi67>

0000000080000fbc <.Lpcrel_hi63>:
80000fbc: 00007517     	auipc	a0, 0x7
80000fc0: 04450593     	addi	a1, a0, 0x44

0000000080000fc4 <.Lpcrel_hi64>:
80000fc4: 00004517     	auipc	a0, 0x4
80000fc8: c1c50613     	addi	a2, a0, -0x3e4
80000fcc: 6505         	lui	a0, 0x1
80000fce: 00003097     	auipc	ra, 0x3
80000fd2: 07a080e7     	jalr	0x7a(ra) <core::panicking::panic_misaligned_pointer_dereference::hda85f7fb51d959f0>

0000000080000fd6 <.Lpcrel_hi65>:
80000fd6: 00007517     	auipc	a0, 0x7
80000fda: 02a50513     	addi	a0, a0, 0x2a
80000fde: 6589         	lui	a1, 0x2
80000fe0: 958a         	add	a1, a1, sp
80000fe2: 6605         	lui	a2, 0x1
80000fe4: 00003097     	auipc	ra, 0x3
80000fe8: 20e080e7     	jalr	0x20e(ra) <memcpy>
80000fec: 650d         	lui	a0, 0x3
80000fee: 950a         	add	a0, a0, sp
80000ff0: 00001097     	auipc	ra, 0x1
80000ff4: e54080e7     	jalr	-0x1ac(ra) <lab4_kernel_task1::Page::zeroed::h8ce39d29c7694908>

0000000080000ff8 <.Lpcrel_hi66>:
80000ff8: 00009517     	auipc	a0, 0x9
80000ffc: 00850513     	addi	a0, a0, 0x8
80001000: 1552         	slli	a0, a0, 0x34
80001002: c911         	beqz	a0, 0x80001016 <.Lpcrel_hi68>
80001004: a839         	j	0x80001022 <.Lpcrel_hi69>

0000000080001006 <.Lpcrel_hi67>:
80001006: 00004517     	auipc	a0, 0x4
8000100a: bda50513     	addi	a0, a0, -0x426
8000100e: 00003097     	auipc	ra, 0x3
80001012: 01a080e7     	jalr	0x1a(ra) <core::panicking::panic_null_pointer_dereference::hbac6411af4f2e916>

0000000080001016 <.Lpcrel_hi68>:
80001016: 00009517     	auipc	a0, 0x9
8000101a: fea50513     	addi	a0, a0, -0x16
8000101e: ed19         	bnez	a0, 0x8000103c <.Lpcrel_hi71>
80001020: a8ed         	j	0x8000111a <.Lpcrel_hi77>

0000000080001022 <.Lpcrel_hi69>:
80001022: 00009517     	auipc	a0, 0x9
80001026: fde50593     	addi	a1, a0, -0x22

000000008000102a <.Lpcrel_hi70>:
8000102a: 00004517     	auipc	a0, 0x4
8000102e: bce50613     	addi	a2, a0, -0x432
80001032: 6505         	lui	a0, 0x1
80001034: 00003097     	auipc	ra, 0x3
80001038: 014080e7     	jalr	0x14(ra) <core::panicking::panic_misaligned_pointer_dereference::hda85f7fb51d959f0>

000000008000103c <.Lpcrel_hi71>:
8000103c: 00009517     	auipc	a0, 0x9
80001040: fc450513     	addi	a0, a0, -0x3c
80001044: 658d         	lui	a1, 0x3
80001046: 958a         	add	a1, a1, sp
80001048: 6605         	lui	a2, 0x1
8000104a: 00003097     	auipc	ra, 0x3
8000104e: 1a8080e7     	jalr	0x1a8(ra) <memcpy>
80001052: 00000097     	auipc	ra, 0x0
80001056: dba080e7     	jalr	-0x246(ra) <lab4_kernel_task1::user_program_len::h654d543e02e67df0>
8000105a: 85aa         	mv	a1, a0

000000008000105c <.Lpcrel_hi72>:
8000105c: fffff517     	auipc	a0, 0xfffff
80001060: 64450513     	addi	a0, a0, 0x644

0000000080001064 <.Lpcrel_hi73>:
80001064: 00004617     	auipc	a2, 0x4
80001068: bac60613     	addi	a2, a2, -0x454
8000106c: 00001097     	auipc	ra, 0x1
80001070: 6a8080e7     	jalr	0x6a8(ra) <core::slice::raw::from_raw_parts::h927894bc2e4fc992>
80001074: 6605         	lui	a2, 0x1
80001076: 960a         	add	a2, a2, sp
80001078: ff863603     	ld	a2, -0x8(a2)
8000107c: 6685         	lui	a3, 0x1
8000107e: 968a         	add	a3, a3, sp
80001080: fea6b423     	sd	a0, -0x18(a3)
80001084: 872e         	mv	a4, a1
80001086: 6585         	lui	a1, 0x1
80001088: 958a         	add	a1, a1, sp
8000108a: fee5b823     	sd	a4, -0x10(a1)
8000108e: e208         	sd	a0, 0x0(a2)
80001090: e618         	sd	a4, 0x8(a2)
80001092: fe08         	sd	a0, 0x38(a2)
80001094: e238         	sd	a4, 0x40(a2)

0000000080001096 <.Lpcrel_hi74>:
80001096: 00006597     	auipc	a1, 0x6
8000109a: f6a58593     	addi	a1, a1, -0x96
8000109e: 6685         	lui	a3, 0x1
800010a0: 968a         	add	a3, a3, sp
800010a2: feb6b023     	sd	a1, -0x20(a3)
800010a6: fa0c         	sd	a1, 0x30(a2)
800010a8: ee08         	sd	a0, 0x18(a2)
800010aa: f20c         	sd	a1, 0x20(a2)
800010ac: f618         	sd	a4, 0x28(a2)

00000000800010ae <.Lpcrel_hi75>:
800010ae: 00004617     	auipc	a2, 0x4
800010b2: ed260793     	addi	a5, a2, -0x12e
800010b6: 4685         	li	a3, 0x1
800010b8: 8636         	mv	a2, a3
800010ba: 00002097     	auipc	ra, 0x2
800010be: 8fe080e7     	jalr	-0x702(ra) <core::ptr::copy_nonoverlapping::precondition_check::h4edec1975839ce07>
800010c2: 6505         	lui	a0, 0x1
800010c4: 950a         	add	a0, a0, sp
800010c6: fe053503     	ld	a0, -0x20(a0)
800010ca: 6585         	lui	a1, 0x1
800010cc: 958a         	add	a1, a1, sp
800010ce: fe85b583     	ld	a1, -0x18(a1)
800010d2: 6605         	lui	a2, 0x1
800010d4: 960a         	add	a2, a2, sp
800010d6: ff063603     	ld	a2, -0x10(a2)
800010da: 00003097     	auipc	ra, 0x3
800010de: 118080e7     	jalr	0x118(ra) <memcpy>
800010e2: 00000097     	auipc	ra, 0x0
800010e6: c20080e7     	jalr	-0x3e0(ra) <lab4_kernel_task1::user_shared_mut::h01badbe7365bbab5>
800010ea: 85aa         	mv	a1, a0
800010ec: 6505         	lui	a0, 0x1
800010ee: 950a         	add	a0, a0, sp
800010f0: ff853503     	ld	a0, -0x8(a0)
800010f4: e90c         	sd	a1, 0x10(a0)

00000000800010f6 <.Lpcrel_hi76>:
800010f6: 00004517     	auipc	a0, 0x4
800010fa: 90a50513     	addi	a0, a0, -0x6f6
800010fe: 6108         	ld	a0, 0x0(a0)
80001100: e188         	sd	a0, 0x0(a1)
80001102: 4501         	li	a0, 0x0
80001104: e588         	sd	a0, 0x8(a1)
80001106: e988         	sd	a0, 0x10(a1)
80001108: ed88         	sd	a0, 0x18(a1)
8000110a: f188         	sd	a0, 0x20(a1)
8000110c: f588         	sd	a0, 0x28(a1)
8000110e: e1040113     	addi	sp, s0, -0x1f0
80001112: 70be         	ld	ra, 0x1e8(sp)
80001114: 741e         	ld	s0, 0x1e0(sp)
80001116: 617d         	addi	sp, sp, 0x1f0
80001118: 8082         	ret

000000008000111a <.Lpcrel_hi77>:
8000111a: 00004517     	auipc	a0, 0x4
8000111e: ade50513     	addi	a0, a0, -0x522
80001122: 00003097     	auipc	ra, 0x3
80001126: f06080e7     	jalr	-0xfa(ra) <core::panicking::panic_null_pointer_dereference::hbac6411af4f2e916>

000000008000112a <lab4_kernel_task1::machine_trap_stack_top::h8f6eac1b1aa194e4>:
8000112a: 00016517     	auipc	a0, 0x16
8000112e: ee650513     	addi	a0, a0, -0x11a
80001132: 8082         	ret

0000000080001134 <lab4_kernel_task1::build_single_page_table::h035ad3a1a4bcc3a9>:
80001134: 7111         	addi	sp, sp, -0x100
80001136: fd86         	sd	ra, 0xf8(sp)

0000000080001138 <.Lpcrel_hi79>:
80001138: 00008517     	auipc	a0, 0x8
8000113c: ec850513     	addi	a0, a0, -0x138
80001140: 00000097     	auipc	ra, 0x0
80001144: c12080e7     	jalr	-0x3ee(ra) <lab4_kernel_task1::clear_page_table::he96fbc3a5abf1255>

0000000080001148 <.Lpcrel_hi80>:
80001148: 0000b517     	auipc	a0, 0xb
8000114c: eb850513     	addi	a0, a0, -0x148
80001150: 00000097     	auipc	ra, 0x0
80001154: c02080e7     	jalr	-0x3fe(ra) <lab4_kernel_task1::clear_page_table::he96fbc3a5abf1255>

0000000080001158 <.Lpcrel_hi81>:
80001158: 0000a517     	auipc	a0, 0xa
8000115c: ea850513     	addi	a0, a0, -0x158
80001160: 00000097     	auipc	ra, 0x0
80001164: bf2080e7     	jalr	-0x40e(ra) <lab4_kernel_task1::clear_page_table::he96fbc3a5abf1255>

0000000080001168 <.Lpcrel_hi82>:
80001168: 0000c517     	auipc	a0, 0xc
8000116c: e9850513     	addi	a0, a0, -0x168
80001170: 00000097     	auipc	ra, 0x0
80001174: be2080e7     	jalr	-0x41e(ra) <lab4_kernel_task1::clear_page_table::he96fbc3a5abf1255>

0000000080001178 <.Lpcrel_hi83>:
80001178: 0000d517     	auipc	a0, 0xd
8000117c: e8850513     	addi	a0, a0, -0x178
80001180: 00000097     	auipc	ra, 0x0
80001184: bd2080e7     	jalr	-0x42e(ra) <lab4_kernel_task1::clear_page_table::he96fbc3a5abf1255>
80001188: 00000097     	auipc	ra, 0x0
8000118c: cd2080e7     	jalr	-0x32e(ra) <lab4_kernel_task1::kernel_l1_table_pa::hc3a6fb8af38a3c53>
80001190: 00001097     	auipc	ra, 0x1
80001194: e24080e7     	jalr	-0x1dc(ra) <lab4_kernel_task1::table_pte::hfd296f7ecacbc37e>
80001198: fd2a         	sd	a0, 0xb8(sp)
8000119a: 4505         	li	a0, 0x1
8000119c: 057e         	slli	a0, a0, 0x1f
8000119e: fffff097     	auipc	ra, 0xfffff
800011a2: 79a080e7     	jalr	0x79a(ra) <lab4_kernel_task1::vpn2_index::h5a2986948174d06c>
800011a6: 85aa         	mv	a1, a0
800011a8: 852e         	mv	a0, a1
800011aa: e1aa         	sd	a0, 0xc0(sp)
800011ac: 1ff00513     	li	a0, 0x1ff
800011b0: 00b56a63     	bltu	a0, a1, 0x800011c4 <.Lpcrel_hi84+0xe>
800011b4: a009         	j	0x800011b6 <.Lpcrel_hi84>

00000000800011b6 <.Lpcrel_hi84>:
800011b6: 00008517     	auipc	a0, 0x8
800011ba: e4a50513     	addi	a0, a0, -0x1b6
800011be: 1552         	slli	a0, a0, 0x34
800011c0: cd09         	beqz	a0, 0x800011da <.Lpcrel_hi86>
800011c2: a015         	j	0x800011e6 <.Lpcrel_hi87>
800011c4: 650e         	ld	a0, 0xc0(sp)

00000000800011c6 <.Lpcrel_hi85>:
800011c6: 00004597     	auipc	a1, 0x4
800011ca: a6258613     	addi	a2, a1, -0x59e
800011ce: 20000593     	li	a1, 0x200
800011d2: 00003097     	auipc	ra, 0x3
800011d6: dea080e7     	jalr	-0x216(ra) <core::panicking::panic_bounds_check::h6aaee0d15e0261eb>

00000000800011da <.Lpcrel_hi86>:
800011da: 00008517     	auipc	a0, 0x8
800011de: e2650513     	addi	a0, a0, -0x1da
800011e2: ed19         	bnez	a0, 0x80001200 <.Lpcrel_hi88+0x12>
800011e4: a8b1         	j	0x80001240 <.Lpcrel_hi90>

00000000800011e6 <.Lpcrel_hi87>:
800011e6: 00008517     	auipc	a0, 0x8
800011ea: e1a50593     	addi	a1, a0, -0x1e6

00000000800011ee <.Lpcrel_hi88>:
800011ee: 00004517     	auipc	a0, 0x4
800011f2: a3a50613     	addi	a2, a0, -0x5c6
800011f6: 6505         	lui	a0, 0x1
800011f8: 00003097     	auipc	ra, 0x3
800011fc: e50080e7     	jalr	-0x1b0(ra) <core::panicking::panic_misaligned_pointer_dereference::hda85f7fb51d959f0>
80001200: 756a         	ld	a0, 0xb8(sp)
80001202: 658e         	ld	a1, 0xc0(sp)
80001204: 00359613     	slli	a2, a1, 0x3

0000000080001208 <.Lpcrel_hi89>:
80001208: 00008597     	auipc	a1, 0x8
8000120c: df858593     	addi	a1, a1, -0x208
80001210: 95b2         	add	a1, a1, a2
80001212: e188         	sd	a0, 0x0(a1)
80001214: 00000097     	auipc	ra, 0x0
80001218: ae4080e7     	jalr	-0x51c(ra) <lab4_kernel_task1::low_l1_table_pa::h0e5c8c0f0207c754>
8000121c: 00001097     	auipc	ra, 0x1
80001220: d98080e7     	jalr	-0x268(ra) <lab4_kernel_task1::table_pte::hfd296f7ecacbc37e>
80001224: f52a         	sd	a0, 0xa8(sp)
80001226: 00400537     	lui	a0, 0x400
8000122a: fffff097     	auipc	ra, 0xfffff
8000122e: 70e080e7     	jalr	0x70e(ra) <lab4_kernel_task1::vpn2_index::h5a2986948174d06c>
80001232: 85aa         	mv	a1, a0
80001234: f92e         	sd	a1, 0xb0(sp)
80001236: 20000593     	li	a1, 0x200
8000123a: 00b56b63     	bltu	a0, a1, 0x80001250 <.Lpcrel_hi91>
8000123e: a005         	j	0x8000125e <.Lpcrel_hi91+0xe>

0000000080001240 <.Lpcrel_hi90>:
80001240: 00004517     	auipc	a0, 0x4
80001244: 9e850513     	addi	a0, a0, -0x618
80001248: 00003097     	auipc	ra, 0x3
8000124c: de0080e7     	jalr	-0x220(ra) <core::panicking::panic_null_pointer_dereference::hbac6411af4f2e916>

0000000080001250 <.Lpcrel_hi91>:
80001250: 00008517     	auipc	a0, 0x8
80001254: db050513     	addi	a0, a0, -0x250
80001258: 1552         	slli	a0, a0, 0x34
8000125a: cd09         	beqz	a0, 0x80001274 <.Lpcrel_hi93>
8000125c: a015         	j	0x80001280 <.Lpcrel_hi94>
8000125e: 754a         	ld	a0, 0xb0(sp)

0000000080001260 <.Lpcrel_hi92>:
80001260: 00004597     	auipc	a1, 0x4
80001264: 9e058613     	addi	a2, a1, -0x620
80001268: 20000593     	li	a1, 0x200
8000126c: 00003097     	auipc	ra, 0x3
80001270: d50080e7     	jalr	-0x2b0(ra) <core::panicking::panic_bounds_check::h6aaee0d15e0261eb>

0000000080001274 <.Lpcrel_hi93>:
80001274: 00008517     	auipc	a0, 0x8
80001278: d8c50513     	addi	a0, a0, -0x274
8000127c: ed19         	bnez	a0, 0x8000129a <.Lpcrel_hi95+0x12>
8000127e: a8b1         	j	0x800012da <.Lpcrel_hi97>

0000000080001280 <.Lpcrel_hi94>:
80001280: 00008517     	auipc	a0, 0x8
80001284: d8050593     	addi	a1, a0, -0x280

0000000080001288 <.Lpcrel_hi95>:
80001288: 00004517     	auipc	a0, 0x4
8000128c: 9b850613     	addi	a2, a0, -0x648
80001290: 6505         	lui	a0, 0x1
80001292: 00003097     	auipc	ra, 0x3
80001296: db6080e7     	jalr	-0x24a(ra) <core::panicking::panic_misaligned_pointer_dereference::hda85f7fb51d959f0>
8000129a: 752a         	ld	a0, 0xa8(sp)
8000129c: 75ca         	ld	a1, 0xb0(sp)
8000129e: 00359613     	slli	a2, a1, 0x3

00000000800012a2 <.Lpcrel_hi96>:
800012a2: 00008597     	auipc	a1, 0x8
800012a6: d5e58593     	addi	a1, a1, -0x2a2
800012aa: 95b2         	add	a1, a1, a2
800012ac: e188         	sd	a0, 0x0(a1)
800012ae: 00000097     	auipc	ra, 0x0
800012b2: 9da080e7     	jalr	-0x626(ra) <lab4_kernel_task1::dev_l0_table_pa::hc6a702bb6ac82856>
800012b6: 00001097     	auipc	ra, 0x1
800012ba: cfe080e7     	jalr	-0x302(ra) <lab4_kernel_task1::table_pte::hfd296f7ecacbc37e>
800012be: ed2a         	sd	a0, 0x98(sp)
800012c0: 00100537     	lui	a0, 0x100
800012c4: fffff097     	auipc	ra, 0xfffff
800012c8: 668080e7     	jalr	0x668(ra) <lab4_kernel_task1::vpn1_index::h603b3353da120392>
800012cc: 85aa         	mv	a1, a0
800012ce: f12e         	sd	a1, 0xa0(sp)
800012d0: 20000593     	li	a1, 0x200
800012d4: 00b56b63     	bltu	a0, a1, 0x800012ea <.Lpcrel_hi98>
800012d8: a005         	j	0x800012f8 <.Lpcrel_hi98+0xe>

00000000800012da <.Lpcrel_hi97>:
800012da: 00004517     	auipc	a0, 0x4
800012de: 96650513     	addi	a0, a0, -0x69a
800012e2: 00003097     	auipc	ra, 0x3
800012e6: d46080e7     	jalr	-0x2ba(ra) <core::panicking::panic_null_pointer_dereference::hbac6411af4f2e916>

00000000800012ea <.Lpcrel_hi98>:
800012ea: 0000b517     	auipc	a0, 0xb
800012ee: d1650513     	addi	a0, a0, -0x2ea
800012f2: 1552         	slli	a0, a0, 0x34
800012f4: cd09         	beqz	a0, 0x8000130e <.Lpcrel_hi100>
800012f6: a015         	j	0x8000131a <.Lpcrel_hi101>
800012f8: 750a         	ld	a0, 0xa0(sp)

00000000800012fa <.Lpcrel_hi99>:
800012fa: 00004597     	auipc	a1, 0x4
800012fe: 95e58613     	addi	a2, a1, -0x6a2
80001302: 20000593     	li	a1, 0x200
80001306: 00003097     	auipc	ra, 0x3
8000130a: cb6080e7     	jalr	-0x34a(ra) <core::panicking::panic_bounds_check::h6aaee0d15e0261eb>

000000008000130e <.Lpcrel_hi100>:
8000130e: 0000b517     	auipc	a0, 0xb
80001312: cf250513     	addi	a0, a0, -0x30e
80001316: ed19         	bnez	a0, 0x80001334 <.Lpcrel_hi102+0x12>
80001318: a8b9         	j	0x80001376 <.Lpcrel_hi104>

000000008000131a <.Lpcrel_hi101>:
8000131a: 0000b517     	auipc	a0, 0xb
8000131e: ce650593     	addi	a1, a0, -0x31a

0000000080001322 <.Lpcrel_hi102>:
80001322: 00004517     	auipc	a0, 0x4
80001326: 93650613     	addi	a2, a0, -0x6ca
8000132a: 6505         	lui	a0, 0x1
8000132c: 00003097     	auipc	ra, 0x3
80001330: d1c080e7     	jalr	-0x2e4(ra) <core::panicking::panic_misaligned_pointer_dereference::hda85f7fb51d959f0>
80001334: 656a         	ld	a0, 0x98(sp)
80001336: 758a         	ld	a1, 0xa0(sp)
80001338: 00359613     	slli	a2, a1, 0x3

000000008000133c <.Lpcrel_hi103>:
8000133c: 0000b597     	auipc	a1, 0xb
80001340: cc458593     	addi	a1, a1, -0x33c
80001344: 95b2         	add	a1, a1, a2
80001346: e188         	sd	a0, 0x0(a1)
80001348: 00100537     	lui	a0, 0x100
8000134c: e12a         	sd	a0, 0x80(sp)
8000134e: 0c600593     	li	a1, 0xc6
80001352: 00001097     	auipc	ra, 0x1
80001356: b2e080e7     	jalr	-0x4d2(ra) <lab4_kernel_task1::leaf_pte::h69013238bf9bdbea>
8000135a: 85aa         	mv	a1, a0
8000135c: 650a         	ld	a0, 0x80(sp)
8000135e: e52e         	sd	a1, 0x88(sp)
80001360: fffff097     	auipc	ra, 0xfffff
80001364: 5c0080e7     	jalr	0x5c0(ra) <lab4_kernel_task1::vpn0_index::h1fcb52b0e82b2b3f>
80001368: 85aa         	mv	a1, a0
8000136a: e92e         	sd	a1, 0x90(sp)
8000136c: 20000593     	li	a1, 0x200
80001370: 00b56b63     	bltu	a0, a1, 0x80001386 <.Lpcrel_hi105>
80001374: a005         	j	0x80001394 <.Lpcrel_hi105+0xe>

0000000080001376 <.Lpcrel_hi104>:
80001376: 00004517     	auipc	a0, 0x4
8000137a: 8e250513     	addi	a0, a0, -0x71e
8000137e: 00003097     	auipc	ra, 0x3
80001382: caa080e7     	jalr	-0x356(ra) <core::panicking::panic_null_pointer_dereference::hbac6411af4f2e916>

0000000080001386 <.Lpcrel_hi105>:
80001386: 0000a517     	auipc	a0, 0xa
8000138a: c7a50513     	addi	a0, a0, -0x386
8000138e: 1552         	slli	a0, a0, 0x34
80001390: cd09         	beqz	a0, 0x800013aa <.Lpcrel_hi107>
80001392: a015         	j	0x800013b6 <.Lpcrel_hi108>
80001394: 654a         	ld	a0, 0x90(sp)

0000000080001396 <.Lpcrel_hi106>:
80001396: 00004597     	auipc	a1, 0x4
8000139a: 8da58613     	addi	a2, a1, -0x726
8000139e: 20000593     	li	a1, 0x200
800013a2: 00003097     	auipc	ra, 0x3
800013a6: c1a080e7     	jalr	-0x3e6(ra) <core::panicking::panic_bounds_check::h6aaee0d15e0261eb>

00000000800013aa <.Lpcrel_hi107>:
800013aa: 0000a517     	auipc	a0, 0xa
800013ae: c5650513     	addi	a0, a0, -0x3aa
800013b2: ed19         	bnez	a0, 0x800013d0 <.Lpcrel_hi109+0x12>
800013b4: a8b9         	j	0x80001412 <.Lpcrel_hi111>

00000000800013b6 <.Lpcrel_hi108>:
800013b6: 0000a517     	auipc	a0, 0xa
800013ba: c4a50593     	addi	a1, a0, -0x3b6

00000000800013be <.Lpcrel_hi109>:
800013be: 00004517     	auipc	a0, 0x4
800013c2: 8b250613     	addi	a2, a0, -0x74e
800013c6: 6505         	lui	a0, 0x1
800013c8: 00003097     	auipc	ra, 0x3
800013cc: c80080e7     	jalr	-0x380(ra) <core::panicking::panic_misaligned_pointer_dereference::hda85f7fb51d959f0>
800013d0: 652a         	ld	a0, 0x88(sp)
800013d2: 65ca         	ld	a1, 0x90(sp)
800013d4: 00359613     	slli	a2, a1, 0x3

00000000800013d8 <.Lpcrel_hi110>:
800013d8: 0000a597     	auipc	a1, 0xa
800013dc: c2858593     	addi	a1, a1, -0x3d8
800013e0: 95b2         	add	a1, a1, a2
800013e2: e188         	sd	a0, 0x0(a1)
800013e4: 10000537     	lui	a0, 0x10000
800013e8: f4aa         	sd	a0, 0x68(sp)
800013ea: 0c600593     	li	a1, 0xc6
800013ee: 00001097     	auipc	ra, 0x1
800013f2: a92080e7     	jalr	-0x56e(ra) <lab4_kernel_task1::leaf_pte::h69013238bf9bdbea>
800013f6: 85aa         	mv	a1, a0
800013f8: 7526         	ld	a0, 0x68(sp)
800013fa: f8ae         	sd	a1, 0x70(sp)
800013fc: fffff097     	auipc	ra, 0xfffff
80001400: 530080e7     	jalr	0x530(ra) <lab4_kernel_task1::vpn1_index::h603b3353da120392>
80001404: 85aa         	mv	a1, a0
80001406: fcae         	sd	a1, 0x78(sp)
80001408: 20000593     	li	a1, 0x200
8000140c: 00b56b63     	bltu	a0, a1, 0x80001422 <.Lpcrel_hi112>
80001410: a005         	j	0x80001430 <.Lpcrel_hi112+0xe>

0000000080001412 <.Lpcrel_hi111>:
80001412: 00004517     	auipc	a0, 0x4
80001416: 85e50513     	addi	a0, a0, -0x7a2
8000141a: 00003097     	auipc	ra, 0x3
8000141e: c0e080e7     	jalr	-0x3f2(ra) <core::panicking::panic_null_pointer_dereference::hbac6411af4f2e916>

0000000080001422 <.Lpcrel_hi112>:
80001422: 0000b517     	auipc	a0, 0xb
80001426: bde50513     	addi	a0, a0, -0x422
8000142a: 1552         	slli	a0, a0, 0x34
8000142c: cd09         	beqz	a0, 0x80001446 <.Lpcrel_hi114>
8000142e: a015         	j	0x80001452 <.Lpcrel_hi115>
80001430: 7566         	ld	a0, 0x78(sp)

0000000080001432 <.Lpcrel_hi113>:
80001432: 00004597     	auipc	a1, 0x4
80001436: 85658613     	addi	a2, a1, -0x7aa
8000143a: 20000593     	li	a1, 0x200
8000143e: 00003097     	auipc	ra, 0x3
80001442: b7e080e7     	jalr	-0x482(ra) <core::panicking::panic_bounds_check::h6aaee0d15e0261eb>

0000000080001446 <.Lpcrel_hi114>:
80001446: 0000b517     	auipc	a0, 0xb
8000144a: bba50513     	addi	a0, a0, -0x446
8000144e: ed19         	bnez	a0, 0x8000146c <.Lpcrel_hi116+0x12>
80001450: a8b1         	j	0x800014ac <.Lpcrel_hi118>

0000000080001452 <.Lpcrel_hi115>:
80001452: 0000b517     	auipc	a0, 0xb
80001456: bae50593     	addi	a1, a0, -0x452

000000008000145a <.Lpcrel_hi116>:
8000145a: 00004517     	auipc	a0, 0x4
8000145e: 82e50613     	addi	a2, a0, -0x7d2
80001462: 6505         	lui	a0, 0x1
80001464: 00003097     	auipc	ra, 0x3
80001468: be4080e7     	jalr	-0x41c(ra) <core::panicking::panic_misaligned_pointer_dereference::hda85f7fb51d959f0>
8000146c: 7546         	ld	a0, 0x70(sp)
8000146e: 75e6         	ld	a1, 0x78(sp)
80001470: 00359613     	slli	a2, a1, 0x3

0000000080001474 <.Lpcrel_hi117>:
80001474: 0000b597     	auipc	a1, 0xb
80001478: b8c58593     	addi	a1, a1, -0x474
8000147c: 95b2         	add	a1, a1, a2
8000147e: e188         	sd	a0, 0x0(a1)
80001480: 00000097     	auipc	ra, 0x0
80001484: 982080e7     	jalr	-0x67e(ra) <lab4_kernel_task1::user_l0_table_pa::h3107575610447ccc>
80001488: 00001097     	auipc	ra, 0x1
8000148c: b2c080e7     	jalr	-0x4d4(ra) <lab4_kernel_task1::table_pte::hfd296f7ecacbc37e>
80001490: ecaa         	sd	a0, 0x58(sp)
80001492: 00400537     	lui	a0, 0x400
80001496: fffff097     	auipc	ra, 0xfffff
8000149a: 496080e7     	jalr	0x496(ra) <lab4_kernel_task1::vpn1_index::h603b3353da120392>
8000149e: 85aa         	mv	a1, a0
800014a0: f0ae         	sd	a1, 0x60(sp)
800014a2: 20000593     	li	a1, 0x200
800014a6: 00b56b63     	bltu	a0, a1, 0x800014bc <.Lpcrel_hi119>
800014aa: a005         	j	0x800014ca <.Lpcrel_hi119+0xe>

00000000800014ac <.Lpcrel_hi118>:
800014ac: 00003517     	auipc	a0, 0x3
800014b0: 7dc50513     	addi	a0, a0, 0x7dc
800014b4: 00003097     	auipc	ra, 0x3
800014b8: b74080e7     	jalr	-0x48c(ra) <core::panicking::panic_null_pointer_dereference::hbac6411af4f2e916>

00000000800014bc <.Lpcrel_hi119>:
800014bc: 0000b517     	auipc	a0, 0xb
800014c0: b4450513     	addi	a0, a0, -0x4bc
800014c4: 1552         	slli	a0, a0, 0x34
800014c6: cd09         	beqz	a0, 0x800014e0 <.Lpcrel_hi121>
800014c8: a015         	j	0x800014ec <.Lpcrel_hi122>
800014ca: 7506         	ld	a0, 0x60(sp)

00000000800014cc <.Lpcrel_hi120>:
800014cc: 00003597     	auipc	a1, 0x3
800014d0: 7d458613     	addi	a2, a1, 0x7d4
800014d4: 20000593     	li	a1, 0x200
800014d8: 00003097     	auipc	ra, 0x3
800014dc: ae4080e7     	jalr	-0x51c(ra) <core::panicking::panic_bounds_check::h6aaee0d15e0261eb>

00000000800014e0 <.Lpcrel_hi121>:
800014e0: 0000b517     	auipc	a0, 0xb
800014e4: b2050513     	addi	a0, a0, -0x4e0
800014e8: ed19         	bnez	a0, 0x80001506 <.Lpcrel_hi123+0x12>
800014ea: a085         	j	0x8000154a <.Lpcrel_hi125>

00000000800014ec <.Lpcrel_hi122>:
800014ec: 0000b517     	auipc	a0, 0xb
800014f0: b1450593     	addi	a1, a0, -0x4ec

00000000800014f4 <.Lpcrel_hi123>:
800014f4: 00003517     	auipc	a0, 0x3
800014f8: 7ac50613     	addi	a2, a0, 0x7ac
800014fc: 6505         	lui	a0, 0x1
800014fe: 00003097     	auipc	ra, 0x3
80001502: b4a080e7     	jalr	-0x4b6(ra) <core::panicking::panic_misaligned_pointer_dereference::hda85f7fb51d959f0>
80001506: 6566         	ld	a0, 0x58(sp)
80001508: 7586         	ld	a1, 0x60(sp)
8000150a: 00359613     	slli	a2, a1, 0x3

000000008000150e <.Lpcrel_hi124>:
8000150e: 0000b597     	auipc	a1, 0xb
80001512: af258593     	addi	a1, a1, -0x50e
80001516: 95b2         	add	a1, a1, a2
80001518: e188         	sd	a0, 0x0(a1)
8000151a: 00000097     	auipc	ra, 0x0
8000151e: 92c080e7     	jalr	-0x6d4(ra) <lab4_kernel_task1::user_code_page_pa::h406cdbb3f3d6d005>
80001522: 05a00593     	li	a1, 0x5a
80001526: 00001097     	auipc	ra, 0x1
8000152a: 95a080e7     	jalr	-0x6a6(ra) <lab4_kernel_task1::leaf_pte::h69013238bf9bdbea>
8000152e: e4aa         	sd	a0, 0x48(sp)
80001530: 00400537     	lui	a0, 0x400
80001534: fffff097     	auipc	ra, 0xfffff
80001538: 3ec080e7     	jalr	0x3ec(ra) <lab4_kernel_task1::vpn0_index::h1fcb52b0e82b2b3f>
8000153c: 85aa         	mv	a1, a0
8000153e: e8ae         	sd	a1, 0x50(sp)
80001540: 20000593     	li	a1, 0x200
80001544: 00b56b63     	bltu	a0, a1, 0x8000155a <.Lpcrel_hi126>
80001548: a005         	j	0x80001568 <.Lpcrel_hi126+0xe>

000000008000154a <.Lpcrel_hi125>:
8000154a: 00003517     	auipc	a0, 0x3
8000154e: 75650513     	addi	a0, a0, 0x756
80001552: 00003097     	auipc	ra, 0x3
80001556: ad6080e7     	jalr	-0x52a(ra) <core::panicking::panic_null_pointer_dereference::hbac6411af4f2e916>

000000008000155a <.Lpcrel_hi126>:
8000155a: 0000c517     	auipc	a0, 0xc
8000155e: aa650513     	addi	a0, a0, -0x55a
80001562: 1552         	slli	a0, a0, 0x34
80001564: cd09         	beqz	a0, 0x8000157e <.Lpcrel_hi128>
80001566: a015         	j	0x8000158a <.Lpcrel_hi129>
80001568: 6546         	ld	a0, 0x50(sp)

000000008000156a <.Lpcrel_hi127>:
8000156a: 00003597     	auipc	a1, 0x3
8000156e: 74e58613     	addi	a2, a1, 0x74e
80001572: 20000593     	li	a1, 0x200
80001576: 00003097     	auipc	ra, 0x3
8000157a: a46080e7     	jalr	-0x5ba(ra) <core::panicking::panic_bounds_check::h6aaee0d15e0261eb>

000000008000157e <.Lpcrel_hi128>:
8000157e: 0000c517     	auipc	a0, 0xc
80001582: a8250513     	addi	a0, a0, -0x57e
80001586: ed19         	bnez	a0, 0x800015a4 <.Lpcrel_hi130+0x12>
80001588: a085         	j	0x800015e8 <.Lpcrel_hi132>

000000008000158a <.Lpcrel_hi129>:
8000158a: 0000c517     	auipc	a0, 0xc
8000158e: a7650593     	addi	a1, a0, -0x58a

0000000080001592 <.Lpcrel_hi130>:
80001592: 00003517     	auipc	a0, 0x3
80001596: 72650613     	addi	a2, a0, 0x726
8000159a: 6505         	lui	a0, 0x1
8000159c: 00003097     	auipc	ra, 0x3
800015a0: aac080e7     	jalr	-0x554(ra) <core::panicking::panic_misaligned_pointer_dereference::hda85f7fb51d959f0>
800015a4: 6526         	ld	a0, 0x48(sp)
800015a6: 65c6         	ld	a1, 0x50(sp)
800015a8: 00359613     	slli	a2, a1, 0x3

00000000800015ac <.Lpcrel_hi131>:
800015ac: 0000c597     	auipc	a1, 0xc
800015b0: a5458593     	addi	a1, a1, -0x5ac
800015b4: 95b2         	add	a1, a1, a2
800015b6: e188         	sd	a0, 0x0(a1)
800015b8: 00000097     	auipc	ra, 0x0
800015bc: 898080e7     	jalr	-0x768(ra) <lab4_kernel_task1::user_data_page_pa::h1f203e8f4785de6c>
800015c0: 0d600593     	li	a1, 0xd6
800015c4: 00001097     	auipc	ra, 0x1
800015c8: 8bc080e7     	jalr	-0x744(ra) <lab4_kernel_task1::leaf_pte::h69013238bf9bdbea>
800015cc: fc2a         	sd	a0, 0x38(sp)
800015ce: 00401537     	lui	a0, 0x401
800015d2: fffff097     	auipc	ra, 0xfffff
800015d6: 34e080e7     	jalr	0x34e(ra) <lab4_kernel_task1::vpn0_index::h1fcb52b0e82b2b3f>
800015da: 85aa         	mv	a1, a0
800015dc: e0ae         	sd	a1, 0x40(sp)
800015de: 20000593     	li	a1, 0x200
800015e2: 00b56b63     	bltu	a0, a1, 0x800015f8 <.Lpcrel_hi133>
800015e6: a005         	j	0x80001606 <.Lpcrel_hi133+0xe>

00000000800015e8 <.Lpcrel_hi132>:
800015e8: 00003517     	auipc	a0, 0x3
800015ec: 6d050513     	addi	a0, a0, 0x6d0
800015f0: 00003097     	auipc	ra, 0x3
800015f4: a38080e7     	jalr	-0x5c8(ra) <core::panicking::panic_null_pointer_dereference::hbac6411af4f2e916>

00000000800015f8 <.Lpcrel_hi133>:
800015f8: 0000c517     	auipc	a0, 0xc
800015fc: a0850513     	addi	a0, a0, -0x5f8
80001600: 1552         	slli	a0, a0, 0x34
80001602: cd09         	beqz	a0, 0x8000161c <.Lpcrel_hi135>
80001604: a015         	j	0x80001628 <.Lpcrel_hi136>
80001606: 6506         	ld	a0, 0x40(sp)

0000000080001608 <.Lpcrel_hi134>:
80001608: 00003597     	auipc	a1, 0x3
8000160c: 6c858613     	addi	a2, a1, 0x6c8
80001610: 20000593     	li	a1, 0x200
80001614: 00003097     	auipc	ra, 0x3
80001618: 9a8080e7     	jalr	-0x658(ra) <core::panicking::panic_bounds_check::h6aaee0d15e0261eb>

000000008000161c <.Lpcrel_hi135>:
8000161c: 0000c517     	auipc	a0, 0xc
80001620: 9e450513     	addi	a0, a0, -0x61c
80001624: ed19         	bnez	a0, 0x80001642 <.Lpcrel_hi137+0x12>
80001626: a085         	j	0x80001686 <.Lpcrel_hi139>

0000000080001628 <.Lpcrel_hi136>:
80001628: 0000c517     	auipc	a0, 0xc
8000162c: 9d850593     	addi	a1, a0, -0x628

0000000080001630 <.Lpcrel_hi137>:
80001630: 00003517     	auipc	a0, 0x3
80001634: 6a050613     	addi	a2, a0, 0x6a0
80001638: 6505         	lui	a0, 0x1
8000163a: 00003097     	auipc	ra, 0x3
8000163e: a0e080e7     	jalr	-0x5f2(ra) <core::panicking::panic_misaligned_pointer_dereference::hda85f7fb51d959f0>
80001642: 7562         	ld	a0, 0x38(sp)
80001644: 6586         	ld	a1, 0x40(sp)
80001646: 00359613     	slli	a2, a1, 0x3

000000008000164a <.Lpcrel_hi138>:
8000164a: 0000c597     	auipc	a1, 0xc
8000164e: 9b658593     	addi	a1, a1, -0x64a
80001652: 95b2         	add	a1, a1, a2
80001654: e188         	sd	a0, 0x0(a1)
80001656: 00000097     	auipc	ra, 0x0
8000165a: 8a6080e7     	jalr	-0x75a(ra) <lab4_kernel_task1::user_stack_page_pa::h0069fa8165aaef3d>
8000165e: 0d600593     	li	a1, 0xd6
80001662: 00001097     	auipc	ra, 0x1
80001666: 81e080e7     	jalr	-0x7e2(ra) <lab4_kernel_task1::leaf_pte::h69013238bf9bdbea>
8000166a: f42a         	sd	a0, 0x28(sp)
8000166c: 00402537     	lui	a0, 0x402
80001670: fffff097     	auipc	ra, 0xfffff
80001674: 2b0080e7     	jalr	0x2b0(ra) <lab4_kernel_task1::vpn0_index::h1fcb52b0e82b2b3f>
80001678: 85aa         	mv	a1, a0
8000167a: f82e         	sd	a1, 0x30(sp)
8000167c: 20000593     	li	a1, 0x200
80001680: 00b56b63     	bltu	a0, a1, 0x80001696 <.Lpcrel_hi140>
80001684: a005         	j	0x800016a4 <.Lpcrel_hi140+0xe>

0000000080001686 <.Lpcrel_hi139>:
80001686: 00003517     	auipc	a0, 0x3
8000168a: 64a50513     	addi	a0, a0, 0x64a
8000168e: 00003097     	auipc	ra, 0x3
80001692: 99a080e7     	jalr	-0x666(ra) <core::panicking::panic_null_pointer_dereference::hbac6411af4f2e916>

0000000080001696 <.Lpcrel_hi140>:
80001696: 0000c517     	auipc	a0, 0xc
8000169a: 96a50513     	addi	a0, a0, -0x696
8000169e: 1552         	slli	a0, a0, 0x34
800016a0: cd09         	beqz	a0, 0x800016ba <.Lpcrel_hi142>
800016a2: a015         	j	0x800016c6 <.Lpcrel_hi143>
800016a4: 7542         	ld	a0, 0x30(sp)

00000000800016a6 <.Lpcrel_hi141>:
800016a6: 00003597     	auipc	a1, 0x3
800016aa: 64258613     	addi	a2, a1, 0x642
800016ae: 20000593     	li	a1, 0x200
800016b2: 00003097     	auipc	ra, 0x3
800016b6: 90a080e7     	jalr	-0x6f6(ra) <core::panicking::panic_bounds_check::h6aaee0d15e0261eb>

00000000800016ba <.Lpcrel_hi142>:
800016ba: 0000c517     	auipc	a0, 0xc
800016be: 94650513     	addi	a0, a0, -0x6ba
800016c2: ed19         	bnez	a0, 0x800016e0 <.Lpcrel_hi144+0x12>
800016c4: a089         	j	0x80001706 <.Lpcrel_hi146>

00000000800016c6 <.Lpcrel_hi143>:
800016c6: 0000c517     	auipc	a0, 0xc
800016ca: 93a50593     	addi	a1, a0, -0x6c6

00000000800016ce <.Lpcrel_hi144>:
800016ce: 00003517     	auipc	a0, 0x3
800016d2: 61a50613     	addi	a2, a0, 0x61a
800016d6: 6505         	lui	a0, 0x1
800016d8: 00003097     	auipc	ra, 0x3
800016dc: 970080e7     	jalr	-0x690(ra) <core::panicking::panic_misaligned_pointer_dereference::hda85f7fb51d959f0>
800016e0: 7522         	ld	a0, 0x28(sp)
800016e2: 75c2         	ld	a1, 0x30(sp)
800016e4: 00359613     	slli	a2, a1, 0x3

00000000800016e8 <.Lpcrel_hi145>:
800016e8: 0000c597     	auipc	a1, 0xc
800016ec: 91858593     	addi	a1, a1, -0x6e8
800016f0: 95b2         	add	a1, a1, a2
800016f2: e188         	sd	a0, 0x0(a1)
800016f4: 4501         	li	a0, 0x0
800016f6: 45a1         	li	a1, 0x8
800016f8: fffff097     	auipc	ra, 0xfffff
800016fc: af2080e7     	jalr	-0x50e(ra) <_$LT$I$u20$as$u20$core..iter..traits..collect..IntoIterator$GT$::into_iter::hd84722667483065b>
80001700: e5aa         	sd	a0, 0xc8(sp)
80001702: e9ae         	sd	a1, 0xd0(sp)
80001704: a809         	j	0x80001716 <.Lpcrel_hi146+0x10>

0000000080001706 <.Lpcrel_hi146>:
80001706: 00003517     	auipc	a0, 0x3
8000170a: 5e250513     	addi	a0, a0, 0x5e2
8000170e: 00003097     	auipc	ra, 0x3
80001712: 91a080e7     	jalr	-0x6e6(ra) <core::panicking::panic_null_pointer_dereference::hbac6411af4f2e916>
80001716: 01a8         	addi	a0, sp, 0xc8
80001718: fffff097     	auipc	ra, 0xfffff
8000171c: abe080e7     	jalr	-0x542(ra) <core::iter::range::_$LT$impl$u20$core..iter..traits..iterator..Iterator$u20$for$u20$core..ops..range..Range$LT$A$GT$$GT$::next::h53730fe1ae44bb6d>
80001720: edaa         	sd	a0, 0xd8(sp)
80001722: f1ae         	sd	a1, 0xe0(sp)
80001724: 656e         	ld	a0, 0xd8(sp)
80001726: 8905         	andi	a0, a0, 0x1
80001728: cd01         	beqz	a0, 0x80001740 <.Lpcrel_hi146+0x3a>
8000172a: a009         	j	0x8000172c <.Lpcrel_hi146+0x26>
8000172c: 758e         	ld	a1, 0xe0(sp)
8000172e: ec2e         	sd	a1, 0x18(sp)
80001730: f5ae         	sd	a1, 0xe8(sp)
80001732: 01559513     	slli	a0, a1, 0x15
80001736: f02a         	sd	a0, 0x20(sp)
80001738: 8155         	srli	a0, a0, 0x15
8000173a: 00b51e63     	bne	a0, a1, 0x80001756 <.Lpcrel_hi147>
8000173e: a021         	j	0x80001746 <.Lpcrel_hi146+0x40>
80001740: 70ee         	ld	ra, 0xf8(sp)
80001742: 6111         	addi	sp, sp, 0x100
80001744: 8082         	ret
80001746: 7502         	ld	a0, 0x20(sp)
80001748: 800005b7     	lui	a1, 0x80000
8000174c: 8d0d         	sub	a0, a0, a1
8000174e: e82a         	sd	a0, 0x10(sp)
80001750: 817d         	srli	a0, a0, 0x1f
80001752: cd05         	beqz	a0, 0x8000178a <.Lpcrel_hi148>
80001754: a809         	j	0x80001766 <.Lpcrel_hi147+0x10>

0000000080001756 <.Lpcrel_hi147>:
80001756: 00003517     	auipc	a0, 0x3
8000175a: 5aa50513     	addi	a0, a0, 0x5aa
8000175e: 00003097     	auipc	ra, 0x3
80001762: 804080e7     	jalr	-0x7fc(ra) <core::panicking::panic_const::panic_const_mul_overflow::h67897feae7531d51>
80001766: 6542         	ld	a0, 0x10(sp)
80001768: f9aa         	sd	a0, 0xf0(sp)
8000176a: 0ce00593     	li	a1, 0xce
8000176e: 00000097     	auipc	ra, 0x0
80001772: 712080e7     	jalr	0x712(ra) <lab4_kernel_task1::leaf_pte::h69013238bf9bdbea>
80001776: 85aa         	mv	a1, a0
80001778: 6562         	ld	a0, 0x18(sp)
8000177a: e02e         	sd	a1, 0x0(sp)
8000177c: 20000593     	li	a1, 0x200
80001780: 862a         	mv	a2, a0
80001782: e432         	sd	a2, 0x8(sp)
80001784: 00b56b63     	bltu	a0, a1, 0x8000179a <.Lpcrel_hi149>
80001788: a005         	j	0x800017a8 <.Lpcrel_hi149+0xe>

000000008000178a <.Lpcrel_hi148>:
8000178a: 00003517     	auipc	a0, 0x3
8000178e: 58e50513     	addi	a0, a0, 0x58e
80001792: 00002097     	auipc	ra, 0x2
80001796: 7b2080e7     	jalr	0x7b2(ra) <core::panicking::panic_const::panic_const_add_overflow::h67cba067093910f8>

000000008000179a <.Lpcrel_hi149>:
8000179a: 0000d517     	auipc	a0, 0xd
8000179e: 86650513     	addi	a0, a0, -0x79a
800017a2: 1552         	slli	a0, a0, 0x34
800017a4: cd09         	beqz	a0, 0x800017be <.Lpcrel_hi151>
800017a6: a015         	j	0x800017ca <.Lpcrel_hi152>
800017a8: 6522         	ld	a0, 0x8(sp)

00000000800017aa <.Lpcrel_hi150>:
800017aa: 00003597     	auipc	a1, 0x3
800017ae: 58658613     	addi	a2, a1, 0x586
800017b2: 20000593     	li	a1, 0x200
800017b6: 00003097     	auipc	ra, 0x3
800017ba: 806080e7     	jalr	-0x7fa(ra) <core::panicking::panic_bounds_check::h6aaee0d15e0261eb>

00000000800017be <.Lpcrel_hi151>:
800017be: 0000d517     	auipc	a0, 0xd
800017c2: 84250513     	addi	a0, a0, -0x7be
800017c6: ed19         	bnez	a0, 0x800017e4 <.Lpcrel_hi153+0x12>
800017c8: a80d         	j	0x800017fa <.Lpcrel_hi155>

00000000800017ca <.Lpcrel_hi152>:
800017ca: 0000d517     	auipc	a0, 0xd
800017ce: 83650593     	addi	a1, a0, -0x7ca

00000000800017d2 <.Lpcrel_hi153>:
800017d2: 00003517     	auipc	a0, 0x3
800017d6: 55e50613     	addi	a2, a0, 0x55e
800017da: 6505         	lui	a0, 0x1
800017dc: 00003097     	auipc	ra, 0x3
800017e0: 86c080e7     	jalr	-0x794(ra) <core::panicking::panic_misaligned_pointer_dereference::hda85f7fb51d959f0>
800017e4: 6502         	ld	a0, 0x0(sp)
800017e6: 65e2         	ld	a1, 0x18(sp)
800017e8: 00359613     	slli	a2, a1, 0x3

00000000800017ec <.Lpcrel_hi154>:
800017ec: 0000d597     	auipc	a1, 0xd
800017f0: 81458593     	addi	a1, a1, -0x7ec
800017f4: 95b2         	add	a1, a1, a2
800017f6: e188         	sd	a0, 0x0(a1)
800017f8: bf39         	j	0x80001716 <.Lpcrel_hi146+0x10>

00000000800017fa <.Lpcrel_hi155>:
800017fa: 00003517     	auipc	a0, 0x3
800017fe: 53650513     	addi	a0, a0, 0x536
80001802: 00003097     	auipc	ra, 0x3
80001806: 826080e7     	jalr	-0x7da(ra) <core::panicking::panic_null_pointer_dereference::hbac6411af4f2e916>

000000008000180a <lab4_kernel_task1::supervisor_trap_stack_top::h24dc3ca1b15b432d>:
8000180a: 00014517     	auipc	a0, 0x14
8000180e: 80650513     	addi	a0, a0, -0x7fa
80001812: 8082         	ret

0000000080001814 <lab4_kernel_task1::handle_unexpected_user_ecall::h44ccaa5233844d5e>:
80001814: 7155         	addi	sp, sp, -0xd0
80001816: e586         	sd	ra, 0xc8(sp)
80001818: e42a         	sd	a0, 0x8(sp)
8000181a: e82e         	sd	a1, 0x10(sp)
8000181c: fd2a         	sd	a0, 0xb8(sp)
8000181e: fffff097     	auipc	ra, 0xfffff
80001822: 4e4080e7     	jalr	0x4e4(ra) <lab4_kernel_task1::user_shared_mut::h01badbe7365bbab5>
80001826: 86aa         	mv	a3, a0
80001828: 6522         	ld	a0, 0x8(sp)
8000182a: e1b6         	sd	a3, 0xc0(sp)
8000182c: 04050613     	addi	a2, a0, 0x40
80001830: 612c         	ld	a1, 0x40(a0)
80001832: f68c         	sd	a1, 0x28(a3)
80001834: 07850593     	addi	a1, a0, 0x78
80001838: 0f850513     	addi	a0, a0, 0xf8
8000183c: ec32         	sd	a2, 0x18(sp)
8000183e: f02e         	sd	a1, 0x20(sp)
80001840: f42a         	sd	a0, 0x28(sp)
80001842: 0808         	addi	a0, sp, 0x10
80001844: f82a         	sd	a0, 0x30(sp)
80001846: 65e2         	ld	a1, 0x18(sp)
80001848: 18a8         	addi	a0, sp, 0x78
8000184a: fffff097     	auipc	ra, 0xfffff
8000184e: af8080e7     	jalr	-0x508(ra) <core::fmt::rt::Argument::new_lower_hex::hd4789b212b1113cd>
80001852: 7582         	ld	a1, 0x20(sp)
80001854: 0128         	addi	a0, sp, 0x88
80001856: fffff097     	auipc	ra, 0xfffff
8000185a: a42080e7     	jalr	-0x5be(ra) <core::fmt::rt::Argument::new_display::h0cafb074541621a0>
8000185e: 75a2         	ld	a1, 0x28(sp)
80001860: 0928         	addi	a0, sp, 0x98
80001862: fffff097     	auipc	ra, 0xfffff
80001866: ae0080e7     	jalr	-0x520(ra) <core::fmt::rt::Argument::new_lower_hex::hd4789b212b1113cd>
8000186a: 75c2         	ld	a1, 0x30(sp)
8000186c: 1128         	addi	a0, sp, 0xa8
8000186e: fffff097     	auipc	ra, 0xfffff
80001872: ad4080e7     	jalr	-0x52c(ra) <core::fmt::rt::Argument::new_lower_hex::hd4789b212b1113cd>
80001876: 650a         	ld	a0, 0x80(sp)
80001878: e0aa         	sd	a0, 0x40(sp)
8000187a: 7566         	ld	a0, 0x78(sp)
8000187c: fc2a         	sd	a0, 0x38(sp)
8000187e: 654a         	ld	a0, 0x90(sp)
80001880: e8aa         	sd	a0, 0x50(sp)
80001882: 652a         	ld	a0, 0x88(sp)
80001884: e4aa         	sd	a0, 0x48(sp)
80001886: 750a         	ld	a0, 0xa0(sp)
80001888: f0aa         	sd	a0, 0x60(sp)
8000188a: 656a         	ld	a0, 0x98(sp)
8000188c: ecaa         	sd	a0, 0x58(sp)
8000188e: 754a         	ld	a0, 0xb0(sp)
80001890: f8aa         	sd	a0, 0x70(sp)
80001892: 752a         	ld	a0, 0xa8(sp)
80001894: f4aa         	sd	a0, 0x68(sp)

0000000080001896 <.Lpcrel_hi157>:
80001896: 00003517     	auipc	a0, 0x3
8000189a: 4b250513     	addi	a0, a0, 0x4b2
8000189e: 182c         	addi	a1, sp, 0x38
800018a0: 00001097     	auipc	ra, 0x1
800018a4: 032080e7     	jalr	0x32(ra) <core::fmt::Arguments::new::h5923ff9fd825ca88>
800018a8: 00001097     	auipc	ra, 0x1
800018ac: 220080e7     	jalr	0x220(ra) <lab4_kernel_task1::console::print::h54002e5355b05751>

00000000800018b0 <.Lpcrel_hi158>:
800018b0: 00003517     	auipc	a0, 0x3
800018b4: 4e350513     	addi	a0, a0, 0x4e3
800018b8: 05500593     	li	a1, 0x55
800018bc: fffff097     	auipc	ra, 0xfffff
800018c0: 8b2080e7     	jalr	-0x74e(ra) <core::fmt::Arguments::from_str::hf314c9ed1c598c7e>
800018c4: 00001097     	auipc	ra, 0x1
800018c8: 204080e7     	jalr	0x204(ra) <lab4_kernel_task1::console::print::h54002e5355b05751>
800018cc: 4505         	li	a0, 0x1
800018ce: 00000097     	auipc	ra, 0x0
800018d2: 690080e7     	jalr	0x690(ra) <lab4_kernel_task1::qemu_exit::h7939a00c8edf54b9>

00000000800018d6 <lab4_kernel_task1::activate_single_address_space::ha9df02652cff4c65>:
800018d6: 1101         	addi	sp, sp, -0x20
800018d8: ec06         	sd	ra, 0x18(sp)
800018da: fffff097     	auipc	ra, 0xfffff
800018de: 618080e7     	jalr	0x618(ra) <lab4_kernel_task1::root_page_table_pa::h9fd19df79909b7c6>
800018e2: 8131         	srli	a0, a0, 0xc
800018e4: 55fd         	li	a1, -0x1
800018e6: 15fe         	slli	a1, a1, 0x3f
800018e8: 8d4d         	or	a0, a0, a1
800018ea: e42a         	sd	a0, 0x8(sp)
800018ec: e82a         	sd	a0, 0x10(sp)

00000000800018ee <.Lpcrel_hi159>:
800018ee: 0000d517     	auipc	a0, 0xd
800018f2: 71250513     	addi	a0, a0, 0x712
800018f6: c10d         	beqz	a0, 0x80001918 <.Lpcrel_hi161>
800018f8: a009         	j	0x800018fa <.Lpcrel_hi159+0xc>
800018fa: 6522         	ld	a0, 0x8(sp)

00000000800018fc <.Lpcrel_hi160>:
800018fc: 0000d597     	auipc	a1, 0xd
80001900: 70458593     	addi	a1, a1, 0x704
80001904: e188         	sd	a0, 0x0(a1)
80001906: 18051073     	csrw	satp, a0
8000190a: 12000073     	sfence.vma
8000190e: 0000100f     	fence.i
80001912: 60e2         	ld	ra, 0x18(sp)
80001914: 6105         	addi	sp, sp, 0x20
80001916: 8082         	ret

0000000080001918 <.Lpcrel_hi161>:
80001918: 00003517     	auipc	a0, 0x3
8000191c: 4d050513     	addi	a0, a0, 0x4d0
80001920: 00002097     	auipc	ra, 0x2
80001924: 708080e7     	jalr	0x708(ra) <core::panicking::panic_null_pointer_dereference::hbac6411af4f2e916>

0000000080001928 <lab4_kernel_task1::handle_expected_kernel_access_fault::hfd792bf43cf0c0e1>:
80001928: b2010113     	addi	sp, sp, -0x4e0
8000192c: 4c113c23     	sd	ra, 0x4d8(sp)
80001930: e82a         	sd	a0, 0x10(sp)
80001932: e4ae         	sd	a1, 0x48(sp)
80001934: 3aa13c23     	sd	a0, 0x3b8(sp)
80001938: 4505         	li	a0, 0x1
8000193a: 01f51593     	slli	a1, a0, 0x1f
8000193e: f02e         	sd	a1, 0x20(sp)
80001940: 0888         	addi	a0, sp, 0x50
80001942: fffff097     	auipc	ra, 0xfffff
80001946: 0c6080e7     	jalr	0xc6(ra) <lab4_kernel_task1::walk_virtual::h673833ad33696b21>
8000194a: 0908         	addi	a0, sp, 0x90
8000194c: 004005b7     	lui	a1, 0x400
80001950: f42e         	sd	a1, 0x28(sp)
80001952: fffff097     	auipc	ra, 0xfffff
80001956: 0b6080e7     	jalr	0xb6(ra) <lab4_kernel_task1::walk_virtual::h673833ad33696b21>
8000195a: 0988         	addi	a0, sp, 0xd0
8000195c: 004015b7     	lui	a1, 0x401
80001960: fc2e         	sd	a1, 0x38(sp)
80001962: fffff097     	auipc	ra, 0xfffff
80001966: 0a6080e7     	jalr	0xa6(ra) <lab4_kernel_task1::walk_virtual::h673833ad33696b21>
8000196a: 0a08         	addi	a0, sp, 0x110
8000196c: 004025b7     	lui	a1, 0x402
80001970: e0ae         	sd	a1, 0x40(sp)
80001972: fffff097     	auipc	ra, 0xfffff
80001976: 096080e7     	jalr	0x96(ra) <lab4_kernel_task1::walk_virtual::h673833ad33696b21>
8000197a: 0a88         	addi	a0, sp, 0x150
8000197c: ec2a         	sd	a0, 0x18(sp)
8000197e: fffff097     	auipc	ra, 0xfffff
80001982: 040080e7     	jalr	0x40(ra) <lab4_kernel_task1::UserEvidence::collect::h93b6bfcc2c8f4304>
80001986: 00000097     	auipc	ra, 0x0
8000198a: 620080e7     	jalr	0x620(ra) <lab4_kernel_task1::read_satp::h9acafedce2adb55f>
8000198e: 85aa         	mv	a1, a0
80001990: 6542         	ld	a0, 0x10(sp)
80001992: e32e         	sd	a1, 0x180(sp)
80001994: 0f850513     	addi	a0, a0, 0xf8

0000000080001998 <.Lpcrel_hi162>:
80001998: 00003597     	auipc	a1, 0x3
8000199c: 04858593     	addi	a1, a1, 0x48
800019a0: e72e         	sd	a1, 0x188(sp)
800019a2: eb2a         	sd	a0, 0x190(sp)
800019a4: 00a8         	addi	a0, sp, 0x48
800019a6: ef2a         	sd	a0, 0x198(sp)
800019a8: 0308         	addi	a0, sp, 0x180
800019aa: f32a         	sd	a0, 0x1a0(sp)
800019ac: 65ba         	ld	a1, 0x188(sp)
800019ae: 13a8         	addi	a0, sp, 0x1e8
800019b0: fffff097     	auipc	ra, 0xfffff
800019b4: 992080e7     	jalr	-0x66e(ra) <core::fmt::rt::Argument::new_lower_hex::hd4789b212b1113cd>
800019b8: 65da         	ld	a1, 0x190(sp)
800019ba: 1ba8         	addi	a0, sp, 0x1f8
800019bc: fffff097     	auipc	ra, 0xfffff
800019c0: 986080e7     	jalr	-0x67a(ra) <core::fmt::rt::Argument::new_lower_hex::hd4789b212b1113cd>
800019c4: 65fa         	ld	a1, 0x198(sp)
800019c6: 0428         	addi	a0, sp, 0x208
800019c8: fffff097     	auipc	ra, 0xfffff
800019cc: 97a080e7     	jalr	-0x686(ra) <core::fmt::rt::Argument::new_lower_hex::hd4789b212b1113cd>
800019d0: 759a         	ld	a1, 0x1a0(sp)
800019d2: 0c28         	addi	a0, sp, 0x218
800019d4: fffff097     	auipc	ra, 0xfffff
800019d8: 96e080e7     	jalr	-0x692(ra) <core::fmt::rt::Argument::new_lower_hex::hd4789b212b1113cd>
800019dc: 755e         	ld	a0, 0x1f0(sp)
800019de: fb2a         	sd	a0, 0x1b0(sp)
800019e0: 753e         	ld	a0, 0x1e8(sp)
800019e2: f72a         	sd	a0, 0x1a8(sp)
800019e4: 20013503     	ld	a0, 0x200(sp)
800019e8: e3aa         	sd	a0, 0x1c0(sp)
800019ea: 757e         	ld	a0, 0x1f8(sp)
800019ec: ff2a         	sd	a0, 0x1b8(sp)
800019ee: 21013503     	ld	a0, 0x210(sp)
800019f2: ebaa         	sd	a0, 0x1d0(sp)
800019f4: 20813503     	ld	a0, 0x208(sp)
800019f8: e7aa         	sd	a0, 0x1c8(sp)
800019fa: 22013503     	ld	a0, 0x220(sp)
800019fe: f3aa         	sd	a0, 0x1e0(sp)
80001a00: 21813503     	ld	a0, 0x218(sp)
80001a04: efaa         	sd	a0, 0x1d8(sp)

0000000080001a06 <.Lpcrel_hi163>:
80001a06: 00003517     	auipc	a0, 0x3
80001a0a: 3fa50513     	addi	a0, a0, 0x3fa
80001a0e: 132c         	addi	a1, sp, 0x1a8
80001a10: 00001097     	auipc	ra, 0x1
80001a14: ed6080e7     	jalr	-0x12a(ra) <core::fmt::Arguments::new::h78dba5740ef478a4>
80001a18: 00001097     	auipc	ra, 0x1
80001a1c: 0b0080e7     	jalr	0xb0(ra) <lab4_kernel_task1::console::print::h54002e5355b05751>
80001a20: 67e2         	ld	a5, 0x18(sp)
80001a22: 0ab8         	addi	a4, sp, 0x158
80001a24: 1a94         	addi	a3, sp, 0x170
80001a26: 1290         	addi	a2, sp, 0x160
80001a28: 12ac         	addi	a1, sp, 0x168
80001a2a: 1aa8         	addi	a0, sp, 0x178
80001a2c: 22f13423     	sd	a5, 0x228(sp)
80001a30: 22e13823     	sd	a4, 0x230(sp)
80001a34: 22d13c23     	sd	a3, 0x238(sp)
80001a38: 24c13023     	sd	a2, 0x240(sp)
80001a3c: 24b13423     	sd	a1, 0x248(sp)
80001a40: 24a13823     	sd	a0, 0x250(sp)
80001a44: 22813583     	ld	a1, 0x228(sp)
80001a48: 1d28         	addi	a0, sp, 0x2b8
80001a4a: fffff097     	auipc	ra, 0xfffff
80001a4e: 8d6080e7     	jalr	-0x72a(ra) <core::fmt::rt::Argument::new_lower_hex::h1a0176f9d1efc27f>
80001a52: 23013583     	ld	a1, 0x230(sp)
80001a56: 05a8         	addi	a0, sp, 0x2c8
80001a58: fffff097     	auipc	ra, 0xfffff
80001a5c: 8c8080e7     	jalr	-0x738(ra) <core::fmt::rt::Argument::new_lower_hex::h1a0176f9d1efc27f>
80001a60: 23813583     	ld	a1, 0x238(sp)
80001a64: 0da8         	addi	a0, sp, 0x2d8
80001a66: fffff097     	auipc	ra, 0xfffff
80001a6a: 8ba080e7     	jalr	-0x746(ra) <core::fmt::rt::Argument::new_lower_hex::h1a0176f9d1efc27f>
80001a6e: 24013583     	ld	a1, 0x240(sp)
80001a72: 15a8         	addi	a0, sp, 0x2e8
80001a74: fffff097     	auipc	ra, 0xfffff
80001a78: 8ac080e7     	jalr	-0x754(ra) <core::fmt::rt::Argument::new_lower_hex::h1a0176f9d1efc27f>
80001a7c: 24813583     	ld	a1, 0x248(sp)
80001a80: 1da8         	addi	a0, sp, 0x2f8
80001a82: fffff097     	auipc	ra, 0xfffff
80001a86: 89e080e7     	jalr	-0x762(ra) <core::fmt::rt::Argument::new_lower_hex::h1a0176f9d1efc27f>
80001a8a: 25013583     	ld	a1, 0x250(sp)
80001a8e: 0628         	addi	a0, sp, 0x308
80001a90: fffff097     	auipc	ra, 0xfffff
80001a94: 890080e7     	jalr	-0x770(ra) <core::fmt::rt::Argument::new_lower_hex::h1a0176f9d1efc27f>
80001a98: 2c013503     	ld	a0, 0x2c0(sp)
80001a9c: 26a13023     	sd	a0, 0x260(sp)
80001aa0: 2b813503     	ld	a0, 0x2b8(sp)
80001aa4: 24a13c23     	sd	a0, 0x258(sp)
80001aa8: 2d013503     	ld	a0, 0x2d0(sp)
80001aac: 26a13823     	sd	a0, 0x270(sp)
80001ab0: 2c813503     	ld	a0, 0x2c8(sp)
80001ab4: 26a13423     	sd	a0, 0x268(sp)
80001ab8: 2e013503     	ld	a0, 0x2e0(sp)
80001abc: 28a13023     	sd	a0, 0x280(sp)
80001ac0: 2d813503     	ld	a0, 0x2d8(sp)
80001ac4: 26a13c23     	sd	a0, 0x278(sp)
80001ac8: 2f013503     	ld	a0, 0x2f0(sp)
80001acc: 28a13823     	sd	a0, 0x290(sp)
80001ad0: 2e813503     	ld	a0, 0x2e8(sp)
80001ad4: 28a13423     	sd	a0, 0x288(sp)
80001ad8: 30013503     	ld	a0, 0x300(sp)
80001adc: 2aa13023     	sd	a0, 0x2a0(sp)
80001ae0: 2f813503     	ld	a0, 0x2f8(sp)
80001ae4: 28a13c23     	sd	a0, 0x298(sp)
80001ae8: 31013503     	ld	a0, 0x310(sp)
80001aec: 2aa13823     	sd	a0, 0x2b0(sp)
80001af0: 30813503     	ld	a0, 0x308(sp)
80001af4: 2aa13423     	sd	a0, 0x2a8(sp)

0000000080001af8 <.Lpcrel_hi164>:
80001af8: 00003517     	auipc	a0, 0x3
80001afc: 35a50513     	addi	a0, a0, 0x35a
80001b00: 0cac         	addi	a1, sp, 0x258
80001b02: 00001097     	auipc	ra, 0x1
80001b06: d94080e7     	jalr	-0x26c(ra) <core::fmt::Arguments::new::h25a5d68ea53cad4b>
80001b0a: 00001097     	auipc	ra, 0x1
80001b0e: fbe080e7     	jalr	-0x42(ra) <lab4_kernel_task1::console::print::h54002e5355b05751>
80001b12: 7602         	ld	a2, 0x20(sp)
80001b14: 652a         	ld	a0, 0x88(sp)
80001b16: 3ea13c23     	sd	a0, 0x3f8(sp)
80001b1a: 650a         	ld	a0, 0x80(sp)
80001b1c: 3ea13823     	sd	a0, 0x3f0(sp)
80001b20: 7566         	ld	a0, 0x78(sp)
80001b22: 3ea13423     	sd	a0, 0x3e8(sp)
80001b26: 7546         	ld	a0, 0x70(sp)
80001b28: 3ea13023     	sd	a0, 0x3e0(sp)
80001b2c: 7526         	ld	a0, 0x68(sp)
80001b2e: 3ca13c23     	sd	a0, 0x3d8(sp)
80001b32: 7506         	ld	a0, 0x60(sp)
80001b34: 3ca13823     	sd	a0, 0x3d0(sp)
80001b38: 6566         	ld	a0, 0x58(sp)
80001b3a: 3ca13423     	sd	a0, 0x3c8(sp)
80001b3e: 6546         	ld	a0, 0x50(sp)
80001b40: 3ca13023     	sd	a0, 0x3c0(sp)

0000000080001b44 <.Lpcrel_hi165>:
80001b44: 00003517     	auipc	a0, 0x3
80001b48: 3a850513     	addi	a0, a0, 0x3a8
80001b4c: 45b1         	li	a1, 0xc
80001b4e: 0794         	addi	a3, sp, 0x3c0
80001b50: fffff097     	auipc	ra, 0xfffff
80001b54: bfe080e7     	jalr	-0x402(ra) <lab4_kernel_task1::print_walk::hde93fb214e4f5e87>
80001b58: 7622         	ld	a2, 0x28(sp)
80001b5a: 652e         	ld	a0, 0xc8(sp)
80001b5c: 42a13c23     	sd	a0, 0x438(sp)
80001b60: 650e         	ld	a0, 0xc0(sp)
80001b62: 42a13823     	sd	a0, 0x430(sp)
80001b66: 756a         	ld	a0, 0xb8(sp)
80001b68: 42a13423     	sd	a0, 0x428(sp)
80001b6c: 754a         	ld	a0, 0xb0(sp)
80001b6e: 42a13023     	sd	a0, 0x420(sp)
80001b72: 752a         	ld	a0, 0xa8(sp)
80001b74: 40a13c23     	sd	a0, 0x418(sp)
80001b78: 750a         	ld	a0, 0xa0(sp)
80001b7a: 40a13823     	sd	a0, 0x410(sp)
80001b7e: 656a         	ld	a0, 0x98(sp)
80001b80: 40a13423     	sd	a0, 0x408(sp)
80001b84: 654a         	ld	a0, 0x90(sp)
80001b86: 40a13023     	sd	a0, 0x400(sp)

0000000080001b8a <.Lpcrel_hi166>:
80001b8a: 00003517     	auipc	a0, 0x3
80001b8e: 36e50513     	addi	a0, a0, 0x36e
80001b92: 45a5         	li	a1, 0x9
80001b94: f82e         	sd	a1, 0x30(sp)
80001b96: 40010693     	addi	a3, sp, 0x400
80001b9a: fffff097     	auipc	ra, 0xfffff
80001b9e: bb4080e7     	jalr	-0x44c(ra) <lab4_kernel_task1::print_walk::hde93fb214e4f5e87>
80001ba2: 75c2         	ld	a1, 0x30(sp)
80001ba4: 7662         	ld	a2, 0x38(sp)
80001ba6: 6532         	ld	a0, 0x108(sp)
80001ba8: 46a13c23     	sd	a0, 0x478(sp)
80001bac: 6512         	ld	a0, 0x100(sp)
80001bae: 46a13823     	sd	a0, 0x470(sp)
80001bb2: 756e         	ld	a0, 0xf8(sp)
80001bb4: 46a13423     	sd	a0, 0x468(sp)
80001bb8: 754e         	ld	a0, 0xf0(sp)
80001bba: 46a13023     	sd	a0, 0x460(sp)
80001bbe: 752e         	ld	a0, 0xe8(sp)
80001bc0: 44a13c23     	sd	a0, 0x458(sp)
80001bc4: 750e         	ld	a0, 0xe0(sp)
80001bc6: 44a13823     	sd	a0, 0x450(sp)
80001bca: 656e         	ld	a0, 0xd8(sp)
80001bcc: 44a13423     	sd	a0, 0x448(sp)
80001bd0: 654e         	ld	a0, 0xd0(sp)
80001bd2: 44a13023     	sd	a0, 0x440(sp)

0000000080001bd6 <.Lpcrel_hi167>:
80001bd6: 00003517     	auipc	a0, 0x3
80001bda: 32b50513     	addi	a0, a0, 0x32b
80001bde: 44010693     	addi	a3, sp, 0x440
80001be2: fffff097     	auipc	ra, 0xfffff
80001be6: b6c080e7     	jalr	-0x494(ra) <lab4_kernel_task1::print_walk::hde93fb214e4f5e87>
80001bea: 6606         	ld	a2, 0x40(sp)
80001bec: 6536         	ld	a0, 0x148(sp)
80001bee: 4aa13c23     	sd	a0, 0x4b8(sp)
80001bf2: 6516         	ld	a0, 0x140(sp)
80001bf4: 4aa13823     	sd	a0, 0x4b0(sp)
80001bf8: 7572         	ld	a0, 0x138(sp)
80001bfa: 4aa13423     	sd	a0, 0x4a8(sp)
80001bfe: 7552         	ld	a0, 0x130(sp)
80001c00: 4aa13023     	sd	a0, 0x4a0(sp)
80001c04: 7532         	ld	a0, 0x128(sp)
80001c06: 48a13c23     	sd	a0, 0x498(sp)
80001c0a: 7512         	ld	a0, 0x120(sp)
80001c0c: 48a13823     	sd	a0, 0x490(sp)
80001c10: 6572         	ld	a0, 0x118(sp)
80001c12: 48a13423     	sd	a0, 0x488(sp)
80001c16: 6552         	ld	a0, 0x110(sp)
80001c18: 48a13023     	sd	a0, 0x480(sp)

0000000080001c1c <.Lpcrel_hi168>:
80001c1c: 00003517     	auipc	a0, 0x3
80001c20: 2ee50513     	addi	a0, a0, 0x2ee
80001c24: 45a9         	li	a1, 0xa
80001c26: 48010693     	addi	a3, sp, 0x480
80001c2a: fffff097     	auipc	ra, 0xfffff
80001c2e: b24080e7     	jalr	-0x4dc(ra) <lab4_kernel_task1::print_walk::hde93fb214e4f5e87>

0000000080001c32 <.Lpcrel_hi169>:
80001c32: 0000d517     	auipc	a0, 0xd
80001c36: 3ce50513     	addi	a0, a0, 0x3ce
80001c3a: c919         	beqz	a0, 0x80001c50 <.Lpcrel_hi171>
80001c3c: a009         	j	0x80001c3e <.Lpcrel_hi170>

0000000080001c3e <.Lpcrel_hi170>:
80001c3e: 0000d517     	auipc	a0, 0xd
80001c42: 3c250513     	addi	a0, a0, 0x3c2
80001c46: 610c         	ld	a1, 0x0(a0)
80001c48: 651a         	ld	a0, 0x180(sp)
80001c4a: 00b50f63     	beq	a0, a1, 0x80001c68 <.Lpcrel_hi171+0x18>
80001c4e: a809         	j	0x80001c60 <.Lpcrel_hi171+0x10>

0000000080001c50 <.Lpcrel_hi171>:
80001c50: 00003517     	auipc	a0, 0x3
80001c54: 2c850513     	addi	a0, a0, 0x2c8
80001c58: 00002097     	auipc	ra, 0x2
80001c5c: 3d0080e7     	jalr	0x3d0(ra) <core::panicking::panic_null_pointer_dereference::hbac6411af4f2e916>
80001c60: 4501         	li	a0, 0x0
80001c62: 30a10ea3     	sb	a0, 0x31d(sp)
80001c66: a839         	j	0x80001c84 <.Lpcrel_hi171+0x34>
80001c68: 7526         	ld	a0, 0x68(sp)
80001c6a: d97d         	beqz	a0, 0x80001c60 <.Lpcrel_hi171+0x10>
80001c6c: a009         	j	0x80001c6e <.Lpcrel_hi171+0x1e>
80001c6e: 752a         	ld	a0, 0xa8(sp)
80001c70: d965         	beqz	a0, 0x80001c60 <.Lpcrel_hi171+0x10>
80001c72: a009         	j	0x80001c74 <.Lpcrel_hi171+0x24>
80001c74: 6546         	ld	a0, 0x50(sp)
80001c76: 65ca         	ld	a1, 0x90(sp)
80001c78: 8d2d         	xor	a0, a0, a1
80001c7a: 00a03533     	snez	a0, a0
80001c7e: 30a10ea3     	sb	a0, 0x31d(sp)
80001c82: a009         	j	0x80001c84 <.Lpcrel_hi171+0x34>
80001c84: 652a         	ld	a0, 0x88(sp)
80001c86: fffff097     	auipc	ra, 0xfffff
80001c8a: d6c080e7     	jalr	-0x294(ra) <lab4_kernel_task1::pte_has_user::hbdfcf558c843601d>
80001c8e: e909         	bnez	a0, 0x80001ca0 <.Lpcrel_hi171+0x50>
80001c90: a009         	j	0x80001c92 <.Lpcrel_hi171+0x42>
80001c92: 652e         	ld	a0, 0xc8(sp)
80001c94: fffff097     	auipc	ra, 0xfffff
80001c98: d5e080e7     	jalr	-0x2a2(ra) <lab4_kernel_task1::pte_has_user::hbdfcf558c843601d>
80001c9c: e511         	bnez	a0, 0x80001ca8 <.Lpcrel_hi171+0x58>
80001c9e: a009         	j	0x80001ca0 <.Lpcrel_hi171+0x50>
80001ca0: 4501         	li	a0, 0x0
80001ca2: 30a10f23     	sb	a0, 0x31e(sp)
80001ca6: a005         	j	0x80001cc6 <.Lpcrel_hi171+0x76>
80001ca8: 6532         	ld	a0, 0x108(sp)
80001caa: fffff097     	auipc	ra, 0xfffff
80001cae: d48080e7     	jalr	-0x2b8(ra) <lab4_kernel_task1::pte_has_user::hbdfcf558c843601d>
80001cb2: d57d         	beqz	a0, 0x80001ca0 <.Lpcrel_hi171+0x50>
80001cb4: a009         	j	0x80001cb6 <.Lpcrel_hi171+0x66>
80001cb6: 6536         	ld	a0, 0x148(sp)
80001cb8: fffff097     	auipc	ra, 0xfffff
80001cbc: d3a080e7     	jalr	-0x2c6(ra) <lab4_kernel_task1::pte_has_user::hbdfcf558c843601d>
80001cc0: 30a10f23     	sb	a0, 0x31e(sp)
80001cc4: a009         	j	0x80001cc6 <.Lpcrel_hi171+0x76>
80001cc6: 6526         	ld	a0, 0x48(sp)
80001cc8: 4585         	li	a1, 0x1
80001cca: 05fe         	slli	a1, a1, 0x1f
80001ccc: 00b50763     	beq	a0, a1, 0x80001cda <.Lpcrel_hi171+0x8a>
80001cd0: a009         	j	0x80001cd2 <.Lpcrel_hi171+0x82>
80001cd2: 4501         	li	a0, 0x0
80001cd4: 30a10fa3     	sb	a0, 0x31f(sp)
80001cd8: a835         	j	0x80001d14 <.Lpcrel_hi171+0xc4>
80001cda: 6576         	ld	a0, 0x158(sp)
80001cdc: 65d6         	ld	a1, 0x150(sp)
80001cde: feb51ae3     	bne	a0, a1, 0x80001cd2 <.Lpcrel_hi171+0x82>
80001ce2: a009         	j	0x80001ce4 <.Lpcrel_hi171+0x94>
80001ce4: 7556         	ld	a0, 0x170(sp)
80001ce6: 65d6         	ld	a1, 0x150(sp)
80001ce8: feb515e3     	bne	a0, a1, 0x80001cd2 <.Lpcrel_hi171+0x82>
80001cec: a009         	j	0x80001cee <.Lpcrel_hi171+0x9e>
80001cee: 7516         	ld	a0, 0x160(sp)
80001cf0: ff7705b7     	lui	a1, 0xff770
80001cf4: d6758593     	addi	a1, a1, -0x299
80001cf8: 1586         	slli	a1, a1, 0x21
80001cfa: 0585         	addi	a1, a1, 0x1
80001cfc: fcb51be3     	bne	a0, a1, 0x80001cd2 <.Lpcrel_hi171+0x82>
80001d00: a009         	j	0x80001d02 <.Lpcrel_hi171+0xb2>
80001d02: 7536         	ld	a0, 0x168(sp)
80001d04: f579         	bnez	a0, 0x80001cd2 <.Lpcrel_hi171+0x82>
80001d06: a009         	j	0x80001d08 <.Lpcrel_hi171+0xb8>
80001d08: 7576         	ld	a0, 0x178(sp)
80001d0a: 00153513     	seqz	a0, a0
80001d0e: 30a10fa3     	sb	a0, 0x31f(sp)
80001d12: a009         	j	0x80001d14 <.Lpcrel_hi171+0xc4>
80001d14: 31d14503     	lbu	a0, 0x31d(sp)
80001d18: 00000097     	auipc	ra, 0x0
80001d1c: 208080e7     	jalr	0x208(ra) <lab4_kernel_task1::pass_fail::h8fd3247caff14c34>
80001d20: 32a13023     	sd	a0, 0x320(sp)
80001d24: 32b13423     	sd	a1, 0x328(sp)
80001d28: 160c         	addi	a1, sp, 0x320
80001d2a: 4cb13023     	sd	a1, 0x4c0(sp)
80001d2e: 0688         	addi	a0, sp, 0x340
80001d30: ffffe097     	auipc	ra, 0xffffe
80001d34: 58a080e7     	jalr	0x58a(ra) <core::fmt::rt::Argument::new_display::h130bc57604401dd9>
80001d38: 34813503     	ld	a0, 0x348(sp)
80001d3c: 32a13c23     	sd	a0, 0x338(sp)
80001d40: 34013503     	ld	a0, 0x340(sp)
80001d44: 32a13823     	sd	a0, 0x330(sp)

0000000080001d48 <.Lpcrel_hi172>:
80001d48: 00003517     	auipc	a0, 0x3
80001d4c: 80750513     	addi	a0, a0, -0x7f9
80001d50: 1e0c         	addi	a1, sp, 0x330
80001d52: 00001097     	auipc	ra, 0x1
80001d56: b8a080e7     	jalr	-0x476(ra) <core::fmt::Arguments::new::h76002ae15619ddcf>
80001d5a: 00001097     	auipc	ra, 0x1
80001d5e: d6e080e7     	jalr	-0x292(ra) <lab4_kernel_task1::console::print::h54002e5355b05751>
80001d62: 31e14503     	lbu	a0, 0x31e(sp)
80001d66: 00000097     	auipc	ra, 0x0
80001d6a: 1ba080e7     	jalr	0x1ba(ra) <lab4_kernel_task1::pass_fail::h8fd3247caff14c34>
80001d6e: 34a13823     	sd	a0, 0x350(sp)
80001d72: 34b13c23     	sd	a1, 0x358(sp)
80001d76: 0e8c         	addi	a1, sp, 0x350
80001d78: 4cb13423     	sd	a1, 0x4c8(sp)
80001d7c: 1e88         	addi	a0, sp, 0x370
80001d7e: ffffe097     	auipc	ra, 0xffffe
80001d82: 53c080e7     	jalr	0x53c(ra) <core::fmt::rt::Argument::new_display::h130bc57604401dd9>
80001d86: 37813503     	ld	a0, 0x378(sp)
80001d8a: 36a13423     	sd	a0, 0x368(sp)
80001d8e: 37013503     	ld	a0, 0x370(sp)
80001d92: 36a13023     	sd	a0, 0x360(sp)

0000000080001d96 <.Lpcrel_hi173>:
80001d96: 00002517     	auipc	a0, 0x2
80001d9a: 66b50513     	addi	a0, a0, 0x66b
80001d9e: 168c         	addi	a1, sp, 0x360
80001da0: 00001097     	auipc	ra, 0x1
80001da4: b5a080e7     	jalr	-0x4a6(ra) <core::fmt::Arguments::new::h8f552c598e9d970f>
80001da8: 00001097     	auipc	ra, 0x1
80001dac: d20080e7     	jalr	-0x2e0(ra) <lab4_kernel_task1::console::print::h54002e5355b05751>
80001db0: 31f14503     	lbu	a0, 0x31f(sp)
80001db4: 00000097     	auipc	ra, 0x0
80001db8: 16c080e7     	jalr	0x16c(ra) <lab4_kernel_task1::pass_fail::h8fd3247caff14c34>
80001dbc: 38a13023     	sd	a0, 0x380(sp)
80001dc0: 38b13423     	sd	a1, 0x388(sp)
80001dc4: 070c         	addi	a1, sp, 0x380
80001dc6: 4cb13823     	sd	a1, 0x4d0(sp)
80001dca: 1708         	addi	a0, sp, 0x3a0
80001dcc: ffffe097     	auipc	ra, 0xffffe
80001dd0: 4ee080e7     	jalr	0x4ee(ra) <core::fmt::rt::Argument::new_display::h130bc57604401dd9>
80001dd4: 3a813503     	ld	a0, 0x3a8(sp)
80001dd8: 38a13c23     	sd	a0, 0x398(sp)
80001ddc: 3a013503     	ld	a0, 0x3a0(sp)
80001de0: 38a13823     	sd	a0, 0x390(sp)

0000000080001de4 <.Lpcrel_hi174>:
80001de4: 00003517     	auipc	a0, 0x3
80001de8: 94050513     	addi	a0, a0, -0x6c0
80001dec: 0f0c         	addi	a1, sp, 0x390
80001dee: 00001097     	auipc	ra, 0x1
80001df2: b2a080e7     	jalr	-0x4d6(ra) <core::fmt::Arguments::new::hc7bc65e54949f6e9>
80001df6: 00001097     	auipc	ra, 0x1
80001dfa: cd2080e7     	jalr	-0x32e(ra) <lab4_kernel_task1::console::print::h54002e5355b05751>
80001dfe: 31d14503     	lbu	a0, 0x31d(sp)
80001e02: 8905         	andi	a0, a0, 0x1
80001e04: e511         	bnez	a0, 0x80001e10 <.Lpcrel_hi174+0x2c>
80001e06: a009         	j	0x80001e08 <.Lpcrel_hi174+0x24>
80001e08: 4505         	li	a0, 0x1
80001e0a: 3aa12a23     	sw	a0, 0x3b4(sp)
80001e0e: a839         	j	0x80001e2c <.Lpcrel_hi174+0x48>
80001e10: 31e14503     	lbu	a0, 0x31e(sp)
80001e14: 8905         	andi	a0, a0, 0x1
80001e16: d96d         	beqz	a0, 0x80001e08 <.Lpcrel_hi174+0x24>
80001e18: a009         	j	0x80001e1a <.Lpcrel_hi174+0x36>
80001e1a: 31f14503     	lbu	a0, 0x31f(sp)
80001e1e: 8905         	andi	a0, a0, 0x1
80001e20: d565         	beqz	a0, 0x80001e08 <.Lpcrel_hi174+0x24>
80001e22: a009         	j	0x80001e24 <.Lpcrel_hi174+0x40>
80001e24: 4501         	li	a0, 0x0
80001e26: 3aa12a23     	sw	a0, 0x3b4(sp)
80001e2a: a009         	j	0x80001e2c <.Lpcrel_hi174+0x48>
80001e2c: 3b412503     	lw	a0, 0x3b4(sp)
80001e30: 00000097     	auipc	ra, 0x0
80001e34: 12e080e7     	jalr	0x12e(ra) <lab4_kernel_task1::qemu_exit::h7939a00c8edf54b9>

0000000080001e38 <lab4_kernel_task1::delegate_user_exceptions_to_supervisor::h8b71f64e98988d1a>:
80001e38: 652d         	lui	a0, 0xb
80001e3a: 10050513     	addi	a0, a0, 0x100
80001e3e: 30251073     	csrw	medeleg, a0
80001e42: 8082         	ret

0000000080001e44 <lab4_kernel_task1::Page::zeroed::h8ce39d29c7694908>:
80001e44: 7141         	addi	sp, sp, -0x1f0
80001e46: f786         	sd	ra, 0x1e8(sp)
80001e48: 80010113     	addi	sp, sp, -0x800
80001e4c: 9c010113     	addi	sp, sp, -0x640
80001e50: f02a         	sd	a0, 0x20(sp)
80001e52: 1028         	addi	a0, sp, 0x28
80001e54: e82a         	sd	a0, 0x10(sp)
80001e56: 4581         	li	a1, 0x0
80001e58: 6605         	lui	a2, 0x1
80001e5a: ec32         	sd	a2, 0x18(sp)
80001e5c: 00002097     	auipc	ra, 0x2
80001e60: 320080e7     	jalr	0x320(ra) <memset>
80001e64: 65c2         	ld	a1, 0x10(sp)
80001e66: 6662         	ld	a2, 0x18(sp)
80001e68: 7502         	ld	a0, 0x20(sp)
80001e6a: 00002097     	auipc	ra, 0x2
80001e6e: 388080e7     	jalr	0x388(ra) <memcpy>
80001e72: 7f010113     	addi	sp, sp, 0x7f0
80001e76: 65010113     	addi	sp, sp, 0x650
80001e7a: 70be         	ld	ra, 0x1e8(sp)
80001e7c: 617d         	addi	sp, sp, 0x1f0
80001e7e: 8082         	ret

0000000080001e80 <lab4_kernel_task1::leaf_pte::h69013238bf9bdbea>:
80001e80: 1141         	addi	sp, sp, -0x10
80001e82: e02a         	sd	a0, 0x0(sp)
80001e84: e42e         	sd	a1, 0x8(sp)
80001e86: 8131         	srli	a0, a0, 0xc
80001e88: 052a         	slli	a0, a0, 0xa
80001e8a: 8d4d         	or	a0, a0, a1
80001e8c: 00156513     	ori	a0, a0, 0x1
80001e90: 0141         	addi	sp, sp, 0x10
80001e92: 8082         	ret

0000000080001e94 <lab4_kernel_task1::clear_bss::h53bfdf46d35ad2f7>:
80001e94: 715d         	addi	sp, sp, -0x50
80001e96: e486         	sd	ra, 0x48(sp)

0000000080001e98 <.Lpcrel_hi175>:
80001e98: 00004517     	auipc	a0, 0x4
80001e9c: 16850593     	addi	a1, a0, 0x168
80001ea0: ec2e         	sd	a1, 0x18(sp)

0000000080001ea2 <.Lpcrel_hi176>:
80001ea2: 0000d517     	auipc	a0, 0xd
80001ea6: 16650513     	addi	a0, a0, 0x166
80001eaa: f02a         	sd	a0, 0x20(sp)
80001eac: 04b56d63     	bltu	a0, a1, 0x80001f06 <.Lpcrel_hi180>
80001eb0: a009         	j	0x80001eb2 <.Lpcrel_hi177>

0000000080001eb2 <.Lpcrel_hi177>:
80001eb2: 00004517     	auipc	a0, 0x4
80001eb6: 14e50513     	addi	a0, a0, 0x14e
80001eba: e02a         	sd	a0, 0x0(sp)
80001ebc: f82a         	sd	a0, 0x30(sp)
80001ebe: 4581         	li	a1, 0x0
80001ec0: e42e         	sd	a1, 0x8(sp)
80001ec2: 02b10fa3     	sb	a1, 0x3f(sp)

0000000080001ec6 <.Lpcrel_hi178>:
80001ec6: 0000d597     	auipc	a1, 0xd
80001eca: 14258593     	addi	a1, a1, 0x142
80001ece: 8d89         	sub	a1, a1, a0
80001ed0: e82e         	sd	a1, 0x10(sp)
80001ed2: e0ae         	sd	a1, 0x40(sp)
80001ed4: 0015b593     	seqz	a1, a1
80001ed8: 02b107a3     	sb	a1, 0x2f(sp)
80001edc: 02f14603     	lbu	a2, 0x2f(sp)

0000000080001ee0 <.Lpcrel_hi179>:
80001ee0: 00003597     	auipc	a1, 0x3
80001ee4: 08858693     	addi	a3, a1, 0x88
80001ee8: 4585         	li	a1, 0x1
80001eea: 00001097     	auipc	ra, 0x1
80001eee: a38080e7     	jalr	-0x5c8(ra) <core::ptr::write_bytes::precondition_check::h7b24ece26ed76dc9>
80001ef2: 6502         	ld	a0, 0x0(sp)
80001ef4: 65a2         	ld	a1, 0x8(sp)
80001ef6: 6642         	ld	a2, 0x10(sp)
80001ef8: 00002097     	auipc	ra, 0x2
80001efc: 284080e7     	jalr	0x284(ra) <memset>
80001f00: 60a6         	ld	ra, 0x48(sp)
80001f02: 6161         	addi	sp, sp, 0x50
80001f04: 8082         	ret

0000000080001f06 <.Lpcrel_hi180>:
80001f06: 00003517     	auipc	a0, 0x3
80001f0a: 02a50513     	addi	a0, a0, 0x2a
80001f0e: 00002097     	auipc	ra, 0x2
80001f12: 072080e7     	jalr	0x72(ra) <core::panicking::panic_const::panic_const_sub_overflow::hccc965ba9198de7c>

0000000080001f16 <lab4_kernel_task1::clear_sum::h2a15721a36977bf0>:
80001f16: 00040537     	lui	a0, 0x40
80001f1a: 10053073     	csrc	sstatus, a0
80001f1e: 8082         	ret

0000000080001f20 <lab4_kernel_task1::pass_fail::h8fd3247caff14c34>:
80001f20: 1101         	addi	sp, sp, -0x20
80001f22: 00a10fa3     	sb	a0, 0x1f(sp)
80001f26: e911         	bnez	a0, 0x80001f3a <.Lpcrel_hi182>
80001f28: a009         	j	0x80001f2a <.Lpcrel_hi181>

0000000080001f2a <.Lpcrel_hi181>:
80001f2a: 00003517     	auipc	a0, 0x3
80001f2e: 01e50513     	addi	a0, a0, 0x1e
80001f32: e42a         	sd	a0, 0x8(sp)
80001f34: 4511         	li	a0, 0x4
80001f36: e82a         	sd	a0, 0x10(sp)
80001f38: a809         	j	0x80001f4a <.Lpcrel_hi182+0x10>

0000000080001f3a <.Lpcrel_hi182>:
80001f3a: 00003517     	auipc	a0, 0x3
80001f3e: 01250513     	addi	a0, a0, 0x12
80001f42: e42a         	sd	a0, 0x8(sp)
80001f44: 4511         	li	a0, 0x4
80001f46: e82a         	sd	a0, 0x10(sp)
80001f48: a009         	j	0x80001f4a <.Lpcrel_hi182+0x10>
80001f4a: 6522         	ld	a0, 0x8(sp)
80001f4c: 65c2         	ld	a1, 0x10(sp)
80001f4e: 6105         	addi	sp, sp, 0x20
80001f50: 8082         	ret

0000000080001f52 <lab4_kernel_task1::pte_to_pa::h36b6beb4c82022f3>:
80001f52: 1141         	addi	sp, sp, -0x10
80001f54: e42a         	sd	a0, 0x8(sp)
80001f56: 8129         	srli	a0, a0, 0xa
80001f58: 0532         	slli	a0, a0, 0xc
80001f5a: 0141         	addi	sp, sp, 0x10
80001f5c: 8082         	ret

0000000080001f5e <lab4_kernel_task1::qemu_exit::h7939a00c8edf54b9>:
80001f5e: 1101         	addi	sp, sp, -0x20
80001f60: ec06         	sd	ra, 0x18(sp)
80001f62: 85aa         	mv	a1, a0
80001f64: e42e         	sd	a1, 0x8(sp)
80001f66: ca2a         	sw	a0, 0x14(sp)
80001f68: c919         	beqz	a0, 0x80001f7e <lab4_kernel_task1::qemu_exit::h7939a00c8edf54b9+0x20>
80001f6a: a009         	j	0x80001f6c <lab4_kernel_task1::qemu_exit::h7939a00c8edf54b9+0xe>
80001f6c: 6522         	ld	a0, 0x8(sp)
80001f6e: 0105151b     	slliw	a0, a0, 0x10
80001f72: 658d         	lui	a1, 0x3
80001f74: 33358593     	addi	a1, a1, 0x333
80001f78: 8d4d         	or	a0, a0, a1
80001f7a: c82a         	sw	a0, 0x10(sp)
80001f7c: a031         	j	0x80001f88 <lab4_kernel_task1::qemu_exit::h7939a00c8edf54b9+0x2a>
80001f7e: 6515         	lui	a0, 0x5
80001f80: 55550513     	addi	a0, a0, 0x555
80001f84: c82a         	sw	a0, 0x10(sp)
80001f86: a009         	j	0x80001f88 <lab4_kernel_task1::qemu_exit::h7939a00c8edf54b9+0x2a>
80001f88: 45c2         	lw	a1, 0x10(sp)

0000000080001f8a <.Lpcrel_hi183>:
80001f8a: 00003517     	auipc	a0, 0x3
80001f8e: fc650613     	addi	a2, a0, -0x3a
80001f92: 00100537     	lui	a0, 0x100
80001f96: 00001097     	auipc	ra, 0x1
80001f9a: cb8080e7     	jalr	-0x348(ra) <core::ptr::write_volatile::h1ad655597468f1bb>
80001f9e: a009         	j	0x80001fa0 <.Lpcrel_hi183+0x16>
80001fa0: 10500073     	wfi
80001fa4: bff5         	j	0x80001fa0 <.Lpcrel_hi183+0x16>

0000000080001fa6 <lab4_kernel_task1::read_satp::h9acafedce2adb55f>:
80001fa6: 1141         	addi	sp, sp, -0x10
80001fa8: 18002573     	csrr	a0, satp
80001fac: e42a         	sd	a0, 0x8(sp)
80001fae: 6522         	ld	a0, 0x8(sp)
80001fb0: 0141         	addi	sp, sp, 0x10
80001fb2: 8082         	ret

0000000080001fb4 <lab4_kernel_task1::table_pte::hfd296f7ecacbc37e>:
80001fb4: 1141         	addi	sp, sp, -0x10
80001fb6: e42a         	sd	a0, 0x8(sp)
80001fb8: 8131         	srli	a0, a0, 0xc
80001fba: 052a         	slli	a0, a0, 0xa
80001fbc: 0505         	addi	a0, a0, 0x1
80001fbe: 0141         	addi	sp, sp, 0x10
80001fc0: 8082         	ret

0000000080001fc2 <_$LT$lab4_kernel_task1..PteFlags$u20$as$u20$core..fmt..Display$GT$::fmt::ha1c5abedf4730717>:
80001fc2: 7129         	addi	sp, sp, -0x140
80001fc4: fe06         	sd	ra, 0x138(sp)
80001fc6: e82e         	sd	a1, 0x10(sp)
80001fc8: f9aa         	sd	a0, 0xf0(sp)
80001fca: fdae         	sd	a1, 0xf8(sp)
80001fcc: 6108         	ld	a0, 0x0(a0)
80001fce: ec2a         	sd	a0, 0x18(sp)
80001fd0: e62a         	sd	a0, 0x108(sp)
80001fd2: 8905         	andi	a0, a0, 0x1
80001fd4: e511         	bnez	a0, 0x80001fe0 <_$LT$lab4_kernel_task1..PteFlags$u20$as$u20$core..fmt..Display$GT$::fmt::ha1c5abedf4730717+0x1e>
80001fd6: a009         	j	0x80001fd8 <_$LT$lab4_kernel_task1..PteFlags$u20$as$u20$core..fmt..Display$GT$::fmt::ha1c5abedf4730717+0x16>
80001fd8: 02d00513     	li	a0, 0x2d
80001fdc: c4aa         	sw	a0, 0x48(sp)
80001fde: a029         	j	0x80001fe8 <_$LT$lab4_kernel_task1..PteFlags$u20$as$u20$core..fmt..Display$GT$::fmt::ha1c5abedf4730717+0x26>
80001fe0: 05600513     	li	a0, 0x56
80001fe4: c4aa         	sw	a0, 0x48(sp)
80001fe6: a009         	j	0x80001fe8 <_$LT$lab4_kernel_task1..PteFlags$u20$as$u20$core..fmt..Display$GT$::fmt::ha1c5abedf4730717+0x26>
80001fe8: 6562         	ld	a0, 0x18(sp)
80001fea: 8909         	andi	a0, a0, 0x2
80001fec: e511         	bnez	a0, 0x80001ff8 <_$LT$lab4_kernel_task1..PteFlags$u20$as$u20$core..fmt..Display$GT$::fmt::ha1c5abedf4730717+0x36>
80001fee: a009         	j	0x80001ff0 <_$LT$lab4_kernel_task1..PteFlags$u20$as$u20$core..fmt..Display$GT$::fmt::ha1c5abedf4730717+0x2e>
80001ff0: 02d00513     	li	a0, 0x2d
80001ff4: c6aa         	sw	a0, 0x4c(sp)
80001ff6: a029         	j	0x80002000 <_$LT$lab4_kernel_task1..PteFlags$u20$as$u20$core..fmt..Display$GT$::fmt::ha1c5abedf4730717+0x3e>
80001ff8: 05200513     	li	a0, 0x52
80001ffc: c6aa         	sw	a0, 0x4c(sp)
80001ffe: a009         	j	0x80002000 <_$LT$lab4_kernel_task1..PteFlags$u20$as$u20$core..fmt..Display$GT$::fmt::ha1c5abedf4730717+0x3e>
80002000: 6562         	ld	a0, 0x18(sp)
80002002: 8911         	andi	a0, a0, 0x4
80002004: e511         	bnez	a0, 0x80002010 <_$LT$lab4_kernel_task1..PteFlags$u20$as$u20$core..fmt..Display$GT$::fmt::ha1c5abedf4730717+0x4e>
80002006: a009         	j	0x80002008 <_$LT$lab4_kernel_task1..PteFlags$u20$as$u20$core..fmt..Display$GT$::fmt::ha1c5abedf4730717+0x46>
80002008: 02d00513     	li	a0, 0x2d
8000200c: c8aa         	sw	a0, 0x50(sp)
8000200e: a029         	j	0x80002018 <_$LT$lab4_kernel_task1..PteFlags$u20$as$u20$core..fmt..Display$GT$::fmt::ha1c5abedf4730717+0x56>
80002010: 05700513     	li	a0, 0x57
80002014: c8aa         	sw	a0, 0x50(sp)
80002016: a009         	j	0x80002018 <_$LT$lab4_kernel_task1..PteFlags$u20$as$u20$core..fmt..Display$GT$::fmt::ha1c5abedf4730717+0x56>
80002018: 6562         	ld	a0, 0x18(sp)
8000201a: 8921         	andi	a0, a0, 0x8
8000201c: e511         	bnez	a0, 0x80002028 <_$LT$lab4_kernel_task1..PteFlags$u20$as$u20$core..fmt..Display$GT$::fmt::ha1c5abedf4730717+0x66>
8000201e: a009         	j	0x80002020 <_$LT$lab4_kernel_task1..PteFlags$u20$as$u20$core..fmt..Display$GT$::fmt::ha1c5abedf4730717+0x5e>
80002020: 02d00513     	li	a0, 0x2d
80002024: caaa         	sw	a0, 0x54(sp)
80002026: a029         	j	0x80002030 <_$LT$lab4_kernel_task1..PteFlags$u20$as$u20$core..fmt..Display$GT$::fmt::ha1c5abedf4730717+0x6e>
80002028: 05800513     	li	a0, 0x58
8000202c: caaa         	sw	a0, 0x54(sp)
8000202e: a009         	j	0x80002030 <_$LT$lab4_kernel_task1..PteFlags$u20$as$u20$core..fmt..Display$GT$::fmt::ha1c5abedf4730717+0x6e>
80002030: 6562         	ld	a0, 0x18(sp)
80002032: 8941         	andi	a0, a0, 0x10
80002034: e511         	bnez	a0, 0x80002040 <_$LT$lab4_kernel_task1..PteFlags$u20$as$u20$core..fmt..Display$GT$::fmt::ha1c5abedf4730717+0x7e>
80002036: a009         	j	0x80002038 <_$LT$lab4_kernel_task1..PteFlags$u20$as$u20$core..fmt..Display$GT$::fmt::ha1c5abedf4730717+0x76>
80002038: 02d00513     	li	a0, 0x2d
8000203c: ccaa         	sw	a0, 0x58(sp)
8000203e: a029         	j	0x80002048 <_$LT$lab4_kernel_task1..PteFlags$u20$as$u20$core..fmt..Display$GT$::fmt::ha1c5abedf4730717+0x86>
80002040: 05500513     	li	a0, 0x55
80002044: ccaa         	sw	a0, 0x58(sp)
80002046: a009         	j	0x80002048 <_$LT$lab4_kernel_task1..PteFlags$u20$as$u20$core..fmt..Display$GT$::fmt::ha1c5abedf4730717+0x86>
80002048: 6562         	ld	a0, 0x18(sp)
8000204a: 02057513     	andi	a0, a0, 0x20
8000204e: e511         	bnez	a0, 0x8000205a <_$LT$lab4_kernel_task1..PteFlags$u20$as$u20$core..fmt..Display$GT$::fmt::ha1c5abedf4730717+0x98>
80002050: a009         	j	0x80002052 <_$LT$lab4_kernel_task1..PteFlags$u20$as$u20$core..fmt..Display$GT$::fmt::ha1c5abedf4730717+0x90>
80002052: 02d00513     	li	a0, 0x2d
80002056: ceaa         	sw	a0, 0x5c(sp)
80002058: a029         	j	0x80002062 <_$LT$lab4_kernel_task1..PteFlags$u20$as$u20$core..fmt..Display$GT$::fmt::ha1c5abedf4730717+0xa0>
8000205a: 04700513     	li	a0, 0x47
8000205e: ceaa         	sw	a0, 0x5c(sp)
80002060: a009         	j	0x80002062 <_$LT$lab4_kernel_task1..PteFlags$u20$as$u20$core..fmt..Display$GT$::fmt::ha1c5abedf4730717+0xa0>
80002062: 6562         	ld	a0, 0x18(sp)
80002064: 04057513     	andi	a0, a0, 0x40
80002068: e511         	bnez	a0, 0x80002074 <_$LT$lab4_kernel_task1..PteFlags$u20$as$u20$core..fmt..Display$GT$::fmt::ha1c5abedf4730717+0xb2>
8000206a: a009         	j	0x8000206c <_$LT$lab4_kernel_task1..PteFlags$u20$as$u20$core..fmt..Display$GT$::fmt::ha1c5abedf4730717+0xaa>
8000206c: 02d00513     	li	a0, 0x2d
80002070: d0aa         	sw	a0, 0x60(sp)
80002072: a029         	j	0x8000207c <_$LT$lab4_kernel_task1..PteFlags$u20$as$u20$core..fmt..Display$GT$::fmt::ha1c5abedf4730717+0xba>
80002074: 04100513     	li	a0, 0x41
80002078: d0aa         	sw	a0, 0x60(sp)
8000207a: a009         	j	0x8000207c <_$LT$lab4_kernel_task1..PteFlags$u20$as$u20$core..fmt..Display$GT$::fmt::ha1c5abedf4730717+0xba>
8000207c: 6562         	ld	a0, 0x18(sp)
8000207e: 08057513     	andi	a0, a0, 0x80
80002082: e511         	bnez	a0, 0x8000208e <_$LT$lab4_kernel_task1..PteFlags$u20$as$u20$core..fmt..Display$GT$::fmt::ha1c5abedf4730717+0xcc>
80002084: a009         	j	0x80002086 <_$LT$lab4_kernel_task1..PteFlags$u20$as$u20$core..fmt..Display$GT$::fmt::ha1c5abedf4730717+0xc4>
80002086: 02d00513     	li	a0, 0x2d
8000208a: d2aa         	sw	a0, 0x64(sp)
8000208c: a029         	j	0x80002096 <_$LT$lab4_kernel_task1..PteFlags$u20$as$u20$core..fmt..Display$GT$::fmt::ha1c5abedf4730717+0xd4>
8000208e: 04400513     	li	a0, 0x44
80002092: d2aa         	sw	a0, 0x64(sp)
80002094: a009         	j	0x80002096 <_$LT$lab4_kernel_task1..PteFlags$u20$as$u20$core..fmt..Display$GT$::fmt::ha1c5abedf4730717+0xd4>
80002096: 4526         	lw	a0, 0x48(sp)
80002098: d42a         	sw	a0, 0x28(sp)
8000209a: 4536         	lw	a0, 0x4c(sp)
8000209c: d62a         	sw	a0, 0x2c(sp)
8000209e: 4546         	lw	a0, 0x50(sp)
800020a0: d82a         	sw	a0, 0x30(sp)
800020a2: 4556         	lw	a0, 0x54(sp)
800020a4: da2a         	sw	a0, 0x34(sp)
800020a6: 4566         	lw	a0, 0x58(sp)
800020a8: dc2a         	sw	a0, 0x38(sp)
800020aa: 4576         	lw	a0, 0x5c(sp)
800020ac: de2a         	sw	a0, 0x3c(sp)
800020ae: 5506         	lw	a0, 0x60(sp)
800020b0: c0aa         	sw	a0, 0x40(sp)
800020b2: 5516         	lw	a0, 0x64(sp)
800020b4: c2aa         	sw	a0, 0x44(sp)
800020b6: 04416503     	lwu	a0, 0x44(sp)
800020ba: 1502         	slli	a0, a0, 0x20
800020bc: 04016583     	lwu	a1, 0x40(sp)
800020c0: 8d4d         	or	a0, a0, a1
800020c2: f62a         	sd	a0, 0x128(sp)
800020c4: 03c16503     	lwu	a0, 0x3c(sp)
800020c8: 1502         	slli	a0, a0, 0x20
800020ca: 03816583     	lwu	a1, 0x38(sp)
800020ce: 8d4d         	or	a0, a0, a1
800020d0: f22a         	sd	a0, 0x120(sp)
800020d2: 03416503     	lwu	a0, 0x34(sp)
800020d6: 1502         	slli	a0, a0, 0x20
800020d8: 03016583     	lwu	a1, 0x30(sp)
800020dc: 8d4d         	or	a0, a0, a1
800020de: ee2a         	sd	a0, 0x118(sp)
800020e0: 02c16503     	lwu	a0, 0x2c(sp)
800020e4: 1502         	slli	a0, a0, 0x20
800020e6: 02816583     	lwu	a1, 0x28(sp)
800020ea: 8d4d         	or	a0, a0, a1
800020ec: ea2a         	sd	a0, 0x110(sp)
800020ee: 10a8         	addi	a0, sp, 0x68
800020f0: 0a0c         	addi	a1, sp, 0x110
800020f2: 00001097     	auipc	ra, 0x1
800020f6: a58080e7     	jalr	-0x5a8(ra) <core::array::iter::_$LT$impl$u20$core..iter..traits..collect..IntoIterator$u20$for$u20$$u5b$T$u3b$$u20$N$u5d$$GT$::into_iter::h0560100c973f9b9f>
800020fa: 654a         	ld	a0, 0x90(sp)
800020fc: e1aa         	sd	a0, 0xc0(sp)
800020fe: 652a         	ld	a0, 0x88(sp)
80002100: fd2a         	sd	a0, 0xb8(sp)
80002102: 650a         	ld	a0, 0x80(sp)
80002104: f92a         	sd	a0, 0xb0(sp)
80002106: 7566         	ld	a0, 0x78(sp)
80002108: f52a         	sd	a0, 0xa8(sp)
8000210a: 7546         	ld	a0, 0x70(sp)
8000210c: f12a         	sd	a0, 0xa0(sp)
8000210e: 7526         	ld	a0, 0x68(sp)
80002110: ed2a         	sd	a0, 0x98(sp)
80002112: a009         	j	0x80002114 <_$LT$lab4_kernel_task1..PteFlags$u20$as$u20$core..fmt..Display$GT$::fmt::ha1c5abedf4730717+0x152>
80002114: 0928         	addi	a0, sp, 0x98
80002116: 00001097     	auipc	ra, 0x1
8000211a: ae8080e7     	jalr	-0x518(ra) <_$LT$core..array..iter..IntoIter$LT$T$C$_$GT$$u20$as$u20$core..iter..traits..iterator..Iterator$GT$::next::hc6ab37d081e3c5d3>
8000211e: c5aa         	sw	a0, 0xc8(sp)
80002120: 452e         	lw	a0, 0xc8(sp)
80002122: 001105b7     	lui	a1, 0x110
80002126: 04b50863     	beq	a0, a1, 0x80002176 <.Lpcrel_hi184+0x30>
8000212a: a009         	j	0x8000212c <_$LT$lab4_kernel_task1..PteFlags$u20$as$u20$core..fmt..Display$GT$::fmt::ha1c5abedf4730717+0x16a>
8000212c: 452e         	lw	a0, 0xc8(sp)
8000212e: c7aa         	sw	a0, 0xcc(sp)
80002130: 01ec         	addi	a1, sp, 0xcc
80002132: fa2e         	sd	a1, 0x130(sp)
80002134: 1188         	addi	a0, sp, 0xe0
80002136: ffffe097     	auipc	ra, 0xffffe
8000213a: 1a6080e7     	jalr	0x1a6(ra) <core::fmt::rt::Argument::new_display::h45668c1f8b76f40a>
8000213e: 752e         	ld	a0, 0xe8(sp)
80002140: edaa         	sd	a0, 0xd8(sp)
80002142: 750e         	ld	a0, 0xe0(sp)
80002144: e9aa         	sd	a0, 0xd0(sp)

0000000080002146 <.Lpcrel_hi184>:
80002146: 00002517     	auipc	a0, 0x2
8000214a: 3b650513     	addi	a0, a0, 0x3b6
8000214e: 098c         	addi	a1, sp, 0xd0
80002150: 00000097     	auipc	ra, 0x0
80002154: 7a0080e7     	jalr	0x7a0(ra) <core::fmt::Arguments::new::h8a346e4210362cf3>
80002158: 862a         	mv	a2, a0
8000215a: 6542         	ld	a0, 0x10(sp)
8000215c: e432         	sd	a2, 0x8(sp)
8000215e: 862e         	mv	a2, a1
80002160: 65a2         	ld	a1, 0x8(sp)
80002162: ffffe097     	auipc	ra, 0xffffe
80002166: 01a080e7     	jalr	0x1a(ra) <core::fmt::Formatter::write_fmt::h9b74350a18fd76e6>
8000216a: 00000097     	auipc	ra, 0x0
8000216e: 582080e7     	jalr	0x582(ra) <_$LT$core..result..Result$LT$T$C$E$GT$$u20$as$u20$core..ops..try_trait..Try$GT$::branch::h2881ecf1dafbd420>
80002172: e105         	bnez	a0, 0x80002192 <.Lpcrel_hi185>
80002174: b745         	j	0x80002114 <_$LT$lab4_kernel_task1..PteFlags$u20$as$u20$core..fmt..Display$GT$::fmt::ha1c5abedf4730717+0x152>
80002176: 0928         	addi	a0, sp, 0x98
80002178: 00000097     	auipc	ra, 0x0
8000217c: 6e2080e7     	jalr	0x6e2(ra) <core::ptr::drop_in_place$LT$core..array..iter..IntoIter$LT$char$C$8_usize$GT$$GT$::h123c1795c2418da3>
80002180: 4501         	li	a0, 0x0
80002182: 02a103a3     	sb	a0, 0x27(sp)
80002186: a009         	j	0x80002188 <.Lpcrel_hi184+0x42>
80002188: 02714503     	lbu	a0, 0x27(sp)
8000218c: 70f2         	ld	ra, 0x138(sp)
8000218e: 6131         	addi	sp, sp, 0x140
80002190: 8082         	ret

0000000080002192 <.Lpcrel_hi185>:
80002192: 00003517     	auipc	a0, 0x3
80002196: e0650513     	addi	a0, a0, -0x1fa
8000219a: 00000097     	auipc	ra, 0x0
8000219e: 54a080e7     	jalr	0x54a(ra) <_$LT$core..result..Result$LT$T$C$F$GT$$u20$as$u20$core..ops..try_trait..FromResidual$LT$core..result..Result$LT$core..convert..Infallible$C$E$GT$$GT$$GT$::from_residual::hee8fcabe490c92a3>
800021a2: 02a103a3     	sb	a0, 0x27(sp)
800021a6: 0928         	addi	a0, sp, 0x98
800021a8: 00000097     	auipc	ra, 0x0
800021ac: 6b2080e7     	jalr	0x6b2(ra) <core::ptr::drop_in_place$LT$core..array..iter..IntoIter$LT$char$C$8_usize$GT$$GT$::h123c1795c2418da3>
800021b0: bfe1         	j	0x80002188 <.Lpcrel_hi184+0x42>

00000000800021b2 <handle_machine_trap>:
800021b2: 7171         	addi	sp, sp, -0xb0
800021b4: f506         	sd	ra, 0xa8(sp)
800021b6: e42a         	sd	a0, 0x8(sp)
800021b8: f12a         	sd	a0, 0xa0(sp)
800021ba: ffffe097     	auipc	ra, 0xffffe
800021be: 798080e7     	jalr	0x798(ra) <lab4_kernel_task1::read_mcause::hf08e4d64e59cec5f>
800021c2: 85aa         	mv	a1, a0
800021c4: 6522         	ld	a0, 0x8(sp)
800021c6: ec2e         	sd	a1, 0x18(sp)
800021c8: 0f850513     	addi	a0, a0, 0xf8
800021cc: e82a         	sd	a0, 0x10(sp)
800021ce: ffffe097     	auipc	ra, 0xffffe
800021d2: 736080e7     	jalr	0x736(ra) <lab4_kernel_task1::read_mtval::hdee5e80206f59900>
800021d6: 85aa         	mv	a1, a0
800021d8: 6542         	ld	a0, 0x10(sp)
800021da: fc2e         	sd	a1, 0x38(sp)
800021dc: 082c         	addi	a1, sp, 0x18
800021de: f02e         	sd	a1, 0x20(sp)
800021e0: f42a         	sd	a0, 0x28(sp)
800021e2: 1828         	addi	a0, sp, 0x38
800021e4: f82a         	sd	a0, 0x30(sp)
800021e6: 7582         	ld	a1, 0x20(sp)
800021e8: 1888         	addi	a0, sp, 0x70
800021ea: ffffe097     	auipc	ra, 0xffffe
800021ee: 158080e7     	jalr	0x158(ra) <core::fmt::rt::Argument::new_lower_hex::hd4789b212b1113cd>
800021f2: 75a2         	ld	a1, 0x28(sp)
800021f4: 0108         	addi	a0, sp, 0x80
800021f6: ffffe097     	auipc	ra, 0xffffe
800021fa: 14c080e7     	jalr	0x14c(ra) <core::fmt::rt::Argument::new_lower_hex::hd4789b212b1113cd>
800021fe: 75c2         	ld	a1, 0x30(sp)
80002200: 0908         	addi	a0, sp, 0x90
80002202: ffffe097     	auipc	ra, 0xffffe
80002206: 140080e7     	jalr	0x140(ra) <core::fmt::rt::Argument::new_lower_hex::hd4789b212b1113cd>
8000220a: 7566         	ld	a0, 0x78(sp)
8000220c: e4aa         	sd	a0, 0x48(sp)
8000220e: 7546         	ld	a0, 0x70(sp)
80002210: e0aa         	sd	a0, 0x40(sp)
80002212: 652a         	ld	a0, 0x88(sp)
80002214: ecaa         	sd	a0, 0x58(sp)
80002216: 650a         	ld	a0, 0x80(sp)
80002218: e8aa         	sd	a0, 0x50(sp)
8000221a: 656a         	ld	a0, 0x98(sp)
8000221c: f4aa         	sd	a0, 0x68(sp)
8000221e: 654a         	ld	a0, 0x90(sp)
80002220: f0aa         	sd	a0, 0x60(sp)

0000000080002222 <.Lpcrel_hi186>:
80002222: 00003517     	auipc	a0, 0x3
80002226: d8e50513     	addi	a0, a0, -0x272
8000222a: 008c         	addi	a1, sp, 0x40
8000222c: 00000097     	auipc	ra, 0x0
80002230: 69c080e7     	jalr	0x69c(ra) <core::fmt::Arguments::new::h40e57ee2df30623a>
80002234: 00001097     	auipc	ra, 0x1
80002238: 894080e7     	jalr	-0x76c(ra) <lab4_kernel_task1::console::print::h54002e5355b05751>
8000223c: 4505         	li	a0, 0x1
8000223e: 00000097     	auipc	ra, 0x0
80002242: d20080e7     	jalr	-0x2e0(ra) <lab4_kernel_task1::qemu_exit::h7939a00c8edf54b9>

0000000080002246 <handle_supervisor_trap>:
80002246: 7115         	addi	sp, sp, -0xe0
80002248: ed86         	sd	ra, 0xd8(sp)
8000224a: e42a         	sd	a0, 0x8(sp)
8000224c: e9aa         	sd	a0, 0xd0(sp)
8000224e: ffffe097     	auipc	ra, 0xffffe
80002252: 712080e7     	jalr	0x712(ra) <lab4_kernel_task1::read_scause::h3f50e3d06b7c04c9>
80002256: ec2a         	sd	a0, 0x18(sp)
80002258: ffffe097     	auipc	ra, 0xffffe
8000225c: 6ba080e7     	jalr	0x6ba(ra) <lab4_kernel_task1::read_stval::h88e4fe5530b25773>
80002260: f02a         	sd	a0, 0x20(sp)
80002262: 6562         	ld	a0, 0x18(sp)
80002264: e82a         	sd	a0, 0x10(sp)
80002266: 45a1         	li	a1, 0x8
80002268: 0ab50a63     	beq	a0, a1, 0x8000231c <.Lpcrel_hi187+0x30>
8000226c: a009         	j	0x8000226e <handle_supervisor_trap+0x28>
8000226e: 6542         	ld	a0, 0x10(sp)
80002270: 45b5         	li	a1, 0xd
80002272: 08b50f63     	beq	a0, a1, 0x80002310 <.Lpcrel_hi187+0x24>
80002276: a009         	j	0x80002278 <handle_supervisor_trap+0x32>
80002278: 6522         	ld	a0, 0x8(sp)
8000227a: 0f850513     	addi	a0, a0, 0xf8
8000227e: e02a         	sd	a0, 0x0(sp)
80002280: 00000097     	auipc	ra, 0x0
80002284: d26080e7     	jalr	-0x2da(ra) <lab4_kernel_task1::read_satp::h9acafedce2adb55f>
80002288: 85aa         	mv	a1, a0
8000228a: 6502         	ld	a0, 0x0(sp)
8000228c: e4ae         	sd	a1, 0x48(sp)
8000228e: 082c         	addi	a1, sp, 0x18
80002290: f42e         	sd	a1, 0x28(sp)
80002292: f82a         	sd	a0, 0x30(sp)
80002294: 1008         	addi	a0, sp, 0x20
80002296: fc2a         	sd	a0, 0x38(sp)
80002298: 00a8         	addi	a0, sp, 0x48
8000229a: e0aa         	sd	a0, 0x40(sp)
8000229c: 75a2         	ld	a1, 0x28(sp)
8000229e: 0908         	addi	a0, sp, 0x90
800022a0: ffffe097     	auipc	ra, 0xffffe
800022a4: 0a2080e7     	jalr	0xa2(ra) <core::fmt::rt::Argument::new_lower_hex::hd4789b212b1113cd>
800022a8: 75c2         	ld	a1, 0x30(sp)
800022aa: 1108         	addi	a0, sp, 0xa0
800022ac: ffffe097     	auipc	ra, 0xffffe
800022b0: 096080e7     	jalr	0x96(ra) <core::fmt::rt::Argument::new_lower_hex::hd4789b212b1113cd>
800022b4: 75e2         	ld	a1, 0x38(sp)
800022b6: 1908         	addi	a0, sp, 0xb0
800022b8: ffffe097     	auipc	ra, 0xffffe
800022bc: 08a080e7     	jalr	0x8a(ra) <core::fmt::rt::Argument::new_lower_hex::hd4789b212b1113cd>
800022c0: 6586         	ld	a1, 0x40(sp)
800022c2: 0188         	addi	a0, sp, 0xc0
800022c4: ffffe097     	auipc	ra, 0xffffe
800022c8: 07e080e7     	jalr	0x7e(ra) <core::fmt::rt::Argument::new_lower_hex::hd4789b212b1113cd>
800022cc: 656a         	ld	a0, 0x98(sp)
800022ce: ecaa         	sd	a0, 0x58(sp)
800022d0: 654a         	ld	a0, 0x90(sp)
800022d2: e8aa         	sd	a0, 0x50(sp)
800022d4: 752a         	ld	a0, 0xa8(sp)
800022d6: f4aa         	sd	a0, 0x68(sp)
800022d8: 750a         	ld	a0, 0xa0(sp)
800022da: f0aa         	sd	a0, 0x60(sp)
800022dc: 756a         	ld	a0, 0xb8(sp)
800022de: fcaa         	sd	a0, 0x78(sp)
800022e0: 754a         	ld	a0, 0xb0(sp)
800022e2: f8aa         	sd	a0, 0x70(sp)
800022e4: 652e         	ld	a0, 0xc8(sp)
800022e6: e52a         	sd	a0, 0x88(sp)
800022e8: 650e         	ld	a0, 0xc0(sp)
800022ea: e12a         	sd	a0, 0x80(sp)

00000000800022ec <.Lpcrel_hi187>:
800022ec: 00003517     	auipc	a0, 0x3
800022f0: d0f50513     	addi	a0, a0, -0x2f1
800022f4: 088c         	addi	a1, sp, 0x50
800022f6: 00000097     	auipc	ra, 0x0
800022fa: 618080e7     	jalr	0x618(ra) <core::fmt::Arguments::new::ha9b12884cc2e717e>
800022fe: 00000097     	auipc	ra, 0x0
80002302: 7ca080e7     	jalr	0x7ca(ra) <lab4_kernel_task1::console::print::h54002e5355b05751>
80002306: 4505         	li	a0, 0x1
80002308: 00000097     	auipc	ra, 0x0
8000230c: c56080e7     	jalr	-0x3aa(ra) <lab4_kernel_task1::qemu_exit::h7939a00c8edf54b9>
80002310: 6522         	ld	a0, 0x8(sp)
80002312: 7582         	ld	a1, 0x20(sp)
80002314: fffff097     	auipc	ra, 0xfffff
80002318: 614080e7     	jalr	0x614(ra) <lab4_kernel_task1::handle_expected_kernel_access_fault::hfd792bf43cf0c0e1>
8000231c: 6522         	ld	a0, 0x8(sp)
8000231e: 7582         	ld	a1, 0x20(sp)
80002320: fffff097     	auipc	ra, 0xfffff
80002324: 4f4080e7     	jalr	0x4f4(ra) <lab4_kernel_task1::handle_unexpected_user_ecall::h44ccaa5233844d5e>

0000000080002328 <start_machine>:
80002328: 1141         	addi	sp, sp, -0x10
8000232a: e406         	sd	ra, 0x8(sp)
8000232c: 00000097     	auipc	ra, 0x0
80002330: b68080e7     	jalr	-0x498(ra) <lab4_kernel_task1::clear_bss::h53bfdf46d35ad2f7>
80002334: fffff097     	auipc	ra, 0xfffff
80002338: 944080e7     	jalr	-0x6bc(ra) <lab4_kernel_task1::configure_pmp::h6c8da2dc995011f6>
8000233c: 00001097     	auipc	ra, 0x1
80002340: d7a080e7     	jalr	-0x286(ra) <lab4_kernel_task1::trap::init_machine_trap_vector::hafc86f67938353d0>
80002344: 00000097     	auipc	ra, 0x0
80002348: af4080e7     	jalr	-0x50c(ra) <lab4_kernel_task1::delegate_user_exceptions_to_supervisor::h8b71f64e98988d1a>
8000234c: fffff097     	auipc	ra, 0xfffff
80002350: dde080e7     	jalr	-0x222(ra) <lab4_kernel_task1::machine_trap_stack_top::h8f6eac1b1aa194e4>
80002354: 34051073     	csrw	mscratch, a0
80002358: fffff097     	auipc	ra, 0xfffff
8000235c: aa0080e7     	jalr	-0x560(ra) <lab4_kernel_task1::kernel_stack_top::hb5f46af0ebaf8799>
80002360: 85aa         	mv	a1, a0

0000000080002362 <.Lpcrel_hi188>:
80002362: 00000517     	auipc	a0, 0x0
80002366: 01050513     	addi	a0, a0, 0x10
8000236a: ffffe097     	auipc	ra, 0xffffe
8000236e: 106080e7     	jalr	0x106(ra) <enter_supervisor>

0000000080002372 <start_supervisor>:
80002372: c8010113     	addi	sp, sp, -0x380
80002376: 36113c23     	sd	ra, 0x378(sp)
8000237a: 00001097     	auipc	ra, 0x1
8000237e: d4a080e7     	jalr	-0x2b6(ra) <lab4_kernel_task1::trap::init_supervisor_trap_vector::h3a508f835ddf0ede>
80002382: 00000097     	auipc	ra, 0x0
80002386: b94080e7     	jalr	-0x46c(ra) <lab4_kernel_task1::clear_sum::h2a15721a36977bf0>
8000238a: fffff097     	auipc	ra, 0xfffff
8000238e: b7c080e7     	jalr	-0x484(ra) <lab4_kernel_task1::initialize_user_pages::h07a181df81d32158>
80002392: fffff097     	auipc	ra, 0xfffff
80002396: da2080e7     	jalr	-0x25e(ra) <lab4_kernel_task1::build_single_page_table::h035ad3a1a4bcc3a9>
8000239a: fffff097     	auipc	ra, 0xfffff
8000239e: 53c080e7     	jalr	0x53c(ra) <lab4_kernel_task1::activate_single_address_space::ha9df02652cff4c65>
800023a2: fffff097     	auipc	ra, 0xfffff
800023a6: ac2080e7     	jalr	-0x53e(ra) <lab4_kernel_task1::prepare_user_frame::h8d6b18127323476a>

00000000800023aa <.Lpcrel_hi189>:
800023aa: 00003517     	auipc	a0, 0x3
800023ae: cab50513     	addi	a0, a0, -0x355
800023b2: 02c00593     	li	a1, 0x2c
800023b6: ffffe097     	auipc	ra, 0xffffe
800023ba: db8080e7     	jalr	-0x248(ra) <core::fmt::Arguments::from_str::hf314c9ed1c598c7e>
800023be: 00000097     	auipc	ra, 0x0
800023c2: 70a080e7     	jalr	0x70a(ra) <lab4_kernel_task1::console::print::h54002e5355b05751>

00000000800023c6 <.Lpcrel_hi190>:
800023c6: 00003517     	auipc	a0, 0x3
800023ca: cbb50513     	addi	a0, a0, -0x345
800023ce: 03700593     	li	a1, 0x37
800023d2: ffffe097     	auipc	ra, 0xffffe
800023d6: d9c080e7     	jalr	-0x264(ra) <core::fmt::Arguments::from_str::hf314c9ed1c598c7e>
800023da: 00000097     	auipc	ra, 0x0
800023de: 6ee080e7     	jalr	0x6ee(ra) <lab4_kernel_task1::console::print::h54002e5355b05751>

00000000800023e2 <.Lpcrel_hi191>:
800023e2: 00003517     	auipc	a0, 0x3
800023e6: cd650513     	addi	a0, a0, -0x32a
800023ea: 07300593     	li	a1, 0x73
800023ee: ffffe097     	auipc	ra, 0xffffe
800023f2: d80080e7     	jalr	-0x280(ra) <core::fmt::Arguments::from_str::hf314c9ed1c598c7e>
800023f6: 00000097     	auipc	ra, 0x0
800023fa: 6d2080e7     	jalr	0x6d2(ra) <lab4_kernel_task1::console::print::h54002e5355b05751>

00000000800023fe <.Lpcrel_hi192>:
800023fe: 0000d517     	auipc	a0, 0xd
80002402: c0250513     	addi	a0, a0, -0x3fe
80002406: 2c050763     	beqz	a0, 0x800026d4 <.Lpcrel_hi207>
8000240a: a009         	j	0x8000240c <.Lpcrel_hi193>

000000008000240c <.Lpcrel_hi193>:
8000240c: 0000d517     	auipc	a0, 0xd
80002410: bf450513     	addi	a0, a0, -0x40c
80002414: 6108         	ld	a0, 0x0(a0)
80002416: f4aa         	sd	a0, 0x68(sp)
80002418: fffff097     	auipc	ra, 0xfffff
8000241c: ada080e7     	jalr	-0x526(ra) <lab4_kernel_task1::root_page_table_pa::h9fd19df79909b7c6>
80002420: f8aa         	sd	a0, 0x70(sp)
80002422: 10ac         	addi	a1, sp, 0x68
80002424: 34b13c23     	sd	a1, 0x358(sp)
80002428: 1888         	addi	a0, sp, 0x70
8000242a: e42a         	sd	a0, 0x8(sp)
8000242c: 36a13023     	sd	a0, 0x360(sp)
80002430: 0928         	addi	a0, sp, 0x98
80002432: ffffe097     	auipc	ra, 0xffffe
80002436: f10080e7     	jalr	-0xf0(ra) <core::fmt::rt::Argument::new_lower_hex::hd4789b212b1113cd>
8000243a: 65a2         	ld	a1, 0x8(sp)
8000243c: 1128         	addi	a0, sp, 0xa8
8000243e: ffffe097     	auipc	ra, 0xffffe
80002442: f04080e7     	jalr	-0xfc(ra) <core::fmt::rt::Argument::new_lower_hex::hd4789b212b1113cd>
80002446: 750a         	ld	a0, 0xa0(sp)
80002448: e12a         	sd	a0, 0x80(sp)
8000244a: 656a         	ld	a0, 0x98(sp)
8000244c: fcaa         	sd	a0, 0x78(sp)
8000244e: 754a         	ld	a0, 0xb0(sp)
80002450: e92a         	sd	a0, 0x90(sp)
80002452: 752a         	ld	a0, 0xa8(sp)
80002454: e52a         	sd	a0, 0x88(sp)

0000000080002456 <.Lpcrel_hi194>:
80002456: 00003517     	auipc	a0, 0x3
8000245a: cf250513     	addi	a0, a0, -0x30e
8000245e: 18ac         	addi	a1, sp, 0x78
80002460: 00000097     	auipc	ra, 0x0
80002464: 44a080e7     	jalr	0x44a(ra) <core::fmt::Arguments::new::h29f07845c18c10dd>
80002468: 00000097     	auipc	ra, 0x0
8000246c: 660080e7     	jalr	0x660(ra) <lab4_kernel_task1::console::print::h54002e5355b05751>

0000000080002470 <.Lpcrel_hi195>:
80002470: 00002517     	auipc	a0, 0x2
80002474: 58050513     	addi	a0, a0, 0x580
80002478: fd2a         	sd	a0, 0xb8(sp)

000000008000247a <.Lpcrel_hi196>:
8000247a: 00002517     	auipc	a0, 0x2
8000247e: 55650513     	addi	a0, a0, 0x556
80002482: e1aa         	sd	a0, 0xc0(sp)

0000000080002484 <.Lpcrel_hi197>:
80002484: 00002517     	auipc	a0, 0x2
80002488: 56450513     	addi	a0, a0, 0x564
8000248c: ecaa         	sd	a0, 0x58(sp)
8000248e: e5aa         	sd	a0, 0xc8(sp)

0000000080002490 <.Lpcrel_hi198>:
80002490: 00002517     	auipc	a0, 0x2
80002494: 56850513     	addi	a0, a0, 0x568
80002498: f0aa         	sd	a0, 0x60(sp)
8000249a: e9aa         	sd	a0, 0xd0(sp)
8000249c: 75ea         	ld	a1, 0xb8(sp)
8000249e: 0a28         	addi	a0, sp, 0x118
800024a0: ffffe097     	auipc	ra, 0xffffe
800024a4: ea2080e7     	jalr	-0x15e(ra) <core::fmt::rt::Argument::new_lower_hex::hd4789b212b1113cd>
800024a8: 658e         	ld	a1, 0xc0(sp)
800024aa: 1228         	addi	a0, sp, 0x128
800024ac: ffffe097     	auipc	ra, 0xffffe
800024b0: e96080e7     	jalr	-0x16a(ra) <core::fmt::rt::Argument::new_lower_hex::hd4789b212b1113cd>
800024b4: 65ae         	ld	a1, 0xc8(sp)
800024b6: 1a28         	addi	a0, sp, 0x138
800024b8: ffffe097     	auipc	ra, 0xffffe
800024bc: e8a080e7     	jalr	-0x176(ra) <core::fmt::rt::Argument::new_lower_hex::hd4789b212b1113cd>
800024c0: 65ce         	ld	a1, 0xd0(sp)
800024c2: 02a8         	addi	a0, sp, 0x148
800024c4: ffffe097     	auipc	ra, 0xffffe
800024c8: e7e080e7     	jalr	-0x182(ra) <core::fmt::rt::Argument::new_lower_hex::hd4789b212b1113cd>
800024cc: 7512         	ld	a0, 0x120(sp)
800024ce: f1aa         	sd	a0, 0xe0(sp)
800024d0: 6572         	ld	a0, 0x118(sp)
800024d2: edaa         	sd	a0, 0xd8(sp)
800024d4: 7552         	ld	a0, 0x130(sp)
800024d6: f9aa         	sd	a0, 0xf0(sp)
800024d8: 7532         	ld	a0, 0x128(sp)
800024da: f5aa         	sd	a0, 0xe8(sp)
800024dc: 6516         	ld	a0, 0x140(sp)
800024de: e22a         	sd	a0, 0x100(sp)
800024e0: 7572         	ld	a0, 0x138(sp)
800024e2: fdaa         	sd	a0, 0xf8(sp)
800024e4: 6556         	ld	a0, 0x150(sp)
800024e6: ea2a         	sd	a0, 0x110(sp)
800024e8: 6536         	ld	a0, 0x148(sp)
800024ea: e62a         	sd	a0, 0x108(sp)

00000000800024ec <.Lpcrel_hi199>:
800024ec: 00003517     	auipc	a0, 0x3
800024f0: c8850513     	addi	a0, a0, -0x378
800024f4: 09ac         	addi	a1, sp, 0xd8
800024f6: 00000097     	auipc	ra, 0x0
800024fa: 3dc080e7     	jalr	0x3dc(ra) <core::fmt::Arguments::new::h5923ff9fd825ca88>
800024fe: 00000097     	auipc	ra, 0x0
80002502: 5ca080e7     	jalr	0x5ca(ra) <lab4_kernel_task1::console::print::h54002e5355b05751>
80002506: fffff097     	auipc	ra, 0xfffff
8000250a: 940080e7     	jalr	-0x6c0(ra) <lab4_kernel_task1::user_code_page_pa::h406cdbb3f3d6d005>
8000250e: feaa         	sd	a0, 0x178(sp)
80002510: fffff097     	auipc	ra, 0xfffff
80002514: 940080e7     	jalr	-0x6c0(ra) <lab4_kernel_task1::user_data_page_pa::h1f203e8f4785de6c>
80002518: e32a         	sd	a0, 0x180(sp)
8000251a: fffff097     	auipc	ra, 0xfffff
8000251e: 9e2080e7     	jalr	-0x61e(ra) <lab4_kernel_task1::user_stack_page_pa::h0069fa8165aaef3d>
80002522: e72a         	sd	a0, 0x188(sp)
80002524: fffff097     	auipc	ra, 0xfffff
80002528: 8e8080e7     	jalr	-0x718(ra) <lab4_kernel_task1::user_program_len::h654d543e02e67df0>
8000252c: eb2a         	sd	a0, 0x190(sp)
8000252e: 1aa8         	addi	a0, sp, 0x178
80002530: eeaa         	sd	a0, 0x158(sp)
80002532: 0308         	addi	a0, sp, 0x180
80002534: f2aa         	sd	a0, 0x160(sp)
80002536: 0328         	addi	a0, sp, 0x188
80002538: f6aa         	sd	a0, 0x168(sp)
8000253a: 0b08         	addi	a0, sp, 0x190
8000253c: faaa         	sd	a0, 0x170(sp)
8000253e: 65f6         	ld	a1, 0x158(sp)
80002540: 0ba8         	addi	a0, sp, 0x1d8
80002542: ffffe097     	auipc	ra, 0xffffe
80002546: e00080e7     	jalr	-0x200(ra) <core::fmt::rt::Argument::new_lower_hex::hd4789b212b1113cd>
8000254a: 7596         	ld	a1, 0x160(sp)
8000254c: 13a8         	addi	a0, sp, 0x1e8
8000254e: ffffe097     	auipc	ra, 0xffffe
80002552: df4080e7     	jalr	-0x20c(ra) <core::fmt::rt::Argument::new_lower_hex::hd4789b212b1113cd>
80002556: 75b6         	ld	a1, 0x168(sp)
80002558: 1ba8         	addi	a0, sp, 0x1f8
8000255a: ffffe097     	auipc	ra, 0xffffe
8000255e: de8080e7     	jalr	-0x218(ra) <core::fmt::rt::Argument::new_lower_hex::hd4789b212b1113cd>
80002562: 75d6         	ld	a1, 0x170(sp)
80002564: 0428         	addi	a0, sp, 0x208
80002566: ffffe097     	auipc	ra, 0xffffe
8000256a: d32080e7     	jalr	-0x2ce(ra) <core::fmt::rt::Argument::new_display::h0cafb074541621a0>
8000256e: 751e         	ld	a0, 0x1e0(sp)
80002570: f32a         	sd	a0, 0x1a0(sp)
80002572: 657e         	ld	a0, 0x1d8(sp)
80002574: ef2a         	sd	a0, 0x198(sp)
80002576: 755e         	ld	a0, 0x1f0(sp)
80002578: fb2a         	sd	a0, 0x1b0(sp)
8000257a: 753e         	ld	a0, 0x1e8(sp)
8000257c: f72a         	sd	a0, 0x1a8(sp)
8000257e: 20013503     	ld	a0, 0x200(sp)
80002582: e3aa         	sd	a0, 0x1c0(sp)
80002584: 757e         	ld	a0, 0x1f8(sp)
80002586: ff2a         	sd	a0, 0x1b8(sp)
80002588: 21013503     	ld	a0, 0x210(sp)
8000258c: ebaa         	sd	a0, 0x1d0(sp)
8000258e: 20813503     	ld	a0, 0x208(sp)
80002592: e7aa         	sd	a0, 0x1c8(sp)

0000000080002594 <.Lpcrel_hi200>:
80002594: 00003517     	auipc	a0, 0x3
80002598: c2b50513     	addi	a0, a0, -0x3d5
8000259c: 0b2c         	addi	a1, sp, 0x198
8000259e: 00000097     	auipc	ra, 0x0
800025a2: 366080e7     	jalr	0x366(ra) <core::fmt::Arguments::new::h97dea8ef722544ac>
800025a6: 00000097     	auipc	ra, 0x0
800025aa: 522080e7     	jalr	0x522(ra) <lab4_kernel_task1::console::print::h54002e5355b05751>
800025ae: 4505         	li	a0, 0x1
800025b0: 01f51593     	slli	a1, a0, 0x1f
800025b4: e82e         	sd	a1, 0x10(sp)
800025b6: 0c28         	addi	a0, sp, 0x218
800025b8: ec2a         	sd	a0, 0x18(sp)
800025ba: ffffe097     	auipc	ra, 0xffffe
800025be: 44e080e7     	jalr	0x44e(ra) <lab4_kernel_task1::walk_virtual::h673833ad33696b21>
800025c2: 6642         	ld	a2, 0x10(sp)
800025c4: 66e2         	ld	a3, 0x18(sp)

00000000800025c6 <.Lpcrel_hi201>:
800025c6: 00003517     	auipc	a0, 0x3
800025ca: 92650513     	addi	a0, a0, -0x6da
800025ce: 45b1         	li	a1, 0xc
800025d0: ffffe097     	auipc	ra, 0xffffe
800025d4: 17e080e7     	jalr	0x17e(ra) <lab4_kernel_task1::print_walk::hde93fb214e4f5e87>
800025d8: 0ca8         	addi	a0, sp, 0x258
800025da: f42a         	sd	a0, 0x28(sp)
800025dc: 004005b7     	lui	a1, 0x400
800025e0: f02e         	sd	a1, 0x20(sp)
800025e2: ffffe097     	auipc	ra, 0xffffe
800025e6: 426080e7     	jalr	0x426(ra) <lab4_kernel_task1::walk_virtual::h673833ad33696b21>
800025ea: 7602         	ld	a2, 0x20(sp)
800025ec: 76a2         	ld	a3, 0x28(sp)

00000000800025ee <.Lpcrel_hi202>:
800025ee: 00003517     	auipc	a0, 0x3
800025f2: 90a50513     	addi	a0, a0, -0x6f6
800025f6: 45a5         	li	a1, 0x9
800025f8: f82e         	sd	a1, 0x30(sp)
800025fa: ffffe097     	auipc	ra, 0xffffe
800025fe: 154080e7     	jalr	0x154(ra) <lab4_kernel_task1::print_walk::hde93fb214e4f5e87>
80002602: 0d28         	addi	a0, sp, 0x298
80002604: e0aa         	sd	a0, 0x40(sp)
80002606: 004015b7     	lui	a1, 0x401
8000260a: fc2e         	sd	a1, 0x38(sp)
8000260c: ffffe097     	auipc	ra, 0xffffe
80002610: 3fc080e7     	jalr	0x3fc(ra) <lab4_kernel_task1::walk_virtual::h673833ad33696b21>
80002614: 75c2         	ld	a1, 0x30(sp)
80002616: 7662         	ld	a2, 0x38(sp)
80002618: 6686         	ld	a3, 0x40(sp)

000000008000261a <.Lpcrel_hi203>:
8000261a: 00003517     	auipc	a0, 0x3
8000261e: 8e750513     	addi	a0, a0, -0x719
80002622: ffffe097     	auipc	ra, 0xffffe
80002626: 12c080e7     	jalr	0x12c(ra) <lab4_kernel_task1::print_walk::hde93fb214e4f5e87>
8000262a: 0da8         	addi	a0, sp, 0x2d8
8000262c: e8aa         	sd	a0, 0x50(sp)
8000262e: 004025b7     	lui	a1, 0x402
80002632: e4ae         	sd	a1, 0x48(sp)
80002634: ffffe097     	auipc	ra, 0xffffe
80002638: 3d4080e7     	jalr	0x3d4(ra) <lab4_kernel_task1::walk_virtual::h673833ad33696b21>
8000263c: 6626         	ld	a2, 0x48(sp)
8000263e: 66c6         	ld	a3, 0x50(sp)

0000000080002640 <.Lpcrel_hi204>:
80002640: 00003517     	auipc	a0, 0x3
80002644: 8ca50513     	addi	a0, a0, -0x736
80002648: 45a9         	li	a1, 0xa
8000264a: ffffe097     	auipc	ra, 0xffffe
8000264e: 104080e7     	jalr	0x104(ra) <lab4_kernel_task1::print_walk::hde93fb214e4f5e87>
80002652: 65e6         	ld	a1, 0x58(sp)
80002654: 7506         	ld	a0, 0x60(sp)
80002656: 36b13423     	sd	a1, 0x368(sp)
8000265a: 36a13823     	sd	a0, 0x370(sp)
8000265e: 1e28         	addi	a0, sp, 0x338
80002660: ffffe097     	auipc	ra, 0xffffe
80002664: ce2080e7     	jalr	-0x31e(ra) <core::fmt::rt::Argument::new_lower_hex::hd4789b212b1113cd>
80002668: 7586         	ld	a1, 0x60(sp)
8000266a: 06a8         	addi	a0, sp, 0x348
8000266c: ffffe097     	auipc	ra, 0xffffe
80002670: cd6080e7     	jalr	-0x32a(ra) <core::fmt::rt::Argument::new_lower_hex::hd4789b212b1113cd>
80002674: 34013503     	ld	a0, 0x340(sp)
80002678: 32a13023     	sd	a0, 0x320(sp)
8000267c: 33813503     	ld	a0, 0x338(sp)
80002680: 30a13c23     	sd	a0, 0x318(sp)
80002684: 35013503     	ld	a0, 0x350(sp)
80002688: 32a13823     	sd	a0, 0x330(sp)
8000268c: 34813503     	ld	a0, 0x348(sp)
80002690: 32a13423     	sd	a0, 0x328(sp)

0000000080002694 <.Lpcrel_hi205>:
80002694: 00003517     	auipc	a0, 0x3
80002698: b8850513     	addi	a0, a0, -0x478
8000269c: 0e2c         	addi	a1, sp, 0x318
8000269e: 00000097     	auipc	ra, 0x0
800026a2: 220080e7     	jalr	0x220(ra) <core::fmt::Arguments::new::h3ad19411fa161186>
800026a6: 00000097     	auipc	ra, 0x0
800026aa: 422080e7     	jalr	0x422(ra) <lab4_kernel_task1::console::print::h54002e5355b05751>
800026ae: fffff097     	auipc	ra, 0xfffff
800026b2: 15c080e7     	jalr	0x15c(ra) <lab4_kernel_task1::supervisor_trap_stack_top::h24dc3ca1b15b432d>
800026b6: 14051073     	csrw	sscratch, a0
800026ba: fffff097     	auipc	ra, 0xfffff
800026be: 150080e7     	jalr	0x150(ra) <lab4_kernel_task1::supervisor_trap_stack_top::h24dc3ca1b15b432d>
800026c2: 85aa         	mv	a1, a0

00000000800026c4 <.Lpcrel_hi206>:
800026c4: 00004517     	auipc	a0, 0x4
800026c8: 93c50513     	addi	a0, a0, -0x6c4
800026cc: ffffe097     	auipc	ra, 0xffffe
800026d0: dca080e7     	jalr	-0x236(ra) <enter_user_task>

00000000800026d4 <.Lpcrel_hi207>:
800026d4: 00003517     	auipc	a0, 0x3
800026d8: a5c50513     	addi	a0, a0, -0x5a4
800026dc: 00002097     	auipc	ra, 0x2
800026e0: 94c080e7     	jalr	-0x6b4(ra) <core::panicking::panic_null_pointer_dereference::hbac6411af4f2e916>

00000000800026e4 <_$LT$core..result..Result$LT$T$C$F$GT$$u20$as$u20$core..ops..try_trait..FromResidual$LT$core..result..Result$LT$core..convert..Infallible$C$E$GT$$GT$$GT$::from_residual::hee8fcabe490c92a3>:
800026e4: 1141         	addi	sp, sp, -0x10
800026e6: 4505         	li	a0, 0x1
800026e8: 0141         	addi	sp, sp, 0x10
800026ea: 8082         	ret

00000000800026ec <_$LT$core..result..Result$LT$T$C$E$GT$$u20$as$u20$core..ops..try_trait..Try$GT$::branch::h2881ecf1dafbd420>:
800026ec: 1141         	addi	sp, sp, -0x10
800026ee: 00a10623     	sb	a0, 0xc(sp)
800026f2: 00c14503     	lbu	a0, 0xc(sp)
800026f6: 8905         	andi	a0, a0, 0x1
800026f8: c511         	beqz	a0, 0x80002704 <_$LT$core..result..Result$LT$T$C$E$GT$$u20$as$u20$core..ops..try_trait..Try$GT$::branch::h2881ecf1dafbd420+0x18>
800026fa: a009         	j	0x800026fc <_$LT$core..result..Result$LT$T$C$E$GT$$u20$as$u20$core..ops..try_trait..Try$GT$::branch::h2881ecf1dafbd420+0x10>
800026fc: 4505         	li	a0, 0x1
800026fe: 00a106a3     	sb	a0, 0xd(sp)
80002702: a029         	j	0x8000270c <_$LT$core..result..Result$LT$T$C$E$GT$$u20$as$u20$core..ops..try_trait..Try$GT$::branch::h2881ecf1dafbd420+0x20>
80002704: 4501         	li	a0, 0x0
80002706: 00a106a3     	sb	a0, 0xd(sp)
8000270a: a009         	j	0x8000270c <_$LT$core..result..Result$LT$T$C$E$GT$$u20$as$u20$core..ops..try_trait..Try$GT$::branch::h2881ecf1dafbd420+0x20>
8000270c: 00d14503     	lbu	a0, 0xd(sp)
80002710: 0141         	addi	sp, sp, 0x10
80002712: 8082         	ret

0000000080002714 <core::slice::raw::from_raw_parts::h927894bc2e4fc992>:
80002714: 7179         	addi	sp, sp, -0x30
80002716: f406         	sd	ra, 0x28(sp)
80002718: e032         	sd	a2, 0x0(sp)
8000271a: e42e         	sd	a1, 0x8(sp)
8000271c: e82a         	sd	a0, 0x10(sp)
8000271e: ec2a         	sd	a0, 0x18(sp)
80002720: f02e         	sd	a1, 0x20(sp)
80002722: a009         	j	0x80002724 <core::slice::raw::from_raw_parts::h927894bc2e4fc992+0x10>
80002724: 6702         	ld	a4, 0x0(sp)
80002726: 66a2         	ld	a3, 0x8(sp)
80002728: 6542         	ld	a0, 0x10(sp)
8000272a: 4605         	li	a2, 0x1
8000272c: 85b2         	mv	a1, a2
8000272e: 00000097     	auipc	ra, 0x0
80002732: 622080e7     	jalr	0x622(ra) <core::slice::raw::from_raw_parts::precondition_check::h3fe0dedbc1e371ea>
80002736: a009         	j	0x80002738 <core::slice::raw::from_raw_parts::h927894bc2e4fc992+0x24>
80002738: 65a2         	ld	a1, 0x8(sp)
8000273a: 6542         	ld	a0, 0x10(sp)
8000273c: 70a2         	ld	ra, 0x28(sp)
8000273e: 6145         	addi	sp, sp, 0x30
80002740: 8082         	ret

0000000080002742 <_$LT$$RF$T$u20$as$u20$core..fmt..Display$GT$::fmt::h3f315ecdd4ab704b>:
80002742: 1101         	addi	sp, sp, -0x20
80002744: ec06         	sd	ra, 0x18(sp)
80002746: e42a         	sd	a0, 0x8(sp)
80002748: e82e         	sd	a1, 0x10(sp)
8000274a: 6108         	ld	a0, 0x0(a0)
8000274c: 00002097     	auipc	ra, 0x2
80002750: 96a080e7     	jalr	-0x696(ra) <_$LT$core..panic..panic_info..PanicInfo$u20$as$u20$core..fmt..Display$GT$::fmt::hcccb3fed5b673506>
80002754: 60e2         	ld	ra, 0x18(sp)
80002756: 6105         	addi	sp, sp, 0x20
80002758: 8082         	ret

000000008000275a <core::array::iter::iter_inner::PolymorphicIter$LT$$u5b$core..mem..maybe_uninit..MaybeUninit$LT$T$GT$$u5d$$GT$::next::h25490633c1134ebb>:
8000275a: 7131         	addi	sp, sp, -0xc0
8000275c: fd06         	sd	ra, 0xb8(sp)
8000275e: ec2e         	sd	a1, 0x18(sp)
80002760: 85aa         	mv	a1, a0
80002762: 6562         	ld	a0, 0x18(sp)
80002764: f02e         	sd	a1, 0x20(sp)
80002766: f0ae         	sd	a1, 0x60(sp)
80002768: f4aa         	sd	a0, 0x68(sp)
8000276a: 4505         	li	a0, 0x1
8000276c: f8aa         	sd	a0, 0x70(sp)
8000276e: 6588         	ld	a0, 0x8(a1)
80002770: 618c         	ld	a1, 0x0(a1)
80002772: 8d0d         	sub	a0, a0, a1
80002774: e51d         	bnez	a0, 0x800027a2 <.Lpcrel_hi0+0x26>
80002776: a009         	j	0x80002778 <core::array::iter::iter_inner::PolymorphicIter$LT$$u5b$core..mem..maybe_uninit..MaybeUninit$LT$T$GT$$u5d$$GT$::next::h25490633c1134ebb+0x1e>
80002778: 6562         	ld	a0, 0x18(sp)
8000277a: 7582         	ld	a1, 0x20(sp)

000000008000277c <.Lpcrel_hi0>:
8000277c: 00002617     	auipc	a2, 0x2
80002780: 12460613     	addi	a2, a2, 0x124
80002784: 6214         	ld	a3, 0x0(a2)
80002786: 6610         	ld	a2, 0x8(a2)
80002788: f836         	sd	a3, 0x30(sp)
8000278a: fc32         	sd	a2, 0x38(sp)
8000278c: 05c1         	addi	a1, a1, 0x10
8000278e: e0ae         	sd	a1, 0x40(sp)
80002790: e4aa         	sd	a0, 0x48(sp)
80002792: 6586         	ld	a1, 0x40(sp)
80002794: 6526         	ld	a0, 0x48(sp)
80002796: e8ae         	sd	a1, 0x50(sp)
80002798: ecaa         	sd	a0, 0x58(sp)
8000279a: 00110537     	lui	a0, 0x110
8000279e: d62a         	sw	a0, 0x2c(sp)
800027a0: a031         	j	0x800027ac <.Lpcrel_hi0+0x30>
800027a2: 7502         	ld	a0, 0x20(sp)
800027a4: 6108         	ld	a0, 0x0(a0)
800027a6: e82a         	sd	a0, 0x10(sp)
800027a8: fcaa         	sd	a0, 0x78(sp)
800027aa: a029         	j	0x800027b4 <.Lpcrel_hi0+0x38>
800027ac: 5532         	lw	a0, 0x2c(sp)
800027ae: 70ea         	ld	ra, 0xb8(sp)
800027b0: 6129         	addi	sp, sp, 0xc0
800027b2: 8082         	ret
800027b4: 6542         	ld	a0, 0x10(sp)

00000000800027b6 <.Lpcrel_hi1>:
800027b6: 00003597     	auipc	a1, 0x3
800027ba: ab258613     	addi	a2, a1, -0x54e
800027be: 4585         	li	a1, 0x1
800027c0: 00000097     	auipc	ra, 0x0
800027c4: 454080e7     	jalr	0x454(ra) <core::num::_$LT$impl$u20$usize$GT$::unchecked_add::precondition_check::hc91bbbc1a98d97e9>
800027c8: a009         	j	0x800027ca <.Lpcrel_hi1+0x14>
800027ca: 6562         	ld	a0, 0x18(sp)
800027cc: 7582         	ld	a1, 0x20(sp)
800027ce: 6642         	ld	a2, 0x10(sp)
800027d0: 00160693     	addi	a3, a2, 0x1
800027d4: e194         	sd	a3, 0x0(a1)
800027d6: fc32         	sd	a2, 0x38(sp)
800027d8: 4605         	li	a2, 0x1
800027da: f832         	sd	a2, 0x30(sp)
800027dc: 05c1         	addi	a1, a1, 0x10
800027de: e0ae         	sd	a1, 0x40(sp)
800027e0: e4aa         	sd	a0, 0x48(sp)
800027e2: 6586         	ld	a1, 0x40(sp)
800027e4: 6526         	ld	a0, 0x48(sp)
800027e6: e8ae         	sd	a1, 0x50(sp)
800027e8: ecaa         	sd	a0, 0x58(sp)
800027ea: 7562         	ld	a0, 0x38(sp)
800027ec: e42a         	sd	a0, 0x8(sp)
800027ee: e12a         	sd	a0, 0x80(sp)
800027f0: 6586         	ld	a1, 0x40(sp)
800027f2: 6526         	ld	a0, 0x48(sp)
800027f4: e52e         	sd	a1, 0x88(sp)
800027f6: e92a         	sd	a0, 0x90(sp)
800027f8: 6586         	ld	a1, 0x40(sp)
800027fa: 6526         	ld	a0, 0x48(sp)
800027fc: ed2e         	sd	a1, 0x98(sp)
800027fe: f12a         	sd	a0, 0xa0(sp)
80002800: a009         	j	0x80002802 <.Lpcrel_hi1+0x4c>
80002802: 6522         	ld	a0, 0x8(sp)
80002804: 65a6         	ld	a1, 0x48(sp)

0000000080002806 <.Lpcrel_hi2>:
80002806: 00003617     	auipc	a2, 0x3
8000280a: a7a60613     	addi	a2, a2, -0x586
8000280e: ffffe097     	auipc	ra, 0xffffe
80002812: a36080e7     	jalr	-0x5ca(ra) <_$LT$usize$u20$as$u20$core..slice..index..SliceIndex$LT$$u5b$T$u5d$$GT$$GT$::get_unchecked::precondition_check::h5de7a599af21d523>
80002816: a009         	j	0x80002818 <.Lpcrel_hi2+0x12>
80002818: 65a2         	ld	a1, 0x8(sp)
8000281a: 6506         	ld	a0, 0x40(sp)
8000281c: 058a         	slli	a1, a1, 0x2
8000281e: 952e         	add	a0, a0, a1
80002820: f52a         	sd	a0, 0xa8(sp)
80002822: f92a         	sd	a0, 0xb0(sp)
80002824: 4108         	lw	a0, 0x0(a0)
80002826: d62a         	sw	a0, 0x2c(sp)
80002828: b751         	j	0x800027ac <.Lpcrel_hi0+0x30>

000000008000282a <_$LT$usize$u20$as$u20$core..iter..range..Step$GT$::forward_unchecked::h2e89fafb93465329>:
8000282a: 7179         	addi	sp, sp, -0x30
8000282c: f406         	sd	ra, 0x28(sp)
8000282e: e42e         	sd	a1, 0x8(sp)
80002830: e82a         	sd	a0, 0x10(sp)
80002832: ec2a         	sd	a0, 0x18(sp)
80002834: f02e         	sd	a1, 0x20(sp)
80002836: a009         	j	0x80002838 <_$LT$usize$u20$as$u20$core..iter..range..Step$GT$::forward_unchecked::h2e89fafb93465329+0xe>
80002838: 65a2         	ld	a1, 0x8(sp)
8000283a: 6542         	ld	a0, 0x10(sp)

000000008000283c <.Lpcrel_hi0>:
8000283c: 00003617     	auipc	a2, 0x3
80002840: a5c60613     	addi	a2, a2, -0x5a4
80002844: 00000097     	auipc	ra, 0x0
80002848: 3d0080e7     	jalr	0x3d0(ra) <core::num::_$LT$impl$u20$usize$GT$::unchecked_add::precondition_check::hc91bbbc1a98d97e9>
8000284c: a009         	j	0x8000284e <.Lpcrel_hi0+0x12>
8000284e: 6542         	ld	a0, 0x10(sp)
80002850: 65a2         	ld	a1, 0x8(sp)
80002852: 952e         	add	a0, a0, a1
80002854: 70a2         	ld	ra, 0x28(sp)
80002856: 6145         	addi	sp, sp, 0x30
80002858: 8082         	ret

000000008000285a <core::ptr::drop_in_place$LT$core..array..iter..IntoIter$LT$char$C$8_usize$GT$$GT$::h123c1795c2418da3>:
8000285a: 1141         	addi	sp, sp, -0x10
8000285c: e406         	sd	ra, 0x8(sp)
8000285e: e02a         	sd	a0, 0x0(sp)
80002860: 00000097     	auipc	ra, 0x0
80002864: 00e080e7     	jalr	0xe(ra) <_$LT$core..array..iter..IntoIter$LT$T$C$_$GT$$u20$as$u20$core..ops..drop..Drop$GT$::drop::h68366faa668d01b8>
80002868: 60a2         	ld	ra, 0x8(sp)
8000286a: 0141         	addi	sp, sp, 0x10
8000286c: 8082         	ret

000000008000286e <_$LT$core..array..iter..IntoIter$LT$T$C$_$GT$$u20$as$u20$core..ops..drop..Drop$GT$::drop::h68366faa668d01b8>:
8000286e: 1141         	addi	sp, sp, -0x10
80002870: e42a         	sd	a0, 0x8(sp)
80002872: a009         	j	0x80002874 <_$LT$core..array..iter..IntoIter$LT$T$C$_$GT$$u20$as$u20$core..ops..drop..Drop$GT$::drop::h68366faa668d01b8+0x6>
80002874: 0141         	addi	sp, sp, 0x10
80002876: 8082         	ret

0000000080002878 <_$LT$$RF$T$u20$as$u20$core..fmt..Display$GT$::fmt::h706813d2d27c4c39>:
80002878: 1101         	addi	sp, sp, -0x20
8000287a: ec06         	sd	ra, 0x18(sp)
8000287c: 862e         	mv	a2, a1
8000287e: 85aa         	mv	a1, a0
80002880: e42e         	sd	a1, 0x8(sp)
80002882: e832         	sd	a2, 0x10(sp)
80002884: 6188         	ld	a0, 0x0(a1)
80002886: 658c         	ld	a1, 0x8(a1)
80002888: 00001097     	auipc	ra, 0x1
8000288c: 89a080e7     	jalr	-0x766(ra) <_$LT$str$u20$as$u20$core..fmt..Display$GT$::fmt::h53474d83e2b0968b>
80002890: 60e2         	ld	ra, 0x18(sp)
80002892: 6105         	addi	sp, sp, 0x20
80002894: 8082         	ret

0000000080002896 <core::fmt::Arguments::new::h25a5d68ea53cad4b>:
80002896: 1141         	addi	sp, sp, -0x10
80002898: e02a         	sd	a0, 0x0(sp)
8000289a: e42e         	sd	a1, 0x8(sp)
8000289c: 0141         	addi	sp, sp, 0x10
8000289e: 8082         	ret

00000000800028a0 <core::fmt::Arguments::new::h27d484f1facd1a2a>:
800028a0: 1141         	addi	sp, sp, -0x10
800028a2: e02a         	sd	a0, 0x0(sp)
800028a4: e42e         	sd	a1, 0x8(sp)
800028a6: 0141         	addi	sp, sp, 0x10
800028a8: 8082         	ret

00000000800028aa <core::fmt::Arguments::new::h29f07845c18c10dd>:
800028aa: 1141         	addi	sp, sp, -0x10
800028ac: e02a         	sd	a0, 0x0(sp)
800028ae: e42e         	sd	a1, 0x8(sp)
800028b0: 0141         	addi	sp, sp, 0x10
800028b2: 8082         	ret

00000000800028b4 <core::fmt::Arguments::new::h2aa2a7d8db6bbec5>:
800028b4: 1141         	addi	sp, sp, -0x10
800028b6: e02a         	sd	a0, 0x0(sp)
800028b8: e42e         	sd	a1, 0x8(sp)
800028ba: 0141         	addi	sp, sp, 0x10
800028bc: 8082         	ret

00000000800028be <core::fmt::Arguments::new::h3ad19411fa161186>:
800028be: 1141         	addi	sp, sp, -0x10
800028c0: e02a         	sd	a0, 0x0(sp)
800028c2: e42e         	sd	a1, 0x8(sp)
800028c4: 0141         	addi	sp, sp, 0x10
800028c6: 8082         	ret

00000000800028c8 <core::fmt::Arguments::new::h40e57ee2df30623a>:
800028c8: 1141         	addi	sp, sp, -0x10
800028ca: e02a         	sd	a0, 0x0(sp)
800028cc: e42e         	sd	a1, 0x8(sp)
800028ce: 0141         	addi	sp, sp, 0x10
800028d0: 8082         	ret

00000000800028d2 <core::fmt::Arguments::new::h5923ff9fd825ca88>:
800028d2: 1141         	addi	sp, sp, -0x10
800028d4: e02a         	sd	a0, 0x0(sp)
800028d6: e42e         	sd	a1, 0x8(sp)
800028d8: 0141         	addi	sp, sp, 0x10
800028da: 8082         	ret

00000000800028dc <core::fmt::Arguments::new::h76002ae15619ddcf>:
800028dc: 1141         	addi	sp, sp, -0x10
800028de: e02a         	sd	a0, 0x0(sp)
800028e0: e42e         	sd	a1, 0x8(sp)
800028e2: 0141         	addi	sp, sp, 0x10
800028e4: 8082         	ret

00000000800028e6 <core::fmt::Arguments::new::h78dba5740ef478a4>:
800028e6: 1141         	addi	sp, sp, -0x10
800028e8: e02a         	sd	a0, 0x0(sp)
800028ea: e42e         	sd	a1, 0x8(sp)
800028ec: 0141         	addi	sp, sp, 0x10
800028ee: 8082         	ret

00000000800028f0 <core::fmt::Arguments::new::h8a346e4210362cf3>:
800028f0: 1141         	addi	sp, sp, -0x10
800028f2: e02a         	sd	a0, 0x0(sp)
800028f4: e42e         	sd	a1, 0x8(sp)
800028f6: 0141         	addi	sp, sp, 0x10
800028f8: 8082         	ret

00000000800028fa <core::fmt::Arguments::new::h8f552c598e9d970f>:
800028fa: 1141         	addi	sp, sp, -0x10
800028fc: e02a         	sd	a0, 0x0(sp)
800028fe: e42e         	sd	a1, 0x8(sp)
80002900: 0141         	addi	sp, sp, 0x10
80002902: 8082         	ret

0000000080002904 <core::fmt::Arguments::new::h97dea8ef722544ac>:
80002904: 1141         	addi	sp, sp, -0x10
80002906: e02a         	sd	a0, 0x0(sp)
80002908: e42e         	sd	a1, 0x8(sp)
8000290a: 0141         	addi	sp, sp, 0x10
8000290c: 8082         	ret

000000008000290e <core::fmt::Arguments::new::ha9b12884cc2e717e>:
8000290e: 1141         	addi	sp, sp, -0x10
80002910: e02a         	sd	a0, 0x0(sp)
80002912: e42e         	sd	a1, 0x8(sp)
80002914: 0141         	addi	sp, sp, 0x10
80002916: 8082         	ret

0000000080002918 <core::fmt::Arguments::new::hc7bc65e54949f6e9>:
80002918: 1141         	addi	sp, sp, -0x10
8000291a: e02a         	sd	a0, 0x0(sp)
8000291c: e42e         	sd	a1, 0x8(sp)
8000291e: 0141         	addi	sp, sp, 0x10
80002920: 8082         	ret

0000000080002922 <core::ptr::write_bytes::precondition_check::h7b24ece26ed76dc9>:
80002922: 715d         	addi	sp, sp, -0x50
80002924: e486         	sd	ra, 0x48(sp)
80002926: e436         	sd	a3, 0x8(sp)
80002928: e82a         	sd	a0, 0x10(sp)
8000292a: 86b2         	mv	a3, a2
8000292c: ec36         	sd	a3, 0x18(sp)
8000292e: f02a         	sd	a0, 0x20(sp)
80002930: f42e         	sd	a1, 0x28(sp)
80002932: 02c10ba3     	sb	a2, 0x37(sp)
80002936: 00000097     	auipc	ra, 0x0
8000293a: 378080e7     	jalr	0x378(ra) <core::ptr::const_ptr::_$LT$impl$u20$$BP$const$u20$T$GT$::is_aligned_to::h085bb4a4f00761c0>
8000293e: e119         	bnez	a0, 0x80002944 <core::ptr::write_bytes::precondition_check::h7b24ece26ed76dc9+0x22>
80002940: a009         	j	0x80002942 <core::ptr::write_bytes::precondition_check::h7b24ece26ed76dc9+0x20>
80002942: a029         	j	0x8000294c <core::ptr::write_bytes::precondition_check::h7b24ece26ed76dc9+0x2a>
80002944: 6562         	ld	a0, 0x18(sp)
80002946: 8905         	andi	a0, a0, 0x1
80002948: e50d         	bnez	a0, 0x80002972 <.Lpcrel_hi0+0x24>
8000294a: a00d         	j	0x8000296c <.Lpcrel_hi0+0x1e>
8000294c: 66a2         	ld	a3, 0x8(sp)

000000008000294e <.Lpcrel_hi0>:
8000294e: 00003517     	auipc	a0, 0x3
80002952: 96250513     	addi	a0, a0, -0x69e
80002956: fc2a         	sd	a0, 0x38(sp)
80002958: 0e400593     	li	a1, 0xe4
8000295c: e0ae         	sd	a1, 0x40(sp)
8000295e: 1c900593     	li	a1, 0x1c9
80002962: 4601         	li	a2, 0x0
80002964: 00001097     	auipc	ra, 0x1
80002968: 694080e7     	jalr	0x694(ra) <core::panicking::panic_nounwind_fmt::h2e018e50a8d3bc73>
8000296c: 6542         	ld	a0, 0x10(sp)
8000296e: e119         	bnez	a0, 0x80002974 <.Lpcrel_hi0+0x26>
80002970: bff1         	j	0x8000294c <core::ptr::write_bytes::precondition_check::h7b24ece26ed76dc9+0x2a>
80002972: a009         	j	0x80002974 <.Lpcrel_hi0+0x26>
80002974: 60a6         	ld	ra, 0x48(sp)
80002976: 6161         	addi	sp, sp, 0x50
80002978: 8082         	ret

000000008000297a <core::ptr::write_volatile::precondition_check::hf023a0a87c97d1b5>:
8000297a: 7139         	addi	sp, sp, -0x40
8000297c: fc06         	sd	ra, 0x38(sp)
8000297e: e432         	sd	a2, 0x8(sp)
80002980: e82a         	sd	a0, 0x10(sp)
80002982: ec2e         	sd	a1, 0x18(sp)
80002984: f02a         	sd	a0, 0x20(sp)
80002986: 00000097     	auipc	ra, 0x0
8000298a: 328080e7     	jalr	0x328(ra) <core::ptr::const_ptr::_$LT$impl$u20$$BP$const$u20$T$GT$::is_aligned_to::h085bb4a4f00761c0>
8000298e: e115         	bnez	a0, 0x800029b2 <.Lpcrel_hi1+0x1e>
80002990: a009         	j	0x80002992 <core::ptr::write_volatile::precondition_check::hf023a0a87c97d1b5+0x18>
80002992: 66a2         	ld	a3, 0x8(sp)

0000000080002994 <.Lpcrel_hi1>:
80002994: 00003517     	auipc	a0, 0x3
80002998: a0050513     	addi	a0, a0, -0x600
8000299c: f42a         	sd	a0, 0x28(sp)
8000299e: 0d700593     	li	a1, 0xd7
800029a2: f82e         	sd	a1, 0x30(sp)
800029a4: 1af00593     	li	a1, 0x1af
800029a8: 4601         	li	a2, 0x0
800029aa: 00001097     	auipc	ra, 0x1
800029ae: 64e080e7     	jalr	0x64e(ra) <core::panicking::panic_nounwind_fmt::h2e018e50a8d3bc73>
800029b2: 70e2         	ld	ra, 0x38(sp)
800029b4: 6121         	addi	sp, sp, 0x40
800029b6: 8082         	ret

00000000800029b8 <core::ptr::copy_nonoverlapping::precondition_check::h4edec1975839ce07>:
800029b8: 7175         	addi	sp, sp, -0x90
800029ba: e506         	sd	ra, 0x88(sp)
800029bc: e43e         	sd	a5, 0x8(sp)
800029be: e83a         	sd	a4, 0x10(sp)
800029c0: ec36         	sd	a3, 0x18(sp)
800029c2: f032         	sd	a2, 0x20(sp)
800029c4: f42e         	sd	a1, 0x28(sp)
800029c6: f82a         	sd	a0, 0x30(sp)
800029c8: e0aa         	sd	a0, 0x40(sp)
800029ca: e4ae         	sd	a1, 0x48(sp)
800029cc: e8b2         	sd	a2, 0x50(sp)
800029ce: ecb6         	sd	a3, 0x58(sp)
800029d0: f0ba         	sd	a4, 0x60(sp)
800029d2: e711         	bnez	a4, 0x800029de <core::ptr::copy_nonoverlapping::precondition_check::h4edec1975839ce07+0x26>
800029d4: a009         	j	0x800029d6 <core::ptr::copy_nonoverlapping::precondition_check::h4edec1975839ce07+0x1e>
800029d6: 4505         	li	a0, 0x1
800029d8: 02a10fa3     	sb	a0, 0x3f(sp)
800029dc: a039         	j	0x800029ea <core::ptr::copy_nonoverlapping::precondition_check::h4edec1975839ce07+0x32>
800029de: 7502         	ld	a0, 0x20(sp)
800029e0: 00153513     	seqz	a0, a0
800029e4: 02a10fa3     	sb	a0, 0x3f(sp)
800029e8: a009         	j	0x800029ea <core::ptr::copy_nonoverlapping::precondition_check::h4edec1975839ce07+0x32>
800029ea: 65e2         	ld	a1, 0x18(sp)
800029ec: 7542         	ld	a0, 0x30(sp)
800029ee: 03f14603     	lbu	a2, 0x3f(sp)
800029f2: e032         	sd	a2, 0x0(sp)
800029f4: 06c107a3     	sb	a2, 0x6f(sp)
800029f8: 00000097     	auipc	ra, 0x0
800029fc: 2b6080e7     	jalr	0x2b6(ra) <core::ptr::const_ptr::_$LT$impl$u20$$BP$const$u20$T$GT$::is_aligned_to::h085bb4a4f00761c0>
80002a00: e119         	bnez	a0, 0x80002a06 <core::ptr::copy_nonoverlapping::precondition_check::h4edec1975839ce07+0x4e>
80002a02: a009         	j	0x80002a04 <core::ptr::copy_nonoverlapping::precondition_check::h4edec1975839ce07+0x4c>
80002a04: a029         	j	0x80002a0e <core::ptr::copy_nonoverlapping::precondition_check::h4edec1975839ce07+0x56>
80002a06: 6502         	ld	a0, 0x0(sp)
80002a08: 8905         	andi	a0, a0, 0x1
80002a0a: e511         	bnez	a0, 0x80002a16 <core::ptr::copy_nonoverlapping::precondition_check::h4edec1975839ce07+0x5e>
80002a0c: a011         	j	0x80002a10 <core::ptr::copy_nonoverlapping::precondition_check::h4edec1975839ce07+0x58>
80002a0e: a831         	j	0x80002a2a <core::ptr::copy_nonoverlapping::precondition_check::h4edec1975839ce07+0x72>
80002a10: 7542         	ld	a0, 0x30(sp)
80002a12: e119         	bnez	a0, 0x80002a18 <core::ptr::copy_nonoverlapping::precondition_check::h4edec1975839ce07+0x60>
80002a14: bfed         	j	0x80002a0e <core::ptr::copy_nonoverlapping::precondition_check::h4edec1975839ce07+0x56>
80002a16: a009         	j	0x80002a18 <core::ptr::copy_nonoverlapping::precondition_check::h4edec1975839ce07+0x60>
80002a18: 65e2         	ld	a1, 0x18(sp)
80002a1a: 7522         	ld	a0, 0x28(sp)
80002a1c: f8aa         	sd	a0, 0x70(sp)
80002a1e: 00000097     	auipc	ra, 0x0
80002a22: 290080e7     	jalr	0x290(ra) <core::ptr::const_ptr::_$LT$impl$u20$$BP$const$u20$T$GT$::is_aligned_to::h085bb4a4f00761c0>
80002a26: e501         	bnez	a0, 0x80002a2e <core::ptr::copy_nonoverlapping::precondition_check::h4edec1975839ce07+0x76>
80002a28: a011         	j	0x80002a2c <core::ptr::copy_nonoverlapping::precondition_check::h4edec1975839ce07+0x74>
80002a2a: a035         	j	0x80002a56 <core::ptr::copy_nonoverlapping::precondition_check::h4edec1975839ce07+0x9e>
80002a2c: a031         	j	0x80002a38 <core::ptr::copy_nonoverlapping::precondition_check::h4edec1975839ce07+0x80>
80002a2e: 03f14503     	lbu	a0, 0x3f(sp)
80002a32: 8905         	andi	a0, a0, 0x1
80002a34: e511         	bnez	a0, 0x80002a40 <core::ptr::copy_nonoverlapping::precondition_check::h4edec1975839ce07+0x88>
80002a36: a011         	j	0x80002a3a <core::ptr::copy_nonoverlapping::precondition_check::h4edec1975839ce07+0x82>
80002a38: bfcd         	j	0x80002a2a <core::ptr::copy_nonoverlapping::precondition_check::h4edec1975839ce07+0x72>
80002a3a: 7522         	ld	a0, 0x28(sp)
80002a3c: e119         	bnez	a0, 0x80002a42 <core::ptr::copy_nonoverlapping::precondition_check::h4edec1975839ce07+0x8a>
80002a3e: bfed         	j	0x80002a38 <core::ptr::copy_nonoverlapping::precondition_check::h4edec1975839ce07+0x80>
80002a40: a009         	j	0x80002a42 <core::ptr::copy_nonoverlapping::precondition_check::h4edec1975839ce07+0x8a>
80002a42: 66c2         	ld	a3, 0x10(sp)
80002a44: 7602         	ld	a2, 0x20(sp)
80002a46: 75a2         	ld	a1, 0x28(sp)
80002a48: 7542         	ld	a0, 0x30(sp)
80002a4a: ffffd097     	auipc	ra, 0xffffd
80002a4e: 5c8080e7     	jalr	0x5c8(ra) <core::ub_checks::maybe_is_nonoverlapping::runtime::h5a2912b89302ddd3>
80002a52: e115         	bnez	a0, 0x80002a76 <.Lpcrel_hi2+0x1e>
80002a54: a009         	j	0x80002a56 <core::ptr::copy_nonoverlapping::precondition_check::h4edec1975839ce07+0x9e>
80002a56: 66a2         	ld	a3, 0x8(sp)

0000000080002a58 <.Lpcrel_hi2>:
80002a58: 00003517     	auipc	a0, 0x3
80002a5c: a1350513     	addi	a0, a0, -0x5ed
80002a60: fcaa         	sd	a0, 0x78(sp)
80002a62: 11b00593     	li	a1, 0x11b
80002a66: e12e         	sd	a1, 0x80(sp)
80002a68: 23700593     	li	a1, 0x237
80002a6c: 4601         	li	a2, 0x0
80002a6e: 00001097     	auipc	ra, 0x1
80002a72: 58a080e7     	jalr	0x58a(ra) <core::panicking::panic_nounwind_fmt::h2e018e50a8d3bc73>
80002a76: 60aa         	ld	ra, 0x88(sp)
80002a78: 6149         	addi	sp, sp, 0x90
80002a7a: 8082         	ret

0000000080002a7c <lab4_kernel_task1::console::write_byte::he2afd384dc0ef8c9>:
80002a7c: 1101         	addi	sp, sp, -0x20
80002a7e: ec06         	sd	ra, 0x18(sp)
80002a80: 85aa         	mv	a1, a0
80002a82: e42e         	sd	a1, 0x8(sp)
80002a84: 00a10ba3     	sb	a0, 0x17(sp)
80002a88: 45a9         	li	a1, 0xa
80002a8a: 02b50363     	beq	a0, a1, 0x80002ab0 <.Lpcrel_hi1>
80002a8e: a009         	j	0x80002a90 <lab4_kernel_task1::console::write_byte::he2afd384dc0ef8c9+0x14>
80002a90: 6522         	ld	a0, 0x8(sp)
80002a92: 0ff57593     	zext.b	a1, a0

0000000080002a96 <.Lpcrel_hi0>:
80002a96: 00003517     	auipc	a0, 0x3
80002a9a: b0a50613     	addi	a2, a0, -0x4f6
80002a9e: 10000537     	lui	a0, 0x10000
80002aa2: 00000097     	auipc	ra, 0x0
80002aa6: 1da080e7     	jalr	0x1da(ra) <core::ptr::write_volatile::hd5acb92038b324cb>
80002aaa: 60e2         	ld	ra, 0x18(sp)
80002aac: 6105         	addi	sp, sp, 0x20
80002aae: 8082         	ret

0000000080002ab0 <.Lpcrel_hi1>:
80002ab0: 00003517     	auipc	a0, 0x3
80002ab4: ad850613     	addi	a2, a0, -0x528
80002ab8: 10000537     	lui	a0, 0x10000
80002abc: 45b5         	li	a1, 0xd
80002abe: 00000097     	auipc	ra, 0x0
80002ac2: 1be080e7     	jalr	0x1be(ra) <core::ptr::write_volatile::hd5acb92038b324cb>
80002ac6: b7e9         	j	0x80002a90 <lab4_kernel_task1::console::write_byte::he2afd384dc0ef8c9+0x14>

0000000080002ac8 <lab4_kernel_task1::console::print::h54002e5355b05751>:
80002ac8: 7179         	addi	sp, sp, -0x30
80002aca: f406         	sd	ra, 0x28(sp)
80002acc: 862e         	mv	a2, a1
80002ace: 85aa         	mv	a1, a0
80002ad0: e82e         	sd	a1, 0x10(sp)
80002ad2: ec32         	sd	a2, 0x18(sp)
80002ad4: 00f10513     	addi	a0, sp, 0xf
80002ad8: ffffe097     	auipc	ra, 0xffffe
80002adc: 8cc080e7     	jalr	-0x734(ra) <core::fmt::Write::write_fmt::ha021e4ca7039adf9>
80002ae0: 70a2         	ld	ra, 0x28(sp)
80002ae2: 6145         	addi	sp, sp, 0x30
80002ae4: 8082         	ret

0000000080002ae6 <_$LT$lab4_kernel_task1..console..KernelConsole$u20$as$u20$core..fmt..Write$GT$::write_str::hccc695331ce431ef>:
80002ae6: 715d         	addi	sp, sp, -0x50
80002ae8: e486         	sd	ra, 0x48(sp)
80002aea: e032         	sd	a2, 0x0(sp)
80002aec: 862e         	mv	a2, a1
80002aee: 6582         	ld	a1, 0x0(sp)
80002af0: e432         	sd	a2, 0x8(sp)
80002af2: 862a         	mv	a2, a0
80002af4: 6522         	ld	a0, 0x8(sp)
80002af6: f432         	sd	a2, 0x28(sp)
80002af8: f82a         	sd	a0, 0x30(sp)
80002afa: fc2e         	sd	a1, 0x38(sp)
80002afc: ffffd097     	auipc	ra, 0xffffd
80002b00: 594080e7     	jalr	0x594(ra) <core::str::_$LT$impl$u20$str$GT$::bytes::h0bc3828a91e3f8b7>
80002b04: 00000097     	auipc	ra, 0x0
80002b08: 614080e7     	jalr	0x614(ra) <_$LT$I$u20$as$u20$core..iter..traits..collect..IntoIterator$GT$::into_iter::h27d509497879be1a>
80002b0c: e82a         	sd	a0, 0x10(sp)
80002b0e: ec2e         	sd	a1, 0x18(sp)
80002b10: a009         	j	0x80002b12 <_$LT$lab4_kernel_task1..console..KernelConsole$u20$as$u20$core..fmt..Write$GT$::write_str::hccc695331ce431ef+0x2c>
80002b12: 0808         	addi	a0, sp, 0x10
80002b14: ffffe097     	auipc	ra, 0xffffe
80002b18: 906080e7     	jalr	-0x6fa(ra) <_$LT$core..str..iter..Bytes$u20$as$u20$core..iter..traits..iterator..Iterator$GT$::next::h137a59da96abe29a>
80002b1c: 8905         	andi	a0, a0, 0x1
80002b1e: 02a10323     	sb	a0, 0x26(sp)
80002b22: 02b103a3     	sb	a1, 0x27(sp)
80002b26: 02614503     	lbu	a0, 0x26(sp)
80002b2a: 8905         	andi	a0, a0, 0x1
80002b2c: c919         	beqz	a0, 0x80002b42 <_$LT$lab4_kernel_task1..console..KernelConsole$u20$as$u20$core..fmt..Write$GT$::write_str::hccc695331ce431ef+0x5c>
80002b2e: a009         	j	0x80002b30 <_$LT$lab4_kernel_task1..console..KernelConsole$u20$as$u20$core..fmt..Write$GT$::write_str::hccc695331ce431ef+0x4a>
80002b30: 02714503     	lbu	a0, 0x27(sp)
80002b34: 04a103a3     	sb	a0, 0x47(sp)
80002b38: 00000097     	auipc	ra, 0x0
80002b3c: f44080e7     	jalr	-0xbc(ra) <lab4_kernel_task1::console::write_byte::he2afd384dc0ef8c9>
80002b40: bfc9         	j	0x80002b12 <_$LT$lab4_kernel_task1..console..KernelConsole$u20$as$u20$core..fmt..Write$GT$::write_str::hccc695331ce431ef+0x2c>
80002b42: 4501         	li	a0, 0x0
80002b44: 60a6         	ld	ra, 0x48(sp)
80002b46: 6161         	addi	sp, sp, 0x50
80002b48: 8082         	ret

0000000080002b4a <core::array::iter::_$LT$impl$u20$core..iter..traits..collect..IntoIterator$u20$for$u20$$u5b$T$u3b$$u20$N$u5d$$GT$::into_iter::h0560100c973f9b9f>:
80002b4a: 7131         	addi	sp, sp, -0xc0
80002b4c: e42e         	sd	a1, 0x8(sp)
80002b4e: 85aa         	mv	a1, a0
80002b50: 6522         	ld	a0, 0x8(sp)
80002b52: 01856683     	lwu	a3, 0x18(a0)
80002b56: 01c56603     	lwu	a2, 0x1c(a0)
80002b5a: 1602         	slli	a2, a2, 0x20
80002b5c: 8e55         	or	a2, a2, a3
80002b5e: f432         	sd	a2, 0x28(sp)
80002b60: 01056683     	lwu	a3, 0x10(a0)
80002b64: 01456603     	lwu	a2, 0x14(a0)
80002b68: 1602         	slli	a2, a2, 0x20
80002b6a: 8e55         	or	a2, a2, a3
80002b6c: f032         	sd	a2, 0x20(sp)
80002b6e: 00856683     	lwu	a3, 0x8(a0)
80002b72: 00c56603     	lwu	a2, 0xc(a0)
80002b76: 1602         	slli	a2, a2, 0x20
80002b78: 8e55         	or	a2, a2, a3
80002b7a: ec32         	sd	a2, 0x18(sp)
80002b7c: 00056603     	lwu	a2, 0x0(a0)
80002b80: 00456503     	lwu	a0, 0x4(a0)
80002b84: 1502         	slli	a0, a0, 0x20
80002b86: 8d51         	or	a0, a0, a2
80002b88: e82a         	sd	a0, 0x10(sp)
80002b8a: 4501         	li	a0, 0x0
80002b8c: f82a         	sd	a0, 0x30(sp)
80002b8e: 4521         	li	a0, 0x8
80002b90: fc2a         	sd	a0, 0x38(sp)
80002b92: 5532         	lw	a0, 0x2c(sp)
80002b94: ceaa         	sw	a0, 0x5c(sp)
80002b96: 5522         	lw	a0, 0x28(sp)
80002b98: ccaa         	sw	a0, 0x58(sp)
80002b9a: 5512         	lw	a0, 0x24(sp)
80002b9c: caaa         	sw	a0, 0x54(sp)
80002b9e: 5502         	lw	a0, 0x20(sp)
80002ba0: c8aa         	sw	a0, 0x50(sp)
80002ba2: 4572         	lw	a0, 0x1c(sp)
80002ba4: c6aa         	sw	a0, 0x4c(sp)
80002ba6: 4562         	lw	a0, 0x18(sp)
80002ba8: c4aa         	sw	a0, 0x48(sp)
80002baa: 4552         	lw	a0, 0x14(sp)
80002bac: c2aa         	sw	a0, 0x44(sp)
80002bae: 4542         	lw	a0, 0x10(sp)
80002bb0: c0aa         	sw	a0, 0x40(sp)
80002bb2: 6566         	ld	a0, 0x58(sp)
80002bb4: fd2a         	sd	a0, 0xb8(sp)
80002bb6: 6546         	ld	a0, 0x50(sp)
80002bb8: f92a         	sd	a0, 0xb0(sp)
80002bba: 6526         	ld	a0, 0x48(sp)
80002bbc: f52a         	sd	a0, 0xa8(sp)
80002bbe: 6506         	ld	a0, 0x40(sp)
80002bc0: f12a         	sd	a0, 0xa0(sp)
80002bc2: 7562         	ld	a0, 0x38(sp)
80002bc4: ed2a         	sd	a0, 0x98(sp)
80002bc6: 7542         	ld	a0, 0x30(sp)
80002bc8: e92a         	sd	a0, 0x90(sp)
80002bca: 756a         	ld	a0, 0xb8(sp)
80002bcc: e52a         	sd	a0, 0x88(sp)
80002bce: 754a         	ld	a0, 0xb0(sp)
80002bd0: e12a         	sd	a0, 0x80(sp)
80002bd2: 752a         	ld	a0, 0xa8(sp)
80002bd4: fcaa         	sd	a0, 0x78(sp)
80002bd6: 750a         	ld	a0, 0xa0(sp)
80002bd8: f8aa         	sd	a0, 0x70(sp)
80002bda: 656a         	ld	a0, 0x98(sp)
80002bdc: f4aa         	sd	a0, 0x68(sp)
80002bde: 654a         	ld	a0, 0x90(sp)
80002be0: f0aa         	sd	a0, 0x60(sp)
80002be2: 652a         	ld	a0, 0x88(sp)
80002be4: f588         	sd	a0, 0x28(a1)
80002be6: 650a         	ld	a0, 0x80(sp)
80002be8: f188         	sd	a0, 0x20(a1)
80002bea: 7566         	ld	a0, 0x78(sp)
80002bec: ed88         	sd	a0, 0x18(a1)
80002bee: 7546         	ld	a0, 0x70(sp)
80002bf0: e988         	sd	a0, 0x10(a1)
80002bf2: 7526         	ld	a0, 0x68(sp)
80002bf4: e588         	sd	a0, 0x8(a1)
80002bf6: 7506         	ld	a0, 0x60(sp)
80002bf8: e188         	sd	a0, 0x0(a1)
80002bfa: 6129         	addi	sp, sp, 0xc0
80002bfc: 8082         	ret

0000000080002bfe <_$LT$core..array..iter..IntoIter$LT$T$C$_$GT$$u20$as$u20$core..iter..traits..iterator..Iterator$GT$::next::hc6ab37d081e3c5d3>:
80002bfe: 1141         	addi	sp, sp, -0x10
80002c00: e406         	sd	ra, 0x8(sp)
80002c02: e02a         	sd	a0, 0x0(sp)
80002c04: 45a1         	li	a1, 0x8
80002c06: 00000097     	auipc	ra, 0x0
80002c0a: b54080e7     	jalr	-0x4ac(ra) <core::array::iter::iter_inner::PolymorphicIter$LT$$u5b$core..mem..maybe_uninit..MaybeUninit$LT$T$GT$$u5d$$GT$::next::h25490633c1134ebb>
80002c0e: 60a2         	ld	ra, 0x8(sp)
80002c10: 0141         	addi	sp, sp, 0x10
80002c12: 8082         	ret

0000000080002c14 <core::num::_$LT$impl$u20$usize$GT$::unchecked_add::precondition_check::hc91bbbc1a98d97e9>:
80002c14: 7179         	addi	sp, sp, -0x30
80002c16: e032         	sd	a2, 0x0(sp)
80002c18: e42e         	sd	a1, 0x8(sp)
80002c1a: 85aa         	mv	a1, a0
80002c1c: 6522         	ld	a0, 0x8(sp)
80002c1e: e82e         	sd	a1, 0x10(sp)
80002c20: ec2a         	sd	a0, 0x18(sp)
80002c22: 952e         	add	a0, a0, a1
80002c24: 00b56563     	bltu	a0, a1, 0x80002c2e <core::num::_$LT$impl$u20$usize$GT$::unchecked_add::precondition_check::hc91bbbc1a98d97e9+0x1a>
80002c28: a009         	j	0x80002c2a <core::num::_$LT$impl$u20$usize$GT$::unchecked_add::precondition_check::hc91bbbc1a98d97e9+0x16>
80002c2a: 6145         	addi	sp, sp, 0x30
80002c2c: 8082         	ret
80002c2e: 6682         	ld	a3, 0x0(sp)

0000000080002c30 <.Lpcrel_hi0>:
80002c30: 00003517     	auipc	a0, 0x3
80002c34: 98850513     	addi	a0, a0, -0x678
80002c38: f02a         	sd	a0, 0x20(sp)
80002c3a: 0ba00593     	li	a1, 0xba
80002c3e: f42e         	sd	a1, 0x28(sp)
80002c40: 17500593     	li	a1, 0x175
80002c44: 4601         	li	a2, 0x0
80002c46: 00001097     	auipc	ra, 0x1
80002c4a: 3b2080e7     	jalr	0x3b2(ra) <core::panicking::panic_nounwind_fmt::h2e018e50a8d3bc73>

0000000080002c4e <core::ptr::write_volatile::h1ad655597468f1bb>:
80002c4e: 7179         	addi	sp, sp, -0x30
80002c50: f406         	sd	ra, 0x28(sp)
80002c52: e032         	sd	a2, 0x0(sp)
80002c54: e42a         	sd	a0, 0x8(sp)
80002c56: 862e         	mv	a2, a1
80002c58: e832         	sd	a2, 0x10(sp)
80002c5a: ec2a         	sd	a0, 0x18(sp)
80002c5c: d22e         	sw	a1, 0x24(sp)
80002c5e: a009         	j	0x80002c60 <core::ptr::write_volatile::h1ad655597468f1bb+0x12>
80002c60: 6602         	ld	a2, 0x0(sp)
80002c62: 6522         	ld	a0, 0x8(sp)
80002c64: 4591         	li	a1, 0x4
80002c66: 00000097     	auipc	ra, 0x0
80002c6a: d14080e7     	jalr	-0x2ec(ra) <core::ptr::write_volatile::precondition_check::hf023a0a87c97d1b5>
80002c6e: a009         	j	0x80002c70 <core::ptr::write_volatile::h1ad655597468f1bb+0x22>
80002c70: 6542         	ld	a0, 0x10(sp)
80002c72: 65a2         	ld	a1, 0x8(sp)
80002c74: c188         	sw	a0, 0x0(a1)
80002c76: 70a2         	ld	ra, 0x28(sp)
80002c78: 6145         	addi	sp, sp, 0x30
80002c7a: 8082         	ret

0000000080002c7c <core::ptr::write_volatile::hd5acb92038b324cb>:
80002c7c: 7179         	addi	sp, sp, -0x30
80002c7e: f406         	sd	ra, 0x28(sp)
80002c80: e032         	sd	a2, 0x0(sp)
80002c82: e42a         	sd	a0, 0x8(sp)
80002c84: 862e         	mv	a2, a1
80002c86: e832         	sd	a2, 0x10(sp)
80002c88: ec2a         	sd	a0, 0x18(sp)
80002c8a: 02b103a3     	sb	a1, 0x27(sp)
80002c8e: a009         	j	0x80002c90 <core::ptr::write_volatile::hd5acb92038b324cb+0x14>
80002c90: 6602         	ld	a2, 0x0(sp)
80002c92: 6522         	ld	a0, 0x8(sp)
80002c94: 4585         	li	a1, 0x1
80002c96: 00000097     	auipc	ra, 0x0
80002c9a: ce4080e7     	jalr	-0x31c(ra) <core::ptr::write_volatile::precondition_check::hf023a0a87c97d1b5>
80002c9e: a009         	j	0x80002ca0 <core::ptr::write_volatile::hd5acb92038b324cb+0x24>
80002ca0: 6542         	ld	a0, 0x10(sp)
80002ca2: 65a2         	ld	a1, 0x8(sp)
80002ca4: 00a58023     	sb	a0, 0x0(a1)
80002ca8: 70a2         	ld	ra, 0x28(sp)
80002caa: 6145         	addi	sp, sp, 0x30
80002cac: 8082         	ret

0000000080002cae <core::ptr::const_ptr::_$LT$impl$u20$$BP$const$u20$T$GT$::is_aligned_to::h085bb4a4f00761c0>:
80002cae: 7139         	addi	sp, sp, -0x40
80002cb0: e42e         	sd	a1, 0x8(sp)
80002cb2: e82a         	sd	a0, 0x10(sp)
80002cb4: ec2a         	sd	a0, 0x18(sp)
80002cb6: f02e         	sd	a1, 0x20(sp)
80002cb8: 0015d513     	srli	a0, a1, 0x1
80002cbc: 55555637     	lui	a2, 0x55555
80002cc0: 55560613     	addi	a2, a2, 0x555
80002cc4: 02061693     	slli	a3, a2, 0x20
80002cc8: 9636         	add	a2, a2, a3
80002cca: 8d71         	and	a0, a0, a2
80002ccc: 8d89         	sub	a1, a1, a0
80002cce: 33333537     	lui	a0, 0x33333
80002cd2: 33350513     	addi	a0, a0, 0x333
80002cd6: 02051613     	slli	a2, a0, 0x20
80002cda: 962a         	add	a2, a2, a0
80002cdc: 00c5f533     	and	a0, a1, a2
80002ce0: 8189         	srli	a1, a1, 0x2
80002ce2: 8df1         	and	a1, a1, a2
80002ce4: 952e         	add	a0, a0, a1
80002ce6: 00455593     	srli	a1, a0, 0x4
80002cea: 952e         	add	a0, a0, a1
80002cec: 0f0f15b7     	lui	a1, 0xf0f1
80002cf0: f0f58593     	addi	a1, a1, -0xf1
80002cf4: 02059613     	slli	a2, a1, 0x20
80002cf8: 95b2         	add	a1, a1, a2
80002cfa: 8d6d         	and	a0, a0, a1
80002cfc: 010105b7     	lui	a1, 0x1010
80002d00: 10158593     	addi	a1, a1, 0x101
80002d04: 02059613     	slli	a2, a1, 0x20
80002d08: 95b2         	add	a1, a1, a2
80002d0a: 02b50533     	mul	a0, a0, a1
80002d0e: 9161         	srli	a0, a0, 0x38
80002d10: d62a         	sw	a0, 0x2c(sp)
80002d12: 5532         	lw	a0, 0x2c(sp)
80002d14: 4585         	li	a1, 0x1
80002d16: 00b51b63     	bne	a0, a1, 0x80002d2c <.Lpcrel_hi0>
80002d1a: a009         	j	0x80002d1c <core::ptr::const_ptr::_$LT$impl$u20$$BP$const$u20$T$GT$::is_aligned_to::h085bb4a4f00761c0+0x6e>
80002d1c: 6542         	ld	a0, 0x10(sp)
80002d1e: 65a2         	ld	a1, 0x8(sp)
80002d20: 15fd         	addi	a1, a1, -0x1
80002d22: 8d6d         	and	a0, a0, a1
80002d24: 00153513     	seqz	a0, a0
80002d28: 6121         	addi	sp, sp, 0x40
80002d2a: 8082         	ret

0000000080002d2c <.Lpcrel_hi0>:
80002d2c: 00003517     	auipc	a0, 0x3
80002d30: 94650513     	addi	a0, a0, -0x6ba
80002d34: f82a         	sd	a0, 0x30(sp)
80002d36: 02a00593     	li	a1, 0x2a
80002d3a: fc2e         	sd	a1, 0x38(sp)

0000000080002d3c <.Lpcrel_hi1>:
80002d3c: 00003597     	auipc	a1, 0x3
80002d40: 96458613     	addi	a2, a1, -0x69c
80002d44: 05500593     	li	a1, 0x55
80002d48: 00001097     	auipc	ra, 0x1
80002d4c: 340080e7     	jalr	0x340(ra) <core::panicking::panic_fmt::h767dc8ac4dd44648>

0000000080002d50 <core::slice::raw::from_raw_parts::precondition_check::h3fe0dedbc1e371ea>:
80002d50: 7119         	addi	sp, sp, -0x80
80002d52: fc86         	sd	ra, 0x78(sp)
80002d54: e43a         	sd	a4, 0x8(sp)
80002d56: e836         	sd	a3, 0x10(sp)
80002d58: ec32         	sd	a2, 0x18(sp)
80002d5a: 862e         	mv	a2, a1
80002d5c: 65e2         	ld	a1, 0x18(sp)
80002d5e: f032         	sd	a2, 0x20(sp)
80002d60: f42a         	sd	a0, 0x28(sp)
80002d62: fc2a         	sd	a0, 0x38(sp)
80002d64: e0b2         	sd	a2, 0x40(sp)
80002d66: e4ae         	sd	a1, 0x48(sp)
80002d68: e8b6         	sd	a3, 0x50(sp)
80002d6a: 4601         	li	a2, 0x0
80002d6c: 04c10fa3     	sb	a2, 0x5f(sp)
80002d70: f0aa         	sd	a0, 0x60(sp)
80002d72: 00000097     	auipc	ra, 0x0
80002d76: f3c080e7     	jalr	-0xc4(ra) <core::ptr::const_ptr::_$LT$impl$u20$$BP$const$u20$T$GT$::is_aligned_to::h085bb4a4f00761c0>
80002d7a: e119         	bnez	a0, 0x80002d80 <core::slice::raw::from_raw_parts::precondition_check::h3fe0dedbc1e371ea+0x30>
80002d7c: a009         	j	0x80002d7e <core::slice::raw::from_raw_parts::precondition_check::h3fe0dedbc1e371ea+0x2e>
80002d7e: a021         	j	0x80002d86 <core::slice::raw::from_raw_parts::precondition_check::h3fe0dedbc1e371ea+0x36>
80002d80: 7522         	ld	a0, 0x28(sp)
80002d82: e119         	bnez	a0, 0x80002d88 <core::slice::raw::from_raw_parts::precondition_check::h3fe0dedbc1e371ea+0x38>
80002d84: a009         	j	0x80002d86 <core::slice::raw::from_raw_parts::precondition_check::h3fe0dedbc1e371ea+0x36>
80002d86: a039         	j	0x80002d94 <core::slice::raw::from_raw_parts::precondition_check::h3fe0dedbc1e371ea+0x44>
80002d88: 7502         	ld	a0, 0x20(sp)
80002d8a: 00153593     	seqz	a1, a0
80002d8e: e02e         	sd	a1, 0x0(sp)
80002d90: c115         	beqz	a0, 0x80002db4 <.Lpcrel_hi0+0x1e>
80002d92: a025         	j	0x80002dba <.Lpcrel_hi0+0x24>
80002d94: 66a2         	ld	a3, 0x8(sp)

0000000080002d96 <.Lpcrel_hi0>:
80002d96: 00003517     	auipc	a0, 0x3
80002d9a: 93a50513     	addi	a0, a0, -0x6c6
80002d9e: f4aa         	sd	a0, 0x68(sp)
80002da0: 11700593     	li	a1, 0x117
80002da4: f8ae         	sd	a1, 0x70(sp)
80002da6: 22f00593     	li	a1, 0x22f
80002daa: 4601         	li	a2, 0x0
80002dac: 00001097     	auipc	ra, 0x1
80002db0: 24c080e7     	jalr	0x24c(ra) <core::panicking::panic_nounwind_fmt::h2e018e50a8d3bc73>
80002db4: 557d         	li	a0, -0x1
80002db6: f82a         	sd	a0, 0x30(sp)
80002db8: a029         	j	0x80002dc2 <.Lpcrel_hi0+0x2c>
80002dba: 6502         	ld	a0, 0x0(sp)
80002dbc: 8905         	andi	a0, a0, 0x1
80002dbe: ed11         	bnez	a0, 0x80002dda <.Lpcrel_hi1>
80002dc0: a031         	j	0x80002dcc <.Lpcrel_hi0+0x36>
80002dc2: 65c2         	ld	a1, 0x10(sp)
80002dc4: 7542         	ld	a0, 0x30(sp)
80002dc6: 02b57363     	bgeu	a0, a1, 0x80002dec <.Lpcrel_hi1+0x12>
80002dca: a005         	j	0x80002dea <.Lpcrel_hi1+0x10>
80002dcc: 7582         	ld	a1, 0x20(sp)
80002dce: 557d         	li	a0, -0x1
80002dd0: 8105         	srli	a0, a0, 0x1
80002dd2: 02b55533     	divu	a0, a0, a1
80002dd6: f82a         	sd	a0, 0x30(sp)
80002dd8: b7ed         	j	0x80002dc2 <.Lpcrel_hi0+0x2c>

0000000080002dda <.Lpcrel_hi1>:
80002dda: 00003517     	auipc	a0, 0x3
80002dde: 8de50513     	addi	a0, a0, -0x722
80002de2: 00001097     	auipc	ra, 0x1
80002de6: 144080e7     	jalr	0x144(ra) <core::panicking::panic_const::panic_const_div_by_zero::hcfde4c26e8ecfc4b>
80002dea: b76d         	j	0x80002d94 <core::slice::raw::from_raw_parts::precondition_check::h3fe0dedbc1e371ea+0x44>
80002dec: 70e6         	ld	ra, 0x78(sp)
80002dee: 6109         	addi	sp, sp, 0x80
80002df0: 8082         	ret

0000000080002df2 <core::slice::raw::from_raw_parts_mut::precondition_check::ha56f9fc323f946f8>:
80002df2: 7119         	addi	sp, sp, -0x80
80002df4: fc86         	sd	ra, 0x78(sp)
80002df6: e43a         	sd	a4, 0x8(sp)
80002df8: e836         	sd	a3, 0x10(sp)
80002dfa: ec32         	sd	a2, 0x18(sp)
80002dfc: 862e         	mv	a2, a1
80002dfe: 65e2         	ld	a1, 0x18(sp)
80002e00: f032         	sd	a2, 0x20(sp)
80002e02: f42a         	sd	a0, 0x28(sp)
80002e04: fc2a         	sd	a0, 0x38(sp)
80002e06: e0b2         	sd	a2, 0x40(sp)
80002e08: e4ae         	sd	a1, 0x48(sp)
80002e0a: e8b6         	sd	a3, 0x50(sp)
80002e0c: 4601         	li	a2, 0x0
80002e0e: 04c10fa3     	sb	a2, 0x5f(sp)
80002e12: f0aa         	sd	a0, 0x60(sp)
80002e14: 00000097     	auipc	ra, 0x0
80002e18: e9a080e7     	jalr	-0x166(ra) <core::ptr::const_ptr::_$LT$impl$u20$$BP$const$u20$T$GT$::is_aligned_to::h085bb4a4f00761c0>
80002e1c: e119         	bnez	a0, 0x80002e22 <core::slice::raw::from_raw_parts_mut::precondition_check::ha56f9fc323f946f8+0x30>
80002e1e: a009         	j	0x80002e20 <core::slice::raw::from_raw_parts_mut::precondition_check::ha56f9fc323f946f8+0x2e>
80002e20: a021         	j	0x80002e28 <core::slice::raw::from_raw_parts_mut::precondition_check::ha56f9fc323f946f8+0x36>
80002e22: 7522         	ld	a0, 0x28(sp)
80002e24: e119         	bnez	a0, 0x80002e2a <core::slice::raw::from_raw_parts_mut::precondition_check::ha56f9fc323f946f8+0x38>
80002e26: a009         	j	0x80002e28 <core::slice::raw::from_raw_parts_mut::precondition_check::ha56f9fc323f946f8+0x36>
80002e28: a039         	j	0x80002e36 <core::slice::raw::from_raw_parts_mut::precondition_check::ha56f9fc323f946f8+0x44>
80002e2a: 7502         	ld	a0, 0x20(sp)
80002e2c: 00153593     	seqz	a1, a0
80002e30: e02e         	sd	a1, 0x0(sp)
80002e32: c115         	beqz	a0, 0x80002e56 <.Lpcrel_hi2+0x1e>
80002e34: a025         	j	0x80002e5c <.Lpcrel_hi2+0x24>
80002e36: 66a2         	ld	a3, 0x8(sp)

0000000080002e38 <.Lpcrel_hi2>:
80002e38: 00003517     	auipc	a0, 0x3
80002e3c: 9af50513     	addi	a0, a0, -0x651
80002e40: f4aa         	sd	a0, 0x68(sp)
80002e42: 11b00593     	li	a1, 0x11b
80002e46: f8ae         	sd	a1, 0x70(sp)
80002e48: 23700593     	li	a1, 0x237
80002e4c: 4601         	li	a2, 0x0
80002e4e: 00001097     	auipc	ra, 0x1
80002e52: 1aa080e7     	jalr	0x1aa(ra) <core::panicking::panic_nounwind_fmt::h2e018e50a8d3bc73>
80002e56: 557d         	li	a0, -0x1
80002e58: f82a         	sd	a0, 0x30(sp)
80002e5a: a029         	j	0x80002e64 <.Lpcrel_hi2+0x2c>
80002e5c: 6502         	ld	a0, 0x0(sp)
80002e5e: 8905         	andi	a0, a0, 0x1
80002e60: ed11         	bnez	a0, 0x80002e7c <.Lpcrel_hi3>
80002e62: a031         	j	0x80002e6e <.Lpcrel_hi2+0x36>
80002e64: 65c2         	ld	a1, 0x10(sp)
80002e66: 7542         	ld	a0, 0x30(sp)
80002e68: 02b57363     	bgeu	a0, a1, 0x80002e8e <.Lpcrel_hi3+0x12>
80002e6c: a005         	j	0x80002e8c <.Lpcrel_hi3+0x10>
80002e6e: 7582         	ld	a1, 0x20(sp)
80002e70: 557d         	li	a0, -0x1
80002e72: 8105         	srli	a0, a0, 0x1
80002e74: 02b55533     	divu	a0, a0, a1
80002e78: f82a         	sd	a0, 0x30(sp)
80002e7a: b7ed         	j	0x80002e64 <.Lpcrel_hi2+0x2c>

0000000080002e7c <.Lpcrel_hi3>:
80002e7c: 00003517     	auipc	a0, 0x3
80002e80: 83c50513     	addi	a0, a0, -0x7c4
80002e84: 00001097     	auipc	ra, 0x1
80002e88: 0a2080e7     	jalr	0xa2(ra) <core::panicking::panic_const::panic_const_div_by_zero::hcfde4c26e8ecfc4b>
80002e8c: b76d         	j	0x80002e36 <core::slice::raw::from_raw_parts_mut::precondition_check::ha56f9fc323f946f8+0x44>
80002e8e: 70e6         	ld	ra, 0x78(sp)
80002e90: 6109         	addi	sp, sp, 0x80
80002e92: 8082         	ret

0000000080002e94 <core::char::methods::encode_utf8_raw::h09f41e913191e858>:
80002e94: 715d         	addi	sp, sp, -0x50
80002e96: e486         	sd	ra, 0x48(sp)
80002e98: e032         	sd	a2, 0x0(sp)
80002e9a: e42e         	sd	a1, 0x8(sp)
80002e9c: 86aa         	mv	a3, a0
80002e9e: e836         	sd	a3, 0x10(sp)
80002ea0: d22a         	sw	a0, 0x24(sp)
80002ea2: f42e         	sd	a1, 0x28(sp)
80002ea4: f832         	sd	a2, 0x30(sp)
80002ea6: 08000593     	li	a1, 0x80
80002eaa: 00b56863     	bltu	a0, a1, 0x80002eba <core::char::methods::encode_utf8_raw::h09f41e913191e858+0x26>
80002eae: a009         	j	0x80002eb0 <core::char::methods::encode_utf8_raw::h09f41e913191e858+0x1c>
80002eb0: 6542         	ld	a0, 0x10(sp)
80002eb2: 00b5551b     	srliw	a0, a0, 0xb
80002eb6: c911         	beqz	a0, 0x80002eca <core::char::methods::encode_utf8_raw::h09f41e913191e858+0x36>
80002eb8: a021         	j	0x80002ec0 <core::char::methods::encode_utf8_raw::h09f41e913191e858+0x2c>
80002eba: 4505         	li	a0, 0x1
80002ebc: ec2a         	sd	a0, 0x18(sp)
80002ebe: a839         	j	0x80002edc <core::char::methods::encode_utf8_raw::h09f41e913191e858+0x48>
80002ec0: 6542         	ld	a0, 0x10(sp)
80002ec2: 0105551b     	srliw	a0, a0, 0x10
80002ec6: c901         	beqz	a0, 0x80002ed6 <core::char::methods::encode_utf8_raw::h09f41e913191e858+0x42>
80002ec8: a021         	j	0x80002ed0 <core::char::methods::encode_utf8_raw::h09f41e913191e858+0x3c>
80002eca: 4509         	li	a0, 0x2
80002ecc: ec2a         	sd	a0, 0x18(sp)
80002ece: a039         	j	0x80002edc <core::char::methods::encode_utf8_raw::h09f41e913191e858+0x48>
80002ed0: 4511         	li	a0, 0x4
80002ed2: ec2a         	sd	a0, 0x18(sp)
80002ed4: a021         	j	0x80002edc <core::char::methods::encode_utf8_raw::h09f41e913191e858+0x48>
80002ed6: 450d         	li	a0, 0x3
80002ed8: ec2a         	sd	a0, 0x18(sp)
80002eda: a009         	j	0x80002edc <core::char::methods::encode_utf8_raw::h09f41e913191e858+0x48>
80002edc: 6502         	ld	a0, 0x0(sp)
80002ede: fc2a         	sd	a0, 0x38(sp)
80002ee0: 65e2         	ld	a1, 0x18(sp)
80002ee2: 00b56d63     	bltu	a0, a1, 0x80002efc <core::char::methods::encode_utf8_raw::h09f41e913191e858+0x68>
80002ee6: a009         	j	0x80002ee8 <core::char::methods::encode_utf8_raw::h09f41e913191e858+0x54>
80002ee8: 65a2         	ld	a1, 0x8(sp)
80002eea: 6542         	ld	a0, 0x10(sp)
80002eec: 2501         	sext.w	a0, a0
80002eee: 00000097     	auipc	ra, 0x0
80002ef2: 0cc080e7     	jalr	0xcc(ra) <core::char::methods::encode_utf8_raw_unchecked::h09a0261d2bfc1b4d>
80002ef6: 6522         	ld	a0, 0x8(sp)
80002ef8: e0aa         	sd	a0, 0x40(sp)
80002efa: a829         	j	0x80002f14 <.Lpcrel_hi0+0x10>
80002efc: 6602         	ld	a2, 0x0(sp)
80002efe: 6542         	ld	a0, 0x10(sp)
80002f00: 65e2         	ld	a1, 0x18(sp)
80002f02: 2501         	sext.w	a0, a0

0000000080002f04 <.Lpcrel_hi0>:
80002f04: 00003697     	auipc	a3, 0x3
80002f08: a1c68693     	addi	a3, a3, -0x5e4
80002f0c: 00000097     	auipc	ra, 0x0
80002f10: 02c080e7     	jalr	0x2c(ra) <core::char::methods::encode_utf8_raw::do_panic::runtime::hc39a107057c36684>
80002f14: 6522         	ld	a0, 0x8(sp)
80002f16: 66e2         	ld	a3, 0x18(sp)

0000000080002f18 <.Lpcrel_hi1>:
80002f18: 00003597     	auipc	a1, 0x3
80002f1c: 9f058713     	addi	a4, a1, -0x610
80002f20: 4605         	li	a2, 0x1
80002f22: 85b2         	mv	a1, a2
80002f24: 00000097     	auipc	ra, 0x0
80002f28: ece080e7     	jalr	-0x132(ra) <core::slice::raw::from_raw_parts_mut::precondition_check::ha56f9fc323f946f8>
80002f2c: a009         	j	0x80002f2e <.Lpcrel_hi1+0x16>
80002f2e: 6522         	ld	a0, 0x8(sp)
80002f30: 65e2         	ld	a1, 0x18(sp)
80002f32: 60a6         	ld	ra, 0x48(sp)
80002f34: 6161         	addi	sp, sp, 0x50
80002f36: 8082         	ret

0000000080002f38 <core::char::methods::encode_utf8_raw::do_panic::runtime::hc39a107057c36684>:
80002f38: 7115         	addi	sp, sp, -0xe0
80002f3a: e036         	sd	a3, 0x0(sp)
80002f3c: 86b2         	mv	a3, a2
80002f3e: 6602         	ld	a2, 0x0(sp)
80002f40: e436         	sd	a3, 0x8(sp)
80002f42: 86aa         	mv	a3, a0
80002f44: 6522         	ld	a0, 0x8(sp)
80002f46: ca36         	sw	a3, 0x14(sp)
80002f48: ec2e         	sd	a1, 0x18(sp)
80002f4a: f02a         	sd	a0, 0x20(sp)

0000000080002f4c <.Lpcrel_hi2>:
80002f4c: 00003517     	auipc	a0, 0x3
80002f50: 9ec50513     	addi	a0, a0, -0x614
80002f54: fd2a         	sd	a0, 0xb8(sp)
80002f56: 082c         	addi	a1, sp, 0x18
80002f58: e1ae         	sd	a1, 0xc0(sp)
80002f5a: 0858         	addi	a4, sp, 0x14
80002f5c: e5ba         	sd	a4, 0xc8(sp)
80002f5e: 1014         	addi	a3, sp, 0x20
80002f60: e9b6         	sd	a3, 0xd0(sp)
80002f62: e52e         	sd	a1, 0x88(sp)

0000000080002f64 <.Lpcrel_hi3>:
80002f64: 00000597     	auipc	a1, 0x0
80002f68: 6e858593     	addi	a1, a1, 0x6e8
80002f6c: e92e         	sd	a1, 0x90(sp)
80002f6e: 67ca         	ld	a5, 0x90(sp)
80002f70: f0be         	sd	a5, 0x60(sp)
80002f72: 67aa         	ld	a5, 0x88(sp)
80002f74: ecbe         	sd	a5, 0x58(sp)
80002f76: ed3a         	sd	a4, 0x98(sp)

0000000080002f78 <.Lpcrel_hi4>:
80002f78: 00000717     	auipc	a4, 0x0
80002f7c: 77870713     	addi	a4, a4, 0x778
80002f80: f13a         	sd	a4, 0xa0(sp)
80002f82: 770a         	ld	a4, 0xa0(sp)
80002f84: f8ba         	sd	a4, 0x70(sp)
80002f86: 676a         	ld	a4, 0x98(sp)
80002f88: f4ba         	sd	a4, 0x68(sp)
80002f8a: f536         	sd	a3, 0xa8(sp)
80002f8c: f92e         	sd	a1, 0xb0(sp)
80002f8e: 75ca         	ld	a1, 0xb0(sp)
80002f90: e12e         	sd	a1, 0x80(sp)
80002f92: 75aa         	ld	a1, 0xa8(sp)
80002f94: fcae         	sd	a1, 0x78(sp)
80002f96: 7586         	ld	a1, 0x60(sp)
80002f98: f82e         	sd	a1, 0x30(sp)
80002f9a: 65e6         	ld	a1, 0x58(sp)
80002f9c: f42e         	sd	a1, 0x28(sp)
80002f9e: 75c6         	ld	a1, 0x70(sp)
80002fa0: e0ae         	sd	a1, 0x40(sp)
80002fa2: 75a6         	ld	a1, 0x68(sp)
80002fa4: fc2e         	sd	a1, 0x38(sp)
80002fa6: 658a         	ld	a1, 0x80(sp)
80002fa8: e8ae         	sd	a1, 0x50(sp)
80002faa: 75e6         	ld	a1, 0x78(sp)
80002fac: e4ae         	sd	a1, 0x48(sp)
80002fae: 102c         	addi	a1, sp, 0x28
80002fb0: edae         	sd	a1, 0xd8(sp)
80002fb2: 00001097     	auipc	ra, 0x1
80002fb6: 0d6080e7     	jalr	0xd6(ra) <core::panicking::panic_fmt::h767dc8ac4dd44648>

0000000080002fba <core::char::methods::encode_utf8_raw_unchecked::h09a0261d2bfc1b4d>:
80002fba: 7119         	addi	sp, sp, -0x80
80002fbc: f02e         	sd	a1, 0x20(sp)
80002fbe: 862a         	mv	a2, a0
80002fc0: f432         	sd	a2, 0x28(sp)
80002fc2: de2a         	sw	a0, 0x3c(sp)
80002fc4: e0ae         	sd	a1, 0x40(sp)
80002fc6: 4585         	li	a1, 0x1
80002fc8: e4ae         	sd	a1, 0x48(sp)
80002fca: e8ae         	sd	a1, 0x50(sp)
80002fcc: ecae         	sd	a1, 0x58(sp)
80002fce: 4589         	li	a1, 0x2
80002fd0: f0ae         	sd	a1, 0x60(sp)
80002fd2: f4ae         	sd	a1, 0x68(sp)
80002fd4: 458d         	li	a1, 0x3
80002fd6: f8ae         	sd	a1, 0x70(sp)
80002fd8: 08000593     	li	a1, 0x80
80002fdc: 00b56863     	bltu	a0, a1, 0x80002fec <core::char::methods::encode_utf8_raw_unchecked::h09a0261d2bfc1b4d+0x32>
80002fe0: a009         	j	0x80002fe2 <core::char::methods::encode_utf8_raw_unchecked::h09a0261d2bfc1b4d+0x28>
80002fe2: 7522         	ld	a0, 0x28(sp)
80002fe4: 00b5551b     	srliw	a0, a0, 0xb
80002fe8: cd11         	beqz	a0, 0x80003004 <core::char::methods::encode_utf8_raw_unchecked::h09a0261d2bfc1b4d+0x4a>
80002fea: a801         	j	0x80002ffa <core::char::methods::encode_utf8_raw_unchecked::h09a0261d2bfc1b4d+0x40>
80002fec: 7522         	ld	a0, 0x28(sp)
80002fee: 7582         	ld	a1, 0x20(sp)
80002ff0: 4605         	li	a2, 0x1
80002ff2: f832         	sd	a2, 0x30(sp)
80002ff4: 00a58023     	sb	a0, 0x0(a1)
80002ff8: a049         	j	0x8000307a <core::char::methods::encode_utf8_raw_unchecked::h09a0261d2bfc1b4d+0xc0>
80002ffa: 7522         	ld	a0, 0x28(sp)
80002ffc: 0105551b     	srliw	a0, a0, 0x10
80003000: c901         	beqz	a0, 0x80003010 <core::char::methods::encode_utf8_raw_unchecked::h09a0261d2bfc1b4d+0x56>
80003002: a021         	j	0x8000300a <core::char::methods::encode_utf8_raw_unchecked::h09a0261d2bfc1b4d+0x50>
80003004: 4509         	li	a0, 0x2
80003006: f82a         	sd	a0, 0x30(sp)
80003008: a039         	j	0x80003016 <core::char::methods::encode_utf8_raw_unchecked::h09a0261d2bfc1b4d+0x5c>
8000300a: 4511         	li	a0, 0x4
8000300c: f82a         	sd	a0, 0x30(sp)
8000300e: a021         	j	0x80003016 <core::char::methods::encode_utf8_raw_unchecked::h09a0261d2bfc1b4d+0x5c>
80003010: 450d         	li	a0, 0x3
80003012: f82a         	sd	a0, 0x30(sp)
80003014: a009         	j	0x80003016 <core::char::methods::encode_utf8_raw_unchecked::h09a0261d2bfc1b4d+0x5c>
80003016: 7522         	ld	a0, 0x28(sp)
80003018: 03f57593     	andi	a1, a0, 0x3f
8000301c: f805859b     	addiw	a1, a1, -0x80
80003020: e02e         	sd	a1, 0x0(sp)
80003022: 06b10e23     	sb	a1, 0x7c(sp)
80003026: 03451593     	slli	a1, a0, 0x34
8000302a: 91e9         	srli	a1, a1, 0x3a
8000302c: f805859b     	addiw	a1, a1, -0x80
80003030: e42e         	sd	a1, 0x8(sp)
80003032: 06b10ea3     	sb	a1, 0x7d(sp)
80003036: 02e51593     	slli	a1, a0, 0x2e
8000303a: 91e9         	srli	a1, a1, 0x3a
8000303c: f805859b     	addiw	a1, a1, -0x80
80003040: e82e         	sd	a1, 0x10(sp)
80003042: 06b10f23     	sb	a1, 0x7e(sp)
80003046: 8149         	srli	a0, a0, 0x12
80003048: ff056513     	ori	a0, a0, -0x10
8000304c: ec2a         	sd	a0, 0x18(sp)
8000304e: 06a10fa3     	sb	a0, 0x7f(sp)
80003052: 7542         	ld	a0, 0x30(sp)
80003054: 4589         	li	a1, 0x2
80003056: 00b51d63     	bne	a0, a1, 0x80003070 <core::char::methods::encode_utf8_raw_unchecked::h09a0261d2bfc1b4d+0xb6>
8000305a: a009         	j	0x8000305c <core::char::methods::encode_utf8_raw_unchecked::h09a0261d2bfc1b4d+0xa2>
8000305c: 6502         	ld	a0, 0x0(sp)
8000305e: 7582         	ld	a1, 0x20(sp)
80003060: 6622         	ld	a2, 0x8(sp)
80003062: 0c066613     	ori	a2, a2, 0xc0
80003066: 00c58023     	sb	a2, 0x0(a1)
8000306a: 00a580a3     	sb	a0, 0x1(a1)
8000306e: a031         	j	0x8000307a <core::char::methods::encode_utf8_raw_unchecked::h09a0261d2bfc1b4d+0xc0>
80003070: 7542         	ld	a0, 0x30(sp)
80003072: 458d         	li	a1, 0x3
80003074: 00b50463     	beq	a0, a1, 0x8000307c <core::char::methods::encode_utf8_raw_unchecked::h09a0261d2bfc1b4d+0xc2>
80003078: a839         	j	0x80003096 <core::char::methods::encode_utf8_raw_unchecked::h09a0261d2bfc1b4d+0xdc>
8000307a: a825         	j	0x800030b2 <core::char::methods::encode_utf8_raw_unchecked::h09a0261d2bfc1b4d+0xf8>
8000307c: 6502         	ld	a0, 0x0(sp)
8000307e: 7582         	ld	a1, 0x20(sp)
80003080: 6622         	ld	a2, 0x8(sp)
80003082: 66c2         	ld	a3, 0x10(sp)
80003084: 0e06e693     	ori	a3, a3, 0xe0
80003088: 00d58023     	sb	a3, 0x0(a1)
8000308c: 00c580a3     	sb	a2, 0x1(a1)
80003090: 00a58123     	sb	a0, 0x2(a1)
80003094: b7dd         	j	0x8000307a <core::char::methods::encode_utf8_raw_unchecked::h09a0261d2bfc1b4d+0xc0>
80003096: 6502         	ld	a0, 0x0(sp)
80003098: 7582         	ld	a1, 0x20(sp)
8000309a: 6622         	ld	a2, 0x8(sp)
8000309c: 66c2         	ld	a3, 0x10(sp)
8000309e: 6762         	ld	a4, 0x18(sp)
800030a0: 00e58023     	sb	a4, 0x0(a1)
800030a4: 00d580a3     	sb	a3, 0x1(a1)
800030a8: 00c58123     	sb	a2, 0x2(a1)
800030ac: 00a581a3     	sb	a0, 0x3(a1)
800030b0: a009         	j	0x800030b2 <core::char::methods::encode_utf8_raw_unchecked::h09a0261d2bfc1b4d+0xf8>
800030b2: 6109         	addi	sp, sp, 0x80
800030b4: 8082         	ret

00000000800030b6 <lab4_kernel_task1::trap::init_machine_trap_vector::hafc86f67938353d0>:
800030b6: ffffd517     	auipc	a0, 0xffffd
800030ba: 48a50513     	addi	a0, a0, 0x48a
800030be: 30551073     	csrw	mtvec, a0
800030c2: 8082         	ret

00000000800030c4 <lab4_kernel_task1::trap::init_supervisor_trap_vector::h3a508f835ddf0ede>:
800030c4: ffffd517     	auipc	a0, 0xffffd
800030c8: 52c50513     	addi	a0, a0, 0x52c
800030cc: 10551073     	csrw	stvec, a0
800030d0: 8082         	ret

00000000800030d2 <lab4_kernel_task1::trap::TrapFrame::zeroed::he276510802c16075>:
800030d2: 85aa         	mv	a1, a0
800030d4: 4501         	li	a0, 0x0
800030d6: e188         	sd	a0, 0x0(a1)
800030d8: e588         	sd	a0, 0x8(a1)
800030da: e988         	sd	a0, 0x10(a1)
800030dc: ed88         	sd	a0, 0x18(a1)
800030de: f188         	sd	a0, 0x20(a1)
800030e0: f588         	sd	a0, 0x28(a1)
800030e2: f988         	sd	a0, 0x30(a1)
800030e4: fd88         	sd	a0, 0x38(a1)
800030e6: e1a8         	sd	a0, 0x40(a1)
800030e8: e5a8         	sd	a0, 0x48(a1)
800030ea: e9a8         	sd	a0, 0x50(a1)
800030ec: eda8         	sd	a0, 0x58(a1)
800030ee: f1a8         	sd	a0, 0x60(a1)
800030f0: f5a8         	sd	a0, 0x68(a1)
800030f2: f9a8         	sd	a0, 0x70(a1)
800030f4: fda8         	sd	a0, 0x78(a1)
800030f6: e1c8         	sd	a0, 0x80(a1)
800030f8: e5c8         	sd	a0, 0x88(a1)
800030fa: e9c8         	sd	a0, 0x90(a1)
800030fc: edc8         	sd	a0, 0x98(a1)
800030fe: f1c8         	sd	a0, 0xa0(a1)
80003100: f5c8         	sd	a0, 0xa8(a1)
80003102: f9c8         	sd	a0, 0xb0(a1)
80003104: fdc8         	sd	a0, 0xb8(a1)
80003106: e1e8         	sd	a0, 0xc0(a1)
80003108: e5e8         	sd	a0, 0xc8(a1)
8000310a: e9e8         	sd	a0, 0xd0(a1)
8000310c: ede8         	sd	a0, 0xd8(a1)
8000310e: f1e8         	sd	a0, 0xe0(a1)
80003110: f5e8         	sd	a0, 0xe8(a1)
80003112: f9e8         	sd	a0, 0xf0(a1)
80003114: fde8         	sd	a0, 0xf8(a1)
80003116: 8082         	ret

0000000080003118 <_$LT$I$u20$as$u20$core..iter..traits..collect..IntoIterator$GT$::into_iter::h27d509497879be1a>:
80003118: 1141         	addi	sp, sp, -0x10
8000311a: e02a         	sd	a0, 0x0(sp)
8000311c: e42e         	sd	a1, 0x8(sp)
8000311e: 0141         	addi	sp, sp, 0x10
80003120: 8082         	ret

0000000080003122 <_$LT$str$u20$as$u20$core..fmt..Display$GT$::fmt::h53474d83e2b0968b>:
80003122: 86ae         	mv	a3, a1
80003124: 85aa         	mv	a1, a0
80003126: 8532         	mv	a0, a2
80003128: 8636         	mv	a2, a3
8000312a: 00001317     	auipc	t1, 0x1
8000312e: aa430067     	jr	-0x55c(t1) <core::fmt::Formatter::pad::h239e525174ab4a17>

0000000080003132 <_$LT$char$u20$as$u20$core..fmt..Display$GT$::fmt::h793d1df9ddfe9696>:
80003132: 86ae         	mv	a3, a1
80003134: 0135c603     	lbu	a2, 0x13(a1)
80003138: 410c         	lw	a1, 0x0(a0)
8000313a: 8a61         	andi	a2, a2, 0x18
8000313c: ce19         	beqz	a2, 0x8000315a <_$LT$char$u20$as$u20$core..fmt..Display$GT$::fmt::h793d1df9ddfe9696+0x28>
8000313e: 1101         	addi	sp, sp, -0x20
80003140: ec06         	sd	ra, 0x18(sp)
80003142: e822         	sd	s0, 0x10(sp)
80003144: 1000         	addi	s0, sp, 0x20
80003146: 08000513     	li	a0, 0x80
8000314a: fe042623     	sw	zero, -0x14(s0)
8000314e: 00a5fa63     	bgeu	a1, a0, 0x80003162 <_$LT$char$u20$as$u20$core..fmt..Display$GT$::fmt::h793d1df9ddfe9696+0x30>
80003152: feb40623     	sb	a1, -0x14(s0)
80003156: 4605         	li	a2, 0x1
80003158: a88d         	j	0x800031ca <_$LT$char$u20$as$u20$core..fmt..Display$GT$::fmt::h793d1df9ddfe9696+0x98>
8000315a: 6690         	ld	a2, 0x8(a3)
8000315c: 6288         	ld	a0, 0x0(a3)
8000315e: 721c         	ld	a5, 0x20(a2)
80003160: 8782         	jr	a5
80003162: 00b5d71b     	srliw	a4, a1, 0xb
80003166: 03f5f513     	andi	a0, a1, 0x3f
8000316a: f8050513     	addi	a0, a0, -0x80
8000316e: 0065d61b     	srliw	a2, a1, 0x6
80003172: eb09         	bnez	a4, 0x80003184 <_$LT$char$u20$as$u20$core..fmt..Display$GT$::fmt::h793d1df9ddfe9696+0x52>
80003174: 0c066593     	ori	a1, a2, 0xc0
80003178: feb40623     	sb	a1, -0x14(s0)
8000317c: fea406a3     	sb	a0, -0x13(s0)
80003180: 4609         	li	a2, 0x2
80003182: a0a1         	j	0x800031ca <_$LT$char$u20$as$u20$core..fmt..Display$GT$::fmt::h793d1df9ddfe9696+0x98>
80003184: 03f67613     	andi	a2, a2, 0x3f
80003188: 0105d79b     	srliw	a5, a1, 0x10
8000318c: f8060613     	addi	a2, a2, -0x80
80003190: 00c5d71b     	srliw	a4, a1, 0xc
80003194: eb99         	bnez	a5, 0x800031aa <_$LT$char$u20$as$u20$core..fmt..Display$GT$::fmt::h793d1df9ddfe9696+0x78>
80003196: 0e076593     	ori	a1, a4, 0xe0
8000319a: feb40623     	sb	a1, -0x14(s0)
8000319e: fec406a3     	sb	a2, -0x13(s0)
800031a2: fea40723     	sb	a0, -0x12(s0)
800031a6: 460d         	li	a2, 0x3
800031a8: a00d         	j	0x800031ca <_$LT$char$u20$as$u20$core..fmt..Display$GT$::fmt::h793d1df9ddfe9696+0x98>
800031aa: 03f77713     	andi	a4, a4, 0x3f
800031ae: 81c9         	srli	a1, a1, 0x12
800031b0: f8070713     	addi	a4, a4, -0x80
800031b4: ff05e593     	ori	a1, a1, -0x10
800031b8: feb40623     	sb	a1, -0x14(s0)
800031bc: fee406a3     	sb	a4, -0x13(s0)
800031c0: fec40723     	sb	a2, -0x12(s0)
800031c4: fea407a3     	sb	a0, -0x11(s0)
800031c8: 4611         	li	a2, 0x4
800031ca: fec40593     	addi	a1, s0, -0x14
800031ce: 8536         	mv	a0, a3
800031d0: 00001097     	auipc	ra, 0x1
800031d4: 9fe080e7     	jalr	-0x602(ra) <core::fmt::Formatter::pad::h239e525174ab4a17>
800031d8: 60e2         	ld	ra, 0x18(sp)
800031da: 6442         	ld	s0, 0x10(sp)
800031dc: 6105         	addi	sp, sp, 0x20
800031de: 8082         	ret

00000000800031e0 <_$LT$$RF$T$u20$as$u20$core..fmt..Display$GT$::fmt::h60cf88dbe6a53042>:
800031e0: 6114         	ld	a3, 0x0(a0)
800031e2: 6510         	ld	a2, 0x8(a0)
800031e4: 852e         	mv	a0, a1
800031e6: 85b6         	mv	a1, a3
800031e8: 00001317     	auipc	t1, 0x1
800031ec: 9e630067     	jr	-0x61a(t1) <core::fmt::Formatter::pad::h239e525174ab4a17>

00000000800031f0 <core::fmt::num::imp::_$LT$impl$u20$u32$GT$::_fmt_inner::h2c8ef1aec4279901>:
800031f0: 7139         	addi	sp, sp, -0x40
800031f2: fc06         	sd	ra, 0x38(sp)
800031f4: f822         	sd	s0, 0x30(sp)
800031f6: f426         	sd	s1, 0x28(sp)
800031f8: f04a         	sd	s2, 0x20(sp)
800031fa: ec4e         	sd	s3, 0x18(sp)
800031fc: e852         	sd	s4, 0x10(sp)
800031fe: e456         	sd	s5, 0x8(sp)
80003200: 0080         	addi	s0, sp, 0x40
80003202: 3e800693     	li	a3, 0x3e8
80003206: 882a         	mv	a6, a0
80003208: 8732         	mv	a4, a2
8000320a: 0cd56163     	bltu	a0, a3, 0x800032cc <.Lpcrel_hi74+0xac>
8000320e: 4f01         	li	t5, 0x0
80003210: ffe58f93     	addi	t6, a1, -0x2
80003214: d1b71837     	lui	a6, 0xd1b71
80003218: 6709         	lui	a4, 0x2
8000321a: 6785         	lui	a5, 0x1
8000321c: 06400893     	li	a7, 0x64

0000000080003220 <.Lpcrel_hi74>:
80003220: 00002497     	auipc	s1, 0x2
80003224: 009896b7     	lui	a3, 0x989
80003228: 75980e13     	addi	t3, a6, 0x759
8000322c: 71070293     	addi	t0, a4, 0x710
80003230: 47b78313     	addi	t1, a5, 0x47b
80003234: 75f48393     	addi	t2, s1, 0x75f
80003238: 1e02         	slli	t3, t3, 0x20
8000323a: 67f68e93     	addi	t4, a3, 0x67f
8000323e: 882a         	mv	a6, a0
80003240: 01e60a33     	add	s4, a2, t5
80003244: ffca0693     	addi	a3, s4, -0x4
80003248: 14c6fe63     	bgeu	a3, a2, 0x800033a4 <.Lpcrel_hi80>
8000324c: 8942         	mv	s2, a6
8000324e: 02081693     	slli	a3, a6, 0x20
80003252: 03c6b6b3     	mulhu	a3, a3, t3
80003256: 02d6d813     	srli	a6, a3, 0x2d
8000325a: 025806b3     	mul	a3, a6, t0
8000325e: 40d909bb     	subw	s3, s2, a3
80003262: 03099693     	slli	a3, s3, 0x30
80003266: 92c9         	srli	a3, a3, 0x32
80003268: 026687b3     	mul	a5, a3, t1
8000326c: 83c5         	srli	a5, a5, 0x11
8000326e: 00179713     	slli	a4, a5, 0x1
80003272: 971e         	add	a4, a4, t2
80003274: 00074a83     	lbu	s5, 0x0(a4)
80003278: 00cf84b3     	add	s1, t6, a2
8000327c: ffda0693     	addi	a3, s4, -0x3
80003280: ff548f23     	sb	s5, -0x2(s1)
80003284: 10c6f563     	bgeu	a3, a2, 0x8000338e <.Lpcrel_hi81>
80003288: 00174703     	lbu	a4, 0x1(a4)
8000328c: ffea0693     	addi	a3, s4, -0x2
80003290: fee48fa3     	sb	a4, -0x1(s1)
80003294: 0ec6f263     	bgeu	a3, a2, 0x80003378 <.Lpcrel_hi82>
80003298: 031786b3     	mul	a3, a5, a7
8000329c: 40d986b3     	sub	a3, s3, a3
800032a0: 16c6         	slli	a3, a3, 0x31
800032a2: 92c1         	srli	a3, a3, 0x30
800032a4: 00d38733     	add	a4, t2, a3
800032a8: 00074783     	lbu	a5, 0x0(a4)
800032ac: fffa0693     	addi	a3, s4, -0x1
800032b0: 00f48023     	sb	a5, 0x0(s1)
800032b4: 0ac6f763     	bgeu	a3, a2, 0x80003362 <.Lpcrel_hi83>
800032b8: 00174683     	lbu	a3, 0x1(a4)
800032bc: 1f71         	addi	t5, t5, -0x4
800032be: 00d480a3     	sb	a3, 0x1(s1)
800032c2: 1ff1         	addi	t6, t6, -0x4
800032c4: f72eeee3     	bltu	t4, s2, 0x80003240 <.Lpcrel_hi74+0x20>
800032c8: 01e60733     	add	a4, a2, t5
800032cc: 46a5         	li	a3, 0x9
800032ce: 0506fd63     	bgeu	a3, a6, 0x80003328 <.Lpcrel_hi75+0x3a>
800032d2: ffe70693     	addi	a3, a4, -0x2
800032d6: 0ec6f263     	bgeu	a3, a2, 0x800033ba <.Lpcrel_hi76>
800032da: 03081793     	slli	a5, a6, 0x30
800032de: 6485         	lui	s1, 0x1
800032e0: 06400893     	li	a7, 0x64
800032e4: 93c9         	srli	a5, a5, 0x32
800032e6: 47b48493     	addi	s1, s1, 0x47b
800032ea: 029787b3     	mul	a5, a5, s1

00000000800032ee <.Lpcrel_hi75>:
800032ee: 00002297     	auipc	t0, 0x2
800032f2: 83c5         	srli	a5, a5, 0x11
800032f4: 031784b3     	mul	s1, a5, a7
800032f8: 409804bb     	subw	s1, a6, s1
800032fc: 14c6         	slli	s1, s1, 0x31
800032fe: 0304d813     	srli	a6, s1, 0x30
80003302: 69128493     	addi	s1, t0, 0x691
80003306: 94c2         	add	s1, s1, a6
80003308: 0004c803     	lbu	a6, 0x0(s1)
8000330c: 00d588b3     	add	a7, a1, a3
80003310: 177d         	addi	a4, a4, -0x1
80003312: 01088023     	sb	a6, 0x0(a7)
80003316: 0ac77d63     	bgeu	a4, a2, 0x800033d0 <.Lpcrel_hi77>
8000331a: 0014c483     	lbu	s1, 0x1(s1)
8000331e: 972e         	add	a4, a4, a1
80003320: 00970023     	sb	s1, 0x0(a4)
80003324: e509         	bnez	a0, 0x8000332e <.Lpcrel_hi75+0x40>
80003326: a029         	j	0x80003330 <.Lpcrel_hi75+0x42>
80003328: 87c2         	mv	a5, a6
8000332a: 86ba         	mv	a3, a4
8000332c: c111         	beqz	a0, 0x80003330 <.Lpcrel_hi75+0x42>
8000332e: c385         	beqz	a5, 0x8000334e <.Lpcrel_hi79+0x14>
80003330: 16fd         	addi	a3, a3, -0x1
80003332: 0ac6fa63     	bgeu	a3, a2, 0x800033e6 <.Lpcrel_hi78>
80003336: 0017951b     	slliw	a0, a5, 0x1

000000008000333a <.Lpcrel_hi79>:
8000333a: 00002617     	auipc	a2, 0x2
8000333e: 64560613     	addi	a2, a2, 0x645
80003342: 9532         	add	a0, a0, a2
80003344: 00154503     	lbu	a0, 0x1(a0)
80003348: 95b6         	add	a1, a1, a3
8000334a: 00a58023     	sb	a0, 0x0(a1)
8000334e: 8536         	mv	a0, a3
80003350: 70e2         	ld	ra, 0x38(sp)
80003352: 7442         	ld	s0, 0x30(sp)
80003354: 74a2         	ld	s1, 0x28(sp)
80003356: 7902         	ld	s2, 0x20(sp)
80003358: 69e2         	ld	s3, 0x18(sp)
8000335a: 6a42         	ld	s4, 0x10(sp)
8000335c: 6aa2         	ld	s5, 0x8(sp)
8000335e: 6121         	addi	sp, sp, 0x40
80003360: 8082         	ret

0000000080003362 <.Lpcrel_hi83>:
80003362: 00002517     	auipc	a0, 0x2
80003366: 6e650713     	addi	a4, a0, 0x6e6
8000336a: 8536         	mv	a0, a3
8000336c: 85b2         	mv	a1, a2
8000336e: 863a         	mv	a2, a4
80003370: 00001097     	auipc	ra, 0x1
80003374: c4c080e7     	jalr	-0x3b4(ra) <core::panicking::panic_bounds_check::h6aaee0d15e0261eb>

0000000080003378 <.Lpcrel_hi82>:
80003378: 00002517     	auipc	a0, 0x2
8000337c: 6d050713     	addi	a4, a0, 0x6d0
80003380: 8536         	mv	a0, a3
80003382: 85b2         	mv	a1, a2
80003384: 863a         	mv	a2, a4
80003386: 00001097     	auipc	ra, 0x1
8000338a: c36080e7     	jalr	-0x3ca(ra) <core::panicking::panic_bounds_check::h6aaee0d15e0261eb>

000000008000338e <.Lpcrel_hi81>:
8000338e: 00002517     	auipc	a0, 0x2
80003392: 6ba50713     	addi	a4, a0, 0x6ba
80003396: 8536         	mv	a0, a3
80003398: 85b2         	mv	a1, a2
8000339a: 863a         	mv	a2, a4
8000339c: 00001097     	auipc	ra, 0x1
800033a0: c20080e7     	jalr	-0x3e0(ra) <core::panicking::panic_bounds_check::h6aaee0d15e0261eb>

00000000800033a4 <.Lpcrel_hi80>:
800033a4: 00002517     	auipc	a0, 0x2
800033a8: 6a450713     	addi	a4, a0, 0x6a4
800033ac: 8536         	mv	a0, a3
800033ae: 85b2         	mv	a1, a2
800033b0: 863a         	mv	a2, a4
800033b2: 00001097     	auipc	ra, 0x1
800033b6: c0a080e7     	jalr	-0x3f6(ra) <core::panicking::panic_bounds_check::h6aaee0d15e0261eb>

00000000800033ba <.Lpcrel_hi76>:
800033ba: 00002517     	auipc	a0, 0x2
800033be: 68e50713     	addi	a4, a0, 0x68e
800033c2: 8536         	mv	a0, a3
800033c4: 85b2         	mv	a1, a2
800033c6: 863a         	mv	a2, a4
800033c8: 00001097     	auipc	ra, 0x1
800033cc: bf4080e7     	jalr	-0x40c(ra) <core::panicking::panic_bounds_check::h6aaee0d15e0261eb>

00000000800033d0 <.Lpcrel_hi77>:
800033d0: 00002517     	auipc	a0, 0x2
800033d4: 67850693     	addi	a3, a0, 0x678
800033d8: 853a         	mv	a0, a4
800033da: 85b2         	mv	a1, a2
800033dc: 8636         	mv	a2, a3
800033de: 00001097     	auipc	ra, 0x1
800033e2: bde080e7     	jalr	-0x422(ra) <core::panicking::panic_bounds_check::h6aaee0d15e0261eb>

00000000800033e6 <.Lpcrel_hi78>:
800033e6: 00002517     	auipc	a0, 0x2
800033ea: 66250713     	addi	a4, a0, 0x662
800033ee: 8536         	mv	a0, a3
800033f0: 85b2         	mv	a1, a2
800033f2: 863a         	mv	a2, a4
800033f4: 00001097     	auipc	ra, 0x1
800033f8: bc8080e7     	jalr	-0x438(ra) <core::panicking::panic_bounds_check::h6aaee0d15e0261eb>

00000000800033fc <core::fmt::num::imp::_$LT$impl$u20$u64$GT$::_fmt_inner::habf36a285bd59e0b>:
800033fc: 7139         	addi	sp, sp, -0x40
800033fe: fc06         	sd	ra, 0x38(sp)
80003400: f822         	sd	s0, 0x30(sp)
80003402: f426         	sd	s1, 0x28(sp)
80003404: f04a         	sd	s2, 0x20(sp)
80003406: ec4e         	sd	s3, 0x18(sp)
80003408: e852         	sd	s4, 0x10(sp)
8000340a: e456         	sd	s5, 0x8(sp)
8000340c: 0080         	addi	s0, sp, 0x40
8000340e: 3e800693     	li	a3, 0x3e8
80003412: 882a         	mv	a6, a0
80003414: 8732         	mv	a4, a2
80003416: 0ad56e63     	bltu	a0, a3, 0x800034d2 <.Lpcrel_hi85+0x9a>
8000341a: 4f01         	li	t5, 0x0
8000341c: ffe58f93     	addi	t6, a1, -0x2

0000000080003420 <.Lpcrel_hi84>:
80003420: 00001697     	auipc	a3, 0x1
80003424: 6709         	lui	a4, 0x2
80003426: 6785         	lui	a5, 0x1
80003428: 06400893     	li	a7, 0x64
8000342c: 5b86b283     	ld	t0, 0x5b8(a3)
80003430: 71070313     	addi	t1, a4, 0x710
80003434: 47b78393     	addi	t2, a5, 0x47b

0000000080003438 <.Lpcrel_hi85>:
80003438: 00002697     	auipc	a3, 0x2
8000343c: 54768e13     	addi	t3, a3, 0x547
80003440: 009896b7     	lui	a3, 0x989
80003444: 67f68e93     	addi	t4, a3, 0x67f
80003448: 882a         	mv	a6, a0
8000344a: 01e60a33     	add	s4, a2, t5
8000344e: ffca0693     	addi	a3, s4, -0x4
80003452: 14c6fb63     	bgeu	a3, a2, 0x800035a8 <.Lpcrel_hi91>
80003456: 8942         	mv	s2, a6
80003458: 025836b3     	mulhu	a3, a6, t0
8000345c: 00b6d813     	srli	a6, a3, 0xb
80003460: 026806b3     	mul	a3, a6, t1
80003464: 40d909b3     	sub	s3, s2, a3
80003468: 03099693     	slli	a3, s3, 0x30
8000346c: 92c9         	srli	a3, a3, 0x32
8000346e: 027687b3     	mul	a5, a3, t2
80003472: 83c5         	srli	a5, a5, 0x11
80003474: 00179713     	slli	a4, a5, 0x1
80003478: 9772         	add	a4, a4, t3
8000347a: 00074a83     	lbu	s5, 0x0(a4)
8000347e: 00cf84b3     	add	s1, t6, a2
80003482: ffda0693     	addi	a3, s4, -0x3
80003486: ff548f23     	sb	s5, -0x2(s1)
8000348a: 10c6f463     	bgeu	a3, a2, 0x80003592 <.Lpcrel_hi92>
8000348e: 00174703     	lbu	a4, 0x1(a4)
80003492: ffea0693     	addi	a3, s4, -0x2
80003496: fee48fa3     	sb	a4, -0x1(s1)
8000349a: 0ec6f163     	bgeu	a3, a2, 0x8000357c <.Lpcrel_hi93>
8000349e: 031786b3     	mul	a3, a5, a7
800034a2: 40d986b3     	sub	a3, s3, a3
800034a6: 16c6         	slli	a3, a3, 0x31
800034a8: 92c1         	srli	a3, a3, 0x30
800034aa: 00de0733     	add	a4, t3, a3
800034ae: 00074783     	lbu	a5, 0x0(a4)
800034b2: fffa0693     	addi	a3, s4, -0x1
800034b6: 00f48023     	sb	a5, 0x0(s1)
800034ba: 0ac6f663     	bgeu	a3, a2, 0x80003566 <.Lpcrel_hi94>
800034be: 00174683     	lbu	a3, 0x1(a4)
800034c2: 1f71         	addi	t5, t5, -0x4
800034c4: 00d480a3     	sb	a3, 0x1(s1)
800034c8: 1ff1         	addi	t6, t6, -0x4
800034ca: f92ee0e3     	bltu	t4, s2, 0x8000344a <.Lpcrel_hi85+0x12>
800034ce: 01e60733     	add	a4, a2, t5
800034d2: 46a5         	li	a3, 0x9
800034d4: 0506fd63     	bgeu	a3, a6, 0x8000352e <.Lpcrel_hi86+0x3a>
800034d8: ffe70693     	addi	a3, a4, -0x2
800034dc: 0ec6f163     	bgeu	a3, a2, 0x800035be <.Lpcrel_hi87>
800034e0: 03081793     	slli	a5, a6, 0x30
800034e4: 6485         	lui	s1, 0x1
800034e6: 06400893     	li	a7, 0x64
800034ea: 93c9         	srli	a5, a5, 0x32
800034ec: 47b48493     	addi	s1, s1, 0x47b
800034f0: 029787b3     	mul	a5, a5, s1

00000000800034f4 <.Lpcrel_hi86>:
800034f4: 00002297     	auipc	t0, 0x2
800034f8: 83c5         	srli	a5, a5, 0x11
800034fa: 031784b3     	mul	s1, a5, a7
800034fe: 409804bb     	subw	s1, a6, s1
80003502: 14c6         	slli	s1, s1, 0x31
80003504: 0304d813     	srli	a6, s1, 0x30
80003508: 48b28493     	addi	s1, t0, 0x48b
8000350c: 94c2         	add	s1, s1, a6
8000350e: 0004c803     	lbu	a6, 0x0(s1)
80003512: 00d588b3     	add	a7, a1, a3
80003516: 177d         	addi	a4, a4, -0x1
80003518: 01088023     	sb	a6, 0x0(a7)
8000351c: 0ac77c63     	bgeu	a4, a2, 0x800035d4 <.Lpcrel_hi88>
80003520: 0014c483     	lbu	s1, 0x1(s1)
80003524: 972e         	add	a4, a4, a1
80003526: 00970023     	sb	s1, 0x0(a4)
8000352a: e509         	bnez	a0, 0x80003534 <.Lpcrel_hi86+0x40>
8000352c: a029         	j	0x80003536 <.Lpcrel_hi86+0x42>
8000352e: 87c2         	mv	a5, a6
80003530: 86ba         	mv	a3, a4
80003532: c111         	beqz	a0, 0x80003536 <.Lpcrel_hi86+0x42>
80003534: cf99         	beqz	a5, 0x80003552 <.Lpcrel_hi90+0x14>
80003536: 16fd         	addi	a3, a3, -0x1
80003538: 0ac6f963     	bgeu	a3, a2, 0x800035ea <.Lpcrel_hi89>
8000353c: 0786         	slli	a5, a5, 0x1

000000008000353e <.Lpcrel_hi90>:
8000353e: 00002517     	auipc	a0, 0x2
80003542: 44150513     	addi	a0, a0, 0x441
80003546: 953e         	add	a0, a0, a5
80003548: 00154503     	lbu	a0, 0x1(a0)
8000354c: 95b6         	add	a1, a1, a3
8000354e: 00a58023     	sb	a0, 0x0(a1)
80003552: 8536         	mv	a0, a3
80003554: 70e2         	ld	ra, 0x38(sp)
80003556: 7442         	ld	s0, 0x30(sp)
80003558: 74a2         	ld	s1, 0x28(sp)
8000355a: 7902         	ld	s2, 0x20(sp)
8000355c: 69e2         	ld	s3, 0x18(sp)
8000355e: 6a42         	ld	s4, 0x10(sp)
80003560: 6aa2         	ld	s5, 0x8(sp)
80003562: 6121         	addi	sp, sp, 0x40
80003564: 8082         	ret

0000000080003566 <.Lpcrel_hi94>:
80003566: 00002517     	auipc	a0, 0x2
8000356a: 4e250713     	addi	a4, a0, 0x4e2
8000356e: 8536         	mv	a0, a3
80003570: 85b2         	mv	a1, a2
80003572: 863a         	mv	a2, a4
80003574: 00001097     	auipc	ra, 0x1
80003578: a48080e7     	jalr	-0x5b8(ra) <core::panicking::panic_bounds_check::h6aaee0d15e0261eb>

000000008000357c <.Lpcrel_hi93>:
8000357c: 00002517     	auipc	a0, 0x2
80003580: 4cc50713     	addi	a4, a0, 0x4cc
80003584: 8536         	mv	a0, a3
80003586: 85b2         	mv	a1, a2
80003588: 863a         	mv	a2, a4
8000358a: 00001097     	auipc	ra, 0x1
8000358e: a32080e7     	jalr	-0x5ce(ra) <core::panicking::panic_bounds_check::h6aaee0d15e0261eb>

0000000080003592 <.Lpcrel_hi92>:
80003592: 00002517     	auipc	a0, 0x2
80003596: 4b650713     	addi	a4, a0, 0x4b6
8000359a: 8536         	mv	a0, a3
8000359c: 85b2         	mv	a1, a2
8000359e: 863a         	mv	a2, a4
800035a0: 00001097     	auipc	ra, 0x1
800035a4: a1c080e7     	jalr	-0x5e4(ra) <core::panicking::panic_bounds_check::h6aaee0d15e0261eb>

00000000800035a8 <.Lpcrel_hi91>:
800035a8: 00002517     	auipc	a0, 0x2
800035ac: 4a050713     	addi	a4, a0, 0x4a0
800035b0: 8536         	mv	a0, a3
800035b2: 85b2         	mv	a1, a2
800035b4: 863a         	mv	a2, a4
800035b6: 00001097     	auipc	ra, 0x1
800035ba: a06080e7     	jalr	-0x5fa(ra) <core::panicking::panic_bounds_check::h6aaee0d15e0261eb>

00000000800035be <.Lpcrel_hi87>:
800035be: 00002517     	auipc	a0, 0x2
800035c2: 48a50713     	addi	a4, a0, 0x48a
800035c6: 8536         	mv	a0, a3
800035c8: 85b2         	mv	a1, a2
800035ca: 863a         	mv	a2, a4
800035cc: 00001097     	auipc	ra, 0x1
800035d0: 9f0080e7     	jalr	-0x610(ra) <core::panicking::panic_bounds_check::h6aaee0d15e0261eb>

00000000800035d4 <.Lpcrel_hi88>:
800035d4: 00002517     	auipc	a0, 0x2
800035d8: 47450693     	addi	a3, a0, 0x474
800035dc: 853a         	mv	a0, a4
800035de: 85b2         	mv	a1, a2
800035e0: 8636         	mv	a2, a3
800035e2: 00001097     	auipc	ra, 0x1
800035e6: 9da080e7     	jalr	-0x626(ra) <core::panicking::panic_bounds_check::h6aaee0d15e0261eb>

00000000800035ea <.Lpcrel_hi89>:
800035ea: 00002517     	auipc	a0, 0x2
800035ee: 45e50713     	addi	a4, a0, 0x45e
800035f2: 8536         	mv	a0, a3
800035f4: 85b2         	mv	a1, a2
800035f6: 863a         	mv	a2, a4
800035f8: 00001097     	auipc	ra, 0x1
800035fc: 9c4080e7     	jalr	-0x63c(ra) <core::panicking::panic_bounds_check::h6aaee0d15e0261eb>

0000000080003600 <core::fmt::num::imp::_$LT$impl$u20$core..fmt..Display$u20$for$u20$u32$GT$::fmt::hc19fd54e2a0ceeb1>:
80003600: 7139         	addi	sp, sp, -0x40
80003602: fc06         	sd	ra, 0x38(sp)
80003604: f822         	sd	s0, 0x30(sp)
80003606: f426         	sd	s1, 0x28(sp)
80003608: f04a         	sd	s2, 0x20(sp)
8000360a: ec4e         	sd	s3, 0x18(sp)
8000360c: 0080         	addi	s0, sp, 0x40
8000360e: 4108         	lw	a0, 0x0(a0)
80003610: 84ae         	mv	s1, a1
80003612: fce40913     	addi	s2, s0, -0x32
80003616: fce40593     	addi	a1, s0, -0x32
8000361a: 4629         	li	a2, 0xa
8000361c: 49a9         	li	s3, 0xa
8000361e: 00000097     	auipc	ra, 0x0
80003622: bd2080e7     	jalr	-0x42e(ra) <core::fmt::num::imp::_$LT$impl$u20$u32$GT$::_fmt_inner::h2c8ef1aec4279901>
80003626: 40a987b3     	sub	a5, s3, a0
8000362a: 00a90733     	add	a4, s2, a0
8000362e: 4585         	li	a1, 0x1
80003630: 4605         	li	a2, 0x1
80003632: 8526         	mv	a0, s1
80003634: 4681         	li	a3, 0x0
80003636: 00000097     	auipc	ra, 0x0
8000363a: 348080e7     	jalr	0x348(ra) <core::fmt::Formatter::pad_integral::h0745a9fd037e4d44>
8000363e: 70e2         	ld	ra, 0x38(sp)
80003640: 7442         	ld	s0, 0x30(sp)
80003642: 74a2         	ld	s1, 0x28(sp)
80003644: 7902         	ld	s2, 0x20(sp)
80003646: 69e2         	ld	s3, 0x18(sp)
80003648: 6121         	addi	sp, sp, 0x40
8000364a: 8082         	ret

000000008000364c <core::fmt::num::imp::_$LT$impl$u20$core..fmt..Display$u20$for$u20$usize$GT$::fmt::h566085f0242c3154>:
8000364c: 7139         	addi	sp, sp, -0x40
8000364e: fc06         	sd	ra, 0x38(sp)
80003650: f822         	sd	s0, 0x30(sp)
80003652: f426         	sd	s1, 0x28(sp)
80003654: f04a         	sd	s2, 0x20(sp)
80003656: ec4e         	sd	s3, 0x18(sp)
80003658: 0080         	addi	s0, sp, 0x40
8000365a: 6108         	ld	a0, 0x0(a0)
8000365c: 84ae         	mv	s1, a1
8000365e: fc440913     	addi	s2, s0, -0x3c
80003662: fc440593     	addi	a1, s0, -0x3c
80003666: 4651         	li	a2, 0x14
80003668: 49d1         	li	s3, 0x14
8000366a: 00000097     	auipc	ra, 0x0
8000366e: d92080e7     	jalr	-0x26e(ra) <core::fmt::num::imp::_$LT$impl$u20$u64$GT$::_fmt_inner::habf36a285bd59e0b>
80003672: 40a987b3     	sub	a5, s3, a0
80003676: 00a90733     	add	a4, s2, a0
8000367a: 4585         	li	a1, 0x1
8000367c: 4605         	li	a2, 0x1
8000367e: 8526         	mv	a0, s1
80003680: 4681         	li	a3, 0x0
80003682: 00000097     	auipc	ra, 0x0
80003686: 2fc080e7     	jalr	0x2fc(ra) <core::fmt::Formatter::pad_integral::h0745a9fd037e4d44>
8000368a: 70e2         	ld	ra, 0x38(sp)
8000368c: 7442         	ld	s0, 0x30(sp)
8000368e: 74a2         	ld	s1, 0x28(sp)
80003690: 7902         	ld	s2, 0x20(sp)
80003692: 69e2         	ld	s3, 0x18(sp)
80003694: 6121         	addi	sp, sp, 0x40
80003696: 8082         	ret

0000000080003698 <core::fmt::num::_$LT$impl$u20$core..fmt..LowerHex$u20$for$u20$usize$GT$::fmt::hcb99b156cc230e11>:
80003698: 1101         	addi	sp, sp, -0x20
8000369a: ec06         	sd	ra, 0x18(sp)
8000369c: e822         	sd	s0, 0x10(sp)
8000369e: 1000         	addi	s0, sp, 0x20
800036a0: 882e         	mv	a6, a1
800036a2: 4781         	li	a5, 0x0
800036a4: 6108         	ld	a0, 0x0(a0)
800036a6: fef40593     	addi	a1, s0, -0x11

00000000800036aa <.Lpcrel_hi209>:
800036aa: 00001617     	auipc	a2, 0x1
800036ae: 20660613     	addi	a2, a2, 0x206
800036b2: 00f57693     	andi	a3, a0, 0xf
800036b6: 96b2         	add	a3, a3, a2
800036b8: 0006c683     	lbu	a3, 0x0(a3)
800036bc: 8111         	srli	a0, a0, 0x4
800036be: 0785         	addi	a5, a5, 0x1
800036c0: 00d58023     	sb	a3, 0x0(a1)
800036c4: 15fd         	addi	a1, a1, -0x1
800036c6: f575         	bnez	a0, 0x800036b2 <.Lpcrel_hi209+0x8>
800036c8: fe040513     	addi	a0, s0, -0x20
800036cc: 8d1d         	sub	a0, a0, a5
800036ce: 01050713     	addi	a4, a0, 0x10

00000000800036d2 <.Lpcrel_hi210>:
800036d2: 00002517     	auipc	a0, 0x2
800036d6: 4585         	li	a1, 0x1
800036d8: 38e50613     	addi	a2, a0, 0x38e
800036dc: 4689         	li	a3, 0x2
800036de: 8542         	mv	a0, a6
800036e0: 00000097     	auipc	ra, 0x0
800036e4: 29e080e7     	jalr	0x29e(ra) <core::fmt::Formatter::pad_integral::h0745a9fd037e4d44>
800036e8: 60e2         	ld	ra, 0x18(sp)
800036ea: 6442         	ld	s0, 0x10(sp)
800036ec: 6105         	addi	sp, sp, 0x20
800036ee: 8082         	ret

00000000800036f0 <core::fmt::num::_$LT$impl$u20$core..fmt..UpperHex$u20$for$u20$u32$GT$::fmt::h07f6b7b2f3968c14>:
800036f0: 1101         	addi	sp, sp, -0x20
800036f2: ec06         	sd	ra, 0x18(sp)
800036f4: e822         	sd	s0, 0x10(sp)
800036f6: 1000         	addi	s0, sp, 0x20
800036f8: 882e         	mv	a6, a1
800036fa: 4781         	li	a5, 0x0
800036fc: 4110         	lw	a2, 0x0(a0)
800036fe: fef40513     	addi	a0, s0, -0x11

0000000080003702 <.Lpcrel_hi219>:
80003702: 00001597     	auipc	a1, 0x1
80003706: 18e58593     	addi	a1, a1, 0x18e
8000370a: 00f67693     	andi	a3, a2, 0xf
8000370e: 96ae         	add	a3, a3, a1
80003710: 0006c683     	lbu	a3, 0x0(a3)
80003714: 0046571b     	srliw	a4, a2, 0x4
80003718: 0785         	addi	a5, a5, 0x1
8000371a: 00d50023     	sb	a3, 0x0(a0)
8000371e: 157d         	addi	a0, a0, -0x1
80003720: 863a         	mv	a2, a4
80003722: f765         	bnez	a4, 0x8000370a <.Lpcrel_hi219+0x8>
80003724: fe840513     	addi	a0, s0, -0x18
80003728: 8d1d         	sub	a0, a0, a5
8000372a: 00850713     	addi	a4, a0, 0x8

000000008000372e <.Lpcrel_hi220>:
8000372e: 00002517     	auipc	a0, 0x2
80003732: 4585         	li	a1, 0x1
80003734: 33250613     	addi	a2, a0, 0x332
80003738: 4689         	li	a3, 0x2
8000373a: 8542         	mv	a0, a6
8000373c: 00000097     	auipc	ra, 0x0
80003740: 242080e7     	jalr	0x242(ra) <core::fmt::Formatter::pad_integral::h0745a9fd037e4d44>
80003744: 60e2         	ld	ra, 0x18(sp)
80003746: 6442         	ld	s0, 0x10(sp)
80003748: 6105         	addi	sp, sp, 0x20
8000374a: 8082         	ret

000000008000374c <core::fmt::write::hfd17e9e8e823b619>:
8000374c: 7119         	addi	sp, sp, -0x80
8000374e: fc86         	sd	ra, 0x78(sp)
80003750: f8a2         	sd	s0, 0x70(sp)
80003752: f4a6         	sd	s1, 0x68(sp)
80003754: f0ca         	sd	s2, 0x60(sp)
80003756: ecce         	sd	s3, 0x58(sp)
80003758: e8d2         	sd	s4, 0x50(sp)
8000375a: e4d6         	sd	s5, 0x48(sp)
8000375c: e0da         	sd	s6, 0x40(sp)
8000375e: fc5e         	sd	s7, 0x38(sp)
80003760: f862         	sd	s8, 0x30(sp)
80003762: f466         	sd	s9, 0x28(sp)
80003764: f06a         	sd	s10, 0x20(sp)
80003766: 0100         	addi	s0, sp, 0x80
80003768: 89b6         	mv	s3, a3
8000376a: 892e         	mv	s2, a1
8000376c: 0016f593     	andi	a1, a3, 0x1
80003770: 8a2a         	mv	s4, a0
80003772: 16059063     	bnez	a1, 0x800038d2 <core::fmt::write::hfd17e9e8e823b619+0x186>
80003776: 00064483     	lbu	s1, 0x0(a2)
8000377a: 18048163     	beqz	s1, 0x800038fc <core::fmt::write::hfd17e9e8e823b619+0x1b0>
8000377e: 4c81         	li	s9, 0x0
80003780: 01893b03     	ld	s6, 0x18(s2)
80003784: 08000b93     	li	s7, 0x80
80003788: 0c000c13     	li	s8, 0xc0
8000378c: 60000537     	lui	a0, 0x60000
80003790: 02050d13     	addi	s10, a0, 0x20
80003794: a805         	j	0x800037c4 <core::fmt::write::hfd17e9e8e823b619+0x78>
80003796: 004c9513     	slli	a0, s9, 0x4
8000379a: 00a985b3     	add	a1, s3, a0
8000379e: 6188         	ld	a0, 0x0(a1)
800037a0: 6590         	ld	a2, 0x8(a1)
800037a2: f9443423     	sd	s4, -0x78(s0)
800037a6: f9243823     	sd	s2, -0x70(s0)
800037aa: f9a43c23     	sd	s10, -0x68(s0)
800037ae: f8840593     	addi	a1, s0, -0x78
800037b2: 9602         	jalr	a2
800037b4: 14051663     	bnez	a0, 0x80003900 <core::fmt::write::hfd17e9e8e823b619+0x1b4>
800037b8: 0c85         	addi	s9, s9, 0x1
800037ba: 000ac483     	lbu	s1, 0x0(s5)
800037be: 8656         	mv	a2, s5
800037c0: 12048e63     	beqz	s1, 0x800038fc <core::fmt::write::hfd17e9e8e823b619+0x1b0>
800037c4: 03849513     	slli	a0, s1, 0x38
800037c8: 00160a93     	addi	s5, a2, 0x1
800037cc: 00054a63     	bltz	a0, 0x800037e0 <core::fmt::write::hfd17e9e8e823b619+0x94>
800037d0: 8552         	mv	a0, s4
800037d2: 85d6         	mv	a1, s5
800037d4: 8626         	mv	a2, s1
800037d6: 9b02         	jalr	s6
800037d8: 12051463     	bnez	a0, 0x80003900 <core::fmt::write::hfd17e9e8e823b619+0x1b4>
800037dc: 9aa6         	add	s5, s5, s1
800037de: bff1         	j	0x800037ba <core::fmt::write::hfd17e9e8e823b619+0x6e>
800037e0: 05748b63     	beq	s1, s7, 0x80003836 <core::fmt::write::hfd17e9e8e823b619+0xea>
800037e4: fb8489e3     	beq	s1, s8, 0x80003796 <core::fmt::write::hfd17e9e8e823b619+0x4a>
800037e8: 0014f513     	andi	a0, s1, 0x1
800037ec: 85ea         	mv	a1, s10
800037ee: c115         	beqz	a0, 0x80003812 <core::fmt::write::hfd17e9e8e823b619+0xc6>
800037f0: 00264503     	lbu	a0, 0x2(a2)
800037f4: 00164583     	lbu	a1, 0x1(a2)
800037f8: 00364683     	lbu	a3, 0x3(a2)
800037fc: 00464703     	lbu	a4, 0x4(a2)
80003800: 0522         	slli	a0, a0, 0x8
80003802: 8d4d         	or	a0, a0, a1
80003804: 06c2         	slli	a3, a3, 0x10
80003806: 0762         	slli	a4, a4, 0x18
80003808: 00d765b3     	or	a1, a4, a3
8000380c: 8dc9         	or	a1, a1, a0
8000380e: 00560a93     	addi	s5, a2, 0x5
80003812: 0024f513     	andi	a0, s1, 0x2
80003816: e121         	bnez	a0, 0x80003856 <core::fmt::write::hfd17e9e8e823b619+0x10a>
80003818: 4601         	li	a2, 0x0
8000381a: 0044f513     	andi	a0, s1, 0x4
8000381e: c531         	beqz	a0, 0x8000386a <core::fmt::write::hfd17e9e8e823b619+0x11e>
80003820: 001ac503     	lbu	a0, 0x1(s5)
80003824: 000ac683     	lbu	a3, 0x0(s5)
80003828: 0522         	slli	a0, a0, 0x8
8000382a: 8ec9         	or	a3, a3, a0
8000382c: 0a89         	addi	s5, s5, 0x2
8000382e: 0084f513     	andi	a0, s1, 0x8
80003832: e121         	bnez	a0, 0x80003872 <core::fmt::write::hfd17e9e8e823b619+0x126>
80003834: a0b9         	j	0x80003882 <core::fmt::write::hfd17e9e8e823b619+0x136>
80003836: 00264503     	lbu	a0, 0x2(a2)
8000383a: 00164583     	lbu	a1, 0x1(a2)
8000383e: 0522         	slli	a0, a0, 0x8
80003840: 00b56ab3     	or	s5, a0, a1
80003844: 00360493     	addi	s1, a2, 0x3
80003848: 8552         	mv	a0, s4
8000384a: 85a6         	mv	a1, s1
8000384c: 8656         	mv	a2, s5
8000384e: 9b02         	jalr	s6
80003850: e945         	bnez	a0, 0x80003900 <core::fmt::write::hfd17e9e8e823b619+0x1b4>
80003852: 9aa6         	add	s5, s5, s1
80003854: b79d         	j	0x800037ba <core::fmt::write::hfd17e9e8e823b619+0x6e>
80003856: 001ac503     	lbu	a0, 0x1(s5)
8000385a: 000ac603     	lbu	a2, 0x0(s5)
8000385e: 0522         	slli	a0, a0, 0x8
80003860: 8e49         	or	a2, a2, a0
80003862: 0a89         	addi	s5, s5, 0x2
80003864: 0044f513     	andi	a0, s1, 0x4
80003868: fd45         	bnez	a0, 0x80003820 <core::fmt::write::hfd17e9e8e823b619+0xd4>
8000386a: 4681         	li	a3, 0x0
8000386c: 0084f513     	andi	a0, s1, 0x8
80003870: c909         	beqz	a0, 0x80003882 <core::fmt::write::hfd17e9e8e823b619+0x136>
80003872: 001ac503     	lbu	a0, 0x1(s5)
80003876: 000ac703     	lbu	a4, 0x0(s5)
8000387a: 0522         	slli	a0, a0, 0x8
8000387c: 00e56cb3     	or	s9, a0, a4
80003880: 0a89         	addi	s5, s5, 0x2
80003882: 0104f513     	andi	a0, s1, 0x10
80003886: ed15         	bnez	a0, 0x800038c2 <core::fmt::write::hfd17e9e8e823b619+0x176>
80003888: 0204f513     	andi	a0, s1, 0x20
8000388c: c509         	beqz	a0, 0x80003896 <core::fmt::write::hfd17e9e8e823b619+0x14a>
8000388e: 0692         	slli	a3, a3, 0x4
80003890: 96ce         	add	a3, a3, s3
80003892: 0086d683     	lhu	a3, 0x8(a3)
80003896: 004c9513     	slli	a0, s9, 0x4
8000389a: 00a98733     	add	a4, s3, a0
8000389e: 6308         	ld	a0, 0x0(a4)
800038a0: 6718         	ld	a4, 0x8(a4)
800038a2: f9443423     	sd	s4, -0x78(s0)
800038a6: f9243823     	sd	s2, -0x70(s0)
800038aa: f8b42c23     	sw	a1, -0x68(s0)
800038ae: f8c41e23     	sh	a2, -0x64(s0)
800038b2: f8d41f23     	sh	a3, -0x62(s0)
800038b6: f8840593     	addi	a1, s0, -0x78
800038ba: 9702         	jalr	a4
800038bc: ee050ee3     	beqz	a0, 0x800037b8 <core::fmt::write::hfd17e9e8e823b619+0x6c>
800038c0: a081         	j	0x80003900 <core::fmt::write::hfd17e9e8e823b619+0x1b4>
800038c2: 0612         	slli	a2, a2, 0x4
800038c4: 964e         	add	a2, a2, s3
800038c6: 00865603     	lhu	a2, 0x8(a2)
800038ca: 0204f513     	andi	a0, s1, 0x20
800038ce: f161         	bnez	a0, 0x8000388e <core::fmt::write::hfd17e9e8e823b619+0x142>
800038d0: b7d9         	j	0x80003896 <core::fmt::write::hfd17e9e8e823b619+0x14a>
800038d2: 01893783     	ld	a5, 0x18(s2)
800038d6: 0019d693     	srli	a3, s3, 0x1
800038da: 8552         	mv	a0, s4
800038dc: 85b2         	mv	a1, a2
800038de: 8636         	mv	a2, a3
800038e0: 70e6         	ld	ra, 0x78(sp)
800038e2: 7446         	ld	s0, 0x70(sp)
800038e4: 74a6         	ld	s1, 0x68(sp)
800038e6: 7906         	ld	s2, 0x60(sp)
800038e8: 69e6         	ld	s3, 0x58(sp)
800038ea: 6a46         	ld	s4, 0x50(sp)
800038ec: 6aa6         	ld	s5, 0x48(sp)
800038ee: 6b06         	ld	s6, 0x40(sp)
800038f0: 7be2         	ld	s7, 0x38(sp)
800038f2: 7c42         	ld	s8, 0x30(sp)
800038f4: 7ca2         	ld	s9, 0x28(sp)
800038f6: 7d02         	ld	s10, 0x20(sp)
800038f8: 6109         	addi	sp, sp, 0x80
800038fa: 8782         	jr	a5
800038fc: 4501         	li	a0, 0x0
800038fe: a011         	j	0x80003902 <core::fmt::write::hfd17e9e8e823b619+0x1b6>
80003900: 4505         	li	a0, 0x1
80003902: 70e6         	ld	ra, 0x78(sp)
80003904: 7446         	ld	s0, 0x70(sp)
80003906: 74a6         	ld	s1, 0x68(sp)
80003908: 7906         	ld	s2, 0x60(sp)
8000390a: 69e6         	ld	s3, 0x58(sp)
8000390c: 6a46         	ld	s4, 0x50(sp)
8000390e: 6aa6         	ld	s5, 0x48(sp)
80003910: 6b06         	ld	s6, 0x40(sp)
80003912: 7be2         	ld	s7, 0x38(sp)
80003914: 7c42         	ld	s8, 0x30(sp)
80003916: 7ca2         	ld	s9, 0x28(sp)
80003918: 7d02         	ld	s10, 0x20(sp)
8000391a: 6109         	addi	sp, sp, 0x80
8000391c: 8082         	ret

000000008000391e <core::fmt::Formatter::pad_integral::write_prefix::hfc34f482b9af976a>:
8000391e: 7179         	addi	sp, sp, -0x30
80003920: f406         	sd	ra, 0x28(sp)
80003922: f022         	sd	s0, 0x20(sp)
80003924: ec26         	sd	s1, 0x18(sp)
80003926: e84a         	sd	s2, 0x10(sp)
80003928: e44e         	sd	s3, 0x8(sp)
8000392a: e052         	sd	s4, 0x0(sp)
8000392c: 1800         	addi	s0, sp, 0x30
8000392e: 893a         	mv	s2, a4
80003930: 8a36         	mv	s4, a3
80003932: 89ae         	mv	s3, a1
80003934: 001105b7     	lui	a1, 0x110
80003938: 00b60c63     	beq	a2, a1, 0x80003950 <core::fmt::Formatter::pad_integral::write_prefix::hfc34f482b9af976a+0x32>
8000393c: 0209b683     	ld	a3, 0x20(s3)
80003940: 84aa         	mv	s1, a0
80003942: 85b2         	mv	a1, a2
80003944: 9682         	jalr	a3
80003946: 85aa         	mv	a1, a0
80003948: 8526         	mv	a0, s1
8000394a: c199         	beqz	a1, 0x80003950 <core::fmt::Formatter::pad_integral::write_prefix::hfc34f482b9af976a+0x32>
8000394c: 4505         	li	a0, 0x1
8000394e: a005         	j	0x8000396e <core::fmt::Formatter::pad_integral::write_prefix::hfc34f482b9af976a+0x50>
80003950: 000a0e63     	beqz	s4, 0x8000396c <core::fmt::Formatter::pad_integral::write_prefix::hfc34f482b9af976a+0x4e>
80003954: 0189b783     	ld	a5, 0x18(s3)
80003958: 85d2         	mv	a1, s4
8000395a: 864a         	mv	a2, s2
8000395c: 70a2         	ld	ra, 0x28(sp)
8000395e: 7402         	ld	s0, 0x20(sp)
80003960: 64e2         	ld	s1, 0x18(sp)
80003962: 6942         	ld	s2, 0x10(sp)
80003964: 69a2         	ld	s3, 0x8(sp)
80003966: 6a02         	ld	s4, 0x0(sp)
80003968: 6145         	addi	sp, sp, 0x30
8000396a: 8782         	jr	a5
8000396c: 4501         	li	a0, 0x0
8000396e: 70a2         	ld	ra, 0x28(sp)
80003970: 7402         	ld	s0, 0x20(sp)
80003972: 64e2         	ld	s1, 0x18(sp)
80003974: 6942         	ld	s2, 0x10(sp)
80003976: 69a2         	ld	s3, 0x8(sp)
80003978: 6a02         	ld	s4, 0x0(sp)
8000397a: 6145         	addi	sp, sp, 0x30
8000397c: 8082         	ret

000000008000397e <core::fmt::Formatter::pad_integral::h0745a9fd037e4d44>:
8000397e: 7119         	addi	sp, sp, -0x80
80003980: fc86         	sd	ra, 0x78(sp)
80003982: f8a2         	sd	s0, 0x70(sp)
80003984: f4a6         	sd	s1, 0x68(sp)
80003986: f0ca         	sd	s2, 0x60(sp)
80003988: ecce         	sd	s3, 0x58(sp)
8000398a: e8d2         	sd	s4, 0x50(sp)
8000398c: e4d6         	sd	s5, 0x48(sp)
8000398e: e0da         	sd	s6, 0x40(sp)
80003990: fc5e         	sd	s7, 0x38(sp)
80003992: f862         	sd	s8, 0x30(sp)
80003994: f466         	sd	s9, 0x28(sp)
80003996: f06a         	sd	s10, 0x20(sp)
80003998: ec6e         	sd	s11, 0x18(sp)
8000399a: 0100         	addi	s0, sp, 0x80
8000399c: 89be         	mv	s3, a5
8000399e: 8d3a         	mv	s10, a4
800039a0: 8a36         	mv	s4, a3
800039a2: 8ab2         	mv	s5, a2
800039a4: 8baa         	mv	s7, a0
800039a6: cdbd         	beqz	a1, 0x80003a24 <core::fmt::Formatter::pad_integral::h0745a9fd037e4d44+0xa6>
800039a8: 010bec03     	lwu	s8, 0x10(s7)
800039ac: 00200537     	lui	a0, 0x200
800039b0: 00ac7533     	and	a0, s8, a0
800039b4: 00110b37     	lui	s6, 0x110
800039b8: c119         	beqz	a0, 0x800039be <core::fmt::Formatter::pad_integral::h0745a9fd037e4d44+0x40>
800039ba: 02b00b13     	li	s6, 0x2b
800039be: 8155         	srli	a0, a0, 0x15
800039c0: 00a98cb3     	add	s9, s3, a0
800039c4: 028c1513     	slli	a0, s8, 0x28
800039c8: 06055863     	bgez	a0, 0x80003a38 <core::fmt::Formatter::pad_integral::h0745a9fd037e4d44+0xba>
800039cc: 02000513     	li	a0, 0x20
800039d0: 0aaa7a63     	bgeu	s4, a0, 0x80003a84 <core::fmt::Formatter::pad_integral::h0745a9fd037e4d44+0x106>
800039d4: 4501         	li	a0, 0x0
800039d6: 000a0f63     	beqz	s4, 0x800039f4 <core::fmt::Formatter::pad_integral::h0745a9fd037e4d44+0x76>
800039da: 014a85b3     	add	a1, s5, s4
800039de: 8656         	mv	a2, s5
800039e0: 00060683     	lb	a3, 0x0(a2)
800039e4: 0605         	addi	a2, a2, 0x1
800039e6: fc06a693     	slti	a3, a3, -0x40
800039ea: 0016c693     	xori	a3, a3, 0x1
800039ee: 9536         	add	a0, a0, a3
800039f0: feb618e3     	bne	a2, a1, 0x800039e0 <core::fmt::Formatter::pad_integral::h0745a9fd037e4d44+0x62>
800039f4: 9caa         	add	s9, s9, a0
800039f6: 014bd903     	lhu	s2, 0x14(s7)
800039fa: 052cf463     	bgeu	s9, s2, 0x80003a42 <core::fmt::Formatter::pad_integral::h0745a9fd037e4d44+0xc4>
800039fe: 027c1513     	slli	a0, s8, 0x27
80003a02: f9a43823     	sd	s10, -0x70(s0)
80003a06: 08054b63     	bltz	a0, 0x80003a9c <core::fmt::Formatter::pad_integral::h0745a9fd037e4d44+0x11e>
80003a0a: 41990633     	sub	a2, s2, s9
80003a0e: 021c1513     	slli	a0, s8, 0x21
80003a12: 9179         	srli	a0, a0, 0x3e
80003a14: 4585         	li	a1, 0x1
80003a16: 1c2e         	slli	s8, s8, 0x2b
80003a18: 0ea5c263     	blt	a1, a0, 0x80003afc <core::fmt::Formatter::pad_integral::h0745a9fd037e4d44+0x17e>
80003a1c: 10051563     	bnez	a0, 0x80003b26 <core::fmt::Formatter::pad_integral::h0745a9fd037e4d44+0x1a8>
80003a20: 4d81         	li	s11, 0x0
80003a22: a219         	j	0x80003b28 <core::fmt::Formatter::pad_integral::h0745a9fd037e4d44+0x1aa>
80003a24: 010bac03     	lw	s8, 0x10(s7)
80003a28: 00198c93     	addi	s9, s3, 0x1
80003a2c: 02d00b13     	li	s6, 0x2d
80003a30: 028c1513     	slli	a0, s8, 0x28
80003a34: f8054ce3     	bltz	a0, 0x800039cc <core::fmt::Formatter::pad_integral::h0745a9fd037e4d44+0x4e>
80003a38: 4a81         	li	s5, 0x0
80003a3a: 014bd903     	lhu	s2, 0x14(s7)
80003a3e: fd2ce0e3     	bltu	s9, s2, 0x800039fe <core::fmt::Formatter::pad_integral::h0745a9fd037e4d44+0x80>
80003a42: 000bbc03     	ld	s8, 0x0(s7)
80003a46: 008bb483     	ld	s1, 0x8(s7)
80003a4a: 8562         	mv	a0, s8
80003a4c: 85a6         	mv	a1, s1
80003a4e: 865a         	mv	a2, s6
80003a50: 86d6         	mv	a3, s5
80003a52: 8752         	mv	a4, s4
80003a54: 00000097     	auipc	ra, 0x0
80003a58: eca080e7     	jalr	-0x136(ra) <core::fmt::Formatter::pad_integral::write_prefix::hfc34f482b9af976a>
80003a5c: ed75         	bnez	a0, 0x80003b58 <core::fmt::Formatter::pad_integral::h0745a9fd037e4d44+0x1da>
80003a5e: 6c9c         	ld	a5, 0x18(s1)
80003a60: 8562         	mv	a0, s8
80003a62: 85ea         	mv	a1, s10
80003a64: 864e         	mv	a2, s3
80003a66: 70e6         	ld	ra, 0x78(sp)
80003a68: 7446         	ld	s0, 0x70(sp)
80003a6a: 74a6         	ld	s1, 0x68(sp)
80003a6c: 7906         	ld	s2, 0x60(sp)
80003a6e: 69e6         	ld	s3, 0x58(sp)
80003a70: 6a46         	ld	s4, 0x50(sp)
80003a72: 6aa6         	ld	s5, 0x48(sp)
80003a74: 6b06         	ld	s6, 0x40(sp)
80003a76: 7be2         	ld	s7, 0x38(sp)
80003a78: 7c42         	ld	s8, 0x30(sp)
80003a7a: 7ca2         	ld	s9, 0x28(sp)
80003a7c: 7d02         	ld	s10, 0x20(sp)
80003a7e: 6de2         	ld	s11, 0x18(sp)
80003a80: 6109         	addi	sp, sp, 0x80
80003a82: 8782         	jr	a5
80003a84: 8556         	mv	a0, s5
80003a86: 85d2         	mv	a1, s4
80003a88: 00000097     	auipc	ra, 0x0
80003a8c: 30c080e7     	jalr	0x30c(ra) <core::str::count::do_count_chars::h6ce55074ab2fe9d1>
80003a90: 9caa         	add	s9, s9, a0
80003a92: 014bd903     	lhu	s2, 0x14(s7)
80003a96: fb2cf6e3     	bgeu	s9, s2, 0x80003a42 <core::fmt::Formatter::pad_integral::h0745a9fd037e4d44+0xc4>
80003a9a: b795         	j	0x800039fe <core::fmt::Formatter::pad_integral::h0745a9fd037e4d44+0x80>
80003a9c: 010bbd03     	ld	s10, 0x10(s7)
80003aa0: 000bbc03     	ld	s8, 0x0(s7)
80003aa4: 008bbd83     	ld	s11, 0x8(s7)
80003aa8: 9fe00537     	lui	a0, 0x9fe00
80003aac: 200005b7     	lui	a1, 0x20000
80003ab0: 00ad7533     	and	a0, s10, a0
80003ab4: 03058593     	addi	a1, a1, 0x30
80003ab8: 8d4d         	or	a0, a0, a1
80003aba: 00aba823     	sw	a0, 0x10(s7)
80003abe: 8562         	mv	a0, s8
80003ac0: 85ee         	mv	a1, s11
80003ac2: 865a         	mv	a2, s6
80003ac4: 86d6         	mv	a3, s5
80003ac6: 8752         	mv	a4, s4
80003ac8: 00000097     	auipc	ra, 0x0
80003acc: e56080e7     	jalr	-0x1aa(ra) <core::fmt::Formatter::pad_integral::write_prefix::hfc34f482b9af976a>
80003ad0: 4a05         	li	s4, 0x1
80003ad2: e541         	bnez	a0, 0x80003b5a <core::fmt::Formatter::pad_integral::h0745a9fd037e4d44+0x1dc>
80003ad4: 4481         	li	s1, 0x0
80003ad6: 41990533     	sub	a0, s2, s9
80003ada: 6941         	lui	s2, 0x10
80003adc: 197d         	addi	s2, s2, -0x1
80003ade: 01257ab3     	and	s5, a0, s2
80003ae2: 0124f533     	and	a0, s1, s2
80003ae6: 03557463     	bgeu	a0, s5, 0x80003b0e <core::fmt::Formatter::pad_integral::h0745a9fd037e4d44+0x190>
80003aea: 020db603     	ld	a2, 0x20(s11)
80003aee: 0485         	addi	s1, s1, 0x1
80003af0: 03000593     	li	a1, 0x30
80003af4: 8562         	mv	a0, s8
80003af6: 9602         	jalr	a2
80003af8: d56d         	beqz	a0, 0x80003ae2 <core::fmt::Formatter::pad_integral::h0745a9fd037e4d44+0x164>
80003afa: a085         	j	0x80003b5a <core::fmt::Formatter::pad_integral::h0745a9fd037e4d44+0x1dc>
80003afc: 4589         	li	a1, 0x2
80003afe: 8db2         	mv	s11, a2
80003b00: 02b51463     	bne	a0, a1, 0x80003b28 <core::fmt::Formatter::pad_integral::h0745a9fd037e4d44+0x1aa>
80003b04: 03061513     	slli	a0, a2, 0x30
80003b08: 03155d93     	srli	s11, a0, 0x31
80003b0c: a831         	j	0x80003b28 <core::fmt::Formatter::pad_integral::h0745a9fd037e4d44+0x1aa>
80003b0e: 018db683     	ld	a3, 0x18(s11)
80003b12: 8562         	mv	a0, s8
80003b14: f9043583     	ld	a1, -0x70(s0)
80003b18: 864e         	mv	a2, s3
80003b1a: 9682         	jalr	a3
80003b1c: ed1d         	bnez	a0, 0x80003b5a <core::fmt::Formatter::pad_integral::h0745a9fd037e4d44+0x1dc>
80003b1e: 4a01         	li	s4, 0x0
80003b20: 01abb823     	sd	s10, 0x10(s7)
80003b24: a81d         	j	0x80003b5a <core::fmt::Formatter::pad_integral::h0745a9fd037e4d44+0x1dc>
80003b26: 8db2         	mv	s11, a2
80003b28: f8c43423     	sd	a2, -0x78(s0)
80003b2c: 4d01         	li	s10, 0x0
80003b2e: 02bc5c13     	srli	s8, s8, 0x2b
80003b32: 000bbc83     	ld	s9, 0x0(s7)
80003b36: 008bbb83     	ld	s7, 0x8(s7)
80003b3a: 64c1         	lui	s1, 0x10
80003b3c: 14fd         	addi	s1, s1, -0x1
80003b3e: 009df933     	and	s2, s11, s1
80003b42: 009d7533     	and	a0, s10, s1
80003b46: 03257a63     	bgeu	a0, s2, 0x80003b7a <core::fmt::Formatter::pad_integral::h0745a9fd037e4d44+0x1fc>
80003b4a: 020bb603     	ld	a2, 0x20(s7)
80003b4e: 0d05         	addi	s10, s10, 0x1
80003b50: 8566         	mv	a0, s9
80003b52: 85e2         	mv	a1, s8
80003b54: 9602         	jalr	a2
80003b56: d575         	beqz	a0, 0x80003b42 <core::fmt::Formatter::pad_integral::h0745a9fd037e4d44+0x1c4>
80003b58: 4a05         	li	s4, 0x1
80003b5a: 8552         	mv	a0, s4
80003b5c: 70e6         	ld	ra, 0x78(sp)
80003b5e: 7446         	ld	s0, 0x70(sp)
80003b60: 74a6         	ld	s1, 0x68(sp)
80003b62: 7906         	ld	s2, 0x60(sp)
80003b64: 69e6         	ld	s3, 0x58(sp)
80003b66: 6a46         	ld	s4, 0x50(sp)
80003b68: 6aa6         	ld	s5, 0x48(sp)
80003b6a: 6b06         	ld	s6, 0x40(sp)
80003b6c: 7be2         	ld	s7, 0x38(sp)
80003b6e: 7c42         	ld	s8, 0x30(sp)
80003b70: 7ca2         	ld	s9, 0x28(sp)
80003b72: 7d02         	ld	s10, 0x20(sp)
80003b74: 6de2         	ld	s11, 0x18(sp)
80003b76: 6109         	addi	sp, sp, 0x80
80003b78: 8082         	ret
80003b7a: 8566         	mv	a0, s9
80003b7c: 85de         	mv	a1, s7
80003b7e: 865a         	mv	a2, s6
80003b80: 86d6         	mv	a3, s5
80003b82: 8752         	mv	a4, s4
80003b84: 00000097     	auipc	ra, 0x0
80003b88: d9a080e7     	jalr	-0x266(ra) <core::fmt::Formatter::pad_integral::write_prefix::hfc34f482b9af976a>
80003b8c: 4a05         	li	s4, 0x1
80003b8e: f571         	bnez	a0, 0x80003b5a <core::fmt::Formatter::pad_integral::h0745a9fd037e4d44+0x1dc>
80003b90: 018bb683     	ld	a3, 0x18(s7)
80003b94: 8566         	mv	a0, s9
80003b96: f9043583     	ld	a1, -0x70(s0)
80003b9a: 864e         	mv	a2, s3
80003b9c: 9682         	jalr	a3
80003b9e: fd55         	bnez	a0, 0x80003b5a <core::fmt::Formatter::pad_integral::h0745a9fd037e4d44+0x1dc>
80003ba0: 4481         	li	s1, 0x0
80003ba2: f8843503     	ld	a0, -0x78(s0)
80003ba6: 41b50533     	sub	a0, a0, s11
80003baa: 6941         	lui	s2, 0x10
80003bac: 197d         	addi	s2, s2, -0x1
80003bae: 012579b3     	and	s3, a0, s2
80003bb2: 0124f533     	and	a0, s1, s2
80003bb6: 01353a33     	sltu	s4, a0, s3
80003bba: fb3570e3     	bgeu	a0, s3, 0x80003b5a <core::fmt::Formatter::pad_integral::h0745a9fd037e4d44+0x1dc>
80003bbe: 020bb603     	ld	a2, 0x20(s7)
80003bc2: 0485         	addi	s1, s1, 0x1
80003bc4: 8566         	mv	a0, s9
80003bc6: 85e2         	mv	a1, s8
80003bc8: 9602         	jalr	a2
80003bca: d565         	beqz	a0, 0x80003bb2 <core::fmt::Formatter::pad_integral::h0745a9fd037e4d44+0x234>
80003bcc: b779         	j	0x80003b5a <core::fmt::Formatter::pad_integral::h0745a9fd037e4d44+0x1dc>

0000000080003bce <core::fmt::Formatter::pad::h239e525174ab4a17>:
80003bce: 711d         	addi	sp, sp, -0x60
80003bd0: ec86         	sd	ra, 0x58(sp)
80003bd2: e8a2         	sd	s0, 0x50(sp)
80003bd4: e4a6         	sd	s1, 0x48(sp)
80003bd6: e0ca         	sd	s2, 0x40(sp)
80003bd8: fc4e         	sd	s3, 0x38(sp)
80003bda: f852         	sd	s4, 0x30(sp)
80003bdc: f456         	sd	s5, 0x28(sp)
80003bde: f05a         	sd	s6, 0x20(sp)
80003be0: ec5e         	sd	s7, 0x18(sp)
80003be2: e862         	sd	s8, 0x10(sp)
80003be4: e466         	sd	s9, 0x8(sp)
80003be6: e06a         	sd	s10, 0x0(sp)
80003be8: 1080         	addi	s0, sp, 0x60
80003bea: 89b2         	mv	s3, a2
80003bec: 01056483     	lwu	s1, 0x10(a0)
80003bf0: 18000637     	lui	a2, 0x18000
80003bf4: 8e65         	and	a2, a2, s1
80003bf6: 892e         	mv	s2, a1
80003bf8: ce45         	beqz	a2, 0x80003cb0 <core::fmt::Formatter::pad::h239e525174ab4a17+0xe2>
80003bfa: 02349593     	slli	a1, s1, 0x23
80003bfe: 0405c863     	bltz	a1, 0x80003c4e <core::fmt::Formatter::pad::h239e525174ab4a17+0x80>
80003c02: 02000593     	li	a1, 0x20
80003c06: 0cb9f863     	bgeu	s3, a1, 0x80003cd6 <core::fmt::Formatter::pad::h239e525174ab4a17+0x108>
80003c0a: 4581         	li	a1, 0x0
80003c0c: 00098f63     	beqz	s3, 0x80003c2a <core::fmt::Formatter::pad::h239e525174ab4a17+0x5c>
80003c10: 01390633     	add	a2, s2, s3
80003c14: 86ca         	mv	a3, s2
80003c16: 00068703     	lb	a4, 0x0(a3)
80003c1a: 0685         	addi	a3, a3, 0x1
80003c1c: fc072713     	slti	a4, a4, -0x40
80003c20: 00174713     	xori	a4, a4, 0x1
80003c24: 95ba         	add	a1, a1, a4
80003c26: fec698e3     	bne	a3, a2, 0x80003c16 <core::fmt::Formatter::pad::h239e525174ab4a17+0x48>
80003c2a: 01455603     	lhu	a2, 0x14(a0)
80003c2e: 08c5f163     	bgeu	a1, a2, 0x80003cb0 <core::fmt::Formatter::pad::h239e525174ab4a17+0xe2>
80003c32: 4b81         	li	s7, 0x0
80003c34: 40b60b33     	sub	s6, a2, a1
80003c38: 02149613     	slli	a2, s1, 0x21
80003c3c: 9279         	srli	a2, a2, 0x3e
80003c3e: 4685         	li	a3, 0x1
80003c40: 02b49593     	slli	a1, s1, 0x2b
80003c44: 0ac6c763     	blt	a3, a2, 0x80003cf2 <core::fmt::Formatter::pad::h239e525174ab4a17+0x124>
80003c48: ce45         	beqz	a2, 0x80003d00 <core::fmt::Formatter::pad::h239e525174ab4a17+0x132>
80003c4a: 8bda         	mv	s7, s6
80003c4c: a855         	j	0x80003d00 <core::fmt::Formatter::pad::h239e525174ab4a17+0x132>
80003c4e: 01655583     	lhu	a1, 0x16(a0)
80003c52: 10058563     	beqz	a1, 0x80003d5c <core::fmt::Formatter::pad::h239e525174ab4a17+0x18e>
80003c56: 013906b3     	add	a3, s2, s3
80003c5a: 0e000893     	li	a7, 0xe0
80003c5e: 0f000813     	li	a6, 0xf0
80003c62: 87ca         	mv	a5, s2
80003c64: 862e         	mv	a2, a1
80003c66: 4981         	li	s3, 0x0
80003c68: a811         	j	0x80003c7c <core::fmt::Formatter::pad::h239e525174ab4a17+0xae>
80003c6a: 00178713     	addi	a4, a5, 0x1
80003c6e: 413787b3     	sub	a5, a5, s3
80003c72: 167d         	addi	a2, a2, -0x1
80003c74: 40f709b3     	sub	s3, a4, a5
80003c78: 87ba         	mv	a5, a4
80003c7a: c615         	beqz	a2, 0x80003ca6 <core::fmt::Formatter::pad::h239e525174ab4a17+0xd8>
80003c7c: 02d78563     	beq	a5, a3, 0x80003ca6 <core::fmt::Formatter::pad::h239e525174ab4a17+0xd8>
80003c80: 00078703     	lb	a4, 0x0(a5)
80003c84: fe0753e3     	bgez	a4, 0x80003c6a <core::fmt::Formatter::pad::h239e525174ab4a17+0x9c>
80003c88: 0ff77713     	zext.b	a4, a4
80003c8c: 01176763     	bltu	a4, a7, 0x80003c9a <core::fmt::Formatter::pad::h239e525174ab4a17+0xcc>
80003c90: 01076863     	bltu	a4, a6, 0x80003ca0 <core::fmt::Formatter::pad::h239e525174ab4a17+0xd2>
80003c94: 00478713     	addi	a4, a5, 0x4
80003c98: bfd9         	j	0x80003c6e <core::fmt::Formatter::pad::h239e525174ab4a17+0xa0>
80003c9a: 00278713     	addi	a4, a5, 0x2
80003c9e: bfc1         	j	0x80003c6e <core::fmt::Formatter::pad::h239e525174ab4a17+0xa0>
80003ca0: 00378713     	addi	a4, a5, 0x3
80003ca4: b7e9         	j	0x80003c6e <core::fmt::Formatter::pad::h239e525174ab4a17+0xa0>
80003ca6: 8d91         	sub	a1, a1, a2
80003ca8: 01455603     	lhu	a2, 0x14(a0)
80003cac: f8c5e3e3     	bltu	a1, a2, 0x80003c32 <core::fmt::Formatter::pad::h239e525174ab4a17+0x64>
80003cb0: 650c         	ld	a1, 0x8(a0)
80003cb2: 6108         	ld	a0, 0x0(a0)
80003cb4: 6d9c         	ld	a5, 0x18(a1)
80003cb6: 85ca         	mv	a1, s2
80003cb8: 864e         	mv	a2, s3
80003cba: 60e6         	ld	ra, 0x58(sp)
80003cbc: 6446         	ld	s0, 0x50(sp)
80003cbe: 64a6         	ld	s1, 0x48(sp)
80003cc0: 6906         	ld	s2, 0x40(sp)
80003cc2: 79e2         	ld	s3, 0x38(sp)
80003cc4: 7a42         	ld	s4, 0x30(sp)
80003cc6: 7aa2         	ld	s5, 0x28(sp)
80003cc8: 7b02         	ld	s6, 0x20(sp)
80003cca: 6be2         	ld	s7, 0x18(sp)
80003ccc: 6c42         	ld	s8, 0x10(sp)
80003cce: 6ca2         	ld	s9, 0x8(sp)
80003cd0: 6d02         	ld	s10, 0x0(sp)
80003cd2: 6125         	addi	sp, sp, 0x60
80003cd4: 8782         	jr	a5
80003cd6: 8a2a         	mv	s4, a0
80003cd8: 854a         	mv	a0, s2
80003cda: 85ce         	mv	a1, s3
80003cdc: 00000097     	auipc	ra, 0x0
80003ce0: 0b8080e7     	jalr	0xb8(ra) <core::str::count::do_count_chars::h6ce55074ab2fe9d1>
80003ce4: 85aa         	mv	a1, a0
80003ce6: 8552         	mv	a0, s4
80003ce8: 014a5603     	lhu	a2, 0x14(s4)
80003cec: fcc5f2e3     	bgeu	a1, a2, 0x80003cb0 <core::fmt::Formatter::pad::h239e525174ab4a17+0xe2>
80003cf0: b789         	j	0x80003c32 <core::fmt::Formatter::pad::h239e525174ab4a17+0x64>
80003cf2: 4689         	li	a3, 0x2
80003cf4: 00d61663     	bne	a2, a3, 0x80003d00 <core::fmt::Formatter::pad::h239e525174ab4a17+0x132>
80003cf8: 030b1613     	slli	a2, s6, 0x30
80003cfc: 03165b93     	srli	s7, a2, 0x31
80003d00: 4481         	li	s1, 0x0
80003d02: 02b5da13     	srli	s4, a1, 0x2b
80003d06: 00053a83     	ld	s5, 0x0(a0)
80003d0a: 00853c03     	ld	s8, 0x8(a0)
80003d0e: 6cc1         	lui	s9, 0x10
80003d10: 1cfd         	addi	s9, s9, -0x1
80003d12: 019bfd33     	and	s10, s7, s9
80003d16: 0194f533     	and	a0, s1, s9
80003d1a: 01a57a63     	bgeu	a0, s10, 0x80003d2e <core::fmt::Formatter::pad::h239e525174ab4a17+0x160>
80003d1e: 020c3603     	ld	a2, 0x20(s8)
80003d22: 0485         	addi	s1, s1, 0x1
80003d24: 8556         	mv	a0, s5
80003d26: 85d2         	mv	a1, s4
80003d28: 9602         	jalr	a2
80003d2a: d575         	beqz	a0, 0x80003d16 <core::fmt::Formatter::pad::h239e525174ab4a17+0x148>
80003d2c: a801         	j	0x80003d3c <core::fmt::Formatter::pad::h239e525174ab4a17+0x16e>
80003d2e: 018c3683     	ld	a3, 0x18(s8)
80003d32: 8556         	mv	a0, s5
80003d34: 85ca         	mv	a1, s2
80003d36: 864e         	mv	a2, s3
80003d38: 9682         	jalr	a3
80003d3a: c905         	beqz	a0, 0x80003d6a <core::fmt::Formatter::pad::h239e525174ab4a17+0x19c>
80003d3c: 4905         	li	s2, 0x1
80003d3e: 854a         	mv	a0, s2
80003d40: 60e6         	ld	ra, 0x58(sp)
80003d42: 6446         	ld	s0, 0x50(sp)
80003d44: 64a6         	ld	s1, 0x48(sp)
80003d46: 6906         	ld	s2, 0x40(sp)
80003d48: 79e2         	ld	s3, 0x38(sp)
80003d4a: 7a42         	ld	s4, 0x30(sp)
80003d4c: 7aa2         	ld	s5, 0x28(sp)
80003d4e: 7b02         	ld	s6, 0x20(sp)
80003d50: 6be2         	ld	s7, 0x18(sp)
80003d52: 6c42         	ld	s8, 0x10(sp)
80003d54: 6ca2         	ld	s9, 0x8(sp)
80003d56: 6d02         	ld	s10, 0x0(sp)
80003d58: 6125         	addi	sp, sp, 0x60
80003d5a: 8082         	ret
80003d5c: 4981         	li	s3, 0x0
80003d5e: 85ae         	mv	a1, a1
80003d60: 01455603     	lhu	a2, 0x14(a0)
80003d64: ecc5e7e3     	bltu	a1, a2, 0x80003c32 <core::fmt::Formatter::pad::h239e525174ab4a17+0x64>
80003d68: b7a1         	j	0x80003cb0 <core::fmt::Formatter::pad::h239e525174ab4a17+0xe2>
80003d6a: 4481         	li	s1, 0x0
80003d6c: 417b0533     	sub	a0, s6, s7
80003d70: 69c1         	lui	s3, 0x10
80003d72: 19fd         	addi	s3, s3, -0x1
80003d74: 01357b33     	and	s6, a0, s3
80003d78: 0134f533     	and	a0, s1, s3
80003d7c: 01653933     	sltu	s2, a0, s6
80003d80: fb657fe3     	bgeu	a0, s6, 0x80003d3e <core::fmt::Formatter::pad::h239e525174ab4a17+0x170>
80003d84: 020c3603     	ld	a2, 0x20(s8)
80003d88: 0485         	addi	s1, s1, 0x1
80003d8a: 8556         	mv	a0, s5
80003d8c: 85d2         	mv	a1, s4
80003d8e: 9602         	jalr	a2
80003d90: d565         	beqz	a0, 0x80003d78 <core::fmt::Formatter::pad::h239e525174ab4a17+0x1aa>
80003d92: b775         	j	0x80003d3e <core::fmt::Formatter::pad::h239e525174ab4a17+0x170>

0000000080003d94 <core::str::count::do_count_chars::h6ce55074ab2fe9d1>:
80003d94: 1141         	addi	sp, sp, -0x10
80003d96: e422         	sd	s0, 0x8(sp)
80003d98: 862a         	mv	a2, a0
80003d9a: 00750693     	addi	a3, a0, 0x7
80003d9e: 9ae1         	andi	a3, a3, -0x8
80003da0: 40a68333     	sub	t1, a3, a0
80003da4: 0265f263     	bgeu	a1, t1, 0x80003dc8 <core::str::count::do_count_chars::h6ce55074ab2fe9d1+0x34>
80003da8: 4501         	li	a0, 0x0
80003daa: cd81         	beqz	a1, 0x80003dc2 <core::str::count::do_count_chars::h6ce55074ab2fe9d1+0x2e>
80003dac: 95b2         	add	a1, a1, a2
80003dae: 00060683     	lb	a3, 0x0(a2)
80003db2: 0605         	addi	a2, a2, 0x1
80003db4: fc06a693     	slti	a3, a3, -0x40
80003db8: 0016c693     	xori	a3, a3, 0x1
80003dbc: 9536         	add	a0, a0, a3
80003dbe: feb618e3     	bne	a2, a1, 0x80003dae <core::str::count::do_count_chars::h6ce55074ab2fe9d1+0x1a>
80003dc2: 6422         	ld	s0, 0x8(sp)
80003dc4: 0141         	addi	sp, sp, 0x10
80003dc6: 8082         	ret
80003dc8: 40658733     	sub	a4, a1, t1
80003dcc: 00375393     	srli	t2, a4, 0x3
80003dd0: fc038ce3     	beqz	t2, 0x80003da8 <core::str::count::do_count_chars::h6ce55074ab2fe9d1+0x14>
80003dd4: 9332         	add	t1, t1, a2
80003dd6: 00777813     	andi	a6, a4, 0x7
80003dda: 4501         	li	a0, 0x0
80003ddc: 00c68c63     	beq	a3, a2, 0x80003df4 <core::str::count::do_count_chars::h6ce55074ab2fe9d1+0x60>
80003de0: 00060583     	lb	a1, 0x0(a2)
80003de4: 0605         	addi	a2, a2, 0x1
80003de6: fc05a593     	slti	a1, a1, -0x40
80003dea: 0015c593     	xori	a1, a1, 0x1
80003dee: 952e         	add	a0, a0, a1
80003df0: fe6618e3     	bne	a2, t1, 0x80003de0 <core::str::count::do_count_chars::h6ce55074ab2fe9d1+0x4c>
80003df4: 4581         	li	a1, 0x0
80003df6: 02080363     	beqz	a6, 0x80003e1c <core::str::count::do_count_chars::h6ce55074ab2fe9d1+0x88>
80003dfa: 96c2         	add	a3, a3, a6
80003dfc: 5645         	li	a2, -0xf
80003dfe: 8205         	srli	a2, a2, 0x1
80003e00: 8f71         	and	a4, a4, a2
80003e02: 00e30633     	add	a2, t1, a4
80003e06: 96ba         	add	a3, a3, a4
80003e08: 00060703     	lb	a4, 0x0(a2)
80003e0c: 0605         	addi	a2, a2, 0x1
80003e0e: fc072713     	slti	a4, a4, -0x40
80003e12: 00174713     	xori	a4, a4, 0x1
80003e16: 95ba         	add	a1, a1, a4
80003e18: fed618e3     	bne	a2, a3, 0x80003e08 <core::str::count::do_count_chars::h6ce55074ab2fe9d1+0x74>
80003e1c: 01010637     	lui	a2, 0x1010
80003e20: 00ff06b7     	lui	a3, 0xff0
80003e24: 6741         	lui	a4, 0x10
80003e26: 10160613     	addi	a2, a2, 0x101
80003e2a: 0ff68893     	addi	a7, a3, 0xff
80003e2e: 00170813     	addi	a6, a4, 0x1
80003e32: 02061713     	slli	a4, a2, 0x20
80003e36: 00e60f33     	add	t5, a2, a4
80003e3a: 02089613     	slli	a2, a7, 0x20
80003e3e: 98b2         	add	a7, a7, a2
80003e40: 02081613     	slli	a2, a6, 0x20
80003e44: 9832         	add	a6, a6, a2
80003e46: 952e         	add	a0, a0, a1
80003e48: a015         	j	0x80003e6c <core::str::count::do_count_chars::h6ce55074ab2fe9d1+0xd8>
80003e4a: 9372         	add	t1, t1, t3
80003e4c: 405383b3     	sub	t2, t2, t0
80003e50: 0032f793     	andi	a5, t0, 0x3
80003e54: 011ff5b3     	and	a1, t6, a7
80003e58: 008fd613     	srli	a2, t6, 0x8
80003e5c: 01167633     	and	a2, a2, a7
80003e60: 95b2         	add	a1, a1, a2
80003e62: 030585b3     	mul	a1, a1, a6
80003e66: 91c1         	srli	a1, a1, 0x30
80003e68: 952e         	add	a0, a0, a1
80003e6a: efad         	bnez	a5, 0x80003ee4 <core::str::count::do_count_chars::h6ce55074ab2fe9d1+0x150>
80003e6c: f4038be3     	beqz	t2, 0x80003dc2 <core::str::count::do_count_chars::h6ce55074ab2fe9d1+0x2e>
80003e70: 8e1a         	mv	t3, t1
80003e72: 0c000593     	li	a1, 0xc0
80003e76: 829e         	mv	t0, t2
80003e78: 00b3e463     	bltu	t2, a1, 0x80003e80 <core::str::count::do_count_chars::h6ce55074ab2fe9d1+0xec>
80003e7c: 0c000293     	li	t0, 0xc0
80003e80: 00329313     	slli	t1, t0, 0x3
80003e84: 4f81         	li	t6, 0x0
80003e86: 7e037793     	andi	a5, t1, 0x7e0
80003e8a: d3e1         	beqz	a5, 0x80003e4a <core::str::count::do_count_chars::h6ce55074ab2fe9d1+0xb6>
80003e8c: 00fe0eb3     	add	t4, t3, a5
80003e90: 85f2         	mv	a1, t3
80003e92: 6194         	ld	a3, 0x0(a1)
80003e94: 659c         	ld	a5, 0x8(a1)
80003e96: 6998         	ld	a4, 0x10(a1)
80003e98: 6d90         	ld	a2, 0x18(a1)
80003e9a: fff6c413     	not	s0, a3
80003e9e: 8299         	srli	a3, a3, 0x6
80003ea0: 801d         	srli	s0, s0, 0x7
80003ea2: 8ec1         	or	a3, a3, s0
80003ea4: fff7c413     	not	s0, a5
80003ea8: 8399         	srli	a5, a5, 0x6
80003eaa: 801d         	srli	s0, s0, 0x7
80003eac: 8fc1         	or	a5, a5, s0
80003eae: fff74413     	not	s0, a4
80003eb2: 8319         	srli	a4, a4, 0x6
80003eb4: 801d         	srli	s0, s0, 0x7
80003eb6: 8f41         	or	a4, a4, s0
80003eb8: fff64413     	not	s0, a2
80003ebc: 8219         	srli	a2, a2, 0x6
80003ebe: 801d         	srli	s0, s0, 0x7
80003ec0: 8e41         	or	a2, a2, s0
80003ec2: 01e6f6b3     	and	a3, a3, t5
80003ec6: 96fe         	add	a3, a3, t6
80003ec8: 01e7f7b3     	and	a5, a5, t5
80003ecc: 01e77733     	and	a4, a4, t5
80003ed0: 01e67fb3     	and	t6, a2, t5
80003ed4: 973e         	add	a4, a4, a5
80003ed6: 96ba         	add	a3, a3, a4
80003ed8: 02058593     	addi	a1, a1, 0x20
80003edc: 9fb6         	add	t6, t6, a3
80003ede: fbd59ae3     	bne	a1, t4, 0x80003e92 <core::str::count::do_count_chars::h6ce55074ab2fe9d1+0xfe>
80003ee2: b7a5         	j	0x80003e4a <core::str::count::do_count_chars::h6ce55074ab2fe9d1+0xb6>
80003ee4: 4581         	li	a1, 0x0
80003ee6: 0fc2f613     	andi	a2, t0, 0xfc
80003eea: 060e         	slli	a2, a2, 0x3
80003eec: 00ce06b3     	add	a3, t3, a2
80003ef0: 00379613     	slli	a2, a5, 0x3
80003ef4: 6298         	ld	a4, 0x0(a3)
80003ef6: 06a1         	addi	a3, a3, 0x8
80003ef8: fff74793     	not	a5, a4
80003efc: 8319         	srli	a4, a4, 0x6
80003efe: 839d         	srli	a5, a5, 0x7
80003f00: 8f5d         	or	a4, a4, a5
80003f02: 01e77733     	and	a4, a4, t5
80003f06: 1661         	addi	a2, a2, -0x8
80003f08: 95ba         	add	a1, a1, a4
80003f0a: f66d         	bnez	a2, 0x80003ef4 <core::str::count::do_count_chars::h6ce55074ab2fe9d1+0x160>
80003f0c: 0115f633     	and	a2, a1, a7
80003f10: 81a1         	srli	a1, a1, 0x8
80003f12: 0115f5b3     	and	a1, a1, a7
80003f16: 95b2         	add	a1, a1, a2
80003f18: 030585b3     	mul	a1, a1, a6
80003f1c: 91c1         	srli	a1, a1, 0x30
80003f1e: 952e         	add	a0, a0, a1
80003f20: 6422         	ld	s0, 0x8(sp)
80003f22: 0141         	addi	sp, sp, 0x10
80003f24: 8082         	ret

0000000080003f26 <core::panicking::panic_const::panic_const_div_by_zero::hcfde4c26e8ecfc4b>:
80003f26: 1141         	addi	sp, sp, -0x10
80003f28: e406         	sd	ra, 0x8(sp)
80003f2a: e022         	sd	s0, 0x0(sp)
80003f2c: 0800         	addi	s0, sp, 0x10
80003f2e: 862a         	mv	a2, a0

0000000080003f30 <.Lpcrel_hi967>:
80003f30: 00002517     	auipc	a0, 0x2
80003f34: b9050513     	addi	a0, a0, -0x470
80003f38: 03300593     	li	a1, 0x33
80003f3c: 00000097     	auipc	ra, 0x0
80003f40: 14c080e7     	jalr	0x14c(ra) <core::panicking::panic_fmt::h767dc8ac4dd44648>

0000000080003f44 <core::panicking::panic_const::panic_const_add_overflow::h67cba067093910f8>:
80003f44: 1141         	addi	sp, sp, -0x10
80003f46: e406         	sd	ra, 0x8(sp)
80003f48: e022         	sd	s0, 0x0(sp)
80003f4a: 0800         	addi	s0, sp, 0x10
80003f4c: 862a         	mv	a2, a0

0000000080003f4e <.Lpcrel_hi970>:
80003f4e: 00002517     	auipc	a0, 0x2
80003f52: b1450513     	addi	a0, a0, -0x4ec
80003f56: 03900593     	li	a1, 0x39
80003f5a: 00000097     	auipc	ra, 0x0
80003f5e: 12e080e7     	jalr	0x12e(ra) <core::panicking::panic_fmt::h767dc8ac4dd44648>

0000000080003f62 <core::panicking::panic_const::panic_const_mul_overflow::h67897feae7531d51>:
80003f62: 1141         	addi	sp, sp, -0x10
80003f64: e406         	sd	ra, 0x8(sp)
80003f66: e022         	sd	s0, 0x0(sp)
80003f68: 0800         	addi	s0, sp, 0x10
80003f6a: 862a         	mv	a2, a0

0000000080003f6c <.Lpcrel_hi972>:
80003f6c: 00002517     	auipc	a0, 0x2
80003f70: b1250513     	addi	a0, a0, -0x4ee
80003f74: 04300593     	li	a1, 0x43
80003f78: 00000097     	auipc	ra, 0x0
80003f7c: 110080e7     	jalr	0x110(ra) <core::panicking::panic_fmt::h767dc8ac4dd44648>

0000000080003f80 <core::panicking::panic_const::panic_const_sub_overflow::hccc965ba9198de7c>:
80003f80: 1141         	addi	sp, sp, -0x10
80003f82: e406         	sd	ra, 0x8(sp)
80003f84: e022         	sd	s0, 0x0(sp)
80003f86: 0800         	addi	s0, sp, 0x10
80003f88: 862a         	mv	a2, a0

0000000080003f8a <.Lpcrel_hi977>:
80003f8a: 00002517     	auipc	a0, 0x2
80003f8e: b1550513     	addi	a0, a0, -0x4eb
80003f92: 04300593     	li	a1, 0x43
80003f96: 00000097     	auipc	ra, 0x0
80003f9a: 0f2080e7     	jalr	0xf2(ra) <core::panicking::panic_fmt::h767dc8ac4dd44648>

0000000080003f9e <core::panicking::panic_nounwind::hf19a354d0b2d9097>:
80003f9e: 1141         	addi	sp, sp, -0x10
80003fa0: e406         	sd	ra, 0x8(sp)
80003fa2: e022         	sd	s0, 0x0(sp)
80003fa4: 0800         	addi	s0, sp, 0x10
80003fa6: 0586         	slli	a1, a1, 0x1
80003fa8: 0585         	addi	a1, a1, 0x1

0000000080003faa <.Lpcrel_hi992>:
80003faa: 00002617     	auipc	a2, 0x2
80003fae: b3660693     	addi	a3, a2, -0x4ca
80003fb2: 4601         	li	a2, 0x0
80003fb4: 00000097     	auipc	ra, 0x0
80003fb8: 044080e7     	jalr	0x44(ra) <core::panicking::panic_nounwind_fmt::h2e018e50a8d3bc73>

0000000080003fbc <core::panicking::panic_bounds_check::h6aaee0d15e0261eb>:
80003fbc: 7139         	addi	sp, sp, -0x40
80003fbe: fc06         	sd	ra, 0x38(sp)
80003fc0: f822         	sd	s0, 0x30(sp)
80003fc2: 0080         	addi	s0, sp, 0x40
80003fc4: f0040713     	addi	a4, s0, -0x100
80003fc8: e368         	sd	a0, 0xc0(a4)
80003fca: e76c         	sd	a1, 0xc8(a4)
80003fcc: fc840513     	addi	a0, s0, -0x38

0000000080003fd0 <.Lpcrel_hi997>:
80003fd0: fffff597     	auipc	a1, 0xfffff
80003fd4: fc040693     	addi	a3, s0, -0x40
80003fd8: 67c58593     	addi	a1, a1, 0x67c
80003fdc: eb68         	sd	a0, 0xd0(a4)
80003fde: ef6c         	sd	a1, 0xd8(a4)
80003fe0: f374         	sd	a3, 0xe0(a4)
80003fe2: f76c         	sd	a1, 0xe8(a4)

0000000080003fe4 <.Lpcrel_hi998>:
80003fe4: 00000517     	auipc	a0, 0x0
80003fe8: 5bd50513     	addi	a0, a0, 0x5bd
80003fec: fd040593     	addi	a1, s0, -0x30
80003ff0: 00000097     	auipc	ra, 0x0
80003ff4: 098080e7     	jalr	0x98(ra) <core::panicking::panic_fmt::h767dc8ac4dd44648>

0000000080003ff8 <core::panicking::panic_nounwind_fmt::h2e018e50a8d3bc73>:
80003ff8: 7139         	addi	sp, sp, -0x40
80003ffa: fc06         	sd	ra, 0x38(sp)
80003ffc: f822         	sd	s0, 0x30(sp)
80003ffe: 0080         	addi	s0, sp, 0x40
80004000: fca43423     	sd	a0, -0x38(s0)
80004004: fcb43823     	sd	a1, -0x30(s0)
80004008: fc840513     	addi	a0, s0, -0x38
8000400c: fca43c23     	sd	a0, -0x28(s0)
80004010: fed43023     	sd	a3, -0x20(s0)
80004014: fe040423     	sb	zero, -0x18(s0)
80004018: fec404a3     	sb	a2, -0x17(s0)
8000401c: fd840513     	addi	a0, s0, -0x28
80004020: ffffc097     	auipc	ra, 0xffffc
80004024: 6d6080e7     	jalr	0x6d6(ra) <__user_program_end>

0000000080004028 <core::panicking::panic_null_pointer_dereference::hbac6411af4f2e916>:
80004028: 1141         	addi	sp, sp, -0x10
8000402a: e406         	sd	ra, 0x8(sp)
8000402c: e022         	sd	s0, 0x0(sp)
8000402e: 0800         	addi	s0, sp, 0x10
80004030: 86aa         	mv	a3, a0

0000000080004032 <.Lpcrel_hi1010>:
80004032: 00002517     	auipc	a0, 0x2
80004036: ac650513     	addi	a0, a0, -0x53a
8000403a: 04300593     	li	a1, 0x43
8000403e: 4601         	li	a2, 0x0
80004040: 00000097     	auipc	ra, 0x0
80004044: fb8080e7     	jalr	-0x48(ra) <core::panicking::panic_nounwind_fmt::h2e018e50a8d3bc73>

0000000080004048 <core::panicking::panic_misaligned_pointer_dereference::hda85f7fb51d959f0>:
80004048: 7139         	addi	sp, sp, -0x40
8000404a: fc06         	sd	ra, 0x38(sp)
8000404c: f822         	sd	s0, 0x30(sp)
8000404e: 0080         	addi	s0, sp, 0x40
80004050: 86b2         	mv	a3, a2
80004052: f0040713     	addi	a4, s0, -0x100
80004056: e368         	sd	a0, 0xc0(a4)
80004058: e76c         	sd	a1, 0xc8(a4)
8000405a: fc040513     	addi	a0, s0, -0x40

000000008000405e <.Lpcrel_hi1013>:
8000405e: fffff597     	auipc	a1, 0xfffff
80004062: fc840613     	addi	a2, s0, -0x38
80004066: 63a58593     	addi	a1, a1, 0x63a
8000406a: eb68         	sd	a0, 0xd0(a4)
8000406c: ef6c         	sd	a1, 0xd8(a4)
8000406e: f370         	sd	a2, 0xe0(a4)
80004070: f76c         	sd	a1, 0xe8(a4)

0000000080004072 <.Lpcrel_hi1014>:
80004072: 00002517     	auipc	a0, 0x2
80004076: aa750513     	addi	a0, a0, -0x559
8000407a: fd040593     	addi	a1, s0, -0x30
8000407e: 4601         	li	a2, 0x0
80004080: 00000097     	auipc	ra, 0x0
80004084: f78080e7     	jalr	-0x88(ra) <core::panicking::panic_nounwind_fmt::h2e018e50a8d3bc73>

0000000080004088 <core::panicking::panic_fmt::h767dc8ac4dd44648>:
80004088: 7139         	addi	sp, sp, -0x40
8000408a: fc06         	sd	ra, 0x38(sp)
8000408c: f822         	sd	s0, 0x30(sp)
8000408e: 0080         	addi	s0, sp, 0x40
80004090: fca43423     	sd	a0, -0x38(s0)
80004094: fcb43823     	sd	a1, -0x30(s0)
80004098: fc840513     	addi	a0, s0, -0x38
8000409c: 4585         	li	a1, 0x1
8000409e: fca43c23     	sd	a0, -0x28(s0)
800040a2: fec43023     	sd	a2, -0x20(s0)
800040a6: feb41423     	sh	a1, -0x18(s0)
800040aa: fd840513     	addi	a0, s0, -0x28
800040ae: ffffc097     	auipc	ra, 0xffffc
800040b2: 648080e7     	jalr	0x648(ra) <__user_program_end>

00000000800040b6 <_$LT$core..panic..panic_info..PanicInfo$u20$as$u20$core..fmt..Display$GT$::fmt::hcccb3fed5b673506>:
800040b6: 7119         	addi	sp, sp, -0x80
800040b8: fc86         	sd	ra, 0x78(sp)
800040ba: f8a2         	sd	s0, 0x70(sp)
800040bc: f4a6         	sd	s1, 0x68(sp)
800040be: f0ca         	sd	s2, 0x60(sp)
800040c0: ecce         	sd	s3, 0x58(sp)
800040c2: e8d2         	sd	s4, 0x50(sp)
800040c4: e4d6         	sd	s5, 0x48(sp)
800040c6: 0100         	addi	s0, sp, 0x80
800040c8: 0085b903     	ld	s2, 0x8(a1)
800040cc: 6184         	ld	s1, 0x0(a1)
800040ce: 01893a83     	ld	s5, 0x18(s2)
800040d2: 89aa         	mv	s3, a0

00000000800040d4 <.Lpcrel_hi1258>:
800040d4: 00002517     	auipc	a0, 0x2
800040d8: a9850593     	addi	a1, a0, -0x568
800040dc: 4631         	li	a2, 0xc
800040de: 8526         	mv	a0, s1
800040e0: 9a82         	jalr	s5
800040e2: 4a05         	li	s4, 0x1
800040e4: e151         	bnez	a0, 0x80004168 <.Lpcrel_hi1262+0x26>
800040e6: 0089b503     	ld	a0, 0x8(s3)
800040ea: f8840813     	addi	a6, s0, -0x78

00000000800040ee <.Lpcrel_hi1259>:
800040ee: fffff617     	auipc	a2, 0xfffff

00000000800040f2 <.Lpcrel_hi1260>:
800040f2: fffff697     	auipc	a3, 0xfffff
800040f6: 0f260613     	addi	a2, a2, 0xf2
800040fa: 50e68693     	addi	a3, a3, 0x50e
800040fe: 6118         	ld	a4, 0x0(a0)
80004100: 651c         	ld	a5, 0x8(a0)
80004102: 01050593     	addi	a1, a0, 0x10
80004106: 0551         	addi	a0, a0, 0x14
80004108: f9043c23     	sd	a6, -0x68(s0)
8000410c: fac43023     	sd	a2, -0x60(s0)
80004110: fab43423     	sd	a1, -0x58(s0)
80004114: fad43823     	sd	a3, -0x50(s0)
80004118: f8e43423     	sd	a4, -0x78(s0)
8000411c: f8f43823     	sd	a5, -0x70(s0)
80004120: faa43c23     	sd	a0, -0x48(s0)
80004124: fcd43023     	sd	a3, -0x40(s0)

0000000080004128 <.Lpcrel_hi1261>:
80004128: 00000517     	auipc	a0, 0x0
8000412c: 5f450613     	addi	a2, a0, 0x5f4
80004130: f9840693     	addi	a3, s0, -0x68
80004134: 8526         	mv	a0, s1
80004136: 85ca         	mv	a1, s2
80004138: fffff097     	auipc	ra, 0xfffff
8000413c: 614080e7     	jalr	0x614(ra) <core::fmt::write::hfd17e9e8e823b619>
80004140: e505         	bnez	a0, 0x80004168 <.Lpcrel_hi1262+0x26>

0000000080004142 <.Lpcrel_hi1262>:
80004142: 00002517     	auipc	a0, 0x2
80004146: a3650593     	addi	a1, a0, -0x5ca
8000414a: 4609         	li	a2, 0x2
8000414c: 8526         	mv	a0, s1
8000414e: 9a82         	jalr	s5
80004150: ed01         	bnez	a0, 0x80004168 <.Lpcrel_hi1262+0x26>
80004152: 0009b503     	ld	a0, 0x0(s3)
80004156: 6110         	ld	a2, 0x0(a0)
80004158: 6514         	ld	a3, 0x8(a0)
8000415a: 8526         	mv	a0, s1
8000415c: 85ca         	mv	a1, s2
8000415e: fffff097     	auipc	ra, 0xfffff
80004162: 5ee080e7     	jalr	0x5ee(ra) <core::fmt::write::hfd17e9e8e823b619>
80004166: 8a2a         	mv	s4, a0
80004168: 8552         	mv	a0, s4
8000416a: 70e6         	ld	ra, 0x78(sp)
8000416c: 7446         	ld	s0, 0x70(sp)
8000416e: 74a6         	ld	s1, 0x68(sp)
80004170: 7906         	ld	s2, 0x60(sp)
80004172: 69e6         	ld	s3, 0x58(sp)
80004174: 6a46         	ld	s4, 0x50(sp)
80004176: 6aa6         	ld	s5, 0x48(sp)
80004178: 6109         	addi	sp, sp, 0x80
8000417a: 8082         	ret

000000008000417c <memset>:
8000417c: 46c1         	li	a3, 0x10
8000417e: 06d66463     	bltu	a2, a3, 0x800041e6 <memset+0x6a>
80004182: 40a006bb     	negw	a3, a0
80004186: 0076f813     	andi	a6, a3, 0x7
8000418a: 01050733     	add	a4, a0, a6
8000418e: 00e57963     	bgeu	a0, a4, 0x800041a0 <memset+0x24>
80004192: 87c2         	mv	a5, a6
80004194: 86aa         	mv	a3, a0
80004196: 00b68023     	sb	a1, 0x0(a3)
8000419a: 17fd         	addi	a5, a5, -0x1
8000419c: 0685         	addi	a3, a3, 0x1
8000419e: ffe5         	bnez	a5, 0x80004196 <memset+0x1a>
800041a0: 41060633     	sub	a2, a2, a6
800041a4: ff867693     	andi	a3, a2, -0x8
800041a8: 96ba         	add	a3, a3, a4
800041aa: 02d77363     	bgeu	a4, a3, 0x800041d0 <memset+0x54>
800041ae: 03859813     	slli	a6, a1, 0x38
800041b2: 101017b7     	lui	a5, 0x10101
800041b6: 0792         	slli	a5, a5, 0x4
800041b8: 10078793     	addi	a5, a5, 0x100
800041bc: 02f83833     	mulhu	a6, a6, a5
800041c0: 02081793     	slli	a5, a6, 0x20
800041c4: 0107e7b3     	or	a5, a5, a6
800041c8: e31c         	sd	a5, 0x0(a4)
800041ca: 0721         	addi	a4, a4, 0x8
800041cc: fed76ee3     	bltu	a4, a3, 0x800041c8 <memset+0x4c>
800041d0: 8a1d         	andi	a2, a2, 0x7
800041d2: 00c68733     	add	a4, a3, a2
800041d6: 00e6f763     	bgeu	a3, a4, 0x800041e4 <memset+0x68>
800041da: 00b68023     	sb	a1, 0x0(a3)
800041de: 167d         	addi	a2, a2, -0x1
800041e0: 0685         	addi	a3, a3, 0x1
800041e2: fe65         	bnez	a2, 0x800041da <memset+0x5e>
800041e4: 8082         	ret
800041e6: 86aa         	mv	a3, a0
800041e8: 00c50733     	add	a4, a0, a2
800041ec: fee567e3     	bltu	a0, a4, 0x800041da <memset+0x5e>
800041f0: bfd5         	j	0x800041e4 <memset+0x68>

00000000800041f2 <memcpy>:
800041f2: 00000317     	auipc	t1, 0x0
800041f6: 00830067     	jr	0x8(t1) <compiler_builtins::mem::memcpy::hee8635bcefabc13a>

00000000800041fa <compiler_builtins::mem::memcpy::hee8635bcefabc13a>:
800041fa: 1101         	addi	sp, sp, -0x20
800041fc: ec22         	sd	s0, 0x18(sp)
800041fe: e826         	sd	s1, 0x10(sp)
80004200: 46c1         	li	a3, 0x10
80004202: 06d66363     	bltu	a2, a3, 0x80004268 <compiler_builtins::mem::memcpy::hee8635bcefabc13a+0x6e>
80004206: 40a006bb     	negw	a3, a0
8000420a: 0076f813     	andi	a6, a3, 0x7
8000420e: 01050fb3     	add	t6, a0, a6
80004212: 01f57d63     	bgeu	a0, t6, 0x8000422c <compiler_builtins::mem::memcpy::hee8635bcefabc13a+0x32>
80004216: 8742         	mv	a4, a6
80004218: 86aa         	mv	a3, a0
8000421a: 87ae         	mv	a5, a1
8000421c: 0007c883     	lbu	a7, 0x0(a5)
80004220: 177d         	addi	a4, a4, -0x1
80004222: 01168023     	sb	a7, 0x0(a3)
80004226: 0685         	addi	a3, a3, 0x1
80004228: 0785         	addi	a5, a5, 0x1
8000422a: fb6d         	bnez	a4, 0x8000421c <compiler_builtins::mem::memcpy::hee8635bcefabc13a+0x22>
8000422c: 010584b3     	add	s1, a1, a6
80004230: 41060633     	sub	a2, a2, a6
80004234: ff867713     	andi	a4, a2, -0x8
80004238: 0074f813     	andi	a6, s1, 0x7
8000423c: 00ef86b3     	add	a3, t6, a4
80004240: 04081563     	bnez	a6, 0x8000428a <compiler_builtins::mem::memcpy::hee8635bcefabc13a+0x90>
80004244: 00dffa63     	bgeu	t6, a3, 0x80004258 <compiler_builtins::mem::memcpy::hee8635bcefabc13a+0x5e>
80004248: 87a6         	mv	a5, s1
8000424a: 638c         	ld	a1, 0x0(a5)
8000424c: 00bfb023     	sd	a1, 0x0(t6)
80004250: 0fa1         	addi	t6, t6, 0x8
80004252: 07a1         	addi	a5, a5, 0x8
80004254: fedfebe3     	bltu	t6, a3, 0x8000424a <compiler_builtins::mem::memcpy::hee8635bcefabc13a+0x50>
80004258: 00e485b3     	add	a1, s1, a4
8000425c: 8a1d         	andi	a2, a2, 0x7
8000425e: 00c68733     	add	a4, a3, a2
80004262: 00e6e863     	bltu	a3, a4, 0x80004272 <compiler_builtins::mem::memcpy::hee8635bcefabc13a+0x78>
80004266: a831         	j	0x80004282 <compiler_builtins::mem::memcpy::hee8635bcefabc13a+0x88>
80004268: 86aa         	mv	a3, a0
8000426a: 00c50733     	add	a4, a0, a2
8000426e: 00e57a63     	bgeu	a0, a4, 0x80004282 <compiler_builtins::mem::memcpy::hee8635bcefabc13a+0x88>
80004272: 0005c703     	lbu	a4, 0x0(a1)
80004276: 167d         	addi	a2, a2, -0x1
80004278: 00e68023     	sb	a4, 0x0(a3)
8000427c: 0685         	addi	a3, a3, 0x1
8000427e: 0585         	addi	a1, a1, 0x1
80004280: fa6d         	bnez	a2, 0x80004272 <compiler_builtins::mem::memcpy::hee8635bcefabc13a+0x78>
80004282: 6462         	ld	s0, 0x18(sp)
80004284: 64c2         	ld	s1, 0x10(sp)
80004286: 6105         	addi	sp, sp, 0x20
80004288: 8082         	ret
8000428a: 4881         	li	a7, 0x0
8000428c: 47a1         	li	a5, 0x8
8000428e: e402         	sd	zero, 0x8(sp)
80004290: 41078333     	sub	t1, a5, a6
80004294: 00810293     	addi	t0, sp, 0x8
80004298: 00137793     	andi	a5, t1, 0x1
8000429c: 0102e2b3     	or	t0, t0, a6
800042a0: ebb1         	bnez	a5, 0x800042f4 <compiler_builtins::mem::memcpy::hee8635bcefabc13a+0xfa>
800042a2: 00237793     	andi	a5, t1, 0x2
800042a6: efb9         	bnez	a5, 0x80004304 <compiler_builtins::mem::memcpy::hee8635bcefabc13a+0x10a>
800042a8: 00437793     	andi	a5, t1, 0x4
800042ac: eba5         	bnez	a5, 0x8000431c <compiler_builtins::mem::memcpy::hee8635bcefabc13a+0x122>
800042ae: 63a2         	ld	t2, 0x8(sp)
800042b0: 00381893     	slli	a7, a6, 0x3
800042b4: 008f8793     	addi	a5, t6, 0x8
800042b8: 41048f33     	sub	t5, s1, a6
800042bc: 06d7ff63     	bgeu	a5, a3, 0x8000433a <compiler_builtins::mem::memcpy::hee8635bcefabc13a+0x140>
800042c0: 411007bb     	negw	a5, a7
800042c4: 0387fe13     	andi	t3, a5, 0x38
800042c8: 008f3303     	ld	t1, 0x8(t5)
800042cc: 008f0e93     	addi	t4, t5, 0x8
800042d0: 0113d3b3     	srl	t2, t2, a7
800042d4: 008f8293     	addi	t0, t6, 0x8
800042d8: 01c317b3     	sll	a5, t1, t3
800042dc: 0077e7b3     	or	a5, a5, t2
800042e0: 010f8413     	addi	s0, t6, 0x10
800042e4: 00ffb023     	sd	a5, 0x0(t6)
800042e8: 8f96         	mv	t6, t0
800042ea: 839a         	mv	t2, t1
800042ec: 8f76         	mv	t5, t4
800042ee: fcd46de3     	bltu	s0, a3, 0x800042c8 <compiler_builtins::mem::memcpy::hee8635bcefabc13a+0xce>
800042f2: a0b9         	j	0x80004340 <compiler_builtins::mem::memcpy::hee8635bcefabc13a+0x146>
800042f4: 0004c783     	lbu	a5, 0x0(s1)
800042f8: 00f28023     	sb	a5, 0x0(t0)
800042fc: 4885         	li	a7, 0x1
800042fe: 00237793     	andi	a5, t1, 0x2
80004302: d3dd         	beqz	a5, 0x800042a8 <compiler_builtins::mem::memcpy::hee8635bcefabc13a+0xae>
80004304: 011487b3     	add	a5, s1, a7
80004308: 00079383     	lh	t2, 0x0(a5)
8000430c: 011287b3     	add	a5, t0, a7
80004310: 00779023     	sh	t2, 0x0(a5)
80004314: 2889         	addiw	a7, a7, 0x2
80004316: 00437793     	andi	a5, t1, 0x4
8000431a: dbd1         	beqz	a5, 0x800042ae <compiler_builtins::mem::memcpy::hee8635bcefabc13a+0xb4>
8000431c: 011487b3     	add	a5, s1, a7
80004320: 439c         	lw	a5, 0x0(a5)
80004322: 9896         	add	a7, a7, t0
80004324: 00f8a023     	sw	a5, 0x0(a7)
80004328: 63a2         	ld	t2, 0x8(sp)
8000432a: 00381893     	slli	a7, a6, 0x3
8000432e: 008f8793     	addi	a5, t6, 0x8
80004332: 41048f33     	sub	t5, s1, a6
80004336: f8d7e5e3     	bltu	a5, a3, 0x800042c0 <compiler_builtins::mem::memcpy::hee8635bcefabc13a+0xc6>
8000433a: 8efa         	mv	t4, t5
8000433c: 82fe         	mv	t0, t6
8000433e: 831e         	mv	t1, t2
80004340: 4781         	li	a5, 0x0
80004342: 008e8393     	addi	t2, t4, 0x8
80004346: 4411         	li	s0, 0x4
80004348: e402         	sd	zero, 0x8(sp)
8000434a: 04887363     	bgeu	a6, s0, 0x80004390 <compiler_builtins::mem::memcpy::hee8635bcefabc13a+0x196>
8000434e: 0024f593     	andi	a1, s1, 0x2
80004352: e5b1         	bnez	a1, 0x8000439e <compiler_builtins::mem::memcpy::hee8635bcefabc13a+0x1a4>
80004354: 0014f593     	andi	a1, s1, 0x1
80004358: c981         	beqz	a1, 0x80004368 <compiler_builtins::mem::memcpy::hee8635bcefabc13a+0x16e>
8000435a: 93be         	add	t2, t2, a5
8000435c: 0003c583     	lbu	a1, 0x0(t2)
80004360: 0020         	addi	s0, sp, 0x8
80004362: 8fc1         	or	a5, a5, s0
80004364: 00b78023     	sb	a1, 0x0(a5)
80004368: 65a2         	ld	a1, 0x8(sp)
8000436a: 011357b3     	srl	a5, t1, a7
8000436e: 4110043b     	negw	s0, a7
80004372: 03847413     	andi	s0, s0, 0x38
80004376: 008595b3     	sll	a1, a1, s0
8000437a: 8ddd         	or	a1, a1, a5
8000437c: 00b2b023     	sd	a1, 0x0(t0)
80004380: 00e485b3     	add	a1, s1, a4
80004384: 8a1d         	andi	a2, a2, 0x7
80004386: 00c68733     	add	a4, a3, a2
8000438a: eee6e4e3     	bltu	a3, a4, 0x80004272 <compiler_builtins::mem::memcpy::hee8635bcefabc13a+0x78>
8000438e: bdd5         	j	0x80004282 <compiler_builtins::mem::memcpy::hee8635bcefabc13a+0x88>
80004390: 0003a783     	lw	a5, 0x0(t2)
80004394: c43e         	sw	a5, 0x8(sp)
80004396: 4791         	li	a5, 0x4
80004398: 0024f593     	andi	a1, s1, 0x2
8000439c: ddc5         	beqz	a1, 0x80004354 <compiler_builtins::mem::memcpy::hee8635bcefabc13a+0x15a>
8000439e: 00f385b3     	add	a1, t2, a5
800043a2: 00059583     	lh	a1, 0x0(a1)
800043a6: 0020         	addi	s0, sp, 0x8
800043a8: 8c5d         	or	s0, s0, a5
800043aa: 00b41023     	sh	a1, 0x0(s0)
800043ae: 2789         	addiw	a5, a5, 0x2
800043b0: 0014f593     	andi	a1, s1, 0x1
800043b4: f1dd         	bnez	a1, 0x8000435a <compiler_builtins::mem::memcpy::hee8635bcefabc13a+0x160>
800043b6: bf4d         	j	0x80004368 <compiler_builtins::mem::memcpy::hee8635bcefabc13a+0x16e>

00000000800043b8 <.Lanon.c329d562d61c167d3120dfdd44c02c7c.0>:
800043b8: 69 73 5f 6e 6f 6e 6f 76         is_nonov
800043c0: 65 72 6c 61 70 70 69 6e         erlappin
800043c8: 67 3a 20 60 73 69 7a 65         g: `size
800043d0: 5f 6f 66 3a 3a 3c 54 3e         _of::<T>
800043d8: 28 29 20 2a 20 63 6f 75         () * cou
800043e0: 6e 74 60 20 6f 76 65 72         nt` over
800043e8: 66 6c 6f 77 73 20 61 20         flows a 
800043f0: 75 73 69 7a 65 73 72 63         usizesrc
800043f8: 2f 6d 61 69 6e 2e 72 73         /main.rs
80004400: 00 41 5b 6b 65 72 6e 65         .A[kerne
80004408: 6c 5d 20 61 63 63 65 70         l] accep
80004410: 74 61 6e 63 65 20 6b 65         tance ke
80004418: 72 6e 65 6c 20 6c 65 61         rnel lea
80004420: 76 65 73 20 63 6c 65 61         ves clea
80004428: 72 20 55 20 61 6e 64 20         r U and 
80004430: 75 73 65 72 20 6c 65 61         user lea
80004438: 76 65 73 20 73 65 74 20         ves set 
80004440: 55 3a 20 c0 01 0a 00 2f         U: ..../
80004448: 72 75 73 74 63 2f 65 34         rustc/e4
80004450: 30 38 39 34 37 62 66 64         08947bfd
80004458: 32 30 30 61 66 34 32 64         200af42d
80004460: 62 33 32 32 64 61 66 30         b322daf0
80004468: 66 61 64 66 65 37 65 32         fadfe7e2
80004470: 36 64 33 62 64 31 2f 6c         6d3bd1/l
80004478: 69 62 72 61 72 79 2f 63         ibrary/c
80004480: 6f 72 65 2f 73 72 63 2f         ore/src/
80004488: 70 74 72 2f 6d 6f 64 2e         ptr/mod.
80004490: 72 73 00 10 5b 6b 65 72         rs..[ker
80004498: 6e 65 6c 5d 20 70 61 6e         nel] pan
800044a0: 69 63 3a 20 c0 01 0a 00         ic: ....
800044a8: 2f 72 75 73 74 63 2f 65         /rustc/e
800044b0: 34 30 38 39 34 37 62 66         408947bf
800044b8: 64 32 30 30 61 66 34 32         d200af42
800044c0: 64 62 33 32 32 64 61 66         db322daf
800044c8: 30 66 61 64 66 65 37 65         0fadfe7e
800044d0: 32 36 64 33 62 64 31 2f         26d3bd1/
800044d8: 6c 69 62 72 61 72 79 2f         library/
800044e0: 63 6f 72 65 2f 73 72 63         core/src
800044e8: 2f 6f 70 73 2f 69 6e 64         /ops/ind
800044f0: 65 78 5f 72 61 6e 67 65         ex_range
800044f8: 2e 72 73 00 c0 00 2f 72         .rs.../r
80004500: 75 73 74 63 2f 65 34 30         ustc/e40
80004508: 38 39 34 37 62 66 64 32         8947bfd2
80004510: 30 30 61 66 34 32 64 62         00af42db
80004518: 33 32 32 64 61 66 30 66         322daf0f
80004520: 61 64 66 65 37 65 32 36         adfe7e26
80004528: 64 33 62 64 31 2f 6c 69         d3bd1/li
80004530: 62 72 61 72 79 2f 63 6f         brary/co
80004538: 72 65 2f 73 72 63 2f 63         re/src/c
80004540: 68 61 72 2f 6d 65 74 68         har/meth
80004548: 6f 64 73 2e 72 73 00 4d         ods.rs.M
80004550: 5b 6b 65 72 6e 65 6c 5d         [kernel]
80004558: 20 61 63 63 65 70 74 61          accepta
80004560: 6e 63 65 20 73 61 6d 65         nce same
80004568: 20 6d 75 6c 74 69 2d 6c          multi-l
80004570: 65 76 65 6c 20 72 6f 6f         evel roo
80004578: 74 20 63 6f 6e 74 61 69         t contai
80004580: 6e 73 20 6b 65 72 6e 65         ns kerne
80004588: 6c 20 61 6e 64 20 75 73         l and us
80004590: 65 72 20 6d 61 70 70 69         er mappi
80004598: 6e 67 73 3a 20 c0 01 0a         ngs: ...
800045a0: 00 20 69 6e 64 65 78 20         . index 
800045a8: 6f 75 74 20 6f 66 20 62         out of b
800045b0: 6f 75 6e 64 73 3a 20 74         ounds: t
800045b8: 68 65 20 6c 65 6e 20 69         he len i
800045c0: 73 20 c0 12 20 62 75 74         s .. but
800045c8: 20 74 68 65 20 69 6e 64          the ind
800045d0: 65 78 20 69 73 20 c0 00         ex is ..
800045d8: 2f 72 75 73 74 63 2f 65         /rustc/e
800045e0: 34 30 38 39 34 37 62 66         408947bf
800045e8: 64 32 30 30 61 66 34 32         d200af42
800045f0: 64 62 33 32 32 64 61 66         db322daf
800045f8: 30 66 61 64 66 65 37 65         0fadfe7e
80004600: 32 36 64 33 62 64 31 2f         26d3bd1/
80004608: 6c 69 62 72 61 72 79 2f         library/
80004610: 63 6f 72 65 2f 73 72 63         core/src
80004618: 2f 66 6d 74 2f 6d 6f 64         /fmt/mod
80004620: 2e 72 73 00 73 72 63 2f         .rs.src/
80004628: 63 6f 6e 73 6f 6c 65 2e         console.
80004630: 72 73 00 2f 72 75 73 74         rs./rust
80004638: 63 2f 65 34 30 38 39 34         c/e40894
80004640: 37 62 66 64 32 30 30 61         7bfd200a
80004648: 66 34 32 64 62 33 32 32         f42db322
80004650: 64 61 66 30 66 61 64 66         daf0fadf
80004658: 65 37 65 32 36 64 33 62         e7e26d3b
80004660: 64 31 2f 6c 69 62 72 61         d1/libra
80004668: 72 79 2f 63 6f 72 65 2f         ry/core/
80004670: 73 72 63 2f 69 74 65 72         src/iter
80004678: 2f 72 61 6e 67 65 2e 72         /range.r
80004680: 73 00 2f 72 75 73 74 63         s./rustc
80004688: 2f 65 34 30 38 39 34 37         /e408947
80004690: 62 66 64 32 30 30 61 66         bfd200af
80004698: 34 32 64 62 33 32 32 64         42db322d
800046a0: 61 66 30 66 61 64 66 65         af0fadfe
800046a8: 37 65 32 36 64 33 62 64         7e26d3bd
800046b0: 31 2f 6c 69 62 72 61 72         1/librar
800046b8: 79 2f 63 6f 72 65 2f 73         y/core/s
800046c0: 72 63 2f 66 6d 74 2f 6e         rc/fmt/n
800046c8: 75 6d 2e 72 73 00 2f 72         um.rs./r
800046d0: 75 73 74 63 2f 65 34 30         ustc/e40
800046d8: 38 39 34 37 62 66 64 32         8947bfd2
800046e0: 30 30 61 66 34 32 64 62         00af42db
800046e8: 33 32 32 64 61 66 30 66         322daf0f
800046f0: 61 64 66 65 37 65 32 36         adfe7e26
800046f8: 64 33 62 64 31 2f 6c 69         d3bd1/li
80004700: 62 72 61 72 79 2f 63 6f         brary/co
80004708: 72 65 2f 73 72 63 2f 75         re/src/u
80004710: 62 5f 63 68 65 63 6b 73         b_checks
80004718: 2e 72 73 00 c0 01 3a c0         .rs...:.
80004720: 01 3a c0 00 51 5b 6b 65         .:..Q[ke
80004728: 72 6e 65 6c 5d 20 61 63         rnel] ac
80004730: 63 65 70 74 61 6e 63 65         ceptance
80004738: 20 75 73 65 72 20 6b 65          user ke
80004740: 72 6e 65 6c 2d 70 72 6f         rnel-pro
80004748: 62 65 20 6c 6f 61 64 20         be load 
80004750: 74 72 61 70 70 65 64 20         trapped 
80004758: 61 73 20 64 65 6c 65 67         as deleg
80004760: 61 74 65 64 20 6c 6f 61         ated loa
80004768: 64 20 70 61 67 65 20 66         d page f
80004770: 61 75 6c 74 3a 20 c0 01         ault: ..
80004778: 0a 00 2f 72 75 73 74 63         ../rustc
80004780: 2f 65 34 30 38 39 34 37         /e408947
80004788: 62 66 64 32 30 30 61 66         bfd200af
80004790: 34 32 64 62 33 32 32 64         42db322d
80004798: 61 66 30 66 61 64 66 65         af0fadfe
800047a0: 37 65 32 36 64 33 62 64         7e26d3bd
800047a8: 31 2f 6c 69 62 72 61 72         1/librar
800047b0: 79 2f 63 6f 72 65 2f 73         y/core/s
800047b8: 72 63 2f 70 74 72 2f 63         rc/ptr/c
800047c0: 6f 6e 73 74 5f 70 74 72         onst_ptr
800047c8: 2e 72 73 00 2f 72 75 73         .rs./rus
800047d0: 74 63 2f 65 34 30 38 39         tc/e4089
800047d8: 34 37 62 66 64 32 30 30         47bfd200
800047e0: 61 66 34 32 64 62 33 32         af42db32
800047e8: 32 64 61 66 30 66 61 64         2daf0fad
800047f0: 66 65 37 65 32 36 64 33         fe7e26d3
800047f8: 62 64 31 2f 6c 69 62 72         bd1/libr
80004800: 61 72 79 2f 63 6f 72 65         ary/core
80004808: 2f 73 72 63 2f 61 72 72         /src/arr
80004810: 61 79 2f 69 74 65 72 2f         ay/iter/
80004818: 69 74 65 72 5f 69 6e 6e         iter_inn
80004820: 65 72 2e 72 73 00 2f 72         er.rs./r
80004828: 75 73 74 63 2f 65 34 30         ustc/e40
80004830: 38 39 34 37 62 66 64 32         8947bfd2
80004838: 30 30 61 66 34 32 64 62         00af42db
80004840: 33 32 32 64 61 66 30 66         322daf0f
80004848: 61 64 66 65 37 65 32 36         adfe7e26
80004850: 64 33 62 64 31 2f 6c 69         d3bd1/li
80004858: 62 72 61 72 79 2f 63 6f         brary/co
80004860: 72 65 2f 73 72 63 2f 70         re/src/p
80004868: 61 6e 69 63 6b 69 6e 67         anicking
80004870: 2e 72 73 00 00 00 00 00         .rs.....

0000000080004878 <.Lanon.36a8e41113f3c76eae43e2cedecb658a.1>:
80004878: d8 45 00 80 00 00 00 00         .E......
80004880: 4b 00 00 00 00 00 00 00         K.......
80004888: 71 03 00 00 2a 00 00 00         q...*...
80004890: 30 31 32 33 34 35 36 37         01234567
80004898: 38 39 41 42 43 44 45 46         89ABCDEF
800048a0: 00 00 00 00 00 00 00 00         ........
800048a8: 00 00 00 00 00 00 00 00         ........
800048b0: 30 31 32 33 34 35 36 37         01234567
800048b8: 38 39 61 62 63 64 65 66         89abcdef

00000000800048c0 <.Lanon.7617929dfd8c34ccb0aa4ac9aa78c416.0>:
800048c0: 75 6e 73 61 66 65 20 70         unsafe p
800048c8: 72 65 63 6f 6e 64 69 74         recondit
800048d0: 69 6f 6e 28 73 29 20 76         ion(s) v
800048d8: 69 6f 6c 61 74 65 64 3a         iolated:
800048e0: 20 73 6c 69 63 65 3a 3a          slice::
800048e8: 67 65 74 5f 75 6e 63 68         get_unch
800048f0: 65 63 6b 65 64 20 72 65         ecked re
800048f8: 71 75 69 72 65 73 20 74         quires t
80004900: 68 61 74 20 74 68 65 20         hat the 
80004908: 69 6e 64 65 78 20 69 73         index is
80004910: 20 77 69 74 68 69 6e 20          within 
80004918: 74 68 65 20 73 6c 69 63         the slic
80004920: 65 0a 0a 54 68 69 73 20         e..This 
80004928: 69 6e 64 69 63 61 74 65         indicate
80004930: 73 20 61 20 62 75 67 20         s a bug 
80004938: 69 6e 20 74 68 65 20 70         in the p
80004940: 72 6f 67 72 61 6d 2e 20         rogram. 
80004948: 54 68 69 73 20 55 6e 64         This Und
80004950: 65 66 69 6e 65 64 20 42         efined B
80004958: 65 68 61 76 69 6f 72 20         ehavior 
80004960: 63 68 65 63 6b 20 69 73         check is
80004968: 20 6f 70 74 69 6f 6e 61          optiona
80004970: 6c 2c 20 61 6e 64 20 63         l, and c
80004978: 61 6e 6e 6f 74 20 62 65         annot be
80004980: 20 72 65 6c 69 65 64 20          relied 
80004988: 6f 6e 20 66 6f 72 20 73         on for s
80004990: 61 66 65 74 79 2e 00 00         afety...

0000000080004998 <.Lanon.9604faa0696faa956849f8878ca30107.0>:
80004998: 00 00 00 00 00 00 00 00         ........
800049a0: 00 00 00 00 00 00 00 00         ........
800049a8: 01 00 00 00 00 00 00 00         ........
800049b0: e6 2a 00 80 00 00 00 00         .*......
800049b8: 64 03 00 80 00 00 00 00         d.......
800049c0: a4 03 00 80 00 00 00 00         ........

00000000800049c8 <.Lanon.b9442d90027ff9aa231e46907b2fe02b.0>:
800049c8: 00 00 00 00 00 00 00 00         ........
800049d0: 00 00 00 81 00 00 00 00         ........
800049d8: 4b 59 86 38 d6 c5 6d 34         KY.8..m4
800049e0: 0d 00 00 00 00 00 00 00         ........
800049e8: 00 00 40 00 00 00 00 00         ..@.....
800049f0: 00 00 00 80 00 00 00 00         ........
800049f8: 00 30 40 00 00 00 00 00         .0@.....
80004a00: 88 77 66 55 44 33 22 11         .wfUD3".

0000000080004a08 <.Lanon.63ecea146670b2ae7cde23bb3a5aec4a.1>:
80004a08: 05 5b 70 74 5d 20 c0 04         .[pt] ..
80004a10: 20 76 61 3d c1 20 00 80          va=. ..
80004a18: 60 06 20 76 70 6e 3d 28         `. vpn=(
80004a20: c0 01 2c c0 01 2c c0 08         ..,..,..
80004a28: 29 20 6c 65 76 65 6c 3d         ) level=
80004a30: c0 0a 20 72 6f 6f 74 5f         .. root_
80004a38: 70 74 65 3d c3 20 00 80         pte=. ..
80004a40: 69 12 00 08 20 6c 31 5f         i... l1_
80004a48: 70 74 65 3d c3 20 00 80         pte=. ..
80004a50: 69 12 00 08 20 6c 30 5f         i... l0_
80004a58: 70 74 65 3d c3 20 00 80         pte=. ..
80004a60: 69 12 00 0a 20 6c 65 61         i... lea
80004a68: 66 5f 70 74 65 3d c3 20         f_pte=. 
80004a70: 00 80 69 12 00 09 20 6c         ..i... l
80004a78: 65 61 66 5f 70 61 3d c1         eaf_pa=.
80004a80: 20 00 80 60 07 20 66 6c          ..`. fl
80004a88: 61 67 73 3d c0 01 0a 00         ags=....

0000000080004a90 <.Lanon.63ecea146670b2ae7cde23bb3a5aec4a.3>:
80004a90: f5 43 00 80 00 00 00 00         .C......
80004a98: 0b 00 00 00 00 00 00 00         ........
80004aa0: 92 02 00 00 0e 00 00 00         ........

0000000080004aa8 <.Lanon.63ecea146670b2ae7cde23bb3a5aec4a.4>:
80004aa8: f5 43 00 80 00 00 00 00         .C......
80004ab0: 0b 00 00 00 00 00 00 00         ........
80004ab8: e5 01 00 00 20 00 00 00         .... ...

0000000080004ac0 <.Lanon.63ecea146670b2ae7cde23bb3a5aec4a.5>:
80004ac0: f5 43 00 80 00 00 00 00         .C......
80004ac8: 0b 00 00 00 00 00 00 00         ........
80004ad0: ed 01 00 00 17 00 00 00         ........

0000000080004ad8 <.Lanon.63ecea146670b2ae7cde23bb3a5aec4a.6>:
80004ad8: f5 43 00 80 00 00 00 00         .C......
80004ae0: 0b 00 00 00 00 00 00 00         ........
80004ae8: ee 01 00 00 15 00 00 00         ........

0000000080004af0 <.Lanon.63ecea146670b2ae7cde23bb3a5aec4a.7>:
80004af0: f5 43 00 80 00 00 00 00         .C......
80004af8: 0b 00 00 00 00 00 00 00         ........
80004b00: f6 01 00 00 17 00 00 00         ........

0000000080004b08 <.Lanon.63ecea146670b2ae7cde23bb3a5aec4a.8>:
80004b08: f5 43 00 80 00 00 00 00         .C......
80004b10: 0b 00 00 00 00 00 00 00         ........
80004b18: f7 01 00 00 15 00 00 00         ........

0000000080004b20 <.Lanon.63ecea146670b2ae7cde23bb3a5aec4a.9>:
80004b20: 4c 30 2d 34 4b                  L0-4K

0000000080004b25 <.Lanon.63ecea146670b2ae7cde23bb3a5aec4a.10>:
80004b25: 4c 31 2d 32 4d                  L1-2M

0000000080004b2a <.Lanon.63ecea146670b2ae7cde23bb3a5aec4a.11>:
80004b2a: 4c 32 2d 31 47                  L2-1G

0000000080004b2f <.Lanon.63ecea146670b2ae7cde23bb3a5aec4a.12>:
80004b2f: 69 6e 76 61 6c 69 64 00         invalid.
80004b37: 00                              .

0000000080004b38 <.Lanon.63ecea146670b2ae7cde23bb3a5aec4a.13>:
80004b38: f5 43 00 80 00 00 00 00         .C......
80004b40: 0b 00 00 00 00 00 00 00         ........
80004b48: 96 02 00 00 0e 00 00 00         ........

0000000080004b50 <.Lanon.63ecea146670b2ae7cde23bb3a5aec4a.14>:
80004b50: f5 43 00 80 00 00 00 00         .C......
80004b58: 0b 00 00 00 00 00 00 00         ........
80004b60: 24 02 00 00 0d 00 00 00         $.......

0000000080004b68 <.Lanon.63ecea146670b2ae7cde23bb3a5aec4a.15>:
80004b68: f5 43 00 80 00 00 00 00         .C......
80004b70: 0b 00 00 00 00 00 00 00         ........
80004b78: 9a 02 00 00 05 00 00 00         ........

0000000080004b80 <.Lanon.63ecea146670b2ae7cde23bb3a5aec4a.16>:
80004b80: f5 43 00 80 00 00 00 00         .C......
80004b88: 0b 00 00 00 00 00 00 00         ........
80004b90: c6 01 00 00 09 00 00 00         ........

0000000080004b98 <.Lanon.63ecea146670b2ae7cde23bb3a5aec4a.17>:
80004b98: f5 43 00 80 00 00 00 00         .C......
80004ba0: 0b 00 00 00 00 00 00 00         ........
80004ba8: c7 01 00 00 09 00 00 00         ........

0000000080004bb0 <.Lanon.63ecea146670b2ae7cde23bb3a5aec4a.18>:
80004bb0: f5 43 00 80 00 00 00 00         .C......
80004bb8: 0b 00 00 00 00 00 00 00         ........
80004bc0: c8 01 00 00 09 00 00 00         ........

0000000080004bc8 <.Lanon.63ecea146670b2ae7cde23bb3a5aec4a.19>:
80004bc8: f5 43 00 80 00 00 00 00         .C......
80004bd0: 0b 00 00 00 00 00 00 00         ........
80004bd8: 7e 01 00 00 09 00 00 00         ~.......

0000000080004be0 <.Lanon.63ecea146670b2ae7cde23bb3a5aec4a.20>:
80004be0: f5 43 00 80 00 00 00 00         .C......
80004be8: 0b 00 00 00 00 00 00 00         ........
80004bf0: 7f 01 00 00 09 00 00 00         ........

0000000080004bf8 <.Lanon.63ecea146670b2ae7cde23bb3a5aec4a.21>:
80004bf8: f5 43 00 80 00 00 00 00         .C......
80004c00: 0b 00 00 00 00 00 00 00         ........
80004c08: 80 01 00 00 09 00 00 00         ........

0000000080004c10 <.Lanon.63ecea146670b2ae7cde23bb3a5aec4a.22>:
80004c10: f5 43 00 80 00 00 00 00         .C......
80004c18: 0b 00 00 00 00 00 00 00         ........
80004c20: 84 01 00 00 12 00 00 00         ........

0000000080004c28 <.Lanon.63ecea146670b2ae7cde23bb3a5aec4a.23>:
80004c28: f5 43 00 80 00 00 00 00         .C......
80004c30: 0b 00 00 00 00 00 00 00         ........
80004c38: 9f 01 00 00 09 00 00 00         ........

0000000080004c40 <.Lanon.63ecea146670b2ae7cde23bb3a5aec4a.24>:
80004c40: f5 43 00 80 00 00 00 00         .C......
80004c48: 0b 00 00 00 00 00 00 00         ........
80004c50: a0 01 00 00 09 00 00 00         ........

0000000080004c58 <.Lanon.63ecea146670b2ae7cde23bb3a5aec4a.25>:
80004c58: f5 43 00 80 00 00 00 00         .C......
80004c60: 0b 00 00 00 00 00 00 00         ........
80004c68: a2 01 00 00 09 00 00 00         ........

0000000080004c70 <.Lanon.63ecea146670b2ae7cde23bb3a5aec4a.26>:
80004c70: f5 43 00 80 00 00 00 00         .C......
80004c78: 0b 00 00 00 00 00 00 00         ........
80004c80: a3 01 00 00 09 00 00 00         ........

0000000080004c88 <.Lanon.63ecea146670b2ae7cde23bb3a5aec4a.27>:
80004c88: f5 43 00 80 00 00 00 00         .C......
80004c90: 0b 00 00 00 00 00 00 00         ........
80004c98: a6 01 00 00 09 00 00 00         ........

0000000080004ca0 <.Lanon.63ecea146670b2ae7cde23bb3a5aec4a.28>:
80004ca0: f5 43 00 80 00 00 00 00         .C......
80004ca8: 0b 00 00 00 00 00 00 00         ........
80004cb0: a9 01 00 00 09 00 00 00         ........

0000000080004cb8 <.Lanon.63ecea146670b2ae7cde23bb3a5aec4a.29>:
80004cb8: f5 43 00 80 00 00 00 00         .C......
80004cc0: 0b 00 00 00 00 00 00 00         ........
80004cc8: aa 01 00 00 09 00 00 00         ........

0000000080004cd0 <.Lanon.63ecea146670b2ae7cde23bb3a5aec4a.30>:
80004cd0: f5 43 00 80 00 00 00 00         .C......
80004cd8: 0b 00 00 00 00 00 00 00         ........
80004ce0: ac 01 00 00 09 00 00 00         ........

0000000080004ce8 <.Lanon.63ecea146670b2ae7cde23bb3a5aec4a.31>:
80004ce8: f5 43 00 80 00 00 00 00         .C......
80004cf0: 0b 00 00 00 00 00 00 00         ........
80004cf8: ae 01 00 00 09 00 00 00         ........

0000000080004d00 <.Lanon.63ecea146670b2ae7cde23bb3a5aec4a.32>:
80004d00: f5 43 00 80 00 00 00 00         .C......
80004d08: 0b 00 00 00 00 00 00 00         ........
80004d10: b2 01 00 00 24 00 00 00         ....$...

0000000080004d18 <.Lanon.63ecea146670b2ae7cde23bb3a5aec4a.33>:
80004d18: f5 43 00 80 00 00 00 00         .C......
80004d20: 0b 00 00 00 00 00 00 00         ........
80004d28: b2 01 00 00 16 00 00 00         ........

0000000080004d30 <.Lanon.63ecea146670b2ae7cde23bb3a5aec4a.34>:
80004d30: f5 43 00 80 00 00 00 00         .C......
80004d38: 0b 00 00 00 00 00 00 00         ........
80004d40: b3 01 00 00 0d 00 00 00         ........

0000000080004d48 <.Lanon.63ecea146670b2ae7cde23bb3a5aec4a.35>:
80004d48: 23 5b 6b 65 72 6e 65 6c         #[kernel
80004d50: 5d 20 75 6e 65 78 70 65         ] unexpe
80004d58: 63 74 65 64 20 75 73 65         cted use
80004d60: 72 20 65 63 61 6c 6c 3a         r ecall:
80004d68: 20 61 30 3d c1 20 00 80          a0=. ..
80004d70: 60 04 20 61 37 3d c0 06         `. a7=..
80004d78: 20 73 65 70 63 3d c1 20          sepc=. 
80004d80: 00 80 60 07 20 73 74 76         ..`. stv
80004d88: 61 6c 3d c1 20 00 80 60         al=. ..`
80004d90: 01 0a 00                        ...

0000000080004d93 <.Lanon.63ecea146670b2ae7cde23bb3a5aec4a.36>:
80004d93: 5b 6b 65 72 6e 65 6c 5d         [kernel]
80004d9b: 20 74 68 69 73 20 6d 65          this me
80004da3: 61 6e 73 20 74 68 65 20         ans the 
80004dab: 75 73 65 72 20 70 72 6f         user pro
80004db3: 62 65 20 6d 61 6e 61 67         be manag
80004dbb: 65 64 20 74 6f 20 65 78         ed to ex
80004dc3: 65 63 75 74 65 20 70 61         ecute pa
80004dcb: 73 74 20 74 68 65 20 66         st the f
80004dd3: 6f 72 62 69 64 64 65 6e         orbidden
80004ddb: 20 6b 65 72 6e 65 6c 20          kernel 
80004de3: 6c 6f 61 64 0a                  load.

0000000080004de8 <.Lanon.63ecea146670b2ae7cde23bb3a5aec4a.37>:
80004de8: f5 43 00 80 00 00 00 00         .C......
80004df0: 0b 00 00 00 00 00 00 00         ........
80004df8: bd 01 00 00 09 00 00 00         ........

0000000080004e00 <.Lanon.63ecea146670b2ae7cde23bb3a5aec4a.39>:
80004e00: 24 5b 6b 65 72 6e 65 6c         $[kernel
80004e08: 5d 20 74 72 61 70 70 65         ] trappe
80004e10: 64 20 75 73 65 72 20 66         d user f
80004e18: 61 75 6c 74 3a 20 73 63         ault: sc
80004e20: 61 75 73 65 3d c1 20 00         ause=. .
80004e28: 80 60 06 20 73 65 70 63         .`. sepc
80004e30: 3d c1 20 00 80 60 07 20         =. ..`. 
80004e38: 73 74 76 61 6c 3d c1 20         stval=. 
80004e40: 00 80 60 06 20 73 61 74         ..`. sat
80004e48: 70 3d c1 20 00 80 60 01         p=. ..`.
80004e50: 0a 00                           ..

0000000080004e52 <.Lanon.63ecea146670b2ae7cde23bb3a5aec4a.40>:
80004e52: 1d 5b 6b 65 72 6e 65 6c         .[kernel
80004e5a: 5d 20 75 73 65 72 20 65         ] user e
80004e62: 76 69 64 65 6e 63 65 3a         vidence:
80004e6a: 20 73 65 65 64 3d c3 20          seed=. 
80004e72: 00 80 69 12 00 0a 20 72         ..i... r
80004e7a: 65 61 64 62 61 63 6b 3d         eadback=
80004e82: c3 20 00 80 69 12 00 0c         . ..i...
80004e8a: 20 73 74 61 63 6b 5f 65          stack_e
80004e92: 63 68 6f 3d c3 20 00 80         cho=. ..
80004e9a: 69 12 00 07 20 73 74 61         i... sta
80004ea2: 67 65 3d c3 20 00 80 69         ge=. ..i
80004eaa: 12 00 19 20 75 6e 65 78         ... unex
80004eb2: 70 65 63 74 65 64 5f 6b         pected_k
80004eba: 65 72 6e 65 6c 5f 76 61         ernel_va
80004ec2: 6c 75 65 3d c3 20 00 80         lue=. ..
80004eca: 69 12 00 14 20 75 6e 65         i... une
80004ed2: 78 70 65 63 74 65 64 5f         xpected_
80004eda: 73 79 73 63 61 6c 6c 3d         syscall=
80004ee2: c3 20 00 80 69 12 00 01         . ..i...
80004eea: 0a 00                           ..

0000000080004eec <.Lanon.63ecea146670b2ae7cde23bb3a5aec4a.41>:
80004eec: 6b 65 72 6e 65 6c 5f 70         kernel_p
80004ef4: 72 6f 62 65                     robe

0000000080004ef8 <.Lanon.63ecea146670b2ae7cde23bb3a5aec4a.42>:
80004ef8: 75 73 65 72 5f 74 65 78         user_tex
80004f00: 74                              t

0000000080004f01 <.Lanon.63ecea146670b2ae7cde23bb3a5aec4a.43>:
80004f01: 75 73 65 72 5f 64 61 74         user_dat
80004f09: 61                              a

0000000080004f0a <.Lanon.63ecea146670b2ae7cde23bb3a5aec4a.44>:
80004f0a: 75 73 65 72 5f 73 74 61         user_sta
80004f12: 63 6b 00 00 00 00               ck....

0000000080004f18 <.Lanon.63ecea146670b2ae7cde23bb3a5aec4a.45>:
80004f18: f5 43 00 80 00 00 00 00         .C......
80004f20: 0b 00 00 00 00 00 00 00         ........
80004f28: 4b 01 00 00 29 00 00 00         K...)...

0000000080004f30 <.Lanon.63ecea146670b2ae7cde23bb3a5aec4a.49>:
80004f30: f5 43 00 80 00 00 00 00         .C......
80004f38: 0b 00 00 00 00 00 00 00         ........
80004f40: ad 02 00 00 24 00 00 00         ....$...
80004f48: 46 41 49 4c 50 41 53 53         FAILPASS

0000000080004f50 <.Lanon.63ecea146670b2ae7cde23bb3a5aec4a.52>:
80004f50: f5 43 00 80 00 00 00 00         .C......
80004f58: 0b 00 00 00 00 00 00 00         ........
80004f60: b9 02 00 00 09 00 00 00         ........

0000000080004f68 <.Lanon.63ecea146670b2ae7cde23bb3a5aec4a.54>:
80004f68: 47 44 00 80 00 00 00 00         GD......
80004f70: 4b 00 00 00 00 00 00 00         K.......
80004f78: bc 02 00 00 09 00 00 00         ........

0000000080004f80 <.Lanon.63ecea146670b2ae7cde23bb3a5aec4a.55>:
80004f80: 47 44 00 80 00 00 00 00         GD......
80004f88: 4b 00 00 00 00 00 00 00         K.......
80004f90: 0f 02 00 00 05 00 00 00         ........

0000000080004f98 <.Lanon.63ecea146670b2ae7cde23bb3a5aec4a.57>:
80004f98: f5 43 00 80 00 00 00 00         .C......
80004fa0: 0b 00 00 00 00 00 00 00         ........
80004fa8: a3 00 00 00 0d 00 00 00         ........

0000000080004fb0 <.Lanon.63ecea146670b2ae7cde23bb3a5aec4a.58>:
80004fb0: 29 5b 6b 65 72 6e 65 6c         )[kernel
80004fb8: 5d 20 75 6e 65 78 70 65         ] unexpe
80004fc0: 63 74 65 64 20 6d 61 63         cted mac
80004fc8: 68 69 6e 65 20 74 72 61         hine tra
80004fd0: 70 3a 20 6d 63 61 75 73         p: mcaus
80004fd8: 65 3d c1 20 00 80 60 06         e=. ..`.
80004fe0: 20 6d 65 70 63 3d c1 20          mepc=. 
80004fe8: 00 80 60 07 20 6d 74 76         ..`. mtv
80004ff0: 61 6c 3d c1 20 00 80 60         al=. ..`
80004ff8: 01 0a 00                        ...

0000000080004ffb <.Lanon.63ecea146670b2ae7cde23bb3a5aec4a.59>:
80004ffb: 2c 5b 6b 65 72 6e 65 6c         ,[kernel
80005003: 5d 20 75 6e 65 78 70 65         ] unexpe
8000500b: 63 74 65 64 20 73 75 70         cted sup
80005013: 65 72 76 69 73 6f 72 20         ervisor 
8000501b: 74 72 61 70 3a 20 73 63         trap: sc
80005023: 61 75 73 65 3d c1 20 00         ause=. .
8000502b: 80 60 06 20 73 65 70 63         .`. sepc
80005033: 3d c1 20 00 80 60 07 20         =. ..`. 
8000503b: 73 74 76 61 6c 3d c1 20         stval=. 
80005043: 00 80 60 06 20 73 61 74         ..`. sat
8000504b: 70 3d c1 20 00 80 60 01         p=. ..`.
80005053: 0a 00                           ..

0000000080005055 <.Lanon.63ecea146670b2ae7cde23bb3a5aec4a.60>:
80005055: 5b 6b 65 72 6e 65 6c 5d         [kernel]
8000505d: 20 62 6f 6f 74 65 64 20          booted 
80005065: 69 6e 20 53 2d 6d 6f 64         in S-mod
8000506d: 65 20 77 69 74 68 20 53         e with S
80005075: 76 33 39 20 65 6e 61 62         v39 enab
8000507d: 6c 65 64 0a                     led.

0000000080005081 <.Lanon.63ecea146670b2ae7cde23bb3a5aec4a.61>:
80005081: 5b 6b 65 72 6e 65 6c 5d         [kernel]
80005089: 20 4c 41 42 34 20 6b 65          LAB4 ke
80005091: 72 6e 65 6c 20 74 61 73         rnel tas
80005099: 6b 31 20 73 69 6e 67 6c         k1 singl
800050a1: 65 20 70 61 67 65 2d 74         e page-t
800050a9: 61 62 6c 65 20 6d 65 63         able mec
800050b1: 68 61 6e 69 73 6d 0a            hanism.

00000000800050b8 <.Lanon.63ecea146670b2ae7cde23bb3a5aec4a.62>:
800050b8: 5b 6b 65 72 6e 65 6c 5d         [kernel]
800050c0: 20 69 73 6f 6c 61 74 69          isolati
800050c8: 6f 6e 20 70 6f 6c 69 63         on polic
800050d0: 79 3a 20 6f 6e 65 20 73         y: one s
800050d8: 68 61 72 65 64 20 72 6f         hared ro
800050e0: 6f 74 20 70 61 67 65 20         ot page 
800050e8: 74 61 62 6c 65 2c 20 6b         table, k
800050f0: 65 72 6e 65 6c 20 6c 65         ernel le
800050f8: 61 76 65 73 20 6b 65 65         aves kee
80005100: 70 20 55 3d 30 2c 20 75         p U=0, u
80005108: 73 65 72 20 74 65 78 74         ser text
80005110: 2f 64 61 74 61 2f 73 74         /data/st
80005118: 61 63 6b 20 6c 65 61 76         ack leav
80005120: 65 73 20 73 65 74 20 55         es set U
80005128: 3d 31 0a 00 00 00 00 00         =1......

0000000080005130 <.Lanon.63ecea146670b2ae7cde23bb3a5aec4a.63>:
80005130: f5 43 00 80 00 00 00 00         .C......
80005138: 0b 00 00 00 00 00 00 00         ........
80005140: e5 00 00 00 12 00 00 00         ........

0000000080005148 <.Lanon.63ecea146670b2ae7cde23bb3a5aec4a.64>:
80005148: 14 5b 6b 65 72 6e 65 6c         .[kernel
80005150: 5d 20 73 61 74 70 28 72         ] satp(r
80005158: 6f 6f 74 29 3d c1 20 00         oot)=. .
80005160: 80 60 09 20 72 6f 6f 74         .`. root
80005168: 5f 70 61 3d c1 20 00 80         _pa=. ..
80005170: 60 01 0a 00                     `...

0000000080005174 <.Lanon.63ecea146670b2ae7cde23bb3a5aec4a.69>:
80005174: 23 5b 6b 65 72 6e 65 6c         #[kernel
8000517c: 5d 20 77 69 6e 64 6f 77         ] window
80005184: 73 3a 20 6b 65 72 6e 65         s: kerne
8000518c: 6c 5f 69 64 65 6e 74 69         l_identi
80005194: 74 79 3d 5b c1 20 00 80         ty=[. ..
8000519c: 60 02 2c 20 c1 20 00 80         `., . ..
800051a4: 60 08 29 20 75 73 65 72         `.) user
800051ac: 3d 5b c1 20 00 80 60 02         =[. ..`.
800051b4: 2c 20 c1 20 00 80 60 02         , . ..`.
800051bc: 29 0a 00                        )..

00000000800051bf <.Lanon.63ecea146670b2ae7cde23bb3a5aec4a.70>:
800051bf: 1d 5b 6b 65 72 6e 65 6c         .[kernel
800051c7: 5d 20 75 73 65 72 20 70         ] user p
800051cf: 61 67 65 73 3a 20 63 6f         ages: co
800051d7: 64 65 5f 70 61 3d c1 20         de_pa=. 
800051df: 00 80 60 09 20 64 61 74         ..`. dat
800051e7: 61 5f 70 61 3d c1 20 00         a_pa=. .
800051ef: 80 60 0a 20 73 74 61 63         .`. stac
800051f7: 6b 5f 70 61 3d c1 20 00         k_pa=. .
800051ff: 80 60 10 20 63 6f 70 69         .`. copi
80005207: 65 64 5f 70 72 6f 67 72         ed_progr
8000520f: 61 6d 3d c0 07 20 62 79         am=.. by
80005217: 74 65 73 0a 00                  tes..

000000008000521c <.Lanon.63ecea146670b2ae7cde23bb3a5aec4a.71>:
8000521c: 2c 5b 6b 65 72 6e 65 6c         ,[kernel
80005224: 5d 20 65 6e 74 65 72 69         ] enteri
8000522c: 6e 67 20 55 2d 6d 6f 64         ng U-mod
80005234: 65 20 70 72 6f 62 65 20         e probe 
8000523c: 61 74 20 75 73 65 72 5f         at user_
80005244: 74 65 78 74 3d c1 20 00         text=. .
8000524c: 80 60 0e 20 77 69 74 68         .`. with
80005254: 20 75 73 65 72 5f 73 70          user_sp
8000525c: 3d c1 20 00 80 60 01 0a         =. ..`..
80005264: 00 00 00 00                     ....

0000000080005268 <.Lanon.6289d819cb707dad4330125ef9d15c27.2>:
80005268: a8 44 00 80 00 00 00 00         .D......
80005270: 53 00 00 00 00 00 00 00         S.......
80005278: 3f 00 00 00 25 00 00 00         ?...%...

0000000080005280 <.Lanon.6289d819cb707dad4330125ef9d15c27.4>:
80005280: cc 47 00 80 00 00 00 00         .G......
80005288: 59 00 00 00 00 00 00 00         Y.......
80005290: ae 00 00 00 20 00 00 00         .... ...

0000000080005298 <.Lanon.5b185f3e06d8cf2fa10cf564336a22a7.1>:
80005298: 33 46 00 80 00 00 00 00         3F......
800052a0: 4e 00 00 00 00 00 00 00         N.......
800052a8: b2 01 00 00 01 00 00 00         ........

00000000800052b0 <.Lanon.2a42001112b1bd39648680eed285e098.0>:
800052b0: 75 6e 73 61 66 65 20 70         unsafe p
800052b8: 72 65 63 6f 6e 64 69 74         recondit
800052c0: 69 6f 6e 28 73 29 20 76         ion(s) v
800052c8: 69 6f 6c 61 74 65 64 3a         iolated:
800052d0: 20 70 74 72 3a 3a 77 72          ptr::wr
800052d8: 69 74 65 5f 62 79 74 65         ite_byte
800052e0: 73 20 72 65 71 75 69 72         s requir
800052e8: 65 73 20 74 68 61 74 20         es that 
800052f0: 74 68 65 20 64 65 73 74         the dest
800052f8: 69 6e 61 74 69 6f 6e 20         ination 
80005300: 70 6f 69 6e 74 65 72 20         pointer 
80005308: 69 73 20 61 6c 69 67 6e         is align
80005310: 65 64 20 61 6e 64 20 6e         ed and n
80005318: 6f 6e 2d 6e 75 6c 6c 0a         on-null.
80005320: 0a 54 68 69 73 20 69 6e         .This in
80005328: 64 69 63 61 74 65 73 20         dicates 
80005330: 61 20 62 75 67 20 69 6e         a bug in
80005338: 20 74 68 65 20 70 72 6f          the pro
80005340: 67 72 61 6d 2e 20 54 68         gram. Th
80005348: 69 73 20 55 6e 64 65 66         is Undef
80005350: 69 6e 65 64 20 42 65 68         ined Beh
80005358: 61 76 69 6f 72 20 63 68         avior ch
80005360: 65 63 6b 20 69 73 20 6f         eck is o
80005368: 70 74 69 6f 6e 61 6c 2c         ptional,
80005370: 20 61 6e 64 20 63 61 6e          and can
80005378: 6e 6f 74 20 62 65 20 72         not be r
80005380: 65 6c 69 65 64 20 6f 6e         elied on
80005388: 20 66 6f 72 20 73 61 66          for saf
80005390: 65 74 79 2e                     ety.

0000000080005394 <.Lanon.2a42001112b1bd39648680eed285e098.1>:
80005394: 75 6e 73 61 66 65 20 70         unsafe p
8000539c: 72 65 63 6f 6e 64 69 74         recondit
800053a4: 69 6f 6e 28 73 29 20 76         ion(s) v
800053ac: 69 6f 6c 61 74 65 64 3a         iolated:
800053b4: 20 70 74 72 3a 3a 77 72          ptr::wr
800053bc: 69 74 65 5f 76 6f 6c 61         ite_vola
800053c4: 74 69 6c 65 20 72 65 71         tile req
800053cc: 75 69 72 65 73 20 74 68         uires th
800053d4: 61 74 20 74 68 65 20 70         at the p
800053dc: 6f 69 6e 74 65 72 20 61         ointer a
800053e4: 72 67 75 6d 65 6e 74 20         rgument 
800053ec: 69 73 20 61 6c 69 67 6e         is align
800053f4: 65 64 0a 0a 54 68 69 73         ed..This
800053fc: 20 69 6e 64 69 63 61 74          indicat
80005404: 65 73 20 61 20 62 75 67         es a bug
8000540c: 20 69 6e 20 74 68 65 20          in the 
80005414: 70 72 6f 67 72 61 6d 2e         program.
8000541c: 20 54 68 69 73 20 55 6e          This Un
80005424: 64 65 66 69 6e 65 64 20         defined 
8000542c: 42 65 68 61 76 69 6f 72         Behavior
80005434: 20 63 68 65 63 6b 20 69          check i
8000543c: 73 20 6f 70 74 69 6f 6e         s option
80005444: 61 6c 2c 20 61 6e 64 20         al, and 
8000544c: 63 61 6e 6e 6f 74 20 62         cannot b
80005454: 65 20 72 65 6c 69 65 64         e relied
8000545c: 20 6f 6e 20 66 6f 72 20          on for 
80005464: 73 61 66 65 74 79 2e            safety.

000000008000546b <.Lanon.2a42001112b1bd39648680eed285e098.2>:
8000546b: 75 6e 73 61 66 65 20 70         unsafe p
80005473: 72 65 63 6f 6e 64 69 74         recondit
8000547b: 69 6f 6e 28 73 29 20 76         ion(s) v
80005483: 69 6f 6c 61 74 65 64 3a         iolated:
8000548b: 20 70 74 72 3a 3a 63 6f          ptr::co
80005493: 70 79 5f 6e 6f 6e 6f 76         py_nonov
8000549b: 65 72 6c 61 70 70 69 6e         erlappin
800054a3: 67 20 72 65 71 75 69 72         g requir
800054ab: 65 73 20 74 68 61 74 20         es that 
800054b3: 62 6f 74 68 20 70 6f 69         both poi
800054bb: 6e 74 65 72 20 61 72 67         nter arg
800054c3: 75 6d 65 6e 74 73 20 61         uments a
800054cb: 72 65 20 61 6c 69 67 6e         re align
800054d3: 65 64 20 61 6e 64 20 6e         ed and n
800054db: 6f 6e 2d 6e 75 6c 6c 20         on-null 
800054e3: 61 6e 64 20 74 68 65 20         and the 
800054eb: 73 70 65 63 69 66 69 65         specifie
800054f3: 64 20 6d 65 6d 6f 72 79         d memory
800054fb: 20 72 61 6e 67 65 73 20          ranges 
80005503: 64 6f 20 6e 6f 74 20 6f         do not o
8000550b: 76 65 72 6c 61 70 0a 0a         verlap..
80005513: 54 68 69 73 20 69 6e 64         This ind
8000551b: 69 63 61 74 65 73 20 61         icates a
80005523: 20 62 75 67 20 69 6e 20          bug in 
8000552b: 74 68 65 20 70 72 6f 67         the prog
80005533: 72 61 6d 2e 20 54 68 69         ram. Thi
8000553b: 73 20 55 6e 64 65 66 69         s Undefi
80005543: 6e 65 64 20 42 65 68 61         ned Beha
8000554b: 76 69 6f 72 20 63 68 65         vior che
80005553: 63 6b 20 69 73 20 6f 70         ck is op
8000555b: 74 69 6f 6e 61 6c 2c 20         tional, 
80005563: 61 6e 64 20 63 61 6e 6e         and cann
8000556b: 6f 74 20 62 65 20 72 65         ot be re
80005573: 6c 69 65 64 20 6f 6e 20         lied on 
8000557b: 66 6f 72 20 73 61 66 65         for safe
80005583: 74 79 2e 00 00                  ty...

0000000080005588 <.Lanon.5e5feb84886a4bab16142a438a26567a.1>:
80005588: 24 46 00 80 00 00 00 00         $F......
80005590: 0e 00 00 00 00 00 00 00         ........
80005598: 09 00 00 00 0d 00 00 00         ........

00000000800055a0 <.Lanon.5e5feb84886a4bab16142a438a26567a.2>:
800055a0: 24 46 00 80 00 00 00 00         $F......
800055a8: 0e 00 00 00 00 00 00 00         ........
800055b0: 0b 00 00 00 09 00 00 00         ........

00000000800055b8 <.Lanon.53d5992e9e8f43fef599fde80d2c407f.0>:
800055b8: 75 6e 73 61 66 65 20 70         unsafe p
800055c0: 72 65 63 6f 6e 64 69 74         recondit
800055c8: 69 6f 6e 28 73 29 20 76         ion(s) v
800055d0: 69 6f 6c 61 74 65 64 3a         iolated:
800055d8: 20 75 73 69 7a 65 3a 3a          usize::
800055e0: 75 6e 63 68 65 63 6b 65         unchecke
800055e8: 64 5f 61 64 64 20 63 61         d_add ca
800055f0: 6e 6e 6f 74 20 6f 76 65         nnot ove
800055f8: 72 66 6c 6f 77 0a 0a 54         rflow..T
80005600: 68 69 73 20 69 6e 64 69         his indi
80005608: 63 61 74 65 73 20 61 20         cates a 
80005610: 62 75 67 20 69 6e 20 74         bug in t
80005618: 68 65 20 70 72 6f 67 72         he progr
80005620: 61 6d 2e 20 54 68 69 73         am. This
80005628: 20 55 6e 64 65 66 69 6e          Undefin
80005630: 65 64 20 42 65 68 61 76         ed Behav
80005638: 69 6f 72 20 63 68 65 63         ior chec
80005640: 6b 20 69 73 20 6f 70 74         k is opt
80005648: 69 6f 6e 61 6c 2c 20 61         ional, a
80005650: 6e 64 20 63 61 6e 6e 6f         nd canno
80005658: 74 20 62 65 20 72 65 6c         t be rel
80005660: 69 65 64 20 6f 6e 20 66         ied on f
80005668: 6f 72 20 73 61 66 65 74         or safet
80005670: 79 2e                           y.

0000000080005672 <.Lanon.3261cab52411c69ec957b904e4e832f0.0>:
80005672: 69 73 5f 61 6c 69 67 6e         is_align
8000567a: 65 64 5f 74 6f 3a 20 61         ed_to: a
80005682: 6c 69 67 6e 20 69 73 20         lign is 
8000568a: 6e 6f 74 20 61 20 70 6f         not a po
80005692: 77 65 72 2d 6f 66 2d 74         wer-of-t
8000569a: 77 6f 00 00 00 00               wo....

00000000800056a0 <.Lanon.3261cab52411c69ec957b904e4e832f0.2>:
800056a0: 7a 47 00 80 00 00 00 00         zG......
800056a8: 51 00 00 00 00 00 00 00         Q.......
800056b0: 5e 05 00 00 0d 00 00 00         ^.......

00000000800056b8 <.Lanon.eb340c1d96bbf6ea299c072f383e8433.1>:
800056b8: ce 46 00 80 00 00 00 00         .F......
800056c0: 4d 00 00 00 00 00 00 00         M.......
800056c8: 94 00 00 00 36 00 00 00         ....6...

00000000800056d0 <.Lanon.eb340c1d96bbf6ea299c072f383e8433.2>:
800056d0: 75 6e 73 61 66 65 20 70         unsafe p
800056d8: 72 65 63 6f 6e 64 69 74         recondit
800056e0: 69 6f 6e 28 73 29 20 76         ion(s) v
800056e8: 69 6f 6c 61 74 65 64 3a         iolated:
800056f0: 20 73 6c 69 63 65 3a 3a          slice::
800056f8: 66 72 6f 6d 5f 72 61 77         from_raw
80005700: 5f 70 61 72 74 73 20 72         _parts r
80005708: 65 71 75 69 72 65 73 20         equires 
80005710: 74 68 65 20 70 6f 69 6e         the poin
80005718: 74 65 72 20 74 6f 20 62         ter to b
80005720: 65 20 61 6c 69 67 6e 65         e aligne
80005728: 64 20 61 6e 64 20 6e 6f         d and no
80005730: 6e 2d 6e 75 6c 6c 2c 20         n-null, 
80005738: 61 6e 64 20 74 68 65 20         and the 
80005740: 74 6f 74 61 6c 20 73 69         total si
80005748: 7a 65 20 6f 66 20 74 68         ze of th
80005750: 65 20 73 6c 69 63 65 20         e slice 
80005758: 6e 6f 74 20 74 6f 20 65         not to e
80005760: 78 63 65 65 64 20 60 69         xceed `i
80005768: 73 69 7a 65 3a 3a 4d 41         size::MA
80005770: 58 60 0a 0a 54 68 69 73         X`..This
80005778: 20 69 6e 64 69 63 61 74          indicat
80005780: 65 73 20 61 20 62 75 67         es a bug
80005788: 20 69 6e 20 74 68 65 20          in the 
80005790: 70 72 6f 67 72 61 6d 2e         program.
80005798: 20 54 68 69 73 20 55 6e          This Un
800057a0: 64 65 66 69 6e 65 64 20         defined 
800057a8: 42 65 68 61 76 69 6f 72         Behavior
800057b0: 20 63 68 65 63 6b 20 69          check i
800057b8: 73 20 6f 70 74 69 6f 6e         s option
800057c0: 61 6c 2c 20 61 6e 64 20         al, and 
800057c8: 63 61 6e 6e 6f 74 20 62         cannot b
800057d0: 65 20 72 65 6c 69 65 64         e relied
800057d8: 20 6f 6e 20 66 6f 72 20          on for 
800057e0: 73 61 66 65 74 79 2e            safety.

00000000800057e7 <.Lanon.eb340c1d96bbf6ea299c072f383e8433.3>:
800057e7: 75 6e 73 61 66 65 20 70         unsafe p
800057ef: 72 65 63 6f 6e 64 69 74         recondit
800057f7: 69 6f 6e 28 73 29 20 76         ion(s) v
800057ff: 69 6f 6c 61 74 65 64 3a         iolated:
80005807: 20 73 6c 69 63 65 3a 3a          slice::
8000580f: 66 72 6f 6d 5f 72 61 77         from_raw
80005817: 5f 70 61 72 74 73 5f 6d         _parts_m
8000581f: 75 74 20 72 65 71 75 69         ut requi
80005827: 72 65 73 20 74 68 65 20         res the 
8000582f: 70 6f 69 6e 74 65 72 20         pointer 
80005837: 74 6f 20 62 65 20 61 6c         to be al
8000583f: 69 67 6e 65 64 20 61 6e         igned an
80005847: 64 20 6e 6f 6e 2d 6e 75         d non-nu
8000584f: 6c 6c 2c 20 61 6e 64 20         ll, and 
80005857: 74 68 65 20 74 6f 74 61         the tota
8000585f: 6c 20 73 69 7a 65 20 6f         l size o
80005867: 66 20 74 68 65 20 73 6c         f the sl
8000586f: 69 63 65 20 6e 6f 74 20         ice not 
80005877: 74 6f 20 65 78 63 65 65         to excee
8000587f: 64 20 60 69 73 69 7a 65         d `isize
80005887: 3a 3a 4d 41 58 60 0a 0a         ::MAX`..
8000588f: 54 68 69 73 20 69 6e 64         This ind
80005897: 69 63 61 74 65 73 20 61         icates a
8000589f: 20 62 75 67 20 69 6e 20          bug in 
800058a7: 74 68 65 20 70 72 6f 67         the prog
800058af: 72 61 6d 2e 20 54 68 69         ram. Thi
800058b7: 73 20 55 6e 64 65 66 69         s Undefi
800058bf: 6e 65 64 20 42 65 68 61         ned Beha
800058c7: 76 69 6f 72 20 63 68 65         vior che
800058cf: 63 6b 20 69 73 20 6f 70         ck is op
800058d7: 74 69 6f 6e 61 6c 2c 20         tional, 
800058df: 61 6e 64 20 63 61 6e 6e         and cann
800058e7: 6f 74 20 62 65 20 72 65         ot be re
800058ef: 6c 69 65 64 20 6f 6e 20         lied on 
800058f7: 66 6f 72 20 73 61 66 65         for safe
800058ff: 74 79 2e 00 00 00 00 00         ty......
80005907: 00                              .

0000000080005908 <.Lanon.49b1b0e4c5c74ae3c4ddea312e90fcc8.1>:
80005908: fe 44 00 80 00 00 00 00         .D......
80005910: 50 00 00 00 00 00 00 00         P.......
80005918: 62 07 00 00 0e 00 00 00         b.......

0000000080005920 <.Lanon.49b1b0e4c5c74ae3c4ddea312e90fcc8.2>:
80005920: fe 44 00 80 00 00 00 00         .D......
80005928: 50 00 00 00 00 00 00 00         P.......
80005930: 55 07 00 00 09 00 00 00         U.......

0000000080005938 <.Lanon.49b1b0e4c5c74ae3c4ddea312e90fcc8.3>:
80005938: 12 65 6e 63 6f 64 65 5f         .encode_
80005940: 75 74 66 38 3a 20 6e 65         utf8: ne
80005948: 65 64 20 c0 13 20 62 79         ed .. by
80005950: 74 65 73 20 74 6f 20 65         tes to e
80005958: 6e 63 6f 64 65 20 55 2b         ncode U+
80005960: c3 20 00 00 69 04 00 15         . ..i...
80005968: 20 62 75 74 20 62 75 66          but buf
80005970: 66 65 72 20 68 61 73 20         fer has 
80005978: 6a 75 73 74 20 c0 00            just ..

000000008000597f <.Lanon.536f2323b683c81b361b85010efd6979.10>:
8000597f: 30 30 30 31 30 32 30 33         00010203
80005987: 30 34 30 35 30 36 30 37         04050607
8000598f: 30 38 30 39 31 30 31 31         08091011
80005997: 31 32 31 33 31 34 31 35         12131415
8000599f: 31 36 31 37 31 38 31 39         16171819
800059a7: 32 30 32 31 32 32 32 33         20212223
800059af: 32 34 32 35 32 36 32 37         24252627
800059b7: 32 38 32 39 33 30 33 31         28293031
800059bf: 33 32 33 33 33 34 33 35         32333435
800059c7: 33 36 33 37 33 38 33 39         36373839
800059cf: 34 30 34 31 34 32 34 33         40414243
800059d7: 34 34 34 35 34 36 34 37         44454647
800059df: 34 38 34 39 35 30 35 31         48495051
800059e7: 35 32 35 33 35 34 35 35         52535455
800059ef: 35 36 35 37 35 38 35 39         56575859
800059f7: 36 30 36 31 36 32 36 33         60616263
800059ff: 36 34 36 35 36 36 36 37         64656667
80005a07: 36 38 36 39 37 30 37 31         68697071
80005a0f: 37 32 37 33 37 34 37 35         72737475
80005a17: 37 36 37 37 37 38 37 39         76777879
80005a1f: 38 30 38 31 38 32 38 33         80818283
80005a27: 38 34 38 35 38 36 38 37         84858687
80005a2f: 38 38 38 39 39 30 39 31         88899091
80005a37: 39 32 39 33 39 34 39 35         92939495
80005a3f: 39 36 39 37 39 38 39 39         96979899
80005a47: 00                              .

0000000080005a48 <.Lanon.536f2323b683c81b361b85010efd6979.22>:
80005a48: 82 46 00 80 00 00 00 00         .F......
80005a50: 4b 00 00 00 00 00 00 00         K.......
80005a58: 57 02 00 00 05 00 00 00         W.......

0000000080005a60 <.Lanon.536f2323b683c81b361b85010efd6979.31>:
80005a60: 30 78                           0x

0000000080005a62 <.Lanon.536f2323b683c81b361b85010efd6979.80>:
80005a62: 61 74 74 65 6d 70 74 20         attempt 
80005a6a: 74 6f 20 61 64 64 20 77         to add w
80005a72: 69 74 68 20 6f 76 65 72         ith over
80005a7a: 66 6c 6f 77                     flow

0000000080005a7e <.Lanon.536f2323b683c81b361b85010efd6979.82>:
80005a7e: 61 74 74 65 6d 70 74 20         attempt 
80005a86: 74 6f 20 6d 75 6c 74 69         to multi
80005a8e: 70 6c 79 20 77 69 74 68         ply with
80005a96: 20 6f 76 65 72 66 6c 6f          overflo
80005a9e: 77                              w

0000000080005a9f <.Lanon.536f2323b683c81b361b85010efd6979.87>:
80005a9f: 61 74 74 65 6d 70 74 20         attempt 
80005aa7: 74 6f 20 73 75 62 74 72         to subtr
80005aaf: 61 63 74 20 77 69 74 68         act with
80005ab7: 20 6f 76 65 72 66 6c 6f          overflo
80005abf: 77                              w

0000000080005ac0 <.Lanon.536f2323b683c81b361b85010efd6979.259>:
80005ac0: 61 74 74 65 6d 70 74 20         attempt 
80005ac8: 74 6f 20 64 69 76 69 64         to divid
80005ad0: 65 20 62 79 20 7a 65 72         e by zer
80005ad8: 6f 00 00 00 00 00 00 00         o.......

0000000080005ae0 <.Lanon.536f2323b683c81b361b85010efd6979.277>:
80005ae0: 26 48 00 80 00 00 00 00         &H......
80005ae8: 4d 00 00 00 00 00 00 00         M.......
80005af0: e1 00 00 00 05 00 00 00         ........

0000000080005af8 <.Lanon.536f2323b683c81b361b85010efd6979.288>:
80005af8: 6e 75 6c 6c 20 70 6f 69         null poi
80005b00: 6e 74 65 72 20 64 65 72         nter der
80005b08: 65 66 65 72 65 6e 63 65         eference
80005b10: 20 6f 63 63 75 72 72 65          occurre
80005b18: 64                              d

0000000080005b19 <.Lanon.536f2323b683c81b361b85010efd6979.290>:
80005b19: 3e 6d 69 73 61 6c 69 67         >misalig
80005b21: 6e 65 64 20 70 6f 69 6e         ned poin
80005b29: 74 65 72 20 64 65 72 65         ter dere
80005b31: 66 65 72 65 6e 63 65 3a         ference:
80005b39: 20 61 64 64 72 65 73 73          address
80005b41: 20 6d 75 73 74 20 62 65          must be
80005b49: 20 61 20 6d 75 6c 74 69          a multi
80005b51: 70 6c 65 20 6f 66 20 c1         ple of .
80005b59: 20 00 80 60 08 20 62 75          ..`. bu
80005b61: 74 20 69 73 20 c1 20 00         t is . .
80005b69: 80 60 00                        .`.

0000000080005b6c <.Lanon.536f2323b683c81b361b85010efd6979.399>:
80005b6c: 70 61 6e 69 63 6b 65 64         panicked
80005b74: 20 61 74 20                      at 

0000000080005b78 <.Lanon.536f2323b683c81b361b85010efd6979.400>:
80005b78: 3a 0a                           :.
