    Finished `dev` profile [unoptimized + debuginfo] target(s) in 0.00s

lab4_kernel_task4:	file format elf64-littleriscv

Disassembly of section .text:

0000000080000000 <_start>:
80000000: 0001f117     	auipc	sp, 0x1f
80000004: 00010113     	mv	sp, sp
80000008: 00005097     	auipc	ra, 0x5
8000000c: 990080e7     	jalr	-0x670(ra) <start_machine>
80000010: a001         	j	0x80000010 <_start+0x10>

0000000080000012 <core::num::_$LT$impl$u20$usize$GT$::unchecked_add::precondition_check::h206227fbb92bd582>:
80000012: 7179         	addi	sp, sp, -0x30
80000014: e032         	sd	a2, 0x0(sp)
80000016: e42e         	sd	a1, 0x8(sp)
80000018: 85aa         	mv	a1, a0
8000001a: 6522         	ld	a0, 0x8(sp)
8000001c: e82e         	sd	a1, 0x10(sp)
8000001e: ec2a         	sd	a0, 0x18(sp)
80000020: 952e         	add	a0, a0, a1
80000022: 00b56563     	bltu	a0, a1, 0x8000002c <core::num::_$LT$impl$u20$usize$GT$::unchecked_add::precondition_check::h206227fbb92bd582+0x1a>
80000026: a009         	j	0x80000028 <core::num::_$LT$impl$u20$usize$GT$::unchecked_add::precondition_check::h206227fbb92bd582+0x16>
80000028: 6145         	addi	sp, sp, 0x30
8000002a: 8082         	ret
8000002c: 6682         	ld	a3, 0x0(sp)

000000008000002e <.Lpcrel_hi0>:
8000002e: 00007517     	auipc	a0, 0x7
80000032: aba50513     	addi	a0, a0, -0x546
80000036: f02a         	sd	a0, 0x20(sp)
80000038: 0ba00593     	li	a1, 0xba
8000003c: f42e         	sd	a1, 0x28(sp)
8000003e: 17500593     	li	a1, 0x175
80000042: 4601         	li	a2, 0x0
80000044: 00006097     	auipc	ra, 0x6
80000048: 6e4080e7     	jalr	0x6e4(ra) <core::panicking::panic_nounwind_fmt::h2e018e50a8d3bc73>

000000008000004c <core::array::iter::iter_inner::PolymorphicIter$LT$$u5b$core..mem..maybe_uninit..MaybeUninit$LT$T$GT$$u5d$$GT$::next::h48312508b835d441>:
8000004c: 7131         	addi	sp, sp, -0xc0
8000004e: fd06         	sd	ra, 0xb8(sp)
80000050: ec2e         	sd	a1, 0x18(sp)
80000052: 85aa         	mv	a1, a0
80000054: 6562         	ld	a0, 0x18(sp)
80000056: f02e         	sd	a1, 0x20(sp)
80000058: f0ae         	sd	a1, 0x60(sp)
8000005a: f4aa         	sd	a0, 0x68(sp)
8000005c: 4505         	li	a0, 0x1
8000005e: f8aa         	sd	a0, 0x70(sp)
80000060: 6588         	ld	a0, 0x8(a1)
80000062: 618c         	ld	a1, 0x0(a1)
80000064: 8d0d         	sub	a0, a0, a1
80000066: e51d         	bnez	a0, 0x80000094 <.Lpcrel_hi0+0x26>
80000068: a009         	j	0x8000006a <core::array::iter::iter_inner::PolymorphicIter$LT$$u5b$core..mem..maybe_uninit..MaybeUninit$LT$T$GT$$u5d$$GT$::next::h48312508b835d441+0x1e>
8000006a: 6562         	ld	a0, 0x18(sp)
8000006c: 7582         	ld	a1, 0x20(sp)

000000008000006e <.Lpcrel_hi0>:
8000006e: 00007617     	auipc	a2, 0x7
80000072: b4a60613     	addi	a2, a2, -0x4b6
80000076: 6214         	ld	a3, 0x0(a2)
80000078: 6610         	ld	a2, 0x8(a2)
8000007a: f836         	sd	a3, 0x30(sp)
8000007c: fc32         	sd	a2, 0x38(sp)
8000007e: 05c1         	addi	a1, a1, 0x10
80000080: e0ae         	sd	a1, 0x40(sp)
80000082: e4aa         	sd	a0, 0x48(sp)
80000084: 6586         	ld	a1, 0x40(sp)
80000086: 6526         	ld	a0, 0x48(sp)
80000088: e8ae         	sd	a1, 0x50(sp)
8000008a: ecaa         	sd	a0, 0x58(sp)
8000008c: 00110537     	lui	a0, 0x110
80000090: d62a         	sw	a0, 0x2c(sp)
80000092: a031         	j	0x8000009e <.Lpcrel_hi0+0x30>
80000094: 7502         	ld	a0, 0x20(sp)
80000096: 6108         	ld	a0, 0x0(a0)
80000098: e82a         	sd	a0, 0x10(sp)
8000009a: fcaa         	sd	a0, 0x78(sp)
8000009c: a029         	j	0x800000a6 <.Lpcrel_hi0+0x38>
8000009e: 5532         	lw	a0, 0x2c(sp)
800000a0: 70ea         	ld	ra, 0xb8(sp)
800000a2: 6129         	addi	sp, sp, 0xc0
800000a4: 8082         	ret
800000a6: 6542         	ld	a0, 0x10(sp)

00000000800000a8 <.Lpcrel_hi1>:
800000a8: 00007597     	auipc	a1, 0x7
800000ac: 13858613     	addi	a2, a1, 0x138
800000b0: 4585         	li	a1, 0x1
800000b2: 00000097     	auipc	ra, 0x0
800000b6: f60080e7     	jalr	-0xa0(ra) <core::num::_$LT$impl$u20$usize$GT$::unchecked_add::precondition_check::h206227fbb92bd582>
800000ba: a009         	j	0x800000bc <.Lpcrel_hi1+0x14>
800000bc: 6562         	ld	a0, 0x18(sp)
800000be: 7582         	ld	a1, 0x20(sp)
800000c0: 6642         	ld	a2, 0x10(sp)
800000c2: 00160693     	addi	a3, a2, 0x1
800000c6: e194         	sd	a3, 0x0(a1)
800000c8: fc32         	sd	a2, 0x38(sp)
800000ca: 4605         	li	a2, 0x1
800000cc: f832         	sd	a2, 0x30(sp)
800000ce: 05c1         	addi	a1, a1, 0x10
800000d0: e0ae         	sd	a1, 0x40(sp)
800000d2: e4aa         	sd	a0, 0x48(sp)
800000d4: 6586         	ld	a1, 0x40(sp)
800000d6: 6526         	ld	a0, 0x48(sp)
800000d8: e8ae         	sd	a1, 0x50(sp)
800000da: ecaa         	sd	a0, 0x58(sp)
800000dc: 7562         	ld	a0, 0x38(sp)
800000de: e42a         	sd	a0, 0x8(sp)
800000e0: e12a         	sd	a0, 0x80(sp)
800000e2: 6586         	ld	a1, 0x40(sp)
800000e4: 6526         	ld	a0, 0x48(sp)
800000e6: e52e         	sd	a1, 0x88(sp)
800000e8: e92a         	sd	a0, 0x90(sp)
800000ea: 6586         	ld	a1, 0x40(sp)
800000ec: 6526         	ld	a0, 0x48(sp)
800000ee: ed2e         	sd	a1, 0x98(sp)
800000f0: f12a         	sd	a0, 0xa0(sp)
800000f2: a009         	j	0x800000f4 <.Lpcrel_hi1+0x4c>
800000f4: 6522         	ld	a0, 0x8(sp)
800000f6: 65a6         	ld	a1, 0x48(sp)

00000000800000f8 <.Lpcrel_hi2>:
800000f8: 00007617     	auipc	a2, 0x7
800000fc: 10060613     	addi	a2, a2, 0x100
80000100: 00005097     	auipc	ra, 0x5
80000104: 628080e7     	jalr	0x628(ra) <_$LT$usize$u20$as$u20$core..slice..index..SliceIndex$LT$$u5b$T$u5d$$GT$$GT$::get_unchecked::precondition_check::h21789c9fcf404b51>
80000108: a009         	j	0x8000010a <.Lpcrel_hi2+0x12>
8000010a: 65a2         	ld	a1, 0x8(sp)
8000010c: 6506         	ld	a0, 0x40(sp)
8000010e: 058a         	slli	a1, a1, 0x2
80000110: 952e         	add	a0, a0, a1
80000112: f52a         	sd	a0, 0xa8(sp)
80000114: f92a         	sd	a0, 0xb0(sp)
80000116: 4108         	lw	a0, 0x0(a0)
80000118: d62a         	sw	a0, 0x2c(sp)
8000011a: b751         	j	0x8000009e <.Lpcrel_hi0+0x30>

000000008000011c <_$LT$$RF$T$u20$as$u20$core..fmt..Display$GT$::fmt::hfc96ae8c1d147708>:
8000011c: 1101         	addi	sp, sp, -0x20
8000011e: ec06         	sd	ra, 0x18(sp)
80000120: 862e         	mv	a2, a1
80000122: 85aa         	mv	a1, a0
80000124: e42e         	sd	a1, 0x8(sp)
80000126: e832         	sd	a2, 0x10(sp)
80000128: 6188         	ld	a0, 0x0(a1)
8000012a: 658c         	ld	a1, 0x8(a1)
8000012c: 00005097     	auipc	ra, 0x5
80000130: 726080e7     	jalr	0x726(ra) <_$LT$str$u20$as$u20$core..fmt..Display$GT$::fmt::h53474d83e2b0968b>
80000134: 60e2         	ld	ra, 0x18(sp)
80000136: 6105         	addi	sp, sp, 0x20
80000138: 8082         	ret

000000008000013a <core::fmt::Arguments::new::h0319362c235a5f7b>:
8000013a: 1141         	addi	sp, sp, -0x10
8000013c: e02a         	sd	a0, 0x0(sp)
8000013e: e42e         	sd	a1, 0x8(sp)
80000140: 0141         	addi	sp, sp, 0x10
80000142: 8082         	ret

0000000080000144 <core::fmt::Arguments::new::h1043af8035f87bc2>:
80000144: 1141         	addi	sp, sp, -0x10
80000146: e02a         	sd	a0, 0x0(sp)
80000148: e42e         	sd	a1, 0x8(sp)
8000014a: 0141         	addi	sp, sp, 0x10
8000014c: 8082         	ret

000000008000014e <core::fmt::Arguments::new::h290a3cedc6453d04>:
8000014e: 1141         	addi	sp, sp, -0x10
80000150: e02a         	sd	a0, 0x0(sp)
80000152: e42e         	sd	a1, 0x8(sp)
80000154: 0141         	addi	sp, sp, 0x10
80000156: 8082         	ret

0000000080000158 <core::fmt::Arguments::new::h2a477856c42242d9>:
80000158: 1141         	addi	sp, sp, -0x10
8000015a: e02a         	sd	a0, 0x0(sp)
8000015c: e42e         	sd	a1, 0x8(sp)
8000015e: 0141         	addi	sp, sp, 0x10
80000160: 8082         	ret

0000000080000162 <core::fmt::Arguments::new::h30702092ca288fa9>:
80000162: 1141         	addi	sp, sp, -0x10
80000164: e02a         	sd	a0, 0x0(sp)
80000166: e42e         	sd	a1, 0x8(sp)
80000168: 0141         	addi	sp, sp, 0x10
8000016a: 8082         	ret

000000008000016c <core::fmt::Arguments::new::h30e37af3d9f1e1e4>:
8000016c: 1141         	addi	sp, sp, -0x10
8000016e: e02a         	sd	a0, 0x0(sp)
80000170: e42e         	sd	a1, 0x8(sp)
80000172: 0141         	addi	sp, sp, 0x10
80000174: 8082         	ret

0000000080000176 <core::fmt::Arguments::new::h340519db4dd53c71>:
80000176: 1141         	addi	sp, sp, -0x10
80000178: e02a         	sd	a0, 0x0(sp)
8000017a: e42e         	sd	a1, 0x8(sp)
8000017c: 0141         	addi	sp, sp, 0x10
8000017e: 8082         	ret

0000000080000180 <core::fmt::Arguments::new::h35a51ab935d191ad>:
80000180: 1141         	addi	sp, sp, -0x10
80000182: e02a         	sd	a0, 0x0(sp)
80000184: e42e         	sd	a1, 0x8(sp)
80000186: 0141         	addi	sp, sp, 0x10
80000188: 8082         	ret

000000008000018a <core::fmt::Arguments::new::h38634f5515823904>:
8000018a: 1141         	addi	sp, sp, -0x10
8000018c: e02a         	sd	a0, 0x0(sp)
8000018e: e42e         	sd	a1, 0x8(sp)
80000190: 0141         	addi	sp, sp, 0x10
80000192: 8082         	ret

0000000080000194 <core::fmt::Arguments::new::h3999090e69591b72>:
80000194: 1141         	addi	sp, sp, -0x10
80000196: e02a         	sd	a0, 0x0(sp)
80000198: e42e         	sd	a1, 0x8(sp)
8000019a: 0141         	addi	sp, sp, 0x10
8000019c: 8082         	ret

000000008000019e <core::fmt::Arguments::new::h3d7ba7dea5e9f0b6>:
8000019e: 1141         	addi	sp, sp, -0x10
800001a0: e02a         	sd	a0, 0x0(sp)
800001a2: e42e         	sd	a1, 0x8(sp)
800001a4: 0141         	addi	sp, sp, 0x10
800001a6: 8082         	ret

00000000800001a8 <core::fmt::Arguments::new::h554defad967c263e>:
800001a8: 1141         	addi	sp, sp, -0x10
800001aa: e02a         	sd	a0, 0x0(sp)
800001ac: e42e         	sd	a1, 0x8(sp)
800001ae: 0141         	addi	sp, sp, 0x10
800001b0: 8082         	ret

00000000800001b2 <core::fmt::Arguments::new::h61e6d4fd3b08986f>:
800001b2: 1141         	addi	sp, sp, -0x10
800001b4: e02a         	sd	a0, 0x0(sp)
800001b6: e42e         	sd	a1, 0x8(sp)
800001b8: 0141         	addi	sp, sp, 0x10
800001ba: 8082         	ret

00000000800001bc <core::fmt::Arguments::new::h7cc81bab3a2a137a>:
800001bc: 1141         	addi	sp, sp, -0x10
800001be: e02a         	sd	a0, 0x0(sp)
800001c0: e42e         	sd	a1, 0x8(sp)
800001c2: 0141         	addi	sp, sp, 0x10
800001c4: 8082         	ret

00000000800001c6 <core::fmt::Arguments::new::h7cd33aa3da7318ff>:
800001c6: 1141         	addi	sp, sp, -0x10
800001c8: e02a         	sd	a0, 0x0(sp)
800001ca: e42e         	sd	a1, 0x8(sp)
800001cc: 0141         	addi	sp, sp, 0x10
800001ce: 8082         	ret

00000000800001d0 <core::fmt::Arguments::new::h8260239226a31147>:
800001d0: 1141         	addi	sp, sp, -0x10
800001d2: e02a         	sd	a0, 0x0(sp)
800001d4: e42e         	sd	a1, 0x8(sp)
800001d6: 0141         	addi	sp, sp, 0x10
800001d8: 8082         	ret

00000000800001da <core::fmt::Arguments::new::h9371bcaedaa61594>:
800001da: 1141         	addi	sp, sp, -0x10
800001dc: e02a         	sd	a0, 0x0(sp)
800001de: e42e         	sd	a1, 0x8(sp)
800001e0: 0141         	addi	sp, sp, 0x10
800001e2: 8082         	ret

00000000800001e4 <core::fmt::Arguments::new::h96ba4e9016e05502>:
800001e4: 1141         	addi	sp, sp, -0x10
800001e6: e02a         	sd	a0, 0x0(sp)
800001e8: e42e         	sd	a1, 0x8(sp)
800001ea: 0141         	addi	sp, sp, 0x10
800001ec: 8082         	ret

00000000800001ee <core::fmt::Arguments::new::h9ed89e7ec96c368f>:
800001ee: 1141         	addi	sp, sp, -0x10
800001f0: e02a         	sd	a0, 0x0(sp)
800001f2: e42e         	sd	a1, 0x8(sp)
800001f4: 0141         	addi	sp, sp, 0x10
800001f6: 8082         	ret

00000000800001f8 <core::fmt::Arguments::new::ha0c1096371de58a1>:
800001f8: 1141         	addi	sp, sp, -0x10
800001fa: e02a         	sd	a0, 0x0(sp)
800001fc: e42e         	sd	a1, 0x8(sp)
800001fe: 0141         	addi	sp, sp, 0x10
80000200: 8082         	ret

0000000080000202 <core::fmt::Arguments::new::hb90b7d501dbbf1d2>:
80000202: 1141         	addi	sp, sp, -0x10
80000204: e02a         	sd	a0, 0x0(sp)
80000206: e42e         	sd	a1, 0x8(sp)
80000208: 0141         	addi	sp, sp, 0x10
8000020a: 8082         	ret

000000008000020c <core::fmt::Arguments::new::hba14bc726740bc8f>:
8000020c: 1141         	addi	sp, sp, -0x10
8000020e: e02a         	sd	a0, 0x0(sp)
80000210: e42e         	sd	a1, 0x8(sp)
80000212: 0141         	addi	sp, sp, 0x10
80000214: 8082         	ret

0000000080000216 <core::fmt::Arguments::new::hba6c70e0ad3e5bd7>:
80000216: 1141         	addi	sp, sp, -0x10
80000218: e02a         	sd	a0, 0x0(sp)
8000021a: e42e         	sd	a1, 0x8(sp)
8000021c: 0141         	addi	sp, sp, 0x10
8000021e: 8082         	ret

0000000080000220 <core::ptr::write_volatile::h5fa98ea08c201745>:
80000220: 7179         	addi	sp, sp, -0x30
80000222: f406         	sd	ra, 0x28(sp)
80000224: e032         	sd	a2, 0x0(sp)
80000226: e42a         	sd	a0, 0x8(sp)
80000228: 862e         	mv	a2, a1
8000022a: e832         	sd	a2, 0x10(sp)
8000022c: ec2a         	sd	a0, 0x18(sp)
8000022e: 02b103a3     	sb	a1, 0x27(sp)
80000232: a009         	j	0x80000234 <core::ptr::write_volatile::h5fa98ea08c201745+0x14>
80000234: 6602         	ld	a2, 0x0(sp)
80000236: 6522         	ld	a0, 0x8(sp)
80000238: 4585         	li	a1, 0x1
8000023a: 00005097     	auipc	ra, 0x5
8000023e: 3aa080e7     	jalr	0x3aa(ra) <core::ptr::write_volatile::precondition_check::hb0338801c115689f>
80000242: a009         	j	0x80000244 <core::ptr::write_volatile::h5fa98ea08c201745+0x24>
80000244: 6542         	ld	a0, 0x10(sp)
80000246: 65a2         	ld	a1, 0x8(sp)
80000248: 00a58023     	sb	a0, 0x0(a1)
8000024c: 70a2         	ld	ra, 0x28(sp)
8000024e: 6145         	addi	sp, sp, 0x30
80000250: 8082         	ret

0000000080000252 <core::ptr::write_volatile::hf6ce4c3090c6473c>:
80000252: 7179         	addi	sp, sp, -0x30
80000254: f406         	sd	ra, 0x28(sp)
80000256: e032         	sd	a2, 0x0(sp)
80000258: e42a         	sd	a0, 0x8(sp)
8000025a: 862e         	mv	a2, a1
8000025c: e832         	sd	a2, 0x10(sp)
8000025e: ec2a         	sd	a0, 0x18(sp)
80000260: d22e         	sw	a1, 0x24(sp)
80000262: a009         	j	0x80000264 <core::ptr::write_volatile::hf6ce4c3090c6473c+0x12>
80000264: 6602         	ld	a2, 0x0(sp)
80000266: 6522         	ld	a0, 0x8(sp)
80000268: 4591         	li	a1, 0x4
8000026a: 00005097     	auipc	ra, 0x5
8000026e: 37a080e7     	jalr	0x37a(ra) <core::ptr::write_volatile::precondition_check::hb0338801c115689f>
80000272: a009         	j	0x80000274 <core::ptr::write_volatile::hf6ce4c3090c6473c+0x22>
80000274: 6542         	ld	a0, 0x10(sp)
80000276: 65a2         	ld	a1, 0x8(sp)
80000278: c188         	sw	a0, 0x0(a1)
8000027a: 70a2         	ld	ra, 0x28(sp)
8000027c: 6145         	addi	sp, sp, 0x30
8000027e: 8082         	ret

0000000080000280 <core::fmt::rt::Argument::new_display::h588ca848ad251281>:
80000280: 1101         	addi	sp, sp, -0x20
80000282: e02e         	sd	a1, 0x0(sp)
80000284: 85aa         	mv	a1, a0
80000286: 6502         	ld	a0, 0x0(sp)
80000288: ec2a         	sd	a0, 0x18(sp)
8000028a: e42a         	sd	a0, 0x8(sp)

000000008000028c <.Lpcrel_hi0>:
8000028c: 00005517     	auipc	a0, 0x5
80000290: 5d650513     	addi	a0, a0, 0x5d6
80000294: e82a         	sd	a0, 0x10(sp)
80000296: 6542         	ld	a0, 0x10(sp)
80000298: e588         	sd	a0, 0x8(a1)
8000029a: 6522         	ld	a0, 0x8(sp)
8000029c: e188         	sd	a0, 0x0(a1)
8000029e: 6105         	addi	sp, sp, 0x20
800002a0: 8082         	ret

00000000800002a2 <core::fmt::rt::Argument::new_display::h72b9aae62486e176>:
800002a2: 1101         	addi	sp, sp, -0x20
800002a4: e02e         	sd	a1, 0x0(sp)
800002a6: 85aa         	mv	a1, a0
800002a8: 6502         	ld	a0, 0x0(sp)
800002aa: ec2a         	sd	a0, 0x18(sp)
800002ac: e42a         	sd	a0, 0x8(sp)

00000000800002ae <.Lpcrel_hi1>:
800002ae: 00006517     	auipc	a0, 0x6
800002b2: ace50513     	addi	a0, a0, -0x532
800002b6: e82a         	sd	a0, 0x10(sp)
800002b8: 6542         	ld	a0, 0x10(sp)
800002ba: e588         	sd	a0, 0x8(a1)
800002bc: 6522         	ld	a0, 0x8(sp)
800002be: e188         	sd	a0, 0x0(a1)
800002c0: 6105         	addi	sp, sp, 0x20
800002c2: 8082         	ret

00000000800002c4 <core::fmt::rt::Argument::new_display::ha3e0a13b492f2f2f>:
800002c4: 1101         	addi	sp, sp, -0x20
800002c6: e02e         	sd	a1, 0x0(sp)
800002c8: 85aa         	mv	a1, a0
800002ca: 6502         	ld	a0, 0x0(sp)
800002cc: ec2a         	sd	a0, 0x18(sp)
800002ce: e42a         	sd	a0, 0x8(sp)

00000000800002d0 <.Lpcrel_hi2>:
800002d0: 00004517     	auipc	a0, 0x4
800002d4: 34e50513     	addi	a0, a0, 0x34e
800002d8: e82a         	sd	a0, 0x10(sp)
800002da: 6542         	ld	a0, 0x10(sp)
800002dc: e588         	sd	a0, 0x8(a1)
800002de: 6522         	ld	a0, 0x8(sp)
800002e0: e188         	sd	a0, 0x0(a1)
800002e2: 6105         	addi	sp, sp, 0x20
800002e4: 8082         	ret

00000000800002e6 <core::fmt::rt::Argument::new_display::hbbbee898255877f0>:
800002e6: 1101         	addi	sp, sp, -0x20
800002e8: e02e         	sd	a1, 0x0(sp)
800002ea: 85aa         	mv	a1, a0
800002ec: 6502         	ld	a0, 0x0(sp)
800002ee: ec2a         	sd	a0, 0x18(sp)
800002f0: e42a         	sd	a0, 0x8(sp)

00000000800002f2 <.Lpcrel_hi3>:
800002f2: 00005517     	auipc	a0, 0x5
800002f6: b5050513     	addi	a0, a0, -0x4b0
800002fa: e82a         	sd	a0, 0x10(sp)
800002fc: 6542         	ld	a0, 0x10(sp)
800002fe: e588         	sd	a0, 0x8(a1)
80000300: 6522         	ld	a0, 0x8(sp)
80000302: e188         	sd	a0, 0x0(a1)
80000304: 6105         	addi	sp, sp, 0x20
80000306: 8082         	ret

0000000080000308 <core::fmt::rt::Argument::new_display::hec1511a75900333e>:
80000308: 1101         	addi	sp, sp, -0x20
8000030a: e02e         	sd	a1, 0x0(sp)
8000030c: 85aa         	mv	a1, a0
8000030e: 6502         	ld	a0, 0x0(sp)
80000310: ec2a         	sd	a0, 0x18(sp)
80000312: e42a         	sd	a0, 0x8(sp)

0000000080000314 <.Lpcrel_hi4>:
80000314: 00000517     	auipc	a0, 0x0
80000318: e0850513     	addi	a0, a0, -0x1f8
8000031c: e82a         	sd	a0, 0x10(sp)
8000031e: 6542         	ld	a0, 0x10(sp)
80000320: e588         	sd	a0, 0x8(a1)
80000322: 6522         	ld	a0, 0x8(sp)
80000324: e188         	sd	a0, 0x0(a1)
80000326: 6105         	addi	sp, sp, 0x20
80000328: 8082         	ret

000000008000032a <core::fmt::rt::Argument::new_lower_hex::h2c3e51038c7990f0>:
8000032a: 1101         	addi	sp, sp, -0x20
8000032c: e02e         	sd	a1, 0x0(sp)
8000032e: 85aa         	mv	a1, a0
80000330: 6502         	ld	a0, 0x0(sp)
80000332: ec2a         	sd	a0, 0x18(sp)
80000334: e42a         	sd	a0, 0x8(sp)

0000000080000336 <.Lpcrel_hi5>:
80000336: 00006517     	auipc	a0, 0x6
8000033a: a9250513     	addi	a0, a0, -0x56e
8000033e: e82a         	sd	a0, 0x10(sp)
80000340: 6542         	ld	a0, 0x10(sp)
80000342: e588         	sd	a0, 0x8(a1)
80000344: 6522         	ld	a0, 0x8(sp)
80000346: e188         	sd	a0, 0x0(a1)
80000348: 6105         	addi	sp, sp, 0x20
8000034a: 8082         	ret

000000008000034c <core::fmt::rt::Argument::new_lower_hex::h3f27c744115e4e67>:
8000034c: 1101         	addi	sp, sp, -0x20
8000034e: e02e         	sd	a1, 0x0(sp)
80000350: 85aa         	mv	a1, a0
80000352: 6502         	ld	a0, 0x0(sp)
80000354: ec2a         	sd	a0, 0x18(sp)
80000356: e42a         	sd	a0, 0x8(sp)

0000000080000358 <.Lpcrel_hi6>:
80000358: 00006517     	auipc	a0, 0x6
8000035c: a7050513     	addi	a0, a0, -0x590
80000360: e82a         	sd	a0, 0x10(sp)
80000362: 6542         	ld	a0, 0x10(sp)
80000364: e588         	sd	a0, 0x8(a1)
80000366: 6522         	ld	a0, 0x8(sp)
80000368: e188         	sd	a0, 0x0(a1)
8000036a: 6105         	addi	sp, sp, 0x20
8000036c: 8082         	ret

000000008000036e <core::iter::range::_$LT$impl$u20$core..iter..traits..iterator..Iterator$u20$for$u20$core..ops..range..Range$LT$A$GT$$GT$::next::h2b4844740963e1ba>:
8000036e: 1141         	addi	sp, sp, -0x10
80000370: e406         	sd	ra, 0x8(sp)
80000372: e02a         	sd	a0, 0x0(sp)
80000374: 00000097     	auipc	ra, 0x0
80000378: 018080e7     	jalr	0x18(ra) <_$LT$core..ops..range..Range$LT$T$GT$$u20$as$u20$core..iter..range..RangeIteratorImpl$GT$::spec_next::had268787eb961326>
8000037c: 60a2         	ld	ra, 0x8(sp)
8000037e: 0141         	addi	sp, sp, 0x10
80000380: 8082         	ret

0000000080000382 <_$LT$I$u20$as$u20$core..iter..traits..collect..IntoIterator$GT$::into_iter::hfb4e8047a0c34837>:
80000382: 1141         	addi	sp, sp, -0x10
80000384: e02a         	sd	a0, 0x0(sp)
80000386: e42e         	sd	a1, 0x8(sp)
80000388: 0141         	addi	sp, sp, 0x10
8000038a: 8082         	ret

000000008000038c <_$LT$core..ops..range..Range$LT$T$GT$$u20$as$u20$core..iter..range..RangeIteratorImpl$GT$::spec_next::had268787eb961326>:
8000038c: 715d         	addi	sp, sp, -0x50
8000038e: e486         	sd	ra, 0x48(sp)
80000390: 85aa         	mv	a1, a0
80000392: e82e         	sd	a1, 0x10(sp)
80000394: f42e         	sd	a1, 0x28(sp)
80000396: 00858513     	addi	a0, a1, 0x8
8000039a: fc2e         	sd	a1, 0x38(sp)
8000039c: e0aa         	sd	a0, 0x40(sp)
8000039e: 6188         	ld	a0, 0x0(a1)
800003a0: 658c         	ld	a1, 0x8(a1)
800003a2: 00b56663     	bltu	a0, a1, 0x800003ae <_$LT$core..ops..range..Range$LT$T$GT$$u20$as$u20$core..iter..range..RangeIteratorImpl$GT$::spec_next::had268787eb961326+0x22>
800003a6: a009         	j	0x800003a8 <_$LT$core..ops..range..Range$LT$T$GT$$u20$as$u20$core..iter..range..RangeIteratorImpl$GT$::spec_next::had268787eb961326+0x1c>
800003a8: 4501         	li	a0, 0x0
800003aa: ec2a         	sd	a0, 0x18(sp)
800003ac: a01d         	j	0x800003d2 <_$LT$core..ops..range..Range$LT$T$GT$$u20$as$u20$core..iter..range..RangeIteratorImpl$GT$::spec_next::had268787eb961326+0x46>
800003ae: 6542         	ld	a0, 0x10(sp)
800003b0: 6108         	ld	a0, 0x0(a0)
800003b2: e02a         	sd	a0, 0x0(sp)
800003b4: f82a         	sd	a0, 0x30(sp)
800003b6: 4585         	li	a1, 0x1
800003b8: e42e         	sd	a1, 0x8(sp)
800003ba: 00005097     	auipc	ra, 0x5
800003be: c44080e7     	jalr	-0x3bc(ra) <_$LT$usize$u20$as$u20$core..iter..range..Step$GT$::forward_unchecked::h9ee5b4213c7b0bd7>
800003c2: 66c2         	ld	a3, 0x10(sp)
800003c4: 6582         	ld	a1, 0x0(sp)
800003c6: 862a         	mv	a2, a0
800003c8: 6522         	ld	a0, 0x8(sp)
800003ca: e290         	sd	a2, 0x0(a3)
800003cc: f02e         	sd	a1, 0x20(sp)
800003ce: ec2a         	sd	a0, 0x18(sp)
800003d0: a009         	j	0x800003d2 <_$LT$core..ops..range..Range$LT$T$GT$$u20$as$u20$core..iter..range..RangeIteratorImpl$GT$::spec_next::had268787eb961326+0x46>
800003d2: 6562         	ld	a0, 0x18(sp)
800003d4: 7582         	ld	a1, 0x20(sp)
800003d6: 60a6         	ld	ra, 0x48(sp)
800003d8: 6161         	addi	sp, sp, 0x50
800003da: 8082         	ret
800003dc: 0000         	unimp
800003de: 0000         	unimp

00000000800003e0 <enter_supervisor>:
800003e0: 34151073     	csrw	mepc, a0
800003e4: 300022f3     	csrr	t0, mstatus
800003e8: 430d         	li	t1, 0x3
800003ea: 032e         	slli	t1, t1, 0xb
800003ec: fff34313     	not	t1, t1
800003f0: 0062f2b3     	and	t0, t0, t1
800003f4: 4305         	li	t1, 0x1
800003f6: 032e         	slli	t1, t1, 0xb
800003f8: 0062e2b3     	or	t0, t0, t1
800003fc: 30029073     	csrw	mstatus, t0
80000400: 812e         	mv	sp, a1
80000402: 30200073     	mret

0000000080000406 <enter_user_task>:
80000406: 8faa         	mv	t6, a0
80000408: 14059073     	csrw	sscratch, a1
8000040c: 0f8fb283     	ld	t0, 0xf8(t6)
80000410: 14129073     	csrw	sepc, t0
80000414: 100022f3     	csrr	t0, sstatus
80000418: 12200313     	li	t1, 0x122
8000041c: fff34313     	not	t1, t1
80000420: 0062f2b3     	and	t0, t0, t1
80000424: 02000313     	li	t1, 0x20
80000428: 0062e2b3     	or	t0, t0, t1
8000042c: 10029073     	csrw	sstatus, t0
80000430: 000fb083     	ld	ra, 0x0(t6)
80000434: 008fb183     	ld	gp, 0x8(t6)
80000438: 010fb203     	ld	tp, 0x10(t6)
8000043c: 018fb283     	ld	t0, 0x18(t6)
80000440: 020fb303     	ld	t1, 0x20(t6)
80000444: 028fb383     	ld	t2, 0x28(t6)
80000448: 030fb403     	ld	s0, 0x30(t6)
8000044c: 038fb483     	ld	s1, 0x38(t6)
80000450: 040fb503     	ld	a0, 0x40(t6)
80000454: 048fb583     	ld	a1, 0x48(t6)
80000458: 050fb603     	ld	a2, 0x50(t6)
8000045c: 058fb683     	ld	a3, 0x58(t6)
80000460: 060fb703     	ld	a4, 0x60(t6)
80000464: 068fb783     	ld	a5, 0x68(t6)
80000468: 070fb803     	ld	a6, 0x70(t6)
8000046c: 078fb883     	ld	a7, 0x78(t6)
80000470: 080fb903     	ld	s2, 0x80(t6)
80000474: 088fb983     	ld	s3, 0x88(t6)
80000478: 090fba03     	ld	s4, 0x90(t6)
8000047c: 098fba83     	ld	s5, 0x98(t6)
80000480: 0a0fbb03     	ld	s6, 0xa0(t6)
80000484: 0a8fbb83     	ld	s7, 0xa8(t6)
80000488: 0b0fbc03     	ld	s8, 0xb0(t6)
8000048c: 0b8fbc83     	ld	s9, 0xb8(t6)
80000490: 0c0fbd03     	ld	s10, 0xc0(t6)
80000494: 0c8fbd83     	ld	s11, 0xc8(t6)
80000498: 0d0fbe03     	ld	t3, 0xd0(t6)
8000049c: 0d8fbe83     	ld	t4, 0xd8(t6)
800004a0: 0e0fbf03     	ld	t5, 0xe0(t6)
800004a4: 0f0fb103     	ld	sp, 0xf0(t6)
800004a8: 0e8fbf83     	ld	t6, 0xe8(t6)
800004ac: 10200073     	sret

00000000800004b0 <machine_trap_entry>:
800004b0: 34011173     	csrrw	sp, mscratch, sp
800004b4: 7111         	addi	sp, sp, -0x100
800004b6: e006         	sd	ra, 0x0(sp)
800004b8: e40e         	sd	gp, 0x8(sp)
800004ba: e812         	sd	tp, 0x10(sp)
800004bc: ec16         	sd	t0, 0x18(sp)
800004be: f01a         	sd	t1, 0x20(sp)
800004c0: f41e         	sd	t2, 0x28(sp)
800004c2: f822         	sd	s0, 0x30(sp)
800004c4: fc26         	sd	s1, 0x38(sp)
800004c6: e0aa         	sd	a0, 0x40(sp)
800004c8: e4ae         	sd	a1, 0x48(sp)
800004ca: e8b2         	sd	a2, 0x50(sp)
800004cc: ecb6         	sd	a3, 0x58(sp)
800004ce: f0ba         	sd	a4, 0x60(sp)
800004d0: f4be         	sd	a5, 0x68(sp)
800004d2: f8c2         	sd	a6, 0x70(sp)
800004d4: fcc6         	sd	a7, 0x78(sp)
800004d6: e14a         	sd	s2, 0x80(sp)
800004d8: e54e         	sd	s3, 0x88(sp)
800004da: e952         	sd	s4, 0x90(sp)
800004dc: ed56         	sd	s5, 0x98(sp)
800004de: f15a         	sd	s6, 0xa0(sp)
800004e0: f55e         	sd	s7, 0xa8(sp)
800004e2: f962         	sd	s8, 0xb0(sp)
800004e4: fd66         	sd	s9, 0xb8(sp)
800004e6: e1ea         	sd	s10, 0xc0(sp)
800004e8: e5ee         	sd	s11, 0xc8(sp)
800004ea: e9f2         	sd	t3, 0xd0(sp)
800004ec: edf6         	sd	t4, 0xd8(sp)
800004ee: f1fa         	sd	t5, 0xe0(sp)
800004f0: f5fe         	sd	t6, 0xe8(sp)
800004f2: 340022f3     	csrr	t0, mscratch
800004f6: f996         	sd	t0, 0xf0(sp)
800004f8: 341022f3     	csrr	t0, mepc
800004fc: fd96         	sd	t0, 0xf8(sp)
800004fe: 850a         	mv	a0, sp
80000500: 00004097     	auipc	ra, 0x4
80000504: 336080e7     	jalr	0x336(ra) <handle_machine_trap>
80000508: 72ee         	ld	t0, 0xf8(sp)
8000050a: 34129073     	csrw	mepc, t0
8000050e: 72ce         	ld	t0, 0xf0(sp)
80000510: 34029073     	csrw	mscratch, t0
80000514: 6082         	ld	ra, 0x0(sp)
80000516: 61a2         	ld	gp, 0x8(sp)
80000518: 6242         	ld	tp, 0x10(sp)
8000051a: 62e2         	ld	t0, 0x18(sp)
8000051c: 7302         	ld	t1, 0x20(sp)
8000051e: 73a2         	ld	t2, 0x28(sp)
80000520: 7442         	ld	s0, 0x30(sp)
80000522: 74e2         	ld	s1, 0x38(sp)
80000524: 6506         	ld	a0, 0x40(sp)
80000526: 65a6         	ld	a1, 0x48(sp)
80000528: 6646         	ld	a2, 0x50(sp)
8000052a: 66e6         	ld	a3, 0x58(sp)
8000052c: 7706         	ld	a4, 0x60(sp)
8000052e: 77a6         	ld	a5, 0x68(sp)
80000530: 7846         	ld	a6, 0x70(sp)
80000532: 78e6         	ld	a7, 0x78(sp)
80000534: 690a         	ld	s2, 0x80(sp)
80000536: 69aa         	ld	s3, 0x88(sp)
80000538: 6a4a         	ld	s4, 0x90(sp)
8000053a: 6aea         	ld	s5, 0x98(sp)
8000053c: 7b0a         	ld	s6, 0xa0(sp)
8000053e: 7baa         	ld	s7, 0xa8(sp)
80000540: 7c4a         	ld	s8, 0xb0(sp)
80000542: 7cea         	ld	s9, 0xb8(sp)
80000544: 6d0e         	ld	s10, 0xc0(sp)
80000546: 6dae         	ld	s11, 0xc8(sp)
80000548: 6e4e         	ld	t3, 0xd0(sp)
8000054a: 6eee         	ld	t4, 0xd8(sp)
8000054c: 7f0e         	ld	t5, 0xe0(sp)
8000054e: 7fae         	ld	t6, 0xe8(sp)
80000550: 6111         	addi	sp, sp, 0x100
80000552: 34011173     	csrrw	sp, mscratch, sp
80000556: 30200073     	mret
8000055a: 0001         	nop
8000055c: 00000013     	nop

0000000080000560 <supervisor_trap_entry>:
80000560: 14011173     	csrrw	sp, sscratch, sp
80000564: 7111         	addi	sp, sp, -0x100
80000566: e006         	sd	ra, 0x0(sp)
80000568: e40e         	sd	gp, 0x8(sp)
8000056a: e812         	sd	tp, 0x10(sp)
8000056c: ec16         	sd	t0, 0x18(sp)
8000056e: f01a         	sd	t1, 0x20(sp)
80000570: f41e         	sd	t2, 0x28(sp)
80000572: f822         	sd	s0, 0x30(sp)
80000574: fc26         	sd	s1, 0x38(sp)
80000576: e0aa         	sd	a0, 0x40(sp)
80000578: e4ae         	sd	a1, 0x48(sp)
8000057a: e8b2         	sd	a2, 0x50(sp)
8000057c: ecb6         	sd	a3, 0x58(sp)
8000057e: f0ba         	sd	a4, 0x60(sp)
80000580: f4be         	sd	a5, 0x68(sp)
80000582: f8c2         	sd	a6, 0x70(sp)
80000584: fcc6         	sd	a7, 0x78(sp)
80000586: e14a         	sd	s2, 0x80(sp)
80000588: e54e         	sd	s3, 0x88(sp)
8000058a: e952         	sd	s4, 0x90(sp)
8000058c: ed56         	sd	s5, 0x98(sp)
8000058e: f15a         	sd	s6, 0xa0(sp)
80000590: f55e         	sd	s7, 0xa8(sp)
80000592: f962         	sd	s8, 0xb0(sp)
80000594: fd66         	sd	s9, 0xb8(sp)
80000596: e1ea         	sd	s10, 0xc0(sp)
80000598: e5ee         	sd	s11, 0xc8(sp)
8000059a: e9f2         	sd	t3, 0xd0(sp)
8000059c: edf6         	sd	t4, 0xd8(sp)
8000059e: f1fa         	sd	t5, 0xe0(sp)
800005a0: f5fe         	sd	t6, 0xe8(sp)
800005a2: 140022f3     	csrr	t0, sscratch
800005a6: f996         	sd	t0, 0xf0(sp)
800005a8: 141022f3     	csrr	t0, sepc
800005ac: fd96         	sd	t0, 0xf8(sp)
800005ae: 850a         	mv	a0, sp
800005b0: 00004097     	auipc	ra, 0x4
800005b4: 31a080e7     	jalr	0x31a(ra) <handle_supervisor_trap>
800005b8: 72ee         	ld	t0, 0xf8(sp)
800005ba: 14129073     	csrw	sepc, t0
800005be: 72ce         	ld	t0, 0xf0(sp)
800005c0: 14029073     	csrw	sscratch, t0
800005c4: 6082         	ld	ra, 0x0(sp)
800005c6: 61a2         	ld	gp, 0x8(sp)
800005c8: 6242         	ld	tp, 0x10(sp)
800005ca: 62e2         	ld	t0, 0x18(sp)
800005cc: 7302         	ld	t1, 0x20(sp)
800005ce: 73a2         	ld	t2, 0x28(sp)
800005d0: 7442         	ld	s0, 0x30(sp)
800005d2: 74e2         	ld	s1, 0x38(sp)
800005d4: 6506         	ld	a0, 0x40(sp)
800005d6: 65a6         	ld	a1, 0x48(sp)
800005d8: 6646         	ld	a2, 0x50(sp)
800005da: 66e6         	ld	a3, 0x58(sp)
800005dc: 7706         	ld	a4, 0x60(sp)
800005de: 77a6         	ld	a5, 0x68(sp)
800005e0: 7846         	ld	a6, 0x70(sp)
800005e2: 78e6         	ld	a7, 0x78(sp)
800005e4: 690a         	ld	s2, 0x80(sp)
800005e6: 69aa         	ld	s3, 0x88(sp)
800005e8: 6a4a         	ld	s4, 0x90(sp)
800005ea: 6aea         	ld	s5, 0x98(sp)
800005ec: 7b0a         	ld	s6, 0xa0(sp)
800005ee: 7baa         	ld	s7, 0xa8(sp)
800005f0: 7c4a         	ld	s8, 0xb0(sp)
800005f2: 7cea         	ld	s9, 0xb8(sp)
800005f4: 6d0e         	ld	s10, 0xc0(sp)
800005f6: 6dae         	ld	s11, 0xc8(sp)
800005f8: 6e4e         	ld	t3, 0xd0(sp)
800005fa: 6eee         	ld	t4, 0xd8(sp)
800005fc: 7f0e         	ld	t5, 0xe0(sp)
800005fe: 7fae         	ld	t6, 0xe8(sp)
80000600: 6111         	addi	sp, sp, 0x100
80000602: 14011173     	csrrw	sp, sscratch, sp
80000606: 10200073     	sret
8000060a: 0001         	nop
8000060c: 00000013     	nop

0000000080000610 <__user_program_start>:
80000610: 00401437     	lui	s0, 0x401
80000614: 004104b7     	lui	s1, 0x410
80000618: 004442b7     	lui	t0, 0x444
8000061c: 48928293     	addi	t0, t0, 0x489
80000620: 02b2         	slli	t0, t0, 0xc
80000622: 88d28293     	addi	t0, t0, -0x773
80000626: 02b2         	slli	t0, t0, 0xc
80000628: ccd28293     	addi	t0, t0, -0x333
8000062c: 02ba         	slli	t0, t0, 0xe
8000062e: 44428293     	addi	t0, t0, 0x444
80000632: 0054b023     	sd	t0, 0x0(s1)
80000636: 02aab337     	lui	t1, 0x2aab
8000063a: b3330313     	addi	t1, t1, -0x4cd
8000063e: 0336         	slli	t1, t1, 0xd
80000640: 67730313     	addi	t1, t1, 0x677
80000644: 0332         	slli	t1, t1, 0xc
80000646: 77930313     	addi	t1, t1, 0x779
8000064a: 0332         	slli	t1, t1, 0xc
8000064c: 88830313     	addi	t1, t1, -0x778
80000650: 6385         	lui	t2, 0x1
80000652: 00748e33     	add	t3, s1, t2
80000656: 006e3023     	sd	t1, 0x0(t3)
8000065a: fe666eb7     	lui	t4, 0xfe666
8000065e: 6abe8e93     	addi	t4, t4, 0x6ab
80000662: 0eb2         	slli	t4, t4, 0xc
80000664: aafe8e93     	addi	t4, t4, -0x551
80000668: 0eba         	slli	t4, t4, 0xe
8000066a: bbde8e93     	addi	t4, t4, -0x443
8000066e: 0eb2         	slli	t4, t4, 0xc
80000670: ccce8e93     	addi	t4, t4, -0x334
80000674: 6f05         	lui	t5, 0x1
80000676: 0f06         	slli	t5, t5, 0x1
80000678: 01e48fb3     	add	t6, s1, t5
8000067c: 01dfb023     	sd	t4, 0x0(t6)
80000680: 000fb503     	ld	a0, 0x0(t6)
80000684: e408         	sd	a0, 0x8(s0)
80000686: 608c         	ld	a1, 0x0(s1)
80000688: e80c         	sd	a1, 0x10(s0)
8000068a: 6090         	ld	a2, 0x0(s1)
8000068c: ec10         	sd	a2, 0x18(s0)
8000068e: ffabd6b7     	lui	a3, 0xffabd
80000692: def68693     	addi	a3, a3, -0x211
80000696: 06ba         	slli	a3, a3, 0xe
80000698: 04968693     	addi	a3, a3, 0x49
8000069c: 06b6         	slli	a3, a3, 0xd
8000069e: a2b68693     	addi	a3, a3, -0x5d5
800006a2: 06b6         	slli	a3, a3, 0xd
800006a4: 78968693     	addi	a3, a3, 0x789
800006a8: e014         	sd	a3, 0x0(s0)
800006aa: 4501         	li	a0, 0x0
800006ac: 4885         	li	a7, 0x1
800006ae: 00000073     	ecall
800006b2: a001         	j	0x800006b2 <__user_program_start+0xa2>

00000000800006b4 <__user_program_end>:
800006b4: 7139         	addi	sp, sp, -0x40
800006b6: fc06         	sd	ra, 0x38(sp)
800006b8: e42a         	sd	a0, 0x8(sp)
800006ba: 002c         	addi	a1, sp, 0x8
800006bc: f82e         	sd	a1, 0x30(sp)
800006be: 1008         	addi	a0, sp, 0x20
800006c0: 00000097     	auipc	ra, 0x0
800006c4: c26080e7     	jalr	-0x3da(ra) <core::fmt::rt::Argument::new_display::hbbbee898255877f0>
800006c8: 7522         	ld	a0, 0x28(sp)
800006ca: ec2a         	sd	a0, 0x18(sp)
800006cc: 7502         	ld	a0, 0x20(sp)
800006ce: e82a         	sd	a0, 0x10(sp)

00000000800006d0 <.Lpcrel_hi1>:
800006d0: 00006517     	auipc	a0, 0x6
800006d4: 57750513     	addi	a0, a0, 0x577
800006d8: 080c         	addi	a1, sp, 0x10
800006da: 00000097     	auipc	ra, 0x0
800006de: a9c080e7     	jalr	-0x564(ra) <core::fmt::Arguments::new::h340519db4dd53c71>
800006e2: 00005097     	auipc	ra, 0x5
800006e6: 998080e7     	jalr	-0x668(ra) <lab4_kernel_task4::console::print::h39762270f09f95ac>
800006ea: 4505         	li	a0, 0x1
800006ec: 00004097     	auipc	ra, 0x4
800006f0: e70080e7     	jalr	-0x190(ra) <lab4_kernel_task4::qemu_exit::he78fd981eff3bf43>

00000000800006f4 <lab4_kernel_task4::WalkResult::zeroed::hce6b2e1096557dc2>:
800006f4: 85aa         	mv	a1, a0
800006f6: 4501         	li	a0, 0x0
800006f8: e188         	sd	a0, 0x0(a1)
800006fa: e588         	sd	a0, 0x8(a1)
800006fc: e988         	sd	a0, 0x10(a1)
800006fe: ed88         	sd	a0, 0x18(a1)
80000700: f188         	sd	a0, 0x20(a1)
80000702: f588         	sd	a0, 0x28(a1)
80000704: 567d         	li	a2, -0x1
80000706: f990         	sd	a2, 0x30(a1)
80000708: fd88         	sd	a0, 0x38(a1)
8000070a: 8082         	ret

000000008000070c <lab4_kernel_task4::align_down::h2d88151e847bb710>:
8000070c: 1101         	addi	sp, sp, -0x20
8000070e: e02a         	sd	a0, 0x0(sp)
80000710: e82a         	sd	a0, 0x10(sp)
80000712: ec2e         	sd	a1, 0x18(sp)
80000714: fff58513     	addi	a0, a1, -0x1
80000718: e42a         	sd	a0, 0x8(sp)
8000071a: c989         	beqz	a1, 0x8000072c <.Lpcrel_hi2>
8000071c: a009         	j	0x8000071e <lab4_kernel_task4::align_down::h2d88151e847bb710+0x12>
8000071e: 6502         	ld	a0, 0x0(sp)
80000720: 65a2         	ld	a1, 0x8(sp)
80000722: fff5c593     	not	a1, a1
80000726: 8d6d         	and	a0, a0, a1
80000728: 6105         	addi	sp, sp, 0x20
8000072a: 8082         	ret

000000008000072c <.Lpcrel_hi2>:
8000072c: 00007517     	auipc	a0, 0x7
80000730: b1c50513     	addi	a0, a0, -0x4e4
80000734: 00006097     	auipc	ra, 0x6
80000738: f7c080e7     	jalr	-0x84(ra) <core::panicking::panic_const::panic_const_sub_overflow::hccc965ba9198de7c>

000000008000073c <lab4_kernel_task4::print_walk::h17f3ac5b095b2942>:
8000073c: b4010113     	addi	sp, sp, -0x4c0
80000740: 4a113c23     	sd	ra, 0x4b8(sp)
80000744: f4b6         	sd	a3, 0x68(sp)
80000746: f8aa         	sd	a0, 0x70(sp)
80000748: fcae         	sd	a1, 0x78(sp)
8000074a: e132         	sd	a2, 0x80(sp)
8000074c: 7e88         	ld	a0, 0x38(a3)
8000074e: 00001097     	auipc	ra, 0x1
80000752: d0c080e7     	jalr	-0x2f4(ra) <lab4_kernel_task4::pte_is_swapped::h2f15221e95824ae5>
80000756: 24051063     	bnez	a0, 0x80000996 <.Lpcrel_hi3+0x1c>
8000075a: a009         	j	0x8000075c <lab4_kernel_task4::print_walk::h17f3ac5b095b2942+0x20>
8000075c: 7526         	ld	a0, 0x68(sp)
8000075e: 00850593     	addi	a1, a0, 0x8
80000762: fc2e         	sd	a1, 0x38(sp)
80000764: 01050593     	addi	a1, a0, 0x10
80000768: e0ae         	sd	a1, 0x40(sp)
8000076a: 7908         	ld	a0, 0x30(a0)
8000076c: 00001097     	auipc	ra, 0x1
80000770: dea080e7     	jalr	-0x216(ra) <lab4_kernel_task4::leaf_level_name::h1fbca21e7dc7397a>
80000774: 862a         	mv	a2, a0
80000776: 7526         	ld	a0, 0x68(sp)
80000778: 30c13c23     	sd	a2, 0x318(sp)
8000077c: 32b13023     	sd	a1, 0x320(sp)
80000780: 01850593     	addi	a1, a0, 0x18
80000784: e4ae         	sd	a1, 0x48(sp)
80000786: 02050593     	addi	a1, a0, 0x20
8000078a: e8ae         	sd	a1, 0x50(sp)
8000078c: 02850593     	addi	a1, a0, 0x28
80000790: ecae         	sd	a1, 0x58(sp)
80000792: 03850593     	addi	a1, a0, 0x38
80000796: f0ae         	sd	a1, 0x60(sp)
80000798: 7d08         	ld	a0, 0x38(a0)
8000079a: 00004097     	auipc	ra, 0x4
8000079e: db6080e7     	jalr	-0x24a(ra) <lab4_kernel_task4::pte_to_pa::h26e801c57e36545f>
800007a2: 7826         	ld	a6, 0x68(sp)
800007a4: 77e2         	ld	a5, 0x38(sp)
800007a6: 6706         	ld	a4, 0x40(sp)
800007a8: 66a6         	ld	a3, 0x48(sp)
800007aa: 6646         	ld	a2, 0x50(sp)
800007ac: 65e6         	ld	a1, 0x58(sp)
800007ae: 88aa         	mv	a7, a0
800007b0: 7506         	ld	a0, 0x60(sp)
800007b2: 33113423     	sd	a7, 0x328(sp)
800007b6: 03883883     	ld	a7, 0x38(a6)
800007ba: 33113823     	sd	a7, 0x330(sp)
800007be: 07010893     	addi	a7, sp, 0x70
800007c2: 2b113c23     	sd	a7, 0x2b8(sp)
800007c6: 08010893     	addi	a7, sp, 0x80
800007ca: 2d113023     	sd	a7, 0x2c0(sp)
800007ce: 2d013423     	sd	a6, 0x2c8(sp)
800007d2: 2cf13823     	sd	a5, 0x2d0(sp)
800007d6: 2ce13c23     	sd	a4, 0x2d8(sp)
800007da: 0e38         	addi	a4, sp, 0x318
800007dc: 2ee13023     	sd	a4, 0x2e0(sp)
800007e0: 2ed13423     	sd	a3, 0x2e8(sp)
800007e4: 2ec13823     	sd	a2, 0x2f0(sp)
800007e8: 2eb13c23     	sd	a1, 0x2f8(sp)
800007ec: 30a13023     	sd	a0, 0x300(sp)
800007f0: 1628         	addi	a0, sp, 0x328
800007f2: 30a13423     	sd	a0, 0x308(sp)
800007f6: 1e08         	addi	a0, sp, 0x330
800007f8: 30a13823     	sd	a0, 0x310(sp)
800007fc: 2b813583     	ld	a1, 0x2b8(sp)
80000800: 1fa8         	addi	a0, sp, 0x3f8
80000802: 00000097     	auipc	ra, 0x0
80000806: b06080e7     	jalr	-0x4fa(ra) <core::fmt::rt::Argument::new_display::hec1511a75900333e>
8000080a: 2c013583     	ld	a1, 0x2c0(sp)
8000080e: 40810513     	addi	a0, sp, 0x408
80000812: 00000097     	auipc	ra, 0x0
80000816: b18080e7     	jalr	-0x4e8(ra) <core::fmt::rt::Argument::new_lower_hex::h2c3e51038c7990f0>
8000081a: 2c813583     	ld	a1, 0x2c8(sp)
8000081e: 41810513     	addi	a0, sp, 0x418
80000822: 00000097     	auipc	ra, 0x0
80000826: a80080e7     	jalr	-0x580(ra) <core::fmt::rt::Argument::new_display::h72b9aae62486e176>
8000082a: 2d013583     	ld	a1, 0x2d0(sp)
8000082e: 42810513     	addi	a0, sp, 0x428
80000832: 00000097     	auipc	ra, 0x0
80000836: a70080e7     	jalr	-0x590(ra) <core::fmt::rt::Argument::new_display::h72b9aae62486e176>
8000083a: 2d813583     	ld	a1, 0x2d8(sp)
8000083e: 43810513     	addi	a0, sp, 0x438
80000842: 00000097     	auipc	ra, 0x0
80000846: a60080e7     	jalr	-0x5a0(ra) <core::fmt::rt::Argument::new_display::h72b9aae62486e176>
8000084a: 2e013583     	ld	a1, 0x2e0(sp)
8000084e: 44810513     	addi	a0, sp, 0x448
80000852: 00000097     	auipc	ra, 0x0
80000856: ab6080e7     	jalr	-0x54a(ra) <core::fmt::rt::Argument::new_display::hec1511a75900333e>
8000085a: 2e813583     	ld	a1, 0x2e8(sp)
8000085e: 45810513     	addi	a0, sp, 0x458
80000862: 00000097     	auipc	ra, 0x0
80000866: ac8080e7     	jalr	-0x538(ra) <core::fmt::rt::Argument::new_lower_hex::h2c3e51038c7990f0>
8000086a: 2f013583     	ld	a1, 0x2f0(sp)
8000086e: 46810513     	addi	a0, sp, 0x468
80000872: 00000097     	auipc	ra, 0x0
80000876: ab8080e7     	jalr	-0x548(ra) <core::fmt::rt::Argument::new_lower_hex::h2c3e51038c7990f0>
8000087a: 2f813583     	ld	a1, 0x2f8(sp)
8000087e: 47810513     	addi	a0, sp, 0x478
80000882: 00000097     	auipc	ra, 0x0
80000886: aa8080e7     	jalr	-0x558(ra) <core::fmt::rt::Argument::new_lower_hex::h2c3e51038c7990f0>
8000088a: 30013583     	ld	a1, 0x300(sp)
8000088e: 48810513     	addi	a0, sp, 0x488
80000892: 00000097     	auipc	ra, 0x0
80000896: a98080e7     	jalr	-0x568(ra) <core::fmt::rt::Argument::new_lower_hex::h2c3e51038c7990f0>
8000089a: 30813583     	ld	a1, 0x308(sp)
8000089e: 49810513     	addi	a0, sp, 0x498
800008a2: 00000097     	auipc	ra, 0x0
800008a6: a88080e7     	jalr	-0x578(ra) <core::fmt::rt::Argument::new_lower_hex::h2c3e51038c7990f0>
800008aa: 31013583     	ld	a1, 0x310(sp)
800008ae: 4a810513     	addi	a0, sp, 0x4a8
800008b2: 00000097     	auipc	ra, 0x0
800008b6: a12080e7     	jalr	-0x5ee(ra) <core::fmt::rt::Argument::new_display::ha3e0a13b492f2f2f>
800008ba: 40013503     	ld	a0, 0x400(sp)
800008be: 34a13023     	sd	a0, 0x340(sp)
800008c2: 3f813503     	ld	a0, 0x3f8(sp)
800008c6: 32a13c23     	sd	a0, 0x338(sp)
800008ca: 41013503     	ld	a0, 0x410(sp)
800008ce: 34a13823     	sd	a0, 0x350(sp)
800008d2: 40813503     	ld	a0, 0x408(sp)
800008d6: 34a13423     	sd	a0, 0x348(sp)
800008da: 42013503     	ld	a0, 0x420(sp)
800008de: 36a13023     	sd	a0, 0x360(sp)
800008e2: 41813503     	ld	a0, 0x418(sp)
800008e6: 34a13c23     	sd	a0, 0x358(sp)
800008ea: 43013503     	ld	a0, 0x430(sp)
800008ee: 36a13823     	sd	a0, 0x370(sp)
800008f2: 42813503     	ld	a0, 0x428(sp)
800008f6: 36a13423     	sd	a0, 0x368(sp)
800008fa: 44013503     	ld	a0, 0x440(sp)
800008fe: 38a13023     	sd	a0, 0x380(sp)
80000902: 43813503     	ld	a0, 0x438(sp)
80000906: 36a13c23     	sd	a0, 0x378(sp)
8000090a: 45013503     	ld	a0, 0x450(sp)
8000090e: 38a13823     	sd	a0, 0x390(sp)
80000912: 44813503     	ld	a0, 0x448(sp)
80000916: 38a13423     	sd	a0, 0x388(sp)
8000091a: 46013503     	ld	a0, 0x460(sp)
8000091e: 3aa13023     	sd	a0, 0x3a0(sp)
80000922: 45813503     	ld	a0, 0x458(sp)
80000926: 38a13c23     	sd	a0, 0x398(sp)
8000092a: 47013503     	ld	a0, 0x470(sp)
8000092e: 3aa13823     	sd	a0, 0x3b0(sp)
80000932: 46813503     	ld	a0, 0x468(sp)
80000936: 3aa13423     	sd	a0, 0x3a8(sp)
8000093a: 48013503     	ld	a0, 0x480(sp)
8000093e: 3ca13023     	sd	a0, 0x3c0(sp)
80000942: 47813503     	ld	a0, 0x478(sp)
80000946: 3aa13c23     	sd	a0, 0x3b8(sp)
8000094a: 49013503     	ld	a0, 0x490(sp)
8000094e: 3ca13823     	sd	a0, 0x3d0(sp)
80000952: 48813503     	ld	a0, 0x488(sp)
80000956: 3ca13423     	sd	a0, 0x3c8(sp)
8000095a: 4a013503     	ld	a0, 0x4a0(sp)
8000095e: 3ea13023     	sd	a0, 0x3e0(sp)
80000962: 49813503     	ld	a0, 0x498(sp)
80000966: 3ca13c23     	sd	a0, 0x3d8(sp)
8000096a: 4b013503     	ld	a0, 0x4b0(sp)
8000096e: 3ea13823     	sd	a0, 0x3f0(sp)
80000972: 4a813503     	ld	a0, 0x4a8(sp)
80000976: 3ea13423     	sd	a0, 0x3e8(sp)

000000008000097a <.Lpcrel_hi3>:
8000097a: 00007517     	auipc	a0, 0x7
8000097e: 8e650513     	addi	a0, a0, -0x71a
80000982: 1e2c         	addi	a1, sp, 0x338
80000984: 00000097     	auipc	ra, 0x0
80000988: 856080e7     	jalr	-0x7aa(ra) <core::fmt::Arguments::new::h9371bcaedaa61594>
8000098c: 00004097     	auipc	ra, 0x4
80000990: 6ee080e7     	jalr	0x6ee(ra) <lab4_kernel_task4::console::print::h39762270f09f95ac>
80000994: a2d5         	j	0x80000b78 <.Lpcrel_hi4+0x1c>
80000996: 7526         	ld	a0, 0x68(sp)
80000998: 03850593     	addi	a1, a0, 0x38
8000099c: f82e         	sd	a1, 0x30(sp)
8000099e: 7d08         	ld	a0, 0x38(a0)
800009a0: 00003097     	auipc	ra, 0x3
800009a4: 822080e7     	jalr	-0x7de(ra) <lab4_kernel_task4::swap_slot_from_pte::hcaf61d3d9674bda3>
800009a8: 85aa         	mv	a1, a0
800009aa: 7526         	ld	a0, 0x68(sp)
800009ac: e52e         	sd	a1, 0x88(sp)
800009ae: 00850593     	addi	a1, a0, 0x8
800009b2: e42e         	sd	a1, 0x8(sp)
800009b4: 01050593     	addi	a1, a0, 0x10
800009b8: e82e         	sd	a1, 0x10(sp)
800009ba: 7908         	ld	a0, 0x30(a0)
800009bc: 00001097     	auipc	ra, 0x1
800009c0: b9a080e7     	jalr	-0x466(ra) <lab4_kernel_task4::leaf_level_name::h1fbca21e7dc7397a>
800009c4: 862a         	mv	a2, a0
800009c6: 7526         	ld	a0, 0x68(sp)
800009c8: fdb2         	sd	a2, 0xf8(sp)
800009ca: e22e         	sd	a1, 0x100(sp)
800009cc: 01850593     	addi	a1, a0, 0x18
800009d0: ec2e         	sd	a1, 0x18(sp)
800009d2: 02050593     	addi	a1, a0, 0x20
800009d6: f02e         	sd	a1, 0x20(sp)
800009d8: 02850513     	addi	a0, a0, 0x28
800009dc: f42a         	sd	a0, 0x28(sp)
800009de: 652a         	ld	a0, 0x88(sp)
800009e0: 00000097     	auipc	ra, 0x0
800009e4: 790080e7     	jalr	0x790(ra) <lab4_kernel_task4::swap_slot_pa::hf1be1055ea3d9f9a>
800009e8: 7826         	ld	a6, 0x68(sp)
800009ea: 67a2         	ld	a5, 0x8(sp)
800009ec: 6742         	ld	a4, 0x10(sp)
800009ee: 66e2         	ld	a3, 0x18(sp)
800009f0: 7602         	ld	a2, 0x20(sp)
800009f2: 75a2         	ld	a1, 0x28(sp)
800009f4: 88aa         	mv	a7, a0
800009f6: 7542         	ld	a0, 0x30(sp)
800009f8: e646         	sd	a7, 0x108(sp)
800009fa: 03883883     	ld	a7, 0x38(a6)
800009fe: ea46         	sd	a7, 0x110(sp)
80000a00: 07010893     	addi	a7, sp, 0x70
80000a04: e946         	sd	a7, 0x90(sp)
80000a06: 08010893     	addi	a7, sp, 0x80
80000a0a: ed46         	sd	a7, 0x98(sp)
80000a0c: f142         	sd	a6, 0xa0(sp)
80000a0e: f53e         	sd	a5, 0xa8(sp)
80000a10: f93a         	sd	a4, 0xb0(sp)
80000a12: 19b8         	addi	a4, sp, 0xf8
80000a14: fd3a         	sd	a4, 0xb8(sp)
80000a16: e1b6         	sd	a3, 0xc0(sp)
80000a18: e5b2         	sd	a2, 0xc8(sp)
80000a1a: e9ae         	sd	a1, 0xd0(sp)
80000a1c: edaa         	sd	a0, 0xd8(sp)
80000a1e: 0128         	addi	a0, sp, 0x88
80000a20: f1aa         	sd	a0, 0xe0(sp)
80000a22: 0228         	addi	a0, sp, 0x108
80000a24: f5aa         	sd	a0, 0xe8(sp)
80000a26: 0a08         	addi	a0, sp, 0x110
80000a28: f9aa         	sd	a0, 0xf0(sp)
80000a2a: 65ca         	ld	a1, 0x90(sp)
80000a2c: 13a8         	addi	a0, sp, 0x1e8
80000a2e: 00000097     	auipc	ra, 0x0
80000a32: 8da080e7     	jalr	-0x726(ra) <core::fmt::rt::Argument::new_display::hec1511a75900333e>
80000a36: 65ea         	ld	a1, 0x98(sp)
80000a38: 1ba8         	addi	a0, sp, 0x1f8
80000a3a: 00000097     	auipc	ra, 0x0
80000a3e: 8f0080e7     	jalr	-0x710(ra) <core::fmt::rt::Argument::new_lower_hex::h2c3e51038c7990f0>
80000a42: 758a         	ld	a1, 0xa0(sp)
80000a44: 0428         	addi	a0, sp, 0x208
80000a46: 00000097     	auipc	ra, 0x0
80000a4a: 85c080e7     	jalr	-0x7a4(ra) <core::fmt::rt::Argument::new_display::h72b9aae62486e176>
80000a4e: 75aa         	ld	a1, 0xa8(sp)
80000a50: 0c28         	addi	a0, sp, 0x218
80000a52: 00000097     	auipc	ra, 0x0
80000a56: 850080e7     	jalr	-0x7b0(ra) <core::fmt::rt::Argument::new_display::h72b9aae62486e176>
80000a5a: 75ca         	ld	a1, 0xb0(sp)
80000a5c: 1428         	addi	a0, sp, 0x228
80000a5e: 00000097     	auipc	ra, 0x0
80000a62: 844080e7     	jalr	-0x7bc(ra) <core::fmt::rt::Argument::new_display::h72b9aae62486e176>
80000a66: 75ea         	ld	a1, 0xb8(sp)
80000a68: 1c28         	addi	a0, sp, 0x238
80000a6a: 00000097     	auipc	ra, 0x0
80000a6e: 89e080e7     	jalr	-0x762(ra) <core::fmt::rt::Argument::new_display::hec1511a75900333e>
80000a72: 658e         	ld	a1, 0xc0(sp)
80000a74: 04a8         	addi	a0, sp, 0x248
80000a76: 00000097     	auipc	ra, 0x0
80000a7a: 8b4080e7     	jalr	-0x74c(ra) <core::fmt::rt::Argument::new_lower_hex::h2c3e51038c7990f0>
80000a7e: 65ae         	ld	a1, 0xc8(sp)
80000a80: 0ca8         	addi	a0, sp, 0x258
80000a82: 00000097     	auipc	ra, 0x0
80000a86: 8a8080e7     	jalr	-0x758(ra) <core::fmt::rt::Argument::new_lower_hex::h2c3e51038c7990f0>
80000a8a: 65ce         	ld	a1, 0xd0(sp)
80000a8c: 14a8         	addi	a0, sp, 0x268
80000a8e: 00000097     	auipc	ra, 0x0
80000a92: 89c080e7     	jalr	-0x764(ra) <core::fmt::rt::Argument::new_lower_hex::h2c3e51038c7990f0>
80000a96: 65ee         	ld	a1, 0xd8(sp)
80000a98: 1ca8         	addi	a0, sp, 0x278
80000a9a: 00000097     	auipc	ra, 0x0
80000a9e: 890080e7     	jalr	-0x770(ra) <core::fmt::rt::Argument::new_lower_hex::h2c3e51038c7990f0>
80000aa2: 758e         	ld	a1, 0xe0(sp)
80000aa4: 0528         	addi	a0, sp, 0x288
80000aa6: fffff097     	auipc	ra, 0xfffff
80000aaa: 7fc080e7     	jalr	0x7fc(ra) <core::fmt::rt::Argument::new_display::h72b9aae62486e176>
80000aae: 75ae         	ld	a1, 0xe8(sp)
80000ab0: 0d28         	addi	a0, sp, 0x298
80000ab2: 00000097     	auipc	ra, 0x0
80000ab6: 878080e7     	jalr	-0x788(ra) <core::fmt::rt::Argument::new_lower_hex::h2c3e51038c7990f0>
80000aba: 75ce         	ld	a1, 0xf0(sp)
80000abc: 1528         	addi	a0, sp, 0x2a8
80000abe: 00000097     	auipc	ra, 0x0
80000ac2: 806080e7     	jalr	-0x7fa(ra) <core::fmt::rt::Argument::new_display::ha3e0a13b492f2f2f>
80000ac6: 755e         	ld	a0, 0x1f0(sp)
80000ac8: f22a         	sd	a0, 0x120(sp)
80000aca: 753e         	ld	a0, 0x1e8(sp)
80000acc: ee2a         	sd	a0, 0x118(sp)
80000ace: 20013503     	ld	a0, 0x200(sp)
80000ad2: fa2a         	sd	a0, 0x130(sp)
80000ad4: 757e         	ld	a0, 0x1f8(sp)
80000ad6: f62a         	sd	a0, 0x128(sp)
80000ad8: 21013503     	ld	a0, 0x210(sp)
80000adc: e2aa         	sd	a0, 0x140(sp)
80000ade: 20813503     	ld	a0, 0x208(sp)
80000ae2: fe2a         	sd	a0, 0x138(sp)
80000ae4: 22013503     	ld	a0, 0x220(sp)
80000ae8: eaaa         	sd	a0, 0x150(sp)
80000aea: 21813503     	ld	a0, 0x218(sp)
80000aee: e6aa         	sd	a0, 0x148(sp)
80000af0: 23013503     	ld	a0, 0x230(sp)
80000af4: f2aa         	sd	a0, 0x160(sp)
80000af6: 22813503     	ld	a0, 0x228(sp)
80000afa: eeaa         	sd	a0, 0x158(sp)
80000afc: 24013503     	ld	a0, 0x240(sp)
80000b00: faaa         	sd	a0, 0x170(sp)
80000b02: 23813503     	ld	a0, 0x238(sp)
80000b06: f6aa         	sd	a0, 0x168(sp)
80000b08: 25013503     	ld	a0, 0x250(sp)
80000b0c: e32a         	sd	a0, 0x180(sp)
80000b0e: 24813503     	ld	a0, 0x248(sp)
80000b12: feaa         	sd	a0, 0x178(sp)
80000b14: 26013503     	ld	a0, 0x260(sp)
80000b18: eb2a         	sd	a0, 0x190(sp)
80000b1a: 25813503     	ld	a0, 0x258(sp)
80000b1e: e72a         	sd	a0, 0x188(sp)
80000b20: 27013503     	ld	a0, 0x270(sp)
80000b24: f32a         	sd	a0, 0x1a0(sp)
80000b26: 26813503     	ld	a0, 0x268(sp)
80000b2a: ef2a         	sd	a0, 0x198(sp)
80000b2c: 28013503     	ld	a0, 0x280(sp)
80000b30: fb2a         	sd	a0, 0x1b0(sp)
80000b32: 27813503     	ld	a0, 0x278(sp)
80000b36: f72a         	sd	a0, 0x1a8(sp)
80000b38: 29013503     	ld	a0, 0x290(sp)
80000b3c: e3aa         	sd	a0, 0x1c0(sp)
80000b3e: 28813503     	ld	a0, 0x288(sp)
80000b42: ff2a         	sd	a0, 0x1b8(sp)
80000b44: 2a013503     	ld	a0, 0x2a0(sp)
80000b48: ebaa         	sd	a0, 0x1d0(sp)
80000b4a: 29813503     	ld	a0, 0x298(sp)
80000b4e: e7aa         	sd	a0, 0x1c8(sp)
80000b50: 2b013503     	ld	a0, 0x2b0(sp)
80000b54: f3aa         	sd	a0, 0x1e0(sp)
80000b56: 2a813503     	ld	a0, 0x2a8(sp)
80000b5a: efaa         	sd	a0, 0x1d8(sp)

0000000080000b5c <.Lpcrel_hi4>:
80000b5c: 00006517     	auipc	a0, 0x6
80000b60: 78c50513     	addi	a0, a0, 0x78c
80000b64: 0a2c         	addi	a1, sp, 0x118
80000b66: fffff097     	auipc	ra, 0xfffff
80000b6a: 5d4080e7     	jalr	0x5d4(ra) <core::fmt::Arguments::new::h0319362c235a5f7b>
80000b6e: 00004097     	auipc	ra, 0x4
80000b72: 50c080e7     	jalr	0x50c(ra) <lab4_kernel_task4::console::print::h39762270f09f95ac>
80000b76: a009         	j	0x80000b78 <.Lpcrel_hi4+0x1c>
80000b78: 4b813083     	ld	ra, 0x4b8(sp)
80000b7c: 4c010113     	addi	sp, sp, 0x4c0
80000b80: 8082         	ret

0000000080000b82 <lab4_kernel_task4::read_mtval::h10ac0aeef3fa5373>:
80000b82: 1141         	addi	sp, sp, -0x10
80000b84: 34302573     	csrr	a0, mtval
80000b88: e42a         	sd	a0, 0x8(sp)
80000b8a: 6522         	ld	a0, 0x8(sp)
80000b8c: 0141         	addi	sp, sp, 0x10
80000b8e: 8082         	ret

0000000080000b90 <lab4_kernel_task4::read_stval::hd01b9c3c195ba5a3>:
80000b90: 1141         	addi	sp, sp, -0x10
80000b92: 14302573     	csrr	a0, stval
80000b96: e42a         	sd	a0, 0x8(sp)
80000b98: 6522         	ld	a0, 0x8(sp)
80000b9a: 0141         	addi	sp, sp, 0x10
80000b9c: 8082         	ret

0000000080000b9e <lab4_kernel_task4::vpn0_index::h62e57f18e5f43d5f>:
80000b9e: 1141         	addi	sp, sp, -0x10
80000ba0: e42a         	sd	a0, 0x8(sp)
80000ba2: 152e         	slli	a0, a0, 0x2b
80000ba4: 915d         	srli	a0, a0, 0x37
80000ba6: 0141         	addi	sp, sp, 0x10
80000ba8: 8082         	ret

0000000080000baa <lab4_kernel_task4::vpn1_index::h5d72917a9159dda6>:
80000baa: 1141         	addi	sp, sp, -0x10
80000bac: e42a         	sd	a0, 0x8(sp)
80000bae: 150a         	slli	a0, a0, 0x22
80000bb0: 915d         	srli	a0, a0, 0x37
80000bb2: 0141         	addi	sp, sp, 0x10
80000bb4: 8082         	ret

0000000080000bb6 <lab4_kernel_task4::vpn2_index::hc51a456bbebc8b25>:
80000bb6: 1141         	addi	sp, sp, -0x10
80000bb8: e42a         	sd	a0, 0x8(sp)
80000bba: 0566         	slli	a0, a0, 0x19
80000bbc: 915d         	srli	a0, a0, 0x37
80000bbe: 0141         	addi	sp, sp, 0x10
80000bc0: 8082         	ret

0000000080000bc2 <lab4_kernel_task4::WorkingPage::zeroed::h78c4d4749935d3bd>:
80000bc2: 85aa         	mv	a1, a0
80000bc4: 4501         	li	a0, 0x0
80000bc6: 00a58823     	sb	a0, 0x10(a1)
80000bca: e188         	sd	a0, 0x0(a1)
80000bcc: e588         	sd	a0, 0x8(a1)
80000bce: 00a588a3     	sb	a0, 0x11(a1)
80000bd2: 8082         	ret

0000000080000bd4 <lab4_kernel_task4::kernel_fail::h99bea34bc7f3548a>:
80000bd4: 7139         	addi	sp, sp, -0x40
80000bd6: fc06         	sd	ra, 0x38(sp)
80000bd8: e02a         	sd	a0, 0x0(sp)
80000bda: e42e         	sd	a1, 0x8(sp)
80000bdc: 858a         	mv	a1, sp
80000bde: f82e         	sd	a1, 0x30(sp)
80000be0: 1008         	addi	a0, sp, 0x20
80000be2: fffff097     	auipc	ra, 0xfffff
80000be6: 726080e7     	jalr	0x726(ra) <core::fmt::rt::Argument::new_display::hec1511a75900333e>
80000bea: 7522         	ld	a0, 0x28(sp)
80000bec: ec2a         	sd	a0, 0x18(sp)
80000bee: 7502         	ld	a0, 0x20(sp)
80000bf0: e82a         	sd	a0, 0x10(sp)

0000000080000bf2 <.Lpcrel_hi5>:
80000bf2: 00006517     	auipc	a0, 0x6
80000bf6: fe650513     	addi	a0, a0, -0x1a
80000bfa: 080c         	addi	a1, sp, 0x10
80000bfc: fffff097     	auipc	ra, 0xfffff
80000c00: 5d4080e7     	jalr	0x5d4(ra) <core::fmt::Arguments::new::h8260239226a31147>
80000c04: 00004097     	auipc	ra, 0x4
80000c08: 476080e7     	jalr	0x476(ra) <lab4_kernel_task4::console::print::h39762270f09f95ac>
80000c0c: 4505         	li	a0, 0x1
80000c0e: 00004097     	auipc	ra, 0x4
80000c12: 94e080e7     	jalr	-0x6b2(ra) <lab4_kernel_task4::qemu_exit::he78fd981eff3bf43>

0000000080000c16 <lab4_kernel_task4::pte_is_leaf::he68901af7ab7afed>:
80000c16: 1141         	addi	sp, sp, -0x10
80000c18: e42a         	sd	a0, 0x8(sp)
80000c1a: 8939         	andi	a0, a0, 0xe
80000c1c: 00a03533     	snez	a0, a0
80000c20: 0141         	addi	sp, sp, 0x10
80000c22: 8082         	ret

0000000080000c24 <lab4_kernel_task4::read_mcause::hab50a2cf5701775b>:
80000c24: 1141         	addi	sp, sp, -0x10
80000c26: 34202573     	csrr	a0, mcause
80000c2a: e42a         	sd	a0, 0x8(sp)
80000c2c: 6522         	ld	a0, 0x8(sp)
80000c2e: 0141         	addi	sp, sp, 0x10
80000c30: 8082         	ret

0000000080000c32 <lab4_kernel_task4::read_scause::h4cab8b8461bed96d>:
80000c32: 1141         	addi	sp, sp, -0x10
80000c34: 14202573     	csrr	a0, scause
80000c38: e42a         	sd	a0, 0x8(sp)
80000c3a: 6522         	ld	a0, 0x8(sp)
80000c3c: 0141         	addi	sp, sp, 0x10
80000c3e: 8082         	ret

0000000080000c40 <lab4_kernel_task4::user_shared::h2cf1514d5b6f277e>:
80000c40: 1141         	addi	sp, sp, -0x10

0000000080000c42 <.Lpcrel_hi6>:
80000c42: 0000e517     	auipc	a0, 0xe
80000c46: 3be50513     	addi	a0, a0, 0x3be
80000c4a: e02a         	sd	a0, 0x0(sp)
80000c4c: e42a         	sd	a0, 0x8(sp)
80000c4e: 891d         	andi	a0, a0, 0x7
80000c50: e901         	bnez	a0, 0x80000c60 <.Lpcrel_hi7+0xc>
80000c52: a009         	j	0x80000c54 <.Lpcrel_hi7>

0000000080000c54 <.Lpcrel_hi7>:
80000c54: 0000e517     	auipc	a0, 0xe
80000c58: 3ac50513     	addi	a0, a0, 0x3ac
80000c5c: ed01         	bnez	a0, 0x80000c74 <.Lpcrel_hi9>
80000c5e: a00d         	j	0x80000c80 <.Lpcrel_hi10>
80000c60: 6582         	ld	a1, 0x0(sp)

0000000080000c62 <.Lpcrel_hi8>:
80000c62: 00006517     	auipc	a0, 0x6
80000c66: 71e50613     	addi	a2, a0, 0x71e
80000c6a: 4521         	li	a0, 0x8
80000c6c: 00006097     	auipc	ra, 0x6
80000c70: b0c080e7     	jalr	-0x4f4(ra) <core::panicking::panic_misaligned_pointer_dereference::hda85f7fb51d959f0>

0000000080000c74 <.Lpcrel_hi9>:
80000c74: 0000e517     	auipc	a0, 0xe
80000c78: 38c50513     	addi	a0, a0, 0x38c
80000c7c: 0141         	addi	sp, sp, 0x10
80000c7e: 8082         	ret

0000000080000c80 <.Lpcrel_hi10>:
80000c80: 00006517     	auipc	a0, 0x6
80000c84: 70050513     	addi	a0, a0, 0x700
80000c88: 00006097     	auipc	ra, 0x6
80000c8c: ad0080e7     	jalr	-0x530(ra) <core::panicking::panic_null_pointer_dereference::hbac6411af4f2e916>

0000000080000c90 <lab4_kernel_task4::SwapEvidence::zeroed::h652cc6aee2d8a423>:
80000c90: 85aa         	mv	a1, a0
80000c92: 4501         	li	a0, 0x0
80000c94: 02a58823     	sb	a0, 0x30(a1)
80000c98: e188         	sd	a0, 0x0(a1)
80000c9a: e588         	sd	a0, 0x8(a1)
80000c9c: e988         	sd	a0, 0x10(a1)
80000c9e: ed88         	sd	a0, 0x18(a1)
80000ca0: f188         	sd	a0, 0x20(a1)
80000ca2: f588         	sd	a0, 0x28(a1)
80000ca4: 8082         	ret

0000000080000ca6 <lab4_kernel_task4::pte_is_valid::h6bf9a14b87e3b7e3>:
80000ca6: 1141         	addi	sp, sp, -0x10
80000ca8: e42a         	sd	a0, 0x8(sp)
80000caa: 8905         	andi	a0, a0, 0x1
80000cac: 0141         	addi	sp, sp, 0x10
80000cae: 8082         	ret

0000000080000cb0 <lab4_kernel_task4::swap_area_pa::hf10dd411c1a3b358>:
80000cb0: 00016517     	auipc	a0, 0x16
80000cb4: 35050513     	addi	a0, a0, 0x350
80000cb8: 8082         	ret

0000000080000cba <lab4_kernel_task4::swap_in_page::h1c43d66c07986c72>:
80000cba: dd010113     	addi	sp, sp, -0x230
80000cbe: 22113423     	sd	ra, 0x228(sp)
80000cc2: ec36         	sd	a3, 0x18(sp)
80000cc4: f032         	sd	a2, 0x20(sp)
80000cc6: f42e         	sd	a1, 0x28(sp)
80000cc8: fc2a         	sd	a0, 0x38(sp)
80000cca: e0ba         	sd	a4, 0x40(sp)
80000ccc: e4be         	sd	a5, 0x48(sp)
80000cce: e7ae         	sd	a1, 0x1c8(sp)
80000cd0: ebb2         	sd	a2, 0x1d0(sp)
80000cd2: 7e88         	ld	a0, 0x38(a3)
80000cd4: 00002097     	auipc	ra, 0x2
80000cd8: 4ee080e7     	jalr	0x4ee(ra) <lab4_kernel_task4::swap_slot_from_pte::hcaf61d3d9674bda3>
80000cdc: e8aa         	sd	a0, 0x50(sp)
80000cde: 7562         	ld	a0, 0x38(sp)
80000ce0: 00003097     	auipc	ra, 0x3
80000ce4: 2fe080e7     	jalr	0x2fe(ra) <lab4_kernel_task4::acquire_frame_for_page::h5325b1eb0bff54f3>
80000ce8: 85aa         	mv	a1, a0
80000cea: f82e         	sd	a1, 0x30(sp)
80000cec: efaa         	sd	a0, 0x1d8(sp)
80000cee: 00002097     	auipc	ra, 0x2
80000cf2: b42080e7     	jalr	-0x4be(ra) <lab4_kernel_task4::resident_frame_pa::hb64451074135dde2>
80000cf6: ecaa         	sd	a0, 0x58(sp)
80000cf8: 6546         	ld	a0, 0x50(sp)
80000cfa: 00000097     	auipc	ra, 0x0
80000cfe: 476080e7     	jalr	0x476(ra) <lab4_kernel_task4::swap_slot_pa::hf1be1055ea3d9f9a>
80000d02: 85aa         	mv	a1, a0
80000d04: f3ae         	sd	a1, 0x1e0(sp)
80000d06: 6566         	ld	a0, 0x58(sp)
80000d08: 00003097     	auipc	ra, 0x3
80000d0c: 7d4080e7     	jalr	0x7d4(ra) <lab4_kernel_task4::copy_page::h867d2e4e96158e1c>
80000d10: 75e2         	ld	a1, 0x38(sp)
80000d12: 4509         	li	a0, 0x2
80000d14: 00b56963     	bltu	a0, a1, 0x80000d26 <.Lpcrel_hi12+0xc>
80000d18: a009         	j	0x80000d1a <.Lpcrel_hi12>

0000000080000d1a <.Lpcrel_hi12>:
80000d1a: 00009517     	auipc	a0, 0x9
80000d1e: 47e50513     	addi	a0, a0, 0x47e
80000d22: ed01         	bnez	a0, 0x80000d3a <.Lpcrel_hi13+0x12>
80000d24: a835         	j	0x80000d60 <.Lpcrel_hi15>
80000d26: 7562         	ld	a0, 0x38(sp)

0000000080000d28 <.Lpcrel_hi13>:
80000d28: 00006597     	auipc	a1, 0x6
80000d2c: 67058613     	addi	a2, a1, 0x670
80000d30: 458d         	li	a1, 0x3
80000d32: 00006097     	auipc	ra, 0x6
80000d36: 9ba080e7     	jalr	-0x646(ra) <core::panicking::panic_bounds_check::h6aaee0d15e0261eb>
80000d3a: 7562         	ld	a0, 0x38(sp)
80000d3c: 00351593     	slli	a1, a0, 0x3
80000d40: 0516         	slli	a0, a0, 0x5
80000d42: 40b505b3     	sub	a1, a0, a1

0000000080000d46 <.Lpcrel_hi14>:
80000d46: 00009517     	auipc	a0, 0x9
80000d4a: 45250513     	addi	a0, a0, 0x452
80000d4e: 95aa         	add	a1, a1, a0
80000d50: 4505         	li	a0, 0x1
80000d52: 00a58823     	sb	a0, 0x10(a1)
80000d56: 7562         	ld	a0, 0x38(sp)
80000d58: 458d         	li	a1, 0x3
80000d5a: 00b56b63     	bltu	a0, a1, 0x80000d70 <.Lpcrel_hi16>
80000d5e: a839         	j	0x80000d7c <.Lpcrel_hi16+0xc>

0000000080000d60 <.Lpcrel_hi15>:
80000d60: 00006517     	auipc	a0, 0x6
80000d64: 63850513     	addi	a0, a0, 0x638
80000d68: 00006097     	auipc	ra, 0x6
80000d6c: 9f0080e7     	jalr	-0x610(ra) <core::panicking::panic_null_pointer_dereference::hbac6411af4f2e916>

0000000080000d70 <.Lpcrel_hi16>:
80000d70: 00009517     	auipc	a0, 0x9
80000d74: 42850513     	addi	a0, a0, 0x428
80000d78: ed01         	bnez	a0, 0x80000d90 <.Lpcrel_hi17+0x12>
80000d7a: a82d         	j	0x80000db4 <.Lpcrel_hi19>
80000d7c: 7562         	ld	a0, 0x38(sp)

0000000080000d7e <.Lpcrel_hi17>:
80000d7e: 00006597     	auipc	a1, 0x6
80000d82: 63258613     	addi	a2, a1, 0x632
80000d86: 458d         	li	a1, 0x3
80000d88: 00006097     	auipc	ra, 0x6
80000d8c: 964080e7     	jalr	-0x69c(ra) <core::panicking::panic_bounds_check::h6aaee0d15e0261eb>
80000d90: 7542         	ld	a0, 0x30(sp)
80000d92: 75e2         	ld	a1, 0x38(sp)
80000d94: 00359613     	slli	a2, a1, 0x3
80000d98: 0596         	slli	a1, a1, 0x5
80000d9a: 40c58633     	sub	a2, a1, a2

0000000080000d9e <.Lpcrel_hi18>:
80000d9e: 00009597     	auipc	a1, 0x9
80000da2: 3fa58593     	addi	a1, a1, 0x3fa
80000da6: 95b2         	add	a1, a1, a2
80000da8: e188         	sd	a0, 0x0(a1)
80000daa: 7562         	ld	a0, 0x38(sp)
80000dac: 458d         	li	a1, 0x3
80000dae: 00b56b63     	bltu	a0, a1, 0x80000dc4 <.Lpcrel_hi20>
80000db2: a839         	j	0x80000dd0 <.Lpcrel_hi20+0xc>

0000000080000db4 <.Lpcrel_hi19>:
80000db4: 00006517     	auipc	a0, 0x6
80000db8: 5fc50513     	addi	a0, a0, 0x5fc
80000dbc: 00006097     	auipc	ra, 0x6
80000dc0: 99c080e7     	jalr	-0x664(ra) <core::panicking::panic_null_pointer_dereference::hbac6411af4f2e916>

0000000080000dc4 <.Lpcrel_hi20>:
80000dc4: 00009517     	auipc	a0, 0x9
80000dc8: 3d450513     	addi	a0, a0, 0x3d4
80000dcc: ed01         	bnez	a0, 0x80000de4 <.Lpcrel_hi21+0x12>
80000dce: a835         	j	0x80000e0a <.Lpcrel_hi23>
80000dd0: 7562         	ld	a0, 0x38(sp)

0000000080000dd2 <.Lpcrel_hi21>:
80000dd2: 00006597     	auipc	a1, 0x6
80000dd6: 5f658613     	addi	a2, a1, 0x5f6
80000dda: 458d         	li	a1, 0x3
80000ddc: 00006097     	auipc	ra, 0x6
80000de0: 910080e7     	jalr	-0x6f0(ra) <core::panicking::panic_bounds_check::h6aaee0d15e0261eb>
80000de4: 7562         	ld	a0, 0x38(sp)
80000de6: 00351593     	slli	a1, a0, 0x3
80000dea: 0516         	slli	a0, a0, 0x5
80000dec: 40b505b3     	sub	a1, a0, a1

0000000080000df0 <.Lpcrel_hi22>:
80000df0: 00009517     	auipc	a0, 0x9
80000df4: 3a850513     	addi	a0, a0, 0x3a8
80000df8: 95aa         	add	a1, a1, a0
80000dfa: 4501         	li	a0, 0x0
80000dfc: 00a588a3     	sb	a0, 0x11(a1)
80000e00: 7562         	ld	a0, 0x38(sp)
80000e02: 458d         	li	a1, 0x3
80000e04: 00b56b63     	bltu	a0, a1, 0x80000e1a <.Lpcrel_hi24>
80000e08: a839         	j	0x80000e26 <.Lpcrel_hi24+0xc>

0000000080000e0a <.Lpcrel_hi23>:
80000e0a: 00006517     	auipc	a0, 0x6
80000e0e: 5be50513     	addi	a0, a0, 0x5be
80000e12: 00006097     	auipc	ra, 0x6
80000e16: 946080e7     	jalr	-0x6ba(ra) <core::panicking::panic_null_pointer_dereference::hbac6411af4f2e916>

0000000080000e1a <.Lpcrel_hi24>:
80000e1a: 00009517     	auipc	a0, 0x9
80000e1e: 37e50513     	addi	a0, a0, 0x37e
80000e22: ed01         	bnez	a0, 0x80000e3a <.Lpcrel_hi25+0x12>
80000e24: a82d         	j	0x80000e5e <.Lpcrel_hi27>
80000e26: 7562         	ld	a0, 0x38(sp)

0000000080000e28 <.Lpcrel_hi25>:
80000e28: 00006597     	auipc	a1, 0x6
80000e2c: 5b858613     	addi	a2, a1, 0x5b8
80000e30: 458d         	li	a1, 0x3
80000e32: 00006097     	auipc	ra, 0x6
80000e36: 8ba080e7     	jalr	-0x746(ra) <core::panicking::panic_bounds_check::h6aaee0d15e0261eb>
80000e3a: 7542         	ld	a0, 0x30(sp)
80000e3c: 75e2         	ld	a1, 0x38(sp)
80000e3e: 00359613     	slli	a2, a1, 0x3
80000e42: 0596         	slli	a1, a1, 0x5
80000e44: 40c58633     	sub	a2, a1, a2

0000000080000e48 <.Lpcrel_hi26>:
80000e48: 00009597     	auipc	a1, 0x9
80000e4c: 35058593     	addi	a1, a1, 0x350
80000e50: 962e         	add	a2, a2, a1
80000e52: 65c6         	ld	a1, 0x50(sp)
80000e54: e60c         	sd	a1, 0x8(a2)
80000e56: 4589         	li	a1, 0x2
80000e58: 00b56b63     	bltu	a0, a1, 0x80000e6e <.Lpcrel_hi28>
80000e5c: a839         	j	0x80000e7a <.Lpcrel_hi28+0xc>

0000000080000e5e <.Lpcrel_hi27>:
80000e5e: 00006517     	auipc	a0, 0x6
80000e62: 58250513     	addi	a0, a0, 0x582
80000e66: 00006097     	auipc	ra, 0x6
80000e6a: 8f2080e7     	jalr	-0x70e(ra) <core::panicking::panic_null_pointer_dereference::hbac6411af4f2e916>

0000000080000e6e <.Lpcrel_hi28>:
80000e6e: 0000b517     	auipc	a0, 0xb
80000e72: 19250513     	addi	a0, a0, 0x192
80000e76: ed01         	bnez	a0, 0x80000e8e <.Lpcrel_hi29+0x12>
80000e78: a815         	j	0x80000eac <.Lpcrel_hi31>
80000e7a: 7542         	ld	a0, 0x30(sp)

0000000080000e7c <.Lpcrel_hi29>:
80000e7c: 00006597     	auipc	a1, 0x6
80000e80: 57c58613     	addi	a2, a1, 0x57c
80000e84: 4589         	li	a1, 0x2
80000e86: 00006097     	auipc	ra, 0x6
80000e8a: 866080e7     	jalr	-0x79a(ra) <core::panicking::panic_bounds_check::h6aaee0d15e0261eb>
80000e8e: 7542         	ld	a0, 0x30(sp)
80000e90: 00451613     	slli	a2, a0, 0x4

0000000080000e94 <.Lpcrel_hi30>:
80000e94: 0000b597     	auipc	a1, 0xb
80000e98: 16c58593     	addi	a1, a1, 0x16c
80000e9c: 962e         	add	a2, a2, a1
80000e9e: 4585         	li	a1, 0x1
80000ea0: 00b60423     	sb	a1, 0x8(a2)
80000ea4: 4589         	li	a1, 0x2
80000ea6: 00b56b63     	bltu	a0, a1, 0x80000ebc <.Lpcrel_hi32>
80000eaa: a839         	j	0x80000ec8 <.Lpcrel_hi32+0xc>

0000000080000eac <.Lpcrel_hi31>:
80000eac: 00006517     	auipc	a0, 0x6
80000eb0: 54c50513     	addi	a0, a0, 0x54c
80000eb4: 00006097     	auipc	ra, 0x6
80000eb8: 8a4080e7     	jalr	-0x75c(ra) <core::panicking::panic_null_pointer_dereference::hbac6411af4f2e916>

0000000080000ebc <.Lpcrel_hi32>:
80000ebc: 0000b517     	auipc	a0, 0xb
80000ec0: 14450513     	addi	a0, a0, 0x144
80000ec4: ed01         	bnez	a0, 0x80000edc <.Lpcrel_hi33+0x12>
80000ec6: a815         	j	0x80000efa <.Lpcrel_hi35>
80000ec8: 7542         	ld	a0, 0x30(sp)

0000000080000eca <.Lpcrel_hi33>:
80000eca: 00006597     	auipc	a1, 0x6
80000ece: 54658613     	addi	a2, a1, 0x546
80000ed2: 4589         	li	a1, 0x2
80000ed4: 00006097     	auipc	ra, 0x6
80000ed8: 818080e7     	jalr	-0x7e8(ra) <core::panicking::panic_bounds_check::h6aaee0d15e0261eb>
80000edc: 7542         	ld	a0, 0x30(sp)
80000ede: 00451593     	slli	a1, a0, 0x4

0000000080000ee2 <.Lpcrel_hi34>:
80000ee2: 0000b517     	auipc	a0, 0xb
80000ee6: 11e50513     	addi	a0, a0, 0x11e
80000eea: 95aa         	add	a1, a1, a0
80000eec: 7562         	ld	a0, 0x38(sp)
80000eee: e188         	sd	a0, 0x0(a1)
80000ef0: 6546         	ld	a0, 0x50(sp)
80000ef2: 4591         	li	a1, 0x4
80000ef4: 00b56b63     	bltu	a0, a1, 0x80000f0a <.Lpcrel_hi36>
80000ef8: a839         	j	0x80000f16 <.Lpcrel_hi36+0xc>

0000000080000efa <.Lpcrel_hi35>:
80000efa: 00006517     	auipc	a0, 0x6
80000efe: 51650513     	addi	a0, a0, 0x516
80000f02: 00006097     	auipc	ra, 0x6
80000f06: 856080e7     	jalr	-0x7aa(ra) <core::panicking::panic_null_pointer_dereference::hbac6411af4f2e916>

0000000080000f0a <.Lpcrel_hi36>:
80000f0a: 00009517     	auipc	a0, 0x9
80000f0e: 0f650513     	addi	a0, a0, 0xf6
80000f12: ed01         	bnez	a0, 0x80000f2a <.Lpcrel_hi37+0x12>
80000f14: a815         	j	0x80000f48 <.Lpcrel_hi40>
80000f16: 6546         	ld	a0, 0x50(sp)

0000000080000f18 <.Lpcrel_hi37>:
80000f18: 00006597     	auipc	a1, 0x6
80000f1c: 51058613     	addi	a2, a1, 0x510
80000f20: 4591         	li	a1, 0x4
80000f22: 00005097     	auipc	ra, 0x5
80000f26: 7ca080e7     	jalr	0x7ca(ra) <core::panicking::panic_bounds_check::h6aaee0d15e0261eb>
80000f2a: 65c6         	ld	a1, 0x50(sp)

0000000080000f2c <.Lpcrel_hi38>:
80000f2c: 00009517     	auipc	a0, 0x9
80000f30: 0d450513     	addi	a0, a0, 0xd4
80000f34: 95aa         	add	a1, a1, a0
80000f36: 4501         	li	a0, 0x0
80000f38: 00a58023     	sb	a0, 0x0(a1)

0000000080000f3c <.Lpcrel_hi39>:
80000f3c: 00009517     	auipc	a0, 0x9
80000f40: 0d450513     	addi	a0, a0, 0xd4
80000f44: e911         	bnez	a0, 0x80000f58 <.Lpcrel_hi41>
80000f46: a025         	j	0x80000f6e <.Lpcrel_hi42>

0000000080000f48 <.Lpcrel_hi40>:
80000f48: 00006517     	auipc	a0, 0x6
80000f4c: 4e050513     	addi	a0, a0, 0x4e0
80000f50: 00006097     	auipc	ra, 0x6
80000f54: 808080e7     	jalr	-0x7f8(ra) <core::panicking::panic_null_pointer_dereference::hbac6411af4f2e916>

0000000080000f58 <.Lpcrel_hi41>:
80000f58: 00009517     	auipc	a0, 0x9
80000f5c: 0b850513     	addi	a0, a0, 0xb8
80000f60: 750c         	ld	a1, 0x28(a0)
80000f62: 00158513     	addi	a0, a1, 0x1
80000f66: e82a         	sd	a0, 0x10(sp)
80000f68: 02b56163     	bltu	a0, a1, 0x80000f8a <.Lpcrel_hi44>
80000f6c: a809         	j	0x80000f7e <.Lpcrel_hi43>

0000000080000f6e <.Lpcrel_hi42>:
80000f6e: 00006517     	auipc	a0, 0x6
80000f72: 4d250513     	addi	a0, a0, 0x4d2
80000f76: 00005097     	auipc	ra, 0x5
80000f7a: 7e2080e7     	jalr	0x7e2(ra) <core::panicking::panic_null_pointer_dereference::hbac6411af4f2e916>

0000000080000f7e <.Lpcrel_hi43>:
80000f7e: 00009517     	auipc	a0, 0x9
80000f82: 09250513     	addi	a0, a0, 0x92
80000f86: e911         	bnez	a0, 0x80000f9a <.Lpcrel_hi44+0x10>
80000f88: a02d         	j	0x80000fb2 <.Lpcrel_hi47>

0000000080000f8a <.Lpcrel_hi44>:
80000f8a: 00006517     	auipc	a0, 0x6
80000f8e: 4b650513     	addi	a0, a0, 0x4b6
80000f92: 00005097     	auipc	ra, 0x5
80000f96: 6e2080e7     	jalr	0x6e2(ra) <core::panicking::panic_const::panic_const_add_overflow::h67cba067093910f8>
80000f9a: 6542         	ld	a0, 0x10(sp)

0000000080000f9c <.Lpcrel_hi45>:
80000f9c: 00009597     	auipc	a1, 0x9
80000fa0: 07458593     	addi	a1, a1, 0x74
80000fa4: f588         	sd	a0, 0x28(a1)

0000000080000fa6 <.Lpcrel_hi46>:
80000fa6: 00009517     	auipc	a0, 0x9
80000faa: 1ba50513     	addi	a0, a0, 0x1ba
80000fae: e911         	bnez	a0, 0x80000fc2 <.Lpcrel_hi47+0x10>
80000fb0: a00d         	j	0x80000fd2 <.Lpcrel_hi49>

0000000080000fb2 <.Lpcrel_hi47>:
80000fb2: 00006517     	auipc	a0, 0x6
80000fb6: 48e50513     	addi	a0, a0, 0x48e
80000fba: 00005097     	auipc	ra, 0x5
80000fbe: 79e080e7     	jalr	0x79e(ra) <core::panicking::panic_null_pointer_dereference::hbac6411af4f2e916>
80000fc2: 75e2         	ld	a1, 0x38(sp)

0000000080000fc4 <.Lpcrel_hi48>:
80000fc4: 00009517     	auipc	a0, 0x9
80000fc8: 19c50513     	addi	a0, a0, 0x19c
80000fcc: ed0c         	sd	a1, 0x18(a0)
80000fce: e911         	bnez	a0, 0x80000fe2 <.Lpcrel_hi49+0x10>
80000fd0: a00d         	j	0x80000ff2 <.Lpcrel_hi51>

0000000080000fd2 <.Lpcrel_hi49>:
80000fd2: 00006517     	auipc	a0, 0x6
80000fd6: 48650513     	addi	a0, a0, 0x486
80000fda: 00005097     	auipc	ra, 0x5
80000fde: 77e080e7     	jalr	0x77e(ra) <core::panicking::panic_null_pointer_dereference::hbac6411af4f2e916>
80000fe2: 65c6         	ld	a1, 0x50(sp)

0000000080000fe4 <.Lpcrel_hi50>:
80000fe4: 00009517     	auipc	a0, 0x9
80000fe8: 17c50513     	addi	a0, a0, 0x17c
80000fec: f10c         	sd	a1, 0x20(a0)
80000fee: e911         	bnez	a0, 0x80001002 <.Lpcrel_hi51+0x10>
80000ff0: aa85         	j	0x80001160 <.Lpcrel_hi56>

0000000080000ff2 <.Lpcrel_hi51>:
80000ff2: 00006517     	auipc	a0, 0x6
80000ff6: 47e50513     	addi	a0, a0, 0x47e
80000ffa: 00005097     	auipc	ra, 0x5
80000ffe: 75e080e7     	jalr	0x75e(ra) <core::panicking::panic_null_pointer_dereference::hbac6411af4f2e916>
80001002: 7522         	ld	a0, 0x28(sp)
80001004: 65e6         	ld	a1, 0x58(sp)

0000000080001006 <.Lpcrel_hi52>:
80001006: 00009617     	auipc	a2, 0x9
8000100a: 15a60613     	addi	a2, a2, 0x15a
8000100e: f60c         	sd	a1, 0x28(a2)
80001010: 65e6         	ld	a1, 0x58(sp)
80001012: 00003097     	auipc	ra, 0x3
80001016: f14080e7     	jalr	-0xec(ra) <lab4_kernel_task4::install_working_leaf::h532f51ca2030ade9>
8000101a: 7502         	ld	a0, 0x20(sp)
8000101c: 00000097     	auipc	ra, 0x0
80001020: 4ea080e7     	jalr	0x4ea(ra) <lab4_kernel_task4::fault_kind_name::hc3741031a5d91f6b>
80001024: 862a         	mv	a2, a0
80001026: 6562         	ld	a0, 0x18(sp)
80001028: ed32         	sd	a2, 0x98(sp)
8000102a: f12e         	sd	a1, 0xa0(sp)
8000102c: 03850513     	addi	a0, a0, 0x38
80001030: 092c         	addi	a1, sp, 0x98
80001032: f0ae         	sd	a1, 0x60(sp)
80001034: 008c         	addi	a1, sp, 0x40
80001036: f4ae         	sd	a1, 0x68(sp)
80001038: 00ac         	addi	a1, sp, 0x48
8000103a: f8ae         	sd	a1, 0x70(sp)
8000103c: 182c         	addi	a1, sp, 0x38
8000103e: fcae         	sd	a1, 0x78(sp)
80001040: 088c         	addi	a1, sp, 0x50
80001042: e12e         	sd	a1, 0x80(sp)
80001044: 08ac         	addi	a1, sp, 0x58
80001046: e52e         	sd	a1, 0x88(sp)
80001048: e92a         	sd	a0, 0x90(sp)
8000104a: 7586         	ld	a1, 0x60(sp)
8000104c: 0a28         	addi	a0, sp, 0x118
8000104e: fffff097     	auipc	ra, 0xfffff
80001052: 2ba080e7     	jalr	0x2ba(ra) <core::fmt::rt::Argument::new_display::hec1511a75900333e>
80001056: 75a6         	ld	a1, 0x68(sp)
80001058: 1228         	addi	a0, sp, 0x128
8000105a: fffff097     	auipc	ra, 0xfffff
8000105e: 2d0080e7     	jalr	0x2d0(ra) <core::fmt::rt::Argument::new_lower_hex::h2c3e51038c7990f0>
80001062: 75c6         	ld	a1, 0x70(sp)
80001064: 1a28         	addi	a0, sp, 0x138
80001066: fffff097     	auipc	ra, 0xfffff
8000106a: 2c4080e7     	jalr	0x2c4(ra) <core::fmt::rt::Argument::new_lower_hex::h2c3e51038c7990f0>
8000106e: 75e6         	ld	a1, 0x78(sp)
80001070: 02a8         	addi	a0, sp, 0x148
80001072: fffff097     	auipc	ra, 0xfffff
80001076: 230080e7     	jalr	0x230(ra) <core::fmt::rt::Argument::new_display::h72b9aae62486e176>
8000107a: 658a         	ld	a1, 0x80(sp)
8000107c: 0aa8         	addi	a0, sp, 0x158
8000107e: fffff097     	auipc	ra, 0xfffff
80001082: 224080e7     	jalr	0x224(ra) <core::fmt::rt::Argument::new_display::h72b9aae62486e176>
80001086: 65aa         	ld	a1, 0x88(sp)
80001088: 12a8         	addi	a0, sp, 0x168
8000108a: fffff097     	auipc	ra, 0xfffff
8000108e: 2a0080e7     	jalr	0x2a0(ra) <core::fmt::rt::Argument::new_lower_hex::h2c3e51038c7990f0>
80001092: 65ca         	ld	a1, 0x90(sp)
80001094: 1aa8         	addi	a0, sp, 0x178
80001096: fffff097     	auipc	ra, 0xfffff
8000109a: 294080e7     	jalr	0x294(ra) <core::fmt::rt::Argument::new_lower_hex::h2c3e51038c7990f0>
8000109e: 7512         	ld	a0, 0x120(sp)
800010a0: f92a         	sd	a0, 0xb0(sp)
800010a2: 6572         	ld	a0, 0x118(sp)
800010a4: f52a         	sd	a0, 0xa8(sp)
800010a6: 7552         	ld	a0, 0x130(sp)
800010a8: e1aa         	sd	a0, 0xc0(sp)
800010aa: 7532         	ld	a0, 0x128(sp)
800010ac: fd2a         	sd	a0, 0xb8(sp)
800010ae: 6516         	ld	a0, 0x140(sp)
800010b0: e9aa         	sd	a0, 0xd0(sp)
800010b2: 7572         	ld	a0, 0x138(sp)
800010b4: e5aa         	sd	a0, 0xc8(sp)
800010b6: 6556         	ld	a0, 0x150(sp)
800010b8: f1aa         	sd	a0, 0xe0(sp)
800010ba: 6536         	ld	a0, 0x148(sp)
800010bc: edaa         	sd	a0, 0xd8(sp)
800010be: 7516         	ld	a0, 0x160(sp)
800010c0: f9aa         	sd	a0, 0xf0(sp)
800010c2: 6576         	ld	a0, 0x158(sp)
800010c4: f5aa         	sd	a0, 0xe8(sp)
800010c6: 7556         	ld	a0, 0x170(sp)
800010c8: e22a         	sd	a0, 0x100(sp)
800010ca: 7536         	ld	a0, 0x168(sp)
800010cc: fdaa         	sd	a0, 0xf8(sp)
800010ce: 651a         	ld	a0, 0x180(sp)
800010d0: ea2a         	sd	a0, 0x110(sp)
800010d2: 7576         	ld	a0, 0x178(sp)
800010d4: e62a         	sd	a0, 0x108(sp)

00000000800010d6 <.Lpcrel_hi53>:
800010d6: 00006517     	auipc	a0, 0x6
800010da: 3ca50513     	addi	a0, a0, 0x3ca
800010de: 112c         	addi	a1, sp, 0xa8
800010e0: fffff097     	auipc	ra, 0xfffff
800010e4: 078080e7     	jalr	0x78(ra) <core::fmt::Arguments::new::h2a477856c42242d9>
800010e8: 00004097     	auipc	ra, 0x4
800010ec: f92080e7     	jalr	-0x6e(ra) <lab4_kernel_task4::console::print::h39762270f09f95ac>
800010f0: 6562         	ld	a0, 0x18(sp)
800010f2: 7622         	ld	a2, 0x28(sp)
800010f4: 7d0c         	ld	a1, 0x38(a0)
800010f6: 22b13023     	sd	a1, 0x220(sp)
800010fa: 790c         	ld	a1, 0x30(a0)
800010fc: 20b13c23     	sd	a1, 0x218(sp)
80001100: 750c         	ld	a1, 0x28(a0)
80001102: 20b13823     	sd	a1, 0x210(sp)
80001106: 710c         	ld	a1, 0x20(a0)
80001108: 20b13423     	sd	a1, 0x208(sp)
8000110c: 6d0c         	ld	a1, 0x18(a0)
8000110e: 20b13023     	sd	a1, 0x200(sp)
80001112: 690c         	ld	a1, 0x10(a0)
80001114: ffae         	sd	a1, 0x1f8(sp)
80001116: 650c         	ld	a1, 0x8(a0)
80001118: fbae         	sd	a1, 0x1f0(sp)
8000111a: 6108         	ld	a0, 0x0(a0)
8000111c: f7aa         	sd	a0, 0x1e8(sp)

000000008000111e <.Lpcrel_hi54>:
8000111e: 00006517     	auipc	a0, 0x6
80001122: 3ef50513     	addi	a0, a0, 0x3ef
80001126: 45ad         	li	a1, 0xb
80001128: 13b4         	addi	a3, sp, 0x1e8
8000112a: 00001097     	auipc	ra, 0x1
8000112e: 6cc080e7     	jalr	0x6cc(ra) <lab4_kernel_task4::print_walk_result::h9cc97ee2208d475e>
80001132: 75a2         	ld	a1, 0x28(sp)
80001134: 0328         	addi	a0, sp, 0x188
80001136: e42a         	sd	a0, 0x8(sp)
80001138: 00000097     	auipc	ra, 0x0
8000113c: 090080e7     	jalr	0x90(ra) <lab4_kernel_task4::walk_virtual::hb3c91b13438fe028>
80001140: 7622         	ld	a2, 0x28(sp)
80001142: 66a2         	ld	a3, 0x8(sp)

0000000080001144 <.Lpcrel_hi55>:
80001144: 00006517     	auipc	a0, 0x6
80001148: 3d450513     	addi	a0, a0, 0x3d4
8000114c: 45a9         	li	a1, 0xa
8000114e: fffff097     	auipc	ra, 0xfffff
80001152: 5ee080e7     	jalr	0x5ee(ra) <lab4_kernel_task4::print_walk::h17f3ac5b095b2942>
80001156: 22813083     	ld	ra, 0x228(sp)
8000115a: 23010113     	addi	sp, sp, 0x230
8000115e: 8082         	ret

0000000080001160 <.Lpcrel_hi56>:
80001160: 00006517     	auipc	a0, 0x6
80001164: 32850513     	addi	a0, a0, 0x328
80001168: 00005097     	auipc	ra, 0x5
8000116c: 5f0080e7     	jalr	0x5f0(ra) <core::panicking::panic_null_pointer_dereference::hbac6411af4f2e916>

0000000080001170 <lab4_kernel_task4::swap_slot_pa::hf1be1055ea3d9f9a>:
80001170: 7179         	addi	sp, sp, -0x30
80001172: f406         	sd	ra, 0x28(sp)
80001174: e42a         	sd	a0, 0x8(sp)
80001176: f02a         	sd	a0, 0x20(sp)
80001178: 00000097     	auipc	ra, 0x0
8000117c: b38080e7     	jalr	-0x4c8(ra) <lab4_kernel_task4::swap_area_pa::hf10dd411c1a3b358>
80001180: 65a2         	ld	a1, 0x8(sp)
80001182: e82a         	sd	a0, 0x10(sp)
80001184: 00c59513     	slli	a0, a1, 0xc
80001188: ec2a         	sd	a0, 0x18(sp)
8000118a: 8131         	srli	a0, a0, 0xc
8000118c: 00b51a63     	bne	a0, a1, 0x800011a0 <.Lpcrel_hi57>
80001190: a009         	j	0x80001192 <lab4_kernel_task4::swap_slot_pa::hf1be1055ea3d9f9a+0x22>
80001192: 65c2         	ld	a1, 0x10(sp)
80001194: 6562         	ld	a0, 0x18(sp)
80001196: 952e         	add	a0, a0, a1
80001198: e02a         	sd	a0, 0x0(sp)
8000119a: 00b56f63     	bltu	a0, a1, 0x800011b8 <.Lpcrel_hi58>
8000119e: a809         	j	0x800011b0 <.Lpcrel_hi57+0x10>

00000000800011a0 <.Lpcrel_hi57>:
800011a0: 00006517     	auipc	a0, 0x6
800011a4: 38850513     	addi	a0, a0, 0x388
800011a8: 00005097     	auipc	ra, 0x5
800011ac: 4ea080e7     	jalr	0x4ea(ra) <core::panicking::panic_const::panic_const_mul_overflow::h67897feae7531d51>
800011b0: 6502         	ld	a0, 0x0(sp)
800011b2: 70a2         	ld	ra, 0x28(sp)
800011b4: 6145         	addi	sp, sp, 0x30
800011b6: 8082         	ret

00000000800011b8 <.Lpcrel_hi58>:
800011b8: 00006517     	auipc	a0, 0x6
800011bc: 38850513     	addi	a0, a0, 0x388
800011c0: 00005097     	auipc	ra, 0x5
800011c4: 4b4080e7     	jalr	0x4b4(ra) <core::panicking::panic_const::panic_const_add_overflow::h67cba067093910f8>

00000000800011c8 <lab4_kernel_task4::walk_virtual::hb3c91b13438fe028>:
800011c8: 7171         	addi	sp, sp, -0xb0
800011ca: f506         	sd	ra, 0xa8(sp)
800011cc: fc2e         	sd	a1, 0x38(sp)
800011ce: f82a         	sd	a0, 0x30(sp)
800011d0: e52e         	sd	a1, 0x88(sp)
800011d2: 00a8         	addi	a0, sp, 0x48
800011d4: fffff097     	auipc	ra, 0xfffff
800011d8: 520080e7     	jalr	0x520(ra) <lab4_kernel_task4::WalkResult::zeroed::hce6b2e1096557dc2>
800011dc: 7562         	ld	a0, 0x38(sp)

00000000800011de <.Lpcrel_hi59>:
800011de: 0000c597     	auipc	a1, 0xc
800011e2: e2258593     	addi	a1, a1, -0x1de
800011e6: e92e         	sd	a1, 0x90(sp)
800011e8: 00000097     	auipc	ra, 0x0
800011ec: 9ce080e7     	jalr	-0x632(ra) <lab4_kernel_task4::vpn2_index::hc51a456bbebc8b25>
800011f0: 85aa         	mv	a1, a0
800011f2: 7562         	ld	a0, 0x38(sp)
800011f4: e4ae         	sd	a1, 0x48(sp)
800011f6: 00000097     	auipc	ra, 0x0
800011fa: 9b4080e7     	jalr	-0x64c(ra) <lab4_kernel_task4::vpn1_index::h5d72917a9159dda6>
800011fe: 85aa         	mv	a1, a0
80001200: 7562         	ld	a0, 0x38(sp)
80001202: e8ae         	sd	a1, 0x50(sp)
80001204: 00000097     	auipc	ra, 0x0
80001208: 99a080e7     	jalr	-0x666(ra) <lab4_kernel_task4::vpn0_index::h62e57f18e5f43d5f>
8000120c: ecaa         	sd	a0, 0x58(sp)
8000120e: 65a6         	ld	a1, 0x48(sp)
80001210: e0ae         	sd	a1, 0x40(sp)
80001212: 1ff00513     	li	a0, 0x1ff
80001216: 00b56a63     	bltu	a0, a1, 0x8000122a <.Lpcrel_hi60+0xe>
8000121a: a009         	j	0x8000121c <.Lpcrel_hi60>

000000008000121c <.Lpcrel_hi60>:
8000121c: 0000c517     	auipc	a0, 0xc
80001220: de450513     	addi	a0, a0, -0x21c
80001224: 1552         	slli	a0, a0, 0x34
80001226: cd09         	beqz	a0, 0x80001240 <.Lpcrel_hi62>
80001228: a015         	j	0x8000124c <.Lpcrel_hi63>
8000122a: 6506         	ld	a0, 0x40(sp)

000000008000122c <.Lpcrel_hi61>:
8000122c: 00006597     	auipc	a1, 0x6
80001230: 32c58613     	addi	a2, a1, 0x32c
80001234: 20000593     	li	a1, 0x200
80001238: 00005097     	auipc	ra, 0x5
8000123c: 4b4080e7     	jalr	0x4b4(ra) <core::panicking::panic_bounds_check::h6aaee0d15e0261eb>

0000000080001240 <.Lpcrel_hi62>:
80001240: 0000c517     	auipc	a0, 0xc
80001244: dc050513     	addi	a0, a0, -0x240
80001248: ed19         	bnez	a0, 0x80001266 <.Lpcrel_hi64+0x12>
8000124a: a83d         	j	0x80001288 <.Lpcrel_hi66>

000000008000124c <.Lpcrel_hi63>:
8000124c: 0000c517     	auipc	a0, 0xc
80001250: db450593     	addi	a1, a0, -0x24c

0000000080001254 <.Lpcrel_hi64>:
80001254: 00006517     	auipc	a0, 0x6
80001258: 30450613     	addi	a2, a0, 0x304
8000125c: 6505         	lui	a0, 0x1
8000125e: 00005097     	auipc	ra, 0x5
80001262: 51a080e7     	jalr	0x51a(ra) <core::panicking::panic_misaligned_pointer_dereference::hda85f7fb51d959f0>
80001266: 6506         	ld	a0, 0x40(sp)
80001268: 00351593     	slli	a1, a0, 0x3

000000008000126c <.Lpcrel_hi65>:
8000126c: 0000c517     	auipc	a0, 0xc
80001270: d9450513     	addi	a0, a0, -0x26c
80001274: 952e         	add	a0, a0, a1
80001276: 6108         	ld	a0, 0x0(a0)
80001278: f0aa         	sd	a0, 0x60(sp)
8000127a: 7506         	ld	a0, 0x60(sp)
8000127c: 00000097     	auipc	ra, 0x0
80001280: a2a080e7     	jalr	-0x5d6(ra) <lab4_kernel_task4::pte_is_valid::h6bf9a14b87e3b7e3>
80001284: e121         	bnez	a0, 0x800012c4 <.Lpcrel_hi66+0x3c>
80001286: a809         	j	0x80001298 <.Lpcrel_hi66+0x10>

0000000080001288 <.Lpcrel_hi66>:
80001288: 00006517     	auipc	a0, 0x6
8000128c: 2d050513     	addi	a0, a0, 0x2d0
80001290: 00005097     	auipc	ra, 0x5
80001294: 4c8080e7     	jalr	0x4c8(ra) <core::panicking::panic_null_pointer_dereference::hbac6411af4f2e916>
80001298: 75c2         	ld	a1, 0x30(sp)
8000129a: 4509         	li	a0, 0x2
8000129c: fcaa         	sd	a0, 0x78(sp)
8000129e: 7506         	ld	a0, 0x60(sp)
800012a0: e12a         	sd	a0, 0x80(sp)
800012a2: 650a         	ld	a0, 0x80(sp)
800012a4: fd88         	sd	a0, 0x38(a1)
800012a6: 7566         	ld	a0, 0x78(sp)
800012a8: f988         	sd	a0, 0x30(a1)
800012aa: 7546         	ld	a0, 0x70(sp)
800012ac: f588         	sd	a0, 0x28(a1)
800012ae: 7526         	ld	a0, 0x68(sp)
800012b0: f188         	sd	a0, 0x20(a1)
800012b2: 7506         	ld	a0, 0x60(sp)
800012b4: ed88         	sd	a0, 0x18(a1)
800012b6: 6566         	ld	a0, 0x58(sp)
800012b8: e988         	sd	a0, 0x10(a1)
800012ba: 6546         	ld	a0, 0x50(sp)
800012bc: e588         	sd	a0, 0x8(a1)
800012be: 6526         	ld	a0, 0x48(sp)
800012c0: e188         	sd	a0, 0x0(a1)
800012c2: aa85         	j	0x80001432 <.Lpcrel_hi72+0x14>
800012c4: 7506         	ld	a0, 0x60(sp)
800012c6: 00000097     	auipc	ra, 0x0
800012ca: 950080e7     	jalr	-0x6b0(ra) <lab4_kernel_task4::pte_is_leaf::he68901af7ab7afed>
800012ce: f569         	bnez	a0, 0x80001298 <.Lpcrel_hi66+0x10>
800012d0: a009         	j	0x800012d2 <.Lpcrel_hi66+0x4a>
800012d2: 7506         	ld	a0, 0x60(sp)
800012d4: 00003097     	auipc	ra, 0x3
800012d8: 27c080e7     	jalr	0x27c(ra) <lab4_kernel_task4::pte_to_pa::h26e801c57e36545f>
800012dc: 85aa         	mv	a1, a0
800012de: f02e         	sd	a1, 0x20(sp)
800012e0: 85aa         	mv	a1, a0
800012e2: f42e         	sd	a1, 0x28(sp)
800012e4: 1552         	slli	a0, a0, 0x34
800012e6: e509         	bnez	a0, 0x800012f0 <.Lpcrel_hi66+0x68>
800012e8: a009         	j	0x800012ea <.Lpcrel_hi66+0x62>
800012ea: 7502         	ld	a0, 0x20(sp)
800012ec: ed01         	bnez	a0, 0x80001304 <.Lpcrel_hi67+0x12>
800012ee: a025         	j	0x80001316 <.Lpcrel_hi68>
800012f0: 75a2         	ld	a1, 0x28(sp)

00000000800012f2 <.Lpcrel_hi67>:
800012f2: 00006517     	auipc	a0, 0x6
800012f6: 27e50613     	addi	a2, a0, 0x27e
800012fa: 6505         	lui	a0, 0x1
800012fc: 00005097     	auipc	ra, 0x5
80001300: 47c080e7     	jalr	0x47c(ra) <core::panicking::panic_misaligned_pointer_dereference::hda85f7fb51d959f0>
80001304: 7502         	ld	a0, 0x20(sp)
80001306: ed2a         	sd	a0, 0x98(sp)
80001308: 6546         	ld	a0, 0x50(sp)
8000130a: ec2a         	sd	a0, 0x18(sp)
8000130c: 20000593     	li	a1, 0x200
80001310: 00b56b63     	bltu	a0, a1, 0x80001326 <.Lpcrel_hi68+0x10>
80001314: a035         	j	0x80001340 <.Lpcrel_hi68+0x2a>

0000000080001316 <.Lpcrel_hi68>:
80001316: 00006517     	auipc	a0, 0x6
8000131a: 25a50513     	addi	a0, a0, 0x25a
8000131e: 00005097     	auipc	ra, 0x5
80001322: 43a080e7     	jalr	0x43a(ra) <core::panicking::panic_null_pointer_dereference::hbac6411af4f2e916>
80001326: 7502         	ld	a0, 0x20(sp)
80001328: 65e2         	ld	a1, 0x18(sp)
8000132a: 058e         	slli	a1, a1, 0x3
8000132c: 952e         	add	a0, a0, a1
8000132e: 6108         	ld	a0, 0x0(a0)
80001330: f4aa         	sd	a0, 0x68(sp)
80001332: 7526         	ld	a0, 0x68(sp)
80001334: 00000097     	auipc	ra, 0x0
80001338: 972080e7     	jalr	-0x68e(ra) <lab4_kernel_task4::pte_is_valid::h6bf9a14b87e3b7e3>
8000133c: e139         	bnez	a0, 0x80001382 <.Lpcrel_hi69+0x40>
8000133e: a821         	j	0x80001356 <.Lpcrel_hi69+0x14>
80001340: 6562         	ld	a0, 0x18(sp)

0000000080001342 <.Lpcrel_hi69>:
80001342: 00006597     	auipc	a1, 0x6
80001346: 24658613     	addi	a2, a1, 0x246
8000134a: 20000593     	li	a1, 0x200
8000134e: 00005097     	auipc	ra, 0x5
80001352: 39e080e7     	jalr	0x39e(ra) <core::panicking::panic_bounds_check::h6aaee0d15e0261eb>
80001356: 75c2         	ld	a1, 0x30(sp)
80001358: 4505         	li	a0, 0x1
8000135a: fcaa         	sd	a0, 0x78(sp)
8000135c: 7526         	ld	a0, 0x68(sp)
8000135e: e12a         	sd	a0, 0x80(sp)
80001360: 650a         	ld	a0, 0x80(sp)
80001362: fd88         	sd	a0, 0x38(a1)
80001364: 7566         	ld	a0, 0x78(sp)
80001366: f988         	sd	a0, 0x30(a1)
80001368: 7546         	ld	a0, 0x70(sp)
8000136a: f588         	sd	a0, 0x28(a1)
8000136c: 7526         	ld	a0, 0x68(sp)
8000136e: f188         	sd	a0, 0x20(a1)
80001370: 7506         	ld	a0, 0x60(sp)
80001372: ed88         	sd	a0, 0x18(a1)
80001374: 6566         	ld	a0, 0x58(sp)
80001376: e988         	sd	a0, 0x10(a1)
80001378: 6546         	ld	a0, 0x50(sp)
8000137a: e588         	sd	a0, 0x8(a1)
8000137c: 6526         	ld	a0, 0x48(sp)
8000137e: e188         	sd	a0, 0x0(a1)
80001380: a84d         	j	0x80001432 <.Lpcrel_hi72+0x14>
80001382: 7526         	ld	a0, 0x68(sp)
80001384: 00000097     	auipc	ra, 0x0
80001388: 892080e7     	jalr	-0x76e(ra) <lab4_kernel_task4::pte_is_leaf::he68901af7ab7afed>
8000138c: f569         	bnez	a0, 0x80001356 <.Lpcrel_hi69+0x14>
8000138e: a009         	j	0x80001390 <.Lpcrel_hi69+0x4e>
80001390: 7526         	ld	a0, 0x68(sp)
80001392: 00003097     	auipc	ra, 0x3
80001396: 1be080e7     	jalr	0x1be(ra) <lab4_kernel_task4::pte_to_pa::h26e801c57e36545f>
8000139a: 85aa         	mv	a1, a0
8000139c: e42e         	sd	a1, 0x8(sp)
8000139e: 85aa         	mv	a1, a0
800013a0: e82e         	sd	a1, 0x10(sp)
800013a2: 1552         	slli	a0, a0, 0x34
800013a4: e509         	bnez	a0, 0x800013ae <.Lpcrel_hi69+0x6c>
800013a6: a009         	j	0x800013a8 <.Lpcrel_hi69+0x66>
800013a8: 6522         	ld	a0, 0x8(sp)
800013aa: ed01         	bnez	a0, 0x800013c2 <.Lpcrel_hi70+0x12>
800013ac: a025         	j	0x800013d4 <.Lpcrel_hi71>
800013ae: 65c2         	ld	a1, 0x10(sp)

00000000800013b0 <.Lpcrel_hi70>:
800013b0: 00006517     	auipc	a0, 0x6
800013b4: 1f050613     	addi	a2, a0, 0x1f0
800013b8: 6505         	lui	a0, 0x1
800013ba: 00005097     	auipc	ra, 0x5
800013be: 3be080e7     	jalr	0x3be(ra) <core::panicking::panic_misaligned_pointer_dereference::hda85f7fb51d959f0>
800013c2: 6522         	ld	a0, 0x8(sp)
800013c4: f12a         	sd	a0, 0xa0(sp)
800013c6: 6566         	ld	a0, 0x58(sp)
800013c8: e02a         	sd	a0, 0x0(sp)
800013ca: 20000593     	li	a1, 0x200
800013ce: 00b56b63     	bltu	a0, a1, 0x800013e4 <.Lpcrel_hi71+0x10>
800013d2: a0a9         	j	0x8000141c <.Lpcrel_hi71+0x48>

00000000800013d4 <.Lpcrel_hi71>:
800013d4: 00006517     	auipc	a0, 0x6
800013d8: 1cc50513     	addi	a0, a0, 0x1cc
800013dc: 00005097     	auipc	ra, 0x5
800013e0: 37c080e7     	jalr	0x37c(ra) <core::panicking::panic_null_pointer_dereference::hbac6411af4f2e916>
800013e4: 75c2         	ld	a1, 0x30(sp)
800013e6: 6522         	ld	a0, 0x8(sp)
800013e8: 6602         	ld	a2, 0x0(sp)
800013ea: 060e         	slli	a2, a2, 0x3
800013ec: 9532         	add	a0, a0, a2
800013ee: 6108         	ld	a0, 0x0(a0)
800013f0: f8aa         	sd	a0, 0x70(sp)
800013f2: 4501         	li	a0, 0x0
800013f4: fcaa         	sd	a0, 0x78(sp)
800013f6: 7546         	ld	a0, 0x70(sp)
800013f8: e12a         	sd	a0, 0x80(sp)
800013fa: 650a         	ld	a0, 0x80(sp)
800013fc: fd88         	sd	a0, 0x38(a1)
800013fe: 7566         	ld	a0, 0x78(sp)
80001400: f988         	sd	a0, 0x30(a1)
80001402: 7546         	ld	a0, 0x70(sp)
80001404: f588         	sd	a0, 0x28(a1)
80001406: 7526         	ld	a0, 0x68(sp)
80001408: f188         	sd	a0, 0x20(a1)
8000140a: 7506         	ld	a0, 0x60(sp)
8000140c: ed88         	sd	a0, 0x18(a1)
8000140e: 6566         	ld	a0, 0x58(sp)
80001410: e988         	sd	a0, 0x10(a1)
80001412: 6546         	ld	a0, 0x50(sp)
80001414: e588         	sd	a0, 0x8(a1)
80001416: 6526         	ld	a0, 0x48(sp)
80001418: e188         	sd	a0, 0x0(a1)
8000141a: a821         	j	0x80001432 <.Lpcrel_hi72+0x14>
8000141c: 6502         	ld	a0, 0x0(sp)

000000008000141e <.Lpcrel_hi72>:
8000141e: 00006597     	auipc	a1, 0x6
80001422: 19a58613     	addi	a2, a1, 0x19a
80001426: 20000593     	li	a1, 0x200
8000142a: 00005097     	auipc	ra, 0x5
8000142e: 2c2080e7     	jalr	0x2c2(ra) <core::panicking::panic_bounds_check::h6aaee0d15e0261eb>
80001432: 70aa         	ld	ra, 0xa8(sp)
80001434: 614d         	addi	sp, sp, 0xb0
80001436: 8082         	ret

0000000080001438 <lab4_kernel_task4::ResidentFrame::empty::h79af1f1e2c9bda05>:
80001438: 4581         	li	a1, 0x0
8000143a: 852e         	mv	a0, a1
8000143c: 8082         	ret

000000008000143e <lab4_kernel_task4::configure_pmp::h20fbf768d46432c7>:
8000143e: 557d         	li	a0, -0x1
80001440: 8109         	srli	a0, a0, 0x2
80001442: 3b051073     	csrw	pmpaddr0, a0
80001446: 457d         	li	a0, 0x1f
80001448: 3a051073     	csrw	pmpcfg0, a0
8000144c: 8082         	ret

000000008000144e <lab4_kernel_task4::pte_has_write::h10d830e29ead5b50>:
8000144e: 1141         	addi	sp, sp, -0x10
80001450: e42a         	sd	a0, 0x8(sp)
80001452: 1576         	slli	a0, a0, 0x3d
80001454: 917d         	srli	a0, a0, 0x3f
80001456: 0141         	addi	sp, sp, 0x10
80001458: 8082         	ret

000000008000145a <lab4_kernel_task4::pte_is_swapped::h2f15221e95824ae5>:
8000145a: 1101         	addi	sp, sp, -0x20
8000145c: e42a         	sd	a0, 0x8(sp)
8000145e: ec2a         	sd	a0, 0x18(sp)
80001460: 8905         	andi	a0, a0, 0x1
80001462: c511         	beqz	a0, 0x8000146e <lab4_kernel_task4::pte_is_swapped::h2f15221e95824ae5+0x14>
80001464: a009         	j	0x80001466 <lab4_kernel_task4::pte_is_swapped::h2f15221e95824ae5+0xc>
80001466: 4501         	li	a0, 0x0
80001468: 00a10ba3     	sb	a0, 0x17(sp)
8000146c: a039         	j	0x8000147a <lab4_kernel_task4::pte_is_swapped::h2f15221e95824ae5+0x20>
8000146e: 6522         	ld	a0, 0x8(sp)
80001470: 155e         	slli	a0, a0, 0x37
80001472: 917d         	srli	a0, a0, 0x3f
80001474: 00a10ba3     	sb	a0, 0x17(sp)
80001478: a009         	j	0x8000147a <lab4_kernel_task4::pte_is_swapped::h2f15221e95824ae5+0x20>
8000147a: 01714503     	lbu	a0, 0x17(sp)
8000147e: 6105         	addi	sp, sp, 0x20
80001480: 8082         	ret

0000000080001482 <lab4_kernel_task4::zero_swap_area::h7e737366df9099b5>:
80001482: 711d         	addi	sp, sp, -0x60
80001484: ec86         	sd	ra, 0x58(sp)
80001486: ec2a         	sd	a0, 0x18(sp)
80001488: f02a         	sd	a0, 0x20(sp)
8000148a: c911         	beqz	a0, 0x8000149e <.Lpcrel_hi73>
8000148c: a009         	j	0x8000148e <lab4_kernel_task4::zero_swap_area::h7e737366df9099b5+0xc>
8000148e: 6562         	ld	a0, 0x18(sp)
80001490: e4aa         	sd	a0, 0x48(sp)
80001492: 6511         	lui	a0, 0x4
80001494: e82a         	sd	a0, 0x10(sp)
80001496: e8aa         	sd	a0, 0x50(sp)
80001498: 4501         	li	a0, 0x0
8000149a: e929         	bnez	a0, 0x800014ec <.Lpcrel_hi75>
8000149c: a809         	j	0x800014ae <.Lpcrel_hi73+0x10>

000000008000149e <.Lpcrel_hi73>:
8000149e: 00006517     	auipc	a0, 0x6
800014a2: 13250513     	addi	a0, a0, 0x132
800014a6: 00005097     	auipc	ra, 0x5
800014aa: 2b2080e7     	jalr	0x2b2(ra) <core::panicking::panic_null_pointer_dereference::hbac6411af4f2e916>
800014ae: 6642         	ld	a2, 0x10(sp)
800014b0: 6562         	ld	a0, 0x18(sp)
800014b2: f82a         	sd	a0, 0x30(sp)
800014b4: 4581         	li	a1, 0x0
800014b6: e42e         	sd	a1, 0x8(sp)
800014b8: 02b10fa3     	sb	a1, 0x3f(sp)
800014bc: e0b2         	sd	a2, 0x40(sp)
800014be: 02b107a3     	sb	a1, 0x2f(sp)
800014c2: 02f14603     	lbu	a2, 0x2f(sp)

00000000800014c6 <.Lpcrel_hi74>:
800014c6: 00007597     	auipc	a1, 0x7
800014ca: 01a58693     	addi	a3, a1, 0x1a
800014ce: 4585         	li	a1, 0x1
800014d0: 00004097     	auipc	ra, 0x4
800014d4: 0bc080e7     	jalr	0xbc(ra) <core::ptr::write_bytes::precondition_check::h92dea8b33c0faf74>
800014d8: 6562         	ld	a0, 0x18(sp)
800014da: 65a2         	ld	a1, 0x8(sp)
800014dc: 6642         	ld	a2, 0x10(sp)
800014de: 00005097     	auipc	ra, 0x5
800014e2: 3ce080e7     	jalr	0x3ce(ra) <memset>
800014e6: 60e6         	ld	ra, 0x58(sp)
800014e8: 6125         	addi	sp, sp, 0x60
800014ea: 8082         	ret

00000000800014ec <.Lpcrel_hi75>:
800014ec: 00006517     	auipc	a0, 0x6
800014f0: 0fc50513     	addi	a0, a0, 0xfc
800014f4: 00005097     	auipc	ra, 0x5
800014f8: 19e080e7     	jalr	0x19e(ra) <core::panicking::panic_const::panic_const_mul_overflow::h67897feae7531d51>

00000000800014fc <lab4_kernel_task4::dev_l0_table_pa::h208a9438776e19b4>:
800014fc: 0000f517     	auipc	a0, 0xf
80001500: b0450513     	addi	a0, a0, -0x4fc
80001504: 8082         	ret

0000000080001506 <lab4_kernel_task4::fault_kind_name::hc3741031a5d91f6b>:
80001506: 1101         	addi	sp, sp, -0x20
80001508: e02a         	sd	a0, 0x0(sp)
8000150a: ec2a         	sd	a0, 0x18(sp)
8000150c: 45b5         	li	a1, 0xd
8000150e: 02b50063     	beq	a0, a1, 0x8000152e <.Lpcrel_hi78>
80001512: a009         	j	0x80001514 <lab4_kernel_task4::fault_kind_name::hc3741031a5d91f6b+0xe>
80001514: 6502         	ld	a0, 0x0(sp)
80001516: 45bd         	li	a1, 0xf
80001518: 02b50363     	beq	a0, a1, 0x8000153e <.Lpcrel_hi79>
8000151c: a009         	j	0x8000151e <.Lpcrel_hi77>

000000008000151e <.Lpcrel_hi77>:
8000151e: 00006517     	auipc	a0, 0x6
80001522: 0f350513     	addi	a0, a0, 0xf3
80001526: e42a         	sd	a0, 0x8(sp)
80001528: 451d         	li	a0, 0x7
8000152a: e82a         	sd	a0, 0x10(sp)
8000152c: a00d         	j	0x8000154e <.Lpcrel_hi79+0x10>

000000008000152e <.Lpcrel_hi78>:
8000152e: 00006517     	auipc	a0, 0x6
80001532: 0d250513     	addi	a0, a0, 0xd2
80001536: e42a         	sd	a0, 0x8(sp)
80001538: 4511         	li	a0, 0x4
8000153a: e82a         	sd	a0, 0x10(sp)
8000153c: a809         	j	0x8000154e <.Lpcrel_hi79+0x10>

000000008000153e <.Lpcrel_hi79>:
8000153e: 00006517     	auipc	a0, 0x6
80001542: 0ce50513     	addi	a0, a0, 0xce
80001546: e42a         	sd	a0, 0x8(sp)
80001548: 4515         	li	a0, 0x5
8000154a: e82a         	sd	a0, 0x10(sp)
8000154c: a009         	j	0x8000154e <.Lpcrel_hi79+0x10>
8000154e: 6522         	ld	a0, 0x8(sp)
80001550: 65c2         	ld	a1, 0x10(sp)
80001552: 6105         	addi	sp, sp, 0x20
80001554: 8082         	ret

0000000080001556 <lab4_kernel_task4::leaf_level_name::h1fbca21e7dc7397a>:
80001556: 1101         	addi	sp, sp, -0x20
80001558: e02a         	sd	a0, 0x0(sp)
8000155a: ec2a         	sd	a0, 0x18(sp)
8000155c: c505         	beqz	a0, 0x80001584 <.Lpcrel_hi81>
8000155e: a009         	j	0x80001560 <lab4_kernel_task4::leaf_level_name::h1fbca21e7dc7397a+0xa>
80001560: 6502         	ld	a0, 0x0(sp)
80001562: 4585         	li	a1, 0x1
80001564: 02b50863     	beq	a0, a1, 0x80001594 <.Lpcrel_hi82>
80001568: a009         	j	0x8000156a <lab4_kernel_task4::leaf_level_name::h1fbca21e7dc7397a+0x14>
8000156a: 6502         	ld	a0, 0x0(sp)
8000156c: 4589         	li	a1, 0x2
8000156e: 02b50b63     	beq	a0, a1, 0x800015a4 <.Lpcrel_hi83>
80001572: a009         	j	0x80001574 <.Lpcrel_hi80>

0000000080001574 <.Lpcrel_hi80>:
80001574: 00006517     	auipc	a0, 0x6
80001578: 0b350513     	addi	a0, a0, 0xb3
8000157c: e42a         	sd	a0, 0x8(sp)
8000157e: 451d         	li	a0, 0x7
80001580: e82a         	sd	a0, 0x10(sp)
80001582: a80d         	j	0x800015b4 <.Lpcrel_hi83+0x10>

0000000080001584 <.Lpcrel_hi81>:
80001584: 00006517     	auipc	a0, 0x6
80001588: 09450513     	addi	a0, a0, 0x94
8000158c: e42a         	sd	a0, 0x8(sp)
8000158e: 4515         	li	a0, 0x5
80001590: e82a         	sd	a0, 0x10(sp)
80001592: a00d         	j	0x800015b4 <.Lpcrel_hi83+0x10>

0000000080001594 <.Lpcrel_hi82>:
80001594: 00006517     	auipc	a0, 0x6
80001598: 08950513     	addi	a0, a0, 0x89
8000159c: e42a         	sd	a0, 0x8(sp)
8000159e: 4515         	li	a0, 0x5
800015a0: e82a         	sd	a0, 0x10(sp)
800015a2: a809         	j	0x800015b4 <.Lpcrel_hi83+0x10>

00000000800015a4 <.Lpcrel_hi83>:
800015a4: 00006517     	auipc	a0, 0x6
800015a8: 07e50513     	addi	a0, a0, 0x7e
800015ac: e42a         	sd	a0, 0x8(sp)
800015ae: 4515         	li	a0, 0x5
800015b0: e82a         	sd	a0, 0x10(sp)
800015b2: a009         	j	0x800015b4 <.Lpcrel_hi83+0x10>
800015b4: 6522         	ld	a0, 0x8(sp)
800015b6: 65c2         	ld	a1, 0x10(sp)
800015b8: 6105         	addi	sp, sp, 0x20
800015ba: 8082         	ret

00000000800015bc <lab4_kernel_task4::low_l1_table_pa::h13b1f67c7216d12b>:
800015bc: 00010517     	auipc	a0, 0x10
800015c0: a4450513     	addi	a0, a0, -0x5bc
800015c4: 8082         	ret

00000000800015c6 <lab4_kernel_task4::user_shared_mut::h24702d937a08c22f>:
800015c6: 1141         	addi	sp, sp, -0x10

00000000800015c8 <.Lpcrel_hi85>:
800015c8: 0000e517     	auipc	a0, 0xe
800015cc: a3850513     	addi	a0, a0, -0x5c8
800015d0: e02a         	sd	a0, 0x0(sp)
800015d2: e42a         	sd	a0, 0x8(sp)
800015d4: 891d         	andi	a0, a0, 0x7
800015d6: e901         	bnez	a0, 0x800015e6 <.Lpcrel_hi86+0xc>
800015d8: a009         	j	0x800015da <.Lpcrel_hi86>

00000000800015da <.Lpcrel_hi86>:
800015da: 0000e517     	auipc	a0, 0xe
800015de: a2650513     	addi	a0, a0, -0x5da
800015e2: ed01         	bnez	a0, 0x800015fa <.Lpcrel_hi88>
800015e4: a00d         	j	0x80001606 <.Lpcrel_hi89>
800015e6: 6582         	ld	a1, 0x0(sp)

00000000800015e8 <.Lpcrel_hi87>:
800015e8: 00006517     	auipc	a0, 0x6
800015ec: 04850613     	addi	a2, a0, 0x48
800015f0: 4521         	li	a0, 0x8
800015f2: 00005097     	auipc	ra, 0x5
800015f6: 186080e7     	jalr	0x186(ra) <core::panicking::panic_misaligned_pointer_dereference::hda85f7fb51d959f0>

00000000800015fa <.Lpcrel_hi88>:
800015fa: 0000e517     	auipc	a0, 0xe
800015fe: a0650513     	addi	a0, a0, -0x5fa
80001602: 0141         	addi	sp, sp, 0x10
80001604: 8082         	ret

0000000080001606 <.Lpcrel_hi89>:
80001606: 00006517     	auipc	a0, 0x6
8000160a: 02a50513     	addi	a0, a0, 0x2a
8000160e: 00005097     	auipc	ra, 0x5
80001612: 14a080e7     	jalr	0x14a(ra) <core::panicking::panic_null_pointer_dereference::hbac6411af4f2e916>

0000000080001616 <lab4_kernel_task4::working_page_va::h5a3cae193b7926c7>:
80001616: 1101         	addi	sp, sp, -0x20
80001618: 85aa         	mv	a1, a0
8000161a: ec2e         	sd	a1, 0x18(sp)
8000161c: 00c59513     	slli	a0, a1, 0xc
80001620: e82a         	sd	a0, 0x10(sp)
80001622: 8131         	srli	a0, a0, 0xc
80001624: 00b51e63     	bne	a0, a1, 0x80001640 <.Lpcrel_hi90>
80001628: a009         	j	0x8000162a <lab4_kernel_task4::working_page_va::h5a3cae193b7926c7+0x14>
8000162a: 6542         	ld	a0, 0x10(sp)
8000162c: 004105b7     	lui	a1, 0x410
80001630: 952e         	add	a0, a0, a1
80001632: e42a         	sd	a0, 0x8(sp)
80001634: 8141         	srli	a0, a0, 0x10
80001636: 04100593     	li	a1, 0x41
8000163a: 00b56e63     	bltu	a0, a1, 0x80001656 <.Lpcrel_hi91>
8000163e: a809         	j	0x80001650 <.Lpcrel_hi90+0x10>

0000000080001640 <.Lpcrel_hi90>:
80001640: 00006517     	auipc	a0, 0x6
80001644: 00850513     	addi	a0, a0, 0x8
80001648: 00005097     	auipc	ra, 0x5
8000164c: 04a080e7     	jalr	0x4a(ra) <core::panicking::panic_const::panic_const_mul_overflow::h67897feae7531d51>
80001650: 6522         	ld	a0, 0x8(sp)
80001652: 6105         	addi	sp, sp, 0x20
80001654: 8082         	ret

0000000080001656 <.Lpcrel_hi91>:
80001656: 00006517     	auipc	a0, 0x6
8000165a: 00a50513     	addi	a0, a0, 0xa
8000165e: 00005097     	auipc	ra, 0x5
80001662: 016080e7     	jalr	0x16(ra) <core::panicking::panic_const::panic_const_add_overflow::h67cba067093910f8>

0000000080001666 <lab4_kernel_task4::zero_frame_pool::hca6bf2ac97c239ea>:
80001666: 711d         	addi	sp, sp, -0x60
80001668: ec86         	sd	ra, 0x58(sp)
8000166a: ec2a         	sd	a0, 0x18(sp)
8000166c: f02a         	sd	a0, 0x20(sp)
8000166e: c911         	beqz	a0, 0x80001682 <.Lpcrel_hi92>
80001670: a009         	j	0x80001672 <lab4_kernel_task4::zero_frame_pool::hca6bf2ac97c239ea+0xc>
80001672: 6562         	ld	a0, 0x18(sp)
80001674: e4aa         	sd	a0, 0x48(sp)
80001676: 6509         	lui	a0, 0x2
80001678: e82a         	sd	a0, 0x10(sp)
8000167a: e8aa         	sd	a0, 0x50(sp)
8000167c: 4501         	li	a0, 0x0
8000167e: e929         	bnez	a0, 0x800016d0 <.Lpcrel_hi94>
80001680: a809         	j	0x80001692 <.Lpcrel_hi92+0x10>

0000000080001682 <.Lpcrel_hi92>:
80001682: 00006517     	auipc	a0, 0x6
80001686: ff650513     	addi	a0, a0, -0xa
8000168a: 00005097     	auipc	ra, 0x5
8000168e: 0ce080e7     	jalr	0xce(ra) <core::panicking::panic_null_pointer_dereference::hbac6411af4f2e916>
80001692: 6642         	ld	a2, 0x10(sp)
80001694: 6562         	ld	a0, 0x18(sp)
80001696: f82a         	sd	a0, 0x30(sp)
80001698: 4581         	li	a1, 0x0
8000169a: e42e         	sd	a1, 0x8(sp)
8000169c: 02b10fa3     	sb	a1, 0x3f(sp)
800016a0: e0b2         	sd	a2, 0x40(sp)
800016a2: 02b107a3     	sb	a1, 0x2f(sp)
800016a6: 02f14603     	lbu	a2, 0x2f(sp)

00000000800016aa <.Lpcrel_hi93>:
800016aa: 00007597     	auipc	a1, 0x7
800016ae: e3658693     	addi	a3, a1, -0x1ca
800016b2: 4585         	li	a1, 0x1
800016b4: 00004097     	auipc	ra, 0x4
800016b8: ed8080e7     	jalr	-0x128(ra) <core::ptr::write_bytes::precondition_check::h92dea8b33c0faf74>
800016bc: 6562         	ld	a0, 0x18(sp)
800016be: 65a2         	ld	a1, 0x8(sp)
800016c0: 6642         	ld	a2, 0x10(sp)
800016c2: 00005097     	auipc	ra, 0x5
800016c6: 1ea080e7     	jalr	0x1ea(ra) <memset>
800016ca: 60e6         	ld	ra, 0x58(sp)
800016cc: 6125         	addi	sp, sp, 0x60
800016ce: 8082         	ret

00000000800016d0 <.Lpcrel_hi94>:
800016d0: 00006517     	auipc	a0, 0x6
800016d4: fc050513     	addi	a0, a0, -0x40
800016d8: 00005097     	auipc	ra, 0x5
800016dc: fba080e7     	jalr	-0x46(ra) <core::panicking::panic_const::panic_const_mul_overflow::h67897feae7531d51>

00000000800016e0 <lab4_kernel_task4::clear_page_table::he0e9878e3ceee23d>:
800016e0: 711d         	addi	sp, sp, -0x60
800016e2: ec86         	sd	ra, 0x58(sp)
800016e4: f02a         	sd	a0, 0x20(sp)
800016e6: e4aa         	sd	a0, 0x48(sp)
800016e8: 4501         	li	a0, 0x0
800016ea: 20000593     	li	a1, 0x200
800016ee: fffff097     	auipc	ra, 0xfffff
800016f2: c94080e7     	jalr	-0x36c(ra) <_$LT$I$u20$as$u20$core..iter..traits..collect..IntoIterator$GT$::into_iter::hfb4e8047a0c34837>
800016f6: f42a         	sd	a0, 0x28(sp)
800016f8: f82e         	sd	a1, 0x30(sp)
800016fa: a009         	j	0x800016fc <lab4_kernel_task4::clear_page_table::he0e9878e3ceee23d+0x1c>
800016fc: 1028         	addi	a0, sp, 0x28
800016fe: fffff097     	auipc	ra, 0xfffff
80001702: c70080e7     	jalr	-0x390(ra) <core::iter::range::_$LT$impl$u20$core..iter..traits..iterator..Iterator$u20$for$u20$core..ops..range..Range$LT$A$GT$$GT$::next::h2b4844740963e1ba>
80001706: fc2a         	sd	a0, 0x38(sp)
80001708: e0ae         	sd	a1, 0x40(sp)
8000170a: 7562         	ld	a0, 0x38(sp)
8000170c: 8905         	andi	a0, a0, 0x1
8000170e: cd01         	beqz	a0, 0x80001726 <lab4_kernel_task4::clear_page_table::he0e9878e3ceee23d+0x46>
80001710: a009         	j	0x80001712 <lab4_kernel_task4::clear_page_table::he0e9878e3ceee23d+0x32>
80001712: 6506         	ld	a0, 0x40(sp)
80001714: e82a         	sd	a0, 0x10(sp)
80001716: e8aa         	sd	a0, 0x50(sp)
80001718: 20000593     	li	a1, 0x200
8000171c: 862a         	mv	a2, a0
8000171e: ec32         	sd	a2, 0x18(sp)
80001720: 00b56663     	bltu	a0, a1, 0x8000172c <lab4_kernel_task4::clear_page_table::he0e9878e3ceee23d+0x4c>
80001724: a811         	j	0x80001738 <lab4_kernel_task4::clear_page_table::he0e9878e3ceee23d+0x58>
80001726: 60e6         	ld	ra, 0x58(sp)
80001728: 6125         	addi	sp, sp, 0x60
8000172a: 8082         	ret
8000172c: 7502         	ld	a0, 0x20(sp)
8000172e: 85aa         	mv	a1, a0
80001730: 1552         	slli	a0, a0, 0x34
80001732: e42e         	sd	a1, 0x8(sp)
80001734: cd09         	beqz	a0, 0x8000174e <.Lpcrel_hi95+0x14>
80001736: a839         	j	0x80001754 <.Lpcrel_hi95+0x1a>
80001738: 6562         	ld	a0, 0x18(sp)

000000008000173a <.Lpcrel_hi95>:
8000173a: 00006597     	auipc	a1, 0x6
8000173e: f6e58613     	addi	a2, a1, -0x92
80001742: 20000593     	li	a1, 0x200
80001746: 00005097     	auipc	ra, 0x5
8000174a: fa6080e7     	jalr	-0x5a(ra) <core::panicking::panic_bounds_check::h6aaee0d15e0261eb>
8000174e: 7502         	ld	a0, 0x20(sp)
80001750: ed01         	bnez	a0, 0x80001768 <.Lpcrel_hi96+0x12>
80001752: a015         	j	0x80001776 <.Lpcrel_hi97>
80001754: 65a2         	ld	a1, 0x8(sp)

0000000080001756 <.Lpcrel_hi96>:
80001756: 00006517     	auipc	a0, 0x6
8000175a: f5250613     	addi	a2, a0, -0xae
8000175e: 6505         	lui	a0, 0x1
80001760: 00005097     	auipc	ra, 0x5
80001764: 018080e7     	jalr	0x18(ra) <core::panicking::panic_misaligned_pointer_dereference::hda85f7fb51d959f0>
80001768: 7502         	ld	a0, 0x20(sp)
8000176a: 65c2         	ld	a1, 0x10(sp)
8000176c: 058e         	slli	a1, a1, 0x3
8000176e: 95aa         	add	a1, a1, a0
80001770: 4501         	li	a0, 0x0
80001772: e188         	sd	a0, 0x0(a1)
80001774: b761         	j	0x800016fc <lab4_kernel_task4::clear_page_table::he0e9878e3ceee23d+0x1c>

0000000080001776 <.Lpcrel_hi97>:
80001776: 00006517     	auipc	a0, 0x6
8000177a: f3250513     	addi	a0, a0, -0xce
8000177e: 00005097     	auipc	ra, 0x5
80001782: fda080e7     	jalr	-0x26(ra) <core::panicking::panic_null_pointer_dereference::hbac6411af4f2e916>

0000000080001786 <lab4_kernel_task4::evict_with_clock::hb9ee93d5fd84bf50>:
80001786: d3010113     	addi	sp, sp, -0x2d0
8000178a: 2c113423     	sd	ra, 0x2c8(sp)
8000178e: f0aa         	sd	a0, 0x60(sp)
80001790: a009         	j	0x80001792 <.Lpcrel_hi98>

0000000080001792 <.Lpcrel_hi98>:
80001792: 00009517     	auipc	a0, 0x9
80001796: 87650513     	addi	a0, a0, -0x78a
8000179a: cd09         	beqz	a0, 0x800017b4 <.Lpcrel_hi100>
8000179c: a009         	j	0x8000179e <.Lpcrel_hi99>

000000008000179e <.Lpcrel_hi99>:
8000179e: 00009517     	auipc	a0, 0x9
800017a2: 86a50513     	addi	a0, a0, -0x796
800017a6: 6108         	ld	a0, 0x0(a0)
800017a8: f4aa         	sd	a0, 0x68(sp)
800017aa: 7526         	ld	a0, 0x68(sp)
800017ac: 4589         	li	a1, 0x2
800017ae: 00b56b63     	bltu	a0, a1, 0x800017c4 <.Lpcrel_hi101>
800017b2: a839         	j	0x800017d0 <.Lpcrel_hi101+0xc>

00000000800017b4 <.Lpcrel_hi100>:
800017b4: 00006517     	auipc	a0, 0x6
800017b8: f0c50513     	addi	a0, a0, -0xf4
800017bc: 00005097     	auipc	ra, 0x5
800017c0: f9c080e7     	jalr	-0x64(ra) <core::panicking::panic_null_pointer_dereference::hbac6411af4f2e916>

00000000800017c4 <.Lpcrel_hi101>:
800017c4: 0000b517     	auipc	a0, 0xb
800017c8: 83c50513     	addi	a0, a0, -0x7c4
800017cc: ed01         	bnez	a0, 0x800017e4 <.Lpcrel_hi102+0x12>
800017ce: a881         	j	0x8000181e <.Lpcrel_hi104>
800017d0: 7526         	ld	a0, 0x68(sp)

00000000800017d2 <.Lpcrel_hi102>:
800017d2: 00006597     	auipc	a1, 0x6
800017d6: f0658613     	addi	a2, a1, -0xfa
800017da: 4589         	li	a1, 0x2
800017dc: 00005097     	auipc	ra, 0x5
800017e0: f10080e7     	jalr	-0xf0(ra) <core::panicking::panic_bounds_check::h6aaee0d15e0261eb>
800017e4: 7526         	ld	a0, 0x68(sp)
800017e6: 00451593     	slli	a1, a0, 0x4

00000000800017ea <.Lpcrel_hi103>:
800017ea: 0000b517     	auipc	a0, 0xb
800017ee: 81650513     	addi	a0, a0, -0x7ea
800017f2: 952e         	add	a0, a0, a1
800017f4: 6108         	ld	a0, 0x0(a0)
800017f6: f8aa         	sd	a0, 0x70(sp)
800017f8: 7546         	ld	a0, 0x70(sp)
800017fa: 00000097     	auipc	ra, 0x0
800017fe: e1c080e7     	jalr	-0x1e4(ra) <lab4_kernel_task4::working_page_va::h5a3cae193b7926c7>
80001802: fcaa         	sd	a0, 0x78(sp)
80001804: 7566         	ld	a0, 0x78(sp)
80001806: fffff097     	auipc	ra, 0xfffff
8000180a: 398080e7     	jalr	0x398(ra) <lab4_kernel_task4::vpn0_index::h62e57f18e5f43d5f>
8000180e: 862a         	mv	a2, a0
80001810: e8b2         	sd	a2, 0x50(sp)
80001812: 20000593     	li	a1, 0x200
80001816: ecb2         	sd	a2, 0x58(sp)
80001818: 00b56b63     	bltu	a0, a1, 0x8000182e <.Lpcrel_hi105>
8000181c: a005         	j	0x8000183c <.Lpcrel_hi105+0xe>

000000008000181e <.Lpcrel_hi104>:
8000181e: 00006517     	auipc	a0, 0x6
80001822: eba50513     	addi	a0, a0, -0x146
80001826: 00005097     	auipc	ra, 0x5
8000182a: f32080e7     	jalr	-0xce(ra) <core::panicking::panic_null_pointer_dereference::hbac6411af4f2e916>

000000008000182e <.Lpcrel_hi105>:
8000182e: 00010517     	auipc	a0, 0x10
80001832: 7d250513     	addi	a0, a0, 0x7d2
80001836: 1552         	slli	a0, a0, 0x34
80001838: cd09         	beqz	a0, 0x80001852 <.Lpcrel_hi107>
8000183a: a015         	j	0x8000185e <.Lpcrel_hi108>
8000183c: 6566         	ld	a0, 0x58(sp)

000000008000183e <.Lpcrel_hi106>:
8000183e: 00006597     	auipc	a1, 0x6
80001842: eb258613     	addi	a2, a1, -0x14e
80001846: 20000593     	li	a1, 0x200
8000184a: 00005097     	auipc	ra, 0x5
8000184e: ea2080e7     	jalr	-0x15e(ra) <core::panicking::panic_bounds_check::h6aaee0d15e0261eb>

0000000080001852 <.Lpcrel_hi107>:
80001852: 00010517     	auipc	a0, 0x10
80001856: 7ae50513     	addi	a0, a0, 0x7ae
8000185a: ed19         	bnez	a0, 0x80001878 <.Lpcrel_hi109+0x12>
8000185c: a835         	j	0x80001898 <.Lpcrel_hi112>

000000008000185e <.Lpcrel_hi108>:
8000185e: 00010517     	auipc	a0, 0x10
80001862: 7a250593     	addi	a1, a0, 0x7a2

0000000080001866 <.Lpcrel_hi109>:
80001866: 00006517     	auipc	a0, 0x6
8000186a: e8a50613     	addi	a2, a0, -0x176
8000186e: 6505         	lui	a0, 0x1
80001870: 00005097     	auipc	ra, 0x5
80001874: f08080e7     	jalr	-0xf8(ra) <core::panicking::panic_misaligned_pointer_dereference::hda85f7fb51d959f0>
80001878: 6546         	ld	a0, 0x50(sp)
8000187a: 00351593     	slli	a1, a0, 0x3

000000008000187e <.Lpcrel_hi110>:
8000187e: 00010517     	auipc	a0, 0x10
80001882: 78250513     	addi	a0, a0, 0x782
80001886: 952e         	add	a0, a0, a1
80001888: 6108         	ld	a0, 0x0(a0)
8000188a: e12a         	sd	a0, 0x80(sp)

000000008000188c <.Lpcrel_hi111>:
8000188c: 00008517     	auipc	a0, 0x8
80001890: 78450513     	addi	a0, a0, 0x784
80001894: e911         	bnez	a0, 0x800018a8 <.Lpcrel_hi113>
80001896: a025         	j	0x800018be <.Lpcrel_hi114>

0000000080001898 <.Lpcrel_hi112>:
80001898: 00006517     	auipc	a0, 0x6
8000189c: e5850513     	addi	a0, a0, -0x1a8
800018a0: 00005097     	auipc	ra, 0x5
800018a4: eb8080e7     	jalr	-0x148(ra) <core::panicking::panic_null_pointer_dereference::hbac6411af4f2e916>

00000000800018a8 <.Lpcrel_hi113>:
800018a8: 00008517     	auipc	a0, 0x8
800018ac: 76850513     	addi	a0, a0, 0x768
800018b0: 790c         	ld	a1, 0x30(a0)
800018b2: 00158513     	addi	a0, a1, 0x1
800018b6: e4aa         	sd	a0, 0x48(sp)
800018b8: 02b56163     	bltu	a0, a1, 0x800018da <.Lpcrel_hi116>
800018bc: a809         	j	0x800018ce <.Lpcrel_hi115>

00000000800018be <.Lpcrel_hi114>:
800018be: 00006517     	auipc	a0, 0x6
800018c2: e4a50513     	addi	a0, a0, -0x1b6
800018c6: 00005097     	auipc	ra, 0x5
800018ca: e92080e7     	jalr	-0x16e(ra) <core::panicking::panic_null_pointer_dereference::hbac6411af4f2e916>

00000000800018ce <.Lpcrel_hi115>:
800018ce: 00008517     	auipc	a0, 0x8
800018d2: 74250513     	addi	a0, a0, 0x742
800018d6: e911         	bnez	a0, 0x800018ea <.Lpcrel_hi116+0x10>
800018d8: a035         	j	0x80001904 <.Lpcrel_hi118>

00000000800018da <.Lpcrel_hi116>:
800018da: 00006517     	auipc	a0, 0x6
800018de: e2e50513     	addi	a0, a0, -0x1d2
800018e2: 00005097     	auipc	ra, 0x5
800018e6: d92080e7     	jalr	-0x26e(ra) <core::panicking::panic_const::panic_const_add_overflow::h67cba067093910f8>
800018ea: 6526         	ld	a0, 0x48(sp)

00000000800018ec <.Lpcrel_hi117>:
800018ec: 00008597     	auipc	a1, 0x8
800018f0: 72458593     	addi	a1, a1, 0x724
800018f4: f988         	sd	a0, 0x30(a1)
800018f6: 650a         	ld	a0, 0x80(sp)
800018f8: 00000097     	auipc	ra, 0x0
800018fc: 6f2080e7     	jalr	0x6f2(ra) <lab4_kernel_task4::pte_has_accessed::h391d6a54b64cf1cc>
80001900: e12d         	bnez	a0, 0x80001962 <.Lpcrel_hi118+0x5e>
80001902: a809         	j	0x80001914 <.Lpcrel_hi118+0x10>

0000000080001904 <.Lpcrel_hi118>:
80001904: 00006517     	auipc	a0, 0x6
80001908: e0450513     	addi	a0, a0, -0x1fc
8000190c: 00005097     	auipc	ra, 0x5
80001910: e4c080e7     	jalr	-0x1b4(ra) <core::panicking::panic_null_pointer_dereference::hbac6411af4f2e916>
80001914: 00001097     	auipc	ra, 0x1
80001918: f7e080e7     	jalr	-0x82(ra) <lab4_kernel_task4::allocate_swap_slot::h8b919f8437b0ea98>
8000191c: eeaa         	sd	a0, 0x158(sp)
8000191e: 7526         	ld	a0, 0x68(sp)
80001920: 00001097     	auipc	ra, 0x1
80001924: f10080e7     	jalr	-0xf0(ra) <lab4_kernel_task4::resident_frame_pa::hb64451074135dde2>
80001928: f2aa         	sd	a0, 0x160(sp)
8000192a: 6576         	ld	a0, 0x158(sp)
8000192c: 00000097     	auipc	ra, 0x0
80001930: 844080e7     	jalr	-0x7bc(ra) <lab4_kernel_task4::swap_slot_pa::hf1be1055ea3d9f9a>
80001934: 7596         	ld	a1, 0x160(sp)
80001936: 00003097     	auipc	ra, 0x3
8000193a: ba6080e7     	jalr	-0x45a(ra) <lab4_kernel_task4::copy_page::h867d2e4e96158e1c>
8000193e: 6576         	ld	a0, 0x158(sp)
80001940: 00003097     	auipc	ra, 0x3
80001944: ae8080e7     	jalr	-0x518(ra) <lab4_kernel_task4::swap_pte::h61086687a1c2f593>
80001948: f6aa         	sd	a0, 0x168(sp)
8000194a: 7566         	ld	a0, 0x78(sp)
8000194c: fffff097     	auipc	ra, 0xfffff
80001950: 252080e7     	jalr	0x252(ra) <lab4_kernel_task4::vpn0_index::h62e57f18e5f43d5f>
80001954: 85aa         	mv	a1, a0
80001956: e0ae         	sd	a1, 0x40(sp)
80001958: 20000593     	li	a1, 0x200
8000195c: 02b56463     	bltu	a0, a1, 0x80001984 <.Lpcrel_hi119>
80001960: a80d         	j	0x80001992 <.Lpcrel_hi119+0xe>
80001962: 650a         	ld	a0, 0x80(sp)
80001964: fbf57513     	andi	a0, a0, -0x41
80001968: e52a         	sd	a0, 0x88(sp)
8000196a: 7566         	ld	a0, 0x78(sp)
8000196c: fffff097     	auipc	ra, 0xfffff
80001970: 232080e7     	jalr	0x232(ra) <lab4_kernel_task4::vpn0_index::h62e57f18e5f43d5f>
80001974: 862a         	mv	a2, a0
80001976: f832         	sd	a2, 0x30(sp)
80001978: 20000593     	li	a1, 0x200
8000197c: fc32         	sd	a2, 0x38(sp)
8000197e: 44b56663     	bltu	a0, a1, 0x80001dca <.Lpcrel_hi168>
80001982: a999         	j	0x80001dd8 <.Lpcrel_hi168+0xe>

0000000080001984 <.Lpcrel_hi119>:
80001984: 00010517     	auipc	a0, 0x10
80001988: 67c50513     	addi	a0, a0, 0x67c
8000198c: 1552         	slli	a0, a0, 0x34
8000198e: cd09         	beqz	a0, 0x800019a8 <.Lpcrel_hi121>
80001990: a015         	j	0x800019b4 <.Lpcrel_hi122>
80001992: 6506         	ld	a0, 0x40(sp)

0000000080001994 <.Lpcrel_hi120>:
80001994: 00006597     	auipc	a1, 0x6
80001998: d8c58613     	addi	a2, a1, -0x274
8000199c: 20000593     	li	a1, 0x200
800019a0: 00005097     	auipc	ra, 0x5
800019a4: d4c080e7     	jalr	-0x2b4(ra) <core::panicking::panic_bounds_check::h6aaee0d15e0261eb>

00000000800019a8 <.Lpcrel_hi121>:
800019a8: 00010517     	auipc	a0, 0x10
800019ac: 65850513     	addi	a0, a0, 0x658
800019b0: ed19         	bnez	a0, 0x800019ce <.Lpcrel_hi123+0x12>
800019b2: a82d         	j	0x800019ec <.Lpcrel_hi125>

00000000800019b4 <.Lpcrel_hi122>:
800019b4: 00010517     	auipc	a0, 0x10
800019b8: 64c50593     	addi	a1, a0, 0x64c

00000000800019bc <.Lpcrel_hi123>:
800019bc: 00006517     	auipc	a0, 0x6
800019c0: d6450613     	addi	a2, a0, -0x29c
800019c4: 6505         	lui	a0, 0x1
800019c6: 00005097     	auipc	ra, 0x5
800019ca: db2080e7     	jalr	-0x24e(ra) <core::panicking::panic_misaligned_pointer_dereference::hda85f7fb51d959f0>
800019ce: 6506         	ld	a0, 0x40(sp)
800019d0: 00351593     	slli	a1, a0, 0x3

00000000800019d4 <.Lpcrel_hi124>:
800019d4: 00010517     	auipc	a0, 0x10
800019d8: 62c50513     	addi	a0, a0, 0x62c
800019dc: 95aa         	add	a1, a1, a0
800019de: 7536         	ld	a0, 0x168(sp)
800019e0: e188         	sd	a0, 0x0(a1)
800019e2: 7546         	ld	a0, 0x70(sp)
800019e4: 458d         	li	a1, 0x3
800019e6: 00b56b63     	bltu	a0, a1, 0x800019fc <.Lpcrel_hi126>
800019ea: a839         	j	0x80001a08 <.Lpcrel_hi126+0xc>

00000000800019ec <.Lpcrel_hi125>:
800019ec: 00006517     	auipc	a0, 0x6
800019f0: d3450513     	addi	a0, a0, -0x2cc
800019f4: 00005097     	auipc	ra, 0x5
800019f8: d64080e7     	jalr	-0x29c(ra) <core::panicking::panic_null_pointer_dereference::hbac6411af4f2e916>

00000000800019fc <.Lpcrel_hi126>:
800019fc: 00008517     	auipc	a0, 0x8
80001a00: 79c50513     	addi	a0, a0, 0x79c
80001a04: ed01         	bnez	a0, 0x80001a1c <.Lpcrel_hi127+0x12>
80001a06: a835         	j	0x80001a42 <.Lpcrel_hi129>
80001a08: 7546         	ld	a0, 0x70(sp)

0000000080001a0a <.Lpcrel_hi127>:
80001a0a: 00006597     	auipc	a1, 0x6
80001a0e: d2e58613     	addi	a2, a1, -0x2d2
80001a12: 458d         	li	a1, 0x3
80001a14: 00005097     	auipc	ra, 0x5
80001a18: cd8080e7     	jalr	-0x328(ra) <core::panicking::panic_bounds_check::h6aaee0d15e0261eb>
80001a1c: 7546         	ld	a0, 0x70(sp)
80001a1e: 00351593     	slli	a1, a0, 0x3
80001a22: 0516         	slli	a0, a0, 0x5
80001a24: 40b505b3     	sub	a1, a0, a1

0000000080001a28 <.Lpcrel_hi128>:
80001a28: 00008517     	auipc	a0, 0x8
80001a2c: 77050513     	addi	a0, a0, 0x770
80001a30: 95aa         	add	a1, a1, a0
80001a32: 4501         	li	a0, 0x0
80001a34: 00a58823     	sb	a0, 0x10(a1)
80001a38: 7546         	ld	a0, 0x70(sp)
80001a3a: 458d         	li	a1, 0x3
80001a3c: 00b56b63     	bltu	a0, a1, 0x80001a52 <.Lpcrel_hi130>
80001a40: a839         	j	0x80001a5e <.Lpcrel_hi130+0xc>

0000000080001a42 <.Lpcrel_hi129>:
80001a42: 00006517     	auipc	a0, 0x6
80001a46: cf650513     	addi	a0, a0, -0x30a
80001a4a: 00005097     	auipc	ra, 0x5
80001a4e: d0e080e7     	jalr	-0x2f2(ra) <core::panicking::panic_null_pointer_dereference::hbac6411af4f2e916>

0000000080001a52 <.Lpcrel_hi130>:
80001a52: 00008517     	auipc	a0, 0x8
80001a56: 74650513     	addi	a0, a0, 0x746
80001a5a: ed01         	bnez	a0, 0x80001a72 <.Lpcrel_hi131+0x12>
80001a5c: a835         	j	0x80001a98 <.Lpcrel_hi133>
80001a5e: 7546         	ld	a0, 0x70(sp)

0000000080001a60 <.Lpcrel_hi131>:
80001a60: 00006597     	auipc	a1, 0x6
80001a64: cf058613     	addi	a2, a1, -0x310
80001a68: 458d         	li	a1, 0x3
80001a6a: 00005097     	auipc	ra, 0x5
80001a6e: c82080e7     	jalr	-0x37e(ra) <core::panicking::panic_bounds_check::h6aaee0d15e0261eb>
80001a72: 7546         	ld	a0, 0x70(sp)
80001a74: 00351593     	slli	a1, a0, 0x3
80001a78: 0516         	slli	a0, a0, 0x5
80001a7a: 40b505b3     	sub	a1, a0, a1

0000000080001a7e <.Lpcrel_hi132>:
80001a7e: 00008517     	auipc	a0, 0x8
80001a82: 71a50513     	addi	a0, a0, 0x71a
80001a86: 95aa         	add	a1, a1, a0
80001a88: 4505         	li	a0, 0x1
80001a8a: 00a588a3     	sb	a0, 0x11(a1)
80001a8e: 7546         	ld	a0, 0x70(sp)
80001a90: 458d         	li	a1, 0x3
80001a92: 00b56b63     	bltu	a0, a1, 0x80001aa8 <.Lpcrel_hi134>
80001a96: a839         	j	0x80001ab4 <.Lpcrel_hi134+0xc>

0000000080001a98 <.Lpcrel_hi133>:
80001a98: 00006517     	auipc	a0, 0x6
80001a9c: cb850513     	addi	a0, a0, -0x348
80001aa0: 00005097     	auipc	ra, 0x5
80001aa4: cb8080e7     	jalr	-0x348(ra) <core::panicking::panic_null_pointer_dereference::hbac6411af4f2e916>

0000000080001aa8 <.Lpcrel_hi134>:
80001aa8: 00008517     	auipc	a0, 0x8
80001aac: 6f050513     	addi	a0, a0, 0x6f0
80001ab0: ed01         	bnez	a0, 0x80001ac8 <.Lpcrel_hi135+0x12>
80001ab2: a82d         	j	0x80001aec <.Lpcrel_hi137>
80001ab4: 7546         	ld	a0, 0x70(sp)

0000000080001ab6 <.Lpcrel_hi135>:
80001ab6: 00006597     	auipc	a1, 0x6
80001aba: cb258613     	addi	a2, a1, -0x34e
80001abe: 458d         	li	a1, 0x3
80001ac0: 00005097     	auipc	ra, 0x5
80001ac4: c2c080e7     	jalr	-0x3d4(ra) <core::panicking::panic_bounds_check::h6aaee0d15e0261eb>
80001ac8: 7546         	ld	a0, 0x70(sp)
80001aca: 00351593     	slli	a1, a0, 0x3
80001ace: 0516         	slli	a0, a0, 0x5
80001ad0: 40b505b3     	sub	a1, a0, a1

0000000080001ad4 <.Lpcrel_hi136>:
80001ad4: 00008517     	auipc	a0, 0x8
80001ad8: 6c450513     	addi	a0, a0, 0x6c4
80001adc: 95aa         	add	a1, a1, a0
80001ade: 6576         	ld	a0, 0x158(sp)
80001ae0: e588         	sd	a0, 0x8(a1)
80001ae2: 7526         	ld	a0, 0x68(sp)
80001ae4: 4589         	li	a1, 0x2
80001ae6: 00b56b63     	bltu	a0, a1, 0x80001afc <.Lpcrel_hi138>
80001aea: a839         	j	0x80001b08 <.Lpcrel_hi138+0xc>

0000000080001aec <.Lpcrel_hi137>:
80001aec: 00006517     	auipc	a0, 0x6
80001af0: c7c50513     	addi	a0, a0, -0x384
80001af4: 00005097     	auipc	ra, 0x5
80001af8: c64080e7     	jalr	-0x39c(ra) <core::panicking::panic_null_pointer_dereference::hbac6411af4f2e916>

0000000080001afc <.Lpcrel_hi138>:
80001afc: 0000a517     	auipc	a0, 0xa
80001b00: 50450513     	addi	a0, a0, 0x504
80001b04: ed01         	bnez	a0, 0x80001b1c <.Lpcrel_hi139+0x12>
80001b06: a825         	j	0x80001b3e <.Lpcrel_hi142>
80001b08: 7526         	ld	a0, 0x68(sp)

0000000080001b0a <.Lpcrel_hi139>:
80001b0a: 00006597     	auipc	a1, 0x6
80001b0e: c7658613     	addi	a2, a1, -0x38a
80001b12: 4589         	li	a1, 0x2
80001b14: 00005097     	auipc	ra, 0x5
80001b18: bd8080e7     	jalr	-0x428(ra) <core::panicking::panic_bounds_check::h6aaee0d15e0261eb>
80001b1c: 7526         	ld	a0, 0x68(sp)
80001b1e: 00451593     	slli	a1, a0, 0x4

0000000080001b22 <.Lpcrel_hi140>:
80001b22: 0000a517     	auipc	a0, 0xa
80001b26: 4de50513     	addi	a0, a0, 0x4de
80001b2a: 95aa         	add	a1, a1, a0
80001b2c: 4501         	li	a0, 0x0
80001b2e: 00a58423     	sb	a0, 0x8(a1)

0000000080001b32 <.Lpcrel_hi141>:
80001b32: 00008517     	auipc	a0, 0x8
80001b36: 4de50513     	addi	a0, a0, 0x4de
80001b3a: e911         	bnez	a0, 0x80001b4e <.Lpcrel_hi143>
80001b3c: a025         	j	0x80001b64 <.Lpcrel_hi144>

0000000080001b3e <.Lpcrel_hi142>:
80001b3e: 00006517     	auipc	a0, 0x6
80001b42: c4250513     	addi	a0, a0, -0x3be
80001b46: 00005097     	auipc	ra, 0x5
80001b4a: c12080e7     	jalr	-0x3ee(ra) <core::panicking::panic_null_pointer_dereference::hbac6411af4f2e916>

0000000080001b4e <.Lpcrel_hi143>:
80001b4e: 00008517     	auipc	a0, 0x8
80001b52: 4c250513     	addi	a0, a0, 0x4c2
80001b56: 710c         	ld	a1, 0x20(a0)
80001b58: 00158513     	addi	a0, a1, 0x1
80001b5c: f42a         	sd	a0, 0x28(sp)
80001b5e: 02b56163     	bltu	a0, a1, 0x80001b80 <.Lpcrel_hi146>
80001b62: a809         	j	0x80001b74 <.Lpcrel_hi145>

0000000080001b64 <.Lpcrel_hi144>:
80001b64: 00006517     	auipc	a0, 0x6
80001b68: c3450513     	addi	a0, a0, -0x3cc
80001b6c: 00005097     	auipc	ra, 0x5
80001b70: bec080e7     	jalr	-0x414(ra) <core::panicking::panic_null_pointer_dereference::hbac6411af4f2e916>

0000000080001b74 <.Lpcrel_hi145>:
80001b74: 00008517     	auipc	a0, 0x8
80001b78: 49c50513     	addi	a0, a0, 0x49c
80001b7c: e911         	bnez	a0, 0x80001b90 <.Lpcrel_hi146+0x10>
80001b7e: a02d         	j	0x80001ba8 <.Lpcrel_hi149>

0000000080001b80 <.Lpcrel_hi146>:
80001b80: 00006517     	auipc	a0, 0x6
80001b84: c1850513     	addi	a0, a0, -0x3e8
80001b88: 00005097     	auipc	ra, 0x5
80001b8c: aec080e7     	jalr	-0x514(ra) <core::panicking::panic_const::panic_const_add_overflow::h67cba067093910f8>
80001b90: 7522         	ld	a0, 0x28(sp)

0000000080001b92 <.Lpcrel_hi147>:
80001b92: 00008597     	auipc	a1, 0x8
80001b96: 47e58593     	addi	a1, a1, 0x47e
80001b9a: f188         	sd	a0, 0x20(a1)

0000000080001b9c <.Lpcrel_hi148>:
80001b9c: 00008517     	auipc	a0, 0x8
80001ba0: 5c450513     	addi	a0, a0, 0x5c4
80001ba4: e911         	bnez	a0, 0x80001bb8 <.Lpcrel_hi150>
80001ba6: a005         	j	0x80001bc6 <.Lpcrel_hi151>

0000000080001ba8 <.Lpcrel_hi149>:
80001ba8: 00006517     	auipc	a0, 0x6
80001bac: bf050513     	addi	a0, a0, -0x410
80001bb0: 00005097     	auipc	ra, 0x5
80001bb4: ba8080e7     	jalr	-0x458(ra) <core::panicking::panic_null_pointer_dereference::hbac6411af4f2e916>

0000000080001bb8 <.Lpcrel_hi150>:
80001bb8: 00008517     	auipc	a0, 0x8
80001bbc: 5a850513     	addi	a0, a0, 0x5a8
80001bc0: 6908         	ld	a0, 0x10(a0)
80001bc2: c105         	beqz	a0, 0x80001be2 <.Lpcrel_hi153>
80001bc4: a809         	j	0x80001bd6 <.Lpcrel_hi152>

0000000080001bc6 <.Lpcrel_hi151>:
80001bc6: 00006517     	auipc	a0, 0x6
80001bca: bea50513     	addi	a0, a0, -0x416
80001bce: 00005097     	auipc	ra, 0x5
80001bd2: b8a080e7     	jalr	-0x476(ra) <core::panicking::panic_null_pointer_dereference::hbac6411af4f2e916>

0000000080001bd6 <.Lpcrel_hi152>:
80001bd6: 00008517     	auipc	a0, 0x8
80001bda: 43250513     	addi	a0, a0, 0x432
80001bde: e53d         	bnez	a0, 0x80001c4c <.Lpcrel_hi160>
80001be0: a049         	j	0x80001c62 <.Lpcrel_hi161>

0000000080001be2 <.Lpcrel_hi153>:
80001be2: 00008517     	auipc	a0, 0x8
80001be6: 57e50513     	addi	a0, a0, 0x57e
80001bea: c911         	beqz	a0, 0x80001bfe <.Lpcrel_hi155>
80001bec: a009         	j	0x80001bee <.Lpcrel_hi153+0xc>
80001bee: 75c6         	ld	a1, 0x70(sp)

0000000080001bf0 <.Lpcrel_hi154>:
80001bf0: 00008517     	auipc	a0, 0x8
80001bf4: 57050513     	addi	a0, a0, 0x570
80001bf8: e10c         	sd	a1, 0x0(a0)
80001bfa: e911         	bnez	a0, 0x80001c0e <.Lpcrel_hi155+0x10>
80001bfc: a00d         	j	0x80001c1e <.Lpcrel_hi157>

0000000080001bfe <.Lpcrel_hi155>:
80001bfe: 00006517     	auipc	a0, 0x6
80001c02: bca50513     	addi	a0, a0, -0x436
80001c06: 00005097     	auipc	ra, 0x5
80001c0a: b52080e7     	jalr	-0x4ae(ra) <core::panicking::panic_null_pointer_dereference::hbac6411af4f2e916>
80001c0e: 65f6         	ld	a1, 0x158(sp)

0000000080001c10 <.Lpcrel_hi156>:
80001c10: 00008517     	auipc	a0, 0x8
80001c14: 55050513     	addi	a0, a0, 0x550
80001c18: e50c         	sd	a1, 0x8(a0)
80001c1a: e911         	bnez	a0, 0x80001c2e <.Lpcrel_hi157+0x10>
80001c1c: a005         	j	0x80001c3c <.Lpcrel_hi159>

0000000080001c1e <.Lpcrel_hi157>:
80001c1e: 00006517     	auipc	a0, 0x6
80001c22: bc250513     	addi	a0, a0, -0x43e
80001c26: 00005097     	auipc	ra, 0x5
80001c2a: b32080e7     	jalr	-0x4ce(ra) <core::panicking::panic_null_pointer_dereference::hbac6411af4f2e916>
80001c2e: 7536         	ld	a0, 0x168(sp)

0000000080001c30 <.Lpcrel_hi158>:
80001c30: 00008597     	auipc	a1, 0x8
80001c34: 53058593     	addi	a1, a1, 0x530
80001c38: e988         	sd	a0, 0x10(a1)
80001c3a: bf71         	j	0x80001bd6 <.Lpcrel_hi152>

0000000080001c3c <.Lpcrel_hi159>:
80001c3c: 00006517     	auipc	a0, 0x6
80001c40: bbc50513     	addi	a0, a0, -0x444
80001c44: 00005097     	auipc	ra, 0x5
80001c48: b14080e7     	jalr	-0x4ec(ra) <core::panicking::panic_null_pointer_dereference::hbac6411af4f2e916>

0000000080001c4c <.Lpcrel_hi160>:
80001c4c: 00008517     	auipc	a0, 0x8
80001c50: 3bc50513     	addi	a0, a0, 0x3bc
80001c54: 610c         	ld	a1, 0x0(a0)
80001c56: 00158513     	addi	a0, a1, 0x1
80001c5a: f02a         	sd	a0, 0x20(sp)
80001c5c: 02b56163     	bltu	a0, a1, 0x80001c7e <.Lpcrel_hi163>
80001c60: a809         	j	0x80001c72 <.Lpcrel_hi162>

0000000080001c62 <.Lpcrel_hi161>:
80001c62: 00006517     	auipc	a0, 0x6
80001c66: bae50513     	addi	a0, a0, -0x452
80001c6a: 00005097     	auipc	ra, 0x5
80001c6e: aee080e7     	jalr	-0x512(ra) <core::panicking::panic_null_pointer_dereference::hbac6411af4f2e916>

0000000080001c72 <.Lpcrel_hi162>:
80001c72: 00008517     	auipc	a0, 0x8
80001c76: 39650513     	addi	a0, a0, 0x396
80001c7a: e911         	bnez	a0, 0x80001c8e <.Lpcrel_hi163+0x10>
80001c7c: aa3d         	j	0x80001dba <.Lpcrel_hi167>

0000000080001c7e <.Lpcrel_hi163>:
80001c7e: 00006517     	auipc	a0, 0x6
80001c82: baa50513     	addi	a0, a0, -0x456
80001c86: 00005097     	auipc	ra, 0x5
80001c8a: 9ee080e7     	jalr	-0x612(ra) <core::panicking::panic_const::panic_const_add_overflow::h67cba067093910f8>
80001c8e: 7502         	ld	a0, 0x20(sp)
80001c90: 8905         	andi	a0, a0, 0x1

0000000080001c92 <.Lpcrel_hi164>:
80001c92: 00008597     	auipc	a1, 0x8
80001c96: 37658593     	addi	a1, a1, 0x376
80001c9a: e188         	sd	a0, 0x0(a1)
80001c9c: 7566         	ld	a0, 0x78(sp)
80001c9e: 00003097     	auipc	ra, 0x3
80001ca2: 906080e7     	jalr	-0x6fa(ra) <lab4_kernel_task4::sfence_va::h2913b9c24c7f9939>
80001ca6: 1088         	addi	a0, sp, 0x60
80001ca8: faaa         	sd	a0, 0x170(sp)
80001caa: 1888         	addi	a0, sp, 0x70
80001cac: feaa         	sd	a0, 0x178(sp)
80001cae: 10a8         	addi	a0, sp, 0x68
80001cb0: e32a         	sd	a0, 0x180(sp)
80001cb2: 18a8         	addi	a0, sp, 0x78
80001cb4: e72a         	sd	a0, 0x188(sp)
80001cb6: 1288         	addi	a0, sp, 0x160
80001cb8: eb2a         	sd	a0, 0x190(sp)
80001cba: 0aa8         	addi	a0, sp, 0x158
80001cbc: ef2a         	sd	a0, 0x198(sp)
80001cbe: 12a8         	addi	a0, sp, 0x168
80001cc0: f32a         	sd	a0, 0x1a0(sp)
80001cc2: 75d6         	ld	a1, 0x170(sp)
80001cc4: 0c28         	addi	a0, sp, 0x218
80001cc6: ffffe097     	auipc	ra, 0xffffe
80001cca: 5dc080e7     	jalr	0x5dc(ra) <core::fmt::rt::Argument::new_display::h72b9aae62486e176>
80001cce: 75f6         	ld	a1, 0x178(sp)
80001cd0: 1428         	addi	a0, sp, 0x228
80001cd2: ffffe097     	auipc	ra, 0xffffe
80001cd6: 5d0080e7     	jalr	0x5d0(ra) <core::fmt::rt::Argument::new_display::h72b9aae62486e176>
80001cda: 659a         	ld	a1, 0x180(sp)
80001cdc: 1c28         	addi	a0, sp, 0x238
80001cde: ffffe097     	auipc	ra, 0xffffe
80001ce2: 5c4080e7     	jalr	0x5c4(ra) <core::fmt::rt::Argument::new_display::h72b9aae62486e176>
80001ce6: 65ba         	ld	a1, 0x188(sp)
80001ce8: 04a8         	addi	a0, sp, 0x248
80001cea: ffffe097     	auipc	ra, 0xffffe
80001cee: 640080e7     	jalr	0x640(ra) <core::fmt::rt::Argument::new_lower_hex::h2c3e51038c7990f0>
80001cf2: 65da         	ld	a1, 0x190(sp)
80001cf4: 0ca8         	addi	a0, sp, 0x258
80001cf6: ffffe097     	auipc	ra, 0xffffe
80001cfa: 634080e7     	jalr	0x634(ra) <core::fmt::rt::Argument::new_lower_hex::h2c3e51038c7990f0>
80001cfe: 65fa         	ld	a1, 0x198(sp)
80001d00: 14a8         	addi	a0, sp, 0x268
80001d02: ffffe097     	auipc	ra, 0xffffe
80001d06: 5a0080e7     	jalr	0x5a0(ra) <core::fmt::rt::Argument::new_display::h72b9aae62486e176>
80001d0a: 759a         	ld	a1, 0x1a0(sp)
80001d0c: 1ca8         	addi	a0, sp, 0x278
80001d0e: ffffe097     	auipc	ra, 0xffffe
80001d12: 61c080e7     	jalr	0x61c(ra) <core::fmt::rt::Argument::new_lower_hex::h2c3e51038c7990f0>
80001d16: 22013503     	ld	a0, 0x220(sp)
80001d1a: fb2a         	sd	a0, 0x1b0(sp)
80001d1c: 21813503     	ld	a0, 0x218(sp)
80001d20: f72a         	sd	a0, 0x1a8(sp)
80001d22: 23013503     	ld	a0, 0x230(sp)
80001d26: e3aa         	sd	a0, 0x1c0(sp)
80001d28: 22813503     	ld	a0, 0x228(sp)
80001d2c: ff2a         	sd	a0, 0x1b8(sp)
80001d2e: 24013503     	ld	a0, 0x240(sp)
80001d32: ebaa         	sd	a0, 0x1d0(sp)
80001d34: 23813503     	ld	a0, 0x238(sp)
80001d38: e7aa         	sd	a0, 0x1c8(sp)
80001d3a: 25013503     	ld	a0, 0x250(sp)
80001d3e: f3aa         	sd	a0, 0x1e0(sp)
80001d40: 24813503     	ld	a0, 0x248(sp)
80001d44: efaa         	sd	a0, 0x1d8(sp)
80001d46: 26013503     	ld	a0, 0x260(sp)
80001d4a: fbaa         	sd	a0, 0x1f0(sp)
80001d4c: 25813503     	ld	a0, 0x258(sp)
80001d50: f7aa         	sd	a0, 0x1e8(sp)
80001d52: 27013503     	ld	a0, 0x270(sp)
80001d56: 20a13023     	sd	a0, 0x200(sp)
80001d5a: 26813503     	ld	a0, 0x268(sp)
80001d5e: ffaa         	sd	a0, 0x1f8(sp)
80001d60: 28013503     	ld	a0, 0x280(sp)
80001d64: 20a13823     	sd	a0, 0x210(sp)
80001d68: 27813503     	ld	a0, 0x278(sp)
80001d6c: 20a13423     	sd	a0, 0x208(sp)

0000000080001d70 <.Lpcrel_hi165>:
80001d70: 00006517     	auipc	a0, 0x6
80001d74: ae850513     	addi	a0, a0, -0x518
80001d78: 132c         	addi	a1, sp, 0x1a8
80001d7a: ffffe097     	auipc	ra, 0xffffe
80001d7e: 488080e7     	jalr	0x488(ra) <core::fmt::Arguments::new::hb90b7d501dbbf1d2>
80001d82: 00003097     	auipc	ra, 0x3
80001d86: 2f8080e7     	jalr	0x2f8(ra) <lab4_kernel_task4::console::print::h39762270f09f95ac>
80001d8a: 75e6         	ld	a1, 0x78(sp)
80001d8c: 0528         	addi	a0, sp, 0x288
80001d8e: ec2a         	sd	a0, 0x18(sp)
80001d90: fffff097     	auipc	ra, 0xfffff
80001d94: 438080e7     	jalr	0x438(ra) <lab4_kernel_task4::walk_virtual::hb3c91b13438fe028>
80001d98: 66e2         	ld	a3, 0x18(sp)
80001d9a: 7666         	ld	a2, 0x78(sp)

0000000080001d9c <.Lpcrel_hi166>:
80001d9c: 00006517     	auipc	a0, 0x6
80001da0: b3b50513     	addi	a0, a0, -0x4c5
80001da4: 45c5         	li	a1, 0x11
80001da6: fffff097     	auipc	ra, 0xfffff
80001daa: 996080e7     	jalr	-0x66a(ra) <lab4_kernel_task4::print_walk::h17f3ac5b095b2942>
80001dae: 7526         	ld	a0, 0x68(sp)
80001db0: 2c813083     	ld	ra, 0x2c8(sp)
80001db4: 2d010113     	addi	sp, sp, 0x2d0
80001db8: 8082         	ret

0000000080001dba <.Lpcrel_hi167>:
80001dba: 00006517     	auipc	a0, 0x6
80001dbe: a8650513     	addi	a0, a0, -0x57a
80001dc2: 00005097     	auipc	ra, 0x5
80001dc6: 996080e7     	jalr	-0x66a(ra) <core::panicking::panic_null_pointer_dereference::hbac6411af4f2e916>

0000000080001dca <.Lpcrel_hi168>:
80001dca: 00010517     	auipc	a0, 0x10
80001dce: 23650513     	addi	a0, a0, 0x236
80001dd2: 1552         	slli	a0, a0, 0x34
80001dd4: cd09         	beqz	a0, 0x80001dee <.Lpcrel_hi170>
80001dd6: a015         	j	0x80001dfa <.Lpcrel_hi171>
80001dd8: 7562         	ld	a0, 0x38(sp)

0000000080001dda <.Lpcrel_hi169>:
80001dda: 00006597     	auipc	a1, 0x6
80001dde: b0e58613     	addi	a2, a1, -0x4f2
80001de2: 20000593     	li	a1, 0x200
80001de6: 00005097     	auipc	ra, 0x5
80001dea: 906080e7     	jalr	-0x6fa(ra) <core::panicking::panic_bounds_check::h6aaee0d15e0261eb>

0000000080001dee <.Lpcrel_hi170>:
80001dee: 00010517     	auipc	a0, 0x10
80001df2: 21250513     	addi	a0, a0, 0x212
80001df6: ed19         	bnez	a0, 0x80001e14 <.Lpcrel_hi172+0x12>
80001df8: a835         	j	0x80001e34 <.Lpcrel_hi175>

0000000080001dfa <.Lpcrel_hi171>:
80001dfa: 00010517     	auipc	a0, 0x10
80001dfe: 20650593     	addi	a1, a0, 0x206

0000000080001e02 <.Lpcrel_hi172>:
80001e02: 00006517     	auipc	a0, 0x6
80001e06: ae650613     	addi	a2, a0, -0x51a
80001e0a: 6505         	lui	a0, 0x1
80001e0c: 00005097     	auipc	ra, 0x5
80001e10: 96c080e7     	jalr	-0x694(ra) <core::panicking::panic_misaligned_pointer_dereference::hda85f7fb51d959f0>
80001e14: 7542         	ld	a0, 0x30(sp)
80001e16: 00351593     	slli	a1, a0, 0x3

0000000080001e1a <.Lpcrel_hi173>:
80001e1a: 00010517     	auipc	a0, 0x10
80001e1e: 1e650513     	addi	a0, a0, 0x1e6
80001e22: 95aa         	add	a1, a1, a0
80001e24: 652a         	ld	a0, 0x88(sp)
80001e26: e188         	sd	a0, 0x0(a1)

0000000080001e28 <.Lpcrel_hi174>:
80001e28: 00008517     	auipc	a0, 0x8
80001e2c: 1e850513     	addi	a0, a0, 0x1e8
80001e30: e911         	bnez	a0, 0x80001e44 <.Lpcrel_hi176>
80001e32: a025         	j	0x80001e5a <.Lpcrel_hi177>

0000000080001e34 <.Lpcrel_hi175>:
80001e34: 00006517     	auipc	a0, 0x6
80001e38: ab450513     	addi	a0, a0, -0x54c
80001e3c: 00005097     	auipc	ra, 0x5
80001e40: 91c080e7     	jalr	-0x6e4(ra) <core::panicking::panic_null_pointer_dereference::hbac6411af4f2e916>

0000000080001e44 <.Lpcrel_hi176>:
80001e44: 00008517     	auipc	a0, 0x8
80001e48: 1cc50513     	addi	a0, a0, 0x1cc
80001e4c: 7d0c         	ld	a1, 0x38(a0)
80001e4e: 00158513     	addi	a0, a1, 0x1
80001e52: e82a         	sd	a0, 0x10(sp)
80001e54: 02b56163     	bltu	a0, a1, 0x80001e76 <.Lpcrel_hi179>
80001e58: a809         	j	0x80001e6a <.Lpcrel_hi178>

0000000080001e5a <.Lpcrel_hi177>:
80001e5a: 00006517     	auipc	a0, 0x6
80001e5e: aa650513     	addi	a0, a0, -0x55a
80001e62: 00005097     	auipc	ra, 0x5
80001e66: 8f6080e7     	jalr	-0x70a(ra) <core::panicking::panic_null_pointer_dereference::hbac6411af4f2e916>

0000000080001e6a <.Lpcrel_hi178>:
80001e6a: 00008517     	auipc	a0, 0x8
80001e6e: 1a650513     	addi	a0, a0, 0x1a6
80001e72: e911         	bnez	a0, 0x80001e86 <.Lpcrel_hi179+0x10>
80001e74: a0d9         	j	0x80001f3a <.Lpcrel_hi183>

0000000080001e76 <.Lpcrel_hi179>:
80001e76: 00006517     	auipc	a0, 0x6
80001e7a: a8a50513     	addi	a0, a0, -0x576
80001e7e: 00004097     	auipc	ra, 0x4
80001e82: 7f6080e7     	jalr	0x7f6(ra) <core::panicking::panic_const::panic_const_add_overflow::h67cba067093910f8>
80001e86: 6542         	ld	a0, 0x10(sp)

0000000080001e88 <.Lpcrel_hi180>:
80001e88: 00008597     	auipc	a1, 0x8
80001e8c: 18858593     	addi	a1, a1, 0x188
80001e90: fd88         	sd	a0, 0x38(a1)
80001e92: 7566         	ld	a0, 0x78(sp)
80001e94: 00002097     	auipc	ra, 0x2
80001e98: 710080e7     	jalr	0x710(ra) <lab4_kernel_task4::sfence_va::h2913b9c24c7f9939>
80001e9c: 10a8         	addi	a0, sp, 0x68
80001e9e: e92a         	sd	a0, 0x90(sp)
80001ea0: 1888         	addi	a0, sp, 0x70
80001ea2: ed2a         	sd	a0, 0x98(sp)
80001ea4: 18a8         	addi	a0, sp, 0x78
80001ea6: f12a         	sd	a0, 0xa0(sp)
80001ea8: 0108         	addi	a0, sp, 0x80
80001eaa: f52a         	sd	a0, 0xa8(sp)
80001eac: 0128         	addi	a0, sp, 0x88
80001eae: f92a         	sd	a0, 0xb0(sp)
80001eb0: 65ca         	ld	a1, 0x90(sp)
80001eb2: 0228         	addi	a0, sp, 0x108
80001eb4: ffffe097     	auipc	ra, 0xffffe
80001eb8: 3ee080e7     	jalr	0x3ee(ra) <core::fmt::rt::Argument::new_display::h72b9aae62486e176>
80001ebc: 65ea         	ld	a1, 0x98(sp)
80001ebe: 0a28         	addi	a0, sp, 0x118
80001ec0: ffffe097     	auipc	ra, 0xffffe
80001ec4: 3e2080e7     	jalr	0x3e2(ra) <core::fmt::rt::Argument::new_display::h72b9aae62486e176>
80001ec8: 758a         	ld	a1, 0xa0(sp)
80001eca: 1228         	addi	a0, sp, 0x128
80001ecc: ffffe097     	auipc	ra, 0xffffe
80001ed0: 45e080e7     	jalr	0x45e(ra) <core::fmt::rt::Argument::new_lower_hex::h2c3e51038c7990f0>
80001ed4: 75aa         	ld	a1, 0xa8(sp)
80001ed6: 1a28         	addi	a0, sp, 0x138
80001ed8: ffffe097     	auipc	ra, 0xffffe
80001edc: 452080e7     	jalr	0x452(ra) <core::fmt::rt::Argument::new_lower_hex::h2c3e51038c7990f0>
80001ee0: 75ca         	ld	a1, 0xb0(sp)
80001ee2: 02a8         	addi	a0, sp, 0x148
80001ee4: ffffe097     	auipc	ra, 0xffffe
80001ee8: 446080e7     	jalr	0x446(ra) <core::fmt::rt::Argument::new_lower_hex::h2c3e51038c7990f0>
80001eec: 6552         	ld	a0, 0x110(sp)
80001eee: e1aa         	sd	a0, 0xc0(sp)
80001ef0: 6532         	ld	a0, 0x108(sp)
80001ef2: fd2a         	sd	a0, 0xb8(sp)
80001ef4: 7512         	ld	a0, 0x120(sp)
80001ef6: e9aa         	sd	a0, 0xd0(sp)
80001ef8: 6572         	ld	a0, 0x118(sp)
80001efa: e5aa         	sd	a0, 0xc8(sp)
80001efc: 7552         	ld	a0, 0x130(sp)
80001efe: f1aa         	sd	a0, 0xe0(sp)
80001f00: 7532         	ld	a0, 0x128(sp)
80001f02: edaa         	sd	a0, 0xd8(sp)
80001f04: 6516         	ld	a0, 0x140(sp)
80001f06: f9aa         	sd	a0, 0xf0(sp)
80001f08: 7572         	ld	a0, 0x138(sp)
80001f0a: f5aa         	sd	a0, 0xe8(sp)
80001f0c: 6556         	ld	a0, 0x150(sp)
80001f0e: e22a         	sd	a0, 0x100(sp)
80001f10: 6536         	ld	a0, 0x148(sp)
80001f12: fdaa         	sd	a0, 0xf8(sp)

0000000080001f14 <.Lpcrel_hi181>:
80001f14: 00006517     	auipc	a0, 0x6
80001f18: a0450513     	addi	a0, a0, -0x5fc
80001f1c: 192c         	addi	a1, sp, 0xb8
80001f1e: ffffe097     	auipc	ra, 0xffffe
80001f22: 2d0080e7     	jalr	0x2d0(ra) <core::fmt::Arguments::new::h9ed89e7ec96c368f>
80001f26: 00003097     	auipc	ra, 0x3
80001f2a: 154080e7     	jalr	0x154(ra) <lab4_kernel_task4::console::print::h39762270f09f95ac>

0000000080001f2e <.Lpcrel_hi182>:
80001f2e: 00008517     	auipc	a0, 0x8
80001f32: 0da50513     	addi	a0, a0, 0xda
80001f36: e911         	bnez	a0, 0x80001f4a <.Lpcrel_hi184>
80001f38: a025         	j	0x80001f60 <.Lpcrel_hi185>

0000000080001f3a <.Lpcrel_hi183>:
80001f3a: 00006517     	auipc	a0, 0x6
80001f3e: 9c650513     	addi	a0, a0, -0x63a
80001f42: 00005097     	auipc	ra, 0x5
80001f46: 816080e7     	jalr	-0x7ea(ra) <core::panicking::panic_null_pointer_dereference::hbac6411af4f2e916>

0000000080001f4a <.Lpcrel_hi184>:
80001f4a: 00008517     	auipc	a0, 0x8
80001f4e: 0be50513     	addi	a0, a0, 0xbe
80001f52: 610c         	ld	a1, 0x0(a0)
80001f54: 00158513     	addi	a0, a1, 0x1
80001f58: e42a         	sd	a0, 0x8(sp)
80001f5a: 02b56163     	bltu	a0, a1, 0x80001f7c <.Lpcrel_hi187>
80001f5e: a809         	j	0x80001f70 <.Lpcrel_hi186>

0000000080001f60 <.Lpcrel_hi185>:
80001f60: 00006517     	auipc	a0, 0x6
80001f64: a1050513     	addi	a0, a0, -0x5f0
80001f68: 00004097     	auipc	ra, 0x4
80001f6c: 7f0080e7     	jalr	0x7f0(ra) <core::panicking::panic_null_pointer_dereference::hbac6411af4f2e916>

0000000080001f70 <.Lpcrel_hi186>:
80001f70: 00008517     	auipc	a0, 0x8
80001f74: 09850513     	addi	a0, a0, 0x98
80001f78: e911         	bnez	a0, 0x80001f8c <.Lpcrel_hi187+0x10>
80001f7a: a015         	j	0x80001f9e <.Lpcrel_hi189>

0000000080001f7c <.Lpcrel_hi187>:
80001f7c: 00006517     	auipc	a0, 0x6
80001f80: a0c50513     	addi	a0, a0, -0x5f4
80001f84: 00004097     	auipc	ra, 0x4
80001f88: 6f0080e7     	jalr	0x6f0(ra) <core::panicking::panic_const::panic_const_add_overflow::h67cba067093910f8>
80001f8c: 6522         	ld	a0, 0x8(sp)
80001f8e: 8905         	andi	a0, a0, 0x1

0000000080001f90 <.Lpcrel_hi188>:
80001f90: 00008597     	auipc	a1, 0x8
80001f94: 07858593     	addi	a1, a1, 0x78
80001f98: e188         	sd	a0, 0x0(a1)
80001f9a: ff8ff06f     	j	0x80001792 <.Lpcrel_hi98>

0000000080001f9e <.Lpcrel_hi189>:
80001f9e: 00006517     	auipc	a0, 0x6
80001fa2: a0250513     	addi	a0, a0, -0x5fe
80001fa6: 00004097     	auipc	ra, 0x4
80001faa: 7b2080e7     	jalr	0x7b2(ra) <core::panicking::panic_null_pointer_dereference::hbac6411af4f2e916>

0000000080001fae <lab4_kernel_task4::is_workingset_va::h9cb4f983a79a3e92>:
80001fae: 1101         	addi	sp, sp, -0x20
80001fb0: e42a         	sd	a0, 0x8(sp)
80001fb2: ec2a         	sd	a0, 0x18(sp)
80001fb4: 01055593     	srli	a1, a0, 0x10
80001fb8: 04000513     	li	a0, 0x40
80001fbc: 00b56763     	bltu	a0, a1, 0x80001fca <lab4_kernel_task4::is_workingset_va::h9cb4f983a79a3e92+0x1c>
80001fc0: a009         	j	0x80001fc2 <lab4_kernel_task4::is_workingset_va::h9cb4f983a79a3e92+0x14>
80001fc2: 4501         	li	a0, 0x0
80001fc4: 00a10ba3     	sb	a0, 0x17(sp)
80001fc8: a801         	j	0x80001fd8 <lab4_kernel_task4::is_workingset_va::h9cb4f983a79a3e92+0x2a>
80001fca: 6522         	ld	a0, 0x8(sp)
80001fcc: 8131         	srli	a0, a0, 0xc
80001fce: 41353513     	sltiu	a0, a0, 0x413
80001fd2: 00a10ba3     	sb	a0, 0x17(sp)
80001fd6: a009         	j	0x80001fd8 <lab4_kernel_task4::is_workingset_va::h9cb4f983a79a3e92+0x2a>
80001fd8: 01714503     	lbu	a0, 0x17(sp)
80001fdc: 6105         	addi	sp, sp, 0x20
80001fde: 8082         	ret

0000000080001fe0 <lab4_kernel_task4::kernel_stack_top::h9529a4b53c5f3e56>:
80001fe0: 0001d517     	auipc	a0, 0x1d
80001fe4: 02050513     	addi	a0, a0, 0x20
80001fe8: 8082         	ret

0000000080001fea <lab4_kernel_task4::pte_has_accessed::h391d6a54b64cf1cc>:
80001fea: 1141         	addi	sp, sp, -0x10
80001fec: e42a         	sd	a0, 0x8(sp)
80001fee: 1566         	slli	a0, a0, 0x39
80001ff0: 917d         	srli	a0, a0, 0x3f
80001ff2: 0141         	addi	sp, sp, 0x10
80001ff4: 8082         	ret

0000000080001ff6 <lab4_kernel_task4::user_l0_table_pa::hc93d6419a7715221>:
80001ff6: 00010517     	auipc	a0, 0x10
80001ffa: 00a50513     	addi	a0, a0, 0xa
80001ffe: 8082         	ret

0000000080002000 <lab4_kernel_task4::user_program_len::ha0c3d74b52c90387>:
80002000: ffffe517     	auipc	a0, 0xffffe
80002004: 61050593     	addi	a1, a0, 0x610

0000000080002008 <.Lpcrel_hi193>:
80002008: ffffe517     	auipc	a0, 0xffffe
8000200c: 6ac50513     	addi	a0, a0, 0x6ac
80002010: 00b56d63     	bltu	a0, a1, 0x8000202a <.Lpcrel_hi196>
80002014: a009         	j	0x80002016 <.Lpcrel_hi194>

0000000080002016 <.Lpcrel_hi194>:
80002016: ffffe517     	auipc	a0, 0xffffe
8000201a: 5fa50593     	addi	a1, a0, 0x5fa

000000008000201e <.Lpcrel_hi195>:
8000201e: ffffe517     	auipc	a0, 0xffffe
80002022: 69650513     	addi	a0, a0, 0x696
80002026: 8d0d         	sub	a0, a0, a1
80002028: 8082         	ret

000000008000202a <.Lpcrel_hi196>:
8000202a: 00006517     	auipc	a0, 0x6
8000202e: 98e50513     	addi	a0, a0, -0x672
80002032: 00004097     	auipc	ra, 0x4
80002036: 67e080e7     	jalr	0x67e(ra) <core::panicking::panic_const::panic_const_sub_overflow::hccc965ba9198de7c>

000000008000203a <lab4_kernel_task4::build_page_tables::h384b8099c6863126>:
8000203a: 7111         	addi	sp, sp, -0x100
8000203c: fd86         	sd	ra, 0xf8(sp)

000000008000203e <.Lpcrel_hi197>:
8000203e: 0000b517     	auipc	a0, 0xb
80002042: fc250513     	addi	a0, a0, -0x3e
80002046: fffff097     	auipc	ra, 0xfffff
8000204a: 69a080e7     	jalr	0x69a(ra) <lab4_kernel_task4::clear_page_table::he0e9878e3ceee23d>

000000008000204e <.Lpcrel_hi198>:
8000204e: 0000f517     	auipc	a0, 0xf
80002052: fb250513     	addi	a0, a0, -0x4e
80002056: fffff097     	auipc	ra, 0xfffff
8000205a: 68a080e7     	jalr	0x68a(ra) <lab4_kernel_task4::clear_page_table::he0e9878e3ceee23d>

000000008000205e <.Lpcrel_hi199>:
8000205e: 0000e517     	auipc	a0, 0xe
80002062: fa250513     	addi	a0, a0, -0x5e
80002066: fffff097     	auipc	ra, 0xfffff
8000206a: 67a080e7     	jalr	0x67a(ra) <lab4_kernel_task4::clear_page_table::he0e9878e3ceee23d>

000000008000206e <.Lpcrel_hi200>:
8000206e: 00010517     	auipc	a0, 0x10
80002072: f9250513     	addi	a0, a0, -0x6e
80002076: fffff097     	auipc	ra, 0xfffff
8000207a: 66a080e7     	jalr	0x66a(ra) <lab4_kernel_task4::clear_page_table::he0e9878e3ceee23d>

000000008000207e <.Lpcrel_hi201>:
8000207e: 00013517     	auipc	a0, 0x13
80002082: f8250513     	addi	a0, a0, -0x7e
80002086: fffff097     	auipc	ra, 0xfffff
8000208a: 65a080e7     	jalr	0x65a(ra) <lab4_kernel_task4::clear_page_table::he0e9878e3ceee23d>
8000208e: 00001097     	auipc	ra, 0x1
80002092: cf0080e7     	jalr	-0x310(ra) <lab4_kernel_task4::kernel_l1_table_pa::h82e15fca332ba91f>
80002096: 00002097     	auipc	ra, 0x2
8000209a: 51a080e7     	jalr	0x51a(ra) <lab4_kernel_task4::table_pte::h41fb0db8909288ec>
8000209e: fd2a         	sd	a0, 0xb8(sp)
800020a0: 4505         	li	a0, 0x1
800020a2: 057e         	slli	a0, a0, 0x1f
800020a4: fffff097     	auipc	ra, 0xfffff
800020a8: b12080e7     	jalr	-0x4ee(ra) <lab4_kernel_task4::vpn2_index::hc51a456bbebc8b25>
800020ac: 85aa         	mv	a1, a0
800020ae: 852e         	mv	a0, a1
800020b0: e1aa         	sd	a0, 0xc0(sp)
800020b2: 1ff00513     	li	a0, 0x1ff
800020b6: 00b56a63     	bltu	a0, a1, 0x800020ca <.Lpcrel_hi202+0xe>
800020ba: a009         	j	0x800020bc <.Lpcrel_hi202>

00000000800020bc <.Lpcrel_hi202>:
800020bc: 0000b517     	auipc	a0, 0xb
800020c0: f4450513     	addi	a0, a0, -0xbc
800020c4: 1552         	slli	a0, a0, 0x34
800020c6: cd09         	beqz	a0, 0x800020e0 <.Lpcrel_hi204>
800020c8: a015         	j	0x800020ec <.Lpcrel_hi205>
800020ca: 650e         	ld	a0, 0xc0(sp)

00000000800020cc <.Lpcrel_hi203>:
800020cc: 00006597     	auipc	a1, 0x6
800020d0: 90458613     	addi	a2, a1, -0x6fc
800020d4: 20000593     	li	a1, 0x200
800020d8: 00004097     	auipc	ra, 0x4
800020dc: 614080e7     	jalr	0x614(ra) <core::panicking::panic_bounds_check::h6aaee0d15e0261eb>

00000000800020e0 <.Lpcrel_hi204>:
800020e0: 0000b517     	auipc	a0, 0xb
800020e4: f2050513     	addi	a0, a0, -0xe0
800020e8: ed19         	bnez	a0, 0x80002106 <.Lpcrel_hi206+0x12>
800020ea: a8b1         	j	0x80002146 <.Lpcrel_hi208>

00000000800020ec <.Lpcrel_hi205>:
800020ec: 0000b517     	auipc	a0, 0xb
800020f0: f1450593     	addi	a1, a0, -0xec

00000000800020f4 <.Lpcrel_hi206>:
800020f4: 00006517     	auipc	a0, 0x6
800020f8: 8dc50613     	addi	a2, a0, -0x724
800020fc: 6505         	lui	a0, 0x1
800020fe: 00004097     	auipc	ra, 0x4
80002102: 67a080e7     	jalr	0x67a(ra) <core::panicking::panic_misaligned_pointer_dereference::hda85f7fb51d959f0>
80002106: 756a         	ld	a0, 0xb8(sp)
80002108: 658e         	ld	a1, 0xc0(sp)
8000210a: 00359613     	slli	a2, a1, 0x3

000000008000210e <.Lpcrel_hi207>:
8000210e: 0000b597     	auipc	a1, 0xb
80002112: ef258593     	addi	a1, a1, -0x10e
80002116: 95b2         	add	a1, a1, a2
80002118: e188         	sd	a0, 0x0(a1)
8000211a: fffff097     	auipc	ra, 0xfffff
8000211e: 4a2080e7     	jalr	0x4a2(ra) <lab4_kernel_task4::low_l1_table_pa::h13b1f67c7216d12b>
80002122: 00002097     	auipc	ra, 0x2
80002126: 48e080e7     	jalr	0x48e(ra) <lab4_kernel_task4::table_pte::h41fb0db8909288ec>
8000212a: f52a         	sd	a0, 0xa8(sp)
8000212c: 00400537     	lui	a0, 0x400
80002130: fffff097     	auipc	ra, 0xfffff
80002134: a86080e7     	jalr	-0x57a(ra) <lab4_kernel_task4::vpn2_index::hc51a456bbebc8b25>
80002138: 85aa         	mv	a1, a0
8000213a: f92e         	sd	a1, 0xb0(sp)
8000213c: 20000593     	li	a1, 0x200
80002140: 00b56b63     	bltu	a0, a1, 0x80002156 <.Lpcrel_hi209>
80002144: a005         	j	0x80002164 <.Lpcrel_hi209+0xe>

0000000080002146 <.Lpcrel_hi208>:
80002146: 00006517     	auipc	a0, 0x6
8000214a: 88a50513     	addi	a0, a0, -0x776
8000214e: 00004097     	auipc	ra, 0x4
80002152: 60a080e7     	jalr	0x60a(ra) <core::panicking::panic_null_pointer_dereference::hbac6411af4f2e916>

0000000080002156 <.Lpcrel_hi209>:
80002156: 0000b517     	auipc	a0, 0xb
8000215a: eaa50513     	addi	a0, a0, -0x156
8000215e: 1552         	slli	a0, a0, 0x34
80002160: cd09         	beqz	a0, 0x8000217a <.Lpcrel_hi211>
80002162: a015         	j	0x80002186 <.Lpcrel_hi212>
80002164: 754a         	ld	a0, 0xb0(sp)

0000000080002166 <.Lpcrel_hi210>:
80002166: 00006597     	auipc	a1, 0x6
8000216a: 88258613     	addi	a2, a1, -0x77e
8000216e: 20000593     	li	a1, 0x200
80002172: 00004097     	auipc	ra, 0x4
80002176: 57a080e7     	jalr	0x57a(ra) <core::panicking::panic_bounds_check::h6aaee0d15e0261eb>

000000008000217a <.Lpcrel_hi211>:
8000217a: 0000b517     	auipc	a0, 0xb
8000217e: e8650513     	addi	a0, a0, -0x17a
80002182: ed19         	bnez	a0, 0x800021a0 <.Lpcrel_hi213+0x12>
80002184: a8b1         	j	0x800021e0 <.Lpcrel_hi215>

0000000080002186 <.Lpcrel_hi212>:
80002186: 0000b517     	auipc	a0, 0xb
8000218a: e7a50593     	addi	a1, a0, -0x186

000000008000218e <.Lpcrel_hi213>:
8000218e: 00006517     	auipc	a0, 0x6
80002192: 85a50613     	addi	a2, a0, -0x7a6
80002196: 6505         	lui	a0, 0x1
80002198: 00004097     	auipc	ra, 0x4
8000219c: 5e0080e7     	jalr	0x5e0(ra) <core::panicking::panic_misaligned_pointer_dereference::hda85f7fb51d959f0>
800021a0: 752a         	ld	a0, 0xa8(sp)
800021a2: 75ca         	ld	a1, 0xb0(sp)
800021a4: 00359613     	slli	a2, a1, 0x3

00000000800021a8 <.Lpcrel_hi214>:
800021a8: 0000b597     	auipc	a1, 0xb
800021ac: e5858593     	addi	a1, a1, -0x1a8
800021b0: 95b2         	add	a1, a1, a2
800021b2: e188         	sd	a0, 0x0(a1)
800021b4: fffff097     	auipc	ra, 0xfffff
800021b8: 348080e7     	jalr	0x348(ra) <lab4_kernel_task4::dev_l0_table_pa::h208a9438776e19b4>
800021bc: 00002097     	auipc	ra, 0x2
800021c0: 3f4080e7     	jalr	0x3f4(ra) <lab4_kernel_task4::table_pte::h41fb0db8909288ec>
800021c4: ed2a         	sd	a0, 0x98(sp)
800021c6: 00100537     	lui	a0, 0x100
800021ca: fffff097     	auipc	ra, 0xfffff
800021ce: 9e0080e7     	jalr	-0x620(ra) <lab4_kernel_task4::vpn1_index::h5d72917a9159dda6>
800021d2: 85aa         	mv	a1, a0
800021d4: f12e         	sd	a1, 0xa0(sp)
800021d6: 20000593     	li	a1, 0x200
800021da: 00b56b63     	bltu	a0, a1, 0x800021f0 <.Lpcrel_hi216>
800021de: a005         	j	0x800021fe <.Lpcrel_hi216+0xe>

00000000800021e0 <.Lpcrel_hi215>:
800021e0: 00006517     	auipc	a0, 0x6
800021e4: 80850513     	addi	a0, a0, -0x7f8
800021e8: 00004097     	auipc	ra, 0x4
800021ec: 570080e7     	jalr	0x570(ra) <core::panicking::panic_null_pointer_dereference::hbac6411af4f2e916>

00000000800021f0 <.Lpcrel_hi216>:
800021f0: 0000f517     	auipc	a0, 0xf
800021f4: e1050513     	addi	a0, a0, -0x1f0
800021f8: 1552         	slli	a0, a0, 0x34
800021fa: cd09         	beqz	a0, 0x80002214 <.Lpcrel_hi218>
800021fc: a015         	j	0x80002220 <.Lpcrel_hi219>
800021fe: 750a         	ld	a0, 0xa0(sp)

0000000080002200 <.Lpcrel_hi217>:
80002200: 00006597     	auipc	a1, 0x6
80002204: 80058613     	addi	a2, a1, -0x800
80002208: 20000593     	li	a1, 0x200
8000220c: 00004097     	auipc	ra, 0x4
80002210: 4e0080e7     	jalr	0x4e0(ra) <core::panicking::panic_bounds_check::h6aaee0d15e0261eb>

0000000080002214 <.Lpcrel_hi218>:
80002214: 0000f517     	auipc	a0, 0xf
80002218: dec50513     	addi	a0, a0, -0x214
8000221c: ed19         	bnez	a0, 0x8000223a <.Lpcrel_hi220+0x12>
8000221e: a8b9         	j	0x8000227c <.Lpcrel_hi222>

0000000080002220 <.Lpcrel_hi219>:
80002220: 0000f517     	auipc	a0, 0xf
80002224: de050593     	addi	a1, a0, -0x220

0000000080002228 <.Lpcrel_hi220>:
80002228: 00005517     	auipc	a0, 0x5
8000222c: 7d850613     	addi	a2, a0, 0x7d8
80002230: 6505         	lui	a0, 0x1
80002232: 00004097     	auipc	ra, 0x4
80002236: 546080e7     	jalr	0x546(ra) <core::panicking::panic_misaligned_pointer_dereference::hda85f7fb51d959f0>
8000223a: 656a         	ld	a0, 0x98(sp)
8000223c: 758a         	ld	a1, 0xa0(sp)
8000223e: 00359613     	slli	a2, a1, 0x3

0000000080002242 <.Lpcrel_hi221>:
80002242: 0000f597     	auipc	a1, 0xf
80002246: dbe58593     	addi	a1, a1, -0x242
8000224a: 95b2         	add	a1, a1, a2
8000224c: e188         	sd	a0, 0x0(a1)
8000224e: 00100537     	lui	a0, 0x100
80002252: e12a         	sd	a0, 0x80(sp)
80002254: 0c600593     	li	a1, 0xc6
80002258: 00002097     	auipc	ra, 0x2
8000225c: 1bc080e7     	jalr	0x1bc(ra) <lab4_kernel_task4::leaf_pte::hd9fa8dd091968985>
80002260: 85aa         	mv	a1, a0
80002262: 650a         	ld	a0, 0x80(sp)
80002264: e52e         	sd	a1, 0x88(sp)
80002266: fffff097     	auipc	ra, 0xfffff
8000226a: 938080e7     	jalr	-0x6c8(ra) <lab4_kernel_task4::vpn0_index::h62e57f18e5f43d5f>
8000226e: 85aa         	mv	a1, a0
80002270: e92e         	sd	a1, 0x90(sp)
80002272: 20000593     	li	a1, 0x200
80002276: 00b56b63     	bltu	a0, a1, 0x8000228c <.Lpcrel_hi223>
8000227a: a005         	j	0x8000229a <.Lpcrel_hi223+0xe>

000000008000227c <.Lpcrel_hi222>:
8000227c: 00005517     	auipc	a0, 0x5
80002280: 78450513     	addi	a0, a0, 0x784
80002284: 00004097     	auipc	ra, 0x4
80002288: 4d4080e7     	jalr	0x4d4(ra) <core::panicking::panic_null_pointer_dereference::hbac6411af4f2e916>

000000008000228c <.Lpcrel_hi223>:
8000228c: 0000e517     	auipc	a0, 0xe
80002290: d7450513     	addi	a0, a0, -0x28c
80002294: 1552         	slli	a0, a0, 0x34
80002296: cd09         	beqz	a0, 0x800022b0 <.Lpcrel_hi225>
80002298: a015         	j	0x800022bc <.Lpcrel_hi226>
8000229a: 654a         	ld	a0, 0x90(sp)

000000008000229c <.Lpcrel_hi224>:
8000229c: 00005597     	auipc	a1, 0x5
800022a0: 77c58613     	addi	a2, a1, 0x77c
800022a4: 20000593     	li	a1, 0x200
800022a8: 00004097     	auipc	ra, 0x4
800022ac: 444080e7     	jalr	0x444(ra) <core::panicking::panic_bounds_check::h6aaee0d15e0261eb>

00000000800022b0 <.Lpcrel_hi225>:
800022b0: 0000e517     	auipc	a0, 0xe
800022b4: d5050513     	addi	a0, a0, -0x2b0
800022b8: ed19         	bnez	a0, 0x800022d6 <.Lpcrel_hi227+0x12>
800022ba: a8b9         	j	0x80002318 <.Lpcrel_hi229>

00000000800022bc <.Lpcrel_hi226>:
800022bc: 0000e517     	auipc	a0, 0xe
800022c0: d4450593     	addi	a1, a0, -0x2bc

00000000800022c4 <.Lpcrel_hi227>:
800022c4: 00005517     	auipc	a0, 0x5
800022c8: 75450613     	addi	a2, a0, 0x754
800022cc: 6505         	lui	a0, 0x1
800022ce: 00004097     	auipc	ra, 0x4
800022d2: 4aa080e7     	jalr	0x4aa(ra) <core::panicking::panic_misaligned_pointer_dereference::hda85f7fb51d959f0>
800022d6: 652a         	ld	a0, 0x88(sp)
800022d8: 65ca         	ld	a1, 0x90(sp)
800022da: 00359613     	slli	a2, a1, 0x3

00000000800022de <.Lpcrel_hi228>:
800022de: 0000e597     	auipc	a1, 0xe
800022e2: d2258593     	addi	a1, a1, -0x2de
800022e6: 95b2         	add	a1, a1, a2
800022e8: e188         	sd	a0, 0x0(a1)
800022ea: 10000537     	lui	a0, 0x10000
800022ee: f4aa         	sd	a0, 0x68(sp)
800022f0: 0c600593     	li	a1, 0xc6
800022f4: 00002097     	auipc	ra, 0x2
800022f8: 120080e7     	jalr	0x120(ra) <lab4_kernel_task4::leaf_pte::hd9fa8dd091968985>
800022fc: 85aa         	mv	a1, a0
800022fe: 7526         	ld	a0, 0x68(sp)
80002300: f8ae         	sd	a1, 0x70(sp)
80002302: fffff097     	auipc	ra, 0xfffff
80002306: 8a8080e7     	jalr	-0x758(ra) <lab4_kernel_task4::vpn1_index::h5d72917a9159dda6>
8000230a: 85aa         	mv	a1, a0
8000230c: fcae         	sd	a1, 0x78(sp)
8000230e: 20000593     	li	a1, 0x200
80002312: 00b56b63     	bltu	a0, a1, 0x80002328 <.Lpcrel_hi230>
80002316: a005         	j	0x80002336 <.Lpcrel_hi230+0xe>

0000000080002318 <.Lpcrel_hi229>:
80002318: 00005517     	auipc	a0, 0x5
8000231c: 70050513     	addi	a0, a0, 0x700
80002320: 00004097     	auipc	ra, 0x4
80002324: 438080e7     	jalr	0x438(ra) <core::panicking::panic_null_pointer_dereference::hbac6411af4f2e916>

0000000080002328 <.Lpcrel_hi230>:
80002328: 0000f517     	auipc	a0, 0xf
8000232c: cd850513     	addi	a0, a0, -0x328
80002330: 1552         	slli	a0, a0, 0x34
80002332: cd09         	beqz	a0, 0x8000234c <.Lpcrel_hi232>
80002334: a015         	j	0x80002358 <.Lpcrel_hi233>
80002336: 7566         	ld	a0, 0x78(sp)

0000000080002338 <.Lpcrel_hi231>:
80002338: 00005597     	auipc	a1, 0x5
8000233c: 6f858613     	addi	a2, a1, 0x6f8
80002340: 20000593     	li	a1, 0x200
80002344: 00004097     	auipc	ra, 0x4
80002348: 3a8080e7     	jalr	0x3a8(ra) <core::panicking::panic_bounds_check::h6aaee0d15e0261eb>

000000008000234c <.Lpcrel_hi232>:
8000234c: 0000f517     	auipc	a0, 0xf
80002350: cb450513     	addi	a0, a0, -0x34c
80002354: ed19         	bnez	a0, 0x80002372 <.Lpcrel_hi234+0x12>
80002356: a8b1         	j	0x800023b2 <.Lpcrel_hi236>

0000000080002358 <.Lpcrel_hi233>:
80002358: 0000f517     	auipc	a0, 0xf
8000235c: ca850593     	addi	a1, a0, -0x358

0000000080002360 <.Lpcrel_hi234>:
80002360: 00005517     	auipc	a0, 0x5
80002364: 6d050613     	addi	a2, a0, 0x6d0
80002368: 6505         	lui	a0, 0x1
8000236a: 00004097     	auipc	ra, 0x4
8000236e: 40e080e7     	jalr	0x40e(ra) <core::panicking::panic_misaligned_pointer_dereference::hda85f7fb51d959f0>
80002372: 7546         	ld	a0, 0x70(sp)
80002374: 75e6         	ld	a1, 0x78(sp)
80002376: 00359613     	slli	a2, a1, 0x3

000000008000237a <.Lpcrel_hi235>:
8000237a: 0000f597     	auipc	a1, 0xf
8000237e: c8658593     	addi	a1, a1, -0x37a
80002382: 95b2         	add	a1, a1, a2
80002384: e188         	sd	a0, 0x0(a1)
80002386: 00000097     	auipc	ra, 0x0
8000238a: c70080e7     	jalr	-0x390(ra) <lab4_kernel_task4::user_l0_table_pa::hc93d6419a7715221>
8000238e: 00002097     	auipc	ra, 0x2
80002392: 222080e7     	jalr	0x222(ra) <lab4_kernel_task4::table_pte::h41fb0db8909288ec>
80002396: ecaa         	sd	a0, 0x58(sp)
80002398: 00400537     	lui	a0, 0x400
8000239c: fffff097     	auipc	ra, 0xfffff
800023a0: 80e080e7     	jalr	-0x7f2(ra) <lab4_kernel_task4::vpn1_index::h5d72917a9159dda6>
800023a4: 85aa         	mv	a1, a0
800023a6: f0ae         	sd	a1, 0x60(sp)
800023a8: 20000593     	li	a1, 0x200
800023ac: 00b56b63     	bltu	a0, a1, 0x800023c2 <.Lpcrel_hi237>
800023b0: a005         	j	0x800023d0 <.Lpcrel_hi237+0xe>

00000000800023b2 <.Lpcrel_hi236>:
800023b2: 00005517     	auipc	a0, 0x5
800023b6: 67e50513     	addi	a0, a0, 0x67e
800023ba: 00004097     	auipc	ra, 0x4
800023be: 39e080e7     	jalr	0x39e(ra) <core::panicking::panic_null_pointer_dereference::hbac6411af4f2e916>

00000000800023c2 <.Lpcrel_hi237>:
800023c2: 0000f517     	auipc	a0, 0xf
800023c6: c3e50513     	addi	a0, a0, -0x3c2
800023ca: 1552         	slli	a0, a0, 0x34
800023cc: cd09         	beqz	a0, 0x800023e6 <.Lpcrel_hi239>
800023ce: a015         	j	0x800023f2 <.Lpcrel_hi240>
800023d0: 7506         	ld	a0, 0x60(sp)

00000000800023d2 <.Lpcrel_hi238>:
800023d2: 00005597     	auipc	a1, 0x5
800023d6: 67658613     	addi	a2, a1, 0x676
800023da: 20000593     	li	a1, 0x200
800023de: 00004097     	auipc	ra, 0x4
800023e2: 30e080e7     	jalr	0x30e(ra) <core::panicking::panic_bounds_check::h6aaee0d15e0261eb>

00000000800023e6 <.Lpcrel_hi239>:
800023e6: 0000f517     	auipc	a0, 0xf
800023ea: c1a50513     	addi	a0, a0, -0x3e6
800023ee: ed19         	bnez	a0, 0x8000240c <.Lpcrel_hi241+0x12>
800023f0: a085         	j	0x80002450 <.Lpcrel_hi243>

00000000800023f2 <.Lpcrel_hi240>:
800023f2: 0000f517     	auipc	a0, 0xf
800023f6: c0e50593     	addi	a1, a0, -0x3f2

00000000800023fa <.Lpcrel_hi241>:
800023fa: 00005517     	auipc	a0, 0x5
800023fe: 64e50613     	addi	a2, a0, 0x64e
80002402: 6505         	lui	a0, 0x1
80002404: 00004097     	auipc	ra, 0x4
80002408: 374080e7     	jalr	0x374(ra) <core::panicking::panic_misaligned_pointer_dereference::hda85f7fb51d959f0>
8000240c: 6566         	ld	a0, 0x58(sp)
8000240e: 7586         	ld	a1, 0x60(sp)
80002410: 00359613     	slli	a2, a1, 0x3

0000000080002414 <.Lpcrel_hi242>:
80002414: 0000f597     	auipc	a1, 0xf
80002418: bec58593     	addi	a1, a1, -0x414
8000241c: 95b2         	add	a1, a1, a2
8000241e: e188         	sd	a0, 0x0(a1)
80002420: 00000097     	auipc	ra, 0x0
80002424: 468080e7     	jalr	0x468(ra) <lab4_kernel_task4::user_code_page_pa::h4bcb29c3ed112e9b>
80002428: 05a00593     	li	a1, 0x5a
8000242c: 00002097     	auipc	ra, 0x2
80002430: fe8080e7     	jalr	-0x18(ra) <lab4_kernel_task4::leaf_pte::hd9fa8dd091968985>
80002434: e4aa         	sd	a0, 0x48(sp)
80002436: 00400537     	lui	a0, 0x400
8000243a: ffffe097     	auipc	ra, 0xffffe
8000243e: 764080e7     	jalr	0x764(ra) <lab4_kernel_task4::vpn0_index::h62e57f18e5f43d5f>
80002442: 85aa         	mv	a1, a0
80002444: e8ae         	sd	a1, 0x50(sp)
80002446: 20000593     	li	a1, 0x200
8000244a: 00b56b63     	bltu	a0, a1, 0x80002460 <.Lpcrel_hi244>
8000244e: a005         	j	0x8000246e <.Lpcrel_hi244+0xe>

0000000080002450 <.Lpcrel_hi243>:
80002450: 00005517     	auipc	a0, 0x5
80002454: 5f850513     	addi	a0, a0, 0x5f8
80002458: 00004097     	auipc	ra, 0x4
8000245c: 300080e7     	jalr	0x300(ra) <core::panicking::panic_null_pointer_dereference::hbac6411af4f2e916>

0000000080002460 <.Lpcrel_hi244>:
80002460: 00010517     	auipc	a0, 0x10
80002464: ba050513     	addi	a0, a0, -0x460
80002468: 1552         	slli	a0, a0, 0x34
8000246a: cd09         	beqz	a0, 0x80002484 <.Lpcrel_hi246>
8000246c: a015         	j	0x80002490 <.Lpcrel_hi247>
8000246e: 6546         	ld	a0, 0x50(sp)

0000000080002470 <.Lpcrel_hi245>:
80002470: 00005597     	auipc	a1, 0x5
80002474: 5f058613     	addi	a2, a1, 0x5f0
80002478: 20000593     	li	a1, 0x200
8000247c: 00004097     	auipc	ra, 0x4
80002480: 270080e7     	jalr	0x270(ra) <core::panicking::panic_bounds_check::h6aaee0d15e0261eb>

0000000080002484 <.Lpcrel_hi246>:
80002484: 00010517     	auipc	a0, 0x10
80002488: b7c50513     	addi	a0, a0, -0x484
8000248c: ed19         	bnez	a0, 0x800024aa <.Lpcrel_hi248+0x12>
8000248e: a085         	j	0x800024ee <.Lpcrel_hi250>

0000000080002490 <.Lpcrel_hi247>:
80002490: 00010517     	auipc	a0, 0x10
80002494: b7050593     	addi	a1, a0, -0x490

0000000080002498 <.Lpcrel_hi248>:
80002498: 00005517     	auipc	a0, 0x5
8000249c: 5c850613     	addi	a2, a0, 0x5c8
800024a0: 6505         	lui	a0, 0x1
800024a2: 00004097     	auipc	ra, 0x4
800024a6: 2d6080e7     	jalr	0x2d6(ra) <core::panicking::panic_misaligned_pointer_dereference::hda85f7fb51d959f0>
800024aa: 6526         	ld	a0, 0x48(sp)
800024ac: 65c6         	ld	a1, 0x50(sp)
800024ae: 00359613     	slli	a2, a1, 0x3

00000000800024b2 <.Lpcrel_hi249>:
800024b2: 00010597     	auipc	a1, 0x10
800024b6: b4e58593     	addi	a1, a1, -0x4b2
800024ba: 95b2         	add	a1, a1, a2
800024bc: e188         	sd	a0, 0x0(a1)
800024be: 00002097     	auipc	ra, 0x2
800024c2: a5e080e7     	jalr	-0x5a2(ra) <lab4_kernel_task4::user_shared_page_pa::hc3421eb889e20e14>
800024c6: 0d600593     	li	a1, 0xd6
800024ca: 00002097     	auipc	ra, 0x2
800024ce: f4a080e7     	jalr	-0xb6(ra) <lab4_kernel_task4::leaf_pte::hd9fa8dd091968985>
800024d2: fc2a         	sd	a0, 0x38(sp)
800024d4: 00401537     	lui	a0, 0x401
800024d8: ffffe097     	auipc	ra, 0xffffe
800024dc: 6c6080e7     	jalr	0x6c6(ra) <lab4_kernel_task4::vpn0_index::h62e57f18e5f43d5f>
800024e0: 85aa         	mv	a1, a0
800024e2: e0ae         	sd	a1, 0x40(sp)
800024e4: 20000593     	li	a1, 0x200
800024e8: 00b56b63     	bltu	a0, a1, 0x800024fe <.Lpcrel_hi251>
800024ec: a005         	j	0x8000250c <.Lpcrel_hi251+0xe>

00000000800024ee <.Lpcrel_hi250>:
800024ee: 00005517     	auipc	a0, 0x5
800024f2: 57250513     	addi	a0, a0, 0x572
800024f6: 00004097     	auipc	ra, 0x4
800024fa: 262080e7     	jalr	0x262(ra) <core::panicking::panic_null_pointer_dereference::hbac6411af4f2e916>

00000000800024fe <.Lpcrel_hi251>:
800024fe: 00010517     	auipc	a0, 0x10
80002502: b0250513     	addi	a0, a0, -0x4fe
80002506: 1552         	slli	a0, a0, 0x34
80002508: cd09         	beqz	a0, 0x80002522 <.Lpcrel_hi253>
8000250a: a015         	j	0x8000252e <.Lpcrel_hi254>
8000250c: 6506         	ld	a0, 0x40(sp)

000000008000250e <.Lpcrel_hi252>:
8000250e: 00005597     	auipc	a1, 0x5
80002512: 56a58613     	addi	a2, a1, 0x56a
80002516: 20000593     	li	a1, 0x200
8000251a: 00004097     	auipc	ra, 0x4
8000251e: 1d2080e7     	jalr	0x1d2(ra) <core::panicking::panic_bounds_check::h6aaee0d15e0261eb>

0000000080002522 <.Lpcrel_hi253>:
80002522: 00010517     	auipc	a0, 0x10
80002526: ade50513     	addi	a0, a0, -0x522
8000252a: ed19         	bnez	a0, 0x80002548 <.Lpcrel_hi255+0x12>
8000252c: a085         	j	0x8000258c <.Lpcrel_hi257>

000000008000252e <.Lpcrel_hi254>:
8000252e: 00010517     	auipc	a0, 0x10
80002532: ad250593     	addi	a1, a0, -0x52e

0000000080002536 <.Lpcrel_hi255>:
80002536: 00005517     	auipc	a0, 0x5
8000253a: 54250613     	addi	a2, a0, 0x542
8000253e: 6505         	lui	a0, 0x1
80002540: 00004097     	auipc	ra, 0x4
80002544: 238080e7     	jalr	0x238(ra) <core::panicking::panic_misaligned_pointer_dereference::hda85f7fb51d959f0>
80002548: 7562         	ld	a0, 0x38(sp)
8000254a: 6586         	ld	a1, 0x40(sp)
8000254c: 00359613     	slli	a2, a1, 0x3

0000000080002550 <.Lpcrel_hi256>:
80002550: 00010597     	auipc	a1, 0x10
80002554: ab058593     	addi	a1, a1, -0x550
80002558: 95b2         	add	a1, a1, a2
8000255a: e188         	sd	a0, 0x0(a1)
8000255c: 00001097     	auipc	ra, 0x1
80002560: c70080e7     	jalr	-0x390(ra) <lab4_kernel_task4::user_stack_page_pa::he569a8dcac626282>
80002564: 0d600593     	li	a1, 0xd6
80002568: 00002097     	auipc	ra, 0x2
8000256c: eac080e7     	jalr	-0x154(ra) <lab4_kernel_task4::leaf_pte::hd9fa8dd091968985>
80002570: f42a         	sd	a0, 0x28(sp)
80002572: 00402537     	lui	a0, 0x402
80002576: ffffe097     	auipc	ra, 0xffffe
8000257a: 628080e7     	jalr	0x628(ra) <lab4_kernel_task4::vpn0_index::h62e57f18e5f43d5f>
8000257e: 85aa         	mv	a1, a0
80002580: f82e         	sd	a1, 0x30(sp)
80002582: 20000593     	li	a1, 0x200
80002586: 00b56b63     	bltu	a0, a1, 0x8000259c <.Lpcrel_hi258>
8000258a: a005         	j	0x800025aa <.Lpcrel_hi258+0xe>

000000008000258c <.Lpcrel_hi257>:
8000258c: 00005517     	auipc	a0, 0x5
80002590: 4ec50513     	addi	a0, a0, 0x4ec
80002594: 00004097     	auipc	ra, 0x4
80002598: 1c4080e7     	jalr	0x1c4(ra) <core::panicking::panic_null_pointer_dereference::hbac6411af4f2e916>

000000008000259c <.Lpcrel_hi258>:
8000259c: 00010517     	auipc	a0, 0x10
800025a0: a6450513     	addi	a0, a0, -0x59c
800025a4: 1552         	slli	a0, a0, 0x34
800025a6: cd09         	beqz	a0, 0x800025c0 <.Lpcrel_hi260>
800025a8: a015         	j	0x800025cc <.Lpcrel_hi261>
800025aa: 7542         	ld	a0, 0x30(sp)

00000000800025ac <.Lpcrel_hi259>:
800025ac: 00005597     	auipc	a1, 0x5
800025b0: 4e458613     	addi	a2, a1, 0x4e4
800025b4: 20000593     	li	a1, 0x200
800025b8: 00004097     	auipc	ra, 0x4
800025bc: 134080e7     	jalr	0x134(ra) <core::panicking::panic_bounds_check::h6aaee0d15e0261eb>

00000000800025c0 <.Lpcrel_hi260>:
800025c0: 00010517     	auipc	a0, 0x10
800025c4: a4050513     	addi	a0, a0, -0x5c0
800025c8: ed19         	bnez	a0, 0x800025e6 <.Lpcrel_hi262+0x12>
800025ca: a089         	j	0x8000260c <.Lpcrel_hi264>

00000000800025cc <.Lpcrel_hi261>:
800025cc: 00010517     	auipc	a0, 0x10
800025d0: a3450593     	addi	a1, a0, -0x5cc

00000000800025d4 <.Lpcrel_hi262>:
800025d4: 00005517     	auipc	a0, 0x5
800025d8: 4bc50613     	addi	a2, a0, 0x4bc
800025dc: 6505         	lui	a0, 0x1
800025de: 00004097     	auipc	ra, 0x4
800025e2: 19a080e7     	jalr	0x19a(ra) <core::panicking::panic_misaligned_pointer_dereference::hda85f7fb51d959f0>
800025e6: 7522         	ld	a0, 0x28(sp)
800025e8: 75c2         	ld	a1, 0x30(sp)
800025ea: 00359613     	slli	a2, a1, 0x3

00000000800025ee <.Lpcrel_hi263>:
800025ee: 00010597     	auipc	a1, 0x10
800025f2: a1258593     	addi	a1, a1, -0x5ee
800025f6: 95b2         	add	a1, a1, a2
800025f8: e188         	sd	a0, 0x0(a1)
800025fa: 4501         	li	a0, 0x0
800025fc: 45a1         	li	a1, 0x8
800025fe: ffffe097     	auipc	ra, 0xffffe
80002602: d84080e7     	jalr	-0x27c(ra) <_$LT$I$u20$as$u20$core..iter..traits..collect..IntoIterator$GT$::into_iter::hfb4e8047a0c34837>
80002606: e5aa         	sd	a0, 0xc8(sp)
80002608: e9ae         	sd	a1, 0xd0(sp)
8000260a: a809         	j	0x8000261c <.Lpcrel_hi264+0x10>

000000008000260c <.Lpcrel_hi264>:
8000260c: 00005517     	auipc	a0, 0x5
80002610: 48450513     	addi	a0, a0, 0x484
80002614: 00004097     	auipc	ra, 0x4
80002618: 144080e7     	jalr	0x144(ra) <core::panicking::panic_null_pointer_dereference::hbac6411af4f2e916>
8000261c: 01a8         	addi	a0, sp, 0xc8
8000261e: ffffe097     	auipc	ra, 0xffffe
80002622: d50080e7     	jalr	-0x2b0(ra) <core::iter::range::_$LT$impl$u20$core..iter..traits..iterator..Iterator$u20$for$u20$core..ops..range..Range$LT$A$GT$$GT$::next::h2b4844740963e1ba>
80002626: edaa         	sd	a0, 0xd8(sp)
80002628: f1ae         	sd	a1, 0xe0(sp)
8000262a: 656e         	ld	a0, 0xd8(sp)
8000262c: 8905         	andi	a0, a0, 0x1
8000262e: cd01         	beqz	a0, 0x80002646 <.Lpcrel_hi264+0x3a>
80002630: a009         	j	0x80002632 <.Lpcrel_hi264+0x26>
80002632: 758e         	ld	a1, 0xe0(sp)
80002634: ec2e         	sd	a1, 0x18(sp)
80002636: f5ae         	sd	a1, 0xe8(sp)
80002638: 01559513     	slli	a0, a1, 0x15
8000263c: f02a         	sd	a0, 0x20(sp)
8000263e: 8155         	srli	a0, a0, 0x15
80002640: 00b51e63     	bne	a0, a1, 0x8000265c <.Lpcrel_hi265>
80002644: a021         	j	0x8000264c <.Lpcrel_hi264+0x40>
80002646: 70ee         	ld	ra, 0xf8(sp)
80002648: 6111         	addi	sp, sp, 0x100
8000264a: 8082         	ret
8000264c: 7502         	ld	a0, 0x20(sp)
8000264e: 800005b7     	lui	a1, 0x80000
80002652: 8d0d         	sub	a0, a0, a1
80002654: e82a         	sd	a0, 0x10(sp)
80002656: 817d         	srli	a0, a0, 0x1f
80002658: cd05         	beqz	a0, 0x80002690 <.Lpcrel_hi266>
8000265a: a809         	j	0x8000266c <.Lpcrel_hi265+0x10>

000000008000265c <.Lpcrel_hi265>:
8000265c: 00005517     	auipc	a0, 0x5
80002660: 44c50513     	addi	a0, a0, 0x44c
80002664: 00004097     	auipc	ra, 0x4
80002668: 02e080e7     	jalr	0x2e(ra) <core::panicking::panic_const::panic_const_mul_overflow::h67897feae7531d51>
8000266c: 6542         	ld	a0, 0x10(sp)
8000266e: f9aa         	sd	a0, 0xf0(sp)
80002670: 0ce00593     	li	a1, 0xce
80002674: 00002097     	auipc	ra, 0x2
80002678: da0080e7     	jalr	-0x260(ra) <lab4_kernel_task4::leaf_pte::hd9fa8dd091968985>
8000267c: 85aa         	mv	a1, a0
8000267e: 6562         	ld	a0, 0x18(sp)
80002680: e02e         	sd	a1, 0x0(sp)
80002682: 20000593     	li	a1, 0x200
80002686: 862a         	mv	a2, a0
80002688: e432         	sd	a2, 0x8(sp)
8000268a: 00b56b63     	bltu	a0, a1, 0x800026a0 <.Lpcrel_hi267>
8000268e: a005         	j	0x800026ae <.Lpcrel_hi267+0xe>

0000000080002690 <.Lpcrel_hi266>:
80002690: 00005517     	auipc	a0, 0x5
80002694: 43050513     	addi	a0, a0, 0x430
80002698: 00004097     	auipc	ra, 0x4
8000269c: fdc080e7     	jalr	-0x24(ra) <core::panicking::panic_const::panic_const_add_overflow::h67cba067093910f8>

00000000800026a0 <.Lpcrel_hi267>:
800026a0: 00013517     	auipc	a0, 0x13
800026a4: 96050513     	addi	a0, a0, -0x6a0
800026a8: 1552         	slli	a0, a0, 0x34
800026aa: cd09         	beqz	a0, 0x800026c4 <.Lpcrel_hi269>
800026ac: a015         	j	0x800026d0 <.Lpcrel_hi270>
800026ae: 6522         	ld	a0, 0x8(sp)

00000000800026b0 <.Lpcrel_hi268>:
800026b0: 00005597     	auipc	a1, 0x5
800026b4: 42858613     	addi	a2, a1, 0x428
800026b8: 20000593     	li	a1, 0x200
800026bc: 00004097     	auipc	ra, 0x4
800026c0: 030080e7     	jalr	0x30(ra) <core::panicking::panic_bounds_check::h6aaee0d15e0261eb>

00000000800026c4 <.Lpcrel_hi269>:
800026c4: 00013517     	auipc	a0, 0x13
800026c8: 93c50513     	addi	a0, a0, -0x6c4
800026cc: ed19         	bnez	a0, 0x800026ea <.Lpcrel_hi271+0x12>
800026ce: a80d         	j	0x80002700 <.Lpcrel_hi273>

00000000800026d0 <.Lpcrel_hi270>:
800026d0: 00013517     	auipc	a0, 0x13
800026d4: 93050593     	addi	a1, a0, -0x6d0

00000000800026d8 <.Lpcrel_hi271>:
800026d8: 00005517     	auipc	a0, 0x5
800026dc: 40050613     	addi	a2, a0, 0x400
800026e0: 6505         	lui	a0, 0x1
800026e2: 00004097     	auipc	ra, 0x4
800026e6: 096080e7     	jalr	0x96(ra) <core::panicking::panic_misaligned_pointer_dereference::hda85f7fb51d959f0>
800026ea: 6502         	ld	a0, 0x0(sp)
800026ec: 65e2         	ld	a1, 0x18(sp)
800026ee: 00359613     	slli	a2, a1, 0x3

00000000800026f2 <.Lpcrel_hi272>:
800026f2: 00013597     	auipc	a1, 0x13
800026f6: 90e58593     	addi	a1, a1, -0x6f2
800026fa: 95b2         	add	a1, a1, a2
800026fc: e188         	sd	a0, 0x0(a1)
800026fe: bf39         	j	0x8000261c <.Lpcrel_hi264+0x10>

0000000080002700 <.Lpcrel_hi273>:
80002700: 00005517     	auipc	a0, 0x5
80002704: 3d850513     	addi	a0, a0, 0x3d8
80002708: 00004097     	auipc	ra, 0x4
8000270c: 050080e7     	jalr	0x50(ra) <core::panicking::panic_null_pointer_dereference::hbac6411af4f2e916>

0000000080002710 <lab4_kernel_task4::handle_user_ecall::h5327b38727ff6d69>:
80002710: 7155         	addi	sp, sp, -0xd0
80002712: e586         	sd	ra, 0xc8(sp)
80002714: f02a         	sd	a0, 0x20(sp)
80002716: fd2a         	sd	a0, 0xb8(sp)
80002718: 7d2c         	ld	a1, 0x78(a0)
8000271a: f42e         	sd	a1, 0x28(sp)
8000271c: e1ae         	sd	a1, 0xc0(sp)
8000271e: 7d6c         	ld	a1, 0xf8(a0)
80002720: 00458513     	addi	a0, a1, 0x4
80002724: f82a         	sd	a0, 0x30(sp)
80002726: 00b56b63     	bltu	a0, a1, 0x8000273c <.Lpcrel_hi274>
8000272a: a009         	j	0x8000272c <lab4_kernel_task4::handle_user_ecall::h5327b38727ff6d69+0x1c>
8000272c: 7522         	ld	a0, 0x28(sp)
8000272e: 75c2         	ld	a1, 0x30(sp)
80002730: 7602         	ld	a2, 0x20(sp)
80002732: fe6c         	sd	a1, 0xf8(a2)
80002734: 4585         	li	a1, 0x1
80002736: 00b50b63     	beq	a0, a1, 0x8000274c <.Lpcrel_hi274+0x10>
8000273a: a839         	j	0x80002758 <.Lpcrel_hi274+0x1c>

000000008000273c <.Lpcrel_hi274>:
8000273c: 00005517     	auipc	a0, 0x5
80002740: 3b450513     	addi	a0, a0, 0x3b4
80002744: 00004097     	auipc	ra, 0x4
80002748: f30080e7     	jalr	-0xd0(ra) <core::panicking::panic_const::panic_const_add_overflow::h67cba067093910f8>
8000274c: 7502         	ld	a0, 0x20(sp)
8000274e: 6128         	ld	a0, 0x40(a0)
80002750: 00001097     	auipc	ra, 0x1
80002754: ab6080e7     	jalr	-0x54a(ra) <lab4_kernel_task4::finish_user_program::h8795c394de1cff7d>
80002758: 7502         	ld	a0, 0x20(sp)
8000275a: 07850593     	addi	a1, a0, 0x78
8000275e: e42e         	sd	a1, 0x8(sp)
80002760: 04050593     	addi	a1, a0, 0x40
80002764: e82e         	sd	a1, 0x10(sp)
80002766: 7d68         	ld	a0, 0xf8(a0)
80002768: ffc50593     	addi	a1, a0, -0x4
8000276c: ec2e         	sd	a1, 0x18(sp)
8000276e: 4591         	li	a1, 0x4
80002770: 06b56b63     	bltu	a0, a1, 0x800027e6 <.Lpcrel_hi276>
80002774: a009         	j	0x80002776 <.Lpcrel_hi274+0x3a>
80002776: 6542         	ld	a0, 0x10(sp)
80002778: 65a2         	ld	a1, 0x8(sp)
8000277a: 6662         	ld	a2, 0x18(sp)
8000277c: e8b2         	sd	a2, 0x50(sp)
8000277e: fc2e         	sd	a1, 0x38(sp)
80002780: e0aa         	sd	a0, 0x40(sp)
80002782: 0888         	addi	a0, sp, 0x50
80002784: e4aa         	sd	a0, 0x48(sp)
80002786: 75e2         	ld	a1, 0x38(sp)
80002788: 0128         	addi	a0, sp, 0x88
8000278a: ffffe097     	auipc	ra, 0xffffe
8000278e: b18080e7     	jalr	-0x4e8(ra) <core::fmt::rt::Argument::new_display::h72b9aae62486e176>
80002792: 6586         	ld	a1, 0x40(sp)
80002794: 0928         	addi	a0, sp, 0x98
80002796: ffffe097     	auipc	ra, 0xffffe
8000279a: b94080e7     	jalr	-0x46c(ra) <core::fmt::rt::Argument::new_lower_hex::h2c3e51038c7990f0>
8000279e: 65a6         	ld	a1, 0x48(sp)
800027a0: 1128         	addi	a0, sp, 0xa8
800027a2: ffffe097     	auipc	ra, 0xffffe
800027a6: b88080e7     	jalr	-0x478(ra) <core::fmt::rt::Argument::new_lower_hex::h2c3e51038c7990f0>
800027aa: 654a         	ld	a0, 0x90(sp)
800027ac: f0aa         	sd	a0, 0x60(sp)
800027ae: 652a         	ld	a0, 0x88(sp)
800027b0: ecaa         	sd	a0, 0x58(sp)
800027b2: 750a         	ld	a0, 0xa0(sp)
800027b4: f8aa         	sd	a0, 0x70(sp)
800027b6: 656a         	ld	a0, 0x98(sp)
800027b8: f4aa         	sd	a0, 0x68(sp)
800027ba: 754a         	ld	a0, 0xb0(sp)
800027bc: e12a         	sd	a0, 0x80(sp)
800027be: 752a         	ld	a0, 0xa8(sp)
800027c0: fcaa         	sd	a0, 0x78(sp)

00000000800027c2 <.Lpcrel_hi275>:
800027c2: 00005517     	auipc	a0, 0x5
800027c6: 35e50513     	addi	a0, a0, 0x35e
800027ca: 08ac         	addi	a1, sp, 0x58
800027cc: ffffe097     	auipc	ra, 0xffffe
800027d0: a18080e7     	jalr	-0x5e8(ra) <core::fmt::Arguments::new::h96ba4e9016e05502>
800027d4: 00003097     	auipc	ra, 0x3
800027d8: 8a6080e7     	jalr	-0x75a(ra) <lab4_kernel_task4::console::print::h39762270f09f95ac>
800027dc: 4505         	li	a0, 0x1
800027de: 00002097     	auipc	ra, 0x2
800027e2: d7e080e7     	jalr	-0x282(ra) <lab4_kernel_task4::qemu_exit::he78fd981eff3bf43>

00000000800027e6 <.Lpcrel_hi276>:
800027e6: 00005517     	auipc	a0, 0x5
800027ea: 32250513     	addi	a0, a0, 0x322
800027ee: 00004097     	auipc	ra, 0x4
800027f2: ec2080e7     	jalr	-0x13e(ra) <core::panicking::panic_const::panic_const_sub_overflow::hccc965ba9198de7c>

00000000800027f6 <lab4_kernel_task4::print_walk_result::h9cc97ee2208d475e>:
800027f6: 711d         	addi	sp, sp, -0x60
800027f8: ec86         	sd	ra, 0x58(sp)
800027fa: e02a         	sd	a0, 0x0(sp)
800027fc: e42e         	sd	a1, 0x8(sp)
800027fe: e832         	sd	a2, 0x10(sp)
80002800: 7e98         	ld	a4, 0x38(a3)
80002802: e8ba         	sd	a4, 0x50(sp)
80002804: 7a98         	ld	a4, 0x30(a3)
80002806: e4ba         	sd	a4, 0x48(sp)
80002808: 7698         	ld	a4, 0x28(a3)
8000280a: e0ba         	sd	a4, 0x40(sp)
8000280c: 7298         	ld	a4, 0x20(a3)
8000280e: fc3a         	sd	a4, 0x38(sp)
80002810: 6e98         	ld	a4, 0x18(a3)
80002812: f83a         	sd	a4, 0x30(sp)
80002814: 6a98         	ld	a4, 0x10(a3)
80002816: f43a         	sd	a4, 0x28(sp)
80002818: 6698         	ld	a4, 0x8(a3)
8000281a: f03a         	sd	a4, 0x20(sp)
8000281c: 6294         	ld	a3, 0x0(a3)
8000281e: ec36         	sd	a3, 0x18(sp)
80002820: 0834         	addi	a3, sp, 0x18
80002822: ffffe097     	auipc	ra, 0xffffe
80002826: f1a080e7     	jalr	-0xe6(ra) <lab4_kernel_task4::print_walk::h17f3ac5b095b2942>
8000282a: 60e6         	ld	ra, 0x58(sp)
8000282c: 6125         	addi	sp, sp, 0x60
8000282e: 8082         	ret

0000000080002830 <lab4_kernel_task4::resident_frame_pa::hb64451074135dde2>:
80002830: 7179         	addi	sp, sp, -0x30
80002832: f406         	sd	ra, 0x28(sp)
80002834: e42a         	sd	a0, 0x8(sp)
80002836: f02a         	sd	a0, 0x20(sp)
80002838: 00002097     	auipc	ra, 0x2
8000283c: bbc080e7     	jalr	-0x444(ra) <lab4_kernel_task4::resident_frame_pool_pa::h30a7e998ee2eca54>
80002840: 65a2         	ld	a1, 0x8(sp)
80002842: e82a         	sd	a0, 0x10(sp)
80002844: 00c59513     	slli	a0, a1, 0xc
80002848: ec2a         	sd	a0, 0x18(sp)
8000284a: 8131         	srli	a0, a0, 0xc
8000284c: 00b51a63     	bne	a0, a1, 0x80002860 <.Lpcrel_hi277>
80002850: a009         	j	0x80002852 <lab4_kernel_task4::resident_frame_pa::hb64451074135dde2+0x22>
80002852: 65c2         	ld	a1, 0x10(sp)
80002854: 6562         	ld	a0, 0x18(sp)
80002856: 952e         	add	a0, a0, a1
80002858: e02a         	sd	a0, 0x0(sp)
8000285a: 00b56f63     	bltu	a0, a1, 0x80002878 <.Lpcrel_hi278>
8000285e: a809         	j	0x80002870 <.Lpcrel_hi277+0x10>

0000000080002860 <.Lpcrel_hi277>:
80002860: 00005517     	auipc	a0, 0x5
80002864: 30050513     	addi	a0, a0, 0x300
80002868: 00004097     	auipc	ra, 0x4
8000286c: e2a080e7     	jalr	-0x1d6(ra) <core::panicking::panic_const::panic_const_mul_overflow::h67897feae7531d51>
80002870: 6502         	ld	a0, 0x0(sp)
80002872: 70a2         	ld	ra, 0x28(sp)
80002874: 6145         	addi	sp, sp, 0x30
80002876: 8082         	ret

0000000080002878 <.Lpcrel_hi278>:
80002878: 00005517     	auipc	a0, 0x5
8000287c: 30050513     	addi	a0, a0, 0x300
80002880: 00004097     	auipc	ra, 0x4
80002884: df4080e7     	jalr	-0x20c(ra) <core::panicking::panic_const::panic_const_add_overflow::h67cba067093910f8>

0000000080002888 <lab4_kernel_task4::user_code_page_pa::h4bcb29c3ed112e9b>:
80002888: 00008517     	auipc	a0, 0x8
8000288c: 77850513     	addi	a0, a0, 0x778
80002890: 8082         	ret

0000000080002892 <lab4_kernel_task4::allocate_swap_slot::h8b919f8437b0ea98>:
80002892: 715d         	addi	sp, sp, -0x50
80002894: e486         	sd	ra, 0x48(sp)
80002896: 4501         	li	a0, 0x0
80002898: 4591         	li	a1, 0x4
8000289a: ffffe097     	auipc	ra, 0xffffe
8000289e: ae8080e7     	jalr	-0x518(ra) <_$LT$I$u20$as$u20$core..iter..traits..collect..IntoIterator$GT$::into_iter::hfb4e8047a0c34837>
800028a2: f02a         	sd	a0, 0x20(sp)
800028a4: f42e         	sd	a1, 0x28(sp)
800028a6: a009         	j	0x800028a8 <lab4_kernel_task4::allocate_swap_slot::h8b919f8437b0ea98+0x16>
800028a8: 1008         	addi	a0, sp, 0x20
800028aa: ffffe097     	auipc	ra, 0xffffe
800028ae: ac4080e7     	jalr	-0x53c(ra) <core::iter::range::_$LT$impl$u20$core..iter..traits..iterator..Iterator$u20$for$u20$core..ops..range..Range$LT$A$GT$$GT$::next::h2b4844740963e1ba>
800028b2: f82a         	sd	a0, 0x30(sp)
800028b4: fc2e         	sd	a1, 0x38(sp)
800028b6: 7542         	ld	a0, 0x30(sp)
800028b8: 8905         	andi	a0, a0, 0x1
800028ba: c919         	beqz	a0, 0x800028d0 <.Lpcrel_hi280>
800028bc: a009         	j	0x800028be <lab4_kernel_task4::allocate_swap_slot::h8b919f8437b0ea98+0x2c>
800028be: 7562         	ld	a0, 0x38(sp)
800028c0: e82a         	sd	a0, 0x10(sp)
800028c2: e0aa         	sd	a0, 0x40(sp)
800028c4: 4591         	li	a1, 0x4
800028c6: 862a         	mv	a2, a0
800028c8: ec32         	sd	a2, 0x18(sp)
800028ca: 00b56c63     	bltu	a0, a1, 0x800028e2 <.Lpcrel_hi281>
800028ce: a005         	j	0x800028ee <.Lpcrel_hi281+0xc>

00000000800028d0 <.Lpcrel_hi280>:
800028d0: 00005517     	auipc	a0, 0x5
800028d4: 2c050513     	addi	a0, a0, 0x2c0
800028d8: 45cd         	li	a1, 0x13
800028da: ffffe097     	auipc	ra, 0xffffe
800028de: 2fa080e7     	jalr	0x2fa(ra) <lab4_kernel_task4::kernel_fail::h99bea34bc7f3548a>

00000000800028e2 <.Lpcrel_hi281>:
800028e2: 00007517     	auipc	a0, 0x7
800028e6: 71e50513     	addi	a0, a0, 0x71e
800028ea: ed01         	bnez	a0, 0x80002902 <.Lpcrel_hi282+0x12>
800028ec: a03d         	j	0x8000291a <.Lpcrel_hi284>
800028ee: 6562         	ld	a0, 0x18(sp)

00000000800028f0 <.Lpcrel_hi282>:
800028f0: 00005597     	auipc	a1, 0x5
800028f4: 2b858613     	addi	a2, a1, 0x2b8
800028f8: 4591         	li	a1, 0x4
800028fa: 00004097     	auipc	ra, 0x4
800028fe: df2080e7     	jalr	-0x20e(ra) <core::panicking::panic_bounds_check::h6aaee0d15e0261eb>
80002902: 65c2         	ld	a1, 0x10(sp)

0000000080002904 <.Lpcrel_hi283>:
80002904: 00007517     	auipc	a0, 0x7
80002908: 6fc50513     	addi	a0, a0, 0x6fc
8000290c: 952e         	add	a0, a0, a1
8000290e: 00054503     	lbu	a0, 0x0(a0)
80002912: 8905         	andi	a0, a0, 0x1
80002914: e42e         	sd	a1, 0x8(sp)
80002916: f949         	bnez	a0, 0x800028a8 <lab4_kernel_task4::allocate_swap_slot::h8b919f8437b0ea98+0x16>
80002918: a809         	j	0x8000292a <.Lpcrel_hi284+0x10>

000000008000291a <.Lpcrel_hi284>:
8000291a: 00005517     	auipc	a0, 0x5
8000291e: 28e50513     	addi	a0, a0, 0x28e
80002922: 00004097     	auipc	ra, 0x4
80002926: e36080e7     	jalr	-0x1ca(ra) <core::panicking::panic_null_pointer_dereference::hbac6411af4f2e916>
8000292a: 65a2         	ld	a1, 0x8(sp)
8000292c: e02e         	sd	a1, 0x0(sp)
8000292e: 450d         	li	a0, 0x3
80002930: 00b56963     	bltu	a0, a1, 0x80002942 <.Lpcrel_hi285+0xc>
80002934: a009         	j	0x80002936 <.Lpcrel_hi285>

0000000080002936 <.Lpcrel_hi285>:
80002936: 00007517     	auipc	a0, 0x7
8000293a: 6ca50513     	addi	a0, a0, 0x6ca
8000293e: ed01         	bnez	a0, 0x80002956 <.Lpcrel_hi286+0x12>
80002940: a805         	j	0x80002970 <.Lpcrel_hi288>
80002942: 6502         	ld	a0, 0x0(sp)

0000000080002944 <.Lpcrel_hi286>:
80002944: 00005597     	auipc	a1, 0x5
80002948: 27c58613     	addi	a2, a1, 0x27c
8000294c: 4591         	li	a1, 0x4
8000294e: 00004097     	auipc	ra, 0x4
80002952: d9e080e7     	jalr	-0x262(ra) <core::panicking::panic_bounds_check::h6aaee0d15e0261eb>
80002956: 6502         	ld	a0, 0x0(sp)

0000000080002958 <.Lpcrel_hi287>:
80002958: 00007597     	auipc	a1, 0x7
8000295c: 6a858593     	addi	a1, a1, 0x6a8
80002960: 00a58633     	add	a2, a1, a0
80002964: 4585         	li	a1, 0x1
80002966: 00b60023     	sb	a1, 0x0(a2)
8000296a: 60a6         	ld	ra, 0x48(sp)
8000296c: 6161         	addi	sp, sp, 0x50
8000296e: 8082         	ret

0000000080002970 <.Lpcrel_hi288>:
80002970: 00005517     	auipc	a0, 0x5
80002974: 25050513     	addi	a0, a0, 0x250
80002978: 00004097     	auipc	ra, 0x4
8000297c: de0080e7     	jalr	-0x220(ra) <core::panicking::panic_null_pointer_dereference::hbac6411af4f2e916>

0000000080002980 <lab4_kernel_task4::initialize_runtime::h7410d30ae4d051ed>:
80002980: d4010113     	addi	sp, sp, -0x2c0
80002984: 2a113c23     	sd	ra, 0x2b8(sp)
80002988: 08a8         	addi	a0, sp, 0x58
8000298a: 00002097     	auipc	ra, 0x2
8000298e: 3b2080e7     	jalr	0x3b2(ra) <lab4_kernel_task4::trap::TrapFrame::zeroed::hb690c67cc7f08836>

0000000080002992 <.Lpcrel_hi289>:
80002992: 00007517     	auipc	a0, 0x7
80002996: 6ce50513     	addi	a0, a0, 0x6ce
8000299a: c11d         	beqz	a0, 0x800029c0 <.Lpcrel_hi292>
8000299c: a009         	j	0x8000299e <.Lpcrel_hi290>

000000008000299e <.Lpcrel_hi290>:
8000299e: 00007517     	auipc	a0, 0x7
800029a2: 6c250513     	addi	a0, a0, 0x6c2
800029a6: 08ac         	addi	a1, sp, 0x58
800029a8: 10000613     	li	a2, 0x100
800029ac: 00004097     	auipc	ra, 0x4
800029b0: f76080e7     	jalr	-0x8a(ra) <memcpy>

00000000800029b4 <.Lpcrel_hi291>:
800029b4: 00007517     	auipc	a0, 0x7
800029b8: 65450513     	addi	a0, a0, 0x654
800029bc: e911         	bnez	a0, 0x800029d0 <.Lpcrel_hi293>
800029be: a815         	j	0x800029f2 <.Lpcrel_hi295>

00000000800029c0 <.Lpcrel_hi292>:
800029c0: 00005517     	auipc	a0, 0x5
800029c4: 21850513     	addi	a0, a0, 0x218
800029c8: 00004097     	auipc	ra, 0x4
800029cc: d90080e7     	jalr	-0x270(ra) <core::panicking::panic_null_pointer_dereference::hbac6411af4f2e916>

00000000800029d0 <.Lpcrel_hi293>:
800029d0: 00007517     	auipc	a0, 0x7
800029d4: 63850593     	addi	a1, a0, 0x638
800029d8: 4501         	li	a0, 0x0
800029da: e188         	sd	a0, 0x0(a1)
800029dc: 0aa8         	addi	a0, sp, 0x158
800029de: 00002097     	auipc	ra, 0x2
800029e2: a58080e7     	jalr	-0x5a8(ra) <lab4_kernel_task4::SwapStats::zeroed::h00431b6dae4e4c7d>

00000000800029e6 <.Lpcrel_hi294>:
800029e6: 00007517     	auipc	a0, 0x7
800029ea: 62a50513     	addi	a0, a0, 0x62a
800029ee: e911         	bnez	a0, 0x80002a02 <.Lpcrel_hi296>
800029f0: a83d         	j	0x80002a2e <.Lpcrel_hi298>

00000000800029f2 <.Lpcrel_hi295>:
800029f2: 00005517     	auipc	a0, 0x5
800029f6: 1fe50513     	addi	a0, a0, 0x1fe
800029fa: 00004097     	auipc	ra, 0x4
800029fe: d5e080e7     	jalr	-0x2a2(ra) <core::panicking::panic_null_pointer_dereference::hbac6411af4f2e916>

0000000080002a02 <.Lpcrel_hi296>:
80002a02: 00007517     	auipc	a0, 0x7
80002a06: 60e50513     	addi	a0, a0, 0x60e
80002a0a: 0aac         	addi	a1, sp, 0x158
80002a0c: 05000613     	li	a2, 0x50
80002a10: 00004097     	auipc	ra, 0x4
80002a14: f12080e7     	jalr	-0xee(ra) <memcpy>
80002a18: 1328         	addi	a0, sp, 0x1a8
80002a1a: ffffe097     	auipc	ra, 0xffffe
80002a1e: 276080e7     	jalr	0x276(ra) <lab4_kernel_task4::SwapEvidence::zeroed::h652cc6aee2d8a423>

0000000080002a22 <.Lpcrel_hi297>:
80002a22: 00007517     	auipc	a0, 0x7
80002a26: 73e50513     	addi	a0, a0, 0x73e
80002a2a: e911         	bnez	a0, 0x80002a3e <.Lpcrel_hi299>
80002a2c: a0e5         	j	0x80002b14 <.Lpcrel_hi310>

0000000080002a2e <.Lpcrel_hi298>:
80002a2e: 00005517     	auipc	a0, 0x5
80002a32: 1da50513     	addi	a0, a0, 0x1da
80002a36: 00004097     	auipc	ra, 0x4
80002a3a: d22080e7     	jalr	-0x2de(ra) <core::panicking::panic_null_pointer_dereference::hbac6411af4f2e916>

0000000080002a3e <.Lpcrel_hi299>:
80002a3e: 00007517     	auipc	a0, 0x7
80002a42: 72250593     	addi	a1, a0, 0x722
80002a46: 657e         	ld	a0, 0x1d8(sp)
80002a48: f988         	sd	a0, 0x30(a1)
80002a4a: 655e         	ld	a0, 0x1d0(sp)
80002a4c: f588         	sd	a0, 0x28(a1)
80002a4e: 653e         	ld	a0, 0x1c8(sp)
80002a50: f188         	sd	a0, 0x20(a1)
80002a52: 651e         	ld	a0, 0x1c0(sp)
80002a54: ed88         	sd	a0, 0x18(a1)
80002a56: 757a         	ld	a0, 0x1b8(sp)
80002a58: e988         	sd	a0, 0x10(a1)
80002a5a: 755a         	ld	a0, 0x1b0(sp)
80002a5c: e588         	sd	a0, 0x8(a1)
80002a5e: 753a         	ld	a0, 0x1a8(sp)
80002a60: e188         	sd	a0, 0x0(a1)

0000000080002a62 <.Lpcrel_hi300>:
80002a62: 0000a517     	auipc	a0, 0xa
80002a66: 59e50513     	addi	a0, a0, 0x59e
80002a6a: fffff097     	auipc	ra, 0xfffff
80002a6e: c76080e7     	jalr	-0x38a(ra) <lab4_kernel_task4::clear_page_table::he0e9878e3ceee23d>

0000000080002a72 <.Lpcrel_hi301>:
80002a72: 0000e517     	auipc	a0, 0xe
80002a76: 58e50513     	addi	a0, a0, 0x58e
80002a7a: fffff097     	auipc	ra, 0xfffff
80002a7e: c66080e7     	jalr	-0x39a(ra) <lab4_kernel_task4::clear_page_table::he0e9878e3ceee23d>

0000000080002a82 <.Lpcrel_hi302>:
80002a82: 0000d517     	auipc	a0, 0xd
80002a86: 57e50513     	addi	a0, a0, 0x57e
80002a8a: fffff097     	auipc	ra, 0xfffff
80002a8e: c56080e7     	jalr	-0x3aa(ra) <lab4_kernel_task4::clear_page_table::he0e9878e3ceee23d>

0000000080002a92 <.Lpcrel_hi303>:
80002a92: 0000f517     	auipc	a0, 0xf
80002a96: 56e50513     	addi	a0, a0, 0x56e
80002a9a: fffff097     	auipc	ra, 0xfffff
80002a9e: c46080e7     	jalr	-0x3ba(ra) <lab4_kernel_task4::clear_page_table::he0e9878e3ceee23d>

0000000080002aa2 <.Lpcrel_hi304>:
80002aa2: 00012517     	auipc	a0, 0x12
80002aa6: 55e50513     	addi	a0, a0, 0x55e
80002aaa: fffff097     	auipc	ra, 0xfffff
80002aae: c36080e7     	jalr	-0x3ca(ra) <lab4_kernel_task4::clear_page_table::he0e9878e3ceee23d>

0000000080002ab2 <.Lpcrel_hi305>:
80002ab2: 00008517     	auipc	a0, 0x8
80002ab6: 54e50513     	addi	a0, a0, 0x54e
80002aba: 00002097     	auipc	ra, 0x2
80002abe: b04080e7     	jalr	-0x4fc(ra) <lab4_kernel_task4::zero_page::hbcf0e42b776ee0e2>

0000000080002ac2 <.Lpcrel_hi306>:
80002ac2: 0000c517     	auipc	a0, 0xc
80002ac6: 53e50513     	addi	a0, a0, 0x53e
80002aca: 00002097     	auipc	ra, 0x2
80002ace: af4080e7     	jalr	-0x50c(ra) <lab4_kernel_task4::zero_page::hbcf0e42b776ee0e2>

0000000080002ad2 <.Lpcrel_hi307>:
80002ad2: 0000b517     	auipc	a0, 0xb
80002ad6: 52e50513     	addi	a0, a0, 0x52e
80002ada: 00002097     	auipc	ra, 0x2
80002ade: ae4080e7     	jalr	-0x51c(ra) <lab4_kernel_task4::zero_page::hbcf0e42b776ee0e2>

0000000080002ae2 <.Lpcrel_hi308>:
80002ae2: 00010517     	auipc	a0, 0x10
80002ae6: 51e50513     	addi	a0, a0, 0x51e
80002aea: fffff097     	auipc	ra, 0xfffff
80002aee: b7c080e7     	jalr	-0x484(ra) <lab4_kernel_task4::zero_frame_pool::hca6bf2ac97c239ea>

0000000080002af2 <.Lpcrel_hi309>:
80002af2: 00014517     	auipc	a0, 0x14
80002af6: 50e50513     	addi	a0, a0, 0x50e
80002afa: fffff097     	auipc	ra, 0xfffff
80002afe: 988080e7     	jalr	-0x678(ra) <lab4_kernel_task4::zero_swap_area::h7e737366df9099b5>
80002b02: 4501         	li	a0, 0x0
80002b04: 458d         	li	a1, 0x3
80002b06: ffffe097     	auipc	ra, 0xffffe
80002b0a: 87c080e7     	jalr	-0x784(ra) <_$LT$I$u20$as$u20$core..iter..traits..collect..IntoIterator$GT$::into_iter::hfb4e8047a0c34837>
80002b0e: f3aa         	sd	a0, 0x1e0(sp)
80002b10: f7ae         	sd	a1, 0x1e8(sp)
80002b12: a809         	j	0x80002b24 <.Lpcrel_hi310+0x10>

0000000080002b14 <.Lpcrel_hi310>:
80002b14: 00005517     	auipc	a0, 0x5
80002b18: 10c50513     	addi	a0, a0, 0x10c
80002b1c: 00004097     	auipc	ra, 0x4
80002b20: c3c080e7     	jalr	-0x3c4(ra) <core::panicking::panic_null_pointer_dereference::hbac6411af4f2e916>
80002b24: 1388         	addi	a0, sp, 0x1e0
80002b26: ffffe097     	auipc	ra, 0xffffe
80002b2a: 848080e7     	jalr	-0x7b8(ra) <core::iter::range::_$LT$impl$u20$core..iter..traits..iterator..Iterator$u20$for$u20$core..ops..range..Range$LT$A$GT$$GT$::next::h2b4844740963e1ba>
80002b2e: fbaa         	sd	a0, 0x1f0(sp)
80002b30: ffae         	sd	a1, 0x1f8(sp)
80002b32: 755e         	ld	a0, 0x1f0(sp)
80002b34: 8905         	andi	a0, a0, 0x1
80002b36: c115         	beqz	a0, 0x80002b5a <.Lpcrel_hi310+0x46>
80002b38: a009         	j	0x80002b3a <.Lpcrel_hi310+0x26>
80002b3a: 757e         	ld	a0, 0x1f8(sp)
80002b3c: e4aa         	sd	a0, 0x48(sp)
80002b3e: 28a13023     	sd	a0, 0x280(sp)
80002b42: 0408         	addi	a0, sp, 0x200
80002b44: ffffe097     	auipc	ra, 0xffffe
80002b48: 07e080e7     	jalr	0x7e(ra) <lab4_kernel_task4::WorkingPage::zeroed::h78c4d4749935d3bd>
80002b4c: 6526         	ld	a0, 0x48(sp)
80002b4e: 458d         	li	a1, 0x3
80002b50: 862a         	mv	a2, a0
80002b52: e8b2         	sd	a2, 0x50(sp)
80002b54: 1cb56863     	bltu	a0, a1, 0x80002d24 <.Lpcrel_hi323>
80002b58: aae1         	j	0x80002d30 <.Lpcrel_hi323+0xc>
80002b5a: 4501         	li	a0, 0x0
80002b5c: 4589         	li	a1, 0x2
80002b5e: ffffe097     	auipc	ra, 0xffffe
80002b62: 824080e7     	jalr	-0x7dc(ra) <_$LT$I$u20$as$u20$core..iter..traits..collect..IntoIterator$GT$::into_iter::hfb4e8047a0c34837>
80002b66: 20a13c23     	sd	a0, 0x218(sp)
80002b6a: 22b13023     	sd	a1, 0x220(sp)
80002b6e: a009         	j	0x80002b70 <.Lpcrel_hi310+0x5c>
80002b70: 0c28         	addi	a0, sp, 0x218
80002b72: ffffd097     	auipc	ra, 0xffffd
80002b76: 7fc080e7     	jalr	0x7fc(ra) <core::iter::range::_$LT$impl$u20$core..iter..traits..iterator..Iterator$u20$for$u20$core..ops..range..Range$LT$A$GT$$GT$::next::h2b4844740963e1ba>
80002b7a: 22a13423     	sd	a0, 0x228(sp)
80002b7e: 22b13823     	sd	a1, 0x230(sp)
80002b82: 22813503     	ld	a0, 0x228(sp)
80002b86: 8905         	andi	a0, a0, 0x1
80002b88: c50d         	beqz	a0, 0x80002bb2 <.Lpcrel_hi310+0x9e>
80002b8a: a009         	j	0x80002b8c <.Lpcrel_hi310+0x78>
80002b8c: 23013503     	ld	a0, 0x230(sp)
80002b90: f42a         	sd	a0, 0x28(sp)
80002b92: 26a13c23     	sd	a0, 0x278(sp)
80002b96: fffff097     	auipc	ra, 0xfffff
80002b9a: 8a2080e7     	jalr	-0x75e(ra) <lab4_kernel_task4::ResidentFrame::empty::h79af1f1e2c9bda05>
80002b9e: 862a         	mv	a2, a0
80002ba0: 7522         	ld	a0, 0x28(sp)
80002ba2: f832         	sd	a2, 0x30(sp)
80002ba4: fc2e         	sd	a1, 0x38(sp)
80002ba6: 4589         	li	a1, 0x2
80002ba8: 862a         	mv	a2, a0
80002baa: e0b2         	sd	a2, 0x40(sp)
80002bac: 12b56563     	bltu	a0, a1, 0x80002cd6 <.Lpcrel_hi319>
80002bb0: aa0d         	j	0x80002ce2 <.Lpcrel_hi319+0xc>
80002bb2: 4501         	li	a0, 0x0
80002bb4: 4591         	li	a1, 0x4
80002bb6: ffffd097     	auipc	ra, 0xffffd
80002bba: 7cc080e7     	jalr	0x7cc(ra) <_$LT$I$u20$as$u20$core..iter..traits..collect..IntoIterator$GT$::into_iter::hfb4e8047a0c34837>
80002bbe: 22a13c23     	sd	a0, 0x238(sp)
80002bc2: 24b13023     	sd	a1, 0x240(sp)
80002bc6: a009         	j	0x80002bc8 <.Lpcrel_hi310+0xb4>
80002bc8: 1c28         	addi	a0, sp, 0x238
80002bca: ffffd097     	auipc	ra, 0xffffd
80002bce: 7a4080e7     	jalr	0x7a4(ra) <core::iter::range::_$LT$impl$u20$core..iter..traits..iterator..Iterator$u20$for$u20$core..ops..range..Range$LT$A$GT$$GT$::next::h2b4844740963e1ba>
80002bd2: 24a13423     	sd	a0, 0x248(sp)
80002bd6: 24b13823     	sd	a1, 0x250(sp)
80002bda: 24813503     	ld	a0, 0x248(sp)
80002bde: 8905         	andi	a0, a0, 0x1
80002be0: cd09         	beqz	a0, 0x80002bfa <.Lpcrel_hi310+0xe6>
80002be2: a009         	j	0x80002be4 <.Lpcrel_hi310+0xd0>
80002be4: 25013503     	ld	a0, 0x250(sp)
80002be8: ec2a         	sd	a0, 0x18(sp)
80002bea: 26a13823     	sd	a0, 0x270(sp)
80002bee: 4591         	li	a1, 0x4
80002bf0: 862a         	mv	a2, a0
80002bf2: f032         	sd	a2, 0x20(sp)
80002bf4: 08b56f63     	bltu	a0, a1, 0x80002c92 <.Lpcrel_hi315>
80002bf8: a05d         	j	0x80002c9e <.Lpcrel_hi315+0xc>
80002bfa: fffff097     	auipc	ra, 0xfffff
80002bfe: 406080e7     	jalr	0x406(ra) <lab4_kernel_task4::user_program_len::ha0c3d74b52c90387>
80002c02: 85aa         	mv	a1, a0

0000000080002c04 <.Lpcrel_hi311>:
80002c04: ffffe517     	auipc	a0, 0xffffe
80002c08: a0c50513     	addi	a0, a0, -0x5f4

0000000080002c0c <.Lpcrel_hi312>:
80002c0c: 00005617     	auipc	a2, 0x5
80002c10: 02c60613     	addi	a2, a2, 0x2c
80002c14: 00003097     	auipc	ra, 0x3
80002c18: 86e080e7     	jalr	-0x792(ra) <core::slice::raw::from_raw_parts::h21e4093a22392df5>
80002c1c: e42a         	sd	a0, 0x8(sp)
80002c1e: 872e         	mv	a4, a1
80002c20: e83a         	sd	a4, 0x10(sp)
80002c22: 24a13c23     	sd	a0, 0x258(sp)
80002c26: 26e13023     	sd	a4, 0x260(sp)
80002c2a: 2aa13423     	sd	a0, 0x2a8(sp)
80002c2e: 2ae13823     	sd	a4, 0x2b0(sp)

0000000080002c32 <.Lpcrel_hi313>:
80002c32: 00008597     	auipc	a1, 0x8
80002c36: 3ce58593     	addi	a1, a1, 0x3ce
80002c3a: e02e         	sd	a1, 0x0(sp)
80002c3c: 2ab13023     	sd	a1, 0x2a0(sp)
80002c40: 28a13423     	sd	a0, 0x288(sp)
80002c44: 28b13823     	sd	a1, 0x290(sp)
80002c48: 28e13c23     	sd	a4, 0x298(sp)

0000000080002c4c <.Lpcrel_hi314>:
80002c4c: 00006617     	auipc	a2, 0x6
80002c50: 8ac60793     	addi	a5, a2, -0x754
80002c54: 4685         	li	a3, 0x1
80002c56: 8636         	mv	a2, a3
80002c58: 00003097     	auipc	ra, 0x3
80002c5c: 9ca080e7     	jalr	-0x636(ra) <core::ptr::copy_nonoverlapping::precondition_check::he6f33af4add752dd>
80002c60: 6502         	ld	a0, 0x0(sp)
80002c62: 65a2         	ld	a1, 0x8(sp)
80002c64: 6642         	ld	a2, 0x10(sp)
80002c66: 00004097     	auipc	ra, 0x4
80002c6a: cbc080e7     	jalr	-0x344(ra) <memcpy>
80002c6e: fffff097     	auipc	ra, 0xfffff
80002c72: 958080e7     	jalr	-0x6a8(ra) <lab4_kernel_task4::user_shared_mut::h24702d937a08c22f>
80002c76: 85aa         	mv	a1, a0
80002c78: 26b13423     	sd	a1, 0x268(sp)
80002c7c: 4501         	li	a0, 0x0
80002c7e: e188         	sd	a0, 0x0(a1)
80002c80: e588         	sd	a0, 0x8(a1)
80002c82: e988         	sd	a0, 0x10(a1)
80002c84: ed88         	sd	a0, 0x18(a1)
80002c86: f188         	sd	a0, 0x20(a1)
80002c88: 2b813083     	ld	ra, 0x2b8(sp)
80002c8c: 2c010113     	addi	sp, sp, 0x2c0
80002c90: 8082         	ret

0000000080002c92 <.Lpcrel_hi315>:
80002c92: 00007517     	auipc	a0, 0x7
80002c96: 36e50513     	addi	a0, a0, 0x36e
80002c9a: ed01         	bnez	a0, 0x80002cb2 <.Lpcrel_hi316+0x12>
80002c9c: a02d         	j	0x80002cc6 <.Lpcrel_hi318>
80002c9e: 7502         	ld	a0, 0x20(sp)

0000000080002ca0 <.Lpcrel_hi316>:
80002ca0: 00005597     	auipc	a1, 0x5
80002ca4: fb058613     	addi	a2, a1, -0x50
80002ca8: 4591         	li	a1, 0x4
80002caa: 00004097     	auipc	ra, 0x4
80002cae: a42080e7     	jalr	-0x5be(ra) <core::panicking::panic_bounds_check::h6aaee0d15e0261eb>
80002cb2: 65e2         	ld	a1, 0x18(sp)

0000000080002cb4 <.Lpcrel_hi317>:
80002cb4: 00007517     	auipc	a0, 0x7
80002cb8: 34c50513     	addi	a0, a0, 0x34c
80002cbc: 95aa         	add	a1, a1, a0
80002cbe: 4501         	li	a0, 0x0
80002cc0: 00a58023     	sb	a0, 0x0(a1)
80002cc4: b711         	j	0x80002bc8 <.Lpcrel_hi310+0xb4>

0000000080002cc6 <.Lpcrel_hi318>:
80002cc6: 00005517     	auipc	a0, 0x5
80002cca: f8a50513     	addi	a0, a0, -0x76
80002cce: 00004097     	auipc	ra, 0x4
80002cd2: a8a080e7     	jalr	-0x576(ra) <core::panicking::panic_null_pointer_dereference::hbac6411af4f2e916>

0000000080002cd6 <.Lpcrel_hi319>:
80002cd6: 00009517     	auipc	a0, 0x9
80002cda: 32a50513     	addi	a0, a0, 0x32a
80002cde: ed01         	bnez	a0, 0x80002cf6 <.Lpcrel_hi320+0x12>
80002ce0: a815         	j	0x80002d14 <.Lpcrel_hi322>
80002ce2: 6506         	ld	a0, 0x40(sp)

0000000080002ce4 <.Lpcrel_hi320>:
80002ce4: 00005597     	auipc	a1, 0x5
80002ce8: f8458613     	addi	a2, a1, -0x7c
80002cec: 4589         	li	a1, 0x2
80002cee: 00004097     	auipc	ra, 0x4
80002cf2: 9fe080e7     	jalr	-0x602(ra) <core::panicking::panic_bounds_check::h6aaee0d15e0261eb>
80002cf6: 7562         	ld	a0, 0x38(sp)
80002cf8: 7642         	ld	a2, 0x30(sp)
80002cfa: 75a2         	ld	a1, 0x28(sp)
80002cfc: 00459693     	slli	a3, a1, 0x4

0000000080002d00 <.Lpcrel_hi321>:
80002d00: 00009597     	auipc	a1, 0x9
80002d04: 30058593     	addi	a1, a1, 0x300
80002d08: 95b6         	add	a1, a1, a3
80002d0a: e190         	sd	a2, 0x0(a1)
80002d0c: 8905         	andi	a0, a0, 0x1
80002d0e: 00a58423     	sb	a0, 0x8(a1)
80002d12: bdb9         	j	0x80002b70 <.Lpcrel_hi310+0x5c>

0000000080002d14 <.Lpcrel_hi322>:
80002d14: 00005517     	auipc	a0, 0x5
80002d18: f5450513     	addi	a0, a0, -0xac
80002d1c: 00004097     	auipc	ra, 0x4
80002d20: a3c080e7     	jalr	-0x5c4(ra) <core::panicking::panic_null_pointer_dereference::hbac6411af4f2e916>

0000000080002d24 <.Lpcrel_hi323>:
80002d24: 00007517     	auipc	a0, 0x7
80002d28: 47450513     	addi	a0, a0, 0x474
80002d2c: ed01         	bnez	a0, 0x80002d44 <.Lpcrel_hi324+0x12>
80002d2e: a081         	j	0x80002d6e <.Lpcrel_hi326>
80002d30: 6546         	ld	a0, 0x50(sp)

0000000080002d32 <.Lpcrel_hi324>:
80002d32: 00005597     	auipc	a1, 0x5
80002d36: f4e58613     	addi	a2, a1, -0xb2
80002d3a: 458d         	li	a1, 0x3
80002d3c: 00004097     	auipc	ra, 0x4
80002d40: 9b0080e7     	jalr	-0x650(ra) <core::panicking::panic_bounds_check::h6aaee0d15e0261eb>
80002d44: 6526         	ld	a0, 0x48(sp)
80002d46: 00351593     	slli	a1, a0, 0x3
80002d4a: 0516         	slli	a0, a0, 0x5
80002d4c: 40b505b3     	sub	a1, a0, a1

0000000080002d50 <.Lpcrel_hi325>:
80002d50: 00007517     	auipc	a0, 0x7
80002d54: 44850513     	addi	a0, a0, 0x448
80002d58: 95aa         	add	a1, a1, a0
80002d5a: 21013503     	ld	a0, 0x210(sp)
80002d5e: e988         	sd	a0, 0x10(a1)
80002d60: 20813503     	ld	a0, 0x208(sp)
80002d64: e588         	sd	a0, 0x8(a1)
80002d66: 20013503     	ld	a0, 0x200(sp)
80002d6a: e188         	sd	a0, 0x0(a1)
80002d6c: bb65         	j	0x80002b24 <.Lpcrel_hi310+0x10>

0000000080002d6e <.Lpcrel_hi326>:
80002d6e: 00005517     	auipc	a0, 0x5
80002d72: f1250513     	addi	a0, a0, -0xee
80002d76: 00004097     	auipc	ra, 0x4
80002d7a: 9e2080e7     	jalr	-0x61e(ra) <core::panicking::panic_null_pointer_dereference::hbac6411af4f2e916>

0000000080002d7e <lab4_kernel_task4::kernel_l1_table_pa::h82e15fca332ba91f>:
80002d7e: 00012517     	auipc	a0, 0x12
80002d82: 28250513     	addi	a0, a0, 0x282
80002d86: 8082         	ret

0000000080002d88 <lab4_kernel_task4::lazy_allocate_page::hde99e1e4245a9ca2>:
80002d88: de010113     	addi	sp, sp, -0x220
80002d8c: 20113c23     	sd	ra, 0x218(sp)
80002d90: e836         	sd	a3, 0x10(sp)
80002d92: ec32         	sd	a2, 0x18(sp)
80002d94: f02e         	sd	a1, 0x20(sp)
80002d96: e0aa         	sd	a0, 0x40(sp)
80002d98: e4ba         	sd	a4, 0x48(sp)
80002d9a: e8be         	sd	a5, 0x50(sp)
80002d9c: f72e         	sd	a1, 0x1a8(sp)
80002d9e: fb32         	sd	a2, 0x1b0(sp)
80002da0: 6506         	ld	a0, 0x40(sp)
80002da2: 00001097     	auipc	ra, 0x1
80002da6: 23c080e7     	jalr	0x23c(ra) <lab4_kernel_task4::acquire_frame_for_page::h5325b1eb0bff54f3>
80002daa: ecaa         	sd	a0, 0x58(sp)
80002dac: 6566         	ld	a0, 0x58(sp)
80002dae: 00000097     	auipc	ra, 0x0
80002db2: a82080e7     	jalr	-0x57e(ra) <lab4_kernel_task4::resident_frame_pa::hb64451074135dde2>
80002db6: f0aa         	sd	a0, 0x60(sp)
80002db8: 7506         	ld	a0, 0x60(sp)
80002dba: f42a         	sd	a0, 0x28(sp)
80002dbc: 20a13023     	sd	a0, 0x200(sp)
80002dc0: 4581         	li	a1, 0x0
80002dc2: f82e         	sd	a1, 0x30(sp)
80002dc4: 20b107a3     	sb	a1, 0x20f(sp)
80002dc8: 6605         	lui	a2, 0x1
80002dca: fc32         	sd	a2, 0x38(sp)
80002dcc: 20c13823     	sd	a2, 0x210(sp)
80002dd0: 1eb10fa3     	sb	a1, 0x1ff(sp)
80002dd4: 1ff14603     	lbu	a2, 0x1ff(sp)

0000000080002dd8 <.Lpcrel_hi328>:
80002dd8: 00005597     	auipc	a1, 0x5
80002ddc: 70858693     	addi	a3, a1, 0x708
80002de0: 4585         	li	a1, 0x1
80002de2: 00002097     	auipc	ra, 0x2
80002de6: 7aa080e7     	jalr	0x7aa(ra) <core::ptr::write_bytes::precondition_check::h92dea8b33c0faf74>
80002dea: 7522         	ld	a0, 0x28(sp)
80002dec: 75c2         	ld	a1, 0x30(sp)
80002dee: 7662         	ld	a2, 0x38(sp)
80002df0: 00004097     	auipc	ra, 0x4
80002df4: abc080e7     	jalr	-0x544(ra) <memset>
80002df8: 6586         	ld	a1, 0x40(sp)
80002dfa: 4509         	li	a0, 0x2
80002dfc: 00b56963     	bltu	a0, a1, 0x80002e0e <.Lpcrel_hi329+0xc>
80002e00: a009         	j	0x80002e02 <.Lpcrel_hi329>

0000000080002e02 <.Lpcrel_hi329>:
80002e02: 00007517     	auipc	a0, 0x7
80002e06: 39650513     	addi	a0, a0, 0x396
80002e0a: ed01         	bnez	a0, 0x80002e22 <.Lpcrel_hi330+0x12>
80002e0c: a835         	j	0x80002e48 <.Lpcrel_hi332>
80002e0e: 6506         	ld	a0, 0x40(sp)

0000000080002e10 <.Lpcrel_hi330>:
80002e10: 00005597     	auipc	a1, 0x5
80002e14: e8858613     	addi	a2, a1, -0x178
80002e18: 458d         	li	a1, 0x3
80002e1a: 00004097     	auipc	ra, 0x4
80002e1e: 8d2080e7     	jalr	-0x72e(ra) <core::panicking::panic_bounds_check::h6aaee0d15e0261eb>
80002e22: 6506         	ld	a0, 0x40(sp)
80002e24: 00351593     	slli	a1, a0, 0x3
80002e28: 0516         	slli	a0, a0, 0x5
80002e2a: 40b505b3     	sub	a1, a0, a1

0000000080002e2e <.Lpcrel_hi331>:
80002e2e: 00007517     	auipc	a0, 0x7
80002e32: 36a50513     	addi	a0, a0, 0x36a
80002e36: 95aa         	add	a1, a1, a0
80002e38: 4505         	li	a0, 0x1
80002e3a: 00a58823     	sb	a0, 0x10(a1)
80002e3e: 6506         	ld	a0, 0x40(sp)
80002e40: 458d         	li	a1, 0x3
80002e42: 00b56b63     	bltu	a0, a1, 0x80002e58 <.Lpcrel_hi333>
80002e46: a839         	j	0x80002e64 <.Lpcrel_hi333+0xc>

0000000080002e48 <.Lpcrel_hi332>:
80002e48: 00005517     	auipc	a0, 0x5
80002e4c: e5050513     	addi	a0, a0, -0x1b0
80002e50: 00004097     	auipc	ra, 0x4
80002e54: 908080e7     	jalr	-0x6f8(ra) <core::panicking::panic_null_pointer_dereference::hbac6411af4f2e916>

0000000080002e58 <.Lpcrel_hi333>:
80002e58: 00007517     	auipc	a0, 0x7
80002e5c: 34050513     	addi	a0, a0, 0x340
80002e60: ed01         	bnez	a0, 0x80002e78 <.Lpcrel_hi334+0x12>
80002e62: a82d         	j	0x80002e9c <.Lpcrel_hi336>
80002e64: 6506         	ld	a0, 0x40(sp)

0000000080002e66 <.Lpcrel_hi334>:
80002e66: 00005597     	auipc	a1, 0x5
80002e6a: e4a58613     	addi	a2, a1, -0x1b6
80002e6e: 458d         	li	a1, 0x3
80002e70: 00004097     	auipc	ra, 0x4
80002e74: 87c080e7     	jalr	-0x784(ra) <core::panicking::panic_bounds_check::h6aaee0d15e0261eb>
80002e78: 6506         	ld	a0, 0x40(sp)
80002e7a: 00351593     	slli	a1, a0, 0x3
80002e7e: 0516         	slli	a0, a0, 0x5
80002e80: 40b505b3     	sub	a1, a0, a1

0000000080002e84 <.Lpcrel_hi335>:
80002e84: 00007517     	auipc	a0, 0x7
80002e88: 31450513     	addi	a0, a0, 0x314
80002e8c: 95aa         	add	a1, a1, a0
80002e8e: 6566         	ld	a0, 0x58(sp)
80002e90: e188         	sd	a0, 0x0(a1)
80002e92: 6506         	ld	a0, 0x40(sp)
80002e94: 458d         	li	a1, 0x3
80002e96: 00b56b63     	bltu	a0, a1, 0x80002eac <.Lpcrel_hi337>
80002e9a: a839         	j	0x80002eb8 <.Lpcrel_hi337+0xc>

0000000080002e9c <.Lpcrel_hi336>:
80002e9c: 00005517     	auipc	a0, 0x5
80002ea0: e1450513     	addi	a0, a0, -0x1ec
80002ea4: 00004097     	auipc	ra, 0x4
80002ea8: 8b4080e7     	jalr	-0x74c(ra) <core::panicking::panic_null_pointer_dereference::hbac6411af4f2e916>

0000000080002eac <.Lpcrel_hi337>:
80002eac: 00007517     	auipc	a0, 0x7
80002eb0: 2ec50513     	addi	a0, a0, 0x2ec
80002eb4: ed01         	bnez	a0, 0x80002ecc <.Lpcrel_hi338+0x12>
80002eb6: a835         	j	0x80002ef2 <.Lpcrel_hi340>
80002eb8: 6506         	ld	a0, 0x40(sp)

0000000080002eba <.Lpcrel_hi338>:
80002eba: 00005597     	auipc	a1, 0x5
80002ebe: e0e58613     	addi	a2, a1, -0x1f2
80002ec2: 458d         	li	a1, 0x3
80002ec4: 00004097     	auipc	ra, 0x4
80002ec8: 828080e7     	jalr	-0x7d8(ra) <core::panicking::panic_bounds_check::h6aaee0d15e0261eb>
80002ecc: 6506         	ld	a0, 0x40(sp)
80002ece: 00351593     	slli	a1, a0, 0x3
80002ed2: 0516         	slli	a0, a0, 0x5
80002ed4: 40b505b3     	sub	a1, a0, a1

0000000080002ed8 <.Lpcrel_hi339>:
80002ed8: 00007517     	auipc	a0, 0x7
80002edc: 2c050513     	addi	a0, a0, 0x2c0
80002ee0: 95aa         	add	a1, a1, a0
80002ee2: 4501         	li	a0, 0x0
80002ee4: 00a588a3     	sb	a0, 0x11(a1)
80002ee8: 6566         	ld	a0, 0x58(sp)
80002eea: 4589         	li	a1, 0x2
80002eec: 00b56b63     	bltu	a0, a1, 0x80002f02 <.Lpcrel_hi341>
80002ef0: a839         	j	0x80002f0e <.Lpcrel_hi341+0xc>

0000000080002ef2 <.Lpcrel_hi340>:
80002ef2: 00005517     	auipc	a0, 0x5
80002ef6: dd650513     	addi	a0, a0, -0x22a
80002efa: 00004097     	auipc	ra, 0x4
80002efe: 85e080e7     	jalr	-0x7a2(ra) <core::panicking::panic_null_pointer_dereference::hbac6411af4f2e916>

0000000080002f02 <.Lpcrel_hi341>:
80002f02: 00009517     	auipc	a0, 0x9
80002f06: 0fe50513     	addi	a0, a0, 0xfe
80002f0a: ed01         	bnez	a0, 0x80002f22 <.Lpcrel_hi342+0x12>
80002f0c: a81d         	j	0x80002f42 <.Lpcrel_hi344>
80002f0e: 6566         	ld	a0, 0x58(sp)

0000000080002f10 <.Lpcrel_hi342>:
80002f10: 00005597     	auipc	a1, 0x5
80002f14: dd058613     	addi	a2, a1, -0x230
80002f18: 4589         	li	a1, 0x2
80002f1a: 00003097     	auipc	ra, 0x3
80002f1e: 7d2080e7     	jalr	0x7d2(ra) <core::panicking::panic_bounds_check::h6aaee0d15e0261eb>
80002f22: 6566         	ld	a0, 0x58(sp)
80002f24: 00451593     	slli	a1, a0, 0x4

0000000080002f28 <.Lpcrel_hi343>:
80002f28: 00009517     	auipc	a0, 0x9
80002f2c: 0d850513     	addi	a0, a0, 0xd8
80002f30: 95aa         	add	a1, a1, a0
80002f32: 4505         	li	a0, 0x1
80002f34: 00a58423     	sb	a0, 0x8(a1)
80002f38: 6566         	ld	a0, 0x58(sp)
80002f3a: 4589         	li	a1, 0x2
80002f3c: 00b56b63     	bltu	a0, a1, 0x80002f52 <.Lpcrel_hi345>
80002f40: a839         	j	0x80002f5e <.Lpcrel_hi345+0xc>

0000000080002f42 <.Lpcrel_hi344>:
80002f42: 00005517     	auipc	a0, 0x5
80002f46: d9e50513     	addi	a0, a0, -0x262
80002f4a: 00004097     	auipc	ra, 0x4
80002f4e: 80e080e7     	jalr	-0x7f2(ra) <core::panicking::panic_null_pointer_dereference::hbac6411af4f2e916>

0000000080002f52 <.Lpcrel_hi345>:
80002f52: 00009517     	auipc	a0, 0x9
80002f56: 0ae50513     	addi	a0, a0, 0xae
80002f5a: ed01         	bnez	a0, 0x80002f72 <.Lpcrel_hi346+0x12>
80002f5c: a81d         	j	0x80002f92 <.Lpcrel_hi349>
80002f5e: 6566         	ld	a0, 0x58(sp)

0000000080002f60 <.Lpcrel_hi346>:
80002f60: 00005597     	auipc	a1, 0x5
80002f64: d9858613     	addi	a2, a1, -0x268
80002f68: 4589         	li	a1, 0x2
80002f6a: 00003097     	auipc	ra, 0x3
80002f6e: 782080e7     	jalr	0x782(ra) <core::panicking::panic_bounds_check::h6aaee0d15e0261eb>
80002f72: 6566         	ld	a0, 0x58(sp)
80002f74: 00451593     	slli	a1, a0, 0x4

0000000080002f78 <.Lpcrel_hi347>:
80002f78: 00009517     	auipc	a0, 0x9
80002f7c: 08850513     	addi	a0, a0, 0x88
80002f80: 95aa         	add	a1, a1, a0
80002f82: 6506         	ld	a0, 0x40(sp)
80002f84: e188         	sd	a0, 0x0(a1)

0000000080002f86 <.Lpcrel_hi348>:
80002f86: 00007517     	auipc	a0, 0x7
80002f8a: 08a50513     	addi	a0, a0, 0x8a
80002f8e: e911         	bnez	a0, 0x80002fa2 <.Lpcrel_hi350>
80002f90: a025         	j	0x80002fb8 <.Lpcrel_hi351>

0000000080002f92 <.Lpcrel_hi349>:
80002f92: 00005517     	auipc	a0, 0x5
80002f96: d6650513     	addi	a0, a0, -0x29a
80002f9a: 00003097     	auipc	ra, 0x3
80002f9e: 7be080e7     	jalr	0x7be(ra) <core::panicking::panic_null_pointer_dereference::hbac6411af4f2e916>

0000000080002fa2 <.Lpcrel_hi350>:
80002fa2: 00007517     	auipc	a0, 0x7
80002fa6: 06e50513     	addi	a0, a0, 0x6e
80002faa: 6d0c         	ld	a1, 0x18(a0)
80002fac: 00158513     	addi	a0, a1, 0x1
80002fb0: e42a         	sd	a0, 0x8(sp)
80002fb2: 02b56163     	bltu	a0, a1, 0x80002fd4 <.Lpcrel_hi353>
80002fb6: a809         	j	0x80002fc8 <.Lpcrel_hi352>

0000000080002fb8 <.Lpcrel_hi351>:
80002fb8: 00005517     	auipc	a0, 0x5
80002fbc: d5850513     	addi	a0, a0, -0x2a8
80002fc0: 00003097     	auipc	ra, 0x3
80002fc4: 798080e7     	jalr	0x798(ra) <core::panicking::panic_null_pointer_dereference::hbac6411af4f2e916>

0000000080002fc8 <.Lpcrel_hi352>:
80002fc8: 00007517     	auipc	a0, 0x7
80002fcc: 04850513     	addi	a0, a0, 0x48
80002fd0: e911         	bnez	a0, 0x80002fe4 <.Lpcrel_hi353+0x10>
80002fd2: a2a1         	j	0x8000311a <.Lpcrel_hi358>

0000000080002fd4 <.Lpcrel_hi353>:
80002fd4: 00005517     	auipc	a0, 0x5
80002fd8: d3c50513     	addi	a0, a0, -0x2c4
80002fdc: 00003097     	auipc	ra, 0x3
80002fe0: 698080e7     	jalr	0x698(ra) <core::panicking::panic_const::panic_const_add_overflow::h67cba067093910f8>
80002fe4: 7502         	ld	a0, 0x20(sp)
80002fe6: 65a2         	ld	a1, 0x8(sp)

0000000080002fe8 <.Lpcrel_hi354>:
80002fe8: 00007617     	auipc	a2, 0x7
80002fec: 02860613     	addi	a2, a2, 0x28
80002ff0: ee0c         	sd	a1, 0x18(a2)
80002ff2: 7586         	ld	a1, 0x60(sp)
80002ff4: 00001097     	auipc	ra, 0x1
80002ff8: f32080e7     	jalr	-0xce(ra) <lab4_kernel_task4::install_working_leaf::h532f51ca2030ade9>
80002ffc: 6562         	ld	a0, 0x18(sp)
80002ffe: ffffe097     	auipc	ra, 0xffffe
80003002: 508080e7     	jalr	0x508(ra) <lab4_kernel_task4::fault_kind_name::hc3741031a5d91f6b>
80003006: ed2a         	sd	a0, 0x98(sp)
80003008: f12e         	sd	a1, 0xa0(sp)
8000300a: 0928         	addi	a0, sp, 0x98
8000300c: f4aa         	sd	a0, 0x68(sp)
8000300e: 00a8         	addi	a0, sp, 0x48
80003010: f8aa         	sd	a0, 0x70(sp)
80003012: 0888         	addi	a0, sp, 0x50
80003014: fcaa         	sd	a0, 0x78(sp)
80003016: 0088         	addi	a0, sp, 0x40
80003018: e12a         	sd	a0, 0x80(sp)
8000301a: 08a8         	addi	a0, sp, 0x58
8000301c: e52a         	sd	a0, 0x88(sp)
8000301e: 1088         	addi	a0, sp, 0x60
80003020: e92a         	sd	a0, 0x90(sp)
80003022: 75a6         	ld	a1, 0x68(sp)
80003024: 0228         	addi	a0, sp, 0x108
80003026: ffffd097     	auipc	ra, 0xffffd
8000302a: 2e2080e7     	jalr	0x2e2(ra) <core::fmt::rt::Argument::new_display::hec1511a75900333e>
8000302e: 75c6         	ld	a1, 0x70(sp)
80003030: 0a28         	addi	a0, sp, 0x118
80003032: ffffd097     	auipc	ra, 0xffffd
80003036: 2f8080e7     	jalr	0x2f8(ra) <core::fmt::rt::Argument::new_lower_hex::h2c3e51038c7990f0>
8000303a: 75e6         	ld	a1, 0x78(sp)
8000303c: 1228         	addi	a0, sp, 0x128
8000303e: ffffd097     	auipc	ra, 0xffffd
80003042: 2ec080e7     	jalr	0x2ec(ra) <core::fmt::rt::Argument::new_lower_hex::h2c3e51038c7990f0>
80003046: 658a         	ld	a1, 0x80(sp)
80003048: 1a28         	addi	a0, sp, 0x138
8000304a: ffffd097     	auipc	ra, 0xffffd
8000304e: 258080e7     	jalr	0x258(ra) <core::fmt::rt::Argument::new_display::h72b9aae62486e176>
80003052: 65aa         	ld	a1, 0x88(sp)
80003054: 02a8         	addi	a0, sp, 0x148
80003056: ffffd097     	auipc	ra, 0xffffd
8000305a: 24c080e7     	jalr	0x24c(ra) <core::fmt::rt::Argument::new_display::h72b9aae62486e176>
8000305e: 65ca         	ld	a1, 0x90(sp)
80003060: 0aa8         	addi	a0, sp, 0x158
80003062: ffffd097     	auipc	ra, 0xffffd
80003066: 2c8080e7     	jalr	0x2c8(ra) <core::fmt::rt::Argument::new_lower_hex::h2c3e51038c7990f0>
8000306a: 6552         	ld	a0, 0x110(sp)
8000306c: f92a         	sd	a0, 0xb0(sp)
8000306e: 6532         	ld	a0, 0x108(sp)
80003070: f52a         	sd	a0, 0xa8(sp)
80003072: 7512         	ld	a0, 0x120(sp)
80003074: e1aa         	sd	a0, 0xc0(sp)
80003076: 6572         	ld	a0, 0x118(sp)
80003078: fd2a         	sd	a0, 0xb8(sp)
8000307a: 7552         	ld	a0, 0x130(sp)
8000307c: e9aa         	sd	a0, 0xd0(sp)
8000307e: 7532         	ld	a0, 0x128(sp)
80003080: e5aa         	sd	a0, 0xc8(sp)
80003082: 6516         	ld	a0, 0x140(sp)
80003084: f1aa         	sd	a0, 0xe0(sp)
80003086: 7572         	ld	a0, 0x138(sp)
80003088: edaa         	sd	a0, 0xd8(sp)
8000308a: 6556         	ld	a0, 0x150(sp)
8000308c: f9aa         	sd	a0, 0xf0(sp)
8000308e: 6536         	ld	a0, 0x148(sp)
80003090: f5aa         	sd	a0, 0xe8(sp)
80003092: 7516         	ld	a0, 0x160(sp)
80003094: e22a         	sd	a0, 0x100(sp)
80003096: 6576         	ld	a0, 0x158(sp)
80003098: fdaa         	sd	a0, 0xf8(sp)

000000008000309a <.Lpcrel_hi355>:
8000309a: 00005517     	auipc	a0, 0x5
8000309e: c8e50513     	addi	a0, a0, -0x372
800030a2: 112c         	addi	a1, sp, 0xa8
800030a4: ffffd097     	auipc	ra, 0xffffd
800030a8: 0be080e7     	jalr	0xbe(ra) <core::fmt::Arguments::new::h30702092ca288fa9>
800030ac: 00002097     	auipc	ra, 0x2
800030b0: fce080e7     	jalr	-0x32(ra) <lab4_kernel_task4::console::print::h39762270f09f95ac>
800030b4: 6542         	ld	a0, 0x10(sp)
800030b6: 7602         	ld	a2, 0x20(sp)
800030b8: 7d0c         	ld	a1, 0x38(a0)
800030ba: fbae         	sd	a1, 0x1f0(sp)
800030bc: 790c         	ld	a1, 0x30(a0)
800030be: f7ae         	sd	a1, 0x1e8(sp)
800030c0: 750c         	ld	a1, 0x28(a0)
800030c2: f3ae         	sd	a1, 0x1e0(sp)
800030c4: 710c         	ld	a1, 0x20(a0)
800030c6: efae         	sd	a1, 0x1d8(sp)
800030c8: 6d0c         	ld	a1, 0x18(a0)
800030ca: ebae         	sd	a1, 0x1d0(sp)
800030cc: 690c         	ld	a1, 0x10(a0)
800030ce: e7ae         	sd	a1, 0x1c8(sp)
800030d0: 650c         	ld	a1, 0x8(a0)
800030d2: e3ae         	sd	a1, 0x1c0(sp)
800030d4: 6108         	ld	a0, 0x0(a0)
800030d6: ff2a         	sd	a0, 0x1b8(sp)

00000000800030d8 <.Lpcrel_hi356>:
800030d8: 00005517     	auipc	a0, 0x5
800030dc: ca650513     	addi	a0, a0, -0x35a
800030e0: 45b1         	li	a1, 0xc
800030e2: 1b34         	addi	a3, sp, 0x1b8
800030e4: fffff097     	auipc	ra, 0xfffff
800030e8: 712080e7     	jalr	0x712(ra) <lab4_kernel_task4::print_walk_result::h9cc97ee2208d475e>
800030ec: 7582         	ld	a1, 0x20(sp)
800030ee: 12a8         	addi	a0, sp, 0x168
800030f0: e02a         	sd	a0, 0x0(sp)
800030f2: ffffe097     	auipc	ra, 0xffffe
800030f6: 0d6080e7     	jalr	0xd6(ra) <lab4_kernel_task4::walk_virtual::hb3c91b13438fe028>
800030fa: 7602         	ld	a2, 0x20(sp)
800030fc: 6682         	ld	a3, 0x0(sp)

00000000800030fe <.Lpcrel_hi357>:
800030fe: 00005517     	auipc	a0, 0x5
80003102: c8c50513     	addi	a0, a0, -0x374
80003106: 45ad         	li	a1, 0xb
80003108: ffffd097     	auipc	ra, 0xffffd
8000310c: 634080e7     	jalr	0x634(ra) <lab4_kernel_task4::print_walk::h17f3ac5b095b2942>
80003110: 21813083     	ld	ra, 0x218(sp)
80003114: 22010113     	addi	sp, sp, 0x220
80003118: 8082         	ret

000000008000311a <.Lpcrel_hi358>:
8000311a: 00005517     	auipc	a0, 0x5
8000311e: bf650513     	addi	a0, a0, -0x40a
80003122: 00003097     	auipc	ra, 0x3
80003126: 636080e7     	jalr	0x636(ra) <core::panicking::panic_null_pointer_dereference::hbac6411af4f2e916>

000000008000312a <lab4_kernel_task4::prepare_user_frame::h9fe08a686cf7ff96>:
8000312a: 716d         	addi	sp, sp, -0x110
8000312c: e606         	sd	ra, 0x108(sp)
8000312e: 0028         	addi	a0, sp, 0x8
80003130: 00002097     	auipc	ra, 0x2
80003134: c0c080e7     	jalr	-0x3f4(ra) <lab4_kernel_task4::trap::TrapFrame::zeroed::hb690c67cc7f08836>

0000000080003138 <.Lpcrel_hi359>:
80003138: 00007517     	auipc	a0, 0x7
8000313c: f2850513     	addi	a0, a0, -0xd8
80003140: c10d         	beqz	a0, 0x80003162 <.Lpcrel_hi361>
80003142: a009         	j	0x80003144 <.Lpcrel_hi360>

0000000080003144 <.Lpcrel_hi360>:
80003144: 00007517     	auipc	a0, 0x7
80003148: f1c50513     	addi	a0, a0, -0xe4
8000314c: e02a         	sd	a0, 0x0(sp)
8000314e: 002c         	addi	a1, sp, 0x8
80003150: 10000613     	li	a2, 0x100
80003154: 00003097     	auipc	ra, 0x3
80003158: 7ce080e7     	jalr	0x7ce(ra) <memcpy>
8000315c: 6502         	ld	a0, 0x0(sp)
8000315e: e911         	bnez	a0, 0x80003172 <.Lpcrel_hi362>
80003160: a015         	j	0x80003184 <.Lpcrel_hi363>

0000000080003162 <.Lpcrel_hi361>:
80003162: 00005517     	auipc	a0, 0x5
80003166: c3650513     	addi	a0, a0, -0x3ca
8000316a: 00003097     	auipc	ra, 0x3
8000316e: 5ee080e7     	jalr	0x5ee(ra) <core::panicking::panic_null_pointer_dereference::hbac6411af4f2e916>

0000000080003172 <.Lpcrel_hi362>:
80003172: 00007517     	auipc	a0, 0x7
80003176: eee50513     	addi	a0, a0, -0x112
8000317a: 004005b7     	lui	a1, 0x400
8000317e: fd6c         	sd	a1, 0xf8(a0)
80003180: e911         	bnez	a0, 0x80003194 <.Lpcrel_hi364>
80003182: a01d         	j	0x800031a8 <.Lpcrel_hi365>

0000000080003184 <.Lpcrel_hi363>:
80003184: 00005517     	auipc	a0, 0x5
80003188: c2c50513     	addi	a0, a0, -0x3d4
8000318c: 00003097     	auipc	ra, 0x3
80003190: 5cc080e7     	jalr	0x5cc(ra) <core::panicking::panic_null_pointer_dereference::hbac6411af4f2e916>

0000000080003194 <.Lpcrel_hi364>:
80003194: 00007517     	auipc	a0, 0x7
80003198: ecc50593     	addi	a1, a0, -0x134
8000319c: 00403537     	lui	a0, 0x403
800031a0: f9e8         	sd	a0, 0xf0(a1)
800031a2: 60b2         	ld	ra, 0x108(sp)
800031a4: 6151         	addi	sp, sp, 0x110
800031a6: 8082         	ret

00000000800031a8 <.Lpcrel_hi365>:
800031a8: 00005517     	auipc	a0, 0x5
800031ac: c2050513     	addi	a0, a0, -0x3e0
800031b0: 00003097     	auipc	ra, 0x3
800031b4: 5a8080e7     	jalr	0x5a8(ra) <core::panicking::panic_null_pointer_dereference::hbac6411af4f2e916>

00000000800031b8 <lab4_kernel_task4::root_page_table_pa::h78fc40d304937858>:
800031b8: 0000a517     	auipc	a0, 0xa
800031bc: e4850513     	addi	a0, a0, -0x1b8
800031c0: 8082         	ret

00000000800031c2 <lab4_kernel_task4::swap_slot_from_pte::hcaf61d3d9674bda3>:
800031c2: 1141         	addi	sp, sp, -0x10
800031c4: e42a         	sd	a0, 0x8(sp)
800031c6: 8129         	srli	a0, a0, 0xa
800031c8: 0141         	addi	sp, sp, 0x10
800031ca: 8082         	ret

00000000800031cc <lab4_kernel_task4::user_stack_page_pa::he569a8dcac626282>:
800031cc: 0000b517     	auipc	a0, 0xb
800031d0: e3450513     	addi	a0, a0, -0x1cc
800031d4: 8082         	ret

00000000800031d6 <lab4_kernel_task4::working_page_index::h36cdcb22b307bfba>:
800031d6: 1141         	addi	sp, sp, -0x10
800031d8: e42a         	sd	a0, 0x8(sp)
800031da: ffbf05b7     	lui	a1, 0xffbf0
800031de: 95aa         	add	a1, a1, a0
800031e0: e02e         	sd	a1, 0x0(sp)
800031e2: 8141         	srli	a0, a0, 0x10
800031e4: 04100593     	li	a1, 0x41
800031e8: 00b56763     	bltu	a0, a1, 0x800031f6 <.Lpcrel_hi368>
800031ec: a009         	j	0x800031ee <lab4_kernel_task4::working_page_index::h36cdcb22b307bfba+0x18>
800031ee: 6502         	ld	a0, 0x0(sp)
800031f0: 8131         	srli	a0, a0, 0xc
800031f2: 0141         	addi	sp, sp, 0x10
800031f4: 8082         	ret

00000000800031f6 <.Lpcrel_hi368>:
800031f6: 00005517     	auipc	a0, 0x5
800031fa: bea50513     	addi	a0, a0, -0x416
800031fe: 00003097     	auipc	ra, 0x3
80003202: 4b2080e7     	jalr	0x4b2(ra) <core::panicking::panic_const::panic_const_sub_overflow::hccc965ba9198de7c>

0000000080003206 <lab4_kernel_task4::finish_user_program::h8795c394de1cff7d>:
80003206: 94010113     	addi	sp, sp, -0x6c0
8000320a: 6a113c23     	sd	ra, 0x6b8(sp)
8000320e: f4aa         	sd	a0, 0x68(sp)
80003210: ffffe097     	auipc	ra, 0xffffe
80003214: a30080e7     	jalr	-0x5d0(ra) <lab4_kernel_task4::user_shared::h2cf1514d5b6f277e>
80003218: 85aa         	mv	a1, a0
8000321a: ecae         	sd	a1, 0x58(sp)
8000321c: 5ca13823     	sd	a0, 0x5d0(sp)
80003220: 1888         	addi	a0, sp, 0x70
80003222: 004105b7     	lui	a1, 0x410
80003226: ffffe097     	auipc	ra, 0xffffe
8000322a: fa2080e7     	jalr	-0x5e(ra) <lab4_kernel_task4::walk_virtual::hb3c91b13438fe028>
8000322e: 1908         	addi	a0, sp, 0xb0
80003230: 004115b7     	lui	a1, 0x411
80003234: ffffe097     	auipc	ra, 0xffffe
80003238: f94080e7     	jalr	-0x6c(ra) <lab4_kernel_task4::walk_virtual::hb3c91b13438fe028>
8000323c: 6509         	lui	a0, 0x2
8000323e: f0aa         	sd	a0, 0x60(sp)
80003240: 4501         	li	a0, 0x0
80003242: ed09         	bnez	a0, 0x8000325c <.Lpcrel_hi369>
80003244: a009         	j	0x80003246 <lab4_kernel_task4::finish_user_program::h8795c394de1cff7d+0x40>
80003246: 7506         	ld	a0, 0x60(sp)
80003248: 004105b7     	lui	a1, 0x410
8000324c: 952e         	add	a0, a0, a1
8000324e: e8aa         	sd	a0, 0x50(sp)
80003250: 8141         	srli	a0, a0, 0x10
80003252: 04100593     	li	a1, 0x41
80003256: 02b56763     	bltu	a0, a1, 0x80003284 <.Lpcrel_hi371>
8000325a: a809         	j	0x8000326c <.Lpcrel_hi369+0x10>

000000008000325c <.Lpcrel_hi369>:
8000325c: 00005517     	auipc	a0, 0x5
80003260: b9c50513     	addi	a0, a0, -0x464
80003264: 00003097     	auipc	ra, 0x3
80003268: 42e080e7     	jalr	0x42e(ra) <core::panicking::panic_const::panic_const_mul_overflow::h67897feae7531d51>
8000326c: 65c6         	ld	a1, 0x50(sp)
8000326e: 1988         	addi	a0, sp, 0xf0
80003270: ffffe097     	auipc	ra, 0xffffe
80003274: f58080e7     	jalr	-0xa8(ra) <lab4_kernel_task4::walk_virtual::hb3c91b13438fe028>

0000000080003278 <.Lpcrel_hi370>:
80003278: 00007517     	auipc	a0, 0x7
8000327c: d9850513     	addi	a0, a0, -0x268
80003280: e911         	bnez	a0, 0x80003294 <.Lpcrel_hi372>
80003282: a00d         	j	0x800032a4 <.Lpcrel_hi373>

0000000080003284 <.Lpcrel_hi371>:
80003284: 00005517     	auipc	a0, 0x5
80003288: b8c50513     	addi	a0, a0, -0x474
8000328c: 00003097     	auipc	ra, 0x3
80003290: 3e8080e7     	jalr	0x3e8(ra) <core::panicking::panic_const::panic_const_add_overflow::h67cba067093910f8>

0000000080003294 <.Lpcrel_hi372>:
80003294: 00007517     	auipc	a0, 0x7
80003298: d7c50513     	addi	a0, a0, -0x284
8000329c: 4599         	li	a1, 0x6
8000329e: e12c         	sd	a1, 0x40(a0)
800032a0: e911         	bnez	a0, 0x800032b4 <.Lpcrel_hi374>
800032a2: a02d         	j	0x800032cc <.Lpcrel_hi375>

00000000800032a4 <.Lpcrel_hi373>:
800032a4: 00005517     	auipc	a0, 0x5
800032a8: b8450513     	addi	a0, a0, -0x47c
800032ac: 00003097     	auipc	ra, 0x3
800032b0: 4ac080e7     	jalr	0x4ac(ra) <core::panicking::panic_null_pointer_dereference::hbac6411af4f2e916>

00000000800032b4 <.Lpcrel_hi374>:
800032b4: 00007517     	auipc	a0, 0x7
800032b8: d5c50513     	addi	a0, a0, -0x2a4
800032bc: 610c         	ld	a1, 0x0(a0)
800032be: 4519         	li	a0, 0x6
800032c0: 40b50633     	sub	a2, a0, a1
800032c4: e4b2         	sd	a2, 0x48(sp)
800032c6: 02b56163     	bltu	a0, a1, 0x800032e8 <.Lpcrel_hi377>
800032ca: a809         	j	0x800032dc <.Lpcrel_hi376>

00000000800032cc <.Lpcrel_hi375>:
800032cc: 00005517     	auipc	a0, 0x5
800032d0: b7450513     	addi	a0, a0, -0x48c
800032d4: 00003097     	auipc	ra, 0x3
800032d8: 484080e7     	jalr	0x484(ra) <core::panicking::panic_null_pointer_dereference::hbac6411af4f2e916>

00000000800032dc <.Lpcrel_hi376>:
800032dc: 00007517     	auipc	a0, 0x7
800032e0: d3450513     	addi	a0, a0, -0x2cc
800032e4: e911         	bnez	a0, 0x800032f8 <.Lpcrel_hi377+0x10>
800032e6: a8a1         	j	0x8000333e <.Lpcrel_hi380>

00000000800032e8 <.Lpcrel_hi377>:
800032e8: 00005517     	auipc	a0, 0x5
800032ec: b7050513     	addi	a0, a0, -0x490
800032f0: 00003097     	auipc	ra, 0x3
800032f4: 3c0080e7     	jalr	0x3c0(ra) <core::panicking::panic_const::panic_const_sub_overflow::hccc965ba9198de7c>
800032f8: 6526         	ld	a0, 0x48(sp)

00000000800032fa <.Lpcrel_hi378>:
800032fa: 00007597     	auipc	a1, 0x7
800032fe: d1658593     	addi	a1, a1, -0x2ea
80003302: e0ae         	sd	a1, 0x40(sp)
80003304: e5a8         	sd	a0, 0x48(a1)
80003306: 10ac         	addi	a1, sp, 0x68
80003308: 5cb13c23     	sd	a1, 0x5d8(sp)
8000330c: 0288         	addi	a0, sp, 0x140
8000330e: ffffd097     	auipc	ra, 0xffffd
80003312: f94080e7     	jalr	-0x6c(ra) <core::fmt::rt::Argument::new_display::h72b9aae62486e176>
80003316: 6536         	ld	a0, 0x148(sp)
80003318: fe2a         	sd	a0, 0x138(sp)
8000331a: 6516         	ld	a0, 0x140(sp)
8000331c: fa2a         	sd	a0, 0x130(sp)

000000008000331e <.Lpcrel_hi379>:
8000331e: 00004517     	auipc	a0, 0x4
80003322: b1750513     	addi	a0, a0, -0x4e9
80003326: 1a0c         	addi	a1, sp, 0x130
80003328: ffffd097     	auipc	ra, 0xffffd
8000332c: e80080e7     	jalr	-0x180(ra) <core::fmt::Arguments::new::h554defad967c263e>
80003330: 00002097     	auipc	ra, 0x2
80003334: d4a080e7     	jalr	-0x2b6(ra) <lab4_kernel_task4::console::print::h39762270f09f95ac>
80003338: 6506         	ld	a0, 0x40(sp)
8000333a: e911         	bnez	a0, 0x8000334e <.Lpcrel_hi381>
8000333c: a00d         	j	0x8000335e <.Lpcrel_hi382>

000000008000333e <.Lpcrel_hi380>:
8000333e: 00005517     	auipc	a0, 0x5
80003342: b3250513     	addi	a0, a0, -0x4ce
80003346: 00003097     	auipc	ra, 0x3
8000334a: 412080e7     	jalr	0x412(ra) <core::panicking::panic_null_pointer_dereference::hbac6411af4f2e916>

000000008000334e <.Lpcrel_hi381>:
8000334e: 00007517     	auipc	a0, 0x7
80003352: cc250513     	addi	a0, a0, -0x33e
80003356: 612c         	ld	a1, 0x40(a0)
80003358: f32e         	sd	a1, 0x1a0(sp)
8000335a: e911         	bnez	a0, 0x8000336e <.Lpcrel_hi383>
8000335c: a00d         	j	0x8000337e <.Lpcrel_hi384>

000000008000335e <.Lpcrel_hi382>:
8000335e: 00005517     	auipc	a0, 0x5
80003362: b2a50513     	addi	a0, a0, -0x4d6
80003366: 00003097     	auipc	ra, 0x3
8000336a: 3f2080e7     	jalr	0x3f2(ra) <core::panicking::panic_null_pointer_dereference::hbac6411af4f2e916>

000000008000336e <.Lpcrel_hi383>:
8000336e: 00007517     	auipc	a0, 0x7
80003372: ca250513     	addi	a0, a0, -0x35e
80003376: 652c         	ld	a1, 0x48(a0)
80003378: f72e         	sd	a1, 0x1a8(sp)
8000337a: e911         	bnez	a0, 0x8000338e <.Lpcrel_hi385>
8000337c: a00d         	j	0x8000339e <.Lpcrel_hi386>

000000008000337e <.Lpcrel_hi384>:
8000337e: 00005517     	auipc	a0, 0x5
80003382: b2250513     	addi	a0, a0, -0x4de
80003386: 00003097     	auipc	ra, 0x3
8000338a: 3d2080e7     	jalr	0x3d2(ra) <core::panicking::panic_null_pointer_dereference::hbac6411af4f2e916>

000000008000338e <.Lpcrel_hi385>:
8000338e: 00007517     	auipc	a0, 0x7
80003392: c8250513     	addi	a0, a0, -0x37e
80003396: 610c         	ld	a1, 0x0(a0)
80003398: fb2e         	sd	a1, 0x1b0(sp)
8000339a: e911         	bnez	a0, 0x800033ae <.Lpcrel_hi387>
8000339c: a00d         	j	0x800033be <.Lpcrel_hi388>

000000008000339e <.Lpcrel_hi386>:
8000339e: 00005517     	auipc	a0, 0x5
800033a2: b1a50513     	addi	a0, a0, -0x4e6
800033a6: 00003097     	auipc	ra, 0x3
800033aa: 3b2080e7     	jalr	0x3b2(ra) <core::panicking::panic_null_pointer_dereference::hbac6411af4f2e916>

00000000800033ae <.Lpcrel_hi387>:
800033ae: 00007517     	auipc	a0, 0x7
800033b2: c6250513     	addi	a0, a0, -0x39e
800033b6: 650c         	ld	a1, 0x8(a0)
800033b8: ff2e         	sd	a1, 0x1b8(sp)
800033ba: e911         	bnez	a0, 0x800033ce <.Lpcrel_hi389>
800033bc: a00d         	j	0x800033de <.Lpcrel_hi390>

00000000800033be <.Lpcrel_hi388>:
800033be: 00005517     	auipc	a0, 0x5
800033c2: b1250513     	addi	a0, a0, -0x4ee
800033c6: 00003097     	auipc	ra, 0x3
800033ca: 392080e7     	jalr	0x392(ra) <core::panicking::panic_null_pointer_dereference::hbac6411af4f2e916>

00000000800033ce <.Lpcrel_hi389>:
800033ce: 00007517     	auipc	a0, 0x7
800033d2: c4250513     	addi	a0, a0, -0x3be
800033d6: 690c         	ld	a1, 0x10(a0)
800033d8: e3ae         	sd	a1, 0x1c0(sp)
800033da: e911         	bnez	a0, 0x800033ee <.Lpcrel_hi391>
800033dc: a00d         	j	0x800033fe <.Lpcrel_hi392>

00000000800033de <.Lpcrel_hi390>:
800033de: 00005517     	auipc	a0, 0x5
800033e2: b0a50513     	addi	a0, a0, -0x4f6
800033e6: 00003097     	auipc	ra, 0x3
800033ea: 372080e7     	jalr	0x372(ra) <core::panicking::panic_null_pointer_dereference::hbac6411af4f2e916>

00000000800033ee <.Lpcrel_hi391>:
800033ee: 00007517     	auipc	a0, 0x7
800033f2: c2250513     	addi	a0, a0, -0x3de
800033f6: 6d0c         	ld	a1, 0x18(a0)
800033f8: e7ae         	sd	a1, 0x1c8(sp)
800033fa: e911         	bnez	a0, 0x8000340e <.Lpcrel_hi393>
800033fc: a00d         	j	0x8000341e <.Lpcrel_hi394>

00000000800033fe <.Lpcrel_hi392>:
800033fe: 00005517     	auipc	a0, 0x5
80003402: b0250513     	addi	a0, a0, -0x4fe
80003406: 00003097     	auipc	ra, 0x3
8000340a: 352080e7     	jalr	0x352(ra) <core::panicking::panic_null_pointer_dereference::hbac6411af4f2e916>

000000008000340e <.Lpcrel_hi393>:
8000340e: 00007517     	auipc	a0, 0x7
80003412: c0250513     	addi	a0, a0, -0x3fe
80003416: 710c         	ld	a1, 0x20(a0)
80003418: ebae         	sd	a1, 0x1d0(sp)
8000341a: e911         	bnez	a0, 0x8000342e <.Lpcrel_hi395>
8000341c: a00d         	j	0x8000343e <.Lpcrel_hi396>

000000008000341e <.Lpcrel_hi394>:
8000341e: 00005517     	auipc	a0, 0x5
80003422: afa50513     	addi	a0, a0, -0x506
80003426: 00003097     	auipc	ra, 0x3
8000342a: 332080e7     	jalr	0x332(ra) <core::panicking::panic_null_pointer_dereference::hbac6411af4f2e916>

000000008000342e <.Lpcrel_hi395>:
8000342e: 00007517     	auipc	a0, 0x7
80003432: be250513     	addi	a0, a0, -0x41e
80003436: 750c         	ld	a1, 0x28(a0)
80003438: efae         	sd	a1, 0x1d8(sp)
8000343a: e911         	bnez	a0, 0x8000344e <.Lpcrel_hi397>
8000343c: a00d         	j	0x8000345e <.Lpcrel_hi398>

000000008000343e <.Lpcrel_hi396>:
8000343e: 00005517     	auipc	a0, 0x5
80003442: af250513     	addi	a0, a0, -0x50e
80003446: 00003097     	auipc	ra, 0x3
8000344a: 312080e7     	jalr	0x312(ra) <core::panicking::panic_null_pointer_dereference::hbac6411af4f2e916>

000000008000344e <.Lpcrel_hi397>:
8000344e: 00007517     	auipc	a0, 0x7
80003452: bc250513     	addi	a0, a0, -0x43e
80003456: 790c         	ld	a1, 0x30(a0)
80003458: f3ae         	sd	a1, 0x1e0(sp)
8000345a: e911         	bnez	a0, 0x8000346e <.Lpcrel_hi399>
8000345c: ac05         	j	0x8000368c <.Lpcrel_hi403>

000000008000345e <.Lpcrel_hi398>:
8000345e: 00005517     	auipc	a0, 0x5
80003462: aea50513     	addi	a0, a0, -0x516
80003466: 00003097     	auipc	ra, 0x3
8000346a: 2f2080e7     	jalr	0x2f2(ra) <core::panicking::panic_null_pointer_dereference::hbac6411af4f2e916>

000000008000346e <.Lpcrel_hi399>:
8000346e: 00007517     	auipc	a0, 0x7
80003472: ba250513     	addi	a0, a0, -0x45e
80003476: 7d08         	ld	a0, 0x38(a0)
80003478: f7aa         	sd	a0, 0x1e8(sp)
8000347a: 1308         	addi	a0, sp, 0x1a0
8000347c: eaaa         	sd	a0, 0x150(sp)
8000347e: 1328         	addi	a0, sp, 0x1a8
80003480: eeaa         	sd	a0, 0x158(sp)
80003482: 1b08         	addi	a0, sp, 0x1b0
80003484: f2aa         	sd	a0, 0x160(sp)
80003486: 1b28         	addi	a0, sp, 0x1b8
80003488: f6aa         	sd	a0, 0x168(sp)
8000348a: 0388         	addi	a0, sp, 0x1c0
8000348c: faaa         	sd	a0, 0x170(sp)
8000348e: 03a8         	addi	a0, sp, 0x1c8
80003490: feaa         	sd	a0, 0x178(sp)
80003492: 0b88         	addi	a0, sp, 0x1d0
80003494: e32a         	sd	a0, 0x180(sp)
80003496: 0ba8         	addi	a0, sp, 0x1d8
80003498: e72a         	sd	a0, 0x188(sp)
8000349a: 1388         	addi	a0, sp, 0x1e0
8000349c: eb2a         	sd	a0, 0x190(sp)
8000349e: 13a8         	addi	a0, sp, 0x1e8
800034a0: ef2a         	sd	a0, 0x198(sp)
800034a2: 65d6         	ld	a1, 0x150(sp)
800034a4: 0d08         	addi	a0, sp, 0x290
800034a6: ffffd097     	auipc	ra, 0xffffd
800034aa: dfc080e7     	jalr	-0x204(ra) <core::fmt::rt::Argument::new_display::h72b9aae62486e176>
800034ae: 65f6         	ld	a1, 0x158(sp)
800034b0: 1508         	addi	a0, sp, 0x2a0
800034b2: ffffd097     	auipc	ra, 0xffffd
800034b6: df0080e7     	jalr	-0x210(ra) <core::fmt::rt::Argument::new_display::h72b9aae62486e176>
800034ba: 7596         	ld	a1, 0x160(sp)
800034bc: 1d08         	addi	a0, sp, 0x2b0
800034be: ffffd097     	auipc	ra, 0xffffd
800034c2: de4080e7     	jalr	-0x21c(ra) <core::fmt::rt::Argument::new_display::h72b9aae62486e176>
800034c6: 75b6         	ld	a1, 0x168(sp)
800034c8: 0588         	addi	a0, sp, 0x2c0
800034ca: ffffd097     	auipc	ra, 0xffffd
800034ce: dd8080e7     	jalr	-0x228(ra) <core::fmt::rt::Argument::new_display::h72b9aae62486e176>
800034d2: 75d6         	ld	a1, 0x170(sp)
800034d4: 0d88         	addi	a0, sp, 0x2d0
800034d6: ffffd097     	auipc	ra, 0xffffd
800034da: dcc080e7     	jalr	-0x234(ra) <core::fmt::rt::Argument::new_display::h72b9aae62486e176>
800034de: 75f6         	ld	a1, 0x178(sp)
800034e0: 1588         	addi	a0, sp, 0x2e0
800034e2: ffffd097     	auipc	ra, 0xffffd
800034e6: dc0080e7     	jalr	-0x240(ra) <core::fmt::rt::Argument::new_display::h72b9aae62486e176>
800034ea: 659a         	ld	a1, 0x180(sp)
800034ec: 1d88         	addi	a0, sp, 0x2f0
800034ee: ffffd097     	auipc	ra, 0xffffd
800034f2: db4080e7     	jalr	-0x24c(ra) <core::fmt::rt::Argument::new_display::h72b9aae62486e176>
800034f6: 65ba         	ld	a1, 0x188(sp)
800034f8: 0608         	addi	a0, sp, 0x300
800034fa: ffffd097     	auipc	ra, 0xffffd
800034fe: da8080e7     	jalr	-0x258(ra) <core::fmt::rt::Argument::new_display::h72b9aae62486e176>
80003502: 65da         	ld	a1, 0x190(sp)
80003504: 0e08         	addi	a0, sp, 0x310
80003506: ffffd097     	auipc	ra, 0xffffd
8000350a: d9c080e7     	jalr	-0x264(ra) <core::fmt::rt::Argument::new_display::h72b9aae62486e176>
8000350e: 65fa         	ld	a1, 0x198(sp)
80003510: 1608         	addi	a0, sp, 0x320
80003512: ffffd097     	auipc	ra, 0xffffd
80003516: d90080e7     	jalr	-0x270(ra) <core::fmt::rt::Argument::new_display::h72b9aae62486e176>
8000351a: 29813503     	ld	a0, 0x298(sp)
8000351e: ffaa         	sd	a0, 0x1f8(sp)
80003520: 29013503     	ld	a0, 0x290(sp)
80003524: fbaa         	sd	a0, 0x1f0(sp)
80003526: 2a813503     	ld	a0, 0x2a8(sp)
8000352a: 20a13423     	sd	a0, 0x208(sp)
8000352e: 2a013503     	ld	a0, 0x2a0(sp)
80003532: 20a13023     	sd	a0, 0x200(sp)
80003536: 2b813503     	ld	a0, 0x2b8(sp)
8000353a: 20a13c23     	sd	a0, 0x218(sp)
8000353e: 2b013503     	ld	a0, 0x2b0(sp)
80003542: 20a13823     	sd	a0, 0x210(sp)
80003546: 2c813503     	ld	a0, 0x2c8(sp)
8000354a: 22a13423     	sd	a0, 0x228(sp)
8000354e: 2c013503     	ld	a0, 0x2c0(sp)
80003552: 22a13023     	sd	a0, 0x220(sp)
80003556: 2d813503     	ld	a0, 0x2d8(sp)
8000355a: 22a13c23     	sd	a0, 0x238(sp)
8000355e: 2d013503     	ld	a0, 0x2d0(sp)
80003562: 22a13823     	sd	a0, 0x230(sp)
80003566: 2e813503     	ld	a0, 0x2e8(sp)
8000356a: 24a13423     	sd	a0, 0x248(sp)
8000356e: 2e013503     	ld	a0, 0x2e0(sp)
80003572: 24a13023     	sd	a0, 0x240(sp)
80003576: 2f813503     	ld	a0, 0x2f8(sp)
8000357a: 24a13c23     	sd	a0, 0x258(sp)
8000357e: 2f013503     	ld	a0, 0x2f0(sp)
80003582: 24a13823     	sd	a0, 0x250(sp)
80003586: 30813503     	ld	a0, 0x308(sp)
8000358a: 26a13423     	sd	a0, 0x268(sp)
8000358e: 30013503     	ld	a0, 0x300(sp)
80003592: 26a13023     	sd	a0, 0x260(sp)
80003596: 31813503     	ld	a0, 0x318(sp)
8000359a: 26a13c23     	sd	a0, 0x278(sp)
8000359e: 31013503     	ld	a0, 0x310(sp)
800035a2: 26a13823     	sd	a0, 0x270(sp)
800035a6: 32813503     	ld	a0, 0x328(sp)
800035aa: 28a13423     	sd	a0, 0x288(sp)
800035ae: 32013503     	ld	a0, 0x320(sp)
800035b2: 28a13023     	sd	a0, 0x280(sp)

00000000800035b6 <.Lpcrel_hi400>:
800035b6: 00003517     	auipc	a0, 0x3
800035ba: 6fa50513     	addi	a0, a0, 0x6fa
800035be: 1b8c         	addi	a1, sp, 0x1f0
800035c0: ffffd097     	auipc	ra, 0xffffd
800035c4: c06080e7     	jalr	-0x3fa(ra) <core::fmt::Arguments::new::h7cd33aa3da7318ff>
800035c8: 00002097     	auipc	ra, 0x2
800035cc: ab2080e7     	jalr	-0x54e(ra) <lab4_kernel_task4::console::print::h39762270f09f95ac>
800035d0: 66e6         	ld	a3, 0x58(sp)
800035d2: 00868613     	addi	a2, a3, 0x8
800035d6: 01068593     	addi	a1, a3, 0x10
800035da: 01868513     	addi	a0, a3, 0x18
800035de: 32d13823     	sd	a3, 0x330(sp)
800035e2: 32c13c23     	sd	a2, 0x338(sp)
800035e6: 34b13023     	sd	a1, 0x340(sp)
800035ea: 34a13423     	sd	a0, 0x348(sp)
800035ee: 33013583     	ld	a1, 0x330(sp)
800035f2: 0f08         	addi	a0, sp, 0x390
800035f4: ffffd097     	auipc	ra, 0xffffd
800035f8: d58080e7     	jalr	-0x2a8(ra) <core::fmt::rt::Argument::new_lower_hex::h3f27c744115e4e67>
800035fc: 33813583     	ld	a1, 0x338(sp)
80003600: 1708         	addi	a0, sp, 0x3a0
80003602: ffffd097     	auipc	ra, 0xffffd
80003606: d4a080e7     	jalr	-0x2b6(ra) <core::fmt::rt::Argument::new_lower_hex::h3f27c744115e4e67>
8000360a: 34013583     	ld	a1, 0x340(sp)
8000360e: 1f08         	addi	a0, sp, 0x3b0
80003610: ffffd097     	auipc	ra, 0xffffd
80003614: d3c080e7     	jalr	-0x2c4(ra) <core::fmt::rt::Argument::new_lower_hex::h3f27c744115e4e67>
80003618: 34813583     	ld	a1, 0x348(sp)
8000361c: 0788         	addi	a0, sp, 0x3c0
8000361e: ffffd097     	auipc	ra, 0xffffd
80003622: d2e080e7     	jalr	-0x2d2(ra) <core::fmt::rt::Argument::new_lower_hex::h3f27c744115e4e67>
80003626: 39813503     	ld	a0, 0x398(sp)
8000362a: 34a13c23     	sd	a0, 0x358(sp)
8000362e: 39013503     	ld	a0, 0x390(sp)
80003632: 34a13823     	sd	a0, 0x350(sp)
80003636: 3a813503     	ld	a0, 0x3a8(sp)
8000363a: 36a13423     	sd	a0, 0x368(sp)
8000363e: 3a013503     	ld	a0, 0x3a0(sp)
80003642: 36a13023     	sd	a0, 0x360(sp)
80003646: 3b813503     	ld	a0, 0x3b8(sp)
8000364a: 36a13c23     	sd	a0, 0x378(sp)
8000364e: 3b013503     	ld	a0, 0x3b0(sp)
80003652: 36a13823     	sd	a0, 0x370(sp)
80003656: 3c813503     	ld	a0, 0x3c8(sp)
8000365a: 38a13423     	sd	a0, 0x388(sp)
8000365e: 3c013503     	ld	a0, 0x3c0(sp)
80003662: 38a13023     	sd	a0, 0x380(sp)

0000000080003666 <.Lpcrel_hi401>:
80003666: 00005517     	auipc	a0, 0x5
8000366a: 91250513     	addi	a0, a0, -0x6ee
8000366e: 0e8c         	addi	a1, sp, 0x350
80003670: ffffd097     	auipc	ra, 0xffffd
80003674: b4c080e7     	jalr	-0x4b4(ra) <core::fmt::Arguments::new::h7cc81bab3a2a137a>
80003678: 00002097     	auipc	ra, 0x2
8000367c: a02080e7     	jalr	-0x5fe(ra) <lab4_kernel_task4::console::print::h39762270f09f95ac>

0000000080003680 <.Lpcrel_hi402>:
80003680: 00007517     	auipc	a0, 0x7
80003684: ae050513     	addi	a0, a0, -0x520
80003688: e911         	bnez	a0, 0x8000369c <.Lpcrel_hi404>
8000368a: a825         	j	0x800036c2 <.Lpcrel_hi405>

000000008000368c <.Lpcrel_hi403>:
8000368c: 00005517     	auipc	a0, 0x5
80003690: 8d450513     	addi	a0, a0, -0x72c
80003694: 00003097     	auipc	ra, 0x3
80003698: 0c4080e7     	jalr	0xc4(ra) <core::panicking::panic_null_pointer_dereference::hbac6411af4f2e916>

000000008000369c <.Lpcrel_hi404>:
8000369c: 00007517     	auipc	a0, 0x7
800036a0: ac450513     	addi	a0, a0, -0x53c
800036a4: fc2a         	sd	a0, 0x38(sp)
800036a6: 03054503     	lbu	a0, 0x30(a0)
800036aa: 00001097     	auipc	ra, 0x1
800036ae: e74080e7     	jalr	-0x18c(ra) <lab4_kernel_task4::pass_fail::h0c9b80618626d2c4>
800036b2: 862a         	mv	a2, a0
800036b4: 7562         	ld	a0, 0x38(sp)
800036b6: 40c13423     	sd	a2, 0x408(sp)
800036ba: 40b13823     	sd	a1, 0x410(sp)
800036be: e911         	bnez	a0, 0x800036d2 <.Lpcrel_hi406>
800036c0: a015         	j	0x800036e4 <.Lpcrel_hi407>

00000000800036c2 <.Lpcrel_hi405>:
800036c2: 00005517     	auipc	a0, 0x5
800036c6: 92650513     	addi	a0, a0, -0x6da
800036ca: 00003097     	auipc	ra, 0x3
800036ce: 08e080e7     	jalr	0x8e(ra) <core::panicking::panic_null_pointer_dereference::hbac6411af4f2e916>

00000000800036d2 <.Lpcrel_hi406>:
800036d2: 00007517     	auipc	a0, 0x7
800036d6: a8e50513     	addi	a0, a0, -0x572
800036da: 610c         	ld	a1, 0x0(a0)
800036dc: 40b13c23     	sd	a1, 0x418(sp)
800036e0: e911         	bnez	a0, 0x800036f4 <.Lpcrel_hi408>
800036e2: a015         	j	0x80003706 <.Lpcrel_hi409>

00000000800036e4 <.Lpcrel_hi407>:
800036e4: 00005517     	auipc	a0, 0x5
800036e8: 91c50513     	addi	a0, a0, -0x6e4
800036ec: 00003097     	auipc	ra, 0x3
800036f0: 06c080e7     	jalr	0x6c(ra) <core::panicking::panic_null_pointer_dereference::hbac6411af4f2e916>

00000000800036f4 <.Lpcrel_hi408>:
800036f4: 00007517     	auipc	a0, 0x7
800036f8: a6c50513     	addi	a0, a0, -0x594
800036fc: 650c         	ld	a1, 0x8(a0)
800036fe: 42b13023     	sd	a1, 0x420(sp)
80003702: e911         	bnez	a0, 0x80003716 <.Lpcrel_hi410>
80003704: a015         	j	0x80003728 <.Lpcrel_hi411>

0000000080003706 <.Lpcrel_hi409>:
80003706: 00005517     	auipc	a0, 0x5
8000370a: 91250513     	addi	a0, a0, -0x6ee
8000370e: 00003097     	auipc	ra, 0x3
80003712: 04a080e7     	jalr	0x4a(ra) <core::panicking::panic_null_pointer_dereference::hbac6411af4f2e916>

0000000080003716 <.Lpcrel_hi410>:
80003716: 00007517     	auipc	a0, 0x7
8000371a: a4a50513     	addi	a0, a0, -0x5b6
8000371e: 690c         	ld	a1, 0x10(a0)
80003720: 42b13423     	sd	a1, 0x428(sp)
80003724: e911         	bnez	a0, 0x80003738 <.Lpcrel_hi412>
80003726: a015         	j	0x8000374a <.Lpcrel_hi413>

0000000080003728 <.Lpcrel_hi411>:
80003728: 00005517     	auipc	a0, 0x5
8000372c: 90850513     	addi	a0, a0, -0x6f8
80003730: 00003097     	auipc	ra, 0x3
80003734: 028080e7     	jalr	0x28(ra) <core::panicking::panic_null_pointer_dereference::hbac6411af4f2e916>

0000000080003738 <.Lpcrel_hi412>:
80003738: 00007517     	auipc	a0, 0x7
8000373c: a2850513     	addi	a0, a0, -0x5d8
80003740: 6d0c         	ld	a1, 0x18(a0)
80003742: 42b13823     	sd	a1, 0x430(sp)
80003746: e911         	bnez	a0, 0x8000375a <.Lpcrel_hi414>
80003748: a015         	j	0x8000376c <.Lpcrel_hi415>

000000008000374a <.Lpcrel_hi413>:
8000374a: 00005517     	auipc	a0, 0x5
8000374e: 8fe50513     	addi	a0, a0, -0x702
80003752: 00003097     	auipc	ra, 0x3
80003756: 006080e7     	jalr	0x6(ra) <core::panicking::panic_null_pointer_dereference::hbac6411af4f2e916>

000000008000375a <.Lpcrel_hi414>:
8000375a: 00007517     	auipc	a0, 0x7
8000375e: a0650513     	addi	a0, a0, -0x5fa
80003762: 710c         	ld	a1, 0x20(a0)
80003764: 42b13c23     	sd	a1, 0x438(sp)
80003768: e911         	bnez	a0, 0x8000377c <.Lpcrel_hi416>
8000376a: aad5         	j	0x8000395e <.Lpcrel_hi420>

000000008000376c <.Lpcrel_hi415>:
8000376c: 00005517     	auipc	a0, 0x5
80003770: 8f450513     	addi	a0, a0, -0x70c
80003774: 00003097     	auipc	ra, 0x3
80003778: fe4080e7     	jalr	-0x1c(ra) <core::panicking::panic_null_pointer_dereference::hbac6411af4f2e916>

000000008000377c <.Lpcrel_hi416>:
8000377c: 00007517     	auipc	a0, 0x7
80003780: 9e450513     	addi	a0, a0, -0x61c
80003784: 7508         	ld	a0, 0x28(a0)
80003786: 44a13023     	sd	a0, 0x440(sp)
8000378a: 40810513     	addi	a0, sp, 0x408
8000378e: 3ca13823     	sd	a0, 0x3d0(sp)
80003792: 41810513     	addi	a0, sp, 0x418
80003796: 3ca13c23     	sd	a0, 0x3d8(sp)
8000379a: 42010513     	addi	a0, sp, 0x420
8000379e: 3ea13023     	sd	a0, 0x3e0(sp)
800037a2: 42810513     	addi	a0, sp, 0x428
800037a6: 3ea13423     	sd	a0, 0x3e8(sp)
800037aa: 43010513     	addi	a0, sp, 0x430
800037ae: 3ea13823     	sd	a0, 0x3f0(sp)
800037b2: 43810513     	addi	a0, sp, 0x438
800037b6: 3ea13c23     	sd	a0, 0x3f8(sp)
800037ba: 44010513     	addi	a0, sp, 0x440
800037be: 40a13023     	sd	a0, 0x400(sp)
800037c2: 3d013583     	ld	a1, 0x3d0(sp)
800037c6: 4b810513     	addi	a0, sp, 0x4b8
800037ca: ffffd097     	auipc	ra, 0xffffd
800037ce: b3e080e7     	jalr	-0x4c2(ra) <core::fmt::rt::Argument::new_display::hec1511a75900333e>
800037d2: 3d813583     	ld	a1, 0x3d8(sp)
800037d6: 4c810513     	addi	a0, sp, 0x4c8
800037da: ffffd097     	auipc	ra, 0xffffd
800037de: ac8080e7     	jalr	-0x538(ra) <core::fmt::rt::Argument::new_display::h72b9aae62486e176>
800037e2: 3e013583     	ld	a1, 0x3e0(sp)
800037e6: 4d810513     	addi	a0, sp, 0x4d8
800037ea: ffffd097     	auipc	ra, 0xffffd
800037ee: ab8080e7     	jalr	-0x548(ra) <core::fmt::rt::Argument::new_display::h72b9aae62486e176>
800037f2: 3e813583     	ld	a1, 0x3e8(sp)
800037f6: 4e810513     	addi	a0, sp, 0x4e8
800037fa: ffffd097     	auipc	ra, 0xffffd
800037fe: b30080e7     	jalr	-0x4d0(ra) <core::fmt::rt::Argument::new_lower_hex::h2c3e51038c7990f0>
80003802: 3f013583     	ld	a1, 0x3f0(sp)
80003806: 4f810513     	addi	a0, sp, 0x4f8
8000380a: ffffd097     	auipc	ra, 0xffffd
8000380e: a98080e7     	jalr	-0x568(ra) <core::fmt::rt::Argument::new_display::h72b9aae62486e176>
80003812: 3f813583     	ld	a1, 0x3f8(sp)
80003816: 50810513     	addi	a0, sp, 0x508
8000381a: ffffd097     	auipc	ra, 0xffffd
8000381e: a88080e7     	jalr	-0x578(ra) <core::fmt::rt::Argument::new_display::h72b9aae62486e176>
80003822: 40013583     	ld	a1, 0x400(sp)
80003826: 51810513     	addi	a0, sp, 0x518
8000382a: ffffd097     	auipc	ra, 0xffffd
8000382e: b00080e7     	jalr	-0x500(ra) <core::fmt::rt::Argument::new_lower_hex::h2c3e51038c7990f0>
80003832: 4c013503     	ld	a0, 0x4c0(sp)
80003836: 44a13823     	sd	a0, 0x450(sp)
8000383a: 4b813503     	ld	a0, 0x4b8(sp)
8000383e: 44a13423     	sd	a0, 0x448(sp)
80003842: 4d013503     	ld	a0, 0x4d0(sp)
80003846: 46a13023     	sd	a0, 0x460(sp)
8000384a: 4c813503     	ld	a0, 0x4c8(sp)
8000384e: 44a13c23     	sd	a0, 0x458(sp)
80003852: 4e013503     	ld	a0, 0x4e0(sp)
80003856: 46a13823     	sd	a0, 0x470(sp)
8000385a: 4d813503     	ld	a0, 0x4d8(sp)
8000385e: 46a13423     	sd	a0, 0x468(sp)
80003862: 4f013503     	ld	a0, 0x4f0(sp)
80003866: 48a13023     	sd	a0, 0x480(sp)
8000386a: 4e813503     	ld	a0, 0x4e8(sp)
8000386e: 46a13c23     	sd	a0, 0x478(sp)
80003872: 50013503     	ld	a0, 0x500(sp)
80003876: 48a13823     	sd	a0, 0x490(sp)
8000387a: 4f813503     	ld	a0, 0x4f8(sp)
8000387e: 48a13423     	sd	a0, 0x488(sp)
80003882: 51013503     	ld	a0, 0x510(sp)
80003886: 4aa13023     	sd	a0, 0x4a0(sp)
8000388a: 50813503     	ld	a0, 0x508(sp)
8000388e: 48a13c23     	sd	a0, 0x498(sp)
80003892: 52013503     	ld	a0, 0x520(sp)
80003896: 4aa13823     	sd	a0, 0x4b0(sp)
8000389a: 51813503     	ld	a0, 0x518(sp)
8000389e: 4aa13423     	sd	a0, 0x4a8(sp)

00000000800038a2 <.Lpcrel_hi417>:
800038a2: 00004517     	auipc	a0, 0x4
800038a6: 7ee50513     	addi	a0, a0, 0x7ee
800038aa: 44810593     	addi	a1, sp, 0x448
800038ae: ffffd097     	auipc	ra, 0xffffd
800038b2: 8d2080e7     	jalr	-0x72e(ra) <core::fmt::Arguments::new::h35a51ab935d191ad>
800038b6: 00001097     	auipc	ra, 0x1
800038ba: 7c4080e7     	jalr	0x7c4(ra) <lab4_kernel_task4::console::print::h39762270f09f95ac>
800038be: 752a         	ld	a0, 0xa8(sp)
800038c0: 60a13c23     	sd	a0, 0x618(sp)
800038c4: 750a         	ld	a0, 0xa0(sp)
800038c6: 60a13823     	sd	a0, 0x610(sp)
800038ca: 656a         	ld	a0, 0x98(sp)
800038cc: 60a13423     	sd	a0, 0x608(sp)
800038d0: 654a         	ld	a0, 0x90(sp)
800038d2: 60a13023     	sd	a0, 0x600(sp)
800038d6: 652a         	ld	a0, 0x88(sp)
800038d8: 5ea13c23     	sd	a0, 0x5f8(sp)
800038dc: 650a         	ld	a0, 0x80(sp)
800038de: 5ea13823     	sd	a0, 0x5f0(sp)
800038e2: 7566         	ld	a0, 0x78(sp)
800038e4: 5ea13423     	sd	a0, 0x5e8(sp)
800038e8: 7546         	ld	a0, 0x70(sp)
800038ea: 5ea13023     	sd	a0, 0x5e0(sp)

00000000800038ee <.Lpcrel_hi418>:
800038ee: 00005517     	auipc	a0, 0x5
800038f2: 85750513     	addi	a0, a0, -0x7a9
800038f6: 45ad         	li	a1, 0xb
800038f8: f42e         	sd	a1, 0x28(sp)
800038fa: 00410637     	lui	a2, 0x410
800038fe: 5e010693     	addi	a3, sp, 0x5e0
80003902: ffffd097     	auipc	ra, 0xffffd
80003906: e3a080e7     	jalr	-0x1c6(ra) <lab4_kernel_task4::print_walk::h17f3ac5b095b2942>
8000390a: 75a2         	ld	a1, 0x28(sp)
8000390c: 752e         	ld	a0, 0xe8(sp)
8000390e: 64a13c23     	sd	a0, 0x658(sp)
80003912: 750e         	ld	a0, 0xe0(sp)
80003914: 64a13823     	sd	a0, 0x650(sp)
80003918: 656e         	ld	a0, 0xd8(sp)
8000391a: 64a13423     	sd	a0, 0x648(sp)
8000391e: 654e         	ld	a0, 0xd0(sp)
80003920: 64a13023     	sd	a0, 0x640(sp)
80003924: 652e         	ld	a0, 0xc8(sp)
80003926: 62a13c23     	sd	a0, 0x638(sp)
8000392a: 650e         	ld	a0, 0xc0(sp)
8000392c: 62a13823     	sd	a0, 0x630(sp)
80003930: 756a         	ld	a0, 0xb8(sp)
80003932: 62a13423     	sd	a0, 0x628(sp)
80003936: 754a         	ld	a0, 0xb0(sp)
80003938: 62a13023     	sd	a0, 0x620(sp)

000000008000393c <.Lpcrel_hi419>:
8000393c: 00005517     	auipc	a0, 0x5
80003940: 81450513     	addi	a0, a0, -0x7ec
80003944: 00411637     	lui	a2, 0x411
80003948: 62010693     	addi	a3, sp, 0x620
8000394c: ffffd097     	auipc	ra, 0xffffd
80003950: df0080e7     	jalr	-0x210(ra) <lab4_kernel_task4::print_walk::h17f3ac5b095b2942>
80003954: 6509         	lui	a0, 0x2
80003956: f82a         	sd	a0, 0x30(sp)
80003958: 4501         	li	a0, 0x0
8000395a: e50d         	bnez	a0, 0x80003984 <.Lpcrel_hi421>
8000395c: a809         	j	0x8000396e <.Lpcrel_hi420+0x10>

000000008000395e <.Lpcrel_hi420>:
8000395e: 00004517     	auipc	a0, 0x4
80003962: 71a50513     	addi	a0, a0, 0x71a
80003966: 00003097     	auipc	ra, 0x3
8000396a: df2080e7     	jalr	-0x20e(ra) <core::panicking::panic_null_pointer_dereference::hbac6411af4f2e916>
8000396e: 7542         	ld	a0, 0x30(sp)
80003970: 004105b7     	lui	a1, 0x410
80003974: 952e         	add	a0, a0, a1
80003976: f02a         	sd	a0, 0x20(sp)
80003978: 8141         	srli	a0, a0, 0x10
8000397a: 04100593     	li	a1, 0x41
8000397e: 06b56563     	bltu	a0, a1, 0x800039e8 <.Lpcrel_hi424>
80003982: a809         	j	0x80003994 <.Lpcrel_hi421+0x10>

0000000080003984 <.Lpcrel_hi421>:
80003984: 00004517     	auipc	a0, 0x4
80003988: 7e450513     	addi	a0, a0, 0x7e4
8000398c: 00003097     	auipc	ra, 0x3
80003990: d06080e7     	jalr	-0x2fa(ra) <core::panicking::panic_const::panic_const_mul_overflow::h67897feae7531d51>
80003994: 7602         	ld	a2, 0x20(sp)
80003996: 7532         	ld	a0, 0x128(sp)
80003998: 68a13c23     	sd	a0, 0x698(sp)
8000399c: 7512         	ld	a0, 0x120(sp)
8000399e: 68a13823     	sd	a0, 0x690(sp)
800039a2: 6572         	ld	a0, 0x118(sp)
800039a4: 68a13423     	sd	a0, 0x688(sp)
800039a8: 6552         	ld	a0, 0x110(sp)
800039aa: 68a13023     	sd	a0, 0x680(sp)
800039ae: 6532         	ld	a0, 0x108(sp)
800039b0: 66a13c23     	sd	a0, 0x678(sp)
800039b4: 6512         	ld	a0, 0x100(sp)
800039b6: 66a13823     	sd	a0, 0x670(sp)
800039ba: 756e         	ld	a0, 0xf8(sp)
800039bc: 66a13423     	sd	a0, 0x668(sp)
800039c0: 754e         	ld	a0, 0xf0(sp)
800039c2: 66a13023     	sd	a0, 0x660(sp)

00000000800039c6 <.Lpcrel_hi422>:
800039c6: 00004517     	auipc	a0, 0x4
800039ca: 79550513     	addi	a0, a0, 0x795
800039ce: 45ad         	li	a1, 0xb
800039d0: 66010693     	addi	a3, sp, 0x660
800039d4: ffffd097     	auipc	ra, 0xffffd
800039d8: d68080e7     	jalr	-0x298(ra) <lab4_kernel_task4::print_walk::h17f3ac5b095b2942>

00000000800039dc <.Lpcrel_hi423>:
800039dc: 00006517     	auipc	a0, 0x6
800039e0: 78450513     	addi	a0, a0, 0x784
800039e4: e911         	bnez	a0, 0x800039f8 <.Lpcrel_hi425>
800039e6: a015         	j	0x80003a0a <.Lpcrel_hi426>

00000000800039e8 <.Lpcrel_hi424>:
800039e8: 00004517     	auipc	a0, 0x4
800039ec: 79850513     	addi	a0, a0, 0x798
800039f0: 00003097     	auipc	ra, 0x3
800039f4: c84080e7     	jalr	-0x37c(ra) <core::panicking::panic_const::panic_const_add_overflow::h67cba067093910f8>

00000000800039f8 <.Lpcrel_hi425>:
800039f8: 00006517     	auipc	a0, 0x6
800039fc: 76850513     	addi	a0, a0, 0x768
80003a00: 03054503     	lbu	a0, 0x30(a0)
80003a04: 8905         	andi	a0, a0, 0x1
80003a06: ed11         	bnez	a0, 0x80003a22 <.Lpcrel_hi427>
80003a08: a809         	j	0x80003a1a <.Lpcrel_hi426+0x10>

0000000080003a0a <.Lpcrel_hi426>:
80003a0a: 00004517     	auipc	a0, 0x4
80003a0e: 78e50513     	addi	a0, a0, 0x78e
80003a12: 00003097     	auipc	ra, 0x3
80003a16: d46080e7     	jalr	-0x2ba(ra) <core::panicking::panic_null_pointer_dereference::hbac6411af4f2e916>
80003a1a: 4501         	li	a0, 0x0
80003a1c: 52a10623     	sb	a0, 0x52c(sp)
80003a20: a825         	j	0x80003a58 <.Lpcrel_hi431>

0000000080003a22 <.Lpcrel_hi427>:
80003a22: 00006517     	auipc	a0, 0x6
80003a26: 5ee50513     	addi	a0, a0, 0x5ee
80003a2a: c909         	beqz	a0, 0x80003a3c <.Lpcrel_hi429>
80003a2c: a009         	j	0x80003a2e <.Lpcrel_hi428>

0000000080003a2e <.Lpcrel_hi428>:
80003a2e: 00006517     	auipc	a0, 0x6
80003a32: 5e250513     	addi	a0, a0, 0x5e2
80003a36: 7108         	ld	a0, 0x20(a0)
80003a38: e911         	bnez	a0, 0x80003a4c <.Lpcrel_hi430>
80003a3a: b7c5         	j	0x80003a1a <.Lpcrel_hi426+0x10>

0000000080003a3c <.Lpcrel_hi429>:
80003a3c: 00004517     	auipc	a0, 0x4
80003a40: 77450513     	addi	a0, a0, 0x774
80003a44: 00003097     	auipc	ra, 0x3
80003a48: d14080e7     	jalr	-0x2ec(ra) <core::panicking::panic_null_pointer_dereference::hbac6411af4f2e916>

0000000080003a4c <.Lpcrel_hi430>:
80003a4c: 00006517     	auipc	a0, 0x6
80003a50: 5c450513     	addi	a0, a0, 0x5c4
80003a54: e901         	bnez	a0, 0x80003a64 <.Lpcrel_hi432>
80003a56: a00d         	j	0x80003a78 <.Lpcrel_hi433>

0000000080003a58 <.Lpcrel_hi431>:
80003a58: 00006517     	auipc	a0, 0x6
80003a5c: 70850513     	addi	a0, a0, 0x708
80003a60: e505         	bnez	a0, 0x80003a88 <.Lpcrel_hi434>
80003a62: a835         	j	0x80003a9e <.Lpcrel_hi435>

0000000080003a64 <.Lpcrel_hi432>:
80003a64: 00006517     	auipc	a0, 0x6
80003a68: 5ac50513     	addi	a0, a0, 0x5ac
80003a6c: 7908         	ld	a0, 0x30(a0)
80003a6e: 00a03533     	snez	a0, a0
80003a72: 52a10623     	sb	a0, 0x52c(sp)
80003a76: b7cd         	j	0x80003a58 <.Lpcrel_hi431>

0000000080003a78 <.Lpcrel_hi433>:
80003a78: 00004517     	auipc	a0, 0x4
80003a7c: 75050513     	addi	a0, a0, 0x750
80003a80: 00003097     	auipc	ra, 0x3
80003a84: cd8080e7     	jalr	-0x328(ra) <core::panicking::panic_null_pointer_dereference::hbac6411af4f2e916>

0000000080003a88 <.Lpcrel_hi434>:
80003a88: 00006517     	auipc	a0, 0x6
80003a8c: 6d850513     	addi	a0, a0, 0x6d8
80003a90: 6908         	ld	a0, 0x10(a0)
80003a92: ffffe097     	auipc	ra, 0xffffe
80003a96: 9c8080e7     	jalr	-0x638(ra) <lab4_kernel_task4::pte_is_swapped::h2f15221e95824ae5>
80003a9a: ed11         	bnez	a0, 0x80003ab6 <.Lpcrel_hi436>
80003a9c: a809         	j	0x80003aae <.Lpcrel_hi435+0x10>

0000000080003a9e <.Lpcrel_hi435>:
80003a9e: 00004517     	auipc	a0, 0x4
80003aa2: 74250513     	addi	a0, a0, 0x742
80003aa6: 00003097     	auipc	ra, 0x3
80003aaa: cb2080e7     	jalr	-0x34e(ra) <core::panicking::panic_null_pointer_dereference::hbac6411af4f2e916>
80003aae: 4501         	li	a0, 0x0
80003ab0: 52a106a3     	sb	a0, 0x52d(sp)
80003ab4: a0ad         	j	0x80003b1e <.Lpcrel_hi442>

0000000080003ab6 <.Lpcrel_hi436>:
80003ab6: 00006517     	auipc	a0, 0x6
80003aba: 6aa50513     	addi	a0, a0, 0x6aa
80003abe: c10d         	beqz	a0, 0x80003ae0 <.Lpcrel_hi438>
80003ac0: a009         	j	0x80003ac2 <.Lpcrel_hi437>

0000000080003ac2 <.Lpcrel_hi437>:
80003ac2: 00006517     	auipc	a0, 0x6
80003ac6: 69e50513     	addi	a0, a0, 0x69e
80003aca: e82a         	sd	a0, 0x10(sp)
80003acc: 6908         	ld	a0, 0x10(a0)
80003ace: fffff097     	auipc	ra, 0xfffff
80003ad2: 6f4080e7     	jalr	0x6f4(ra) <lab4_kernel_task4::swap_slot_from_pte::hcaf61d3d9674bda3>
80003ad6: 85aa         	mv	a1, a0
80003ad8: 6542         	ld	a0, 0x10(sp)
80003ada: ec2e         	sd	a1, 0x18(sp)
80003adc: e911         	bnez	a0, 0x80003af0 <.Lpcrel_hi438+0x10>
80003ade: a015         	j	0x80003b02 <.Lpcrel_hi440>

0000000080003ae0 <.Lpcrel_hi438>:
80003ae0: 00004517     	auipc	a0, 0x4
80003ae4: 71850513     	addi	a0, a0, 0x718
80003ae8: 00003097     	auipc	ra, 0x3
80003aec: c70080e7     	jalr	-0x390(ra) <core::panicking::panic_null_pointer_dereference::hbac6411af4f2e916>
80003af0: 6562         	ld	a0, 0x18(sp)

0000000080003af2 <.Lpcrel_hi439>:
80003af2: 00006597     	auipc	a1, 0x6
80003af6: 66e58593     	addi	a1, a1, 0x66e
80003afa: 658c         	ld	a1, 0x8(a1)
80003afc: 00b50b63     	beq	a0, a1, 0x80003b12 <.Lpcrel_hi441>
80003b00: b77d         	j	0x80003aae <.Lpcrel_hi435+0x10>

0000000080003b02 <.Lpcrel_hi440>:
80003b02: 00004517     	auipc	a0, 0x4
80003b06: 70e50513     	addi	a0, a0, 0x70e
80003b0a: 00003097     	auipc	ra, 0x3
80003b0e: c4e080e7     	jalr	-0x3b2(ra) <core::panicking::panic_null_pointer_dereference::hbac6411af4f2e916>

0000000080003b12 <.Lpcrel_hi441>:
80003b12: 00006517     	auipc	a0, 0x6
80003b16: 64e50513     	addi	a0, a0, 0x64e
80003b1a: e901         	bnez	a0, 0x80003b2a <.Lpcrel_hi443>
80003b1c: a00d         	j	0x80003b3e <.Lpcrel_hi444>

0000000080003b1e <.Lpcrel_hi442>:
80003b1e: 00006517     	auipc	a0, 0x6
80003b22: 4f250513     	addi	a0, a0, 0x4f2
80003b26: e505         	bnez	a0, 0x80003b4e <.Lpcrel_hi445>
80003b28: a815         	j	0x80003b5c <.Lpcrel_hi446>

0000000080003b2a <.Lpcrel_hi443>:
80003b2a: 00006517     	auipc	a0, 0x6
80003b2e: 63650513     	addi	a0, a0, 0x636
80003b32: 6108         	ld	a0, 0x0(a0)
80003b34: 00153513     	seqz	a0, a0
80003b38: 52a106a3     	sb	a0, 0x52d(sp)
80003b3c: b7cd         	j	0x80003b1e <.Lpcrel_hi442>

0000000080003b3e <.Lpcrel_hi444>:
80003b3e: 00004517     	auipc	a0, 0x4
80003b42: 6ea50513     	addi	a0, a0, 0x6ea
80003b46: 00003097     	auipc	ra, 0x3
80003b4a: c12080e7     	jalr	-0x3ee(ra) <core::panicking::panic_null_pointer_dereference::hbac6411af4f2e916>

0000000080003b4e <.Lpcrel_hi445>:
80003b4e: 00006517     	auipc	a0, 0x6
80003b52: 4c250513     	addi	a0, a0, 0x4c2
80003b56: 7508         	ld	a0, 0x28(a0)
80003b58: ed11         	bnez	a0, 0x80003b74 <.Lpcrel_hi447>
80003b5a: a809         	j	0x80003b6c <.Lpcrel_hi446+0x10>

0000000080003b5c <.Lpcrel_hi446>:
80003b5c: 00004517     	auipc	a0, 0x4
80003b60: 6e450513     	addi	a0, a0, 0x6e4
80003b64: 00003097     	auipc	ra, 0x3
80003b68: bf4080e7     	jalr	-0x40c(ra) <core::panicking::panic_null_pointer_dereference::hbac6411af4f2e916>
80003b6c: 4501         	li	a0, 0x0
80003b6e: 52a10723     	sb	a0, 0x52e(sp)
80003b72: a0dd         	j	0x80003c58 <.Lpcrel_hi457+0x16>

0000000080003b74 <.Lpcrel_hi447>:
80003b74: 00006517     	auipc	a0, 0x6
80003b78: 5ec50513     	addi	a0, a0, 0x5ec
80003b7c: c909         	beqz	a0, 0x80003b8e <.Lpcrel_hi449>
80003b7e: a009         	j	0x80003b80 <.Lpcrel_hi448>

0000000080003b80 <.Lpcrel_hi448>:
80003b80: 00006517     	auipc	a0, 0x6
80003b84: 5e050513     	addi	a0, a0, 0x5e0
80003b88: 6d08         	ld	a0, 0x18(a0)
80003b8a: c911         	beqz	a0, 0x80003b9e <.Lpcrel_hi450>
80003b8c: b7c5         	j	0x80003b6c <.Lpcrel_hi446+0x10>

0000000080003b8e <.Lpcrel_hi449>:
80003b8e: 00004517     	auipc	a0, 0x4
80003b92: 6ca50513     	addi	a0, a0, 0x6ca
80003b96: 00003097     	auipc	ra, 0x3
80003b9a: bc2080e7     	jalr	-0x43e(ra) <core::panicking::panic_null_pointer_dereference::hbac6411af4f2e916>

0000000080003b9e <.Lpcrel_hi450>:
80003b9e: 00006517     	auipc	a0, 0x6
80003ba2: 5c250513     	addi	a0, a0, 0x5c2
80003ba6: c911         	beqz	a0, 0x80003bba <.Lpcrel_hi452>
80003ba8: a009         	j	0x80003baa <.Lpcrel_hi451>

0000000080003baa <.Lpcrel_hi451>:
80003baa: 00006517     	auipc	a0, 0x6
80003bae: 5b650513     	addi	a0, a0, 0x5b6
80003bb2: 710c         	ld	a1, 0x20(a0)
80003bb4: e42e         	sd	a1, 0x8(sp)
80003bb6: e911         	bnez	a0, 0x80003bca <.Lpcrel_hi452+0x10>
80003bb8: a015         	j	0x80003bdc <.Lpcrel_hi454>

0000000080003bba <.Lpcrel_hi452>:
80003bba: 00004517     	auipc	a0, 0x4
80003bbe: 6b650513     	addi	a0, a0, 0x6b6
80003bc2: 00003097     	auipc	ra, 0x3
80003bc6: b96080e7     	jalr	-0x46a(ra) <core::panicking::panic_null_pointer_dereference::hbac6411af4f2e916>
80003bca: 6522         	ld	a0, 0x8(sp)

0000000080003bcc <.Lpcrel_hi453>:
80003bcc: 00006597     	auipc	a1, 0x6
80003bd0: 59458593     	addi	a1, a1, 0x594
80003bd4: 658c         	ld	a1, 0x8(a1)
80003bd6: 00b50b63     	beq	a0, a1, 0x80003bec <.Lpcrel_hi454+0x10>
80003bda: bf49         	j	0x80003b6c <.Lpcrel_hi446+0x10>

0000000080003bdc <.Lpcrel_hi454>:
80003bdc: 00004517     	auipc	a0, 0x4
80003be0: 6ac50513     	addi	a0, a0, 0x6ac
80003be4: 00003097     	auipc	ra, 0x3
80003be8: b74080e7     	jalr	-0x48c(ra) <core::panicking::panic_null_pointer_dereference::hbac6411af4f2e916>
80003bec: 752a         	ld	a0, 0xa8(sp)
80003bee: ffffd097     	auipc	ra, 0xffffd
80003bf2: 0b8080e7     	jalr	0xb8(ra) <lab4_kernel_task4::pte_is_valid::h6bf9a14b87e3b7e3>
80003bf6: d93d         	beqz	a0, 0x80003b6c <.Lpcrel_hi446+0x10>
80003bf8: a009         	j	0x80003bfa <.Lpcrel_hi454+0x1e>
80003bfa: 752a         	ld	a0, 0xa8(sp)
80003bfc: ffffe097     	auipc	ra, 0xffffe
80003c00: 85e080e7     	jalr	-0x7a2(ra) <lab4_kernel_task4::pte_is_swapped::h2f15221e95824ae5>
80003c04: f525         	bnez	a0, 0x80003b6c <.Lpcrel_hi446+0x10>
80003c06: a009         	j	0x80003c08 <.Lpcrel_hi454+0x2c>
80003c08: 752a         	ld	a0, 0xa8(sp)
80003c0a: ffffe097     	auipc	ra, 0xffffe
80003c0e: 844080e7     	jalr	-0x7bc(ra) <lab4_kernel_task4::pte_has_write::h10d830e29ead5b50>
80003c12: dd29         	beqz	a0, 0x80003b6c <.Lpcrel_hi446+0x10>
80003c14: a009         	j	0x80003c16 <.Lpcrel_hi454+0x3a>
80003c16: 6566         	ld	a0, 0x58(sp)
80003c18: 6908         	ld	a0, 0x10(a0)

0000000080003c1a <.Lpcrel_hi455>:
80003c1a: 00003597     	auipc	a1, 0x3
80003c1e: 5f658593     	addi	a1, a1, 0x5f6
80003c22: 618c         	ld	a1, 0x0(a1)
80003c24: f4b514e3     	bne	a0, a1, 0x80003b6c <.Lpcrel_hi446+0x10>
80003c28: a009         	j	0x80003c2a <.Lpcrel_hi455+0x10>
80003c2a: 6566         	ld	a0, 0x58(sp)
80003c2c: 6d08         	ld	a0, 0x18(a0)

0000000080003c2e <.Lpcrel_hi456>:
80003c2e: 00003597     	auipc	a1, 0x3
80003c32: 5e258593     	addi	a1, a1, 0x5e2
80003c36: 618c         	ld	a1, 0x0(a1)
80003c38: f2b51ae3     	bne	a0, a1, 0x80003b6c <.Lpcrel_hi446+0x10>
80003c3c: a009         	j	0x80003c3e <.Lpcrel_hi456+0x10>
80003c3e: 6566         	ld	a0, 0x58(sp)
80003c40: 6508         	ld	a0, 0x8(a0)

0000000080003c42 <.Lpcrel_hi457>:
80003c42: 00003597     	auipc	a1, 0x3
80003c46: 5de58593     	addi	a1, a1, 0x5de
80003c4a: 618c         	ld	a1, 0x0(a1)
80003c4c: 8d2d         	xor	a0, a0, a1
80003c4e: 00153513     	seqz	a0, a0
80003c52: 52a10723     	sb	a0, 0x52e(sp)
80003c56: a009         	j	0x80003c58 <.Lpcrel_hi457+0x16>
80003c58: 7526         	ld	a0, 0x68(sp)
80003c5a: c511         	beqz	a0, 0x80003c66 <.Lpcrel_hi457+0x24>
80003c5c: a009         	j	0x80003c5e <.Lpcrel_hi457+0x1c>
80003c5e: 4501         	li	a0, 0x0
80003c60: 52a107a3     	sb	a0, 0x52f(sp)
80003c64: aa1d         	j	0x80003d9a <.Lpcrel_hi477+0xc>
80003c66: 6566         	ld	a0, 0x58(sp)
80003c68: 6108         	ld	a0, 0x0(a0)

0000000080003c6a <.Lpcrel_hi458>:
80003c6a: 00003597     	auipc	a1, 0x3
80003c6e: 5be58593     	addi	a1, a1, 0x5be
80003c72: 618c         	ld	a1, 0x0(a1)
80003c74: feb515e3     	bne	a0, a1, 0x80003c5e <.Lpcrel_hi457+0x1c>
80003c78: a009         	j	0x80003c7a <.Lpcrel_hi459>

0000000080003c7a <.Lpcrel_hi459>:
80003c7a: 00006517     	auipc	a0, 0x6
80003c7e: 39650513     	addi	a0, a0, 0x396
80003c82: c919         	beqz	a0, 0x80003c98 <.Lpcrel_hi461>
80003c84: a009         	j	0x80003c86 <.Lpcrel_hi460>

0000000080003c86 <.Lpcrel_hi460>:
80003c86: 00006517     	auipc	a0, 0x6
80003c8a: 38a50513     	addi	a0, a0, 0x38a
80003c8e: 6108         	ld	a0, 0x0(a0)
80003c90: 4591         	li	a1, 0x4
80003c92: 00b50b63     	beq	a0, a1, 0x80003ca8 <.Lpcrel_hi462>
80003c96: b7e1         	j	0x80003c5e <.Lpcrel_hi457+0x1c>

0000000080003c98 <.Lpcrel_hi461>:
80003c98: 00004517     	auipc	a0, 0x4
80003c9c: 60850513     	addi	a0, a0, 0x608
80003ca0: 00003097     	auipc	ra, 0x3
80003ca4: ab8080e7     	jalr	-0x548(ra) <core::panicking::panic_null_pointer_dereference::hbac6411af4f2e916>

0000000080003ca8 <.Lpcrel_hi462>:
80003ca8: 00006517     	auipc	a0, 0x6
80003cac: 36850513     	addi	a0, a0, 0x368
80003cb0: c919         	beqz	a0, 0x80003cc6 <.Lpcrel_hi464>
80003cb2: a009         	j	0x80003cb4 <.Lpcrel_hi463>

0000000080003cb4 <.Lpcrel_hi463>:
80003cb4: 00006517     	auipc	a0, 0x6
80003cb8: 35c50513     	addi	a0, a0, 0x35c
80003cbc: 6508         	ld	a0, 0x8(a0)
80003cbe: 4585         	li	a1, 0x1
80003cc0: 00b50b63     	beq	a0, a1, 0x80003cd6 <.Lpcrel_hi465>
80003cc4: bf69         	j	0x80003c5e <.Lpcrel_hi457+0x1c>

0000000080003cc6 <.Lpcrel_hi464>:
80003cc6: 00004517     	auipc	a0, 0x4
80003cca: 5f250513     	addi	a0, a0, 0x5f2
80003cce: 00003097     	auipc	ra, 0x3
80003cd2: a8a080e7     	jalr	-0x576(ra) <core::panicking::panic_null_pointer_dereference::hbac6411af4f2e916>

0000000080003cd6 <.Lpcrel_hi465>:
80003cd6: 00006517     	auipc	a0, 0x6
80003cda: 33a50513     	addi	a0, a0, 0x33a
80003cde: c919         	beqz	a0, 0x80003cf4 <.Lpcrel_hi467>
80003ce0: a009         	j	0x80003ce2 <.Lpcrel_hi466>

0000000080003ce2 <.Lpcrel_hi466>:
80003ce2: 00006517     	auipc	a0, 0x6
80003ce6: 32e50513     	addi	a0, a0, 0x32e
80003cea: 6908         	ld	a0, 0x10(a0)
80003cec: 458d         	li	a1, 0x3
80003cee: 00b50b63     	beq	a0, a1, 0x80003d04 <.Lpcrel_hi468>
80003cf2: b7b5         	j	0x80003c5e <.Lpcrel_hi457+0x1c>

0000000080003cf4 <.Lpcrel_hi467>:
80003cf4: 00004517     	auipc	a0, 0x4
80003cf8: 5dc50513     	addi	a0, a0, 0x5dc
80003cfc: 00003097     	auipc	ra, 0x3
80003d00: a5c080e7     	jalr	-0x5a4(ra) <core::panicking::panic_null_pointer_dereference::hbac6411af4f2e916>

0000000080003d04 <.Lpcrel_hi468>:
80003d04: 00006517     	auipc	a0, 0x6
80003d08: 30c50513     	addi	a0, a0, 0x30c
80003d0c: c919         	beqz	a0, 0x80003d22 <.Lpcrel_hi470>
80003d0e: a009         	j	0x80003d10 <.Lpcrel_hi469>

0000000080003d10 <.Lpcrel_hi469>:
80003d10: 00006517     	auipc	a0, 0x6
80003d14: 30050513     	addi	a0, a0, 0x300
80003d18: 6d08         	ld	a0, 0x18(a0)
80003d1a: 458d         	li	a1, 0x3
80003d1c: 00b50b63     	beq	a0, a1, 0x80003d32 <.Lpcrel_hi471>
80003d20: bf3d         	j	0x80003c5e <.Lpcrel_hi457+0x1c>

0000000080003d22 <.Lpcrel_hi470>:
80003d22: 00004517     	auipc	a0, 0x4
80003d26: 5c650513     	addi	a0, a0, 0x5c6
80003d2a: 00003097     	auipc	ra, 0x3
80003d2e: a2e080e7     	jalr	-0x5d2(ra) <core::panicking::panic_null_pointer_dereference::hbac6411af4f2e916>

0000000080003d32 <.Lpcrel_hi471>:
80003d32: 00006517     	auipc	a0, 0x6
80003d36: 2de50513     	addi	a0, a0, 0x2de
80003d3a: c919         	beqz	a0, 0x80003d50 <.Lpcrel_hi473>
80003d3c: a009         	j	0x80003d3e <.Lpcrel_hi472>

0000000080003d3e <.Lpcrel_hi472>:
80003d3e: 00006517     	auipc	a0, 0x6
80003d42: 2d250513     	addi	a0, a0, 0x2d2
80003d46: 7108         	ld	a0, 0x20(a0)
80003d48: 4589         	li	a1, 0x2
80003d4a: 00b50b63     	beq	a0, a1, 0x80003d60 <.Lpcrel_hi474>
80003d4e: bf01         	j	0x80003c5e <.Lpcrel_hi457+0x1c>

0000000080003d50 <.Lpcrel_hi473>:
80003d50: 00004517     	auipc	a0, 0x4
80003d54: 5b050513     	addi	a0, a0, 0x5b0
80003d58: 00003097     	auipc	ra, 0x3
80003d5c: a00080e7     	jalr	-0x600(ra) <core::panicking::panic_null_pointer_dereference::hbac6411af4f2e916>

0000000080003d60 <.Lpcrel_hi474>:
80003d60: 00006517     	auipc	a0, 0x6
80003d64: 2b050513     	addi	a0, a0, 0x2b0
80003d68: c919         	beqz	a0, 0x80003d7e <.Lpcrel_hi476>
80003d6a: a009         	j	0x80003d6c <.Lpcrel_hi475>

0000000080003d6c <.Lpcrel_hi475>:
80003d6c: 00006517     	auipc	a0, 0x6
80003d70: 2a450513     	addi	a0, a0, 0x2a4
80003d74: 7508         	ld	a0, 0x28(a0)
80003d76: 4585         	li	a1, 0x1
80003d78: 00b50b63     	beq	a0, a1, 0x80003d8e <.Lpcrel_hi477>
80003d7c: b5cd         	j	0x80003c5e <.Lpcrel_hi457+0x1c>

0000000080003d7e <.Lpcrel_hi476>:
80003d7e: 00004517     	auipc	a0, 0x4
80003d82: 59a50513     	addi	a0, a0, 0x59a
80003d86: 00003097     	auipc	ra, 0x3
80003d8a: 9d2080e7     	jalr	-0x62e(ra) <core::panicking::panic_null_pointer_dereference::hbac6411af4f2e916>

0000000080003d8e <.Lpcrel_hi477>:
80003d8e: 00006517     	auipc	a0, 0x6
80003d92: 28250513     	addi	a0, a0, 0x282
80003d96: e95d         	bnez	a0, 0x80003e4c <.Lpcrel_hi480>
80003d98: a0e9         	j	0x80003e62 <.Lpcrel_hi481>
80003d9a: 52c14503     	lbu	a0, 0x52c(sp)
80003d9e: 00000097     	auipc	ra, 0x0
80003da2: 780080e7     	jalr	0x780(ra) <lab4_kernel_task4::pass_fail::h0c9b80618626d2c4>
80003da6: 52a13823     	sd	a0, 0x530(sp)
80003daa: 52b13c23     	sd	a1, 0x538(sp)
80003dae: 53010593     	addi	a1, sp, 0x530
80003db2: 6ab13023     	sd	a1, 0x6a0(sp)
80003db6: 55010513     	addi	a0, sp, 0x550
80003dba: ffffc097     	auipc	ra, 0xffffc
80003dbe: 54e080e7     	jalr	0x54e(ra) <core::fmt::rt::Argument::new_display::hec1511a75900333e>
80003dc2: 55813503     	ld	a0, 0x558(sp)
80003dc6: 54a13423     	sd	a0, 0x548(sp)
80003dca: 55013503     	ld	a0, 0x550(sp)
80003dce: 54a13023     	sd	a0, 0x540(sp)

0000000080003dd2 <.Lpcrel_hi478>:
80003dd2: 00003517     	auipc	a0, 0x3
80003dd6: 1d350513     	addi	a0, a0, 0x1d3
80003dda: 54010593     	addi	a1, sp, 0x540
80003dde: ffffc097     	auipc	ra, 0xffffc
80003de2: 366080e7     	jalr	0x366(ra) <core::fmt::Arguments::new::h1043af8035f87bc2>
80003de6: 00001097     	auipc	ra, 0x1
80003dea: 294080e7     	jalr	0x294(ra) <lab4_kernel_task4::console::print::h39762270f09f95ac>
80003dee: 52d14503     	lbu	a0, 0x52d(sp)
80003df2: 00000097     	auipc	ra, 0x0
80003df6: 72c080e7     	jalr	0x72c(ra) <lab4_kernel_task4::pass_fail::h0c9b80618626d2c4>
80003dfa: 56a13023     	sd	a0, 0x560(sp)
80003dfe: 56b13423     	sd	a1, 0x568(sp)
80003e02: 56010593     	addi	a1, sp, 0x560
80003e06: 6ab13423     	sd	a1, 0x6a8(sp)
80003e0a: 58010513     	addi	a0, sp, 0x580
80003e0e: ffffc097     	auipc	ra, 0xffffc
80003e12: 4fa080e7     	jalr	0x4fa(ra) <core::fmt::rt::Argument::new_display::hec1511a75900333e>
80003e16: 58813503     	ld	a0, 0x588(sp)
80003e1a: 56a13c23     	sd	a0, 0x578(sp)
80003e1e: 58013503     	ld	a0, 0x580(sp)
80003e22: 56a13823     	sd	a0, 0x570(sp)

0000000080003e26 <.Lpcrel_hi479>:
80003e26: 00003517     	auipc	a0, 0x3
80003e2a: 27750513     	addi	a0, a0, 0x277
80003e2e: 57010593     	addi	a1, sp, 0x570
80003e32: ffffc097     	auipc	ra, 0xffffc
80003e36: 380080e7     	jalr	0x380(ra) <core::fmt::Arguments::new::h61e6d4fd3b08986f>
80003e3a: 00001097     	auipc	ra, 0x1
80003e3e: 240080e7     	jalr	0x240(ra) <lab4_kernel_task4::console::print::h39762270f09f95ac>
80003e42: 52e14503     	lbu	a0, 0x52e(sp)
80003e46: 8905         	andi	a0, a0, 0x1
80003e48: e90d         	bnez	a0, 0x80003e7a <.Lpcrel_hi481+0x18>
80003e4a: a025         	j	0x80003e72 <.Lpcrel_hi481+0x10>

0000000080003e4c <.Lpcrel_hi480>:
80003e4c: 00006517     	auipc	a0, 0x6
80003e50: 1c450513     	addi	a0, a0, 0x1c4
80003e54: 6528         	ld	a0, 0x48(a0)
80003e56: 1579         	addi	a0, a0, -0x2
80003e58: 00153513     	seqz	a0, a0
80003e5c: 52a107a3     	sb	a0, 0x52f(sp)
80003e60: bf2d         	j	0x80003d9a <.Lpcrel_hi477+0xc>

0000000080003e62 <.Lpcrel_hi481>:
80003e62: 00004517     	auipc	a0, 0x4
80003e66: 4ce50513     	addi	a0, a0, 0x4ce
80003e6a: 00003097     	auipc	ra, 0x3
80003e6e: 8ee080e7     	jalr	-0x712(ra) <core::panicking::panic_null_pointer_dereference::hbac6411af4f2e916>
80003e72: 4501         	li	a0, 0x0
80003e74: 5aa103a3     	sb	a0, 0x5a7(sp)
80003e78: a031         	j	0x80003e84 <.Lpcrel_hi481+0x22>
80003e7a: 52f14503     	lbu	a0, 0x52f(sp)
80003e7e: 5aa103a3     	sb	a0, 0x5a7(sp)
80003e82: a009         	j	0x80003e84 <.Lpcrel_hi481+0x22>
80003e84: 5a714503     	lbu	a0, 0x5a7(sp)
80003e88: 00000097     	auipc	ra, 0x0
80003e8c: 696080e7     	jalr	0x696(ra) <lab4_kernel_task4::pass_fail::h0c9b80618626d2c4>
80003e90: 58a13823     	sd	a0, 0x590(sp)
80003e94: 58b13c23     	sd	a1, 0x598(sp)
80003e98: 59010593     	addi	a1, sp, 0x590
80003e9c: 6ab13823     	sd	a1, 0x6b0(sp)
80003ea0: 5b810513     	addi	a0, sp, 0x5b8
80003ea4: ffffc097     	auipc	ra, 0xffffc
80003ea8: 464080e7     	jalr	0x464(ra) <core::fmt::rt::Argument::new_display::hec1511a75900333e>
80003eac: 5c013503     	ld	a0, 0x5c0(sp)
80003eb0: 5aa13823     	sd	a0, 0x5b0(sp)
80003eb4: 5b813503     	ld	a0, 0x5b8(sp)
80003eb8: 5aa13423     	sd	a0, 0x5a8(sp)

0000000080003ebc <.Lpcrel_hi482>:
80003ebc: 00003517     	auipc	a0, 0x3
80003ec0: fad50513     	addi	a0, a0, -0x53
80003ec4: 5a810593     	addi	a1, sp, 0x5a8
80003ec8: ffffc097     	auipc	ra, 0xffffc
80003ecc: 2a4080e7     	jalr	0x2a4(ra) <core::fmt::Arguments::new::h30e37af3d9f1e1e4>
80003ed0: 00001097     	auipc	ra, 0x1
80003ed4: 1aa080e7     	jalr	0x1aa(ra) <lab4_kernel_task4::console::print::h39762270f09f95ac>
80003ed8: 52c14503     	lbu	a0, 0x52c(sp)
80003edc: 8905         	andi	a0, a0, 0x1
80003ede: e511         	bnez	a0, 0x80003eea <.Lpcrel_hi482+0x2e>
80003ee0: a009         	j	0x80003ee2 <.Lpcrel_hi482+0x26>
80003ee2: 4505         	li	a0, 0x1
80003ee4: 5ca12623     	sw	a0, 0x5cc(sp)
80003ee8: a025         	j	0x80003f10 <.Lpcrel_hi482+0x54>
80003eea: 52d14503     	lbu	a0, 0x52d(sp)
80003eee: 8905         	andi	a0, a0, 0x1
80003ef0: d96d         	beqz	a0, 0x80003ee2 <.Lpcrel_hi482+0x26>
80003ef2: a009         	j	0x80003ef4 <.Lpcrel_hi482+0x38>
80003ef4: 52e14503     	lbu	a0, 0x52e(sp)
80003ef8: 8905         	andi	a0, a0, 0x1
80003efa: d565         	beqz	a0, 0x80003ee2 <.Lpcrel_hi482+0x26>
80003efc: a009         	j	0x80003efe <.Lpcrel_hi482+0x42>
80003efe: 52f14503     	lbu	a0, 0x52f(sp)
80003f02: 8905         	andi	a0, a0, 0x1
80003f04: dd79         	beqz	a0, 0x80003ee2 <.Lpcrel_hi482+0x26>
80003f06: a009         	j	0x80003f08 <.Lpcrel_hi482+0x4c>
80003f08: 4501         	li	a0, 0x0
80003f0a: 5ca12623     	sw	a0, 0x5cc(sp)
80003f0e: a009         	j	0x80003f10 <.Lpcrel_hi482+0x54>
80003f10: 5cc12503     	lw	a0, 0x5cc(sp)
80003f14: 00000097     	auipc	ra, 0x0
80003f18: 648080e7     	jalr	0x648(ra) <lab4_kernel_task4::qemu_exit::he78fd981eff3bf43>

0000000080003f1c <lab4_kernel_task4::user_shared_page_pa::hc3421eb889e20e14>:
80003f1c: 0000b517     	auipc	a0, 0xb
80003f20: 0e450513     	addi	a0, a0, 0xe4
80003f24: 8082         	ret

0000000080003f26 <lab4_kernel_task4::install_working_leaf::h532f51ca2030ade9>:
80003f26: 7139         	addi	sp, sp, -0x40
80003f28: fc06         	sd	ra, 0x38(sp)
80003f2a: e42e         	sd	a1, 0x8(sp)
80003f2c: 85aa         	mv	a1, a0
80003f2e: 6522         	ld	a0, 0x8(sp)
80003f30: e82e         	sd	a1, 0x10(sp)
80003f32: f42e         	sd	a1, 0x28(sp)
80003f34: f82a         	sd	a0, 0x30(sp)
80003f36: 0d600593     	li	a1, 0xd6
80003f3a: 00000097     	auipc	ra, 0x0
80003f3e: 4da080e7     	jalr	0x4da(ra) <lab4_kernel_task4::leaf_pte::hd9fa8dd091968985>
80003f42: 85aa         	mv	a1, a0
80003f44: 6542         	ld	a0, 0x10(sp)
80003f46: ec2e         	sd	a1, 0x18(sp)
80003f48: ffffd097     	auipc	ra, 0xffffd
80003f4c: c56080e7     	jalr	-0x3aa(ra) <lab4_kernel_task4::vpn0_index::h62e57f18e5f43d5f>
80003f50: 85aa         	mv	a1, a0
80003f52: 852e         	mv	a0, a1
80003f54: f02a         	sd	a0, 0x20(sp)
80003f56: 1ff00513     	li	a0, 0x1ff
80003f5a: 00b56a63     	bltu	a0, a1, 0x80003f6e <.Lpcrel_hi484+0xe>
80003f5e: a009         	j	0x80003f60 <.Lpcrel_hi484>

0000000080003f60 <.Lpcrel_hi484>:
80003f60: 0000e517     	auipc	a0, 0xe
80003f64: 0a050513     	addi	a0, a0, 0xa0
80003f68: 1552         	slli	a0, a0, 0x34
80003f6a: cd09         	beqz	a0, 0x80003f84 <.Lpcrel_hi486>
80003f6c: a015         	j	0x80003f90 <.Lpcrel_hi487>
80003f6e: 7502         	ld	a0, 0x20(sp)

0000000080003f70 <.Lpcrel_hi485>:
80003f70: 00004597     	auipc	a1, 0x4
80003f74: 3d858613     	addi	a2, a1, 0x3d8
80003f78: 20000593     	li	a1, 0x200
80003f7c: 00002097     	auipc	ra, 0x2
80003f80: 770080e7     	jalr	0x770(ra) <core::panicking::panic_bounds_check::h6aaee0d15e0261eb>

0000000080003f84 <.Lpcrel_hi486>:
80003f84: 0000e517     	auipc	a0, 0xe
80003f88: 07c50513     	addi	a0, a0, 0x7c
80003f8c: ed19         	bnez	a0, 0x80003faa <.Lpcrel_hi488+0x12>
80003f8e: a081         	j	0x80003fce <.Lpcrel_hi490>

0000000080003f90 <.Lpcrel_hi487>:
80003f90: 0000e517     	auipc	a0, 0xe
80003f94: 07050593     	addi	a1, a0, 0x70

0000000080003f98 <.Lpcrel_hi488>:
80003f98: 00004517     	auipc	a0, 0x4
80003f9c: 3b050613     	addi	a2, a0, 0x3b0
80003fa0: 6505         	lui	a0, 0x1
80003fa2: 00002097     	auipc	ra, 0x2
80003fa6: 7d6080e7     	jalr	0x7d6(ra) <core::panicking::panic_misaligned_pointer_dereference::hda85f7fb51d959f0>
80003faa: 6542         	ld	a0, 0x10(sp)
80003fac: 65e2         	ld	a1, 0x18(sp)
80003fae: 7602         	ld	a2, 0x20(sp)
80003fb0: 00361693     	slli	a3, a2, 0x3

0000000080003fb4 <.Lpcrel_hi489>:
80003fb4: 0000e617     	auipc	a2, 0xe
80003fb8: 04c60613     	addi	a2, a2, 0x4c
80003fbc: 9636         	add	a2, a2, a3
80003fbe: e20c         	sd	a1, 0x0(a2)
80003fc0: 00000097     	auipc	ra, 0x0
80003fc4: 5e4080e7     	jalr	0x5e4(ra) <lab4_kernel_task4::sfence_va::h2913b9c24c7f9939>
80003fc8: 70e2         	ld	ra, 0x38(sp)
80003fca: 6121         	addi	sp, sp, 0x40
80003fcc: 8082         	ret

0000000080003fce <.Lpcrel_hi490>:
80003fce: 00004517     	auipc	a0, 0x4
80003fd2: 37a50513     	addi	a0, a0, 0x37a
80003fd6: 00002097     	auipc	ra, 0x2
80003fda: 782080e7     	jalr	0x782(ra) <core::panicking::panic_null_pointer_dereference::hbac6411af4f2e916>

0000000080003fde <lab4_kernel_task4::acquire_frame_for_page::h5325b1eb0bff54f3>:
80003fde: 711d         	addi	sp, sp, -0x60
80003fe0: ec86         	sd	ra, 0x58(sp)
80003fe2: ec2a         	sd	a0, 0x18(sp)
80003fe4: e4aa         	sd	a0, 0x48(sp)
80003fe6: 4501         	li	a0, 0x0
80003fe8: 4589         	li	a1, 0x2
80003fea: ffffc097     	auipc	ra, 0xffffc
80003fee: 398080e7     	jalr	0x398(ra) <_$LT$I$u20$as$u20$core..iter..traits..collect..IntoIterator$GT$::into_iter::hfb4e8047a0c34837>
80003ff2: f42a         	sd	a0, 0x28(sp)
80003ff4: f82e         	sd	a1, 0x30(sp)
80003ff6: a009         	j	0x80003ff8 <lab4_kernel_task4::acquire_frame_for_page::h5325b1eb0bff54f3+0x1a>
80003ff8: 1028         	addi	a0, sp, 0x28
80003ffa: ffffc097     	auipc	ra, 0xffffc
80003ffe: 374080e7     	jalr	0x374(ra) <core::iter::range::_$LT$impl$u20$core..iter..traits..iterator..Iterator$u20$for$u20$core..ops..range..Range$LT$A$GT$$GT$::next::h2b4844740963e1ba>
80004002: fc2a         	sd	a0, 0x38(sp)
80004004: e0ae         	sd	a1, 0x40(sp)
80004006: 7562         	ld	a0, 0x38(sp)
80004008: 8905         	andi	a0, a0, 0x1
8000400a: c919         	beqz	a0, 0x80004020 <.Lpcrel_hi491>
8000400c: a009         	j	0x8000400e <lab4_kernel_task4::acquire_frame_for_page::h5325b1eb0bff54f3+0x30>
8000400e: 6506         	ld	a0, 0x40(sp)
80004010: e42a         	sd	a0, 0x8(sp)
80004012: e8aa         	sd	a0, 0x50(sp)
80004014: 4589         	li	a1, 0x2
80004016: 862a         	mv	a2, a0
80004018: e832         	sd	a2, 0x10(sp)
8000401a: 04b56363     	bltu	a0, a1, 0x80004060 <.Lpcrel_hi494>
8000401e: a0b9         	j	0x8000406c <.Lpcrel_hi494+0xc>

0000000080004020 <.Lpcrel_hi491>:
80004020: 00006517     	auipc	a0, 0x6
80004024: 14050513     	addi	a0, a0, 0x140
80004028: c105         	beqz	a0, 0x80004048 <.Lpcrel_hi493>
8000402a: a009         	j	0x8000402c <.Lpcrel_hi491+0xc>
8000402c: 6562         	ld	a0, 0x18(sp)

000000008000402e <.Lpcrel_hi492>:
8000402e: 00006597     	auipc	a1, 0x6
80004032: 13258613     	addi	a2, a1, 0x132
80004036: 4585         	li	a1, 0x1
80004038: 02b60823     	sb	a1, 0x30(a2)
8000403c: ffffd097     	auipc	ra, 0xffffd
80004040: 74a080e7     	jalr	0x74a(ra) <lab4_kernel_task4::evict_with_clock::hb9ee93d5fd84bf50>
80004044: f02a         	sd	a0, 0x20(sp)
80004046: a809         	j	0x80004058 <.Lpcrel_hi493+0x10>

0000000080004048 <.Lpcrel_hi493>:
80004048: 00004517     	auipc	a0, 0x4
8000404c: 31850513     	addi	a0, a0, 0x318
80004050: 00002097     	auipc	ra, 0x2
80004054: 708080e7     	jalr	0x708(ra) <core::panicking::panic_null_pointer_dereference::hbac6411af4f2e916>
80004058: 7502         	ld	a0, 0x20(sp)
8000405a: 60e6         	ld	ra, 0x58(sp)
8000405c: 6125         	addi	sp, sp, 0x60
8000405e: 8082         	ret

0000000080004060 <.Lpcrel_hi494>:
80004060: 00008517     	auipc	a0, 0x8
80004064: fa050513     	addi	a0, a0, -0x60
80004068: ed01         	bnez	a0, 0x80004080 <.Lpcrel_hi495+0x12>
8000406a: a80d         	j	0x8000409c <.Lpcrel_hi497>
8000406c: 6542         	ld	a0, 0x10(sp)

000000008000406e <.Lpcrel_hi495>:
8000406e: 00004597     	auipc	a1, 0x4
80004072: 30a58613     	addi	a2, a1, 0x30a
80004076: 4589         	li	a1, 0x2
80004078: 00002097     	auipc	ra, 0x2
8000407c: 674080e7     	jalr	0x674(ra) <core::panicking::panic_bounds_check::h6aaee0d15e0261eb>
80004080: 65a2         	ld	a1, 0x8(sp)
80004082: 00459613     	slli	a2, a1, 0x4

0000000080004086 <.Lpcrel_hi496>:
80004086: 00008517     	auipc	a0, 0x8
8000408a: f7a50513     	addi	a0, a0, -0x86
8000408e: 9532         	add	a0, a0, a2
80004090: 00854503     	lbu	a0, 0x8(a0)
80004094: 8905         	andi	a0, a0, 0x1
80004096: e02e         	sd	a1, 0x0(sp)
80004098: f125         	bnez	a0, 0x80003ff8 <lab4_kernel_task4::acquire_frame_for_page::h5325b1eb0bff54f3+0x1a>
8000409a: a809         	j	0x800040ac <.Lpcrel_hi497+0x10>

000000008000409c <.Lpcrel_hi497>:
8000409c: 00004517     	auipc	a0, 0x4
800040a0: 2dc50513     	addi	a0, a0, 0x2dc
800040a4: 00002097     	auipc	ra, 0x2
800040a8: 6b4080e7     	jalr	0x6b4(ra) <core::panicking::panic_null_pointer_dereference::hbac6411af4f2e916>
800040ac: 6502         	ld	a0, 0x0(sp)
800040ae: f02a         	sd	a0, 0x20(sp)
800040b0: b765         	j	0x80004058 <.Lpcrel_hi493+0x10>

00000000800040b2 <lab4_kernel_task4::activate_address_space::h60a7e4a83e32db9e>:
800040b2: 1101         	addi	sp, sp, -0x20
800040b4: ec06         	sd	ra, 0x18(sp)
800040b6: fffff097     	auipc	ra, 0xfffff
800040ba: 102080e7     	jalr	0x102(ra) <lab4_kernel_task4::root_page_table_pa::h78fc40d304937858>
800040be: 8131         	srli	a0, a0, 0xc
800040c0: 55fd         	li	a1, -0x1
800040c2: 15fe         	slli	a1, a1, 0x3f
800040c4: 8d4d         	or	a0, a0, a1
800040c6: e42a         	sd	a0, 0x8(sp)
800040c8: e82a         	sd	a0, 0x10(sp)

00000000800040ca <.Lpcrel_hi498>:
800040ca: 00012517     	auipc	a0, 0x12
800040ce: f3650513     	addi	a0, a0, -0xca
800040d2: c10d         	beqz	a0, 0x800040f4 <.Lpcrel_hi500>
800040d4: a009         	j	0x800040d6 <.Lpcrel_hi498+0xc>
800040d6: 6522         	ld	a0, 0x8(sp)

00000000800040d8 <.Lpcrel_hi499>:
800040d8: 00012597     	auipc	a1, 0x12
800040dc: f2858593     	addi	a1, a1, -0xd8
800040e0: e188         	sd	a0, 0x0(a1)
800040e2: 18051073     	csrw	satp, a0
800040e6: 12000073     	sfence.vma
800040ea: 0000100f     	fence.i
800040ee: 60e2         	ld	ra, 0x18(sp)
800040f0: 6105         	addi	sp, sp, 0x20
800040f2: 8082         	ret

00000000800040f4 <.Lpcrel_hi500>:
800040f4: 00004517     	auipc	a0, 0x4
800040f8: 29c50513     	addi	a0, a0, 0x29c
800040fc: 00002097     	auipc	ra, 0x2
80004100: 65c080e7     	jalr	0x65c(ra) <core::panicking::panic_null_pointer_dereference::hbac6411af4f2e916>

0000000080004104 <lab4_kernel_task4::handle_user_page_fault::h074272871c3b5979>:
80004104: 7141         	addi	sp, sp, -0x1f0
80004106: f786         	sd	ra, 0x1e8(sp)
80004108: f82a         	sd	a0, 0x30(sp)
8000410a: fc2e         	sd	a1, 0x38(sp)
8000410c: e0b2         	sd	a2, 0x40(sp)
8000410e: e6aa         	sd	a0, 0x148(sp)
80004110: 6506         	ld	a0, 0x40(sp)
80004112: 6585         	lui	a1, 0x1
80004114: ffffc097     	auipc	ra, 0xffffc
80004118: 5f8080e7     	jalr	0x5f8(ra) <lab4_kernel_task4::align_down::h2d88151e847bb710>
8000411c: e4aa         	sd	a0, 0x48(sp)
8000411e: 6526         	ld	a0, 0x48(sp)
80004120: ffffe097     	auipc	ra, 0xffffe
80004124: e8e080e7     	jalr	-0x172(ra) <lab4_kernel_task4::is_workingset_va::h9cb4f983a79a3e92>
80004128: e935         	bnez	a0, 0x8000419c <.Lpcrel_hi501+0x24>
8000412a: a009         	j	0x8000412c <lab4_kernel_task4::handle_user_page_fault::h074272871c3b5979+0x28>
8000412c: 7542         	ld	a0, 0x30(sp)
8000412e: 0f850513     	addi	a0, a0, 0xf8
80004132: 182c         	addi	a1, sp, 0x38
80004134: e8ae         	sd	a1, 0x50(sp)
80004136: ecaa         	sd	a0, 0x58(sp)
80004138: 0088         	addi	a0, sp, 0x40
8000413a: f0aa         	sd	a0, 0x60(sp)
8000413c: 65c6         	ld	a1, 0x50(sp)
8000413e: 0928         	addi	a0, sp, 0x98
80004140: ffffc097     	auipc	ra, 0xffffc
80004144: 1ea080e7     	jalr	0x1ea(ra) <core::fmt::rt::Argument::new_lower_hex::h2c3e51038c7990f0>
80004148: 65e6         	ld	a1, 0x58(sp)
8000414a: 1128         	addi	a0, sp, 0xa8
8000414c: ffffc097     	auipc	ra, 0xffffc
80004150: 1de080e7     	jalr	0x1de(ra) <core::fmt::rt::Argument::new_lower_hex::h2c3e51038c7990f0>
80004154: 7586         	ld	a1, 0x60(sp)
80004156: 1928         	addi	a0, sp, 0xb8
80004158: ffffc097     	auipc	ra, 0xffffc
8000415c: 1d2080e7     	jalr	0x1d2(ra) <core::fmt::rt::Argument::new_lower_hex::h2c3e51038c7990f0>
80004160: 750a         	ld	a0, 0xa0(sp)
80004162: f8aa         	sd	a0, 0x70(sp)
80004164: 656a         	ld	a0, 0x98(sp)
80004166: f4aa         	sd	a0, 0x68(sp)
80004168: 754a         	ld	a0, 0xb0(sp)
8000416a: e12a         	sd	a0, 0x80(sp)
8000416c: 752a         	ld	a0, 0xa8(sp)
8000416e: fcaa         	sd	a0, 0x78(sp)
80004170: 650e         	ld	a0, 0xc0(sp)
80004172: e92a         	sd	a0, 0x90(sp)
80004174: 756a         	ld	a0, 0xb8(sp)
80004176: e52a         	sd	a0, 0x88(sp)

0000000080004178 <.Lpcrel_hi501>:
80004178: 00004517     	auipc	a0, 0x4
8000417c: 23050513     	addi	a0, a0, 0x230
80004180: 10ac         	addi	a1, sp, 0x68
80004182: ffffc097     	auipc	ra, 0xffffc
80004186: 094080e7     	jalr	0x94(ra) <core::fmt::Arguments::new::hba6c70e0ad3e5bd7>
8000418a: 00001097     	auipc	ra, 0x1
8000418e: ef0080e7     	jalr	-0x110(ra) <lab4_kernel_task4::console::print::h39762270f09f95ac>
80004192: 4505         	li	a0, 0x1
80004194: 00000097     	auipc	ra, 0x0
80004198: 3c8080e7     	jalr	0x3c8(ra) <lab4_kernel_task4::qemu_exit::he78fd981eff3bf43>
8000419c: 6526         	ld	a0, 0x48(sp)
8000419e: fffff097     	auipc	ra, 0xfffff
800041a2: 038080e7     	jalr	0x38(ra) <lab4_kernel_task4::working_page_index::h36cdcb22b307bfba>
800041a6: 85aa         	mv	a1, a0
800041a8: f42e         	sd	a1, 0x28(sp)
800041aa: eaaa         	sd	a0, 0x150(sp)
800041ac: 65a6         	ld	a1, 0x48(sp)
800041ae: 01a8         	addi	a0, sp, 0xc8
800041b0: ffffd097     	auipc	ra, 0xffffd
800041b4: 018080e7     	jalr	0x18(ra) <lab4_kernel_task4::walk_virtual::hb3c91b13438fe028>

00000000800041b8 <.Lpcrel_hi502>:
800041b8: 00006517     	auipc	a0, 0x6
800041bc: e5850513     	addi	a0, a0, -0x1a8
800041c0: cd09         	beqz	a0, 0x800041da <.Lpcrel_hi504>
800041c2: a009         	j	0x800041c4 <.Lpcrel_hi503>

00000000800041c4 <.Lpcrel_hi503>:
800041c4: 00006517     	auipc	a0, 0x6
800041c8: e4c50513     	addi	a0, a0, -0x1b4
800041cc: 610c         	ld	a1, 0x0(a0)
800041ce: 00158513     	addi	a0, a1, 0x1
800041d2: f02a         	sd	a0, 0x20(sp)
800041d4: 02b56163     	bltu	a0, a1, 0x800041f6 <.Lpcrel_hi506>
800041d8: a809         	j	0x800041ea <.Lpcrel_hi505>

00000000800041da <.Lpcrel_hi504>:
800041da: 00004517     	auipc	a0, 0x4
800041de: 22650513     	addi	a0, a0, 0x226
800041e2: 00002097     	auipc	ra, 0x2
800041e6: 576080e7     	jalr	0x576(ra) <core::panicking::panic_null_pointer_dereference::hbac6411af4f2e916>

00000000800041ea <.Lpcrel_hi505>:
800041ea: 00006517     	auipc	a0, 0x6
800041ee: e2650513     	addi	a0, a0, -0x1da
800041f2: e911         	bnez	a0, 0x80004206 <.Lpcrel_hi506+0x10>
800041f4: a025         	j	0x8000421c <.Lpcrel_hi508>

00000000800041f6 <.Lpcrel_hi506>:
800041f6: 00004517     	auipc	a0, 0x4
800041fa: 20a50513     	addi	a0, a0, 0x20a
800041fe: 00002097     	auipc	ra, 0x2
80004202: 476080e7     	jalr	0x476(ra) <core::panicking::panic_const::panic_const_add_overflow::h67cba067093910f8>
80004206: 7502         	ld	a0, 0x20(sp)

0000000080004208 <.Lpcrel_hi507>:
80004208: 00006597     	auipc	a1, 0x6
8000420c: e0858593     	addi	a1, a1, -0x1f8
80004210: e188         	sd	a0, 0x0(a1)
80004212: 7562         	ld	a0, 0x38(sp)
80004214: 45b5         	li	a1, 0xd
80004216: 02b50163     	beq	a0, a1, 0x80004238 <.Lpcrel_hi510>
8000421a: a809         	j	0x8000422c <.Lpcrel_hi509>

000000008000421c <.Lpcrel_hi508>:
8000421c: 00004517     	auipc	a0, 0x4
80004220: 1e450513     	addi	a0, a0, 0x1e4
80004224: 00002097     	auipc	ra, 0x2
80004228: 534080e7     	jalr	0x534(ra) <core::panicking::panic_null_pointer_dereference::hbac6411af4f2e916>

000000008000422c <.Lpcrel_hi509>:
8000422c: 00006517     	auipc	a0, 0x6
80004230: de450513     	addi	a0, a0, -0x21c
80004234: e901         	bnez	a0, 0x80004244 <.Lpcrel_hi511>
80004236: a015         	j	0x8000425a <.Lpcrel_hi512>

0000000080004238 <.Lpcrel_hi510>:
80004238: 00006517     	auipc	a0, 0x6
8000423c: dd850513     	addi	a0, a0, -0x228
80004240: e92d         	bnez	a0, 0x800042b2 <.Lpcrel_hi517>
80004242: a059         	j	0x800042c8 <.Lpcrel_hi518>

0000000080004244 <.Lpcrel_hi511>:
80004244: 00006517     	auipc	a0, 0x6
80004248: dcc50513     	addi	a0, a0, -0x234
8000424c: 690c         	ld	a1, 0x10(a0)
8000424e: 00158513     	addi	a0, a1, 0x1
80004252: ec2a         	sd	a0, 0x18(sp)
80004254: 02b56163     	bltu	a0, a1, 0x80004276 <.Lpcrel_hi514>
80004258: a809         	j	0x8000426a <.Lpcrel_hi513>

000000008000425a <.Lpcrel_hi512>:
8000425a: 00004517     	auipc	a0, 0x4
8000425e: 1be50513     	addi	a0, a0, 0x1be
80004262: 00002097     	auipc	ra, 0x2
80004266: 4f6080e7     	jalr	0x4f6(ra) <core::panicking::panic_null_pointer_dereference::hbac6411af4f2e916>

000000008000426a <.Lpcrel_hi513>:
8000426a: 00006517     	auipc	a0, 0x6
8000426e: da650513     	addi	a0, a0, -0x25a
80004272: e911         	bnez	a0, 0x80004286 <.Lpcrel_hi514+0x10>
80004274: a005         	j	0x80004294 <.Lpcrel_hi516>

0000000080004276 <.Lpcrel_hi514>:
80004276: 00004517     	auipc	a0, 0x4
8000427a: 1a250513     	addi	a0, a0, 0x1a2
8000427e: 00002097     	auipc	ra, 0x2
80004282: 3f6080e7     	jalr	0x3f6(ra) <core::panicking::panic_const::panic_const_add_overflow::h67cba067093910f8>
80004286: 6562         	ld	a0, 0x18(sp)

0000000080004288 <.Lpcrel_hi515>:
80004288: 00006597     	auipc	a1, 0x6
8000428c: d8858593     	addi	a1, a1, -0x278
80004290: e988         	sd	a0, 0x10(a1)
80004292: a809         	j	0x800042a4 <.Lpcrel_hi516+0x10>

0000000080004294 <.Lpcrel_hi516>:
80004294: 00004517     	auipc	a0, 0x4
80004298: 18450513     	addi	a0, a0, 0x184
8000429c: 00002097     	auipc	ra, 0x2
800042a0: 4bc080e7     	jalr	0x4bc(ra) <core::panicking::panic_null_pointer_dereference::hbac6411af4f2e916>
800042a4: 6512         	ld	a0, 0x100(sp)
800042a6: ffffd097     	auipc	ra, 0xffffd
800042aa: 1b4080e7     	jalr	0x1b4(ra) <lab4_kernel_task4::pte_is_swapped::h2f15221e95824ae5>
800042ae: e92d         	bnez	a0, 0x80004320 <.Lpcrel_hi522+0x1e>
800042b0: a08d         	j	0x80004312 <.Lpcrel_hi522+0x10>

00000000800042b2 <.Lpcrel_hi517>:
800042b2: 00006517     	auipc	a0, 0x6
800042b6: d5e50513     	addi	a0, a0, -0x2a2
800042ba: 650c         	ld	a1, 0x8(a0)
800042bc: 00158513     	addi	a0, a1, 0x1
800042c0: e82a         	sd	a0, 0x10(sp)
800042c2: 02b56163     	bltu	a0, a1, 0x800042e4 <.Lpcrel_hi520>
800042c6: a809         	j	0x800042d8 <.Lpcrel_hi519>

00000000800042c8 <.Lpcrel_hi518>:
800042c8: 00004517     	auipc	a0, 0x4
800042cc: 16850513     	addi	a0, a0, 0x168
800042d0: 00002097     	auipc	ra, 0x2
800042d4: 488080e7     	jalr	0x488(ra) <core::panicking::panic_null_pointer_dereference::hbac6411af4f2e916>

00000000800042d8 <.Lpcrel_hi519>:
800042d8: 00006517     	auipc	a0, 0x6
800042dc: d3850513     	addi	a0, a0, -0x2c8
800042e0: e911         	bnez	a0, 0x800042f4 <.Lpcrel_hi520+0x10>
800042e2: a005         	j	0x80004302 <.Lpcrel_hi522>

00000000800042e4 <.Lpcrel_hi520>:
800042e4: 00004517     	auipc	a0, 0x4
800042e8: 14c50513     	addi	a0, a0, 0x14c
800042ec: 00002097     	auipc	ra, 0x2
800042f0: 388080e7     	jalr	0x388(ra) <core::panicking::panic_const::panic_const_add_overflow::h67cba067093910f8>
800042f4: 6542         	ld	a0, 0x10(sp)

00000000800042f6 <.Lpcrel_hi521>:
800042f6: 00006597     	auipc	a1, 0x6
800042fa: d1a58593     	addi	a1, a1, -0x2e6
800042fe: e588         	sd	a0, 0x8(a1)
80004300: b755         	j	0x800042a4 <.Lpcrel_hi516+0x10>

0000000080004302 <.Lpcrel_hi522>:
80004302: 00004517     	auipc	a0, 0x4
80004306: 12e50513     	addi	a0, a0, 0x12e
8000430a: 00002097     	auipc	ra, 0x2
8000430e: 44e080e7     	jalr	0x44e(ra) <core::panicking::panic_null_pointer_dereference::hbac6411af4f2e916>
80004312: 6512         	ld	a0, 0x100(sp)
80004314: ffffd097     	auipc	ra, 0xffffd
80004318: 992080e7     	jalr	-0x66e(ra) <lab4_kernel_task4::pte_is_valid::h6bf9a14b87e3b7e3>
8000431c: e935         	bnez	a0, 0x80004390 <.Lpcrel_hi522+0x8e>
8000431e: a82d         	j	0x80004358 <.Lpcrel_hi522+0x56>
80004320: 7522         	ld	a0, 0x28(sp)
80004322: 75c2         	ld	a1, 0x30(sp)
80004324: 7df8         	ld	a4, 0xf8(a1)
80004326: 65a6         	ld	a1, 0x48(sp)
80004328: 7662         	ld	a2, 0x38(sp)
8000432a: 6692         	ld	a3, 0x100(sp)
8000432c: f3b6         	sd	a3, 0x1e0(sp)
8000432e: 76ee         	ld	a3, 0xf8(sp)
80004330: efb6         	sd	a3, 0x1d8(sp)
80004332: 76ce         	ld	a3, 0xf0(sp)
80004334: ebb6         	sd	a3, 0x1d0(sp)
80004336: 76ae         	ld	a3, 0xe8(sp)
80004338: e7b6         	sd	a3, 0x1c8(sp)
8000433a: 768e         	ld	a3, 0xe0(sp)
8000433c: e3b6         	sd	a3, 0x1c0(sp)
8000433e: 66ee         	ld	a3, 0xd8(sp)
80004340: ff36         	sd	a3, 0x1b8(sp)
80004342: 66ce         	ld	a3, 0xd0(sp)
80004344: fb36         	sd	a3, 0x1b0(sp)
80004346: 66ae         	ld	a3, 0xc8(sp)
80004348: f736         	sd	a3, 0x1a8(sp)
8000434a: 6786         	ld	a5, 0x40(sp)
8000434c: 1334         	addi	a3, sp, 0x1a8
8000434e: ffffd097     	auipc	ra, 0xffffd
80004352: 96c080e7     	jalr	-0x694(ra) <lab4_kernel_task4::swap_in_page::h1c43d66c07986c72>
80004356: a079         	j	0x800043e4 <.Lpcrel_hi523+0x24>
80004358: 7522         	ld	a0, 0x28(sp)
8000435a: 75c2         	ld	a1, 0x30(sp)
8000435c: 7df8         	ld	a4, 0xf8(a1)
8000435e: 65a6         	ld	a1, 0x48(sp)
80004360: 7662         	ld	a2, 0x38(sp)
80004362: 6692         	ld	a3, 0x100(sp)
80004364: eb36         	sd	a3, 0x190(sp)
80004366: 76ee         	ld	a3, 0xf8(sp)
80004368: e736         	sd	a3, 0x188(sp)
8000436a: 76ce         	ld	a3, 0xf0(sp)
8000436c: e336         	sd	a3, 0x180(sp)
8000436e: 76ae         	ld	a3, 0xe8(sp)
80004370: feb6         	sd	a3, 0x178(sp)
80004372: 768e         	ld	a3, 0xe0(sp)
80004374: fab6         	sd	a3, 0x170(sp)
80004376: 66ee         	ld	a3, 0xd8(sp)
80004378: f6b6         	sd	a3, 0x168(sp)
8000437a: 66ce         	ld	a3, 0xd0(sp)
8000437c: f2b6         	sd	a3, 0x160(sp)
8000437e: 66ae         	ld	a3, 0xc8(sp)
80004380: eeb6         	sd	a3, 0x158(sp)
80004382: 6786         	ld	a5, 0x40(sp)
80004384: 0ab4         	addi	a3, sp, 0x158
80004386: fffff097     	auipc	ra, 0xfffff
8000438a: a02080e7     	jalr	-0x5fe(ra) <lab4_kernel_task4::lazy_allocate_page::hde99e1e4245a9ca2>
8000438e: a899         	j	0x800043e4 <.Lpcrel_hi523+0x24>
80004390: 0208         	addi	a0, sp, 0x100
80004392: e42a         	sd	a0, 0x8(sp)
80004394: 00ac         	addi	a1, sp, 0x48
80004396: ef2e         	sd	a1, 0x198(sp)
80004398: f32a         	sd	a0, 0x1a0(sp)
8000439a: 1228         	addi	a0, sp, 0x128
8000439c: ffffc097     	auipc	ra, 0xffffc
800043a0: f8e080e7     	jalr	-0x72(ra) <core::fmt::rt::Argument::new_lower_hex::h2c3e51038c7990f0>
800043a4: 65a2         	ld	a1, 0x8(sp)
800043a6: 1a28         	addi	a0, sp, 0x138
800043a8: ffffc097     	auipc	ra, 0xffffc
800043ac: f82080e7     	jalr	-0x7e(ra) <core::fmt::rt::Argument::new_lower_hex::h2c3e51038c7990f0>
800043b0: 7552         	ld	a0, 0x130(sp)
800043b2: ea2a         	sd	a0, 0x110(sp)
800043b4: 7532         	ld	a0, 0x128(sp)
800043b6: e62a         	sd	a0, 0x108(sp)
800043b8: 6516         	ld	a0, 0x140(sp)
800043ba: f22a         	sd	a0, 0x120(sp)
800043bc: 7572         	ld	a0, 0x138(sp)
800043be: ee2a         	sd	a0, 0x118(sp)

00000000800043c0 <.Lpcrel_hi523>:
800043c0: 00004517     	auipc	a0, 0x4
800043c4: 08850513     	addi	a0, a0, 0x88
800043c8: 022c         	addi	a1, sp, 0x108
800043ca: ffffc097     	auipc	ra, 0xffffc
800043ce: d84080e7     	jalr	-0x27c(ra) <core::fmt::Arguments::new::h290a3cedc6453d04>
800043d2: 00001097     	auipc	ra, 0x1
800043d6: ca8080e7     	jalr	-0x358(ra) <lab4_kernel_task4::console::print::h39762270f09f95ac>
800043da: 4505         	li	a0, 0x1
800043dc: 00000097     	auipc	ra, 0x0
800043e0: 180080e7     	jalr	0x180(ra) <lab4_kernel_task4::qemu_exit::he78fd981eff3bf43>
800043e4: 70be         	ld	ra, 0x1e8(sp)
800043e6: 617d         	addi	sp, sp, 0x1f0
800043e8: 8082         	ret

00000000800043ea <lab4_kernel_task4::machine_trap_stack_top::h52155bbb92a57fe9>:
800043ea: 0001f517     	auipc	a0, 0x1f
800043ee: c1650513     	addi	a0, a0, -0x3ea
800043f2: 8082         	ret

00000000800043f4 <lab4_kernel_task4::resident_frame_pool_pa::h30a7e998ee2eca54>:
800043f4: 0000f517     	auipc	a0, 0xf
800043f8: c0c50513     	addi	a0, a0, -0x3f4
800043fc: 8082         	ret

00000000800043fe <lab4_kernel_task4::supervisor_trap_stack_top::h299f42e8b1040929>:
800043fe: 0001d517     	auipc	a0, 0x1d
80004402: c0250513     	addi	a0, a0, -0x3fe
80004406: 8082         	ret

0000000080004408 <lab4_kernel_task4::delegate_user_exceptions_to_supervisor::hb5f1b63fbb0381c6>:
80004408: 6529         	lui	a0, 0xa
8000440a: 10050513     	addi	a0, a0, 0x100
8000440e: 30251073     	csrw	medeleg, a0
80004412: 8082         	ret

0000000080004414 <lab4_kernel_task4::leaf_pte::hd9fa8dd091968985>:
80004414: 1141         	addi	sp, sp, -0x10
80004416: e02a         	sd	a0, 0x0(sp)
80004418: e42e         	sd	a1, 0x8(sp)
8000441a: 8131         	srli	a0, a0, 0xc
8000441c: 052a         	slli	a0, a0, 0xa
8000441e: 8d4d         	or	a0, a0, a1
80004420: 00156513     	ori	a0, a0, 0x1
80004424: 0141         	addi	sp, sp, 0x10
80004426: 8082         	ret

0000000080004428 <lab4_kernel_task4::swap_pte::h61086687a1c2f593>:
80004428: 1141         	addi	sp, sp, -0x10
8000442a: e42a         	sd	a0, 0x8(sp)
8000442c: 052a         	slli	a0, a0, 0xa
8000442e: 10050513     	addi	a0, a0, 0x100
80004432: 0141         	addi	sp, sp, 0x10
80004434: 8082         	ret

0000000080004436 <lab4_kernel_task4::SwapStats::zeroed::h00431b6dae4e4c7d>:
80004436: 85aa         	mv	a1, a0
80004438: 4501         	li	a0, 0x0
8000443a: e188         	sd	a0, 0x0(a1)
8000443c: e588         	sd	a0, 0x8(a1)
8000443e: e988         	sd	a0, 0x10(a1)
80004440: ed88         	sd	a0, 0x18(a1)
80004442: f188         	sd	a0, 0x20(a1)
80004444: f588         	sd	a0, 0x28(a1)
80004446: f988         	sd	a0, 0x30(a1)
80004448: fd88         	sd	a0, 0x38(a1)
8000444a: e1a8         	sd	a0, 0x40(a1)
8000444c: e5a8         	sd	a0, 0x48(a1)
8000444e: 8082         	ret

0000000080004450 <lab4_kernel_task4::clear_bss::heaff72085a2859d0>:
80004450: 715d         	addi	sp, sp, -0x50
80004452: e486         	sd	ra, 0x48(sp)

0000000080004454 <.Lpcrel_hi527>:
80004454: 00006517     	auipc	a0, 0x6
80004458: bac50593     	addi	a1, a0, -0x454
8000445c: ec2e         	sd	a1, 0x18(sp)

000000008000445e <.Lpcrel_hi528>:
8000445e: 00017517     	auipc	a0, 0x17
80004462: ba250513     	addi	a0, a0, -0x45e
80004466: f02a         	sd	a0, 0x20(sp)
80004468: 04b56d63     	bltu	a0, a1, 0x800044c2 <.Lpcrel_hi532>
8000446c: a009         	j	0x8000446e <.Lpcrel_hi529>

000000008000446e <.Lpcrel_hi529>:
8000446e: 00006517     	auipc	a0, 0x6
80004472: b9250513     	addi	a0, a0, -0x46e
80004476: e02a         	sd	a0, 0x0(sp)
80004478: f82a         	sd	a0, 0x30(sp)
8000447a: 4581         	li	a1, 0x0
8000447c: e42e         	sd	a1, 0x8(sp)
8000447e: 02b10fa3     	sb	a1, 0x3f(sp)

0000000080004482 <.Lpcrel_hi530>:
80004482: 00017597     	auipc	a1, 0x17
80004486: b7e58593     	addi	a1, a1, -0x482
8000448a: 8d89         	sub	a1, a1, a0
8000448c: e82e         	sd	a1, 0x10(sp)
8000448e: e0ae         	sd	a1, 0x40(sp)
80004490: 0015b593     	seqz	a1, a1
80004494: 02b107a3     	sb	a1, 0x2f(sp)
80004498: 02f14603     	lbu	a2, 0x2f(sp)

000000008000449c <.Lpcrel_hi531>:
8000449c: 00004597     	auipc	a1, 0x4
800044a0: 04458693     	addi	a3, a1, 0x44
800044a4: 4585         	li	a1, 0x1
800044a6: 00001097     	auipc	ra, 0x1
800044aa: 0e6080e7     	jalr	0xe6(ra) <core::ptr::write_bytes::precondition_check::h92dea8b33c0faf74>
800044ae: 6502         	ld	a0, 0x0(sp)
800044b0: 65a2         	ld	a1, 0x8(sp)
800044b2: 6642         	ld	a2, 0x10(sp)
800044b4: 00002097     	auipc	ra, 0x2
800044b8: 3f8080e7     	jalr	0x3f8(ra) <memset>
800044bc: 60a6         	ld	ra, 0x48(sp)
800044be: 6161         	addi	sp, sp, 0x50
800044c0: 8082         	ret

00000000800044c2 <.Lpcrel_hi532>:
800044c2: 00004517     	auipc	a0, 0x4
800044c6: fd650513     	addi	a0, a0, -0x2a
800044ca: 00002097     	auipc	ra, 0x2
800044ce: 1e6080e7     	jalr	0x1e6(ra) <core::panicking::panic_const::panic_const_sub_overflow::hccc965ba9198de7c>

00000000800044d2 <lab4_kernel_task4::clear_sum::h84cc42848eff6fe1>:
800044d2: 00040537     	lui	a0, 0x40
800044d6: 10053073     	csrc	sstatus, a0
800044da: 8082         	ret

00000000800044dc <lab4_kernel_task4::copy_page::h867d2e4e96158e1c>:
800044dc: 715d         	addi	sp, sp, -0x50
800044de: e486         	sd	ra, 0x48(sp)
800044e0: e82e         	sd	a1, 0x10(sp)
800044e2: 85aa         	mv	a1, a0
800044e4: 6542         	ld	a0, 0x10(sp)
800044e6: e42e         	sd	a1, 0x8(sp)
800044e8: f02e         	sd	a1, 0x20(sp)
800044ea: f42a         	sd	a0, 0x28(sp)
800044ec: f82a         	sd	a0, 0x30(sp)
800044ee: fc2e         	sd	a1, 0x38(sp)
800044f0: 6705         	lui	a4, 0x1
800044f2: ec3a         	sd	a4, 0x18(sp)
800044f4: e0ba         	sd	a4, 0x40(sp)

00000000800044f6 <.Lpcrel_hi533>:
800044f6: 00004617     	auipc	a2, 0x4
800044fa: 00260793     	addi	a5, a2, 0x2
800044fe: 4685         	li	a3, 0x1
80004500: 8636         	mv	a2, a3
80004502: 00001097     	auipc	ra, 0x1
80004506: 120080e7     	jalr	0x120(ra) <core::ptr::copy_nonoverlapping::precondition_check::he6f33af4add752dd>
8000450a: 6522         	ld	a0, 0x8(sp)
8000450c: 65c2         	ld	a1, 0x10(sp)
8000450e: 6662         	ld	a2, 0x18(sp)
80004510: 00002097     	auipc	ra, 0x2
80004514: 412080e7     	jalr	0x412(ra) <memcpy>
80004518: 60a6         	ld	ra, 0x48(sp)
8000451a: 6161         	addi	sp, sp, 0x50
8000451c: 8082         	ret

000000008000451e <lab4_kernel_task4::pass_fail::h0c9b80618626d2c4>:
8000451e: 1101         	addi	sp, sp, -0x20
80004520: 00a10fa3     	sb	a0, 0x1f(sp)
80004524: e911         	bnez	a0, 0x80004538 <.Lpcrel_hi535>
80004526: a009         	j	0x80004528 <.Lpcrel_hi534>

0000000080004528 <.Lpcrel_hi534>:
80004528: 00003517     	auipc	a0, 0x3
8000452c: 0dc50513     	addi	a0, a0, 0xdc
80004530: e42a         	sd	a0, 0x8(sp)
80004532: 4511         	li	a0, 0x4
80004534: e82a         	sd	a0, 0x10(sp)
80004536: a809         	j	0x80004548 <.Lpcrel_hi535+0x10>

0000000080004538 <.Lpcrel_hi535>:
80004538: 00003517     	auipc	a0, 0x3
8000453c: 0d050513     	addi	a0, a0, 0xd0
80004540: e42a         	sd	a0, 0x8(sp)
80004542: 4511         	li	a0, 0x4
80004544: e82a         	sd	a0, 0x10(sp)
80004546: a009         	j	0x80004548 <.Lpcrel_hi535+0x10>
80004548: 6522         	ld	a0, 0x8(sp)
8000454a: 65c2         	ld	a1, 0x10(sp)
8000454c: 6105         	addi	sp, sp, 0x20
8000454e: 8082         	ret

0000000080004550 <lab4_kernel_task4::pte_to_pa::h26e801c57e36545f>:
80004550: 1141         	addi	sp, sp, -0x10
80004552: e42a         	sd	a0, 0x8(sp)
80004554: 8129         	srli	a0, a0, 0xa
80004556: 0532         	slli	a0, a0, 0xc
80004558: 0141         	addi	sp, sp, 0x10
8000455a: 8082         	ret

000000008000455c <lab4_kernel_task4::qemu_exit::he78fd981eff3bf43>:
8000455c: 1101         	addi	sp, sp, -0x20
8000455e: ec06         	sd	ra, 0x18(sp)
80004560: 85aa         	mv	a1, a0
80004562: e42e         	sd	a1, 0x8(sp)
80004564: ca2a         	sw	a0, 0x14(sp)
80004566: c919         	beqz	a0, 0x8000457c <lab4_kernel_task4::qemu_exit::he78fd981eff3bf43+0x20>
80004568: a009         	j	0x8000456a <lab4_kernel_task4::qemu_exit::he78fd981eff3bf43+0xe>
8000456a: 6522         	ld	a0, 0x8(sp)
8000456c: 0105151b     	slliw	a0, a0, 0x10
80004570: 658d         	lui	a1, 0x3
80004572: 33358593     	addi	a1, a1, 0x333
80004576: 8d4d         	or	a0, a0, a1
80004578: c82a         	sw	a0, 0x10(sp)
8000457a: a031         	j	0x80004586 <lab4_kernel_task4::qemu_exit::he78fd981eff3bf43+0x2a>
8000457c: 6515         	lui	a0, 0x5
8000457e: 55550513     	addi	a0, a0, 0x555
80004582: c82a         	sw	a0, 0x10(sp)
80004584: a009         	j	0x80004586 <lab4_kernel_task4::qemu_exit::he78fd981eff3bf43+0x2a>
80004586: 45c2         	lw	a1, 0x10(sp)

0000000080004588 <.Lpcrel_hi536>:
80004588: 00004517     	auipc	a0, 0x4
8000458c: f2850613     	addi	a2, a0, -0xd8
80004590: 00100537     	lui	a0, 0x100
80004594: ffffc097     	auipc	ra, 0xffffc
80004598: cbe080e7     	jalr	-0x342(ra) <core::ptr::write_volatile::hf6ce4c3090c6473c>
8000459c: a009         	j	0x8000459e <.Lpcrel_hi536+0x16>
8000459e: 10500073     	wfi
800045a2: bff5         	j	0x8000459e <.Lpcrel_hi536+0x16>

00000000800045a4 <lab4_kernel_task4::sfence_va::h2913b9c24c7f9939>:
800045a4: 1141         	addi	sp, sp, -0x10
800045a6: e42a         	sd	a0, 0x8(sp)
800045a8: 12050073     	sfence.vma	a0
800045ac: 0141         	addi	sp, sp, 0x10
800045ae: 8082         	ret

00000000800045b0 <lab4_kernel_task4::table_pte::h41fb0db8909288ec>:
800045b0: 1141         	addi	sp, sp, -0x10
800045b2: e42a         	sd	a0, 0x8(sp)
800045b4: 8131         	srli	a0, a0, 0xc
800045b6: 052a         	slli	a0, a0, 0xa
800045b8: 0505         	addi	a0, a0, 0x1
800045ba: 0141         	addi	sp, sp, 0x10
800045bc: 8082         	ret

00000000800045be <lab4_kernel_task4::zero_page::hbcf0e42b776ee0e2>:
800045be: 711d         	addi	sp, sp, -0x60
800045c0: ec86         	sd	ra, 0x58(sp)
800045c2: ec2a         	sd	a0, 0x18(sp)
800045c4: f02a         	sd	a0, 0x20(sp)
800045c6: c521         	beqz	a0, 0x8000460e <.Lpcrel_hi538>
800045c8: a009         	j	0x800045ca <lab4_kernel_task4::zero_page::hbcf0e42b776ee0e2+0xc>
800045ca: 6562         	ld	a0, 0x18(sp)
800045cc: e4aa         	sd	a0, 0x48(sp)
800045ce: 6605         	lui	a2, 0x1
800045d0: e832         	sd	a2, 0x10(sp)
800045d2: e8b2         	sd	a2, 0x50(sp)
800045d4: f82a         	sd	a0, 0x30(sp)
800045d6: 4581         	li	a1, 0x0
800045d8: e42e         	sd	a1, 0x8(sp)
800045da: 02b10fa3     	sb	a1, 0x3f(sp)
800045de: e0b2         	sd	a2, 0x40(sp)
800045e0: 02b107a3     	sb	a1, 0x2f(sp)
800045e4: 02f14603     	lbu	a2, 0x2f(sp)

00000000800045e8 <.Lpcrel_hi537>:
800045e8: 00004597     	auipc	a1, 0x4
800045ec: ef858693     	addi	a3, a1, -0x108
800045f0: 4585         	li	a1, 0x1
800045f2: 00001097     	auipc	ra, 0x1
800045f6: f9a080e7     	jalr	-0x66(ra) <core::ptr::write_bytes::precondition_check::h92dea8b33c0faf74>
800045fa: 6562         	ld	a0, 0x18(sp)
800045fc: 65a2         	ld	a1, 0x8(sp)
800045fe: 6642         	ld	a2, 0x10(sp)
80004600: 00002097     	auipc	ra, 0x2
80004604: 2ac080e7     	jalr	0x2ac(ra) <memset>
80004608: 60e6         	ld	ra, 0x58(sp)
8000460a: 6125         	addi	sp, sp, 0x60
8000460c: 8082         	ret

000000008000460e <.Lpcrel_hi538>:
8000460e: 00004517     	auipc	a0, 0x4
80004612: eba50513     	addi	a0, a0, -0x146
80004616: 00002097     	auipc	ra, 0x2
8000461a: 142080e7     	jalr	0x142(ra) <core::panicking::panic_null_pointer_dereference::hbac6411af4f2e916>

000000008000461e <_$LT$lab4_kernel_task4..PteFlags$u20$as$u20$core..fmt..Display$GT$::fmt::hee945f08187f07af>:
8000461e: 710d         	addi	sp, sp, -0x160
80004620: ee86         	sd	ra, 0x158(sp)
80004622: e82e         	sd	a1, 0x10(sp)
80004624: e62a         	sd	a0, 0x108(sp)
80004626: ea2e         	sd	a1, 0x110(sp)
80004628: 6108         	ld	a0, 0x0(a0)
8000462a: ec2a         	sd	a0, 0x18(sp)
8000462c: f22a         	sd	a0, 0x120(sp)
8000462e: 8905         	andi	a0, a0, 0x1
80004630: e511         	bnez	a0, 0x8000463c <_$LT$lab4_kernel_task4..PteFlags$u20$as$u20$core..fmt..Display$GT$::fmt::hee945f08187f07af+0x1e>
80004632: a009         	j	0x80004634 <_$LT$lab4_kernel_task4..PteFlags$u20$as$u20$core..fmt..Display$GT$::fmt::hee945f08187f07af+0x16>
80004634: 02d00513     	li	a0, 0x2d
80004638: c6aa         	sw	a0, 0x4c(sp)
8000463a: a029         	j	0x80004644 <_$LT$lab4_kernel_task4..PteFlags$u20$as$u20$core..fmt..Display$GT$::fmt::hee945f08187f07af+0x26>
8000463c: 05600513     	li	a0, 0x56
80004640: c6aa         	sw	a0, 0x4c(sp)
80004642: a009         	j	0x80004644 <_$LT$lab4_kernel_task4..PteFlags$u20$as$u20$core..fmt..Display$GT$::fmt::hee945f08187f07af+0x26>
80004644: 6562         	ld	a0, 0x18(sp)
80004646: 8909         	andi	a0, a0, 0x2
80004648: e511         	bnez	a0, 0x80004654 <_$LT$lab4_kernel_task4..PteFlags$u20$as$u20$core..fmt..Display$GT$::fmt::hee945f08187f07af+0x36>
8000464a: a009         	j	0x8000464c <_$LT$lab4_kernel_task4..PteFlags$u20$as$u20$core..fmt..Display$GT$::fmt::hee945f08187f07af+0x2e>
8000464c: 02d00513     	li	a0, 0x2d
80004650: c8aa         	sw	a0, 0x50(sp)
80004652: a029         	j	0x8000465c <_$LT$lab4_kernel_task4..PteFlags$u20$as$u20$core..fmt..Display$GT$::fmt::hee945f08187f07af+0x3e>
80004654: 05200513     	li	a0, 0x52
80004658: c8aa         	sw	a0, 0x50(sp)
8000465a: a009         	j	0x8000465c <_$LT$lab4_kernel_task4..PteFlags$u20$as$u20$core..fmt..Display$GT$::fmt::hee945f08187f07af+0x3e>
8000465c: 6562         	ld	a0, 0x18(sp)
8000465e: 8911         	andi	a0, a0, 0x4
80004660: e511         	bnez	a0, 0x8000466c <_$LT$lab4_kernel_task4..PteFlags$u20$as$u20$core..fmt..Display$GT$::fmt::hee945f08187f07af+0x4e>
80004662: a009         	j	0x80004664 <_$LT$lab4_kernel_task4..PteFlags$u20$as$u20$core..fmt..Display$GT$::fmt::hee945f08187f07af+0x46>
80004664: 02d00513     	li	a0, 0x2d
80004668: caaa         	sw	a0, 0x54(sp)
8000466a: a029         	j	0x80004674 <_$LT$lab4_kernel_task4..PteFlags$u20$as$u20$core..fmt..Display$GT$::fmt::hee945f08187f07af+0x56>
8000466c: 05700513     	li	a0, 0x57
80004670: caaa         	sw	a0, 0x54(sp)
80004672: a009         	j	0x80004674 <_$LT$lab4_kernel_task4..PteFlags$u20$as$u20$core..fmt..Display$GT$::fmt::hee945f08187f07af+0x56>
80004674: 6562         	ld	a0, 0x18(sp)
80004676: 8921         	andi	a0, a0, 0x8
80004678: e511         	bnez	a0, 0x80004684 <_$LT$lab4_kernel_task4..PteFlags$u20$as$u20$core..fmt..Display$GT$::fmt::hee945f08187f07af+0x66>
8000467a: a009         	j	0x8000467c <_$LT$lab4_kernel_task4..PteFlags$u20$as$u20$core..fmt..Display$GT$::fmt::hee945f08187f07af+0x5e>
8000467c: 02d00513     	li	a0, 0x2d
80004680: ccaa         	sw	a0, 0x58(sp)
80004682: a029         	j	0x8000468c <_$LT$lab4_kernel_task4..PteFlags$u20$as$u20$core..fmt..Display$GT$::fmt::hee945f08187f07af+0x6e>
80004684: 05800513     	li	a0, 0x58
80004688: ccaa         	sw	a0, 0x58(sp)
8000468a: a009         	j	0x8000468c <_$LT$lab4_kernel_task4..PteFlags$u20$as$u20$core..fmt..Display$GT$::fmt::hee945f08187f07af+0x6e>
8000468c: 6562         	ld	a0, 0x18(sp)
8000468e: 8941         	andi	a0, a0, 0x10
80004690: e511         	bnez	a0, 0x8000469c <_$LT$lab4_kernel_task4..PteFlags$u20$as$u20$core..fmt..Display$GT$::fmt::hee945f08187f07af+0x7e>
80004692: a009         	j	0x80004694 <_$LT$lab4_kernel_task4..PteFlags$u20$as$u20$core..fmt..Display$GT$::fmt::hee945f08187f07af+0x76>
80004694: 02d00513     	li	a0, 0x2d
80004698: ceaa         	sw	a0, 0x5c(sp)
8000469a: a029         	j	0x800046a4 <_$LT$lab4_kernel_task4..PteFlags$u20$as$u20$core..fmt..Display$GT$::fmt::hee945f08187f07af+0x86>
8000469c: 05500513     	li	a0, 0x55
800046a0: ceaa         	sw	a0, 0x5c(sp)
800046a2: a009         	j	0x800046a4 <_$LT$lab4_kernel_task4..PteFlags$u20$as$u20$core..fmt..Display$GT$::fmt::hee945f08187f07af+0x86>
800046a4: 6562         	ld	a0, 0x18(sp)
800046a6: 02057513     	andi	a0, a0, 0x20
800046aa: e511         	bnez	a0, 0x800046b6 <_$LT$lab4_kernel_task4..PteFlags$u20$as$u20$core..fmt..Display$GT$::fmt::hee945f08187f07af+0x98>
800046ac: a009         	j	0x800046ae <_$LT$lab4_kernel_task4..PteFlags$u20$as$u20$core..fmt..Display$GT$::fmt::hee945f08187f07af+0x90>
800046ae: 02d00513     	li	a0, 0x2d
800046b2: d0aa         	sw	a0, 0x60(sp)
800046b4: a029         	j	0x800046be <_$LT$lab4_kernel_task4..PteFlags$u20$as$u20$core..fmt..Display$GT$::fmt::hee945f08187f07af+0xa0>
800046b6: 04700513     	li	a0, 0x47
800046ba: d0aa         	sw	a0, 0x60(sp)
800046bc: a009         	j	0x800046be <_$LT$lab4_kernel_task4..PteFlags$u20$as$u20$core..fmt..Display$GT$::fmt::hee945f08187f07af+0xa0>
800046be: 6562         	ld	a0, 0x18(sp)
800046c0: 04057513     	andi	a0, a0, 0x40
800046c4: e511         	bnez	a0, 0x800046d0 <_$LT$lab4_kernel_task4..PteFlags$u20$as$u20$core..fmt..Display$GT$::fmt::hee945f08187f07af+0xb2>
800046c6: a009         	j	0x800046c8 <_$LT$lab4_kernel_task4..PteFlags$u20$as$u20$core..fmt..Display$GT$::fmt::hee945f08187f07af+0xaa>
800046c8: 02d00513     	li	a0, 0x2d
800046cc: d2aa         	sw	a0, 0x64(sp)
800046ce: a029         	j	0x800046d8 <_$LT$lab4_kernel_task4..PteFlags$u20$as$u20$core..fmt..Display$GT$::fmt::hee945f08187f07af+0xba>
800046d0: 04100513     	li	a0, 0x41
800046d4: d2aa         	sw	a0, 0x64(sp)
800046d6: a009         	j	0x800046d8 <_$LT$lab4_kernel_task4..PteFlags$u20$as$u20$core..fmt..Display$GT$::fmt::hee945f08187f07af+0xba>
800046d8: 6562         	ld	a0, 0x18(sp)
800046da: 08057513     	andi	a0, a0, 0x80
800046de: e511         	bnez	a0, 0x800046ea <_$LT$lab4_kernel_task4..PteFlags$u20$as$u20$core..fmt..Display$GT$::fmt::hee945f08187f07af+0xcc>
800046e0: a009         	j	0x800046e2 <_$LT$lab4_kernel_task4..PteFlags$u20$as$u20$core..fmt..Display$GT$::fmt::hee945f08187f07af+0xc4>
800046e2: 02d00513     	li	a0, 0x2d
800046e6: d4aa         	sw	a0, 0x68(sp)
800046e8: a029         	j	0x800046f2 <_$LT$lab4_kernel_task4..PteFlags$u20$as$u20$core..fmt..Display$GT$::fmt::hee945f08187f07af+0xd4>
800046ea: 04400513     	li	a0, 0x44
800046ee: d4aa         	sw	a0, 0x68(sp)
800046f0: a009         	j	0x800046f2 <_$LT$lab4_kernel_task4..PteFlags$u20$as$u20$core..fmt..Display$GT$::fmt::hee945f08187f07af+0xd4>
800046f2: 6562         	ld	a0, 0x18(sp)
800046f4: 10057513     	andi	a0, a0, 0x100
800046f8: e511         	bnez	a0, 0x80004704 <_$LT$lab4_kernel_task4..PteFlags$u20$as$u20$core..fmt..Display$GT$::fmt::hee945f08187f07af+0xe6>
800046fa: a009         	j	0x800046fc <_$LT$lab4_kernel_task4..PteFlags$u20$as$u20$core..fmt..Display$GT$::fmt::hee945f08187f07af+0xde>
800046fc: 02d00513     	li	a0, 0x2d
80004700: d6aa         	sw	a0, 0x6c(sp)
80004702: a029         	j	0x8000470c <_$LT$lab4_kernel_task4..PteFlags$u20$as$u20$core..fmt..Display$GT$::fmt::hee945f08187f07af+0xee>
80004704: 05300513     	li	a0, 0x53
80004708: d6aa         	sw	a0, 0x6c(sp)
8000470a: a009         	j	0x8000470c <_$LT$lab4_kernel_task4..PteFlags$u20$as$u20$core..fmt..Display$GT$::fmt::hee945f08187f07af+0xee>
8000470c: 4536         	lw	a0, 0x4c(sp)
8000470e: d42a         	sw	a0, 0x28(sp)
80004710: 4546         	lw	a0, 0x50(sp)
80004712: d62a         	sw	a0, 0x2c(sp)
80004714: 4556         	lw	a0, 0x54(sp)
80004716: d82a         	sw	a0, 0x30(sp)
80004718: 4566         	lw	a0, 0x58(sp)
8000471a: da2a         	sw	a0, 0x34(sp)
8000471c: 4576         	lw	a0, 0x5c(sp)
8000471e: dc2a         	sw	a0, 0x38(sp)
80004720: 5506         	lw	a0, 0x60(sp)
80004722: de2a         	sw	a0, 0x3c(sp)
80004724: 5516         	lw	a0, 0x64(sp)
80004726: c0aa         	sw	a0, 0x40(sp)
80004728: 5526         	lw	a0, 0x68(sp)
8000472a: c2aa         	sw	a0, 0x44(sp)
8000472c: 5536         	lw	a0, 0x6c(sp)
8000472e: c4aa         	sw	a0, 0x48(sp)
80004730: 4526         	lw	a0, 0x48(sp)
80004732: 14a12423     	sw	a0, 0x148(sp)
80004736: 04416503     	lwu	a0, 0x44(sp)
8000473a: 1502         	slli	a0, a0, 0x20
8000473c: 04016583     	lwu	a1, 0x40(sp)
80004740: 8d4d         	or	a0, a0, a1
80004742: e2aa         	sd	a0, 0x140(sp)
80004744: 03c16503     	lwu	a0, 0x3c(sp)
80004748: 1502         	slli	a0, a0, 0x20
8000474a: 03816583     	lwu	a1, 0x38(sp)
8000474e: 8d4d         	or	a0, a0, a1
80004750: fe2a         	sd	a0, 0x138(sp)
80004752: 03416503     	lwu	a0, 0x34(sp)
80004756: 1502         	slli	a0, a0, 0x20
80004758: 03016583     	lwu	a1, 0x30(sp)
8000475c: 8d4d         	or	a0, a0, a1
8000475e: fa2a         	sd	a0, 0x130(sp)
80004760: 02c16503     	lwu	a0, 0x2c(sp)
80004764: 1502         	slli	a0, a0, 0x20
80004766: 02816583     	lwu	a1, 0x28(sp)
8000476a: 8d4d         	or	a0, a0, a1
8000476c: f62a         	sd	a0, 0x128(sp)
8000476e: 1888         	addi	a0, sp, 0x70
80004770: 122c         	addi	a1, sp, 0x128
80004772: 00001097     	auipc	ra, 0x1
80004776: d3e080e7     	jalr	-0x2c2(ra) <core::array::iter::_$LT$impl$u20$core..iter..traits..collect..IntoIterator$u20$for$u20$$u5b$T$u3b$$u20$N$u5d$$GT$::into_iter::h3288de4d24124d53>
8000477a: 750a         	ld	a0, 0xa0(sp)
8000477c: edaa         	sd	a0, 0xd8(sp)
8000477e: 656a         	ld	a0, 0x98(sp)
80004780: e9aa         	sd	a0, 0xd0(sp)
80004782: 654a         	ld	a0, 0x90(sp)
80004784: e5aa         	sd	a0, 0xc8(sp)
80004786: 652a         	ld	a0, 0x88(sp)
80004788: e1aa         	sd	a0, 0xc0(sp)
8000478a: 650a         	ld	a0, 0x80(sp)
8000478c: fd2a         	sd	a0, 0xb8(sp)
8000478e: 7566         	ld	a0, 0x78(sp)
80004790: f92a         	sd	a0, 0xb0(sp)
80004792: 7546         	ld	a0, 0x70(sp)
80004794: f52a         	sd	a0, 0xa8(sp)
80004796: a009         	j	0x80004798 <_$LT$lab4_kernel_task4..PteFlags$u20$as$u20$core..fmt..Display$GT$::fmt::hee945f08187f07af+0x17a>
80004798: 1128         	addi	a0, sp, 0xa8
8000479a: 00001097     	auipc	ra, 0x1
8000479e: dd2080e7     	jalr	-0x22e(ra) <_$LT$core..array..iter..IntoIter$LT$T$C$_$GT$$u20$as$u20$core..iter..traits..iterator..Iterator$GT$::next::h019a5524c96af906>
800047a2: d1aa         	sw	a0, 0xe0(sp)
800047a4: 550e         	lw	a0, 0xe0(sp)
800047a6: 001105b7     	lui	a1, 0x110
800047aa: 04b50863     	beq	a0, a1, 0x800047fa <.Lpcrel_hi539+0x30>
800047ae: a009         	j	0x800047b0 <_$LT$lab4_kernel_task4..PteFlags$u20$as$u20$core..fmt..Display$GT$::fmt::hee945f08187f07af+0x192>
800047b0: 550e         	lw	a0, 0xe0(sp)
800047b2: d3aa         	sw	a0, 0xe4(sp)
800047b4: 11cc         	addi	a1, sp, 0xe4
800047b6: eaae         	sd	a1, 0x150(sp)
800047b8: 19a8         	addi	a0, sp, 0xf8
800047ba: ffffc097     	auipc	ra, 0xffffc
800047be: ac6080e7     	jalr	-0x53a(ra) <core::fmt::rt::Argument::new_display::h588ca848ad251281>
800047c2: 6512         	ld	a0, 0x100(sp)
800047c4: f9aa         	sd	a0, 0xf0(sp)
800047c6: 756e         	ld	a0, 0xf8(sp)
800047c8: f5aa         	sd	a0, 0xe8(sp)

00000000800047ca <.Lpcrel_hi539>:
800047ca: 00002517     	auipc	a0, 0x2
800047ce: 58650513     	addi	a0, a0, 0x586
800047d2: 11ac         	addi	a1, sp, 0xe8
800047d4: ffffc097     	auipc	ra, 0xffffc
800047d8: 9ca080e7     	jalr	-0x636(ra) <core::fmt::Arguments::new::h3d7ba7dea5e9f0b6>
800047dc: 862a         	mv	a2, a0
800047de: 6542         	ld	a0, 0x10(sp)
800047e0: e432         	sd	a2, 0x8(sp)
800047e2: 862e         	mv	a2, a1
800047e4: 65a2         	ld	a1, 0x8(sp)
800047e6: 00001097     	auipc	ra, 0x1
800047ea: 012080e7     	jalr	0x12(ra) <core::fmt::Formatter::write_fmt::hbceb4f648e75a549>
800047ee: 00001097     	auipc	ra, 0x1
800047f2: 916080e7     	jalr	-0x6ea(ra) <_$LT$core..result..Result$LT$T$C$E$GT$$u20$as$u20$core..ops..try_trait..Try$GT$::branch::hd54a78882c11ba19>
800047f6: e105         	bnez	a0, 0x80004816 <.Lpcrel_hi540>
800047f8: b745         	j	0x80004798 <_$LT$lab4_kernel_task4..PteFlags$u20$as$u20$core..fmt..Display$GT$::fmt::hee945f08187f07af+0x17a>
800047fa: 1128         	addi	a0, sp, 0xa8
800047fc: 00000097     	auipc	ra, 0x0
80004800: 586080e7     	jalr	0x586(ra) <core::ptr::drop_in_place$LT$core..array..iter..IntoIter$LT$char$C$9_usize$GT$$GT$::h17201d34caa71272>
80004804: 4501         	li	a0, 0x0
80004806: 02a103a3     	sb	a0, 0x27(sp)
8000480a: a009         	j	0x8000480c <.Lpcrel_hi539+0x42>
8000480c: 02714503     	lbu	a0, 0x27(sp)
80004810: 60f6         	ld	ra, 0x158(sp)
80004812: 6135         	addi	sp, sp, 0x160
80004814: 8082         	ret

0000000080004816 <.Lpcrel_hi540>:
80004816: 00004517     	auipc	a0, 0x4
8000481a: cfa50513     	addi	a0, a0, -0x306
8000481e: 00001097     	auipc	ra, 0x1
80004822: 8de080e7     	jalr	-0x722(ra) <_$LT$core..result..Result$LT$T$C$F$GT$$u20$as$u20$core..ops..try_trait..FromResidual$LT$core..result..Result$LT$core..convert..Infallible$C$E$GT$$GT$$GT$::from_residual::h30d04fea5c5887b6>
80004826: 02a103a3     	sb	a0, 0x27(sp)
8000482a: 1128         	addi	a0, sp, 0xa8
8000482c: 00000097     	auipc	ra, 0x0
80004830: 556080e7     	jalr	0x556(ra) <core::ptr::drop_in_place$LT$core..array..iter..IntoIter$LT$char$C$9_usize$GT$$GT$::h17201d34caa71272>
80004834: bfe1         	j	0x8000480c <.Lpcrel_hi539+0x42>

0000000080004836 <handle_machine_trap>:
80004836: 7171         	addi	sp, sp, -0xb0
80004838: f506         	sd	ra, 0xa8(sp)
8000483a: e42a         	sd	a0, 0x8(sp)
8000483c: f12a         	sd	a0, 0xa0(sp)
8000483e: ffffc097     	auipc	ra, 0xffffc
80004842: 3e6080e7     	jalr	0x3e6(ra) <lab4_kernel_task4::read_mcause::hab50a2cf5701775b>
80004846: 85aa         	mv	a1, a0
80004848: 6522         	ld	a0, 0x8(sp)
8000484a: f82e         	sd	a1, 0x30(sp)
8000484c: 0f850513     	addi	a0, a0, 0xf8
80004850: e82a         	sd	a0, 0x10(sp)
80004852: ffffc097     	auipc	ra, 0xffffc
80004856: 330080e7     	jalr	0x330(ra) <lab4_kernel_task4::read_mtval::h10ac0aeef3fa5373>
8000485a: 85aa         	mv	a1, a0
8000485c: 6542         	ld	a0, 0x10(sp)
8000485e: fc2e         	sd	a1, 0x38(sp)
80004860: 180c         	addi	a1, sp, 0x30
80004862: ec2e         	sd	a1, 0x18(sp)
80004864: f02a         	sd	a0, 0x20(sp)
80004866: 1828         	addi	a0, sp, 0x38
80004868: f42a         	sd	a0, 0x28(sp)
8000486a: 65e2         	ld	a1, 0x18(sp)
8000486c: 1888         	addi	a0, sp, 0x70
8000486e: ffffc097     	auipc	ra, 0xffffc
80004872: abc080e7     	jalr	-0x544(ra) <core::fmt::rt::Argument::new_lower_hex::h2c3e51038c7990f0>
80004876: 7582         	ld	a1, 0x20(sp)
80004878: 0108         	addi	a0, sp, 0x80
8000487a: ffffc097     	auipc	ra, 0xffffc
8000487e: ab0080e7     	jalr	-0x550(ra) <core::fmt::rt::Argument::new_lower_hex::h2c3e51038c7990f0>
80004882: 75a2         	ld	a1, 0x28(sp)
80004884: 0908         	addi	a0, sp, 0x90
80004886: ffffc097     	auipc	ra, 0xffffc
8000488a: aa4080e7     	jalr	-0x55c(ra) <core::fmt::rt::Argument::new_lower_hex::h2c3e51038c7990f0>
8000488e: 7566         	ld	a0, 0x78(sp)
80004890: e4aa         	sd	a0, 0x48(sp)
80004892: 7546         	ld	a0, 0x70(sp)
80004894: e0aa         	sd	a0, 0x40(sp)
80004896: 652a         	ld	a0, 0x88(sp)
80004898: ecaa         	sd	a0, 0x58(sp)
8000489a: 650a         	ld	a0, 0x80(sp)
8000489c: e8aa         	sd	a0, 0x50(sp)
8000489e: 656a         	ld	a0, 0x98(sp)
800048a0: f4aa         	sd	a0, 0x68(sp)
800048a2: 654a         	ld	a0, 0x90(sp)
800048a4: f0aa         	sd	a0, 0x60(sp)

00000000800048a6 <.Lpcrel_hi541>:
800048a6: 00004517     	auipc	a0, 0x4
800048aa: c8250513     	addi	a0, a0, -0x37e
800048ae: 008c         	addi	a1, sp, 0x40
800048b0: ffffc097     	auipc	ra, 0xffffc
800048b4: 8da080e7     	jalr	-0x726(ra) <core::fmt::Arguments::new::h38634f5515823904>
800048b8: 00000097     	auipc	ra, 0x0
800048bc: 7c2080e7     	jalr	0x7c2(ra) <lab4_kernel_task4::console::print::h39762270f09f95ac>
800048c0: 4505         	li	a0, 0x1
800048c2: 00000097     	auipc	ra, 0x0
800048c6: c9a080e7     	jalr	-0x366(ra) <lab4_kernel_task4::qemu_exit::he78fd981eff3bf43>

00000000800048ca <handle_supervisor_trap>:
800048ca: 7171         	addi	sp, sp, -0xb0
800048cc: f506         	sd	ra, 0xa8(sp)
800048ce: e42a         	sd	a0, 0x8(sp)
800048d0: f12a         	sd	a0, 0xa0(sp)
800048d2: ffffc097     	auipc	ra, 0xffffc
800048d6: 360080e7     	jalr	0x360(ra) <lab4_kernel_task4::read_scause::h4cab8b8461bed96d>
800048da: ec2a         	sd	a0, 0x18(sp)
800048dc: ffffc097     	auipc	ra, 0xffffc
800048e0: 2b4080e7     	jalr	0x2b4(ra) <lab4_kernel_task4::read_stval::hd01b9c3c195ba5a3>
800048e4: f02a         	sd	a0, 0x20(sp)
800048e6: 6562         	ld	a0, 0x18(sp)
800048e8: e82a         	sd	a0, 0x10(sp)
800048ea: 45a1         	li	a1, 0x8
800048ec: 08b50563     	beq	a0, a1, 0x80004976 <.Lpcrel_hi542+0x24>
800048f0: a009         	j	0x800048f2 <handle_supervisor_trap+0x28>
800048f2: 6542         	ld	a0, 0x10(sp)
800048f4: 45b5         	li	a1, 0xd
800048f6: 08b50663     	beq	a0, a1, 0x80004982 <.Lpcrel_hi542+0x30>
800048fa: a009         	j	0x800048fc <handle_supervisor_trap+0x32>
800048fc: 6542         	ld	a0, 0x10(sp)
800048fe: 45bd         	li	a1, 0xf
80004900: 08b50163     	beq	a0, a1, 0x80004982 <.Lpcrel_hi542+0x30>
80004904: a009         	j	0x80004906 <handle_supervisor_trap+0x3c>
80004906: 6522         	ld	a0, 0x8(sp)
80004908: 0f850513     	addi	a0, a0, 0xf8
8000490c: 082c         	addi	a1, sp, 0x18
8000490e: f42e         	sd	a1, 0x28(sp)
80004910: f82a         	sd	a0, 0x30(sp)
80004912: 1008         	addi	a0, sp, 0x20
80004914: fc2a         	sd	a0, 0x38(sp)
80004916: 75a2         	ld	a1, 0x28(sp)
80004918: 1888         	addi	a0, sp, 0x70
8000491a: ffffc097     	auipc	ra, 0xffffc
8000491e: a10080e7     	jalr	-0x5f0(ra) <core::fmt::rt::Argument::new_lower_hex::h2c3e51038c7990f0>
80004922: 75c2         	ld	a1, 0x30(sp)
80004924: 0108         	addi	a0, sp, 0x80
80004926: ffffc097     	auipc	ra, 0xffffc
8000492a: a04080e7     	jalr	-0x5fc(ra) <core::fmt::rt::Argument::new_lower_hex::h2c3e51038c7990f0>
8000492e: 75e2         	ld	a1, 0x38(sp)
80004930: 0908         	addi	a0, sp, 0x90
80004932: ffffc097     	auipc	ra, 0xffffc
80004936: 9f8080e7     	jalr	-0x608(ra) <core::fmt::rt::Argument::new_lower_hex::h2c3e51038c7990f0>
8000493a: 7566         	ld	a0, 0x78(sp)
8000493c: e4aa         	sd	a0, 0x48(sp)
8000493e: 7546         	ld	a0, 0x70(sp)
80004940: e0aa         	sd	a0, 0x40(sp)
80004942: 652a         	ld	a0, 0x88(sp)
80004944: ecaa         	sd	a0, 0x58(sp)
80004946: 650a         	ld	a0, 0x80(sp)
80004948: e8aa         	sd	a0, 0x50(sp)
8000494a: 656a         	ld	a0, 0x98(sp)
8000494c: f4aa         	sd	a0, 0x68(sp)
8000494e: 654a         	ld	a0, 0x90(sp)
80004950: f0aa         	sd	a0, 0x60(sp)

0000000080004952 <.Lpcrel_hi542>:
80004952: 00004517     	auipc	a0, 0x4
80004956: c2150513     	addi	a0, a0, -0x3df
8000495a: 008c         	addi	a1, sp, 0x40
8000495c: ffffc097     	auipc	ra, 0xffffc
80004960: 89c080e7     	jalr	-0x764(ra) <core::fmt::Arguments::new::ha0c1096371de58a1>
80004964: 00000097     	auipc	ra, 0x0
80004968: 716080e7     	jalr	0x716(ra) <lab4_kernel_task4::console::print::h39762270f09f95ac>
8000496c: 4505         	li	a0, 0x1
8000496e: 00000097     	auipc	ra, 0x0
80004972: bee080e7     	jalr	-0x412(ra) <lab4_kernel_task4::qemu_exit::he78fd981eff3bf43>
80004976: 6522         	ld	a0, 0x8(sp)
80004978: ffffe097     	auipc	ra, 0xffffe
8000497c: d98080e7     	jalr	-0x268(ra) <lab4_kernel_task4::handle_user_ecall::h5327b38727ff6d69>
80004980: a809         	j	0x80004992 <.Lpcrel_hi542+0x40>
80004982: 6522         	ld	a0, 0x8(sp)
80004984: 65e2         	ld	a1, 0x18(sp)
80004986: 7602         	ld	a2, 0x20(sp)
80004988: fffff097     	auipc	ra, 0xfffff
8000498c: 77c080e7     	jalr	0x77c(ra) <lab4_kernel_task4::handle_user_page_fault::h074272871c3b5979>
80004990: a009         	j	0x80004992 <.Lpcrel_hi542+0x40>
80004992: 70aa         	ld	ra, 0xa8(sp)
80004994: 614d         	addi	sp, sp, 0xb0
80004996: 8082         	ret

0000000080004998 <start_machine>:
80004998: 1141         	addi	sp, sp, -0x10
8000499a: e406         	sd	ra, 0x8(sp)
8000499c: 00000097     	auipc	ra, 0x0
800049a0: ab4080e7     	jalr	-0x54c(ra) <lab4_kernel_task4::clear_bss::heaff72085a2859d0>
800049a4: ffffd097     	auipc	ra, 0xffffd
800049a8: a9a080e7     	jalr	-0x566(ra) <lab4_kernel_task4::configure_pmp::h20fbf768d46432c7>
800049ac: 00000097     	auipc	ra, 0x0
800049b0: 374080e7     	jalr	0x374(ra) <lab4_kernel_task4::trap::init_machine_trap_vector::h362f1b1271f2e7af>
800049b4: 00000097     	auipc	ra, 0x0
800049b8: a54080e7     	jalr	-0x5ac(ra) <lab4_kernel_task4::delegate_user_exceptions_to_supervisor::hb5f1b63fbb0381c6>
800049bc: 00000097     	auipc	ra, 0x0
800049c0: a2e080e7     	jalr	-0x5d2(ra) <lab4_kernel_task4::machine_trap_stack_top::h52155bbb92a57fe9>
800049c4: 34051073     	csrw	mscratch, a0
800049c8: ffffd097     	auipc	ra, 0xffffd
800049cc: 618080e7     	jalr	0x618(ra) <lab4_kernel_task4::kernel_stack_top::h9529a4b53c5f3e56>
800049d0: 85aa         	mv	a1, a0

00000000800049d2 <.Lpcrel_hi543>:
800049d2: 00000517     	auipc	a0, 0x0
800049d6: 01050513     	addi	a0, a0, 0x10
800049da: ffffc097     	auipc	ra, 0xffffc
800049de: a06080e7     	jalr	-0x5fa(ra) <enter_supervisor>

00000000800049e2 <start_supervisor>:
800049e2: cd010113     	addi	sp, sp, -0x330
800049e6: 32113423     	sd	ra, 0x328(sp)
800049ea: 00000097     	auipc	ra, 0x0
800049ee: 344080e7     	jalr	0x344(ra) <lab4_kernel_task4::trap::init_supervisor_trap_vector::hc387cd61a499e61f>
800049f2: 00000097     	auipc	ra, 0x0
800049f6: ae0080e7     	jalr	-0x520(ra) <lab4_kernel_task4::clear_sum::h84cc42848eff6fe1>
800049fa: ffffe097     	auipc	ra, 0xffffe
800049fe: f86080e7     	jalr	-0x7a(ra) <lab4_kernel_task4::initialize_runtime::h7410d30ae4d051ed>
80004a02: ffffd097     	auipc	ra, 0xffffd
80004a06: 638080e7     	jalr	0x638(ra) <lab4_kernel_task4::build_page_tables::h384b8099c6863126>
80004a0a: fffff097     	auipc	ra, 0xfffff
80004a0e: 6a8080e7     	jalr	0x6a8(ra) <lab4_kernel_task4::activate_address_space::h60a7e4a83e32db9e>
80004a12: ffffe097     	auipc	ra, 0xffffe
80004a16: 718080e7     	jalr	0x718(ra) <lab4_kernel_task4::prepare_user_frame::h9fe08a686cf7ff96>

0000000080004a1a <.Lpcrel_hi544>:
80004a1a: 00004517     	auipc	a0, 0x4
80004a1e: ba750513     	addi	a0, a0, -0x459
80004a22: 02c00593     	li	a1, 0x2c
80004a26: 00001097     	auipc	ra, 0x1
80004a2a: dc4080e7     	jalr	-0x23c(ra) <core::fmt::Arguments::from_str::h5beb900724d673c6>
80004a2e: 00000097     	auipc	ra, 0x0
80004a32: 64c080e7     	jalr	0x64c(ra) <lab4_kernel_task4::console::print::h39762270f09f95ac>

0000000080004a36 <.Lpcrel_hi545>:
80004a36: 00004517     	auipc	a0, 0x4
80004a3a: bb750513     	addi	a0, a0, -0x449
80004a3e: 03e00593     	li	a1, 0x3e
80004a42: 00001097     	auipc	ra, 0x1
80004a46: da8080e7     	jalr	-0x258(ra) <core::fmt::Arguments::from_str::h5beb900724d673c6>
80004a4a: 00000097     	auipc	ra, 0x0
80004a4e: 630080e7     	jalr	0x630(ra) <lab4_kernel_task4::console::print::h39762270f09f95ac>

0000000080004a52 <.Lpcrel_hi546>:
80004a52: 00002517     	auipc	a0, 0x2
80004a56: 7e650593     	addi	a1, a0, 0x7e6
80004a5a: 2eb13c23     	sd	a1, 0x2f8(sp)

0000000080004a5e <.Lpcrel_hi547>:
80004a5e: 00002517     	auipc	a0, 0x2
80004a62: 7d250513     	addi	a0, a0, 0x7d2
80004a66: ed2a         	sd	a0, 0x98(sp)
80004a68: 30a13023     	sd	a0, 0x300(sp)
80004a6c: 0188         	addi	a0, sp, 0xc0
80004a6e: ffffc097     	auipc	ra, 0xffffc
80004a72: 834080e7     	jalr	-0x7cc(ra) <core::fmt::rt::Argument::new_display::h72b9aae62486e176>
80004a76: 65ea         	ld	a1, 0x98(sp)
80004a78: 0988         	addi	a0, sp, 0xd0
80004a7a: ffffc097     	auipc	ra, 0xffffc
80004a7e: 828080e7     	jalr	-0x7d8(ra) <core::fmt::rt::Argument::new_display::h72b9aae62486e176>
80004a82: 652e         	ld	a0, 0xc8(sp)
80004a84: f52a         	sd	a0, 0xa8(sp)
80004a86: 650e         	ld	a0, 0xc0(sp)
80004a88: f12a         	sd	a0, 0xa0(sp)
80004a8a: 656e         	ld	a0, 0xd8(sp)
80004a8c: fd2a         	sd	a0, 0xb8(sp)
80004a8e: 654e         	ld	a0, 0xd0(sp)
80004a90: f92a         	sd	a0, 0xb0(sp)

0000000080004a92 <.Lpcrel_hi548>:
80004a92: 00002517     	auipc	a0, 0x2
80004a96: 43050513     	addi	a0, a0, 0x430
80004a9a: 110c         	addi	a1, sp, 0xa0
80004a9c: ffffb097     	auipc	ra, 0xffffb
80004aa0: 770080e7     	jalr	0x770(ra) <core::fmt::Arguments::new::hba14bc726740bc8f>
80004aa4: 00000097     	auipc	ra, 0x0
80004aa8: 5d6080e7     	jalr	0x5d6(ra) <lab4_kernel_task4::console::print::h39762270f09f95ac>

0000000080004aac <.Lpcrel_hi549>:
80004aac: 00011517     	auipc	a0, 0x11
80004ab0: 55450513     	addi	a0, a0, 0x554
80004ab4: 18050e63     	beqz	a0, 0x80004c50 <.Lpcrel_hi559>
80004ab8: a009         	j	0x80004aba <.Lpcrel_hi550>

0000000080004aba <.Lpcrel_hi550>:
80004aba: 00011517     	auipc	a0, 0x11
80004abe: 54650513     	addi	a0, a0, 0x546
80004ac2: 6108         	ld	a0, 0x0(a0)
80004ac4: f1aa         	sd	a0, 0xe0(sp)
80004ac6: ffffe097     	auipc	ra, 0xffffe
80004aca: 6f2080e7     	jalr	0x6f2(ra) <lab4_kernel_task4::root_page_table_pa::h78fc40d304937858>
80004ace: f5aa         	sd	a0, 0xe8(sp)
80004ad0: 118c         	addi	a1, sp, 0xe0
80004ad2: 30b13423     	sd	a1, 0x308(sp)
80004ad6: 11a8         	addi	a0, sp, 0xe8
80004ad8: f42a         	sd	a0, 0x28(sp)
80004ada: 30a13823     	sd	a0, 0x310(sp)
80004ade: 0a08         	addi	a0, sp, 0x110
80004ae0: ffffc097     	auipc	ra, 0xffffc
80004ae4: 84a080e7     	jalr	-0x7b6(ra) <core::fmt::rt::Argument::new_lower_hex::h2c3e51038c7990f0>
80004ae8: 75a2         	ld	a1, 0x28(sp)
80004aea: 1208         	addi	a0, sp, 0x120
80004aec: ffffc097     	auipc	ra, 0xffffc
80004af0: 83e080e7     	jalr	-0x7c2(ra) <core::fmt::rt::Argument::new_lower_hex::h2c3e51038c7990f0>
80004af4: 6572         	ld	a0, 0x118(sp)
80004af6: fdaa         	sd	a0, 0xf8(sp)
80004af8: 6552         	ld	a0, 0x110(sp)
80004afa: f9aa         	sd	a0, 0xf0(sp)
80004afc: 7532         	ld	a0, 0x128(sp)
80004afe: e62a         	sd	a0, 0x108(sp)
80004b00: 7512         	ld	a0, 0x120(sp)
80004b02: e22a         	sd	a0, 0x100(sp)

0000000080004b04 <.Lpcrel_hi551>:
80004b04: 00004517     	auipc	a0, 0x4
80004b08: b4450513     	addi	a0, a0, -0x4bc
80004b0c: 198c         	addi	a1, sp, 0xf0
80004b0e: ffffb097     	auipc	ra, 0xffffb
80004b12: 686080e7     	jalr	0x686(ra) <core::fmt::Arguments::new::h3999090e69591b72>
80004b16: 00000097     	auipc	ra, 0x0
80004b1a: 564080e7     	jalr	0x564(ra) <lab4_kernel_task4::console::print::h39762270f09f95ac>
80004b1e: ffffc097     	auipc	ra, 0xffffc
80004b22: 192080e7     	jalr	0x192(ra) <lab4_kernel_task4::swap_area_pa::hf10dd411c1a3b358>
80004b26: fa2a         	sd	a0, 0x130(sp)

0000000080004b28 <.Lpcrel_hi552>:
80004b28: 00002517     	auipc	a0, 0x2
80004b2c: 71850593     	addi	a1, a0, 0x718
80004b30: 30b13c23     	sd	a1, 0x318(sp)
80004b34: 1a08         	addi	a0, sp, 0x130
80004b36: f82a         	sd	a0, 0x30(sp)
80004b38: 32a13023     	sd	a0, 0x320(sp)
80004b3c: 0aa8         	addi	a0, sp, 0x158
80004b3e: ffffb097     	auipc	ra, 0xffffb
80004b42: 764080e7     	jalr	0x764(ra) <core::fmt::rt::Argument::new_display::h72b9aae62486e176>
80004b46: 75c2         	ld	a1, 0x30(sp)
80004b48: 12a8         	addi	a0, sp, 0x168
80004b4a: ffffb097     	auipc	ra, 0xffffb
80004b4e: 7e0080e7     	jalr	0x7e0(ra) <core::fmt::rt::Argument::new_lower_hex::h2c3e51038c7990f0>
80004b52: 7516         	ld	a0, 0x160(sp)
80004b54: e2aa         	sd	a0, 0x140(sp)
80004b56: 6576         	ld	a0, 0x158(sp)
80004b58: fe2a         	sd	a0, 0x138(sp)
80004b5a: 7556         	ld	a0, 0x170(sp)
80004b5c: eaaa         	sd	a0, 0x150(sp)
80004b5e: 7536         	ld	a0, 0x168(sp)
80004b60: e6aa         	sd	a0, 0x148(sp)

0000000080004b62 <.Lpcrel_hi553>:
80004b62: 00004517     	auipc	a0, 0x4
80004b66: b1250513     	addi	a0, a0, -0x4ee
80004b6a: 1a2c         	addi	a1, sp, 0x138
80004b6c: ffffb097     	auipc	ra, 0xffffb
80004b70: 5e2080e7     	jalr	0x5e2(ra) <core::fmt::Arguments::new::h290a3cedc6453d04>
80004b74: 00000097     	auipc	ra, 0x0
80004b78: 506080e7     	jalr	0x506(ra) <lab4_kernel_task4::console::print::h39762270f09f95ac>
80004b7c: 1aa8         	addi	a0, sp, 0x178
80004b7e: e0aa         	sd	a0, 0x40(sp)
80004b80: 004005b7     	lui	a1, 0x400
80004b84: fc2e         	sd	a1, 0x38(sp)
80004b86: ffffc097     	auipc	ra, 0xffffc
80004b8a: 642080e7     	jalr	0x642(ra) <lab4_kernel_task4::walk_virtual::hb3c91b13438fe028>
80004b8e: 7662         	ld	a2, 0x38(sp)
80004b90: 6686         	ld	a3, 0x40(sp)

0000000080004b92 <.Lpcrel_hi554>:
80004b92: 00004517     	auipc	a0, 0x4
80004b96: b2d50513     	addi	a0, a0, -0x4d3
80004b9a: 45a5         	li	a1, 0x9
80004b9c: ffffc097     	auipc	ra, 0xffffc
80004ba0: ba0080e7     	jalr	-0x460(ra) <lab4_kernel_task4::print_walk::h17f3ac5b095b2942>
80004ba4: 1b28         	addi	a0, sp, 0x1b8
80004ba6: e8aa         	sd	a0, 0x50(sp)
80004ba8: 004015b7     	lui	a1, 0x401
80004bac: e4ae         	sd	a1, 0x48(sp)
80004bae: ffffc097     	auipc	ra, 0xffffc
80004bb2: 61a080e7     	jalr	0x61a(ra) <lab4_kernel_task4::walk_virtual::hb3c91b13438fe028>
80004bb6: 6626         	ld	a2, 0x48(sp)
80004bb8: 66c6         	ld	a3, 0x50(sp)

0000000080004bba <.Lpcrel_hi555>:
80004bba: 00004517     	auipc	a0, 0x4
80004bbe: b0e50513     	addi	a0, a0, -0x4f2
80004bc2: 45ad         	li	a1, 0xb
80004bc4: ffffc097     	auipc	ra, 0xffffc
80004bc8: b78080e7     	jalr	-0x488(ra) <lab4_kernel_task4::print_walk::h17f3ac5b095b2942>
80004bcc: 1ba8         	addi	a0, sp, 0x1f8
80004bce: f0aa         	sd	a0, 0x60(sp)
80004bd0: 004025b7     	lui	a1, 0x402
80004bd4: ecae         	sd	a1, 0x58(sp)
80004bd6: ffffc097     	auipc	ra, 0xffffc
80004bda: 5f2080e7     	jalr	0x5f2(ra) <lab4_kernel_task4::walk_virtual::hb3c91b13438fe028>
80004bde: 6666         	ld	a2, 0x58(sp)
80004be0: 7686         	ld	a3, 0x60(sp)

0000000080004be2 <.Lpcrel_hi556>:
80004be2: 00004517     	auipc	a0, 0x4
80004be6: af150513     	addi	a0, a0, -0x50f
80004bea: 45a9         	li	a1, 0xa
80004bec: ffffc097     	auipc	ra, 0xffffc
80004bf0: b50080e7     	jalr	-0x4b0(ra) <lab4_kernel_task4::print_walk::h17f3ac5b095b2942>
80004bf4: 1c28         	addi	a0, sp, 0x238
80004bf6: f8aa         	sd	a0, 0x70(sp)
80004bf8: 004105b7     	lui	a1, 0x410
80004bfc: f4ae         	sd	a1, 0x68(sp)
80004bfe: ffffc097     	auipc	ra, 0xffffc
80004c02: 5ca080e7     	jalr	0x5ca(ra) <lab4_kernel_task4::walk_virtual::hb3c91b13438fe028>
80004c06: 7626         	ld	a2, 0x68(sp)
80004c08: 76c6         	ld	a3, 0x70(sp)

0000000080004c0a <.Lpcrel_hi557>:
80004c0a: 00004517     	auipc	a0, 0x4
80004c0e: ad350513     	addi	a0, a0, -0x52d
80004c12: 45d1         	li	a1, 0x14
80004c14: fcae         	sd	a1, 0x78(sp)
80004c16: ffffc097     	auipc	ra, 0xffffc
80004c1a: b26080e7     	jalr	-0x4da(ra) <lab4_kernel_task4::print_walk::h17f3ac5b095b2942>
80004c1e: 1ca8         	addi	a0, sp, 0x278
80004c20: e52a         	sd	a0, 0x88(sp)
80004c22: 004115b7     	lui	a1, 0x411
80004c26: e12e         	sd	a1, 0x80(sp)
80004c28: ffffc097     	auipc	ra, 0xffffc
80004c2c: 5a0080e7     	jalr	0x5a0(ra) <lab4_kernel_task4::walk_virtual::hb3c91b13438fe028>
80004c30: 75e6         	ld	a1, 0x78(sp)
80004c32: 660a         	ld	a2, 0x80(sp)
80004c34: 66aa         	ld	a3, 0x88(sp)

0000000080004c36 <.Lpcrel_hi558>:
80004c36: 00004517     	auipc	a0, 0x4
80004c3a: abb50513     	addi	a0, a0, -0x545
80004c3e: ffffc097     	auipc	ra, 0xffffc
80004c42: afe080e7     	jalr	-0x502(ra) <lab4_kernel_task4::print_walk::h17f3ac5b095b2942>
80004c46: 6509         	lui	a0, 0x2
80004c48: e92a         	sd	a0, 0x90(sp)
80004c4a: 4501         	li	a0, 0x0
80004c4c: e50d         	bnez	a0, 0x80004c76 <.Lpcrel_hi560>
80004c4e: a809         	j	0x80004c60 <.Lpcrel_hi559+0x10>

0000000080004c50 <.Lpcrel_hi559>:
80004c50: 00004517     	auipc	a0, 0x4
80004c54: 9e050513     	addi	a0, a0, -0x620
80004c58: 00002097     	auipc	ra, 0x2
80004c5c: b00080e7     	jalr	-0x500(ra) <core::panicking::panic_null_pointer_dereference::hbac6411af4f2e916>
80004c60: 654a         	ld	a0, 0x90(sp)
80004c62: 004105b7     	lui	a1, 0x410
80004c66: 952e         	add	a0, a0, a1
80004c68: f02a         	sd	a0, 0x20(sp)
80004c6a: 8141         	srli	a0, a0, 0x10
80004c6c: 04100593     	li	a1, 0x41
80004c70: 02b56063     	bltu	a0, a1, 0x80004c90 <.Lpcrel_hi561>
80004c74: a809         	j	0x80004c86 <.Lpcrel_hi560+0x10>

0000000080004c76 <.Lpcrel_hi560>:
80004c76: 00004517     	auipc	a0, 0x4
80004c7a: aaa50513     	addi	a0, a0, -0x556
80004c7e: 00002097     	auipc	ra, 0x2
80004c82: a14080e7     	jalr	-0x5ec(ra) <core::panicking::panic_const::panic_const_mul_overflow::h67897feae7531d51>
80004c86: 6509         	lui	a0, 0x2
80004c88: ec2a         	sd	a0, 0x18(sp)
80004c8a: 4501         	li	a0, 0x0
80004c8c: e50d         	bnez	a0, 0x80004cb6 <.Lpcrel_hi562>
80004c8e: a809         	j	0x80004ca0 <.Lpcrel_hi561+0x10>

0000000080004c90 <.Lpcrel_hi561>:
80004c90: 00004517     	auipc	a0, 0x4
80004c94: aa850513     	addi	a0, a0, -0x558
80004c98: 00002097     	auipc	ra, 0x2
80004c9c: 9dc080e7     	jalr	-0x624(ra) <core::panicking::panic_const::panic_const_add_overflow::h67cba067093910f8>
80004ca0: 6562         	ld	a0, 0x18(sp)
80004ca2: 004105b7     	lui	a1, 0x410
80004ca6: 952e         	add	a0, a0, a1
80004ca8: e82a         	sd	a0, 0x10(sp)
80004caa: 8141         	srli	a0, a0, 0x10
80004cac: 04100593     	li	a1, 0x41
80004cb0: 06b56063     	bltu	a0, a1, 0x80004d10 <.Lpcrel_hi565>
80004cb4: a809         	j	0x80004cc6 <.Lpcrel_hi562+0x10>

0000000080004cb6 <.Lpcrel_hi562>:
80004cb6: 00004517     	auipc	a0, 0x4
80004cba: a9a50513     	addi	a0, a0, -0x566
80004cbe: 00002097     	auipc	ra, 0x2
80004cc2: 9d4080e7     	jalr	-0x62c(ra) <core::panicking::panic_const::panic_const_mul_overflow::h67897feae7531d51>
80004cc6: 65c2         	ld	a1, 0x10(sp)
80004cc8: 1d28         	addi	a0, sp, 0x2b8
80004cca: e42a         	sd	a0, 0x8(sp)
80004ccc: ffffc097     	auipc	ra, 0xffffc
80004cd0: 4fc080e7     	jalr	0x4fc(ra) <lab4_kernel_task4::walk_virtual::hb3c91b13438fe028>
80004cd4: 7602         	ld	a2, 0x20(sp)
80004cd6: 66a2         	ld	a3, 0x8(sp)

0000000080004cd8 <.Lpcrel_hi563>:
80004cd8: 00004517     	auipc	a0, 0x4
80004cdc: a2d50513     	addi	a0, a0, -0x5d3
80004ce0: 45d1         	li	a1, 0x14
80004ce2: ffffc097     	auipc	ra, 0xffffc
80004ce6: a5a080e7     	jalr	-0x5a6(ra) <lab4_kernel_task4::print_walk::h17f3ac5b095b2942>
80004cea: fffff097     	auipc	ra, 0xfffff
80004cee: 714080e7     	jalr	0x714(ra) <lab4_kernel_task4::supervisor_trap_stack_top::h299f42e8b1040929>
80004cf2: 14051073     	csrw	sscratch, a0
80004cf6: fffff097     	auipc	ra, 0xfffff
80004cfa: 708080e7     	jalr	0x708(ra) <lab4_kernel_task4::supervisor_trap_stack_top::h299f42e8b1040929>
80004cfe: 85aa         	mv	a1, a0

0000000080004d00 <.Lpcrel_hi564>:
80004d00: 00005517     	auipc	a0, 0x5
80004d04: 36050513     	addi	a0, a0, 0x360
80004d08: ffffb097     	auipc	ra, 0xffffb
80004d0c: 6fe080e7     	jalr	0x6fe(ra) <enter_user_task>

0000000080004d10 <.Lpcrel_hi565>:
80004d10: 00004517     	auipc	a0, 0x4
80004d14: a5850513     	addi	a0, a0, -0x5a8
80004d18: 00002097     	auipc	ra, 0x2
80004d1c: 95c080e7     	jalr	-0x6a4(ra) <core::panicking::panic_const::panic_const_add_overflow::h67cba067093910f8>

0000000080004d20 <lab4_kernel_task4::trap::init_machine_trap_vector::h362f1b1271f2e7af>:
80004d20: ffffb517     	auipc	a0, 0xffffb
80004d24: 79050513     	addi	a0, a0, 0x790
80004d28: 30551073     	csrw	mtvec, a0
80004d2c: 8082         	ret

0000000080004d2e <lab4_kernel_task4::trap::init_supervisor_trap_vector::hc387cd61a499e61f>:
80004d2e: ffffc517     	auipc	a0, 0xffffc
80004d32: 83250513     	addi	a0, a0, -0x7ce
80004d36: 10551073     	csrw	stvec, a0
80004d3a: 8082         	ret

0000000080004d3c <lab4_kernel_task4::trap::TrapFrame::zeroed::hb690c67cc7f08836>:
80004d3c: 85aa         	mv	a1, a0
80004d3e: 4501         	li	a0, 0x0
80004d40: e188         	sd	a0, 0x0(a1)
80004d42: e588         	sd	a0, 0x8(a1)
80004d44: e988         	sd	a0, 0x10(a1)
80004d46: ed88         	sd	a0, 0x18(a1)
80004d48: f188         	sd	a0, 0x20(a1)
80004d4a: f588         	sd	a0, 0x28(a1)
80004d4c: f988         	sd	a0, 0x30(a1)
80004d4e: fd88         	sd	a0, 0x38(a1)
80004d50: e1a8         	sd	a0, 0x40(a1)
80004d52: e5a8         	sd	a0, 0x48(a1)
80004d54: e9a8         	sd	a0, 0x50(a1)
80004d56: eda8         	sd	a0, 0x58(a1)
80004d58: f1a8         	sd	a0, 0x60(a1)
80004d5a: f5a8         	sd	a0, 0x68(a1)
80004d5c: f9a8         	sd	a0, 0x70(a1)
80004d5e: fda8         	sd	a0, 0x78(a1)
80004d60: e1c8         	sd	a0, 0x80(a1)
80004d62: e5c8         	sd	a0, 0x88(a1)
80004d64: e9c8         	sd	a0, 0x90(a1)
80004d66: edc8         	sd	a0, 0x98(a1)
80004d68: f1c8         	sd	a0, 0xa0(a1)
80004d6a: f5c8         	sd	a0, 0xa8(a1)
80004d6c: f9c8         	sd	a0, 0xb0(a1)
80004d6e: fdc8         	sd	a0, 0xb8(a1)
80004d70: e1e8         	sd	a0, 0xc0(a1)
80004d72: e5e8         	sd	a0, 0xc8(a1)
80004d74: e9e8         	sd	a0, 0xd0(a1)
80004d76: ede8         	sd	a0, 0xd8(a1)
80004d78: f1e8         	sd	a0, 0xe0(a1)
80004d7a: f5e8         	sd	a0, 0xe8(a1)
80004d7c: f9e8         	sd	a0, 0xf0(a1)
80004d7e: fde8         	sd	a0, 0xf8(a1)
80004d80: 8082         	ret

0000000080004d82 <core::ptr::drop_in_place$LT$core..array..iter..IntoIter$LT$char$C$9_usize$GT$$GT$::h17201d34caa71272>:
80004d82: 1141         	addi	sp, sp, -0x10
80004d84: e406         	sd	ra, 0x8(sp)
80004d86: e02a         	sd	a0, 0x0(sp)
80004d88: 00000097     	auipc	ra, 0x0
80004d8c: 00e080e7     	jalr	0xe(ra) <_$LT$core..array..iter..IntoIter$LT$T$C$_$GT$$u20$as$u20$core..ops..drop..Drop$GT$::drop::hcfcdd06b95ec7f50>
80004d90: 60a2         	ld	ra, 0x8(sp)
80004d92: 0141         	addi	sp, sp, 0x10
80004d94: 8082         	ret

0000000080004d96 <_$LT$core..array..iter..IntoIter$LT$T$C$_$GT$$u20$as$u20$core..ops..drop..Drop$GT$::drop::hcfcdd06b95ec7f50>:
80004d96: 1141         	addi	sp, sp, -0x10
80004d98: e42a         	sd	a0, 0x8(sp)
80004d9a: a009         	j	0x80004d9c <_$LT$core..array..iter..IntoIter$LT$T$C$_$GT$$u20$as$u20$core..ops..drop..Drop$GT$::drop::hcfcdd06b95ec7f50+0x6>
80004d9c: 0141         	addi	sp, sp, 0x10
80004d9e: 8082         	ret

0000000080004da0 <core::ptr::const_ptr::_$LT$impl$u20$$BP$const$u20$T$GT$::is_aligned_to::h0e2235905ead403c>:
80004da0: 7139         	addi	sp, sp, -0x40
80004da2: e42e         	sd	a1, 0x8(sp)
80004da4: e82a         	sd	a0, 0x10(sp)
80004da6: ec2a         	sd	a0, 0x18(sp)
80004da8: f02e         	sd	a1, 0x20(sp)
80004daa: 0015d513     	srli	a0, a1, 0x1
80004dae: 55555637     	lui	a2, 0x55555
80004db2: 55560613     	addi	a2, a2, 0x555
80004db6: 02061693     	slli	a3, a2, 0x20
80004dba: 9636         	add	a2, a2, a3
80004dbc: 8d71         	and	a0, a0, a2
80004dbe: 8d89         	sub	a1, a1, a0
80004dc0: 33333537     	lui	a0, 0x33333
80004dc4: 33350513     	addi	a0, a0, 0x333
80004dc8: 02051613     	slli	a2, a0, 0x20
80004dcc: 962a         	add	a2, a2, a0
80004dce: 00c5f533     	and	a0, a1, a2
80004dd2: 8189         	srli	a1, a1, 0x2
80004dd4: 8df1         	and	a1, a1, a2
80004dd6: 952e         	add	a0, a0, a1
80004dd8: 00455593     	srli	a1, a0, 0x4
80004ddc: 952e         	add	a0, a0, a1
80004dde: 0f0f15b7     	lui	a1, 0xf0f1
80004de2: f0f58593     	addi	a1, a1, -0xf1
80004de6: 02059613     	slli	a2, a1, 0x20
80004dea: 95b2         	add	a1, a1, a2
80004dec: 8d6d         	and	a0, a0, a1
80004dee: 010105b7     	lui	a1, 0x1010
80004df2: 10158593     	addi	a1, a1, 0x101
80004df6: 02059613     	slli	a2, a1, 0x20
80004dfa: 95b2         	add	a1, a1, a2
80004dfc: 02b50533     	mul	a0, a0, a1
80004e00: 9161         	srli	a0, a0, 0x38
80004e02: d62a         	sw	a0, 0x2c(sp)
80004e04: 5532         	lw	a0, 0x2c(sp)
80004e06: 4585         	li	a1, 0x1
80004e08: 00b51b63     	bne	a0, a1, 0x80004e1e <.Lpcrel_hi0>
80004e0c: a009         	j	0x80004e0e <core::ptr::const_ptr::_$LT$impl$u20$$BP$const$u20$T$GT$::is_aligned_to::h0e2235905ead403c+0x6e>
80004e0e: 6542         	ld	a0, 0x10(sp)
80004e10: 65a2         	ld	a1, 0x8(sp)
80004e12: 15fd         	addi	a1, a1, -0x1
80004e14: 8d6d         	and	a0, a0, a1
80004e16: 00153513     	seqz	a0, a0
80004e1a: 6121         	addi	sp, sp, 0x40
80004e1c: 8082         	ret

0000000080004e1e <.Lpcrel_hi0>:
80004e1e: 00004517     	auipc	a0, 0x4
80004e22: 96250513     	addi	a0, a0, -0x69e
80004e26: f82a         	sd	a0, 0x30(sp)
80004e28: 02a00593     	li	a1, 0x2a
80004e2c: fc2e         	sd	a1, 0x38(sp)

0000000080004e2e <.Lpcrel_hi1>:
80004e2e: 00004597     	auipc	a1, 0x4
80004e32: 98258613     	addi	a2, a1, -0x67e
80004e36: 05500593     	li	a1, 0x55
80004e3a: 00002097     	auipc	ra, 0x2
80004e3e: 97e080e7     	jalr	-0x682(ra) <core::panicking::panic_fmt::h767dc8ac4dd44648>

0000000080004e42 <_$LT$$RF$T$u20$as$u20$core..fmt..Display$GT$::fmt::hf5b4231a16ea93ed>:
80004e42: 1101         	addi	sp, sp, -0x20
80004e44: ec06         	sd	ra, 0x18(sp)
80004e46: e42a         	sd	a0, 0x8(sp)
80004e48: e82e         	sd	a1, 0x10(sp)
80004e4a: 6108         	ld	a0, 0x0(a0)
80004e4c: 00002097     	auipc	ra, 0x2
80004e50: 99a080e7     	jalr	-0x666(ra) <_$LT$core..panic..panic_info..PanicInfo$u20$as$u20$core..fmt..Display$GT$::fmt::hcccb3fed5b673506>
80004e54: 60e2         	ld	ra, 0x18(sp)
80004e56: 6105         	addi	sp, sp, 0x20
80004e58: 8082         	ret

0000000080004e5a <_$LT$core..str..iter..Bytes$u20$as$u20$core..iter..traits..iterator..Iterator$GT$::next::heec37cdfd7c49b6c>:
80004e5a: 7179         	addi	sp, sp, -0x30
80004e5c: f406         	sd	ra, 0x28(sp)
80004e5e: ec2a         	sd	a0, 0x18(sp)
80004e60: 00001097     	auipc	ra, 0x1
80004e64: 886080e7     	jalr	-0x77a(ra) <_$LT$core..slice..iter..Iter$LT$T$GT$$u20$as$u20$core..iter..traits..iterator..Iterator$GT$::next::h11e13e643b6a440a>
80004e68: e82a         	sd	a0, 0x10(sp)
80004e6a: 6542         	ld	a0, 0x10(sp)
80004e6c: cd09         	beqz	a0, 0x80004e86 <.Lpcrel_hi0>
80004e6e: a009         	j	0x80004e70 <_$LT$core..str..iter..Bytes$u20$as$u20$core..iter..traits..iterator..Iterator$GT$::next::heec37cdfd7c49b6c+0x16>
80004e70: 6542         	ld	a0, 0x10(sp)
80004e72: 00054503     	lbu	a0, 0x0(a0)
80004e76: 02a103a3     	sb	a0, 0x27(sp)
80004e7a: 00a107a3     	sb	a0, 0xf(sp)
80004e7e: 4505         	li	a0, 0x1
80004e80: 00a10723     	sb	a0, 0xe(sp)
80004e84: a831         	j	0x80004ea0 <.Lpcrel_hi0+0x1a>

0000000080004e86 <.Lpcrel_hi0>:
80004e86: 00004517     	auipc	a0, 0x4
80004e8a: 94250513     	addi	a0, a0, -0x6be
80004e8e: 00054583     	lbu	a1, 0x0(a0)
80004e92: 00154503     	lbu	a0, 0x1(a0)
80004e96: 00b10723     	sb	a1, 0xe(sp)
80004e9a: 00a107a3     	sb	a0, 0xf(sp)
80004e9e: a009         	j	0x80004ea0 <.Lpcrel_hi0+0x1a>
80004ea0: 00e14503     	lbu	a0, 0xe(sp)
80004ea4: 00f14583     	lbu	a1, 0xf(sp)
80004ea8: 70a2         	ld	ra, 0x28(sp)
80004eaa: 6145         	addi	sp, sp, 0x30
80004eac: 8082         	ret

0000000080004eae <core::slice::raw::from_raw_parts::precondition_check::h3775922c9007ca3f>:
80004eae: 7119         	addi	sp, sp, -0x80
80004eb0: fc86         	sd	ra, 0x78(sp)
80004eb2: e43a         	sd	a4, 0x8(sp)
80004eb4: e836         	sd	a3, 0x10(sp)
80004eb6: ec32         	sd	a2, 0x18(sp)
80004eb8: 862e         	mv	a2, a1
80004eba: 65e2         	ld	a1, 0x18(sp)
80004ebc: f032         	sd	a2, 0x20(sp)
80004ebe: f42a         	sd	a0, 0x28(sp)
80004ec0: fc2a         	sd	a0, 0x38(sp)
80004ec2: e0b2         	sd	a2, 0x40(sp)
80004ec4: e4ae         	sd	a1, 0x48(sp)
80004ec6: e8b6         	sd	a3, 0x50(sp)
80004ec8: 4601         	li	a2, 0x0
80004eca: 04c10fa3     	sb	a2, 0x5f(sp)
80004ece: f0aa         	sd	a0, 0x60(sp)
80004ed0: 00000097     	auipc	ra, 0x0
80004ed4: ed0080e7     	jalr	-0x130(ra) <core::ptr::const_ptr::_$LT$impl$u20$$BP$const$u20$T$GT$::is_aligned_to::h0e2235905ead403c>
80004ed8: e119         	bnez	a0, 0x80004ede <core::slice::raw::from_raw_parts::precondition_check::h3775922c9007ca3f+0x30>
80004eda: a009         	j	0x80004edc <core::slice::raw::from_raw_parts::precondition_check::h3775922c9007ca3f+0x2e>
80004edc: a021         	j	0x80004ee4 <core::slice::raw::from_raw_parts::precondition_check::h3775922c9007ca3f+0x36>
80004ede: 7522         	ld	a0, 0x28(sp)
80004ee0: e119         	bnez	a0, 0x80004ee6 <core::slice::raw::from_raw_parts::precondition_check::h3775922c9007ca3f+0x38>
80004ee2: a009         	j	0x80004ee4 <core::slice::raw::from_raw_parts::precondition_check::h3775922c9007ca3f+0x36>
80004ee4: a039         	j	0x80004ef2 <core::slice::raw::from_raw_parts::precondition_check::h3775922c9007ca3f+0x44>
80004ee6: 7502         	ld	a0, 0x20(sp)
80004ee8: 00153593     	seqz	a1, a0
80004eec: e02e         	sd	a1, 0x0(sp)
80004eee: c115         	beqz	a0, 0x80004f12 <.Lpcrel_hi0+0x1e>
80004ef0: a025         	j	0x80004f18 <.Lpcrel_hi0+0x24>
80004ef2: 66a2         	ld	a3, 0x8(sp)

0000000080004ef4 <.Lpcrel_hi0>:
80004ef4: 00004517     	auipc	a0, 0x4
80004ef8: 8f450513     	addi	a0, a0, -0x70c
80004efc: f4aa         	sd	a0, 0x68(sp)
80004efe: 11700593     	li	a1, 0x117
80004f02: f8ae         	sd	a1, 0x70(sp)
80004f04: 22f00593     	li	a1, 0x22f
80004f08: 4601         	li	a2, 0x0
80004f0a: 00002097     	auipc	ra, 0x2
80004f0e: 81e080e7     	jalr	-0x7e2(ra) <core::panicking::panic_nounwind_fmt::h2e018e50a8d3bc73>
80004f12: 557d         	li	a0, -0x1
80004f14: f82a         	sd	a0, 0x30(sp)
80004f16: a029         	j	0x80004f20 <.Lpcrel_hi0+0x2c>
80004f18: 6502         	ld	a0, 0x0(sp)
80004f1a: 8905         	andi	a0, a0, 0x1
80004f1c: ed11         	bnez	a0, 0x80004f38 <.Lpcrel_hi1>
80004f1e: a031         	j	0x80004f2a <.Lpcrel_hi0+0x36>
80004f20: 65c2         	ld	a1, 0x10(sp)
80004f22: 7542         	ld	a0, 0x30(sp)
80004f24: 02b57363     	bgeu	a0, a1, 0x80004f4a <.Lpcrel_hi1+0x12>
80004f28: a005         	j	0x80004f48 <.Lpcrel_hi1+0x10>
80004f2a: 7582         	ld	a1, 0x20(sp)
80004f2c: 557d         	li	a0, -0x1
80004f2e: 8105         	srli	a0, a0, 0x1
80004f30: 02b55533     	divu	a0, a0, a1
80004f34: f82a         	sd	a0, 0x30(sp)
80004f36: b7ed         	j	0x80004f20 <.Lpcrel_hi0+0x2c>

0000000080004f38 <.Lpcrel_hi1>:
80004f38: 00004517     	auipc	a0, 0x4
80004f3c: 89850513     	addi	a0, a0, -0x768
80004f40: 00001097     	auipc	ra, 0x1
80004f44: 716080e7     	jalr	0x716(ra) <core::panicking::panic_const::panic_const_div_by_zero::hcfde4c26e8ecfc4b>
80004f48: b76d         	j	0x80004ef2 <core::slice::raw::from_raw_parts::precondition_check::h3775922c9007ca3f+0x44>
80004f4a: 70e6         	ld	ra, 0x78(sp)
80004f4c: 6109         	addi	sp, sp, 0x80
80004f4e: 8082         	ret

0000000080004f50 <core::slice::raw::from_raw_parts_mut::precondition_check::h05a32f80e2f4cb35>:
80004f50: 7119         	addi	sp, sp, -0x80
80004f52: fc86         	sd	ra, 0x78(sp)
80004f54: e43a         	sd	a4, 0x8(sp)
80004f56: e836         	sd	a3, 0x10(sp)
80004f58: ec32         	sd	a2, 0x18(sp)
80004f5a: 862e         	mv	a2, a1
80004f5c: 65e2         	ld	a1, 0x18(sp)
80004f5e: f032         	sd	a2, 0x20(sp)
80004f60: f42a         	sd	a0, 0x28(sp)
80004f62: fc2a         	sd	a0, 0x38(sp)
80004f64: e0b2         	sd	a2, 0x40(sp)
80004f66: e4ae         	sd	a1, 0x48(sp)
80004f68: e8b6         	sd	a3, 0x50(sp)
80004f6a: 4601         	li	a2, 0x0
80004f6c: 04c10fa3     	sb	a2, 0x5f(sp)
80004f70: f0aa         	sd	a0, 0x60(sp)
80004f72: 00000097     	auipc	ra, 0x0
80004f76: e2e080e7     	jalr	-0x1d2(ra) <core::ptr::const_ptr::_$LT$impl$u20$$BP$const$u20$T$GT$::is_aligned_to::h0e2235905ead403c>
80004f7a: e119         	bnez	a0, 0x80004f80 <core::slice::raw::from_raw_parts_mut::precondition_check::h05a32f80e2f4cb35+0x30>
80004f7c: a009         	j	0x80004f7e <core::slice::raw::from_raw_parts_mut::precondition_check::h05a32f80e2f4cb35+0x2e>
80004f7e: a021         	j	0x80004f86 <core::slice::raw::from_raw_parts_mut::precondition_check::h05a32f80e2f4cb35+0x36>
80004f80: 7522         	ld	a0, 0x28(sp)
80004f82: e119         	bnez	a0, 0x80004f88 <core::slice::raw::from_raw_parts_mut::precondition_check::h05a32f80e2f4cb35+0x38>
80004f84: a009         	j	0x80004f86 <core::slice::raw::from_raw_parts_mut::precondition_check::h05a32f80e2f4cb35+0x36>
80004f86: a039         	j	0x80004f94 <core::slice::raw::from_raw_parts_mut::precondition_check::h05a32f80e2f4cb35+0x44>
80004f88: 7502         	ld	a0, 0x20(sp)
80004f8a: 00153593     	seqz	a1, a0
80004f8e: e02e         	sd	a1, 0x0(sp)
80004f90: c115         	beqz	a0, 0x80004fb4 <.Lpcrel_hi2+0x1e>
80004f92: a025         	j	0x80004fba <.Lpcrel_hi2+0x24>
80004f94: 66a2         	ld	a3, 0x8(sp)

0000000080004f96 <.Lpcrel_hi2>:
80004f96: 00004517     	auipc	a0, 0x4
80004f9a: 96950513     	addi	a0, a0, -0x697
80004f9e: f4aa         	sd	a0, 0x68(sp)
80004fa0: 11b00593     	li	a1, 0x11b
80004fa4: f8ae         	sd	a1, 0x70(sp)
80004fa6: 23700593     	li	a1, 0x237
80004faa: 4601         	li	a2, 0x0
80004fac: 00001097     	auipc	ra, 0x1
80004fb0: 77c080e7     	jalr	0x77c(ra) <core::panicking::panic_nounwind_fmt::h2e018e50a8d3bc73>
80004fb4: 557d         	li	a0, -0x1
80004fb6: f82a         	sd	a0, 0x30(sp)
80004fb8: a029         	j	0x80004fc2 <.Lpcrel_hi2+0x2c>
80004fba: 6502         	ld	a0, 0x0(sp)
80004fbc: 8905         	andi	a0, a0, 0x1
80004fbe: ed11         	bnez	a0, 0x80004fda <.Lpcrel_hi3>
80004fc0: a031         	j	0x80004fcc <.Lpcrel_hi2+0x36>
80004fc2: 65c2         	ld	a1, 0x10(sp)
80004fc4: 7542         	ld	a0, 0x30(sp)
80004fc6: 02b57363     	bgeu	a0, a1, 0x80004fec <.Lpcrel_hi3+0x12>
80004fca: a005         	j	0x80004fea <.Lpcrel_hi3+0x10>
80004fcc: 7582         	ld	a1, 0x20(sp)
80004fce: 557d         	li	a0, -0x1
80004fd0: 8105         	srli	a0, a0, 0x1
80004fd2: 02b55533     	divu	a0, a0, a1
80004fd6: f82a         	sd	a0, 0x30(sp)
80004fd8: b7ed         	j	0x80004fc2 <.Lpcrel_hi2+0x2c>

0000000080004fda <.Lpcrel_hi3>:
80004fda: 00003517     	auipc	a0, 0x3
80004fde: 7f650513     	addi	a0, a0, 0x7f6
80004fe2: 00001097     	auipc	ra, 0x1
80004fe6: 674080e7     	jalr	0x674(ra) <core::panicking::panic_const::panic_const_div_by_zero::hcfde4c26e8ecfc4b>
80004fea: b76d         	j	0x80004f94 <core::slice::raw::from_raw_parts_mut::precondition_check::h05a32f80e2f4cb35+0x44>
80004fec: 70e6         	ld	ra, 0x78(sp)
80004fee: 6109         	addi	sp, sp, 0x80
80004ff0: 8082         	ret

0000000080004ff2 <core::str::_$LT$impl$u20$str$GT$::bytes::h4445b415e5c0965d>:
80004ff2: 1141         	addi	sp, sp, -0x10
80004ff4: e02a         	sd	a0, 0x0(sp)
80004ff6: e42e         	sd	a1, 0x8(sp)
80004ff8: 95aa         	add	a1, a1, a0
80004ffa: 0141         	addi	sp, sp, 0x10
80004ffc: 8082         	ret

0000000080004ffe <_$LT$usize$u20$as$u20$core..iter..range..Step$GT$::forward_unchecked::h9ee5b4213c7b0bd7>:
80004ffe: 7179         	addi	sp, sp, -0x30
80005000: f406         	sd	ra, 0x28(sp)
80005002: e42e         	sd	a1, 0x8(sp)
80005004: e82a         	sd	a0, 0x10(sp)
80005006: ec2a         	sd	a0, 0x18(sp)
80005008: f02e         	sd	a1, 0x20(sp)
8000500a: a009         	j	0x8000500c <_$LT$usize$u20$as$u20$core..iter..range..Step$GT$::forward_unchecked::h9ee5b4213c7b0bd7+0xe>
8000500c: 65a2         	ld	a1, 0x8(sp)
8000500e: 6542         	ld	a0, 0x10(sp)

0000000080005010 <.Lpcrel_hi0>:
80005010: 00004617     	auipc	a2, 0x4
80005014: a1060613     	addi	a2, a2, -0x5f0
80005018: ffffb097     	auipc	ra, 0xffffb
8000501c: ffa080e7     	jalr	-0x6(ra) <core::num::_$LT$impl$u20$usize$GT$::unchecked_add::precondition_check::h206227fbb92bd582>
80005020: a009         	j	0x80005022 <.Lpcrel_hi0+0x12>
80005022: 6542         	ld	a0, 0x10(sp)
80005024: 65a2         	ld	a1, 0x8(sp)
80005026: 952e         	add	a0, a0, a1
80005028: 70a2         	ld	ra, 0x28(sp)
8000502a: 6145         	addi	sp, sp, 0x30
8000502c: 8082         	ret

000000008000502e <lab4_kernel_task4::console::write_byte::h9a363b34c286754b>:
8000502e: 1101         	addi	sp, sp, -0x20
80005030: ec06         	sd	ra, 0x18(sp)
80005032: 85aa         	mv	a1, a0
80005034: e42e         	sd	a1, 0x8(sp)
80005036: 00a10ba3     	sb	a0, 0x17(sp)
8000503a: 45a9         	li	a1, 0xa
8000503c: 02b50363     	beq	a0, a1, 0x80005062 <.Lpcrel_hi1>
80005040: a009         	j	0x80005042 <lab4_kernel_task4::console::write_byte::h9a363b34c286754b+0x14>
80005042: 6522         	ld	a0, 0x8(sp)
80005044: 0ff57593     	zext.b	a1, a0

0000000080005048 <.Lpcrel_hi0>:
80005048: 00004517     	auipc	a0, 0x4
8000504c: a0850613     	addi	a2, a0, -0x5f8
80005050: 10000537     	lui	a0, 0x10000
80005054: ffffb097     	auipc	ra, 0xffffb
80005058: 1cc080e7     	jalr	0x1cc(ra) <core::ptr::write_volatile::h5fa98ea08c201745>
8000505c: 60e2         	ld	ra, 0x18(sp)
8000505e: 6105         	addi	sp, sp, 0x20
80005060: 8082         	ret

0000000080005062 <.Lpcrel_hi1>:
80005062: 00004517     	auipc	a0, 0x4
80005066: 9d650613     	addi	a2, a0, -0x62a
8000506a: 10000537     	lui	a0, 0x10000
8000506e: 45b5         	li	a1, 0xd
80005070: ffffb097     	auipc	ra, 0xffffb
80005074: 1b0080e7     	jalr	0x1b0(ra) <core::ptr::write_volatile::h5fa98ea08c201745>
80005078: b7e9         	j	0x80005042 <lab4_kernel_task4::console::write_byte::h9a363b34c286754b+0x14>

000000008000507a <lab4_kernel_task4::console::print::h39762270f09f95ac>:
8000507a: 7179         	addi	sp, sp, -0x30
8000507c: f406         	sd	ra, 0x28(sp)
8000507e: 862e         	mv	a2, a1
80005080: 85aa         	mv	a1, a0
80005082: e82e         	sd	a1, 0x10(sp)
80005084: ec32         	sd	a2, 0x18(sp)
80005086: 00f10513     	addi	a0, sp, 0xf
8000508a: 00000097     	auipc	ra, 0x0
8000508e: 382080e7     	jalr	0x382(ra) <core::fmt::Write::write_fmt::ha75f983addaf25bf>
80005092: 70a2         	ld	ra, 0x28(sp)
80005094: 6145         	addi	sp, sp, 0x30
80005096: 8082         	ret

0000000080005098 <_$LT$lab4_kernel_task4..console..KernelConsole$u20$as$u20$core..fmt..Write$GT$::write_str::h552f87a3d17a2f8a>:
80005098: 715d         	addi	sp, sp, -0x50
8000509a: e486         	sd	ra, 0x48(sp)
8000509c: e032         	sd	a2, 0x0(sp)
8000509e: 862e         	mv	a2, a1
800050a0: 6582         	ld	a1, 0x0(sp)
800050a2: e432         	sd	a2, 0x8(sp)
800050a4: 862a         	mv	a2, a0
800050a6: 6522         	ld	a0, 0x8(sp)
800050a8: f432         	sd	a2, 0x28(sp)
800050aa: f82a         	sd	a0, 0x30(sp)
800050ac: fc2e         	sd	a1, 0x38(sp)
800050ae: 00000097     	auipc	ra, 0x0
800050b2: f44080e7     	jalr	-0xbc(ra) <core::str::_$LT$impl$u20$str$GT$::bytes::h4445b415e5c0965d>
800050b6: 00000097     	auipc	ra, 0x0
800050ba: 4cc080e7     	jalr	0x4cc(ra) <_$LT$I$u20$as$u20$core..iter..traits..collect..IntoIterator$GT$::into_iter::hcdd4559c254a0282>
800050be: e82a         	sd	a0, 0x10(sp)
800050c0: ec2e         	sd	a1, 0x18(sp)
800050c2: a009         	j	0x800050c4 <_$LT$lab4_kernel_task4..console..KernelConsole$u20$as$u20$core..fmt..Write$GT$::write_str::h552f87a3d17a2f8a+0x2c>
800050c4: 0808         	addi	a0, sp, 0x10
800050c6: 00000097     	auipc	ra, 0x0
800050ca: d94080e7     	jalr	-0x26c(ra) <_$LT$core..str..iter..Bytes$u20$as$u20$core..iter..traits..iterator..Iterator$GT$::next::heec37cdfd7c49b6c>
800050ce: 8905         	andi	a0, a0, 0x1
800050d0: 02a10323     	sb	a0, 0x26(sp)
800050d4: 02b103a3     	sb	a1, 0x27(sp)
800050d8: 02614503     	lbu	a0, 0x26(sp)
800050dc: 8905         	andi	a0, a0, 0x1
800050de: c919         	beqz	a0, 0x800050f4 <_$LT$lab4_kernel_task4..console..KernelConsole$u20$as$u20$core..fmt..Write$GT$::write_str::h552f87a3d17a2f8a+0x5c>
800050e0: a009         	j	0x800050e2 <_$LT$lab4_kernel_task4..console..KernelConsole$u20$as$u20$core..fmt..Write$GT$::write_str::h552f87a3d17a2f8a+0x4a>
800050e2: 02714503     	lbu	a0, 0x27(sp)
800050e6: 04a103a3     	sb	a0, 0x47(sp)
800050ea: 00000097     	auipc	ra, 0x0
800050ee: f44080e7     	jalr	-0xbc(ra) <lab4_kernel_task4::console::write_byte::h9a363b34c286754b>
800050f2: bfc9         	j	0x800050c4 <_$LT$lab4_kernel_task4..console..KernelConsole$u20$as$u20$core..fmt..Write$GT$::write_str::h552f87a3d17a2f8a+0x2c>
800050f4: 4501         	li	a0, 0x0
800050f6: 60a6         	ld	ra, 0x48(sp)
800050f8: 6161         	addi	sp, sp, 0x50
800050fa: 8082         	ret

00000000800050fc <_$LT$core..result..Result$LT$T$C$F$GT$$u20$as$u20$core..ops..try_trait..FromResidual$LT$core..result..Result$LT$core..convert..Infallible$C$E$GT$$GT$$GT$::from_residual::h30d04fea5c5887b6>:
800050fc: 1141         	addi	sp, sp, -0x10
800050fe: 4505         	li	a0, 0x1
80005100: 0141         	addi	sp, sp, 0x10
80005102: 8082         	ret

0000000080005104 <_$LT$core..result..Result$LT$T$C$E$GT$$u20$as$u20$core..ops..try_trait..Try$GT$::branch::hd54a78882c11ba19>:
80005104: 1141         	addi	sp, sp, -0x10
80005106: 00a10623     	sb	a0, 0xc(sp)
8000510a: 00c14503     	lbu	a0, 0xc(sp)
8000510e: 8905         	andi	a0, a0, 0x1
80005110: c511         	beqz	a0, 0x8000511c <_$LT$core..result..Result$LT$T$C$E$GT$$u20$as$u20$core..ops..try_trait..Try$GT$::branch::hd54a78882c11ba19+0x18>
80005112: a009         	j	0x80005114 <_$LT$core..result..Result$LT$T$C$E$GT$$u20$as$u20$core..ops..try_trait..Try$GT$::branch::hd54a78882c11ba19+0x10>
80005114: 4505         	li	a0, 0x1
80005116: 00a106a3     	sb	a0, 0xd(sp)
8000511a: a029         	j	0x80005124 <_$LT$core..result..Result$LT$T$C$E$GT$$u20$as$u20$core..ops..try_trait..Try$GT$::branch::hd54a78882c11ba19+0x20>
8000511c: 4501         	li	a0, 0x0
8000511e: 00a106a3     	sb	a0, 0xd(sp)
80005122: a009         	j	0x80005124 <_$LT$core..result..Result$LT$T$C$E$GT$$u20$as$u20$core..ops..try_trait..Try$GT$::branch::hd54a78882c11ba19+0x20>
80005124: 00d14503     	lbu	a0, 0xd(sp)
80005128: 0141         	addi	sp, sp, 0x10
8000512a: 8082         	ret

000000008000512c <core::char::methods::encode_utf8_raw::h4e57d02da68344a3>:
8000512c: 715d         	addi	sp, sp, -0x50
8000512e: e486         	sd	ra, 0x48(sp)
80005130: e032         	sd	a2, 0x0(sp)
80005132: e42e         	sd	a1, 0x8(sp)
80005134: 86aa         	mv	a3, a0
80005136: e836         	sd	a3, 0x10(sp)
80005138: d22a         	sw	a0, 0x24(sp)
8000513a: f42e         	sd	a1, 0x28(sp)
8000513c: f832         	sd	a2, 0x30(sp)
8000513e: 08000593     	li	a1, 0x80
80005142: 00b56863     	bltu	a0, a1, 0x80005152 <core::char::methods::encode_utf8_raw::h4e57d02da68344a3+0x26>
80005146: a009         	j	0x80005148 <core::char::methods::encode_utf8_raw::h4e57d02da68344a3+0x1c>
80005148: 6542         	ld	a0, 0x10(sp)
8000514a: 00b5551b     	srliw	a0, a0, 0xb
8000514e: c911         	beqz	a0, 0x80005162 <core::char::methods::encode_utf8_raw::h4e57d02da68344a3+0x36>
80005150: a021         	j	0x80005158 <core::char::methods::encode_utf8_raw::h4e57d02da68344a3+0x2c>
80005152: 4505         	li	a0, 0x1
80005154: ec2a         	sd	a0, 0x18(sp)
80005156: a839         	j	0x80005174 <core::char::methods::encode_utf8_raw::h4e57d02da68344a3+0x48>
80005158: 6542         	ld	a0, 0x10(sp)
8000515a: 0105551b     	srliw	a0, a0, 0x10
8000515e: c901         	beqz	a0, 0x8000516e <core::char::methods::encode_utf8_raw::h4e57d02da68344a3+0x42>
80005160: a021         	j	0x80005168 <core::char::methods::encode_utf8_raw::h4e57d02da68344a3+0x3c>
80005162: 4509         	li	a0, 0x2
80005164: ec2a         	sd	a0, 0x18(sp)
80005166: a039         	j	0x80005174 <core::char::methods::encode_utf8_raw::h4e57d02da68344a3+0x48>
80005168: 4511         	li	a0, 0x4
8000516a: ec2a         	sd	a0, 0x18(sp)
8000516c: a021         	j	0x80005174 <core::char::methods::encode_utf8_raw::h4e57d02da68344a3+0x48>
8000516e: 450d         	li	a0, 0x3
80005170: ec2a         	sd	a0, 0x18(sp)
80005172: a009         	j	0x80005174 <core::char::methods::encode_utf8_raw::h4e57d02da68344a3+0x48>
80005174: 6502         	ld	a0, 0x0(sp)
80005176: fc2a         	sd	a0, 0x38(sp)
80005178: 65e2         	ld	a1, 0x18(sp)
8000517a: 00b56d63     	bltu	a0, a1, 0x80005194 <core::char::methods::encode_utf8_raw::h4e57d02da68344a3+0x68>
8000517e: a009         	j	0x80005180 <core::char::methods::encode_utf8_raw::h4e57d02da68344a3+0x54>
80005180: 65a2         	ld	a1, 0x8(sp)
80005182: 6542         	ld	a0, 0x10(sp)
80005184: 2501         	sext.w	a0, a0
80005186: 00000097     	auipc	ra, 0x0
8000518a: 0cc080e7     	jalr	0xcc(ra) <core::char::methods::encode_utf8_raw_unchecked::h4e228eaee97138bd>
8000518e: 6522         	ld	a0, 0x8(sp)
80005190: e0aa         	sd	a0, 0x40(sp)
80005192: a829         	j	0x800051ac <.Lpcrel_hi0+0x10>
80005194: 6602         	ld	a2, 0x0(sp)
80005196: 6542         	ld	a0, 0x10(sp)
80005198: 65e2         	ld	a1, 0x18(sp)
8000519a: 2501         	sext.w	a0, a0

000000008000519c <.Lpcrel_hi0>:
8000519c: 00004697     	auipc	a3, 0x4
800051a0: 8e468693     	addi	a3, a3, -0x71c
800051a4: 00000097     	auipc	ra, 0x0
800051a8: 02c080e7     	jalr	0x2c(ra) <core::char::methods::encode_utf8_raw::do_panic::runtime::h76bda13f46b7c26c>
800051ac: 6522         	ld	a0, 0x8(sp)
800051ae: 66e2         	ld	a3, 0x18(sp)

00000000800051b0 <.Lpcrel_hi1>:
800051b0: 00004597     	auipc	a1, 0x4
800051b4: 8b858713     	addi	a4, a1, -0x748
800051b8: 4605         	li	a2, 0x1
800051ba: 85b2         	mv	a1, a2
800051bc: 00000097     	auipc	ra, 0x0
800051c0: d94080e7     	jalr	-0x26c(ra) <core::slice::raw::from_raw_parts_mut::precondition_check::h05a32f80e2f4cb35>
800051c4: a009         	j	0x800051c6 <.Lpcrel_hi1+0x16>
800051c6: 6522         	ld	a0, 0x8(sp)
800051c8: 65e2         	ld	a1, 0x18(sp)
800051ca: 60a6         	ld	ra, 0x48(sp)
800051cc: 6161         	addi	sp, sp, 0x50
800051ce: 8082         	ret

00000000800051d0 <core::char::methods::encode_utf8_raw::do_panic::runtime::h76bda13f46b7c26c>:
800051d0: 7115         	addi	sp, sp, -0xe0
800051d2: e036         	sd	a3, 0x0(sp)
800051d4: 86b2         	mv	a3, a2
800051d6: 6602         	ld	a2, 0x0(sp)
800051d8: e436         	sd	a3, 0x8(sp)
800051da: 86aa         	mv	a3, a0
800051dc: 6522         	ld	a0, 0x8(sp)
800051de: ca36         	sw	a3, 0x14(sp)
800051e0: ec2e         	sd	a1, 0x18(sp)
800051e2: f02a         	sd	a0, 0x20(sp)

00000000800051e4 <.Lpcrel_hi2>:
800051e4: 00004517     	auipc	a0, 0x4
800051e8: 8b450513     	addi	a0, a0, -0x74c
800051ec: fd2a         	sd	a0, 0xb8(sp)
800051ee: 082c         	addi	a1, sp, 0x18
800051f0: e1ae         	sd	a1, 0xc0(sp)
800051f2: 0858         	addi	a4, sp, 0x14
800051f4: e5ba         	sd	a4, 0xc8(sp)
800051f6: 1014         	addi	a3, sp, 0x20
800051f8: e9b6         	sd	a3, 0xd0(sp)
800051fa: e52e         	sd	a1, 0x88(sp)

00000000800051fc <.Lpcrel_hi3>:
800051fc: 00001597     	auipc	a1, 0x1
80005200: b8058593     	addi	a1, a1, -0x480
80005204: e92e         	sd	a1, 0x90(sp)
80005206: 67ca         	ld	a5, 0x90(sp)
80005208: f0be         	sd	a5, 0x60(sp)
8000520a: 67aa         	ld	a5, 0x88(sp)
8000520c: ecbe         	sd	a5, 0x58(sp)
8000520e: ed3a         	sd	a4, 0x98(sp)

0000000080005210 <.Lpcrel_hi4>:
80005210: 00001717     	auipc	a4, 0x1
80005214: c1070713     	addi	a4, a4, -0x3f0
80005218: f13a         	sd	a4, 0xa0(sp)
8000521a: 770a         	ld	a4, 0xa0(sp)
8000521c: f8ba         	sd	a4, 0x70(sp)
8000521e: 676a         	ld	a4, 0x98(sp)
80005220: f4ba         	sd	a4, 0x68(sp)
80005222: f536         	sd	a3, 0xa8(sp)
80005224: f92e         	sd	a1, 0xb0(sp)
80005226: 75ca         	ld	a1, 0xb0(sp)
80005228: e12e         	sd	a1, 0x80(sp)
8000522a: 75aa         	ld	a1, 0xa8(sp)
8000522c: fcae         	sd	a1, 0x78(sp)
8000522e: 7586         	ld	a1, 0x60(sp)
80005230: f82e         	sd	a1, 0x30(sp)
80005232: 65e6         	ld	a1, 0x58(sp)
80005234: f42e         	sd	a1, 0x28(sp)
80005236: 75c6         	ld	a1, 0x70(sp)
80005238: e0ae         	sd	a1, 0x40(sp)
8000523a: 75a6         	ld	a1, 0x68(sp)
8000523c: fc2e         	sd	a1, 0x38(sp)
8000523e: 658a         	ld	a1, 0x80(sp)
80005240: e8ae         	sd	a1, 0x50(sp)
80005242: 75e6         	ld	a1, 0x78(sp)
80005244: e4ae         	sd	a1, 0x48(sp)
80005246: 102c         	addi	a1, sp, 0x28
80005248: edae         	sd	a1, 0xd8(sp)
8000524a: 00001097     	auipc	ra, 0x1
8000524e: 56e080e7     	jalr	0x56e(ra) <core::panicking::panic_fmt::h767dc8ac4dd44648>

0000000080005252 <core::char::methods::encode_utf8_raw_unchecked::h4e228eaee97138bd>:
80005252: 7119         	addi	sp, sp, -0x80
80005254: f02e         	sd	a1, 0x20(sp)
80005256: 862a         	mv	a2, a0
80005258: f432         	sd	a2, 0x28(sp)
8000525a: de2a         	sw	a0, 0x3c(sp)
8000525c: e0ae         	sd	a1, 0x40(sp)
8000525e: 4585         	li	a1, 0x1
80005260: e4ae         	sd	a1, 0x48(sp)
80005262: e8ae         	sd	a1, 0x50(sp)
80005264: ecae         	sd	a1, 0x58(sp)
80005266: 4589         	li	a1, 0x2
80005268: f0ae         	sd	a1, 0x60(sp)
8000526a: f4ae         	sd	a1, 0x68(sp)
8000526c: 458d         	li	a1, 0x3
8000526e: f8ae         	sd	a1, 0x70(sp)
80005270: 08000593     	li	a1, 0x80
80005274: 00b56863     	bltu	a0, a1, 0x80005284 <core::char::methods::encode_utf8_raw_unchecked::h4e228eaee97138bd+0x32>
80005278: a009         	j	0x8000527a <core::char::methods::encode_utf8_raw_unchecked::h4e228eaee97138bd+0x28>
8000527a: 7522         	ld	a0, 0x28(sp)
8000527c: 00b5551b     	srliw	a0, a0, 0xb
80005280: cd11         	beqz	a0, 0x8000529c <core::char::methods::encode_utf8_raw_unchecked::h4e228eaee97138bd+0x4a>
80005282: a801         	j	0x80005292 <core::char::methods::encode_utf8_raw_unchecked::h4e228eaee97138bd+0x40>
80005284: 7522         	ld	a0, 0x28(sp)
80005286: 7582         	ld	a1, 0x20(sp)
80005288: 4605         	li	a2, 0x1
8000528a: f832         	sd	a2, 0x30(sp)
8000528c: 00a58023     	sb	a0, 0x0(a1)
80005290: a049         	j	0x80005312 <core::char::methods::encode_utf8_raw_unchecked::h4e228eaee97138bd+0xc0>
80005292: 7522         	ld	a0, 0x28(sp)
80005294: 0105551b     	srliw	a0, a0, 0x10
80005298: c901         	beqz	a0, 0x800052a8 <core::char::methods::encode_utf8_raw_unchecked::h4e228eaee97138bd+0x56>
8000529a: a021         	j	0x800052a2 <core::char::methods::encode_utf8_raw_unchecked::h4e228eaee97138bd+0x50>
8000529c: 4509         	li	a0, 0x2
8000529e: f82a         	sd	a0, 0x30(sp)
800052a0: a039         	j	0x800052ae <core::char::methods::encode_utf8_raw_unchecked::h4e228eaee97138bd+0x5c>
800052a2: 4511         	li	a0, 0x4
800052a4: f82a         	sd	a0, 0x30(sp)
800052a6: a021         	j	0x800052ae <core::char::methods::encode_utf8_raw_unchecked::h4e228eaee97138bd+0x5c>
800052a8: 450d         	li	a0, 0x3
800052aa: f82a         	sd	a0, 0x30(sp)
800052ac: a009         	j	0x800052ae <core::char::methods::encode_utf8_raw_unchecked::h4e228eaee97138bd+0x5c>
800052ae: 7522         	ld	a0, 0x28(sp)
800052b0: 03f57593     	andi	a1, a0, 0x3f
800052b4: f805859b     	addiw	a1, a1, -0x80
800052b8: e02e         	sd	a1, 0x0(sp)
800052ba: 06b10e23     	sb	a1, 0x7c(sp)
800052be: 03451593     	slli	a1, a0, 0x34
800052c2: 91e9         	srli	a1, a1, 0x3a
800052c4: f805859b     	addiw	a1, a1, -0x80
800052c8: e42e         	sd	a1, 0x8(sp)
800052ca: 06b10ea3     	sb	a1, 0x7d(sp)
800052ce: 02e51593     	slli	a1, a0, 0x2e
800052d2: 91e9         	srli	a1, a1, 0x3a
800052d4: f805859b     	addiw	a1, a1, -0x80
800052d8: e82e         	sd	a1, 0x10(sp)
800052da: 06b10f23     	sb	a1, 0x7e(sp)
800052de: 8149         	srli	a0, a0, 0x12
800052e0: ff056513     	ori	a0, a0, -0x10
800052e4: ec2a         	sd	a0, 0x18(sp)
800052e6: 06a10fa3     	sb	a0, 0x7f(sp)
800052ea: 7542         	ld	a0, 0x30(sp)
800052ec: 4589         	li	a1, 0x2
800052ee: 00b51d63     	bne	a0, a1, 0x80005308 <core::char::methods::encode_utf8_raw_unchecked::h4e228eaee97138bd+0xb6>
800052f2: a009         	j	0x800052f4 <core::char::methods::encode_utf8_raw_unchecked::h4e228eaee97138bd+0xa2>
800052f4: 6502         	ld	a0, 0x0(sp)
800052f6: 7582         	ld	a1, 0x20(sp)
800052f8: 6622         	ld	a2, 0x8(sp)
800052fa: 0c066613     	ori	a2, a2, 0xc0
800052fe: 00c58023     	sb	a2, 0x0(a1)
80005302: 00a580a3     	sb	a0, 0x1(a1)
80005306: a031         	j	0x80005312 <core::char::methods::encode_utf8_raw_unchecked::h4e228eaee97138bd+0xc0>
80005308: 7542         	ld	a0, 0x30(sp)
8000530a: 458d         	li	a1, 0x3
8000530c: 00b50463     	beq	a0, a1, 0x80005314 <core::char::methods::encode_utf8_raw_unchecked::h4e228eaee97138bd+0xc2>
80005310: a839         	j	0x8000532e <core::char::methods::encode_utf8_raw_unchecked::h4e228eaee97138bd+0xdc>
80005312: a825         	j	0x8000534a <core::char::methods::encode_utf8_raw_unchecked::h4e228eaee97138bd+0xf8>
80005314: 6502         	ld	a0, 0x0(sp)
80005316: 7582         	ld	a1, 0x20(sp)
80005318: 6622         	ld	a2, 0x8(sp)
8000531a: 66c2         	ld	a3, 0x10(sp)
8000531c: 0e06e693     	ori	a3, a3, 0xe0
80005320: 00d58023     	sb	a3, 0x0(a1)
80005324: 00c580a3     	sb	a2, 0x1(a1)
80005328: 00a58123     	sb	a0, 0x2(a1)
8000532c: b7dd         	j	0x80005312 <core::char::methods::encode_utf8_raw_unchecked::h4e228eaee97138bd+0xc0>
8000532e: 6502         	ld	a0, 0x0(sp)
80005330: 7582         	ld	a1, 0x20(sp)
80005332: 6622         	ld	a2, 0x8(sp)
80005334: 66c2         	ld	a3, 0x10(sp)
80005336: 6762         	ld	a4, 0x18(sp)
80005338: 00e58023     	sb	a4, 0x0(a1)
8000533c: 00d580a3     	sb	a3, 0x1(a1)
80005340: 00c58123     	sb	a2, 0x2(a1)
80005344: 00a581a3     	sb	a0, 0x3(a1)
80005348: a009         	j	0x8000534a <core::char::methods::encode_utf8_raw_unchecked::h4e228eaee97138bd+0xf8>
8000534a: 6109         	addi	sp, sp, 0x80
8000534c: 8082         	ret

000000008000534e <core::ub_checks::maybe_is_nonoverlapping::runtime::h00c5210176ebef0e>:
8000534e: 7119         	addi	sp, sp, -0x80
80005350: fc2a         	sd	a0, 0x38(sp)
80005352: e0ae         	sd	a1, 0x40(sp)
80005354: e4b2         	sd	a2, 0x48(sp)
80005356: e8b6         	sd	a3, 0x50(sp)
80005358: 872a         	mv	a4, a0
8000535a: e43a         	sd	a4, 0x8(sp)
8000535c: ecaa         	sd	a0, 0x58(sp)
8000535e: 852e         	mv	a0, a1
80005360: e82a         	sd	a0, 0x10(sp)
80005362: f0ae         	sd	a1, 0x60(sp)
80005364: 02d605b3     	mul	a1, a2, a3
80005368: ec2e         	sd	a1, 0x18(sp)
8000536a: 02d63533     	mulhu	a0, a2, a3
8000536e: 00a03633     	snez	a2, a0
80005372: 06c107a3     	sb	a2, 0x6f(sp)
80005376: f8ae         	sd	a1, 0x70(sp)
80005378: ed11         	bnez	a0, 0x80005394 <.Lpcrel_hi0>
8000537a: a009         	j	0x8000537c <core::ub_checks::maybe_is_nonoverlapping::runtime::h00c5210176ebef0e+0x2e>
8000537c: 6522         	ld	a0, 0x8(sp)
8000537e: 65c2         	ld	a1, 0x10(sp)
80005380: 6662         	ld	a2, 0x18(sp)
80005382: f432         	sd	a2, 0x28(sp)
80005384: 4605         	li	a2, 0x1
80005386: f032         	sd	a2, 0x20(sp)
80005388: 7622         	ld	a2, 0x28(sp)
8000538a: e032         	sd	a2, 0x0(sp)
8000538c: fcb2         	sd	a2, 0x78(sp)
8000538e: 02b56263     	bltu	a0, a1, 0x800053b2 <.Lpcrel_hi0+0x1e>
80005392: a819         	j	0x800053a8 <.Lpcrel_hi0+0x14>

0000000080005394 <.Lpcrel_hi0>:
80005394: 00003517     	auipc	a0, 0x3
80005398: 74b50513     	addi	a0, a0, 0x74b
8000539c: 03d00593     	li	a1, 0x3d
800053a0: 00001097     	auipc	ra, 0x1
800053a4: 32e080e7     	jalr	0x32e(ra) <core::panicking::panic_nounwind::hf19a354d0b2d9097>
800053a8: 6522         	ld	a0, 0x8(sp)
800053aa: 65c2         	ld	a1, 0x10(sp)
800053ac: 8d0d         	sub	a0, a0, a1
800053ae: f82a         	sd	a0, 0x30(sp)
800053b0: a031         	j	0x800053bc <.Lpcrel_hi0+0x28>
800053b2: 6542         	ld	a0, 0x10(sp)
800053b4: 65a2         	ld	a1, 0x8(sp)
800053b6: 8d0d         	sub	a0, a0, a1
800053b8: f82a         	sd	a0, 0x30(sp)
800053ba: a009         	j	0x800053bc <.Lpcrel_hi0+0x28>
800053bc: 6582         	ld	a1, 0x0(sp)
800053be: 7542         	ld	a0, 0x30(sp)
800053c0: 00b53533     	sltu	a0, a0, a1
800053c4: 00154513     	xori	a0, a0, 0x1
800053c8: 6109         	addi	sp, sp, 0x80
800053ca: 8082         	ret

00000000800053cc <core::fmt::Write::write_char::hc569abc3973dffac>:
800053cc: 711d         	addi	sp, sp, -0x60
800053ce: ec86         	sd	ra, 0x58(sp)
800053d0: e42e         	sd	a1, 0x8(sp)
800053d2: 85aa         	mv	a1, a0
800053d4: 6522         	ld	a0, 0x8(sp)
800053d6: e82e         	sd	a1, 0x10(sp)
800053d8: f42e         	sd	a1, 0x28(sp)
800053da: da2a         	sw	a0, 0x34(sp)
800053dc: 4581         	li	a1, 0x0
800053de: d22e         	sw	a1, 0x24(sp)
800053e0: 104c         	addi	a1, sp, 0x24
800053e2: fc2e         	sd	a1, 0x38(sp)
800053e4: 4611         	li	a2, 0x4
800053e6: e0b2         	sd	a2, 0x40(sp)
800053e8: 00000097     	auipc	ra, 0x0
800053ec: d44080e7     	jalr	-0x2bc(ra) <core::char::methods::encode_utf8_raw::h4e57d02da68344a3>
800053f0: 862a         	mv	a2, a0
800053f2: 6542         	ld	a0, 0x10(sp)
800053f4: ec32         	sd	a2, 0x18(sp)
800053f6: 862e         	mv	a2, a1
800053f8: 65e2         	ld	a1, 0x18(sp)
800053fa: e4ae         	sd	a1, 0x48(sp)
800053fc: e8b2         	sd	a2, 0x50(sp)
800053fe: 00000097     	auipc	ra, 0x0
80005402: c9a080e7     	jalr	-0x366(ra) <_$LT$lab4_kernel_task4..console..KernelConsole$u20$as$u20$core..fmt..Write$GT$::write_str::h552f87a3d17a2f8a>
80005406: 60e6         	ld	ra, 0x58(sp)
80005408: 6125         	addi	sp, sp, 0x60
8000540a: 8082         	ret

000000008000540c <core::fmt::Write::write_fmt::ha75f983addaf25bf>:
8000540c: 1101         	addi	sp, sp, -0x20
8000540e: ec06         	sd	ra, 0x18(sp)
80005410: e02a         	sd	a0, 0x0(sp)
80005412: e42e         	sd	a1, 0x8(sp)
80005414: e832         	sd	a2, 0x10(sp)
80005416: 00000097     	auipc	ra, 0x0
8000541a: 00e080e7     	jalr	0xe(ra) <_$LT$$RF$mut$u20$W$u20$as$u20$core..fmt..Write..write_fmt..SpecWriteFmt$GT$::spec_write_fmt::hd4b5d8078f202662>
8000541e: 60e2         	ld	ra, 0x18(sp)
80005420: 6105         	addi	sp, sp, 0x20
80005422: 8082         	ret

0000000080005424 <_$LT$$RF$mut$u20$W$u20$as$u20$core..fmt..Write..write_fmt..SpecWriteFmt$GT$::spec_write_fmt::hd4b5d8078f202662>:
80005424: 715d         	addi	sp, sp, -0x50
80005426: e486         	sd	ra, 0x48(sp)
80005428: e02a         	sd	a0, 0x0(sp)
8000542a: e42e         	sd	a1, 0x8(sp)
8000542c: e832         	sd	a2, 0x10(sp)
8000542e: f82a         	sd	a0, 0x30(sp)
80005430: 0028         	addi	a0, sp, 0x8
80005432: 00000097     	auipc	ra, 0x0
80005436: 328080e7     	jalr	0x328(ra) <core::fmt::Arguments::as_statically_known_str::h9b44733c2a715fff>
8000543a: f02a         	sd	a0, 0x20(sp)
8000543c: f42e         	sd	a1, 0x28(sp)
8000543e: 7502         	ld	a0, 0x20(sp)
80005440: cd11         	beqz	a0, 0x8000545c <_$LT$$RF$mut$u20$W$u20$as$u20$core..fmt..Write..write_fmt..SpecWriteFmt$GT$::spec_write_fmt::hd4b5d8078f202662+0x38>
80005442: a009         	j	0x80005444 <_$LT$$RF$mut$u20$W$u20$as$u20$core..fmt..Write..write_fmt..SpecWriteFmt$GT$::spec_write_fmt::hd4b5d8078f202662+0x20>
80005444: 6502         	ld	a0, 0x0(sp)
80005446: 7582         	ld	a1, 0x20(sp)
80005448: 7622         	ld	a2, 0x28(sp)
8000544a: fc2e         	sd	a1, 0x38(sp)
8000544c: e0b2         	sd	a2, 0x40(sp)
8000544e: 00000097     	auipc	ra, 0x0
80005452: c4a080e7     	jalr	-0x3b6(ra) <_$LT$lab4_kernel_task4..console..KernelConsole$u20$as$u20$core..fmt..Write$GT$::write_str::h552f87a3d17a2f8a>
80005456: 00a10fa3     	sb	a0, 0x1f(sp)
8000545a: a839         	j	0x80005478 <.Lpcrel_hi0+0x16>
8000545c: 6502         	ld	a0, 0x0(sp)
8000545e: 6622         	ld	a2, 0x8(sp)
80005460: 66c2         	ld	a3, 0x10(sp)

0000000080005462 <.Lpcrel_hi0>:
80005462: 00003597     	auipc	a1, 0x3
80005466: 6be58593     	addi	a1, a1, 0x6be
8000546a: 00001097     	auipc	ra, 0x1
8000546e: a12080e7     	jalr	-0x5ee(ra) <core::fmt::write::hfd17e9e8e823b619>
80005472: 00a10fa3     	sb	a0, 0x1f(sp)
80005476: a009         	j	0x80005478 <.Lpcrel_hi0+0x16>
80005478: 01f14503     	lbu	a0, 0x1f(sp)
8000547c: 60a6         	ld	ra, 0x48(sp)
8000547e: 6161         	addi	sp, sp, 0x50
80005480: 8082         	ret

0000000080005482 <core::slice::raw::from_raw_parts::h21e4093a22392df5>:
80005482: 7179         	addi	sp, sp, -0x30
80005484: f406         	sd	ra, 0x28(sp)
80005486: e032         	sd	a2, 0x0(sp)
80005488: e42e         	sd	a1, 0x8(sp)
8000548a: e82a         	sd	a0, 0x10(sp)
8000548c: ec2a         	sd	a0, 0x18(sp)
8000548e: f02e         	sd	a1, 0x20(sp)
80005490: a009         	j	0x80005492 <core::slice::raw::from_raw_parts::h21e4093a22392df5+0x10>
80005492: 6702         	ld	a4, 0x0(sp)
80005494: 66a2         	ld	a3, 0x8(sp)
80005496: 6542         	ld	a0, 0x10(sp)
80005498: 4605         	li	a2, 0x1
8000549a: 85b2         	mv	a1, a2
8000549c: 00000097     	auipc	ra, 0x0
800054a0: a12080e7     	jalr	-0x5ee(ra) <core::slice::raw::from_raw_parts::precondition_check::h3775922c9007ca3f>
800054a4: a009         	j	0x800054a6 <core::slice::raw::from_raw_parts::h21e4093a22392df5+0x24>
800054a6: 65a2         	ld	a1, 0x8(sp)
800054a8: 6542         	ld	a0, 0x10(sp)
800054aa: 70a2         	ld	ra, 0x28(sp)
800054ac: 6145         	addi	sp, sp, 0x30
800054ae: 8082         	ret

00000000800054b0 <core::array::iter::_$LT$impl$u20$core..iter..traits..collect..IntoIterator$u20$for$u20$$u5b$T$u3b$$u20$N$u5d$$GT$::into_iter::h3288de4d24124d53>:
800054b0: 7151         	addi	sp, sp, -0xf0
800054b2: f586         	sd	ra, 0xe8(sp)
800054b4: e42e         	sd	a1, 0x8(sp)
800054b6: 85aa         	mv	a1, a0
800054b8: 6522         	ld	a0, 0x8(sp)
800054ba: e82e         	sd	a1, 0x10(sp)
800054bc: 510c         	lw	a1, 0x20(a0)
800054be: dc2e         	sw	a1, 0x38(sp)
800054c0: 01856603     	lwu	a2, 0x18(a0)
800054c4: 01c56583     	lwu	a1, 0x1c(a0)
800054c8: 1582         	slli	a1, a1, 0x20
800054ca: 8dd1         	or	a1, a1, a2
800054cc: f82e         	sd	a1, 0x30(sp)
800054ce: 01056603     	lwu	a2, 0x10(a0)
800054d2: 01456583     	lwu	a1, 0x14(a0)
800054d6: 1582         	slli	a1, a1, 0x20
800054d8: 8dd1         	or	a1, a1, a2
800054da: f42e         	sd	a1, 0x28(sp)
800054dc: 00856603     	lwu	a2, 0x8(a0)
800054e0: 00c56583     	lwu	a1, 0xc(a0)
800054e4: 1582         	slli	a1, a1, 0x20
800054e6: 8dd1         	or	a1, a1, a2
800054e8: f02e         	sd	a1, 0x20(sp)
800054ea: 00056583     	lwu	a1, 0x0(a0)
800054ee: 00456503     	lwu	a0, 0x4(a0)
800054f2: 1502         	slli	a0, a0, 0x20
800054f4: 8d4d         	or	a0, a0, a1
800054f6: ec2a         	sd	a0, 0x18(sp)
800054f8: 4501         	li	a0, 0x0
800054fa: e0aa         	sd	a0, 0x40(sp)
800054fc: 4525         	li	a0, 0x9
800054fe: e4aa         	sd	a0, 0x48(sp)
80005500: 0888         	addi	a0, sp, 0x50
80005502: 082c         	addi	a1, sp, 0x18
80005504: 02400613     	li	a2, 0x24
80005508: 00001097     	auipc	ra, 0x1
8000550c: 41a080e7     	jalr	0x41a(ra) <memcpy>
80005510: 65c2         	ld	a1, 0x10(sp)
80005512: 7546         	ld	a0, 0x70(sp)
80005514: f1aa         	sd	a0, 0xe0(sp)
80005516: 7526         	ld	a0, 0x68(sp)
80005518: edaa         	sd	a0, 0xd8(sp)
8000551a: 7506         	ld	a0, 0x60(sp)
8000551c: e9aa         	sd	a0, 0xd0(sp)
8000551e: 6566         	ld	a0, 0x58(sp)
80005520: e5aa         	sd	a0, 0xc8(sp)
80005522: 6546         	ld	a0, 0x50(sp)
80005524: e1aa         	sd	a0, 0xc0(sp)
80005526: 6526         	ld	a0, 0x48(sp)
80005528: fd2a         	sd	a0, 0xb8(sp)
8000552a: 6506         	ld	a0, 0x40(sp)
8000552c: f92a         	sd	a0, 0xb0(sp)
8000552e: 750e         	ld	a0, 0xe0(sp)
80005530: f52a         	sd	a0, 0xa8(sp)
80005532: 656e         	ld	a0, 0xd8(sp)
80005534: f12a         	sd	a0, 0xa0(sp)
80005536: 654e         	ld	a0, 0xd0(sp)
80005538: ed2a         	sd	a0, 0x98(sp)
8000553a: 652e         	ld	a0, 0xc8(sp)
8000553c: e92a         	sd	a0, 0x90(sp)
8000553e: 650e         	ld	a0, 0xc0(sp)
80005540: e52a         	sd	a0, 0x88(sp)
80005542: 756a         	ld	a0, 0xb8(sp)
80005544: e12a         	sd	a0, 0x80(sp)
80005546: 754a         	ld	a0, 0xb0(sp)
80005548: fcaa         	sd	a0, 0x78(sp)
8000554a: 752a         	ld	a0, 0xa8(sp)
8000554c: f988         	sd	a0, 0x30(a1)
8000554e: 750a         	ld	a0, 0xa0(sp)
80005550: f588         	sd	a0, 0x28(a1)
80005552: 656a         	ld	a0, 0x98(sp)
80005554: f188         	sd	a0, 0x20(a1)
80005556: 654a         	ld	a0, 0x90(sp)
80005558: ed88         	sd	a0, 0x18(a1)
8000555a: 652a         	ld	a0, 0x88(sp)
8000555c: e988         	sd	a0, 0x10(a1)
8000555e: 650a         	ld	a0, 0x80(sp)
80005560: e588         	sd	a0, 0x8(a1)
80005562: 7566         	ld	a0, 0x78(sp)
80005564: e188         	sd	a0, 0x0(a1)
80005566: 70ae         	ld	ra, 0xe8(sp)
80005568: 616d         	addi	sp, sp, 0xf0
8000556a: 8082         	ret

000000008000556c <_$LT$core..array..iter..IntoIter$LT$T$C$_$GT$$u20$as$u20$core..iter..traits..iterator..Iterator$GT$::next::h019a5524c96af906>:
8000556c: 1141         	addi	sp, sp, -0x10
8000556e: e406         	sd	ra, 0x8(sp)
80005570: e02a         	sd	a0, 0x0(sp)
80005572: 45a5         	li	a1, 0x9
80005574: ffffb097     	auipc	ra, 0xffffb
80005578: ad8080e7     	jalr	-0x528(ra) <core::array::iter::iter_inner::PolymorphicIter$LT$$u5b$core..mem..maybe_uninit..MaybeUninit$LT$T$GT$$u5d$$GT$::next::h48312508b835d441>
8000557c: 60a2         	ld	ra, 0x8(sp)
8000557e: 0141         	addi	sp, sp, 0x10
80005580: 8082         	ret

0000000080005582 <_$LT$I$u20$as$u20$core..iter..traits..collect..IntoIterator$GT$::into_iter::hcdd4559c254a0282>:
80005582: 1141         	addi	sp, sp, -0x10
80005584: e02a         	sd	a0, 0x0(sp)
80005586: e42e         	sd	a1, 0x8(sp)
80005588: 0141         	addi	sp, sp, 0x10
8000558a: 8082         	ret

000000008000558c <core::ptr::write_bytes::precondition_check::h92dea8b33c0faf74>:
8000558c: 715d         	addi	sp, sp, -0x50
8000558e: e486         	sd	ra, 0x48(sp)
80005590: e436         	sd	a3, 0x8(sp)
80005592: e82a         	sd	a0, 0x10(sp)
80005594: 86b2         	mv	a3, a2
80005596: ec36         	sd	a3, 0x18(sp)
80005598: f02a         	sd	a0, 0x20(sp)
8000559a: f42e         	sd	a1, 0x28(sp)
8000559c: 02c10ba3     	sb	a2, 0x37(sp)
800055a0: 00000097     	auipc	ra, 0x0
800055a4: 800080e7     	jalr	-0x800(ra) <core::ptr::const_ptr::_$LT$impl$u20$$BP$const$u20$T$GT$::is_aligned_to::h0e2235905ead403c>
800055a8: e119         	bnez	a0, 0x800055ae <core::ptr::write_bytes::precondition_check::h92dea8b33c0faf74+0x22>
800055aa: a009         	j	0x800055ac <core::ptr::write_bytes::precondition_check::h92dea8b33c0faf74+0x20>
800055ac: a029         	j	0x800055b6 <core::ptr::write_bytes::precondition_check::h92dea8b33c0faf74+0x2a>
800055ae: 6562         	ld	a0, 0x18(sp)
800055b0: 8905         	andi	a0, a0, 0x1
800055b2: e50d         	bnez	a0, 0x800055dc <.Lpcrel_hi0+0x24>
800055b4: a00d         	j	0x800055d6 <.Lpcrel_hi0+0x1e>
800055b6: 66a2         	ld	a3, 0x8(sp)

00000000800055b8 <.Lpcrel_hi0>:
800055b8: 00003517     	auipc	a0, 0x3
800055bc: 59850513     	addi	a0, a0, 0x598
800055c0: fc2a         	sd	a0, 0x38(sp)
800055c2: 0e400593     	li	a1, 0xe4
800055c6: e0ae         	sd	a1, 0x40(sp)
800055c8: 1c900593     	li	a1, 0x1c9
800055cc: 4601         	li	a2, 0x0
800055ce: 00001097     	auipc	ra, 0x1
800055d2: 15a080e7     	jalr	0x15a(ra) <core::panicking::panic_nounwind_fmt::h2e018e50a8d3bc73>
800055d6: 6542         	ld	a0, 0x10(sp)
800055d8: e119         	bnez	a0, 0x800055de <.Lpcrel_hi0+0x26>
800055da: bff1         	j	0x800055b6 <core::ptr::write_bytes::precondition_check::h92dea8b33c0faf74+0x2a>
800055dc: a009         	j	0x800055de <.Lpcrel_hi0+0x26>
800055de: 60a6         	ld	ra, 0x48(sp)
800055e0: 6161         	addi	sp, sp, 0x50
800055e2: 8082         	ret

00000000800055e4 <core::ptr::write_volatile::precondition_check::hb0338801c115689f>:
800055e4: 7139         	addi	sp, sp, -0x40
800055e6: fc06         	sd	ra, 0x38(sp)
800055e8: e432         	sd	a2, 0x8(sp)
800055ea: e82a         	sd	a0, 0x10(sp)
800055ec: ec2e         	sd	a1, 0x18(sp)
800055ee: f02a         	sd	a0, 0x20(sp)
800055f0: fffff097     	auipc	ra, 0xfffff
800055f4: 7b0080e7     	jalr	0x7b0(ra) <core::ptr::const_ptr::_$LT$impl$u20$$BP$const$u20$T$GT$::is_aligned_to::h0e2235905ead403c>
800055f8: e115         	bnez	a0, 0x8000561c <.Lpcrel_hi1+0x1e>
800055fa: a009         	j	0x800055fc <core::ptr::write_volatile::precondition_check::hb0338801c115689f+0x18>
800055fc: 66a2         	ld	a3, 0x8(sp)

00000000800055fe <.Lpcrel_hi1>:
800055fe: 00003517     	auipc	a0, 0x3
80005602: 63650513     	addi	a0, a0, 0x636
80005606: f42a         	sd	a0, 0x28(sp)
80005608: 0d700593     	li	a1, 0xd7
8000560c: f82e         	sd	a1, 0x30(sp)
8000560e: 1af00593     	li	a1, 0x1af
80005612: 4601         	li	a2, 0x0
80005614: 00001097     	auipc	ra, 0x1
80005618: 114080e7     	jalr	0x114(ra) <core::panicking::panic_nounwind_fmt::h2e018e50a8d3bc73>
8000561c: 70e2         	ld	ra, 0x38(sp)
8000561e: 6121         	addi	sp, sp, 0x40
80005620: 8082         	ret

0000000080005622 <core::ptr::copy_nonoverlapping::precondition_check::he6f33af4add752dd>:
80005622: 7175         	addi	sp, sp, -0x90
80005624: e506         	sd	ra, 0x88(sp)
80005626: e43e         	sd	a5, 0x8(sp)
80005628: e83a         	sd	a4, 0x10(sp)
8000562a: ec36         	sd	a3, 0x18(sp)
8000562c: f032         	sd	a2, 0x20(sp)
8000562e: f42e         	sd	a1, 0x28(sp)
80005630: f82a         	sd	a0, 0x30(sp)
80005632: e0aa         	sd	a0, 0x40(sp)
80005634: e4ae         	sd	a1, 0x48(sp)
80005636: e8b2         	sd	a2, 0x50(sp)
80005638: ecb6         	sd	a3, 0x58(sp)
8000563a: f0ba         	sd	a4, 0x60(sp)
8000563c: e711         	bnez	a4, 0x80005648 <core::ptr::copy_nonoverlapping::precondition_check::he6f33af4add752dd+0x26>
8000563e: a009         	j	0x80005640 <core::ptr::copy_nonoverlapping::precondition_check::he6f33af4add752dd+0x1e>
80005640: 4505         	li	a0, 0x1
80005642: 02a10fa3     	sb	a0, 0x3f(sp)
80005646: a039         	j	0x80005654 <core::ptr::copy_nonoverlapping::precondition_check::he6f33af4add752dd+0x32>
80005648: 7502         	ld	a0, 0x20(sp)
8000564a: 00153513     	seqz	a0, a0
8000564e: 02a10fa3     	sb	a0, 0x3f(sp)
80005652: a009         	j	0x80005654 <core::ptr::copy_nonoverlapping::precondition_check::he6f33af4add752dd+0x32>
80005654: 65e2         	ld	a1, 0x18(sp)
80005656: 7542         	ld	a0, 0x30(sp)
80005658: 03f14603     	lbu	a2, 0x3f(sp)
8000565c: e032         	sd	a2, 0x0(sp)
8000565e: 06c107a3     	sb	a2, 0x6f(sp)
80005662: fffff097     	auipc	ra, 0xfffff
80005666: 73e080e7     	jalr	0x73e(ra) <core::ptr::const_ptr::_$LT$impl$u20$$BP$const$u20$T$GT$::is_aligned_to::h0e2235905ead403c>
8000566a: e119         	bnez	a0, 0x80005670 <core::ptr::copy_nonoverlapping::precondition_check::he6f33af4add752dd+0x4e>
8000566c: a009         	j	0x8000566e <core::ptr::copy_nonoverlapping::precondition_check::he6f33af4add752dd+0x4c>
8000566e: a029         	j	0x80005678 <core::ptr::copy_nonoverlapping::precondition_check::he6f33af4add752dd+0x56>
80005670: 6502         	ld	a0, 0x0(sp)
80005672: 8905         	andi	a0, a0, 0x1
80005674: e511         	bnez	a0, 0x80005680 <core::ptr::copy_nonoverlapping::precondition_check::he6f33af4add752dd+0x5e>
80005676: a011         	j	0x8000567a <core::ptr::copy_nonoverlapping::precondition_check::he6f33af4add752dd+0x58>
80005678: a831         	j	0x80005694 <core::ptr::copy_nonoverlapping::precondition_check::he6f33af4add752dd+0x72>
8000567a: 7542         	ld	a0, 0x30(sp)
8000567c: e119         	bnez	a0, 0x80005682 <core::ptr::copy_nonoverlapping::precondition_check::he6f33af4add752dd+0x60>
8000567e: bfed         	j	0x80005678 <core::ptr::copy_nonoverlapping::precondition_check::he6f33af4add752dd+0x56>
80005680: a009         	j	0x80005682 <core::ptr::copy_nonoverlapping::precondition_check::he6f33af4add752dd+0x60>
80005682: 65e2         	ld	a1, 0x18(sp)
80005684: 7522         	ld	a0, 0x28(sp)
80005686: f8aa         	sd	a0, 0x70(sp)
80005688: fffff097     	auipc	ra, 0xfffff
8000568c: 718080e7     	jalr	0x718(ra) <core::ptr::const_ptr::_$LT$impl$u20$$BP$const$u20$T$GT$::is_aligned_to::h0e2235905ead403c>
80005690: e501         	bnez	a0, 0x80005698 <core::ptr::copy_nonoverlapping::precondition_check::he6f33af4add752dd+0x76>
80005692: a011         	j	0x80005696 <core::ptr::copy_nonoverlapping::precondition_check::he6f33af4add752dd+0x74>
80005694: a035         	j	0x800056c0 <core::ptr::copy_nonoverlapping::precondition_check::he6f33af4add752dd+0x9e>
80005696: a031         	j	0x800056a2 <core::ptr::copy_nonoverlapping::precondition_check::he6f33af4add752dd+0x80>
80005698: 03f14503     	lbu	a0, 0x3f(sp)
8000569c: 8905         	andi	a0, a0, 0x1
8000569e: e511         	bnez	a0, 0x800056aa <core::ptr::copy_nonoverlapping::precondition_check::he6f33af4add752dd+0x88>
800056a0: a011         	j	0x800056a4 <core::ptr::copy_nonoverlapping::precondition_check::he6f33af4add752dd+0x82>
800056a2: bfcd         	j	0x80005694 <core::ptr::copy_nonoverlapping::precondition_check::he6f33af4add752dd+0x72>
800056a4: 7522         	ld	a0, 0x28(sp)
800056a6: e119         	bnez	a0, 0x800056ac <core::ptr::copy_nonoverlapping::precondition_check::he6f33af4add752dd+0x8a>
800056a8: bfed         	j	0x800056a2 <core::ptr::copy_nonoverlapping::precondition_check::he6f33af4add752dd+0x80>
800056aa: a009         	j	0x800056ac <core::ptr::copy_nonoverlapping::precondition_check::he6f33af4add752dd+0x8a>
800056ac: 66c2         	ld	a3, 0x10(sp)
800056ae: 7602         	ld	a2, 0x20(sp)
800056b0: 75a2         	ld	a1, 0x28(sp)
800056b2: 7542         	ld	a0, 0x30(sp)
800056b4: 00000097     	auipc	ra, 0x0
800056b8: c9a080e7     	jalr	-0x366(ra) <core::ub_checks::maybe_is_nonoverlapping::runtime::h00c5210176ebef0e>
800056bc: e115         	bnez	a0, 0x800056e0 <.Lpcrel_hi2+0x1e>
800056be: a009         	j	0x800056c0 <core::ptr::copy_nonoverlapping::precondition_check::he6f33af4add752dd+0x9e>
800056c0: 66a2         	ld	a3, 0x8(sp)

00000000800056c2 <.Lpcrel_hi2>:
800056c2: 00003517     	auipc	a0, 0x3
800056c6: 64950513     	addi	a0, a0, 0x649
800056ca: fcaa         	sd	a0, 0x78(sp)
800056cc: 11b00593     	li	a1, 0x11b
800056d0: e12e         	sd	a1, 0x80(sp)
800056d2: 23700593     	li	a1, 0x237
800056d6: 4601         	li	a2, 0x0
800056d8: 00001097     	auipc	ra, 0x1
800056dc: 050080e7     	jalr	0x50(ra) <core::panicking::panic_nounwind_fmt::h2e018e50a8d3bc73>
800056e0: 60aa         	ld	ra, 0x88(sp)
800056e2: 6149         	addi	sp, sp, 0x90
800056e4: 8082         	ret

00000000800056e6 <_$LT$core..slice..iter..Iter$LT$T$GT$$u20$as$u20$core..iter..traits..iterator..Iterator$GT$::next::h11e13e643b6a440a>:
800056e6: 715d         	addi	sp, sp, -0x50
800056e8: e42a         	sd	a0, 0x8(sp)
800056ea: f42a         	sd	a0, 0x28(sp)
800056ec: 4585         	li	a1, 0x1
800056ee: f82e         	sd	a1, 0x30(sp)
800056f0: fc2e         	sd	a1, 0x38(sp)
800056f2: 610c         	ld	a1, 0x0(a0)
800056f4: e82e         	sd	a1, 0x10(sp)
800056f6: e0ae         	sd	a1, 0x40(sp)
800056f8: 6508         	ld	a0, 0x8(a0)
800056fa: ec2a         	sd	a0, 0x18(sp)
800056fc: e4aa         	sd	a0, 0x48(sp)
800056fe: a009         	j	0x80005700 <_$LT$core..slice..iter..Iter$LT$T$GT$$u20$as$u20$core..iter..traits..iterator..Iterator$GT$::next::h11e13e643b6a440a+0x1a>
80005700: 6542         	ld	a0, 0x10(sp)
80005702: 65e2         	ld	a1, 0x18(sp)
80005704: 00b50863     	beq	a0, a1, 0x80005714 <_$LT$core..slice..iter..Iter$LT$T$GT$$u20$as$u20$core..iter..traits..iterator..Iterator$GT$::next::h11e13e643b6a440a+0x2e>
80005708: a009         	j	0x8000570a <_$LT$core..slice..iter..Iter$LT$T$GT$$u20$as$u20$core..iter..traits..iterator..Iterator$GT$::next::h11e13e643b6a440a+0x24>
8000570a: 65a2         	ld	a1, 0x8(sp)
8000570c: 6542         	ld	a0, 0x10(sp)
8000570e: 0505         	addi	a0, a0, 0x1
80005710: e188         	sd	a0, 0x0(a1)
80005712: a021         	j	0x8000571a <_$LT$core..slice..iter..Iter$LT$T$GT$$u20$as$u20$core..iter..traits..iterator..Iterator$GT$::next::h11e13e643b6a440a+0x34>
80005714: 4501         	li	a0, 0x0
80005716: f02a         	sd	a0, 0x20(sp)
80005718: a039         	j	0x80005726 <_$LT$core..slice..iter..Iter$LT$T$GT$$u20$as$u20$core..iter..traits..iterator..Iterator$GT$::next::h11e13e643b6a440a+0x40>
8000571a: 6542         	ld	a0, 0x10(sp)
8000571c: f02a         	sd	a0, 0x20(sp)
8000571e: a009         	j	0x80005720 <_$LT$core..slice..iter..Iter$LT$T$GT$$u20$as$u20$core..iter..traits..iterator..Iterator$GT$::next::h11e13e643b6a440a+0x3a>
80005720: 7502         	ld	a0, 0x20(sp)
80005722: 6161         	addi	sp, sp, 0x50
80005724: 8082         	ret
80005726: bfed         	j	0x80005720 <_$LT$core..slice..iter..Iter$LT$T$GT$$u20$as$u20$core..iter..traits..iterator..Iterator$GT$::next::h11e13e643b6a440a+0x3a>

0000000080005728 <_$LT$usize$u20$as$u20$core..slice..index..SliceIndex$LT$$u5b$T$u5d$$GT$$GT$::get_unchecked::precondition_check::h21789c9fcf404b51>:
80005728: 7179         	addi	sp, sp, -0x30
8000572a: e432         	sd	a2, 0x8(sp)
8000572c: e82a         	sd	a0, 0x10(sp)
8000572e: ec2e         	sd	a1, 0x18(sp)
80005730: 02b56363     	bltu	a0, a1, 0x80005756 <.Lpcrel_hi0+0x1e>
80005734: a009         	j	0x80005736 <_$LT$usize$u20$as$u20$core..slice..index..SliceIndex$LT$$u5b$T$u5d$$GT$$GT$::get_unchecked::precondition_check::h21789c9fcf404b51+0xe>
80005736: 66a2         	ld	a3, 0x8(sp)

0000000080005738 <.Lpcrel_hi0>:
80005738: 00003517     	auipc	a0, 0x3
8000573c: 6ee50513     	addi	a0, a0, 0x6ee
80005740: f02a         	sd	a0, 0x20(sp)
80005742: 0d600593     	li	a1, 0xd6
80005746: f42e         	sd	a1, 0x28(sp)
80005748: 1ad00593     	li	a1, 0x1ad
8000574c: 4601         	li	a2, 0x0
8000574e: 00001097     	auipc	ra, 0x1
80005752: fda080e7     	jalr	-0x26(ra) <core::panicking::panic_nounwind_fmt::h2e018e50a8d3bc73>
80005756: 6145         	addi	sp, sp, 0x30
80005758: 8082         	ret

000000008000575a <core::fmt::Arguments::as_statically_known_str::h9b44733c2a715fff>:
8000575a: 7119         	addi	sp, sp, -0x80
8000575c: fc86         	sd	ra, 0x78(sp)
8000575e: ec2a         	sd	a0, 0x18(sp)
80005760: fc2a         	sd	a0, 0x38(sp)
80005762: 6508         	ld	a0, 0x8(a0)
80005764: f02a         	sd	a0, 0x20(sp)
80005766: e0aa         	sd	a0, 0x40(sp)
80005768: 8905         	andi	a0, a0, 0x1
8000576a: cd01         	beqz	a0, 0x80005782 <.Lpcrel_hi0>
8000576c: a009         	j	0x8000576e <core::fmt::Arguments::as_statically_known_str::h9b44733c2a715fff+0x14>
8000576e: 7502         	ld	a0, 0x20(sp)
80005770: 65e2         	ld	a1, 0x18(sp)
80005772: 618c         	ld	a1, 0x0(a1)
80005774: e42e         	sd	a1, 0x8(sp)
80005776: e4ae         	sd	a1, 0x48(sp)
80005778: e8ae         	sd	a1, 0x50(sp)
8000577a: 8105         	srli	a0, a0, 0x1
8000577c: e82a         	sd	a0, 0x10(sp)
8000577e: ecaa         	sd	a0, 0x58(sp)
80005780: a811         	j	0x80005794 <.Lpcrel_hi0+0x12>

0000000080005782 <.Lpcrel_hi0>:
80005782: 00001517     	auipc	a0, 0x1
80005786: 43650513     	addi	a0, a0, 0x436
8000578a: 610c         	ld	a1, 0x0(a0)
8000578c: 6508         	ld	a0, 0x8(a0)
8000578e: f42e         	sd	a1, 0x28(sp)
80005790: f82a         	sd	a0, 0x30(sp)
80005792: a02d         	j	0x800057bc <.Lpcrel_hi1+0x24>
80005794: 66c2         	ld	a3, 0x10(sp)
80005796: 6522         	ld	a0, 0x8(sp)

0000000080005798 <.Lpcrel_hi1>:
80005798: 00003597     	auipc	a1, 0x3
8000579c: 76858713     	addi	a4, a1, 0x768
800057a0: 4605         	li	a2, 0x1
800057a2: 85b2         	mv	a1, a2
800057a4: fffff097     	auipc	ra, 0xfffff
800057a8: 70a080e7     	jalr	0x70a(ra) <core::slice::raw::from_raw_parts::precondition_check::h3775922c9007ca3f>
800057ac: a009         	j	0x800057ae <.Lpcrel_hi1+0x16>
800057ae: 6542         	ld	a0, 0x10(sp)
800057b0: 65a2         	ld	a1, 0x8(sp)
800057b2: f0ae         	sd	a1, 0x60(sp)
800057b4: f4aa         	sd	a0, 0x68(sp)
800057b6: f42e         	sd	a1, 0x28(sp)
800057b8: f82a         	sd	a0, 0x30(sp)
800057ba: a009         	j	0x800057bc <.Lpcrel_hi1+0x24>
800057bc: 4501         	li	a0, 0x0
800057be: 06a10ba3     	sb	a0, 0x77(sp)
800057c2: 07714503     	lbu	a0, 0x77(sp)
800057c6: 8905         	andi	a0, a0, 0x1
800057c8: e919         	bnez	a0, 0x800057de <.Lpcrel_hi2+0x12>
800057ca: a009         	j	0x800057cc <.Lpcrel_hi2>

00000000800057cc <.Lpcrel_hi2>:
800057cc: 00001517     	auipc	a0, 0x1
800057d0: 3ec50513     	addi	a0, a0, 0x3ec
800057d4: 610c         	ld	a1, 0x0(a0)
800057d6: 6508         	ld	a0, 0x8(a0)
800057d8: f42e         	sd	a1, 0x28(sp)
800057da: f82a         	sd	a0, 0x30(sp)
800057dc: a011         	j	0x800057e0 <.Lpcrel_hi2+0x14>
800057de: a009         	j	0x800057e0 <.Lpcrel_hi2+0x14>
800057e0: 7522         	ld	a0, 0x28(sp)
800057e2: 75c2         	ld	a1, 0x30(sp)
800057e4: 70e6         	ld	ra, 0x78(sp)
800057e6: 6109         	addi	sp, sp, 0x80
800057e8: 8082         	ret

00000000800057ea <core::fmt::Arguments::from_str::h5beb900724d673c6>:
800057ea: 1141         	addi	sp, sp, -0x10
800057ec: e02a         	sd	a0, 0x0(sp)
800057ee: e42e         	sd	a1, 0x8(sp)
800057f0: 0586         	slli	a1, a1, 0x1
800057f2: 0585         	addi	a1, a1, 0x1
800057f4: 0141         	addi	sp, sp, 0x10
800057f6: 8082         	ret

00000000800057f8 <core::fmt::Formatter::write_fmt::hbceb4f648e75a549>:
800057f8: 715d         	addi	sp, sp, -0x50
800057fa: e486         	sd	ra, 0x48(sp)
800057fc: e02a         	sd	a0, 0x0(sp)
800057fe: e42e         	sd	a1, 0x8(sp)
80005800: e832         	sd	a2, 0x10(sp)
80005802: f82a         	sd	a0, 0x30(sp)
80005804: 0028         	addi	a0, sp, 0x8
80005806: 00000097     	auipc	ra, 0x0
8000580a: f54080e7     	jalr	-0xac(ra) <core::fmt::Arguments::as_statically_known_str::h9b44733c2a715fff>
8000580e: f02a         	sd	a0, 0x20(sp)
80005810: f42e         	sd	a1, 0x28(sp)
80005812: 7502         	ld	a0, 0x20(sp)
80005814: cd11         	beqz	a0, 0x80005830 <core::fmt::Formatter::write_fmt::hbceb4f648e75a549+0x38>
80005816: a009         	j	0x80005818 <core::fmt::Formatter::write_fmt::hbceb4f648e75a549+0x20>
80005818: 6682         	ld	a3, 0x0(sp)
8000581a: 7582         	ld	a1, 0x20(sp)
8000581c: 7622         	ld	a2, 0x28(sp)
8000581e: fc2e         	sd	a1, 0x38(sp)
80005820: e0b2         	sd	a2, 0x40(sp)
80005822: 6288         	ld	a0, 0x0(a3)
80005824: 6694         	ld	a3, 0x8(a3)
80005826: 6e94         	ld	a3, 0x18(a3)
80005828: 9682         	jalr	a3
8000582a: 00a10fa3     	sb	a0, 0x1f(sp)
8000582e: a829         	j	0x80005848 <core::fmt::Formatter::write_fmt::hbceb4f648e75a549+0x50>
80005830: 6582         	ld	a1, 0x0(sp)
80005832: 6188         	ld	a0, 0x0(a1)
80005834: 658c         	ld	a1, 0x8(a1)
80005836: 6622         	ld	a2, 0x8(sp)
80005838: 66c2         	ld	a3, 0x10(sp)
8000583a: 00000097     	auipc	ra, 0x0
8000583e: 642080e7     	jalr	0x642(ra) <core::fmt::write::hfd17e9e8e823b619>
80005842: 00a10fa3     	sb	a0, 0x1f(sp)
80005846: a009         	j	0x80005848 <core::fmt::Formatter::write_fmt::hbceb4f648e75a549+0x50>
80005848: 01f14503     	lbu	a0, 0x1f(sp)
8000584c: 60a6         	ld	ra, 0x48(sp)
8000584e: 6161         	addi	sp, sp, 0x50
80005850: 8082         	ret

0000000080005852 <_$LT$str$u20$as$u20$core..fmt..Display$GT$::fmt::h53474d83e2b0968b>:
80005852: 86ae         	mv	a3, a1
80005854: 85aa         	mv	a1, a0
80005856: 8532         	mv	a0, a2
80005858: 8636         	mv	a2, a3
8000585a: 00001317     	auipc	t1, 0x1
8000585e: aa430067     	jr	-0x55c(t1) <core::fmt::Formatter::pad::h239e525174ab4a17>

0000000080005862 <_$LT$char$u20$as$u20$core..fmt..Display$GT$::fmt::h793d1df9ddfe9696>:
80005862: 86ae         	mv	a3, a1
80005864: 0135c603     	lbu	a2, 0x13(a1)
80005868: 410c         	lw	a1, 0x0(a0)
8000586a: 8a61         	andi	a2, a2, 0x18
8000586c: ce19         	beqz	a2, 0x8000588a <_$LT$char$u20$as$u20$core..fmt..Display$GT$::fmt::h793d1df9ddfe9696+0x28>
8000586e: 1101         	addi	sp, sp, -0x20
80005870: ec06         	sd	ra, 0x18(sp)
80005872: e822         	sd	s0, 0x10(sp)
80005874: 1000         	addi	s0, sp, 0x20
80005876: 08000513     	li	a0, 0x80
8000587a: fe042623     	sw	zero, -0x14(s0)
8000587e: 00a5fa63     	bgeu	a1, a0, 0x80005892 <_$LT$char$u20$as$u20$core..fmt..Display$GT$::fmt::h793d1df9ddfe9696+0x30>
80005882: feb40623     	sb	a1, -0x14(s0)
80005886: 4605         	li	a2, 0x1
80005888: a88d         	j	0x800058fa <_$LT$char$u20$as$u20$core..fmt..Display$GT$::fmt::h793d1df9ddfe9696+0x98>
8000588a: 6690         	ld	a2, 0x8(a3)
8000588c: 6288         	ld	a0, 0x0(a3)
8000588e: 721c         	ld	a5, 0x20(a2)
80005890: 8782         	jr	a5
80005892: 00b5d71b     	srliw	a4, a1, 0xb
80005896: 03f5f513     	andi	a0, a1, 0x3f
8000589a: f8050513     	addi	a0, a0, -0x80
8000589e: 0065d61b     	srliw	a2, a1, 0x6
800058a2: eb09         	bnez	a4, 0x800058b4 <_$LT$char$u20$as$u20$core..fmt..Display$GT$::fmt::h793d1df9ddfe9696+0x52>
800058a4: 0c066593     	ori	a1, a2, 0xc0
800058a8: feb40623     	sb	a1, -0x14(s0)
800058ac: fea406a3     	sb	a0, -0x13(s0)
800058b0: 4609         	li	a2, 0x2
800058b2: a0a1         	j	0x800058fa <_$LT$char$u20$as$u20$core..fmt..Display$GT$::fmt::h793d1df9ddfe9696+0x98>
800058b4: 03f67613     	andi	a2, a2, 0x3f
800058b8: 0105d79b     	srliw	a5, a1, 0x10
800058bc: f8060613     	addi	a2, a2, -0x80
800058c0: 00c5d71b     	srliw	a4, a1, 0xc
800058c4: eb99         	bnez	a5, 0x800058da <_$LT$char$u20$as$u20$core..fmt..Display$GT$::fmt::h793d1df9ddfe9696+0x78>
800058c6: 0e076593     	ori	a1, a4, 0xe0
800058ca: feb40623     	sb	a1, -0x14(s0)
800058ce: fec406a3     	sb	a2, -0x13(s0)
800058d2: fea40723     	sb	a0, -0x12(s0)
800058d6: 460d         	li	a2, 0x3
800058d8: a00d         	j	0x800058fa <_$LT$char$u20$as$u20$core..fmt..Display$GT$::fmt::h793d1df9ddfe9696+0x98>
800058da: 03f77713     	andi	a4, a4, 0x3f
800058de: 81c9         	srli	a1, a1, 0x12
800058e0: f8070713     	addi	a4, a4, -0x80
800058e4: ff05e593     	ori	a1, a1, -0x10
800058e8: feb40623     	sb	a1, -0x14(s0)
800058ec: fee406a3     	sb	a4, -0x13(s0)
800058f0: fec40723     	sb	a2, -0x12(s0)
800058f4: fea407a3     	sb	a0, -0x11(s0)
800058f8: 4611         	li	a2, 0x4
800058fa: fec40593     	addi	a1, s0, -0x14
800058fe: 8536         	mv	a0, a3
80005900: 00001097     	auipc	ra, 0x1
80005904: 9fe080e7     	jalr	-0x602(ra) <core::fmt::Formatter::pad::h239e525174ab4a17>
80005908: 60e2         	ld	ra, 0x18(sp)
8000590a: 6442         	ld	s0, 0x10(sp)
8000590c: 6105         	addi	sp, sp, 0x20
8000590e: 8082         	ret

0000000080005910 <_$LT$$RF$T$u20$as$u20$core..fmt..Display$GT$::fmt::h60cf88dbe6a53042>:
80005910: 6114         	ld	a3, 0x0(a0)
80005912: 6510         	ld	a2, 0x8(a0)
80005914: 852e         	mv	a0, a1
80005916: 85b6         	mv	a1, a3
80005918: 00001317     	auipc	t1, 0x1
8000591c: 9e630067     	jr	-0x61a(t1) <core::fmt::Formatter::pad::h239e525174ab4a17>

0000000080005920 <core::fmt::num::imp::_$LT$impl$u20$u32$GT$::_fmt_inner::h2c8ef1aec4279901>:
80005920: 7139         	addi	sp, sp, -0x40
80005922: fc06         	sd	ra, 0x38(sp)
80005924: f822         	sd	s0, 0x30(sp)
80005926: f426         	sd	s1, 0x28(sp)
80005928: f04a         	sd	s2, 0x20(sp)
8000592a: ec4e         	sd	s3, 0x18(sp)
8000592c: e852         	sd	s4, 0x10(sp)
8000592e: e456         	sd	s5, 0x8(sp)
80005930: 0080         	addi	s0, sp, 0x40
80005932: 3e800693     	li	a3, 0x3e8
80005936: 882a         	mv	a6, a0
80005938: 8732         	mv	a4, a2
8000593a: 0cd56163     	bltu	a0, a3, 0x800059fc <.Lpcrel_hi74+0xac>
8000593e: 4f01         	li	t5, 0x0
80005940: ffe58f93     	addi	t6, a1, -0x2
80005944: d1b71837     	lui	a6, 0xd1b71
80005948: 6709         	lui	a4, 0x2
8000594a: 6785         	lui	a5, 0x1
8000594c: 06400893     	li	a7, 0x64

0000000080005950 <.Lpcrel_hi74>:
80005950: 00003497     	auipc	s1, 0x3
80005954: 009896b7     	lui	a3, 0x989
80005958: 75980e13     	addi	t3, a6, 0x759
8000595c: 71070293     	addi	t0, a4, 0x710
80005960: 47b78313     	addi	t1, a5, 0x47b
80005964: 5c848393     	addi	t2, s1, 0x5c8
80005968: 1e02         	slli	t3, t3, 0x20
8000596a: 67f68e93     	addi	t4, a3, 0x67f
8000596e: 882a         	mv	a6, a0
80005970: 01e60a33     	add	s4, a2, t5
80005974: ffca0693     	addi	a3, s4, -0x4
80005978: 14c6fe63     	bgeu	a3, a2, 0x80005ad4 <.Lpcrel_hi80>
8000597c: 8942         	mv	s2, a6
8000597e: 02081693     	slli	a3, a6, 0x20
80005982: 03c6b6b3     	mulhu	a3, a3, t3
80005986: 02d6d813     	srli	a6, a3, 0x2d
8000598a: 025806b3     	mul	a3, a6, t0
8000598e: 40d909bb     	subw	s3, s2, a3
80005992: 03099693     	slli	a3, s3, 0x30
80005996: 92c9         	srli	a3, a3, 0x32
80005998: 026687b3     	mul	a5, a3, t1
8000599c: 83c5         	srli	a5, a5, 0x11
8000599e: 00179713     	slli	a4, a5, 0x1
800059a2: 971e         	add	a4, a4, t2
800059a4: 00074a83     	lbu	s5, 0x0(a4)
800059a8: 00cf84b3     	add	s1, t6, a2
800059ac: ffda0693     	addi	a3, s4, -0x3
800059b0: ff548f23     	sb	s5, -0x2(s1)
800059b4: 10c6f563     	bgeu	a3, a2, 0x80005abe <.Lpcrel_hi81>
800059b8: 00174703     	lbu	a4, 0x1(a4)
800059bc: ffea0693     	addi	a3, s4, -0x2
800059c0: fee48fa3     	sb	a4, -0x1(s1)
800059c4: 0ec6f263     	bgeu	a3, a2, 0x80005aa8 <.Lpcrel_hi82>
800059c8: 031786b3     	mul	a3, a5, a7
800059cc: 40d986b3     	sub	a3, s3, a3
800059d0: 16c6         	slli	a3, a3, 0x31
800059d2: 92c1         	srli	a3, a3, 0x30
800059d4: 00d38733     	add	a4, t2, a3
800059d8: 00074783     	lbu	a5, 0x0(a4)
800059dc: fffa0693     	addi	a3, s4, -0x1
800059e0: 00f48023     	sb	a5, 0x0(s1)
800059e4: 0ac6f763     	bgeu	a3, a2, 0x80005a92 <.Lpcrel_hi83>
800059e8: 00174683     	lbu	a3, 0x1(a4)
800059ec: 1f71         	addi	t5, t5, -0x4
800059ee: 00d480a3     	sb	a3, 0x1(s1)
800059f2: 1ff1         	addi	t6, t6, -0x4
800059f4: f72eeee3     	bltu	t4, s2, 0x80005970 <.Lpcrel_hi74+0x20>
800059f8: 01e60733     	add	a4, a2, t5
800059fc: 46a5         	li	a3, 0x9
800059fe: 0506fd63     	bgeu	a3, a6, 0x80005a58 <.Lpcrel_hi75+0x3a>
80005a02: ffe70693     	addi	a3, a4, -0x2
80005a06: 0ec6f263     	bgeu	a3, a2, 0x80005aea <.Lpcrel_hi76>
80005a0a: 03081793     	slli	a5, a6, 0x30
80005a0e: 6485         	lui	s1, 0x1
80005a10: 06400893     	li	a7, 0x64
80005a14: 93c9         	srli	a5, a5, 0x32
80005a16: 47b48493     	addi	s1, s1, 0x47b
80005a1a: 029787b3     	mul	a5, a5, s1

0000000080005a1e <.Lpcrel_hi75>:
80005a1e: 00003297     	auipc	t0, 0x3
80005a22: 83c5         	srli	a5, a5, 0x11
80005a24: 031784b3     	mul	s1, a5, a7
80005a28: 409804bb     	subw	s1, a6, s1
80005a2c: 14c6         	slli	s1, s1, 0x31
80005a2e: 0304d813     	srli	a6, s1, 0x30
80005a32: 4fa28493     	addi	s1, t0, 0x4fa
80005a36: 94c2         	add	s1, s1, a6
80005a38: 0004c803     	lbu	a6, 0x0(s1)
80005a3c: 00d588b3     	add	a7, a1, a3
80005a40: 177d         	addi	a4, a4, -0x1
80005a42: 01088023     	sb	a6, 0x0(a7)
80005a46: 0ac77d63     	bgeu	a4, a2, 0x80005b00 <.Lpcrel_hi77>
80005a4a: 0014c483     	lbu	s1, 0x1(s1)
80005a4e: 972e         	add	a4, a4, a1
80005a50: 00970023     	sb	s1, 0x0(a4)
80005a54: e509         	bnez	a0, 0x80005a5e <.Lpcrel_hi75+0x40>
80005a56: a029         	j	0x80005a60 <.Lpcrel_hi75+0x42>
80005a58: 87c2         	mv	a5, a6
80005a5a: 86ba         	mv	a3, a4
80005a5c: c111         	beqz	a0, 0x80005a60 <.Lpcrel_hi75+0x42>
80005a5e: c385         	beqz	a5, 0x80005a7e <.Lpcrel_hi79+0x14>
80005a60: 16fd         	addi	a3, a3, -0x1
80005a62: 0ac6fa63     	bgeu	a3, a2, 0x80005b16 <.Lpcrel_hi78>
80005a66: 0017951b     	slliw	a0, a5, 0x1

0000000080005a6a <.Lpcrel_hi79>:
80005a6a: 00003617     	auipc	a2, 0x3
80005a6e: 4ae60613     	addi	a2, a2, 0x4ae
80005a72: 9532         	add	a0, a0, a2
80005a74: 00154503     	lbu	a0, 0x1(a0)
80005a78: 95b6         	add	a1, a1, a3
80005a7a: 00a58023     	sb	a0, 0x0(a1)
80005a7e: 8536         	mv	a0, a3
80005a80: 70e2         	ld	ra, 0x38(sp)
80005a82: 7442         	ld	s0, 0x30(sp)
80005a84: 74a2         	ld	s1, 0x28(sp)
80005a86: 7902         	ld	s2, 0x20(sp)
80005a88: 69e2         	ld	s3, 0x18(sp)
80005a8a: 6a42         	ld	s4, 0x10(sp)
80005a8c: 6aa2         	ld	s5, 0x8(sp)
80005a8e: 6121         	addi	sp, sp, 0x40
80005a90: 8082         	ret

0000000080005a92 <.Lpcrel_hi83>:
80005a92: 00003517     	auipc	a0, 0x3
80005a96: 54e50713     	addi	a4, a0, 0x54e
80005a9a: 8536         	mv	a0, a3
80005a9c: 85b2         	mv	a1, a2
80005a9e: 863a         	mv	a2, a4
80005aa0: 00001097     	auipc	ra, 0x1
80005aa4: c4c080e7     	jalr	-0x3b4(ra) <core::panicking::panic_bounds_check::h6aaee0d15e0261eb>

0000000080005aa8 <.Lpcrel_hi82>:
80005aa8: 00003517     	auipc	a0, 0x3
80005aac: 53850713     	addi	a4, a0, 0x538
80005ab0: 8536         	mv	a0, a3
80005ab2: 85b2         	mv	a1, a2
80005ab4: 863a         	mv	a2, a4
80005ab6: 00001097     	auipc	ra, 0x1
80005aba: c36080e7     	jalr	-0x3ca(ra) <core::panicking::panic_bounds_check::h6aaee0d15e0261eb>

0000000080005abe <.Lpcrel_hi81>:
80005abe: 00003517     	auipc	a0, 0x3
80005ac2: 52250713     	addi	a4, a0, 0x522
80005ac6: 8536         	mv	a0, a3
80005ac8: 85b2         	mv	a1, a2
80005aca: 863a         	mv	a2, a4
80005acc: 00001097     	auipc	ra, 0x1
80005ad0: c20080e7     	jalr	-0x3e0(ra) <core::panicking::panic_bounds_check::h6aaee0d15e0261eb>

0000000080005ad4 <.Lpcrel_hi80>:
80005ad4: 00003517     	auipc	a0, 0x3
80005ad8: 50c50713     	addi	a4, a0, 0x50c
80005adc: 8536         	mv	a0, a3
80005ade: 85b2         	mv	a1, a2
80005ae0: 863a         	mv	a2, a4
80005ae2: 00001097     	auipc	ra, 0x1
80005ae6: c0a080e7     	jalr	-0x3f6(ra) <core::panicking::panic_bounds_check::h6aaee0d15e0261eb>

0000000080005aea <.Lpcrel_hi76>:
80005aea: 00003517     	auipc	a0, 0x3
80005aee: 4f650713     	addi	a4, a0, 0x4f6
80005af2: 8536         	mv	a0, a3
80005af4: 85b2         	mv	a1, a2
80005af6: 863a         	mv	a2, a4
80005af8: 00001097     	auipc	ra, 0x1
80005afc: bf4080e7     	jalr	-0x40c(ra) <core::panicking::panic_bounds_check::h6aaee0d15e0261eb>

0000000080005b00 <.Lpcrel_hi77>:
80005b00: 00003517     	auipc	a0, 0x3
80005b04: 4e050693     	addi	a3, a0, 0x4e0
80005b08: 853a         	mv	a0, a4
80005b0a: 85b2         	mv	a1, a2
80005b0c: 8636         	mv	a2, a3
80005b0e: 00001097     	auipc	ra, 0x1
80005b12: bde080e7     	jalr	-0x422(ra) <core::panicking::panic_bounds_check::h6aaee0d15e0261eb>

0000000080005b16 <.Lpcrel_hi78>:
80005b16: 00003517     	auipc	a0, 0x3
80005b1a: 4ca50713     	addi	a4, a0, 0x4ca
80005b1e: 8536         	mv	a0, a3
80005b20: 85b2         	mv	a1, a2
80005b22: 863a         	mv	a2, a4
80005b24: 00001097     	auipc	ra, 0x1
80005b28: bc8080e7     	jalr	-0x438(ra) <core::panicking::panic_bounds_check::h6aaee0d15e0261eb>

0000000080005b2c <core::fmt::num::imp::_$LT$impl$u20$u64$GT$::_fmt_inner::habf36a285bd59e0b>:
80005b2c: 7139         	addi	sp, sp, -0x40
80005b2e: fc06         	sd	ra, 0x38(sp)
80005b30: f822         	sd	s0, 0x30(sp)
80005b32: f426         	sd	s1, 0x28(sp)
80005b34: f04a         	sd	s2, 0x20(sp)
80005b36: ec4e         	sd	s3, 0x18(sp)
80005b38: e852         	sd	s4, 0x10(sp)
80005b3a: e456         	sd	s5, 0x8(sp)
80005b3c: 0080         	addi	s0, sp, 0x40
80005b3e: 3e800693     	li	a3, 0x3e8
80005b42: 882a         	mv	a6, a0
80005b44: 8732         	mv	a4, a2
80005b46: 0ad56e63     	bltu	a0, a3, 0x80005c02 <.Lpcrel_hi85+0x9a>
80005b4a: 4f01         	li	t5, 0x0
80005b4c: ffe58f93     	addi	t6, a1, -0x2

0000000080005b50 <.Lpcrel_hi84>:
80005b50: 00001697     	auipc	a3, 0x1
80005b54: 6709         	lui	a4, 0x2
80005b56: 6785         	lui	a5, 0x1
80005b58: 06400893     	li	a7, 0x64
80005b5c: 6c86b283     	ld	t0, 0x6c8(a3)
80005b60: 71070313     	addi	t1, a4, 0x710
80005b64: 47b78393     	addi	t2, a5, 0x47b

0000000080005b68 <.Lpcrel_hi85>:
80005b68: 00003697     	auipc	a3, 0x3
80005b6c: 3b068e13     	addi	t3, a3, 0x3b0
80005b70: 009896b7     	lui	a3, 0x989
80005b74: 67f68e93     	addi	t4, a3, 0x67f
80005b78: 882a         	mv	a6, a0
80005b7a: 01e60a33     	add	s4, a2, t5
80005b7e: ffca0693     	addi	a3, s4, -0x4
80005b82: 14c6fb63     	bgeu	a3, a2, 0x80005cd8 <.Lpcrel_hi91>
80005b86: 8942         	mv	s2, a6
80005b88: 025836b3     	mulhu	a3, a6, t0
80005b8c: 00b6d813     	srli	a6, a3, 0xb
80005b90: 026806b3     	mul	a3, a6, t1
80005b94: 40d909b3     	sub	s3, s2, a3
80005b98: 03099693     	slli	a3, s3, 0x30
80005b9c: 92c9         	srli	a3, a3, 0x32
80005b9e: 027687b3     	mul	a5, a3, t2
80005ba2: 83c5         	srli	a5, a5, 0x11
80005ba4: 00179713     	slli	a4, a5, 0x1
80005ba8: 9772         	add	a4, a4, t3
80005baa: 00074a83     	lbu	s5, 0x0(a4)
80005bae: 00cf84b3     	add	s1, t6, a2
80005bb2: ffda0693     	addi	a3, s4, -0x3
80005bb6: ff548f23     	sb	s5, -0x2(s1)
80005bba: 10c6f463     	bgeu	a3, a2, 0x80005cc2 <.Lpcrel_hi92>
80005bbe: 00174703     	lbu	a4, 0x1(a4)
80005bc2: ffea0693     	addi	a3, s4, -0x2
80005bc6: fee48fa3     	sb	a4, -0x1(s1)
80005bca: 0ec6f163     	bgeu	a3, a2, 0x80005cac <.Lpcrel_hi93>
80005bce: 031786b3     	mul	a3, a5, a7
80005bd2: 40d986b3     	sub	a3, s3, a3
80005bd6: 16c6         	slli	a3, a3, 0x31
80005bd8: 92c1         	srli	a3, a3, 0x30
80005bda: 00de0733     	add	a4, t3, a3
80005bde: 00074783     	lbu	a5, 0x0(a4)
80005be2: fffa0693     	addi	a3, s4, -0x1
80005be6: 00f48023     	sb	a5, 0x0(s1)
80005bea: 0ac6f663     	bgeu	a3, a2, 0x80005c96 <.Lpcrel_hi94>
80005bee: 00174683     	lbu	a3, 0x1(a4)
80005bf2: 1f71         	addi	t5, t5, -0x4
80005bf4: 00d480a3     	sb	a3, 0x1(s1)
80005bf8: 1ff1         	addi	t6, t6, -0x4
80005bfa: f92ee0e3     	bltu	t4, s2, 0x80005b7a <.Lpcrel_hi85+0x12>
80005bfe: 01e60733     	add	a4, a2, t5
80005c02: 46a5         	li	a3, 0x9
80005c04: 0506fd63     	bgeu	a3, a6, 0x80005c5e <.Lpcrel_hi86+0x3a>
80005c08: ffe70693     	addi	a3, a4, -0x2
80005c0c: 0ec6f163     	bgeu	a3, a2, 0x80005cee <.Lpcrel_hi87>
80005c10: 03081793     	slli	a5, a6, 0x30
80005c14: 6485         	lui	s1, 0x1
80005c16: 06400893     	li	a7, 0x64
80005c1a: 93c9         	srli	a5, a5, 0x32
80005c1c: 47b48493     	addi	s1, s1, 0x47b
80005c20: 029787b3     	mul	a5, a5, s1

0000000080005c24 <.Lpcrel_hi86>:
80005c24: 00003297     	auipc	t0, 0x3
80005c28: 83c5         	srli	a5, a5, 0x11
80005c2a: 031784b3     	mul	s1, a5, a7
80005c2e: 409804bb     	subw	s1, a6, s1
80005c32: 14c6         	slli	s1, s1, 0x31
80005c34: 0304d813     	srli	a6, s1, 0x30
80005c38: 2f428493     	addi	s1, t0, 0x2f4
80005c3c: 94c2         	add	s1, s1, a6
80005c3e: 0004c803     	lbu	a6, 0x0(s1)
80005c42: 00d588b3     	add	a7, a1, a3
80005c46: 177d         	addi	a4, a4, -0x1
80005c48: 01088023     	sb	a6, 0x0(a7)
80005c4c: 0ac77c63     	bgeu	a4, a2, 0x80005d04 <.Lpcrel_hi88>
80005c50: 0014c483     	lbu	s1, 0x1(s1)
80005c54: 972e         	add	a4, a4, a1
80005c56: 00970023     	sb	s1, 0x0(a4)
80005c5a: e509         	bnez	a0, 0x80005c64 <.Lpcrel_hi86+0x40>
80005c5c: a029         	j	0x80005c66 <.Lpcrel_hi86+0x42>
80005c5e: 87c2         	mv	a5, a6
80005c60: 86ba         	mv	a3, a4
80005c62: c111         	beqz	a0, 0x80005c66 <.Lpcrel_hi86+0x42>
80005c64: cf99         	beqz	a5, 0x80005c82 <.Lpcrel_hi90+0x14>
80005c66: 16fd         	addi	a3, a3, -0x1
80005c68: 0ac6f963     	bgeu	a3, a2, 0x80005d1a <.Lpcrel_hi89>
80005c6c: 0786         	slli	a5, a5, 0x1

0000000080005c6e <.Lpcrel_hi90>:
80005c6e: 00003517     	auipc	a0, 0x3
80005c72: 2aa50513     	addi	a0, a0, 0x2aa
80005c76: 953e         	add	a0, a0, a5
80005c78: 00154503     	lbu	a0, 0x1(a0)
80005c7c: 95b6         	add	a1, a1, a3
80005c7e: 00a58023     	sb	a0, 0x0(a1)
80005c82: 8536         	mv	a0, a3
80005c84: 70e2         	ld	ra, 0x38(sp)
80005c86: 7442         	ld	s0, 0x30(sp)
80005c88: 74a2         	ld	s1, 0x28(sp)
80005c8a: 7902         	ld	s2, 0x20(sp)
80005c8c: 69e2         	ld	s3, 0x18(sp)
80005c8e: 6a42         	ld	s4, 0x10(sp)
80005c90: 6aa2         	ld	s5, 0x8(sp)
80005c92: 6121         	addi	sp, sp, 0x40
80005c94: 8082         	ret

0000000080005c96 <.Lpcrel_hi94>:
80005c96: 00003517     	auipc	a0, 0x3
80005c9a: 34a50713     	addi	a4, a0, 0x34a
80005c9e: 8536         	mv	a0, a3
80005ca0: 85b2         	mv	a1, a2
80005ca2: 863a         	mv	a2, a4
80005ca4: 00001097     	auipc	ra, 0x1
80005ca8: a48080e7     	jalr	-0x5b8(ra) <core::panicking::panic_bounds_check::h6aaee0d15e0261eb>

0000000080005cac <.Lpcrel_hi93>:
80005cac: 00003517     	auipc	a0, 0x3
80005cb0: 33450713     	addi	a4, a0, 0x334
80005cb4: 8536         	mv	a0, a3
80005cb6: 85b2         	mv	a1, a2
80005cb8: 863a         	mv	a2, a4
80005cba: 00001097     	auipc	ra, 0x1
80005cbe: a32080e7     	jalr	-0x5ce(ra) <core::panicking::panic_bounds_check::h6aaee0d15e0261eb>

0000000080005cc2 <.Lpcrel_hi92>:
80005cc2: 00003517     	auipc	a0, 0x3
80005cc6: 31e50713     	addi	a4, a0, 0x31e
80005cca: 8536         	mv	a0, a3
80005ccc: 85b2         	mv	a1, a2
80005cce: 863a         	mv	a2, a4
80005cd0: 00001097     	auipc	ra, 0x1
80005cd4: a1c080e7     	jalr	-0x5e4(ra) <core::panicking::panic_bounds_check::h6aaee0d15e0261eb>

0000000080005cd8 <.Lpcrel_hi91>:
80005cd8: 00003517     	auipc	a0, 0x3
80005cdc: 30850713     	addi	a4, a0, 0x308
80005ce0: 8536         	mv	a0, a3
80005ce2: 85b2         	mv	a1, a2
80005ce4: 863a         	mv	a2, a4
80005ce6: 00001097     	auipc	ra, 0x1
80005cea: a06080e7     	jalr	-0x5fa(ra) <core::panicking::panic_bounds_check::h6aaee0d15e0261eb>

0000000080005cee <.Lpcrel_hi87>:
80005cee: 00003517     	auipc	a0, 0x3
80005cf2: 2f250713     	addi	a4, a0, 0x2f2
80005cf6: 8536         	mv	a0, a3
80005cf8: 85b2         	mv	a1, a2
80005cfa: 863a         	mv	a2, a4
80005cfc: 00001097     	auipc	ra, 0x1
80005d00: 9f0080e7     	jalr	-0x610(ra) <core::panicking::panic_bounds_check::h6aaee0d15e0261eb>

0000000080005d04 <.Lpcrel_hi88>:
80005d04: 00003517     	auipc	a0, 0x3
80005d08: 2dc50693     	addi	a3, a0, 0x2dc
80005d0c: 853a         	mv	a0, a4
80005d0e: 85b2         	mv	a1, a2
80005d10: 8636         	mv	a2, a3
80005d12: 00001097     	auipc	ra, 0x1
80005d16: 9da080e7     	jalr	-0x626(ra) <core::panicking::panic_bounds_check::h6aaee0d15e0261eb>

0000000080005d1a <.Lpcrel_hi89>:
80005d1a: 00003517     	auipc	a0, 0x3
80005d1e: 2c650713     	addi	a4, a0, 0x2c6
80005d22: 8536         	mv	a0, a3
80005d24: 85b2         	mv	a1, a2
80005d26: 863a         	mv	a2, a4
80005d28: 00001097     	auipc	ra, 0x1
80005d2c: 9c4080e7     	jalr	-0x63c(ra) <core::panicking::panic_bounds_check::h6aaee0d15e0261eb>

0000000080005d30 <core::fmt::num::imp::_$LT$impl$u20$core..fmt..Display$u20$for$u20$u32$GT$::fmt::hc19fd54e2a0ceeb1>:
80005d30: 7139         	addi	sp, sp, -0x40
80005d32: fc06         	sd	ra, 0x38(sp)
80005d34: f822         	sd	s0, 0x30(sp)
80005d36: f426         	sd	s1, 0x28(sp)
80005d38: f04a         	sd	s2, 0x20(sp)
80005d3a: ec4e         	sd	s3, 0x18(sp)
80005d3c: 0080         	addi	s0, sp, 0x40
80005d3e: 4108         	lw	a0, 0x0(a0)
80005d40: 84ae         	mv	s1, a1
80005d42: fce40913     	addi	s2, s0, -0x32
80005d46: fce40593     	addi	a1, s0, -0x32
80005d4a: 4629         	li	a2, 0xa
80005d4c: 49a9         	li	s3, 0xa
80005d4e: 00000097     	auipc	ra, 0x0
80005d52: bd2080e7     	jalr	-0x42e(ra) <core::fmt::num::imp::_$LT$impl$u20$u32$GT$::_fmt_inner::h2c8ef1aec4279901>
80005d56: 40a987b3     	sub	a5, s3, a0
80005d5a: 00a90733     	add	a4, s2, a0
80005d5e: 4585         	li	a1, 0x1
80005d60: 4605         	li	a2, 0x1
80005d62: 8526         	mv	a0, s1
80005d64: 4681         	li	a3, 0x0
80005d66: 00000097     	auipc	ra, 0x0
80005d6a: 348080e7     	jalr	0x348(ra) <core::fmt::Formatter::pad_integral::h0745a9fd037e4d44>
80005d6e: 70e2         	ld	ra, 0x38(sp)
80005d70: 7442         	ld	s0, 0x30(sp)
80005d72: 74a2         	ld	s1, 0x28(sp)
80005d74: 7902         	ld	s2, 0x20(sp)
80005d76: 69e2         	ld	s3, 0x18(sp)
80005d78: 6121         	addi	sp, sp, 0x40
80005d7a: 8082         	ret

0000000080005d7c <core::fmt::num::imp::_$LT$impl$u20$core..fmt..Display$u20$for$u20$usize$GT$::fmt::h566085f0242c3154>:
80005d7c: 7139         	addi	sp, sp, -0x40
80005d7e: fc06         	sd	ra, 0x38(sp)
80005d80: f822         	sd	s0, 0x30(sp)
80005d82: f426         	sd	s1, 0x28(sp)
80005d84: f04a         	sd	s2, 0x20(sp)
80005d86: ec4e         	sd	s3, 0x18(sp)
80005d88: 0080         	addi	s0, sp, 0x40
80005d8a: 6108         	ld	a0, 0x0(a0)
80005d8c: 84ae         	mv	s1, a1
80005d8e: fc440913     	addi	s2, s0, -0x3c
80005d92: fc440593     	addi	a1, s0, -0x3c
80005d96: 4651         	li	a2, 0x14
80005d98: 49d1         	li	s3, 0x14
80005d9a: 00000097     	auipc	ra, 0x0
80005d9e: d92080e7     	jalr	-0x26e(ra) <core::fmt::num::imp::_$LT$impl$u20$u64$GT$::_fmt_inner::habf36a285bd59e0b>
80005da2: 40a987b3     	sub	a5, s3, a0
80005da6: 00a90733     	add	a4, s2, a0
80005daa: 4585         	li	a1, 0x1
80005dac: 4605         	li	a2, 0x1
80005dae: 8526         	mv	a0, s1
80005db0: 4681         	li	a3, 0x0
80005db2: 00000097     	auipc	ra, 0x0
80005db6: 2fc080e7     	jalr	0x2fc(ra) <core::fmt::Formatter::pad_integral::h0745a9fd037e4d44>
80005dba: 70e2         	ld	ra, 0x38(sp)
80005dbc: 7442         	ld	s0, 0x30(sp)
80005dbe: 74a2         	ld	s1, 0x28(sp)
80005dc0: 7902         	ld	s2, 0x20(sp)
80005dc2: 69e2         	ld	s3, 0x18(sp)
80005dc4: 6121         	addi	sp, sp, 0x40
80005dc6: 8082         	ret

0000000080005dc8 <core::fmt::num::_$LT$impl$u20$core..fmt..LowerHex$u20$for$u20$usize$GT$::fmt::hcb99b156cc230e11>:
80005dc8: 1101         	addi	sp, sp, -0x20
80005dca: ec06         	sd	ra, 0x18(sp)
80005dcc: e822         	sd	s0, 0x10(sp)
80005dce: 1000         	addi	s0, sp, 0x20
80005dd0: 882e         	mv	a6, a1
80005dd2: 4781         	li	a5, 0x0
80005dd4: 6108         	ld	a0, 0x0(a0)
80005dd6: fef40593     	addi	a1, s0, -0x11

0000000080005dda <.Lpcrel_hi209>:
80005dda: 00001617     	auipc	a2, 0x1
80005dde: dee60613     	addi	a2, a2, -0x212
80005de2: 00f57693     	andi	a3, a0, 0xf
80005de6: 96b2         	add	a3, a3, a2
80005de8: 0006c683     	lbu	a3, 0x0(a3)
80005dec: 8111         	srli	a0, a0, 0x4
80005dee: 0785         	addi	a5, a5, 0x1
80005df0: 00d58023     	sb	a3, 0x0(a1)
80005df4: 15fd         	addi	a1, a1, -0x1
80005df6: f575         	bnez	a0, 0x80005de2 <.Lpcrel_hi209+0x8>
80005df8: fe040513     	addi	a0, s0, -0x20
80005dfc: 8d1d         	sub	a0, a0, a5
80005dfe: 01050713     	addi	a4, a0, 0x10

0000000080005e02 <.Lpcrel_hi210>:
80005e02: 00003517     	auipc	a0, 0x3
80005e06: 4585         	li	a1, 0x1
80005e08: 1f650613     	addi	a2, a0, 0x1f6
80005e0c: 4689         	li	a3, 0x2
80005e0e: 8542         	mv	a0, a6
80005e10: 00000097     	auipc	ra, 0x0
80005e14: 29e080e7     	jalr	0x29e(ra) <core::fmt::Formatter::pad_integral::h0745a9fd037e4d44>
80005e18: 60e2         	ld	ra, 0x18(sp)
80005e1a: 6442         	ld	s0, 0x10(sp)
80005e1c: 6105         	addi	sp, sp, 0x20
80005e1e: 8082         	ret

0000000080005e20 <core::fmt::num::_$LT$impl$u20$core..fmt..UpperHex$u20$for$u20$u32$GT$::fmt::h07f6b7b2f3968c14>:
80005e20: 1101         	addi	sp, sp, -0x20
80005e22: ec06         	sd	ra, 0x18(sp)
80005e24: e822         	sd	s0, 0x10(sp)
80005e26: 1000         	addi	s0, sp, 0x20
80005e28: 882e         	mv	a6, a1
80005e2a: 4781         	li	a5, 0x0
80005e2c: 4110         	lw	a2, 0x0(a0)
80005e2e: fef40513     	addi	a0, s0, -0x11

0000000080005e32 <.Lpcrel_hi219>:
80005e32: 00001597     	auipc	a1, 0x1
80005e36: d7658593     	addi	a1, a1, -0x28a
80005e3a: 00f67693     	andi	a3, a2, 0xf
80005e3e: 96ae         	add	a3, a3, a1
80005e40: 0006c683     	lbu	a3, 0x0(a3)
80005e44: 0046571b     	srliw	a4, a2, 0x4
80005e48: 0785         	addi	a5, a5, 0x1
80005e4a: 00d50023     	sb	a3, 0x0(a0)
80005e4e: 157d         	addi	a0, a0, -0x1
80005e50: 863a         	mv	a2, a4
80005e52: f765         	bnez	a4, 0x80005e3a <.Lpcrel_hi219+0x8>
80005e54: fe840513     	addi	a0, s0, -0x18
80005e58: 8d1d         	sub	a0, a0, a5
80005e5a: 00850713     	addi	a4, a0, 0x8

0000000080005e5e <.Lpcrel_hi220>:
80005e5e: 00003517     	auipc	a0, 0x3
80005e62: 4585         	li	a1, 0x1
80005e64: 19a50613     	addi	a2, a0, 0x19a
80005e68: 4689         	li	a3, 0x2
80005e6a: 8542         	mv	a0, a6
80005e6c: 00000097     	auipc	ra, 0x0
80005e70: 242080e7     	jalr	0x242(ra) <core::fmt::Formatter::pad_integral::h0745a9fd037e4d44>
80005e74: 60e2         	ld	ra, 0x18(sp)
80005e76: 6442         	ld	s0, 0x10(sp)
80005e78: 6105         	addi	sp, sp, 0x20
80005e7a: 8082         	ret

0000000080005e7c <core::fmt::write::hfd17e9e8e823b619>:
80005e7c: 7119         	addi	sp, sp, -0x80
80005e7e: fc86         	sd	ra, 0x78(sp)
80005e80: f8a2         	sd	s0, 0x70(sp)
80005e82: f4a6         	sd	s1, 0x68(sp)
80005e84: f0ca         	sd	s2, 0x60(sp)
80005e86: ecce         	sd	s3, 0x58(sp)
80005e88: e8d2         	sd	s4, 0x50(sp)
80005e8a: e4d6         	sd	s5, 0x48(sp)
80005e8c: e0da         	sd	s6, 0x40(sp)
80005e8e: fc5e         	sd	s7, 0x38(sp)
80005e90: f862         	sd	s8, 0x30(sp)
80005e92: f466         	sd	s9, 0x28(sp)
80005e94: f06a         	sd	s10, 0x20(sp)
80005e96: 0100         	addi	s0, sp, 0x80
80005e98: 89b6         	mv	s3, a3
80005e9a: 892e         	mv	s2, a1
80005e9c: 0016f593     	andi	a1, a3, 0x1
80005ea0: 8a2a         	mv	s4, a0
80005ea2: 16059063     	bnez	a1, 0x80006002 <core::fmt::write::hfd17e9e8e823b619+0x186>
80005ea6: 00064483     	lbu	s1, 0x0(a2)
80005eaa: 18048163     	beqz	s1, 0x8000602c <core::fmt::write::hfd17e9e8e823b619+0x1b0>
80005eae: 4c81         	li	s9, 0x0
80005eb0: 01893b03     	ld	s6, 0x18(s2)
80005eb4: 08000b93     	li	s7, 0x80
80005eb8: 0c000c13     	li	s8, 0xc0
80005ebc: 60000537     	lui	a0, 0x60000
80005ec0: 02050d13     	addi	s10, a0, 0x20
80005ec4: a805         	j	0x80005ef4 <core::fmt::write::hfd17e9e8e823b619+0x78>
80005ec6: 004c9513     	slli	a0, s9, 0x4
80005eca: 00a985b3     	add	a1, s3, a0
80005ece: 6188         	ld	a0, 0x0(a1)
80005ed0: 6590         	ld	a2, 0x8(a1)
80005ed2: f9443423     	sd	s4, -0x78(s0)
80005ed6: f9243823     	sd	s2, -0x70(s0)
80005eda: f9a43c23     	sd	s10, -0x68(s0)
80005ede: f8840593     	addi	a1, s0, -0x78
80005ee2: 9602         	jalr	a2
80005ee4: 14051663     	bnez	a0, 0x80006030 <core::fmt::write::hfd17e9e8e823b619+0x1b4>
80005ee8: 0c85         	addi	s9, s9, 0x1
80005eea: 000ac483     	lbu	s1, 0x0(s5)
80005eee: 8656         	mv	a2, s5
80005ef0: 12048e63     	beqz	s1, 0x8000602c <core::fmt::write::hfd17e9e8e823b619+0x1b0>
80005ef4: 03849513     	slli	a0, s1, 0x38
80005ef8: 00160a93     	addi	s5, a2, 0x1
80005efc: 00054a63     	bltz	a0, 0x80005f10 <core::fmt::write::hfd17e9e8e823b619+0x94>
80005f00: 8552         	mv	a0, s4
80005f02: 85d6         	mv	a1, s5
80005f04: 8626         	mv	a2, s1
80005f06: 9b02         	jalr	s6
80005f08: 12051463     	bnez	a0, 0x80006030 <core::fmt::write::hfd17e9e8e823b619+0x1b4>
80005f0c: 9aa6         	add	s5, s5, s1
80005f0e: bff1         	j	0x80005eea <core::fmt::write::hfd17e9e8e823b619+0x6e>
80005f10: 05748b63     	beq	s1, s7, 0x80005f66 <core::fmt::write::hfd17e9e8e823b619+0xea>
80005f14: fb8489e3     	beq	s1, s8, 0x80005ec6 <core::fmt::write::hfd17e9e8e823b619+0x4a>
80005f18: 0014f513     	andi	a0, s1, 0x1
80005f1c: 85ea         	mv	a1, s10
80005f1e: c115         	beqz	a0, 0x80005f42 <core::fmt::write::hfd17e9e8e823b619+0xc6>
80005f20: 00264503     	lbu	a0, 0x2(a2)
80005f24: 00164583     	lbu	a1, 0x1(a2)
80005f28: 00364683     	lbu	a3, 0x3(a2)
80005f2c: 00464703     	lbu	a4, 0x4(a2)
80005f30: 0522         	slli	a0, a0, 0x8
80005f32: 8d4d         	or	a0, a0, a1
80005f34: 06c2         	slli	a3, a3, 0x10
80005f36: 0762         	slli	a4, a4, 0x18
80005f38: 00d765b3     	or	a1, a4, a3
80005f3c: 8dc9         	or	a1, a1, a0
80005f3e: 00560a93     	addi	s5, a2, 0x5
80005f42: 0024f513     	andi	a0, s1, 0x2
80005f46: e121         	bnez	a0, 0x80005f86 <core::fmt::write::hfd17e9e8e823b619+0x10a>
80005f48: 4601         	li	a2, 0x0
80005f4a: 0044f513     	andi	a0, s1, 0x4
80005f4e: c531         	beqz	a0, 0x80005f9a <core::fmt::write::hfd17e9e8e823b619+0x11e>
80005f50: 001ac503     	lbu	a0, 0x1(s5)
80005f54: 000ac683     	lbu	a3, 0x0(s5)
80005f58: 0522         	slli	a0, a0, 0x8
80005f5a: 8ec9         	or	a3, a3, a0
80005f5c: 0a89         	addi	s5, s5, 0x2
80005f5e: 0084f513     	andi	a0, s1, 0x8
80005f62: e121         	bnez	a0, 0x80005fa2 <core::fmt::write::hfd17e9e8e823b619+0x126>
80005f64: a0b9         	j	0x80005fb2 <core::fmt::write::hfd17e9e8e823b619+0x136>
80005f66: 00264503     	lbu	a0, 0x2(a2)
80005f6a: 00164583     	lbu	a1, 0x1(a2)
80005f6e: 0522         	slli	a0, a0, 0x8
80005f70: 00b56ab3     	or	s5, a0, a1
80005f74: 00360493     	addi	s1, a2, 0x3
80005f78: 8552         	mv	a0, s4
80005f7a: 85a6         	mv	a1, s1
80005f7c: 8656         	mv	a2, s5
80005f7e: 9b02         	jalr	s6
80005f80: e945         	bnez	a0, 0x80006030 <core::fmt::write::hfd17e9e8e823b619+0x1b4>
80005f82: 9aa6         	add	s5, s5, s1
80005f84: b79d         	j	0x80005eea <core::fmt::write::hfd17e9e8e823b619+0x6e>
80005f86: 001ac503     	lbu	a0, 0x1(s5)
80005f8a: 000ac603     	lbu	a2, 0x0(s5)
80005f8e: 0522         	slli	a0, a0, 0x8
80005f90: 8e49         	or	a2, a2, a0
80005f92: 0a89         	addi	s5, s5, 0x2
80005f94: 0044f513     	andi	a0, s1, 0x4
80005f98: fd45         	bnez	a0, 0x80005f50 <core::fmt::write::hfd17e9e8e823b619+0xd4>
80005f9a: 4681         	li	a3, 0x0
80005f9c: 0084f513     	andi	a0, s1, 0x8
80005fa0: c909         	beqz	a0, 0x80005fb2 <core::fmt::write::hfd17e9e8e823b619+0x136>
80005fa2: 001ac503     	lbu	a0, 0x1(s5)
80005fa6: 000ac703     	lbu	a4, 0x0(s5)
80005faa: 0522         	slli	a0, a0, 0x8
80005fac: 00e56cb3     	or	s9, a0, a4
80005fb0: 0a89         	addi	s5, s5, 0x2
80005fb2: 0104f513     	andi	a0, s1, 0x10
80005fb6: ed15         	bnez	a0, 0x80005ff2 <core::fmt::write::hfd17e9e8e823b619+0x176>
80005fb8: 0204f513     	andi	a0, s1, 0x20
80005fbc: c509         	beqz	a0, 0x80005fc6 <core::fmt::write::hfd17e9e8e823b619+0x14a>
80005fbe: 0692         	slli	a3, a3, 0x4
80005fc0: 96ce         	add	a3, a3, s3
80005fc2: 0086d683     	lhu	a3, 0x8(a3)
80005fc6: 004c9513     	slli	a0, s9, 0x4
80005fca: 00a98733     	add	a4, s3, a0
80005fce: 6308         	ld	a0, 0x0(a4)
80005fd0: 6718         	ld	a4, 0x8(a4)
80005fd2: f9443423     	sd	s4, -0x78(s0)
80005fd6: f9243823     	sd	s2, -0x70(s0)
80005fda: f8b42c23     	sw	a1, -0x68(s0)
80005fde: f8c41e23     	sh	a2, -0x64(s0)
80005fe2: f8d41f23     	sh	a3, -0x62(s0)
80005fe6: f8840593     	addi	a1, s0, -0x78
80005fea: 9702         	jalr	a4
80005fec: ee050ee3     	beqz	a0, 0x80005ee8 <core::fmt::write::hfd17e9e8e823b619+0x6c>
80005ff0: a081         	j	0x80006030 <core::fmt::write::hfd17e9e8e823b619+0x1b4>
80005ff2: 0612         	slli	a2, a2, 0x4
80005ff4: 964e         	add	a2, a2, s3
80005ff6: 00865603     	lhu	a2, 0x8(a2)
80005ffa: 0204f513     	andi	a0, s1, 0x20
80005ffe: f161         	bnez	a0, 0x80005fbe <core::fmt::write::hfd17e9e8e823b619+0x142>
80006000: b7d9         	j	0x80005fc6 <core::fmt::write::hfd17e9e8e823b619+0x14a>
80006002: 01893783     	ld	a5, 0x18(s2)
80006006: 0019d693     	srli	a3, s3, 0x1
8000600a: 8552         	mv	a0, s4
8000600c: 85b2         	mv	a1, a2
8000600e: 8636         	mv	a2, a3
80006010: 70e6         	ld	ra, 0x78(sp)
80006012: 7446         	ld	s0, 0x70(sp)
80006014: 74a6         	ld	s1, 0x68(sp)
80006016: 7906         	ld	s2, 0x60(sp)
80006018: 69e6         	ld	s3, 0x58(sp)
8000601a: 6a46         	ld	s4, 0x50(sp)
8000601c: 6aa6         	ld	s5, 0x48(sp)
8000601e: 6b06         	ld	s6, 0x40(sp)
80006020: 7be2         	ld	s7, 0x38(sp)
80006022: 7c42         	ld	s8, 0x30(sp)
80006024: 7ca2         	ld	s9, 0x28(sp)
80006026: 7d02         	ld	s10, 0x20(sp)
80006028: 6109         	addi	sp, sp, 0x80
8000602a: 8782         	jr	a5
8000602c: 4501         	li	a0, 0x0
8000602e: a011         	j	0x80006032 <core::fmt::write::hfd17e9e8e823b619+0x1b6>
80006030: 4505         	li	a0, 0x1
80006032: 70e6         	ld	ra, 0x78(sp)
80006034: 7446         	ld	s0, 0x70(sp)
80006036: 74a6         	ld	s1, 0x68(sp)
80006038: 7906         	ld	s2, 0x60(sp)
8000603a: 69e6         	ld	s3, 0x58(sp)
8000603c: 6a46         	ld	s4, 0x50(sp)
8000603e: 6aa6         	ld	s5, 0x48(sp)
80006040: 6b06         	ld	s6, 0x40(sp)
80006042: 7be2         	ld	s7, 0x38(sp)
80006044: 7c42         	ld	s8, 0x30(sp)
80006046: 7ca2         	ld	s9, 0x28(sp)
80006048: 7d02         	ld	s10, 0x20(sp)
8000604a: 6109         	addi	sp, sp, 0x80
8000604c: 8082         	ret

000000008000604e <core::fmt::Formatter::pad_integral::write_prefix::hfc34f482b9af976a>:
8000604e: 7179         	addi	sp, sp, -0x30
80006050: f406         	sd	ra, 0x28(sp)
80006052: f022         	sd	s0, 0x20(sp)
80006054: ec26         	sd	s1, 0x18(sp)
80006056: e84a         	sd	s2, 0x10(sp)
80006058: e44e         	sd	s3, 0x8(sp)
8000605a: e052         	sd	s4, 0x0(sp)
8000605c: 1800         	addi	s0, sp, 0x30
8000605e: 893a         	mv	s2, a4
80006060: 8a36         	mv	s4, a3
80006062: 89ae         	mv	s3, a1
80006064: 001105b7     	lui	a1, 0x110
80006068: 00b60c63     	beq	a2, a1, 0x80006080 <core::fmt::Formatter::pad_integral::write_prefix::hfc34f482b9af976a+0x32>
8000606c: 0209b683     	ld	a3, 0x20(s3)
80006070: 84aa         	mv	s1, a0
80006072: 85b2         	mv	a1, a2
80006074: 9682         	jalr	a3
80006076: 85aa         	mv	a1, a0
80006078: 8526         	mv	a0, s1
8000607a: c199         	beqz	a1, 0x80006080 <core::fmt::Formatter::pad_integral::write_prefix::hfc34f482b9af976a+0x32>
8000607c: 4505         	li	a0, 0x1
8000607e: a005         	j	0x8000609e <core::fmt::Formatter::pad_integral::write_prefix::hfc34f482b9af976a+0x50>
80006080: 000a0e63     	beqz	s4, 0x8000609c <core::fmt::Formatter::pad_integral::write_prefix::hfc34f482b9af976a+0x4e>
80006084: 0189b783     	ld	a5, 0x18(s3)
80006088: 85d2         	mv	a1, s4
8000608a: 864a         	mv	a2, s2
8000608c: 70a2         	ld	ra, 0x28(sp)
8000608e: 7402         	ld	s0, 0x20(sp)
80006090: 64e2         	ld	s1, 0x18(sp)
80006092: 6942         	ld	s2, 0x10(sp)
80006094: 69a2         	ld	s3, 0x8(sp)
80006096: 6a02         	ld	s4, 0x0(sp)
80006098: 6145         	addi	sp, sp, 0x30
8000609a: 8782         	jr	a5
8000609c: 4501         	li	a0, 0x0
8000609e: 70a2         	ld	ra, 0x28(sp)
800060a0: 7402         	ld	s0, 0x20(sp)
800060a2: 64e2         	ld	s1, 0x18(sp)
800060a4: 6942         	ld	s2, 0x10(sp)
800060a6: 69a2         	ld	s3, 0x8(sp)
800060a8: 6a02         	ld	s4, 0x0(sp)
800060aa: 6145         	addi	sp, sp, 0x30
800060ac: 8082         	ret

00000000800060ae <core::fmt::Formatter::pad_integral::h0745a9fd037e4d44>:
800060ae: 7119         	addi	sp, sp, -0x80
800060b0: fc86         	sd	ra, 0x78(sp)
800060b2: f8a2         	sd	s0, 0x70(sp)
800060b4: f4a6         	sd	s1, 0x68(sp)
800060b6: f0ca         	sd	s2, 0x60(sp)
800060b8: ecce         	sd	s3, 0x58(sp)
800060ba: e8d2         	sd	s4, 0x50(sp)
800060bc: e4d6         	sd	s5, 0x48(sp)
800060be: e0da         	sd	s6, 0x40(sp)
800060c0: fc5e         	sd	s7, 0x38(sp)
800060c2: f862         	sd	s8, 0x30(sp)
800060c4: f466         	sd	s9, 0x28(sp)
800060c6: f06a         	sd	s10, 0x20(sp)
800060c8: ec6e         	sd	s11, 0x18(sp)
800060ca: 0100         	addi	s0, sp, 0x80
800060cc: 89be         	mv	s3, a5
800060ce: 8d3a         	mv	s10, a4
800060d0: 8a36         	mv	s4, a3
800060d2: 8ab2         	mv	s5, a2
800060d4: 8baa         	mv	s7, a0
800060d6: cdbd         	beqz	a1, 0x80006154 <core::fmt::Formatter::pad_integral::h0745a9fd037e4d44+0xa6>
800060d8: 010bec03     	lwu	s8, 0x10(s7)
800060dc: 00200537     	lui	a0, 0x200
800060e0: 00ac7533     	and	a0, s8, a0
800060e4: 00110b37     	lui	s6, 0x110
800060e8: c119         	beqz	a0, 0x800060ee <core::fmt::Formatter::pad_integral::h0745a9fd037e4d44+0x40>
800060ea: 02b00b13     	li	s6, 0x2b
800060ee: 8155         	srli	a0, a0, 0x15
800060f0: 00a98cb3     	add	s9, s3, a0
800060f4: 028c1513     	slli	a0, s8, 0x28
800060f8: 06055863     	bgez	a0, 0x80006168 <core::fmt::Formatter::pad_integral::h0745a9fd037e4d44+0xba>
800060fc: 02000513     	li	a0, 0x20
80006100: 0aaa7a63     	bgeu	s4, a0, 0x800061b4 <core::fmt::Formatter::pad_integral::h0745a9fd037e4d44+0x106>
80006104: 4501         	li	a0, 0x0
80006106: 000a0f63     	beqz	s4, 0x80006124 <core::fmt::Formatter::pad_integral::h0745a9fd037e4d44+0x76>
8000610a: 014a85b3     	add	a1, s5, s4
8000610e: 8656         	mv	a2, s5
80006110: 00060683     	lb	a3, 0x0(a2)
80006114: 0605         	addi	a2, a2, 0x1
80006116: fc06a693     	slti	a3, a3, -0x40
8000611a: 0016c693     	xori	a3, a3, 0x1
8000611e: 9536         	add	a0, a0, a3
80006120: feb618e3     	bne	a2, a1, 0x80006110 <core::fmt::Formatter::pad_integral::h0745a9fd037e4d44+0x62>
80006124: 9caa         	add	s9, s9, a0
80006126: 014bd903     	lhu	s2, 0x14(s7)
8000612a: 052cf463     	bgeu	s9, s2, 0x80006172 <core::fmt::Formatter::pad_integral::h0745a9fd037e4d44+0xc4>
8000612e: 027c1513     	slli	a0, s8, 0x27
80006132: f9a43823     	sd	s10, -0x70(s0)
80006136: 08054b63     	bltz	a0, 0x800061cc <core::fmt::Formatter::pad_integral::h0745a9fd037e4d44+0x11e>
8000613a: 41990633     	sub	a2, s2, s9
8000613e: 021c1513     	slli	a0, s8, 0x21
80006142: 9179         	srli	a0, a0, 0x3e
80006144: 4585         	li	a1, 0x1
80006146: 1c2e         	slli	s8, s8, 0x2b
80006148: 0ea5c263     	blt	a1, a0, 0x8000622c <core::fmt::Formatter::pad_integral::h0745a9fd037e4d44+0x17e>
8000614c: 10051563     	bnez	a0, 0x80006256 <core::fmt::Formatter::pad_integral::h0745a9fd037e4d44+0x1a8>
80006150: 4d81         	li	s11, 0x0
80006152: a219         	j	0x80006258 <core::fmt::Formatter::pad_integral::h0745a9fd037e4d44+0x1aa>
80006154: 010bac03     	lw	s8, 0x10(s7)
80006158: 00198c93     	addi	s9, s3, 0x1
8000615c: 02d00b13     	li	s6, 0x2d
80006160: 028c1513     	slli	a0, s8, 0x28
80006164: f8054ce3     	bltz	a0, 0x800060fc <core::fmt::Formatter::pad_integral::h0745a9fd037e4d44+0x4e>
80006168: 4a81         	li	s5, 0x0
8000616a: 014bd903     	lhu	s2, 0x14(s7)
8000616e: fd2ce0e3     	bltu	s9, s2, 0x8000612e <core::fmt::Formatter::pad_integral::h0745a9fd037e4d44+0x80>
80006172: 000bbc03     	ld	s8, 0x0(s7)
80006176: 008bb483     	ld	s1, 0x8(s7)
8000617a: 8562         	mv	a0, s8
8000617c: 85a6         	mv	a1, s1
8000617e: 865a         	mv	a2, s6
80006180: 86d6         	mv	a3, s5
80006182: 8752         	mv	a4, s4
80006184: 00000097     	auipc	ra, 0x0
80006188: eca080e7     	jalr	-0x136(ra) <core::fmt::Formatter::pad_integral::write_prefix::hfc34f482b9af976a>
8000618c: ed75         	bnez	a0, 0x80006288 <core::fmt::Formatter::pad_integral::h0745a9fd037e4d44+0x1da>
8000618e: 6c9c         	ld	a5, 0x18(s1)
80006190: 8562         	mv	a0, s8
80006192: 85ea         	mv	a1, s10
80006194: 864e         	mv	a2, s3
80006196: 70e6         	ld	ra, 0x78(sp)
80006198: 7446         	ld	s0, 0x70(sp)
8000619a: 74a6         	ld	s1, 0x68(sp)
8000619c: 7906         	ld	s2, 0x60(sp)
8000619e: 69e6         	ld	s3, 0x58(sp)
800061a0: 6a46         	ld	s4, 0x50(sp)
800061a2: 6aa6         	ld	s5, 0x48(sp)
800061a4: 6b06         	ld	s6, 0x40(sp)
800061a6: 7be2         	ld	s7, 0x38(sp)
800061a8: 7c42         	ld	s8, 0x30(sp)
800061aa: 7ca2         	ld	s9, 0x28(sp)
800061ac: 7d02         	ld	s10, 0x20(sp)
800061ae: 6de2         	ld	s11, 0x18(sp)
800061b0: 6109         	addi	sp, sp, 0x80
800061b2: 8782         	jr	a5
800061b4: 8556         	mv	a0, s5
800061b6: 85d2         	mv	a1, s4
800061b8: 00000097     	auipc	ra, 0x0
800061bc: 30c080e7     	jalr	0x30c(ra) <core::str::count::do_count_chars::h6ce55074ab2fe9d1>
800061c0: 9caa         	add	s9, s9, a0
800061c2: 014bd903     	lhu	s2, 0x14(s7)
800061c6: fb2cf6e3     	bgeu	s9, s2, 0x80006172 <core::fmt::Formatter::pad_integral::h0745a9fd037e4d44+0xc4>
800061ca: b795         	j	0x8000612e <core::fmt::Formatter::pad_integral::h0745a9fd037e4d44+0x80>
800061cc: 010bbd03     	ld	s10, 0x10(s7)
800061d0: 000bbc03     	ld	s8, 0x0(s7)
800061d4: 008bbd83     	ld	s11, 0x8(s7)
800061d8: 9fe00537     	lui	a0, 0x9fe00
800061dc: 200005b7     	lui	a1, 0x20000
800061e0: 00ad7533     	and	a0, s10, a0
800061e4: 03058593     	addi	a1, a1, 0x30
800061e8: 8d4d         	or	a0, a0, a1
800061ea: 00aba823     	sw	a0, 0x10(s7)
800061ee: 8562         	mv	a0, s8
800061f0: 85ee         	mv	a1, s11
800061f2: 865a         	mv	a2, s6
800061f4: 86d6         	mv	a3, s5
800061f6: 8752         	mv	a4, s4
800061f8: 00000097     	auipc	ra, 0x0
800061fc: e56080e7     	jalr	-0x1aa(ra) <core::fmt::Formatter::pad_integral::write_prefix::hfc34f482b9af976a>
80006200: 4a05         	li	s4, 0x1
80006202: e541         	bnez	a0, 0x8000628a <core::fmt::Formatter::pad_integral::h0745a9fd037e4d44+0x1dc>
80006204: 4481         	li	s1, 0x0
80006206: 41990533     	sub	a0, s2, s9
8000620a: 6941         	lui	s2, 0x10
8000620c: 197d         	addi	s2, s2, -0x1
8000620e: 01257ab3     	and	s5, a0, s2
80006212: 0124f533     	and	a0, s1, s2
80006216: 03557463     	bgeu	a0, s5, 0x8000623e <core::fmt::Formatter::pad_integral::h0745a9fd037e4d44+0x190>
8000621a: 020db603     	ld	a2, 0x20(s11)
8000621e: 0485         	addi	s1, s1, 0x1
80006220: 03000593     	li	a1, 0x30
80006224: 8562         	mv	a0, s8
80006226: 9602         	jalr	a2
80006228: d56d         	beqz	a0, 0x80006212 <core::fmt::Formatter::pad_integral::h0745a9fd037e4d44+0x164>
8000622a: a085         	j	0x8000628a <core::fmt::Formatter::pad_integral::h0745a9fd037e4d44+0x1dc>
8000622c: 4589         	li	a1, 0x2
8000622e: 8db2         	mv	s11, a2
80006230: 02b51463     	bne	a0, a1, 0x80006258 <core::fmt::Formatter::pad_integral::h0745a9fd037e4d44+0x1aa>
80006234: 03061513     	slli	a0, a2, 0x30
80006238: 03155d93     	srli	s11, a0, 0x31
8000623c: a831         	j	0x80006258 <core::fmt::Formatter::pad_integral::h0745a9fd037e4d44+0x1aa>
8000623e: 018db683     	ld	a3, 0x18(s11)
80006242: 8562         	mv	a0, s8
80006244: f9043583     	ld	a1, -0x70(s0)
80006248: 864e         	mv	a2, s3
8000624a: 9682         	jalr	a3
8000624c: ed1d         	bnez	a0, 0x8000628a <core::fmt::Formatter::pad_integral::h0745a9fd037e4d44+0x1dc>
8000624e: 4a01         	li	s4, 0x0
80006250: 01abb823     	sd	s10, 0x10(s7)
80006254: a81d         	j	0x8000628a <core::fmt::Formatter::pad_integral::h0745a9fd037e4d44+0x1dc>
80006256: 8db2         	mv	s11, a2
80006258: f8c43423     	sd	a2, -0x78(s0)
8000625c: 4d01         	li	s10, 0x0
8000625e: 02bc5c13     	srli	s8, s8, 0x2b
80006262: 000bbc83     	ld	s9, 0x0(s7)
80006266: 008bbb83     	ld	s7, 0x8(s7)
8000626a: 64c1         	lui	s1, 0x10
8000626c: 14fd         	addi	s1, s1, -0x1
8000626e: 009df933     	and	s2, s11, s1
80006272: 009d7533     	and	a0, s10, s1
80006276: 03257a63     	bgeu	a0, s2, 0x800062aa <core::fmt::Formatter::pad_integral::h0745a9fd037e4d44+0x1fc>
8000627a: 020bb603     	ld	a2, 0x20(s7)
8000627e: 0d05         	addi	s10, s10, 0x1
80006280: 8566         	mv	a0, s9
80006282: 85e2         	mv	a1, s8
80006284: 9602         	jalr	a2
80006286: d575         	beqz	a0, 0x80006272 <core::fmt::Formatter::pad_integral::h0745a9fd037e4d44+0x1c4>
80006288: 4a05         	li	s4, 0x1
8000628a: 8552         	mv	a0, s4
8000628c: 70e6         	ld	ra, 0x78(sp)
8000628e: 7446         	ld	s0, 0x70(sp)
80006290: 74a6         	ld	s1, 0x68(sp)
80006292: 7906         	ld	s2, 0x60(sp)
80006294: 69e6         	ld	s3, 0x58(sp)
80006296: 6a46         	ld	s4, 0x50(sp)
80006298: 6aa6         	ld	s5, 0x48(sp)
8000629a: 6b06         	ld	s6, 0x40(sp)
8000629c: 7be2         	ld	s7, 0x38(sp)
8000629e: 7c42         	ld	s8, 0x30(sp)
800062a0: 7ca2         	ld	s9, 0x28(sp)
800062a2: 7d02         	ld	s10, 0x20(sp)
800062a4: 6de2         	ld	s11, 0x18(sp)
800062a6: 6109         	addi	sp, sp, 0x80
800062a8: 8082         	ret
800062aa: 8566         	mv	a0, s9
800062ac: 85de         	mv	a1, s7
800062ae: 865a         	mv	a2, s6
800062b0: 86d6         	mv	a3, s5
800062b2: 8752         	mv	a4, s4
800062b4: 00000097     	auipc	ra, 0x0
800062b8: d9a080e7     	jalr	-0x266(ra) <core::fmt::Formatter::pad_integral::write_prefix::hfc34f482b9af976a>
800062bc: 4a05         	li	s4, 0x1
800062be: f571         	bnez	a0, 0x8000628a <core::fmt::Formatter::pad_integral::h0745a9fd037e4d44+0x1dc>
800062c0: 018bb683     	ld	a3, 0x18(s7)
800062c4: 8566         	mv	a0, s9
800062c6: f9043583     	ld	a1, -0x70(s0)
800062ca: 864e         	mv	a2, s3
800062cc: 9682         	jalr	a3
800062ce: fd55         	bnez	a0, 0x8000628a <core::fmt::Formatter::pad_integral::h0745a9fd037e4d44+0x1dc>
800062d0: 4481         	li	s1, 0x0
800062d2: f8843503     	ld	a0, -0x78(s0)
800062d6: 41b50533     	sub	a0, a0, s11
800062da: 6941         	lui	s2, 0x10
800062dc: 197d         	addi	s2, s2, -0x1
800062de: 012579b3     	and	s3, a0, s2
800062e2: 0124f533     	and	a0, s1, s2
800062e6: 01353a33     	sltu	s4, a0, s3
800062ea: fb3570e3     	bgeu	a0, s3, 0x8000628a <core::fmt::Formatter::pad_integral::h0745a9fd037e4d44+0x1dc>
800062ee: 020bb603     	ld	a2, 0x20(s7)
800062f2: 0485         	addi	s1, s1, 0x1
800062f4: 8566         	mv	a0, s9
800062f6: 85e2         	mv	a1, s8
800062f8: 9602         	jalr	a2
800062fa: d565         	beqz	a0, 0x800062e2 <core::fmt::Formatter::pad_integral::h0745a9fd037e4d44+0x234>
800062fc: b779         	j	0x8000628a <core::fmt::Formatter::pad_integral::h0745a9fd037e4d44+0x1dc>

00000000800062fe <core::fmt::Formatter::pad::h239e525174ab4a17>:
800062fe: 711d         	addi	sp, sp, -0x60
80006300: ec86         	sd	ra, 0x58(sp)
80006302: e8a2         	sd	s0, 0x50(sp)
80006304: e4a6         	sd	s1, 0x48(sp)
80006306: e0ca         	sd	s2, 0x40(sp)
80006308: fc4e         	sd	s3, 0x38(sp)
8000630a: f852         	sd	s4, 0x30(sp)
8000630c: f456         	sd	s5, 0x28(sp)
8000630e: f05a         	sd	s6, 0x20(sp)
80006310: ec5e         	sd	s7, 0x18(sp)
80006312: e862         	sd	s8, 0x10(sp)
80006314: e466         	sd	s9, 0x8(sp)
80006316: e06a         	sd	s10, 0x0(sp)
80006318: 1080         	addi	s0, sp, 0x60
8000631a: 89b2         	mv	s3, a2
8000631c: 01056483     	lwu	s1, 0x10(a0)
80006320: 18000637     	lui	a2, 0x18000
80006324: 8e65         	and	a2, a2, s1
80006326: 892e         	mv	s2, a1
80006328: ce45         	beqz	a2, 0x800063e0 <core::fmt::Formatter::pad::h239e525174ab4a17+0xe2>
8000632a: 02349593     	slli	a1, s1, 0x23
8000632e: 0405c863     	bltz	a1, 0x8000637e <core::fmt::Formatter::pad::h239e525174ab4a17+0x80>
80006332: 02000593     	li	a1, 0x20
80006336: 0cb9f863     	bgeu	s3, a1, 0x80006406 <core::fmt::Formatter::pad::h239e525174ab4a17+0x108>
8000633a: 4581         	li	a1, 0x0
8000633c: 00098f63     	beqz	s3, 0x8000635a <core::fmt::Formatter::pad::h239e525174ab4a17+0x5c>
80006340: 01390633     	add	a2, s2, s3
80006344: 86ca         	mv	a3, s2
80006346: 00068703     	lb	a4, 0x0(a3)
8000634a: 0685         	addi	a3, a3, 0x1
8000634c: fc072713     	slti	a4, a4, -0x40
80006350: 00174713     	xori	a4, a4, 0x1
80006354: 95ba         	add	a1, a1, a4
80006356: fec698e3     	bne	a3, a2, 0x80006346 <core::fmt::Formatter::pad::h239e525174ab4a17+0x48>
8000635a: 01455603     	lhu	a2, 0x14(a0)
8000635e: 08c5f163     	bgeu	a1, a2, 0x800063e0 <core::fmt::Formatter::pad::h239e525174ab4a17+0xe2>
80006362: 4b81         	li	s7, 0x0
80006364: 40b60b33     	sub	s6, a2, a1
80006368: 02149613     	slli	a2, s1, 0x21
8000636c: 9279         	srli	a2, a2, 0x3e
8000636e: 4685         	li	a3, 0x1
80006370: 02b49593     	slli	a1, s1, 0x2b
80006374: 0ac6c763     	blt	a3, a2, 0x80006422 <core::fmt::Formatter::pad::h239e525174ab4a17+0x124>
80006378: ce45         	beqz	a2, 0x80006430 <core::fmt::Formatter::pad::h239e525174ab4a17+0x132>
8000637a: 8bda         	mv	s7, s6
8000637c: a855         	j	0x80006430 <core::fmt::Formatter::pad::h239e525174ab4a17+0x132>
8000637e: 01655583     	lhu	a1, 0x16(a0)
80006382: 10058563     	beqz	a1, 0x8000648c <core::fmt::Formatter::pad::h239e525174ab4a17+0x18e>
80006386: 013906b3     	add	a3, s2, s3
8000638a: 0e000893     	li	a7, 0xe0
8000638e: 0f000813     	li	a6, 0xf0
80006392: 87ca         	mv	a5, s2
80006394: 862e         	mv	a2, a1
80006396: 4981         	li	s3, 0x0
80006398: a811         	j	0x800063ac <core::fmt::Formatter::pad::h239e525174ab4a17+0xae>
8000639a: 00178713     	addi	a4, a5, 0x1
8000639e: 413787b3     	sub	a5, a5, s3
800063a2: 167d         	addi	a2, a2, -0x1
800063a4: 40f709b3     	sub	s3, a4, a5
800063a8: 87ba         	mv	a5, a4
800063aa: c615         	beqz	a2, 0x800063d6 <core::fmt::Formatter::pad::h239e525174ab4a17+0xd8>
800063ac: 02d78563     	beq	a5, a3, 0x800063d6 <core::fmt::Formatter::pad::h239e525174ab4a17+0xd8>
800063b0: 00078703     	lb	a4, 0x0(a5)
800063b4: fe0753e3     	bgez	a4, 0x8000639a <core::fmt::Formatter::pad::h239e525174ab4a17+0x9c>
800063b8: 0ff77713     	zext.b	a4, a4
800063bc: 01176763     	bltu	a4, a7, 0x800063ca <core::fmt::Formatter::pad::h239e525174ab4a17+0xcc>
800063c0: 01076863     	bltu	a4, a6, 0x800063d0 <core::fmt::Formatter::pad::h239e525174ab4a17+0xd2>
800063c4: 00478713     	addi	a4, a5, 0x4
800063c8: bfd9         	j	0x8000639e <core::fmt::Formatter::pad::h239e525174ab4a17+0xa0>
800063ca: 00278713     	addi	a4, a5, 0x2
800063ce: bfc1         	j	0x8000639e <core::fmt::Formatter::pad::h239e525174ab4a17+0xa0>
800063d0: 00378713     	addi	a4, a5, 0x3
800063d4: b7e9         	j	0x8000639e <core::fmt::Formatter::pad::h239e525174ab4a17+0xa0>
800063d6: 8d91         	sub	a1, a1, a2
800063d8: 01455603     	lhu	a2, 0x14(a0)
800063dc: f8c5e3e3     	bltu	a1, a2, 0x80006362 <core::fmt::Formatter::pad::h239e525174ab4a17+0x64>
800063e0: 650c         	ld	a1, 0x8(a0)
800063e2: 6108         	ld	a0, 0x0(a0)
800063e4: 6d9c         	ld	a5, 0x18(a1)
800063e6: 85ca         	mv	a1, s2
800063e8: 864e         	mv	a2, s3
800063ea: 60e6         	ld	ra, 0x58(sp)
800063ec: 6446         	ld	s0, 0x50(sp)
800063ee: 64a6         	ld	s1, 0x48(sp)
800063f0: 6906         	ld	s2, 0x40(sp)
800063f2: 79e2         	ld	s3, 0x38(sp)
800063f4: 7a42         	ld	s4, 0x30(sp)
800063f6: 7aa2         	ld	s5, 0x28(sp)
800063f8: 7b02         	ld	s6, 0x20(sp)
800063fa: 6be2         	ld	s7, 0x18(sp)
800063fc: 6c42         	ld	s8, 0x10(sp)
800063fe: 6ca2         	ld	s9, 0x8(sp)
80006400: 6d02         	ld	s10, 0x0(sp)
80006402: 6125         	addi	sp, sp, 0x60
80006404: 8782         	jr	a5
80006406: 8a2a         	mv	s4, a0
80006408: 854a         	mv	a0, s2
8000640a: 85ce         	mv	a1, s3
8000640c: 00000097     	auipc	ra, 0x0
80006410: 0b8080e7     	jalr	0xb8(ra) <core::str::count::do_count_chars::h6ce55074ab2fe9d1>
80006414: 85aa         	mv	a1, a0
80006416: 8552         	mv	a0, s4
80006418: 014a5603     	lhu	a2, 0x14(s4)
8000641c: fcc5f2e3     	bgeu	a1, a2, 0x800063e0 <core::fmt::Formatter::pad::h239e525174ab4a17+0xe2>
80006420: b789         	j	0x80006362 <core::fmt::Formatter::pad::h239e525174ab4a17+0x64>
80006422: 4689         	li	a3, 0x2
80006424: 00d61663     	bne	a2, a3, 0x80006430 <core::fmt::Formatter::pad::h239e525174ab4a17+0x132>
80006428: 030b1613     	slli	a2, s6, 0x30
8000642c: 03165b93     	srli	s7, a2, 0x31
80006430: 4481         	li	s1, 0x0
80006432: 02b5da13     	srli	s4, a1, 0x2b
80006436: 00053a83     	ld	s5, 0x0(a0)
8000643a: 00853c03     	ld	s8, 0x8(a0)
8000643e: 6cc1         	lui	s9, 0x10
80006440: 1cfd         	addi	s9, s9, -0x1
80006442: 019bfd33     	and	s10, s7, s9
80006446: 0194f533     	and	a0, s1, s9
8000644a: 01a57a63     	bgeu	a0, s10, 0x8000645e <core::fmt::Formatter::pad::h239e525174ab4a17+0x160>
8000644e: 020c3603     	ld	a2, 0x20(s8)
80006452: 0485         	addi	s1, s1, 0x1
80006454: 8556         	mv	a0, s5
80006456: 85d2         	mv	a1, s4
80006458: 9602         	jalr	a2
8000645a: d575         	beqz	a0, 0x80006446 <core::fmt::Formatter::pad::h239e525174ab4a17+0x148>
8000645c: a801         	j	0x8000646c <core::fmt::Formatter::pad::h239e525174ab4a17+0x16e>
8000645e: 018c3683     	ld	a3, 0x18(s8)
80006462: 8556         	mv	a0, s5
80006464: 85ca         	mv	a1, s2
80006466: 864e         	mv	a2, s3
80006468: 9682         	jalr	a3
8000646a: c905         	beqz	a0, 0x8000649a <core::fmt::Formatter::pad::h239e525174ab4a17+0x19c>
8000646c: 4905         	li	s2, 0x1
8000646e: 854a         	mv	a0, s2
80006470: 60e6         	ld	ra, 0x58(sp)
80006472: 6446         	ld	s0, 0x50(sp)
80006474: 64a6         	ld	s1, 0x48(sp)
80006476: 6906         	ld	s2, 0x40(sp)
80006478: 79e2         	ld	s3, 0x38(sp)
8000647a: 7a42         	ld	s4, 0x30(sp)
8000647c: 7aa2         	ld	s5, 0x28(sp)
8000647e: 7b02         	ld	s6, 0x20(sp)
80006480: 6be2         	ld	s7, 0x18(sp)
80006482: 6c42         	ld	s8, 0x10(sp)
80006484: 6ca2         	ld	s9, 0x8(sp)
80006486: 6d02         	ld	s10, 0x0(sp)
80006488: 6125         	addi	sp, sp, 0x60
8000648a: 8082         	ret
8000648c: 4981         	li	s3, 0x0
8000648e: 85ae         	mv	a1, a1
80006490: 01455603     	lhu	a2, 0x14(a0)
80006494: ecc5e7e3     	bltu	a1, a2, 0x80006362 <core::fmt::Formatter::pad::h239e525174ab4a17+0x64>
80006498: b7a1         	j	0x800063e0 <core::fmt::Formatter::pad::h239e525174ab4a17+0xe2>
8000649a: 4481         	li	s1, 0x0
8000649c: 417b0533     	sub	a0, s6, s7
800064a0: 69c1         	lui	s3, 0x10
800064a2: 19fd         	addi	s3, s3, -0x1
800064a4: 01357b33     	and	s6, a0, s3
800064a8: 0134f533     	and	a0, s1, s3
800064ac: 01653933     	sltu	s2, a0, s6
800064b0: fb657fe3     	bgeu	a0, s6, 0x8000646e <core::fmt::Formatter::pad::h239e525174ab4a17+0x170>
800064b4: 020c3603     	ld	a2, 0x20(s8)
800064b8: 0485         	addi	s1, s1, 0x1
800064ba: 8556         	mv	a0, s5
800064bc: 85d2         	mv	a1, s4
800064be: 9602         	jalr	a2
800064c0: d565         	beqz	a0, 0x800064a8 <core::fmt::Formatter::pad::h239e525174ab4a17+0x1aa>
800064c2: b775         	j	0x8000646e <core::fmt::Formatter::pad::h239e525174ab4a17+0x170>

00000000800064c4 <core::str::count::do_count_chars::h6ce55074ab2fe9d1>:
800064c4: 1141         	addi	sp, sp, -0x10
800064c6: e422         	sd	s0, 0x8(sp)
800064c8: 862a         	mv	a2, a0
800064ca: 00750693     	addi	a3, a0, 0x7
800064ce: 9ae1         	andi	a3, a3, -0x8
800064d0: 40a68333     	sub	t1, a3, a0
800064d4: 0265f263     	bgeu	a1, t1, 0x800064f8 <core::str::count::do_count_chars::h6ce55074ab2fe9d1+0x34>
800064d8: 4501         	li	a0, 0x0
800064da: cd81         	beqz	a1, 0x800064f2 <core::str::count::do_count_chars::h6ce55074ab2fe9d1+0x2e>
800064dc: 95b2         	add	a1, a1, a2
800064de: 00060683     	lb	a3, 0x0(a2)
800064e2: 0605         	addi	a2, a2, 0x1
800064e4: fc06a693     	slti	a3, a3, -0x40
800064e8: 0016c693     	xori	a3, a3, 0x1
800064ec: 9536         	add	a0, a0, a3
800064ee: feb618e3     	bne	a2, a1, 0x800064de <core::str::count::do_count_chars::h6ce55074ab2fe9d1+0x1a>
800064f2: 6422         	ld	s0, 0x8(sp)
800064f4: 0141         	addi	sp, sp, 0x10
800064f6: 8082         	ret
800064f8: 40658733     	sub	a4, a1, t1
800064fc: 00375393     	srli	t2, a4, 0x3
80006500: fc038ce3     	beqz	t2, 0x800064d8 <core::str::count::do_count_chars::h6ce55074ab2fe9d1+0x14>
80006504: 9332         	add	t1, t1, a2
80006506: 00777813     	andi	a6, a4, 0x7
8000650a: 4501         	li	a0, 0x0
8000650c: 00c68c63     	beq	a3, a2, 0x80006524 <core::str::count::do_count_chars::h6ce55074ab2fe9d1+0x60>
80006510: 00060583     	lb	a1, 0x0(a2)
80006514: 0605         	addi	a2, a2, 0x1
80006516: fc05a593     	slti	a1, a1, -0x40
8000651a: 0015c593     	xori	a1, a1, 0x1
8000651e: 952e         	add	a0, a0, a1
80006520: fe6618e3     	bne	a2, t1, 0x80006510 <core::str::count::do_count_chars::h6ce55074ab2fe9d1+0x4c>
80006524: 4581         	li	a1, 0x0
80006526: 02080363     	beqz	a6, 0x8000654c <core::str::count::do_count_chars::h6ce55074ab2fe9d1+0x88>
8000652a: 96c2         	add	a3, a3, a6
8000652c: 5645         	li	a2, -0xf
8000652e: 8205         	srli	a2, a2, 0x1
80006530: 8f71         	and	a4, a4, a2
80006532: 00e30633     	add	a2, t1, a4
80006536: 96ba         	add	a3, a3, a4
80006538: 00060703     	lb	a4, 0x0(a2)
8000653c: 0605         	addi	a2, a2, 0x1
8000653e: fc072713     	slti	a4, a4, -0x40
80006542: 00174713     	xori	a4, a4, 0x1
80006546: 95ba         	add	a1, a1, a4
80006548: fed618e3     	bne	a2, a3, 0x80006538 <core::str::count::do_count_chars::h6ce55074ab2fe9d1+0x74>
8000654c: 01010637     	lui	a2, 0x1010
80006550: 00ff06b7     	lui	a3, 0xff0
80006554: 6741         	lui	a4, 0x10
80006556: 10160613     	addi	a2, a2, 0x101
8000655a: 0ff68893     	addi	a7, a3, 0xff
8000655e: 00170813     	addi	a6, a4, 0x1
80006562: 02061713     	slli	a4, a2, 0x20
80006566: 00e60f33     	add	t5, a2, a4
8000656a: 02089613     	slli	a2, a7, 0x20
8000656e: 98b2         	add	a7, a7, a2
80006570: 02081613     	slli	a2, a6, 0x20
80006574: 9832         	add	a6, a6, a2
80006576: 952e         	add	a0, a0, a1
80006578: a015         	j	0x8000659c <core::str::count::do_count_chars::h6ce55074ab2fe9d1+0xd8>
8000657a: 9372         	add	t1, t1, t3
8000657c: 405383b3     	sub	t2, t2, t0
80006580: 0032f793     	andi	a5, t0, 0x3
80006584: 011ff5b3     	and	a1, t6, a7
80006588: 008fd613     	srli	a2, t6, 0x8
8000658c: 01167633     	and	a2, a2, a7
80006590: 95b2         	add	a1, a1, a2
80006592: 030585b3     	mul	a1, a1, a6
80006596: 91c1         	srli	a1, a1, 0x30
80006598: 952e         	add	a0, a0, a1
8000659a: efad         	bnez	a5, 0x80006614 <core::str::count::do_count_chars::h6ce55074ab2fe9d1+0x150>
8000659c: f4038be3     	beqz	t2, 0x800064f2 <core::str::count::do_count_chars::h6ce55074ab2fe9d1+0x2e>
800065a0: 8e1a         	mv	t3, t1
800065a2: 0c000593     	li	a1, 0xc0
800065a6: 829e         	mv	t0, t2
800065a8: 00b3e463     	bltu	t2, a1, 0x800065b0 <core::str::count::do_count_chars::h6ce55074ab2fe9d1+0xec>
800065ac: 0c000293     	li	t0, 0xc0
800065b0: 00329313     	slli	t1, t0, 0x3
800065b4: 4f81         	li	t6, 0x0
800065b6: 7e037793     	andi	a5, t1, 0x7e0
800065ba: d3e1         	beqz	a5, 0x8000657a <core::str::count::do_count_chars::h6ce55074ab2fe9d1+0xb6>
800065bc: 00fe0eb3     	add	t4, t3, a5
800065c0: 85f2         	mv	a1, t3
800065c2: 6194         	ld	a3, 0x0(a1)
800065c4: 659c         	ld	a5, 0x8(a1)
800065c6: 6998         	ld	a4, 0x10(a1)
800065c8: 6d90         	ld	a2, 0x18(a1)
800065ca: fff6c413     	not	s0, a3
800065ce: 8299         	srli	a3, a3, 0x6
800065d0: 801d         	srli	s0, s0, 0x7
800065d2: 8ec1         	or	a3, a3, s0
800065d4: fff7c413     	not	s0, a5
800065d8: 8399         	srli	a5, a5, 0x6
800065da: 801d         	srli	s0, s0, 0x7
800065dc: 8fc1         	or	a5, a5, s0
800065de: fff74413     	not	s0, a4
800065e2: 8319         	srli	a4, a4, 0x6
800065e4: 801d         	srli	s0, s0, 0x7
800065e6: 8f41         	or	a4, a4, s0
800065e8: fff64413     	not	s0, a2
800065ec: 8219         	srli	a2, a2, 0x6
800065ee: 801d         	srli	s0, s0, 0x7
800065f0: 8e41         	or	a2, a2, s0
800065f2: 01e6f6b3     	and	a3, a3, t5
800065f6: 96fe         	add	a3, a3, t6
800065f8: 01e7f7b3     	and	a5, a5, t5
800065fc: 01e77733     	and	a4, a4, t5
80006600: 01e67fb3     	and	t6, a2, t5
80006604: 973e         	add	a4, a4, a5
80006606: 96ba         	add	a3, a3, a4
80006608: 02058593     	addi	a1, a1, 0x20
8000660c: 9fb6         	add	t6, t6, a3
8000660e: fbd59ae3     	bne	a1, t4, 0x800065c2 <core::str::count::do_count_chars::h6ce55074ab2fe9d1+0xfe>
80006612: b7a5         	j	0x8000657a <core::str::count::do_count_chars::h6ce55074ab2fe9d1+0xb6>
80006614: 4581         	li	a1, 0x0
80006616: 0fc2f613     	andi	a2, t0, 0xfc
8000661a: 060e         	slli	a2, a2, 0x3
8000661c: 00ce06b3     	add	a3, t3, a2
80006620: 00379613     	slli	a2, a5, 0x3
80006624: 6298         	ld	a4, 0x0(a3)
80006626: 06a1         	addi	a3, a3, 0x8
80006628: fff74793     	not	a5, a4
8000662c: 8319         	srli	a4, a4, 0x6
8000662e: 839d         	srli	a5, a5, 0x7
80006630: 8f5d         	or	a4, a4, a5
80006632: 01e77733     	and	a4, a4, t5
80006636: 1661         	addi	a2, a2, -0x8
80006638: 95ba         	add	a1, a1, a4
8000663a: f66d         	bnez	a2, 0x80006624 <core::str::count::do_count_chars::h6ce55074ab2fe9d1+0x160>
8000663c: 0115f633     	and	a2, a1, a7
80006640: 81a1         	srli	a1, a1, 0x8
80006642: 0115f5b3     	and	a1, a1, a7
80006646: 95b2         	add	a1, a1, a2
80006648: 030585b3     	mul	a1, a1, a6
8000664c: 91c1         	srli	a1, a1, 0x30
8000664e: 952e         	add	a0, a0, a1
80006650: 6422         	ld	s0, 0x8(sp)
80006652: 0141         	addi	sp, sp, 0x10
80006654: 8082         	ret

0000000080006656 <core::panicking::panic_const::panic_const_div_by_zero::hcfde4c26e8ecfc4b>:
80006656: 1141         	addi	sp, sp, -0x10
80006658: e406         	sd	ra, 0x8(sp)
8000665a: e022         	sd	s0, 0x0(sp)
8000665c: 0800         	addi	s0, sp, 0x10
8000665e: 862a         	mv	a2, a0

0000000080006660 <.Lpcrel_hi967>:
80006660: 00003517     	auipc	a0, 0x3
80006664: 9f850513     	addi	a0, a0, -0x608
80006668: 03300593     	li	a1, 0x33
8000666c: 00000097     	auipc	ra, 0x0
80006670: 14c080e7     	jalr	0x14c(ra) <core::panicking::panic_fmt::h767dc8ac4dd44648>

0000000080006674 <core::panicking::panic_const::panic_const_add_overflow::h67cba067093910f8>:
80006674: 1141         	addi	sp, sp, -0x10
80006676: e406         	sd	ra, 0x8(sp)
80006678: e022         	sd	s0, 0x0(sp)
8000667a: 0800         	addi	s0, sp, 0x10
8000667c: 862a         	mv	a2, a0

000000008000667e <.Lpcrel_hi970>:
8000667e: 00003517     	auipc	a0, 0x3
80006682: 97c50513     	addi	a0, a0, -0x684
80006686: 03900593     	li	a1, 0x39
8000668a: 00000097     	auipc	ra, 0x0
8000668e: 12e080e7     	jalr	0x12e(ra) <core::panicking::panic_fmt::h767dc8ac4dd44648>

0000000080006692 <core::panicking::panic_const::panic_const_mul_overflow::h67897feae7531d51>:
80006692: 1141         	addi	sp, sp, -0x10
80006694: e406         	sd	ra, 0x8(sp)
80006696: e022         	sd	s0, 0x0(sp)
80006698: 0800         	addi	s0, sp, 0x10
8000669a: 862a         	mv	a2, a0

000000008000669c <.Lpcrel_hi972>:
8000669c: 00003517     	auipc	a0, 0x3
800066a0: 97a50513     	addi	a0, a0, -0x686
800066a4: 04300593     	li	a1, 0x43
800066a8: 00000097     	auipc	ra, 0x0
800066ac: 110080e7     	jalr	0x110(ra) <core::panicking::panic_fmt::h767dc8ac4dd44648>

00000000800066b0 <core::panicking::panic_const::panic_const_sub_overflow::hccc965ba9198de7c>:
800066b0: 1141         	addi	sp, sp, -0x10
800066b2: e406         	sd	ra, 0x8(sp)
800066b4: e022         	sd	s0, 0x0(sp)
800066b6: 0800         	addi	s0, sp, 0x10
800066b8: 862a         	mv	a2, a0

00000000800066ba <.Lpcrel_hi977>:
800066ba: 00003517     	auipc	a0, 0x3
800066be: 97d50513     	addi	a0, a0, -0x683
800066c2: 04300593     	li	a1, 0x43
800066c6: 00000097     	auipc	ra, 0x0
800066ca: 0f2080e7     	jalr	0xf2(ra) <core::panicking::panic_fmt::h767dc8ac4dd44648>

00000000800066ce <core::panicking::panic_nounwind::hf19a354d0b2d9097>:
800066ce: 1141         	addi	sp, sp, -0x10
800066d0: e406         	sd	ra, 0x8(sp)
800066d2: e022         	sd	s0, 0x0(sp)
800066d4: 0800         	addi	s0, sp, 0x10
800066d6: 0586         	slli	a1, a1, 0x1
800066d8: 0585         	addi	a1, a1, 0x1

00000000800066da <.Lpcrel_hi992>:
800066da: 00003617     	auipc	a2, 0x3
800066de: 99e60693     	addi	a3, a2, -0x662
800066e2: 4601         	li	a2, 0x0
800066e4: 00000097     	auipc	ra, 0x0
800066e8: 044080e7     	jalr	0x44(ra) <core::panicking::panic_nounwind_fmt::h2e018e50a8d3bc73>

00000000800066ec <core::panicking::panic_bounds_check::h6aaee0d15e0261eb>:
800066ec: 7139         	addi	sp, sp, -0x40
800066ee: fc06         	sd	ra, 0x38(sp)
800066f0: f822         	sd	s0, 0x30(sp)
800066f2: 0080         	addi	s0, sp, 0x40
800066f4: f0040713     	addi	a4, s0, -0x100
800066f8: e368         	sd	a0, 0xc0(a4)
800066fa: e76c         	sd	a1, 0xc8(a4)
800066fc: fc840513     	addi	a0, s0, -0x38

0000000080006700 <.Lpcrel_hi997>:
80006700: fffff597     	auipc	a1, 0xfffff
80006704: fc040693     	addi	a3, s0, -0x40
80006708: 67c58593     	addi	a1, a1, 0x67c
8000670c: eb68         	sd	a0, 0xd0(a4)
8000670e: ef6c         	sd	a1, 0xd8(a4)
80006710: f374         	sd	a3, 0xe0(a4)
80006712: f76c         	sd	a1, 0xe8(a4)

0000000080006714 <.Lpcrel_hi998>:
80006714: 00000517     	auipc	a0, 0x0
80006718: 68f50513     	addi	a0, a0, 0x68f
8000671c: fd040593     	addi	a1, s0, -0x30
80006720: 00000097     	auipc	ra, 0x0
80006724: 098080e7     	jalr	0x98(ra) <core::panicking::panic_fmt::h767dc8ac4dd44648>

0000000080006728 <core::panicking::panic_nounwind_fmt::h2e018e50a8d3bc73>:
80006728: 7139         	addi	sp, sp, -0x40
8000672a: fc06         	sd	ra, 0x38(sp)
8000672c: f822         	sd	s0, 0x30(sp)
8000672e: 0080         	addi	s0, sp, 0x40
80006730: fca43423     	sd	a0, -0x38(s0)
80006734: fcb43823     	sd	a1, -0x30(s0)
80006738: fc840513     	addi	a0, s0, -0x38
8000673c: fca43c23     	sd	a0, -0x28(s0)
80006740: fed43023     	sd	a3, -0x20(s0)
80006744: fe040423     	sb	zero, -0x18(s0)
80006748: fec404a3     	sb	a2, -0x17(s0)
8000674c: fd840513     	addi	a0, s0, -0x28
80006750: ffffa097     	auipc	ra, 0xffffa
80006754: f64080e7     	jalr	-0x9c(ra) <__user_program_end>

0000000080006758 <core::panicking::panic_null_pointer_dereference::hbac6411af4f2e916>:
80006758: 1141         	addi	sp, sp, -0x10
8000675a: e406         	sd	ra, 0x8(sp)
8000675c: e022         	sd	s0, 0x0(sp)
8000675e: 0800         	addi	s0, sp, 0x10
80006760: 86aa         	mv	a3, a0

0000000080006762 <.Lpcrel_hi1010>:
80006762: 00003517     	auipc	a0, 0x3
80006766: 92e50513     	addi	a0, a0, -0x6d2
8000676a: 04300593     	li	a1, 0x43
8000676e: 4601         	li	a2, 0x0
80006770: 00000097     	auipc	ra, 0x0
80006774: fb8080e7     	jalr	-0x48(ra) <core::panicking::panic_nounwind_fmt::h2e018e50a8d3bc73>

0000000080006778 <core::panicking::panic_misaligned_pointer_dereference::hda85f7fb51d959f0>:
80006778: 7139         	addi	sp, sp, -0x40
8000677a: fc06         	sd	ra, 0x38(sp)
8000677c: f822         	sd	s0, 0x30(sp)
8000677e: 0080         	addi	s0, sp, 0x40
80006780: 86b2         	mv	a3, a2
80006782: f0040713     	addi	a4, s0, -0x100
80006786: e368         	sd	a0, 0xc0(a4)
80006788: e76c         	sd	a1, 0xc8(a4)
8000678a: fc040513     	addi	a0, s0, -0x40

000000008000678e <.Lpcrel_hi1013>:
8000678e: fffff597     	auipc	a1, 0xfffff
80006792: fc840613     	addi	a2, s0, -0x38
80006796: 63a58593     	addi	a1, a1, 0x63a
8000679a: eb68         	sd	a0, 0xd0(a4)
8000679c: ef6c         	sd	a1, 0xd8(a4)
8000679e: f370         	sd	a2, 0xe0(a4)
800067a0: f76c         	sd	a1, 0xe8(a4)

00000000800067a2 <.Lpcrel_hi1014>:
800067a2: 00003517     	auipc	a0, 0x3
800067a6: 90f50513     	addi	a0, a0, -0x6f1
800067aa: fd040593     	addi	a1, s0, -0x30
800067ae: 4601         	li	a2, 0x0
800067b0: 00000097     	auipc	ra, 0x0
800067b4: f78080e7     	jalr	-0x88(ra) <core::panicking::panic_nounwind_fmt::h2e018e50a8d3bc73>

00000000800067b8 <core::panicking::panic_fmt::h767dc8ac4dd44648>:
800067b8: 7139         	addi	sp, sp, -0x40
800067ba: fc06         	sd	ra, 0x38(sp)
800067bc: f822         	sd	s0, 0x30(sp)
800067be: 0080         	addi	s0, sp, 0x40
800067c0: fca43423     	sd	a0, -0x38(s0)
800067c4: fcb43823     	sd	a1, -0x30(s0)
800067c8: fc840513     	addi	a0, s0, -0x38
800067cc: 4585         	li	a1, 0x1
800067ce: fca43c23     	sd	a0, -0x28(s0)
800067d2: fec43023     	sd	a2, -0x20(s0)
800067d6: feb41423     	sh	a1, -0x18(s0)
800067da: fd840513     	addi	a0, s0, -0x28
800067de: ffffa097     	auipc	ra, 0xffffa
800067e2: ed6080e7     	jalr	-0x12a(ra) <__user_program_end>

00000000800067e6 <_$LT$core..panic..panic_info..PanicInfo$u20$as$u20$core..fmt..Display$GT$::fmt::hcccb3fed5b673506>:
800067e6: 7119         	addi	sp, sp, -0x80
800067e8: fc86         	sd	ra, 0x78(sp)
800067ea: f8a2         	sd	s0, 0x70(sp)
800067ec: f4a6         	sd	s1, 0x68(sp)
800067ee: f0ca         	sd	s2, 0x60(sp)
800067f0: ecce         	sd	s3, 0x58(sp)
800067f2: e8d2         	sd	s4, 0x50(sp)
800067f4: e4d6         	sd	s5, 0x48(sp)
800067f6: 0100         	addi	s0, sp, 0x80
800067f8: 0085b903     	ld	s2, 0x8(a1)
800067fc: 6184         	ld	s1, 0x0(a1)
800067fe: 01893a83     	ld	s5, 0x18(s2)
80006802: 89aa         	mv	s3, a0

0000000080006804 <.Lpcrel_hi1258>:
80006804: 00003517     	auipc	a0, 0x3
80006808: 90050593     	addi	a1, a0, -0x700
8000680c: 4631         	li	a2, 0xc
8000680e: 8526         	mv	a0, s1
80006810: 9a82         	jalr	s5
80006812: 4a05         	li	s4, 0x1
80006814: e151         	bnez	a0, 0x80006898 <.Lpcrel_hi1262+0x26>
80006816: 0089b503     	ld	a0, 0x8(s3)
8000681a: f8840813     	addi	a6, s0, -0x78

000000008000681e <.Lpcrel_hi1259>:
8000681e: fffff617     	auipc	a2, 0xfffff

0000000080006822 <.Lpcrel_hi1260>:
80006822: fffff697     	auipc	a3, 0xfffff
80006826: 0f260613     	addi	a2, a2, 0xf2
8000682a: 50e68693     	addi	a3, a3, 0x50e
8000682e: 6118         	ld	a4, 0x0(a0)
80006830: 651c         	ld	a5, 0x8(a0)
80006832: 01050593     	addi	a1, a0, 0x10
80006836: 0551         	addi	a0, a0, 0x14
80006838: f9043c23     	sd	a6, -0x68(s0)
8000683c: fac43023     	sd	a2, -0x60(s0)
80006840: fab43423     	sd	a1, -0x58(s0)
80006844: fad43823     	sd	a3, -0x50(s0)
80006848: f8e43423     	sd	a4, -0x78(s0)
8000684c: f8f43823     	sd	a5, -0x70(s0)
80006850: faa43c23     	sd	a0, -0x48(s0)
80006854: fcd43023     	sd	a3, -0x40(s0)

0000000080006858 <.Lpcrel_hi1261>:
80006858: 00001517     	auipc	a0, 0x1
8000685c: 83d50613     	addi	a2, a0, -0x7c3
80006860: f9840693     	addi	a3, s0, -0x68
80006864: 8526         	mv	a0, s1
80006866: 85ca         	mv	a1, s2
80006868: fffff097     	auipc	ra, 0xfffff
8000686c: 614080e7     	jalr	0x614(ra) <core::fmt::write::hfd17e9e8e823b619>
80006870: e505         	bnez	a0, 0x80006898 <.Lpcrel_hi1262+0x26>

0000000080006872 <.Lpcrel_hi1262>:
80006872: 00003517     	auipc	a0, 0x3
80006876: 89e50593     	addi	a1, a0, -0x762
8000687a: 4609         	li	a2, 0x2
8000687c: 8526         	mv	a0, s1
8000687e: 9a82         	jalr	s5
80006880: ed01         	bnez	a0, 0x80006898 <.Lpcrel_hi1262+0x26>
80006882: 0009b503     	ld	a0, 0x0(s3)
80006886: 6110         	ld	a2, 0x0(a0)
80006888: 6514         	ld	a3, 0x8(a0)
8000688a: 8526         	mv	a0, s1
8000688c: 85ca         	mv	a1, s2
8000688e: fffff097     	auipc	ra, 0xfffff
80006892: 5ee080e7     	jalr	0x5ee(ra) <core::fmt::write::hfd17e9e8e823b619>
80006896: 8a2a         	mv	s4, a0
80006898: 8552         	mv	a0, s4
8000689a: 70e6         	ld	ra, 0x78(sp)
8000689c: 7446         	ld	s0, 0x70(sp)
8000689e: 74a6         	ld	s1, 0x68(sp)
800068a0: 7906         	ld	s2, 0x60(sp)
800068a2: 69e6         	ld	s3, 0x58(sp)
800068a4: 6a46         	ld	s4, 0x50(sp)
800068a6: 6aa6         	ld	s5, 0x48(sp)
800068a8: 6109         	addi	sp, sp, 0x80
800068aa: 8082         	ret

00000000800068ac <memset>:
800068ac: 46c1         	li	a3, 0x10
800068ae: 06d66463     	bltu	a2, a3, 0x80006916 <memset+0x6a>
800068b2: 40a006bb     	negw	a3, a0
800068b6: 0076f813     	andi	a6, a3, 0x7
800068ba: 01050733     	add	a4, a0, a6
800068be: 00e57963     	bgeu	a0, a4, 0x800068d0 <memset+0x24>
800068c2: 87c2         	mv	a5, a6
800068c4: 86aa         	mv	a3, a0
800068c6: 00b68023     	sb	a1, 0x0(a3)
800068ca: 17fd         	addi	a5, a5, -0x1
800068cc: 0685         	addi	a3, a3, 0x1
800068ce: ffe5         	bnez	a5, 0x800068c6 <memset+0x1a>
800068d0: 41060633     	sub	a2, a2, a6
800068d4: ff867693     	andi	a3, a2, -0x8
800068d8: 96ba         	add	a3, a3, a4
800068da: 02d77363     	bgeu	a4, a3, 0x80006900 <memset+0x54>
800068de: 03859813     	slli	a6, a1, 0x38
800068e2: 101017b7     	lui	a5, 0x10101
800068e6: 0792         	slli	a5, a5, 0x4
800068e8: 10078793     	addi	a5, a5, 0x100
800068ec: 02f83833     	mulhu	a6, a6, a5
800068f0: 02081793     	slli	a5, a6, 0x20
800068f4: 0107e7b3     	or	a5, a5, a6
800068f8: e31c         	sd	a5, 0x0(a4)
800068fa: 0721         	addi	a4, a4, 0x8
800068fc: fed76ee3     	bltu	a4, a3, 0x800068f8 <memset+0x4c>
80006900: 8a1d         	andi	a2, a2, 0x7
80006902: 00c68733     	add	a4, a3, a2
80006906: 00e6f763     	bgeu	a3, a4, 0x80006914 <memset+0x68>
8000690a: 00b68023     	sb	a1, 0x0(a3)
8000690e: 167d         	addi	a2, a2, -0x1
80006910: 0685         	addi	a3, a3, 0x1
80006912: fe65         	bnez	a2, 0x8000690a <memset+0x5e>
80006914: 8082         	ret
80006916: 86aa         	mv	a3, a0
80006918: 00c50733     	add	a4, a0, a2
8000691c: fee567e3     	bltu	a0, a4, 0x8000690a <memset+0x5e>
80006920: bfd5         	j	0x80006914 <memset+0x68>

0000000080006922 <memcpy>:
80006922: 00000317     	auipc	t1, 0x0
80006926: 00830067     	jr	0x8(t1) <compiler_builtins::mem::memcpy::hee8635bcefabc13a>

000000008000692a <compiler_builtins::mem::memcpy::hee8635bcefabc13a>:
8000692a: 1101         	addi	sp, sp, -0x20
8000692c: ec22         	sd	s0, 0x18(sp)
8000692e: e826         	sd	s1, 0x10(sp)
80006930: 46c1         	li	a3, 0x10
80006932: 06d66363     	bltu	a2, a3, 0x80006998 <compiler_builtins::mem::memcpy::hee8635bcefabc13a+0x6e>
80006936: 40a006bb     	negw	a3, a0
8000693a: 0076f813     	andi	a6, a3, 0x7
8000693e: 01050fb3     	add	t6, a0, a6
80006942: 01f57d63     	bgeu	a0, t6, 0x8000695c <compiler_builtins::mem::memcpy::hee8635bcefabc13a+0x32>
80006946: 8742         	mv	a4, a6
80006948: 86aa         	mv	a3, a0
8000694a: 87ae         	mv	a5, a1
8000694c: 0007c883     	lbu	a7, 0x0(a5)
80006950: 177d         	addi	a4, a4, -0x1
80006952: 01168023     	sb	a7, 0x0(a3)
80006956: 0685         	addi	a3, a3, 0x1
80006958: 0785         	addi	a5, a5, 0x1
8000695a: fb6d         	bnez	a4, 0x8000694c <compiler_builtins::mem::memcpy::hee8635bcefabc13a+0x22>
8000695c: 010584b3     	add	s1, a1, a6
80006960: 41060633     	sub	a2, a2, a6
80006964: ff867713     	andi	a4, a2, -0x8
80006968: 0074f813     	andi	a6, s1, 0x7
8000696c: 00ef86b3     	add	a3, t6, a4
80006970: 04081563     	bnez	a6, 0x800069ba <compiler_builtins::mem::memcpy::hee8635bcefabc13a+0x90>
80006974: 00dffa63     	bgeu	t6, a3, 0x80006988 <compiler_builtins::mem::memcpy::hee8635bcefabc13a+0x5e>
80006978: 87a6         	mv	a5, s1
8000697a: 638c         	ld	a1, 0x0(a5)
8000697c: 00bfb023     	sd	a1, 0x0(t6)
80006980: 0fa1         	addi	t6, t6, 0x8
80006982: 07a1         	addi	a5, a5, 0x8
80006984: fedfebe3     	bltu	t6, a3, 0x8000697a <compiler_builtins::mem::memcpy::hee8635bcefabc13a+0x50>
80006988: 00e485b3     	add	a1, s1, a4
8000698c: 8a1d         	andi	a2, a2, 0x7
8000698e: 00c68733     	add	a4, a3, a2
80006992: 00e6e863     	bltu	a3, a4, 0x800069a2 <compiler_builtins::mem::memcpy::hee8635bcefabc13a+0x78>
80006996: a831         	j	0x800069b2 <compiler_builtins::mem::memcpy::hee8635bcefabc13a+0x88>
80006998: 86aa         	mv	a3, a0
8000699a: 00c50733     	add	a4, a0, a2
8000699e: 00e57a63     	bgeu	a0, a4, 0x800069b2 <compiler_builtins::mem::memcpy::hee8635bcefabc13a+0x88>
800069a2: 0005c703     	lbu	a4, 0x0(a1)
800069a6: 167d         	addi	a2, a2, -0x1
800069a8: 00e68023     	sb	a4, 0x0(a3)
800069ac: 0685         	addi	a3, a3, 0x1
800069ae: 0585         	addi	a1, a1, 0x1
800069b0: fa6d         	bnez	a2, 0x800069a2 <compiler_builtins::mem::memcpy::hee8635bcefabc13a+0x78>
800069b2: 6462         	ld	s0, 0x18(sp)
800069b4: 64c2         	ld	s1, 0x10(sp)
800069b6: 6105         	addi	sp, sp, 0x20
800069b8: 8082         	ret
800069ba: 4881         	li	a7, 0x0
800069bc: 47a1         	li	a5, 0x8
800069be: e402         	sd	zero, 0x8(sp)
800069c0: 41078333     	sub	t1, a5, a6
800069c4: 00810293     	addi	t0, sp, 0x8
800069c8: 00137793     	andi	a5, t1, 0x1
800069cc: 0102e2b3     	or	t0, t0, a6
800069d0: ebb1         	bnez	a5, 0x80006a24 <compiler_builtins::mem::memcpy::hee8635bcefabc13a+0xfa>
800069d2: 00237793     	andi	a5, t1, 0x2
800069d6: efb9         	bnez	a5, 0x80006a34 <compiler_builtins::mem::memcpy::hee8635bcefabc13a+0x10a>
800069d8: 00437793     	andi	a5, t1, 0x4
800069dc: eba5         	bnez	a5, 0x80006a4c <compiler_builtins::mem::memcpy::hee8635bcefabc13a+0x122>
800069de: 63a2         	ld	t2, 0x8(sp)
800069e0: 00381893     	slli	a7, a6, 0x3
800069e4: 008f8793     	addi	a5, t6, 0x8
800069e8: 41048f33     	sub	t5, s1, a6
800069ec: 06d7ff63     	bgeu	a5, a3, 0x80006a6a <compiler_builtins::mem::memcpy::hee8635bcefabc13a+0x140>
800069f0: 411007bb     	negw	a5, a7
800069f4: 0387fe13     	andi	t3, a5, 0x38
800069f8: 008f3303     	ld	t1, 0x8(t5)
800069fc: 008f0e93     	addi	t4, t5, 0x8
80006a00: 0113d3b3     	srl	t2, t2, a7
80006a04: 008f8293     	addi	t0, t6, 0x8
80006a08: 01c317b3     	sll	a5, t1, t3
80006a0c: 0077e7b3     	or	a5, a5, t2
80006a10: 010f8413     	addi	s0, t6, 0x10
80006a14: 00ffb023     	sd	a5, 0x0(t6)
80006a18: 8f96         	mv	t6, t0
80006a1a: 839a         	mv	t2, t1
80006a1c: 8f76         	mv	t5, t4
80006a1e: fcd46de3     	bltu	s0, a3, 0x800069f8 <compiler_builtins::mem::memcpy::hee8635bcefabc13a+0xce>
80006a22: a0b9         	j	0x80006a70 <compiler_builtins::mem::memcpy::hee8635bcefabc13a+0x146>
80006a24: 0004c783     	lbu	a5, 0x0(s1)
80006a28: 00f28023     	sb	a5, 0x0(t0)
80006a2c: 4885         	li	a7, 0x1
80006a2e: 00237793     	andi	a5, t1, 0x2
80006a32: d3dd         	beqz	a5, 0x800069d8 <compiler_builtins::mem::memcpy::hee8635bcefabc13a+0xae>
80006a34: 011487b3     	add	a5, s1, a7
80006a38: 00079383     	lh	t2, 0x0(a5)
80006a3c: 011287b3     	add	a5, t0, a7
80006a40: 00779023     	sh	t2, 0x0(a5)
80006a44: 2889         	addiw	a7, a7, 0x2
80006a46: 00437793     	andi	a5, t1, 0x4
80006a4a: dbd1         	beqz	a5, 0x800069de <compiler_builtins::mem::memcpy::hee8635bcefabc13a+0xb4>
80006a4c: 011487b3     	add	a5, s1, a7
80006a50: 439c         	lw	a5, 0x0(a5)
80006a52: 9896         	add	a7, a7, t0
80006a54: 00f8a023     	sw	a5, 0x0(a7)
80006a58: 63a2         	ld	t2, 0x8(sp)
80006a5a: 00381893     	slli	a7, a6, 0x3
80006a5e: 008f8793     	addi	a5, t6, 0x8
80006a62: 41048f33     	sub	t5, s1, a6
80006a66: f8d7e5e3     	bltu	a5, a3, 0x800069f0 <compiler_builtins::mem::memcpy::hee8635bcefabc13a+0xc6>
80006a6a: 8efa         	mv	t4, t5
80006a6c: 82fe         	mv	t0, t6
80006a6e: 831e         	mv	t1, t2
80006a70: 4781         	li	a5, 0x0
80006a72: 008e8393     	addi	t2, t4, 0x8
80006a76: 4411         	li	s0, 0x4
80006a78: e402         	sd	zero, 0x8(sp)
80006a7a: 04887363     	bgeu	a6, s0, 0x80006ac0 <compiler_builtins::mem::memcpy::hee8635bcefabc13a+0x196>
80006a7e: 0024f593     	andi	a1, s1, 0x2
80006a82: e5b1         	bnez	a1, 0x80006ace <compiler_builtins::mem::memcpy::hee8635bcefabc13a+0x1a4>
80006a84: 0014f593     	andi	a1, s1, 0x1
80006a88: c981         	beqz	a1, 0x80006a98 <compiler_builtins::mem::memcpy::hee8635bcefabc13a+0x16e>
80006a8a: 93be         	add	t2, t2, a5
80006a8c: 0003c583     	lbu	a1, 0x0(t2)
80006a90: 0020         	addi	s0, sp, 0x8
80006a92: 8fc1         	or	a5, a5, s0
80006a94: 00b78023     	sb	a1, 0x0(a5)
80006a98: 65a2         	ld	a1, 0x8(sp)
80006a9a: 011357b3     	srl	a5, t1, a7
80006a9e: 4110043b     	negw	s0, a7
80006aa2: 03847413     	andi	s0, s0, 0x38
80006aa6: 008595b3     	sll	a1, a1, s0
80006aaa: 8ddd         	or	a1, a1, a5
80006aac: 00b2b023     	sd	a1, 0x0(t0)
80006ab0: 00e485b3     	add	a1, s1, a4
80006ab4: 8a1d         	andi	a2, a2, 0x7
80006ab6: 00c68733     	add	a4, a3, a2
80006aba: eee6e4e3     	bltu	a3, a4, 0x800069a2 <compiler_builtins::mem::memcpy::hee8635bcefabc13a+0x78>
80006abe: bdd5         	j	0x800069b2 <compiler_builtins::mem::memcpy::hee8635bcefabc13a+0x88>
80006ac0: 0003a783     	lw	a5, 0x0(t2)
80006ac4: c43e         	sw	a5, 0x8(sp)
80006ac6: 4791         	li	a5, 0x4
80006ac8: 0024f593     	andi	a1, s1, 0x2
80006acc: ddc5         	beqz	a1, 0x80006a84 <compiler_builtins::mem::memcpy::hee8635bcefabc13a+0x15a>
80006ace: 00f385b3     	add	a1, t2, a5
80006ad2: 00059583     	lh	a1, 0x0(a1)
80006ad6: 0020         	addi	s0, sp, 0x8
80006ad8: 8c5d         	or	s0, s0, a5
80006ada: 00b41023     	sh	a1, 0x0(s0)
80006ade: 2789         	addiw	a5, a5, 0x2
80006ae0: 0014f593     	andi	a1, s1, 0x1
80006ae4: f1dd         	bnez	a1, 0x80006a8a <compiler_builtins::mem::memcpy::hee8635bcefabc13a+0x160>
80006ae6: bf4d         	j	0x80006a98 <compiler_builtins::mem::memcpy::hee8635bcefabc13a+0x16e>

0000000080006ae8 <.Lanon.42c080fb4af66345717e19ac72deb871.0>:
80006ae8: 75 6e 73 61 66 65 20 70         unsafe p
80006af0: 72 65 63 6f 6e 64 69 74         recondit
80006af8: 69 6f 6e 28 73 29 20 76         ion(s) v
80006b00: 69 6f 6c 61 74 65 64 3a         iolated:
80006b08: 20 75 73 69 7a 65 3a 3a          usize::
80006b10: 75 6e 63 68 65 63 6b 65         unchecke
80006b18: 64 5f 61 64 64 20 63 61         d_add ca
80006b20: 6e 6e 6f 74 20 6f 76 65         nnot ove
80006b28: 72 66 6c 6f 77 0a 0a 54         rflow..T
80006b30: 68 69 73 20 69 6e 64 69         his indi
80006b38: 63 61 74 65 73 20 61 20         cates a 
80006b40: 62 75 67 20 69 6e 20 74         bug in t
80006b48: 68 65 20 70 72 6f 67 72         he progr
80006b50: 61 6d 2e 20 54 68 69 73         am. This
80006b58: 20 55 6e 64 65 66 69 6e          Undefin
80006b60: 65 64 20 42 65 68 61 76         ed Behav
80006b68: 69 6f 72 20 63 68 65 63         ior chec
80006b70: 6b 20 69 73 20 6f 70 74         k is opt
80006b78: 69 6f 6e 61 6c 2c 20 61         ional, a
80006b80: 6e 64 20 63 61 6e 6e 6f         nd canno
80006b88: 74 20 62 65 20 72 65 6c         t be rel
80006b90: 69 65 64 20 6f 6e 20 66         ied on f
80006b98: 6f 72 20 73 61 66 65 74         or safet
80006ba0: 79 2e 00 00 00 00 00 00         y.......
80006ba8: 30 31 32 33 34 35 36 37         01234567
80006bb0: 38 39 41 42 43 44 45 46         89ABCDEF
80006bb8: 00 00 00 00 00 00 00 00         ........
80006bc0: 00 00 00 00 00 00 00 00         ........
80006bc8: 30 31 32 33 34 35 36 37         01234567
80006bd0: 38 39 61 62 63 64 65 66         89abcdef
80006bd8: 12 5b 6b 65 72 6e 65 6c         .[kernel
80006be0: 5d 20 66 61 69 6c 75 72         ] failur
80006be8: 65 3a 20 c0 01 0a 00 73         e: ....s
80006bf0: 72 63 2f 6d 61 69 6e 2e         rc/main.
80006bf8: 72 73 00 2f 72 75 73 74         rs./rust
80006c00: 63 2f 65 34 30 38 39 34         c/e40894
80006c08: 37 62 66 64 32 30 30 61         7bfd200a
80006c10: 66 34 32 64 62 33 32 32         f42db322
80006c18: 64 61 66 30 66 61 64 66         daf0fadf
80006c20: 65 37 65 32 36 64 33 62         e7e26d3b
80006c28: 64 31 2f 6c 69 62 72 61         d1/libra
80006c30: 72 79 2f 63 6f 72 65 2f         ry/core/
80006c38: 73 72 63 2f 70 74 72 2f         src/ptr/
80006c40: 6d 6f 64 2e 72 73 00 10         mod.rs..
80006c48: 5b 6b 65 72 6e 65 6c 5d         [kernel]
80006c50: 20 70 61 6e 69 63 3a 20          panic: 
80006c58: c0 01 0a 00 2f 72 75 73         ..../rus
80006c60: 74 63 2f 65 34 30 38 39         tc/e4089
80006c68: 34 37 62 66 64 32 30 30         47bfd200
80006c70: 61 66 34 32 64 62 33 32         af42db32
80006c78: 32 64 61 66 30 66 61 64         2daf0fad
80006c80: 66 65 37 65 32 36 64 33         fe7e26d3
80006c88: 62 64 31 2f 6c 69 62 72         bd1/libr
80006c90: 61 72 79 2f 63 6f 72 65         ary/core
80006c98: 2f 73 72 63 2f 6f 70 73         /src/ops
80006ca0: 2f 69 6e 64 65 78 5f 72         /index_r
80006ca8: 61 6e 67 65 2e 72 73 00         ange.rs.
80006cb0: 1c 5b 6b 65 72 6e 65 6c         .[kernel
80006cb8: 5d 20 63 6f 75 6e 74 65         ] counte
80006cc0: 72 73 3a 20 61 63 63 65         rs: acce
80006cc8: 73 73 65 73 3d c0 06 20         sses=.. 
80006cd0: 68 69 74 73 3d c0 0d 20         hits=.. 
80006cd8: 70 61 67 65 5f 66 61 75         page_fau
80006ce0: 6c 74 73 3d c0 0d 20 6c         lts=.. l
80006ce8: 6f 61 64 5f 66 61 75 6c         oad_faul
80006cf0: 74 73 3d c0 0e 20 73 74         ts=.. st
80006cf8: 6f 72 65 5f 66 61 75 6c         ore_faul
80006d00: 74 73 3d c0 0d 20 6c 61         ts=.. la
80006d08: 7a 79 5f 61 6c 6c 6f 63         zy_alloc
80006d10: 73 3d c0 0b 20 73 77 61         s=.. swa
80006d18: 70 5f 6f 75 74 73 3d c0         p_outs=.
80006d20: 0a 20 73 77 61 70 5f 69         . swap_i
80006d28: 6e 73 3d c0 0d 20 63 6c         ns=.. cl
80006d30: 6f 63 6b 5f 73 63 61 6e         ock_scan
80006d38: 73 3d c0 10 20 73 65 63         s=.. sec
80006d40: 6f 6e 64 5f 63 68 61 6e         ond_chan
80006d48: 63 65 73 3d c0 01 0a 00         ces=....
80006d50: c0 00 2f 72 75 73 74 63         ../rustc
80006d58: 2f 65 34 30 38 39 34 37         /e408947
80006d60: 62 66 64 32 30 30 61 66         bfd200af
80006d68: 34 32 64 62 33 32 32 64         42db322d
80006d70: 61 66 30 66 61 64 66 65         af0fadfe
80006d78: 37 65 32 36 64 33 62 64         7e26d3bd
80006d80: 31 2f 6c 69 62 72 61 72         1/librar
80006d88: 79 2f 63 6f 72 65 2f 73         y/core/s
80006d90: 72 63 2f 63 68 61 72 2f         rc/char/
80006d98: 6d 65 74 68 6f 64 73 2e         methods.
80006da0: 72 73 00 20 69 6e 64 65         rs. inde
80006da8: 78 20 6f 75 74 20 6f 66         x out of
80006db0: 20 62 6f 75 6e 64 73 3a          bounds:
80006db8: 20 74 68 65 20 6c 65 6e          the len
80006dc0: 20 69 73 20 c0 12 20 62          is .. b
80006dc8: 75 74 20 74 68 65 20 69         ut the i
80006dd0: 6e 64 65 78 20 69 73 20         ndex is 
80006dd8: c0 00 2f 72 75 73 74 63         ../rustc
80006de0: 2f 65 34 30 38 39 34 37         /e408947
80006de8: 62 66 64 32 30 30 61 66         bfd200af
80006df0: 34 32 64 62 33 32 32 64         42db322d
80006df8: 61 66 30 66 61 64 66 65         af0fadfe
80006e00: 37 65 32 36 64 33 62 64         7e26d3bd
80006e08: 31 2f 6c 69 62 72 61 72         1/librar
80006e10: 79 2f 63 6f 72 65 2f 73         y/core/s
80006e18: 72 63 2f 66 6d 74 2f 6d         rc/fmt/m
80006e20: 6f 64 2e 72 73 00 73 72         od.rs.sr
80006e28: 63 2f 63 6f 6e 73 6f 6c         c/consol
80006e30: 65 2e 72 73 00 2f 5b 6b         e.rs./[k
80006e38: 65 72 6e 65 6c 5d 20 75         ernel] u
80006e40: 73 65 72 20 70 72 6f 67         ser prog
80006e48: 72 61 6d 20 72 65 71 75         ram requ
80006e50: 65 73 74 65 64 20 65 78         ested ex
80006e58: 69 74 20 77 69 74 68 20         it with 
80006e60: 63 6f 64 65 3d c0 01 0a         code=...
80006e68: 00 54 5b 6b 65 72 6e 65         .T[kerne
80006e70: 6c 5d 20 61 63 63 65 70         l] accep
80006e78: 74 61 6e 63 65 20 72 65         tance re
80006e80: 61 63 63 65 73 73 20 66         access f
80006e88: 61 75 6c 74 73 2c 20 73         aults, s
80006e90: 77 61 70 73 20 70 61 67         waps pag
80006e98: 65 20 62 61 63 6b 20 69         e back i
80006ea0: 6e 2c 20 61 6e 64 20 72         n, and r
80006ea8: 65 73 74 6f 72 65 73 20         estores 
80006eb0: 6d 61 70 70 69 6e 67 2f         mapping/
80006eb8: 64 61 74 61 3a 20 c0 01         data: ..
80006ec0: 0a 00 21 5b 6b 65 72 6e         ..![kern
80006ec8: 65 6c 5d 20 70 6f 6c 69         el] poli
80006ed0: 63 79 3a 20 77 6f 72 6b         cy: work
80006ed8: 69 6e 67 20 73 65 74 20         ing set 
80006ee0: 68 61 73 20 c0 18 20 76         has .. v
80006ee8: 69 72 74 75 61 6c 20 70         irtual p
80006ef0: 61 67 65 73 20 62 75 74         ages but
80006ef8: 20 6f 6e 6c 79 20 c0 55          only .U
80006f00: 20 72 65 73 69 64 65 6e          residen
80006f08: 74 20 66 72 61 6d 65 73         t frames
80006f10: 3b 20 65 76 69 63 74 65         ; evicte
80006f18: 64 20 70 61 67 65 73 20         d pages 
80006f20: 61 72 65 20 65 6e 63 6f         are enco
80006f28: 64 65 64 20 61 73 20 73         ded as s
80006f30: 77 61 70 2d 73 6c 6f 74         wap-slot
80006f38: 20 50 54 45 73 20 61 6e          PTEs an
80006f40: 64 20 72 65 73 74 6f 72         d restor
80006f48: 65 64 20 6f 6e 20 64 65         ed on de
80006f50: 6d 61 6e 64 0a 00 2f 72         mand../r
80006f58: 75 73 74 63 2f 65 34 30         ustc/e40
80006f60: 38 39 34 37 62 66 64 32         8947bfd2
80006f68: 30 30 61 66 34 32 64 62         00af42db
80006f70: 33 32 32 64 61 66 30 66         322daf0f
80006f78: 61 64 66 65 37 65 32 36         adfe7e26
80006f80: 64 33 62 64 31 2f 6c 69         d3bd1/li
80006f88: 62 72 61 72 79 2f 63 6f         brary/co
80006f90: 72 65 2f 73 72 63 2f 69         re/src/i
80006f98: 74 65 72 2f 72 61 6e 67         ter/rang
80006fa0: 65 2e 72 73 00 51 5b 6b         e.rs.Q[k
80006fa8: 65 72 6e 65 6c 5d 20 61         ernel] a
80006fb0: 63 63 65 70 74 61 6e 63         cceptanc
80006fb8: 65 20 6d 65 6d 6f 72 79         e memory
80006fc0: 20 70 72 65 73 73 75 72          pressur
80006fc8: 65 20 74 72 69 67 67 65         e trigge
80006fd0: 72 73 20 43 6c 6f 63 6b         rs Clock
80006fd8: 20 72 65 70 6c 61 63 65          replace
80006fe0: 6d 65 6e 74 20 77 69 74         ment wit
80006fe8: 68 6f 75 74 20 63 72 61         hout cra
80006ff0: 73 68 69 6e 67 3a 20 c0         shing: .
80006ff8: 01 0a 00 2f 72 75 73 74         .../rust
80007000: 63 2f 65 34 30 38 39 34         c/e40894
80007008: 37 62 66 64 32 30 30 61         7bfd200a
80007010: 66 34 32 64 62 33 32 32         f42db322
80007018: 64 61 66 30 66 61 64 66         daf0fadf
80007020: 65 37 65 32 36 64 33 62         e7e26d3b
80007028: 64 31 2f 6c 69 62 72 61         d1/libra
80007030: 72 79 2f 63 6f 72 65 2f         ry/core/
80007038: 73 72 63 2f 66 6d 74 2f         src/fmt/
80007040: 6e 75 6d 2e 72 73 00 2f         num.rs./
80007048: 72 75 73 74 63 2f 65 34         rustc/e4
80007050: 30 38 39 34 37 62 66 64         08947bfd
80007058: 32 30 30 61 66 34 32 64         200af42d
80007060: 62 33 32 32 64 61 66 30         b322daf0
80007068: 66 61 64 66 65 37 65 32         fadfe7e2
80007070: 36 64 33 62 64 31 2f 6c         6d3bd1/l
80007078: 69 62 72 61 72 79 2f 63         ibrary/c
80007080: 6f 72 65 2f 73 72 63 2f         ore/src/
80007088: 75 62 5f 63 68 65 63 6b         ub_check
80007090: 73 2e 72 73 00 c0 01 3a         s.rs...:
80007098: c0 01 3a c0 00 43 5b 6b         ..:..C[k
800070a0: 65 72 6e 65 6c 5d 20 61         ernel] a
800070a8: 63 63 65 70 74 61 6e 63         cceptanc
800070b0: 65 20 73 77 61 70 70 65         e swappe
800070b8: 64 2d 6f 75 74 20 50 54         d-out PT
800070c0: 45 20 65 6e 63 6f 64 65         E encode
800070c8: 73 20 74 68 65 20 63 6f         s the co
800070d0: 72 72 65 63 74 20 73 77         rrect sw
800070d8: 61 70 20 73 6c 6f 74 3a         ap slot:
800070e0: 20 c0 01 0a 00 2f 72 75          ..../ru
800070e8: 73 74 63 2f 65 34 30 38         stc/e408
800070f0: 39 34 37 62 66 64 32 30         947bfd20
800070f8: 30 61 66 34 32 64 62 33         0af42db3
80007100: 32 32 64 61 66 30 66 61         22daf0fa
80007108: 64 66 65 37 65 32 36 64         dfe7e26d
80007110: 33 62 64 31 2f 6c 69 62         3bd1/lib
80007118: 72 61 72 79 2f 63 6f 72         rary/cor
80007120: 65 2f 73 72 63 2f 70 74         e/src/pt
80007128: 72 2f 63 6f 6e 73 74 5f         r/const_
80007130: 70 74 72 2e 72 73 00 2f         ptr.rs./
80007138: 72 75 73 74 63 2f 65 34         rustc/e4
80007140: 30 38 39 34 37 62 66 64         08947bfd
80007148: 32 30 30 61 66 34 32 64         200af42d
80007150: 62 33 32 32 64 61 66 30         b322daf0
80007158: 66 61 64 66 65 37 65 32         fadfe7e2
80007160: 36 64 33 62 64 31 2f 6c         6d3bd1/l
80007168: 69 62 72 61 72 79 2f 63         ibrary/c
80007170: 6f 72 65 2f 73 72 63 2f         ore/src/
80007178: 61 72 72 61 79 2f 69 74         array/it
80007180: 65 72 2f 69 74 65 72 5f         er/iter_
80007188: 69 6e 6e 65 72 2e 72 73         inner.rs
80007190: 00 2f 72 75 73 74 63 2f         ./rustc/
80007198: 65 34 30 38 39 34 37 62         e408947b
800071a0: 66 64 32 30 30 61 66 34         fd200af4
800071a8: 32 64 62 33 32 32 64 61         2db322da
800071b0: 66 30 66 61 64 66 65 37         f0fadfe7
800071b8: 65 32 36 64 33 62 64 31         e26d3bd1
800071c0: 2f 6c 69 62 72 61 72 79         /library
800071c8: 2f 63 6f 72 65 2f 73 72         /core/sr
800071d0: 63 2f 70 61 6e 69 63 6b         c/panick
800071d8: 69 6e 67 2e 72 73 00 00         ing.rs..

00000000800071e0 <.Lanon.87e154b46292311c85286fb4b140da5e.2>:
800071e0: 5c 6c 00 80 00 00 00 00         \l......
800071e8: 53 00 00 00 00 00 00 00         S.......
800071f0: 3f 00 00 00 25 00 00 00         ?...%...

00000000800071f8 <.Lanon.87e154b46292311c85286fb4b140da5e.4>:
800071f8: 37 71 00 80 00 00 00 00         7q......
80007200: 59 00 00 00 00 00 00 00         Y.......
80007208: ae 00 00 00 20 00 00 00         .... ...
80007210: 44 44 33 33 22 22 11 11         DD33""..
80007218: 4b 59 86 38 d6 c5 6d 34         KY.8..m4
80007220: cc cc bb bb aa aa 99 99         ........
80007228: 89 67 45 23 01 ef cd ab         .gE#....
80007230: 02 00 00 00 00 00 00 00         ........
80007238: 03 00 00 00 00 00 00 00         ........
80007240: 04 00 00 00 00 00 00 00         ........

0000000080007248 <.Lanon.edd7cdb8a7afe939a90ec1c813adbeb1.2>:
80007248: ef 6b 00 80 00 00 00 00         .k......
80007250: 0b 00 00 00 00 00 00 00         ........
80007258: e3 03 00 00 0e 00 00 00         ........

0000000080007260 <.Lanon.edd7cdb8a7afe939a90ec1c813adbeb1.3>:
80007260: 05 5b 70 74 5d 20 c0 04         .[pt] ..
80007268: 20 76 61 3d c1 20 00 80          va=. ..
80007270: 60 06 20 76 70 6e 3d 28         `. vpn=(
80007278: c0 01 2c c0 01 2c c0 08         ..,..,..
80007280: 29 20 6c 65 76 65 6c 3d         ) level=
80007288: c0 0a 20 72 6f 6f 74 5f         .. root_
80007290: 70 74 65 3d c3 20 00 80         pte=. ..
80007298: 69 12 00 08 20 6c 31 5f         i... l1_
800072a0: 70 74 65 3d c3 20 00 80         pte=. ..
800072a8: 69 12 00 08 20 6c 30 5f         i... l0_
800072b0: 70 74 65 3d c3 20 00 80         pte=. ..
800072b8: 69 12 00 0a 20 6c 65 61         i... lea
800072c0: 66 5f 70 74 65 3d c3 20         f_pte=. 
800072c8: 00 80 69 12 00 09 20 6c         ..i... l
800072d0: 65 61 66 5f 70 61 3d c1         eaf_pa=.
800072d8: 20 00 80 60 07 20 66 6c          ..`. fl
800072e0: 61 67 73 3d c0 01 0a 00         ags=....

00000000800072e8 <.Lanon.edd7cdb8a7afe939a90ec1c813adbeb1.4>:
800072e8: 05 5b 70 74 5d 20 c0 04         .[pt] ..
800072f0: 20 76 61 3d c1 20 00 80          va=. ..
800072f8: 60 06 20 76 70 6e 3d 28         `. vpn=(
80007300: c0 01 2c c0 01 2c c0 08         ..,..,..
80007308: 29 20 6c 65 76 65 6c 3d         ) level=
80007310: c0 0a 20 72 6f 6f 74 5f         .. root_
80007318: 70 74 65 3d c3 20 00 80         pte=. ..
80007320: 69 12 00 08 20 6c 31 5f         i... l1_
80007328: 70 74 65 3d c3 20 00 80         pte=. ..
80007330: 69 12 00 08 20 6c 30 5f         i... l0_
80007338: 70 74 65 3d c3 20 00 80         pte=. ..
80007340: 69 12 00 0a 20 6c 65 61         i... lea
80007348: 66 5f 70 74 65 3d c3 20         f_pte=. 
80007350: 00 80 69 12 00 0b 20 73         ..i... s
80007358: 77 61 70 5f 73 6c 6f 74         wap_slot
80007360: 3d c0 09 20 73 77 61 70         =.. swap
80007368: 5f 70 61 3d c1 20 00 80         _pa=. ..
80007370: 60 07 20 66 6c 61 67 73         `. flags
80007378: 3d c0 01 0a 00 00 00 00         =.......

0000000080007380 <.Lanon.edd7cdb8a7afe939a90ec1c813adbeb1.6>:
80007380: ef 6b 00 80 00 00 00 00         .k......
80007388: 0b 00 00 00 00 00 00 00         ........
80007390: 77 04 00 00 0e 00 00 00         w.......

0000000080007398 <.Lanon.edd7cdb8a7afe939a90ec1c813adbeb1.7>:
80007398: ef 6b 00 80 00 00 00 00         .k......
800073a0: 0b 00 00 00 00 00 00 00         ........
800073a8: 01 02 00 00 09 00 00 00         ........

00000000800073b0 <.Lanon.edd7cdb8a7afe939a90ec1c813adbeb1.8>:
800073b0: ef 6b 00 80 00 00 00 00         .k......
800073b8: 0b 00 00 00 00 00 00 00         ........
800073c0: 02 02 00 00 09 00 00 00         ........

00000000800073c8 <.Lanon.edd7cdb8a7afe939a90ec1c813adbeb1.9>:
800073c8: ef 6b 00 80 00 00 00 00         .k......
800073d0: 0b 00 00 00 00 00 00 00         ........
800073d8: 03 02 00 00 09 00 00 00         ........

00000000800073e0 <.Lanon.edd7cdb8a7afe939a90ec1c813adbeb1.10>:
800073e0: ef 6b 00 80 00 00 00 00         .k......
800073e8: 0b 00 00 00 00 00 00 00         ........
800073f0: 04 02 00 00 09 00 00 00         ........

00000000800073f8 <.Lanon.edd7cdb8a7afe939a90ec1c813adbeb1.11>:
800073f8: ef 6b 00 80 00 00 00 00         .k......
80007400: 0b 00 00 00 00 00 00 00         ........
80007408: 05 02 00 00 09 00 00 00         ........

0000000080007410 <.Lanon.edd7cdb8a7afe939a90ec1c813adbeb1.12>:
80007410: ef 6b 00 80 00 00 00 00         .k......
80007418: 0b 00 00 00 00 00 00 00         ........
80007420: 06 02 00 00 09 00 00 00         ........

0000000080007428 <.Lanon.edd7cdb8a7afe939a90ec1c813adbeb1.13>:
80007428: ef 6b 00 80 00 00 00 00         .k......
80007430: 0b 00 00 00 00 00 00 00         ........
80007438: 07 02 00 00 09 00 00 00         ........

0000000080007440 <.Lanon.edd7cdb8a7afe939a90ec1c813adbeb1.14>:
80007440: ef 6b 00 80 00 00 00 00         .k......
80007448: 0b 00 00 00 00 00 00 00         ........
80007450: 08 02 00 00 09 00 00 00         ........

0000000080007458 <.Lanon.edd7cdb8a7afe939a90ec1c813adbeb1.15>:
80007458: ef 6b 00 80 00 00 00 00         .k......
80007460: 0b 00 00 00 00 00 00 00         ........
80007468: 09 02 00 00 09 00 00 00         ........

0000000080007470 <.Lanon.edd7cdb8a7afe939a90ec1c813adbeb1.16>:
80007470: ef 6b 00 80 00 00 00 00         .k......
80007478: 0b 00 00 00 00 00 00 00         ........
80007480: 0a 02 00 00 09 00 00 00         ........

0000000080007488 <.Lanon.edd7cdb8a7afe939a90ec1c813adbeb1.17>:
80007488: ef 6b 00 80 00 00 00 00         .k......
80007490: 0b 00 00 00 00 00 00 00         ........
80007498: 0b 02 00 00 09 00 00 00         ........

00000000800074a0 <.Lanon.edd7cdb8a7afe939a90ec1c813adbeb1.18>:
800074a0: 16 5b 6b 65 72 6e 65 6c         .[kernel
800074a8: 5d 20 73 77 61 70 20 69         ] swap i
800074b0: 6e 20 6b 69 6e 64 3d c0         n kind=.
800074b8: 06 20 73 65 70 63 3d c1         . sepc=.
800074c0: 20 00 80 60 07 20 73 74          ..`. st
800074c8: 76 61 6c 3d c1 20 00 80         val=. ..
800074d0: 60 0c 20 70 61 67 65 5f         `. page_
800074d8: 69 6e 64 65 78 3d c0 06         index=..
800074e0: 20 73 6c 6f 74 3d c0 0d          slot=..
800074e8: 20 72 65 73 74 6f 72 65          restore
800074f0: 64 5f 70 61 3d c1 20 00         d_pa=. .
800074f8: 80 60 0a 20 73 77 61 70         .`. swap
80007500: 5f 70 74 65 3d c1 20 00         _pte=. .
80007508: 80 60 01 0a 00                  .`...

000000008000750d <.Lanon.edd7cdb8a7afe939a90ec1c813adbeb1.19>:
8000750d: 73 77 61 70 5f 62 65 66         swap_bef
80007515: 6f 72 65                        ore

0000000080007518 <.Lanon.edd7cdb8a7afe939a90ec1c813adbeb1.20>:
80007518: 73 77 61 70 5f 61 66 74         swap_aft
80007520: 65 72 00 00 00 00 00 00         er......

0000000080007528 <.Lanon.edd7cdb8a7afe939a90ec1c813adbeb1.21>:
80007528: ef 6b 00 80 00 00 00 00         .k......
80007530: 0b 00 00 00 00 00 00 00         ........
80007538: 62 03 00 00 16 00 00 00         b.......

0000000080007540 <.Lanon.edd7cdb8a7afe939a90ec1c813adbeb1.22>:
80007540: ef 6b 00 80 00 00 00 00         .k......
80007548: 0b 00 00 00 00 00 00 00         ........
80007550: 62 03 00 00 05 00 00 00         b.......

0000000080007558 <.Lanon.edd7cdb8a7afe939a90ec1c813adbeb1.23>:
80007558: ef 6b 00 80 00 00 00 00         .k......
80007560: 0b 00 00 00 00 00 00 00         ........
80007568: 6c 03 00 00 20 00 00 00         l... ...

0000000080007570 <.Lanon.edd7cdb8a7afe939a90ec1c813adbeb1.24>:
80007570: ef 6b 00 80 00 00 00 00         .k......
80007578: 0b 00 00 00 00 00 00 00         ........
80007580: 74 03 00 00 17 00 00 00         t.......

0000000080007588 <.Lanon.edd7cdb8a7afe939a90ec1c813adbeb1.25>:
80007588: ef 6b 00 80 00 00 00 00         .k......
80007590: 0b 00 00 00 00 00 00 00         ........
80007598: 75 03 00 00 15 00 00 00         u.......

00000000800075a0 <.Lanon.edd7cdb8a7afe939a90ec1c813adbeb1.26>:
800075a0: ef 6b 00 80 00 00 00 00         .k......
800075a8: 0b 00 00 00 00 00 00 00         ........
800075b0: 7d 03 00 00 17 00 00 00         }.......

00000000800075b8 <.Lanon.edd7cdb8a7afe939a90ec1c813adbeb1.27>:
800075b8: ef 6b 00 80 00 00 00 00         .k......
800075c0: 0b 00 00 00 00 00 00 00         ........
800075c8: 7e 03 00 00 15 00 00 00         ~.......

00000000800075d0 <.Lanon.edd7cdb8a7afe939a90ec1c813adbeb1.28>:
800075d0: ef 6b 00 80 00 00 00 00         .k......
800075d8: 0b 00 00 00 00 00 00 00         ........
800075e0: fc 03 00 00 1a 00 00 00         ........

00000000800075e8 <.Lanon.edd7cdb8a7afe939a90ec1c813adbeb1.29>:
800075e8: ef 6b 00 80 00 00 00 00         .k......
800075f0: 0b 00 00 00 00 00 00 00         ........
800075f8: fc 03 00 00 39 00 00 00         ....9...
80007600: 6c 6f 61 64 46 41 49 4c         loadFAIL
80007608: 50 41 53 53                     PASS

000000008000760c <.Lanon.edd7cdb8a7afe939a90ec1c813adbeb1.31>:
8000760c: 73 74 6f 72 65                  store

0000000080007611 <.Lanon.edd7cdb8a7afe939a90ec1c813adbeb1.32>:
80007611: 75 6e 6b 6e 6f 77 6e            unknown

0000000080007618 <.Lanon.edd7cdb8a7afe939a90ec1c813adbeb1.33>:
80007618: 4c 30 2d 34 4b                  L0-4K

000000008000761d <.Lanon.edd7cdb8a7afe939a90ec1c813adbeb1.34>:
8000761d: 4c 31 2d 32 4d                  L1-2M

0000000080007622 <.Lanon.edd7cdb8a7afe939a90ec1c813adbeb1.35>:
80007622: 4c 32 2d 31 47                  L2-1G

0000000080007627 <.Lanon.edd7cdb8a7afe939a90ec1c813adbeb1.36>:
80007627: 69 6e 76 61 6c 69 64 00         invalid.
8000762f: 00                              .

0000000080007630 <.Lanon.edd7cdb8a7afe939a90ec1c813adbeb1.37>:
80007630: ef 6b 00 80 00 00 00 00         .k......
80007638: 0b 00 00 00 00 00 00 00         ........
80007640: 7b 04 00 00 0e 00 00 00         {.......

0000000080007648 <.Lanon.edd7cdb8a7afe939a90ec1c813adbeb1.38>:
80007648: ef 6b 00 80 00 00 00 00         .k......
80007650: 0b 00 00 00 00 00 00 00         ........
80007658: 5a 03 00 00 1c 00 00 00         Z.......

0000000080007660 <.Lanon.edd7cdb8a7afe939a90ec1c813adbeb1.39>:
80007660: ef 6b 00 80 00 00 00 00         .k......
80007668: 0b 00 00 00 00 00 00 00         ........
80007670: 5a 03 00 00 05 00 00 00         Z.......

0000000080007678 <.Lanon.edd7cdb8a7afe939a90ec1c813adbeb1.40>:
80007678: ef 6b 00 80 00 00 00 00         .k......
80007680: 0b 00 00 00 00 00 00 00         ........
80007688: f6 03 00 00 1a 00 00 00         ........

0000000080007690 <.Lanon.edd7cdb8a7afe939a90ec1c813adbeb1.41>:
80007690: ef 6b 00 80 00 00 00 00         .k......
80007698: 0b 00 00 00 00 00 00 00         ........
800076a0: f6 03 00 00 39 00 00 00         ....9...

00000000800076a8 <.Lanon.edd7cdb8a7afe939a90ec1c813adbeb1.42>:
800076a8: ef 6b 00 80 00 00 00 00         .k......
800076b0: 0b 00 00 00 00 00 00 00         ........
800076b8: e9 03 00 00 0d 00 00 00         ........

00000000800076c0 <.Lanon.edd7cdb8a7afe939a90ec1c813adbeb1.43>:
800076c0: ef 6b 00 80 00 00 00 00         .k......
800076c8: 0b 00 00 00 00 00 00 00         ........
800076d0: 2d 02 00 00 24 00 00 00         -...$...

00000000800076d8 <.Lanon.edd7cdb8a7afe939a90ec1c813adbeb1.44>:
800076d8: ef 6b 00 80 00 00 00 00         .k......
800076e0: 0b 00 00 00 00 00 00 00         ........
800076e8: 2e 02 00 00 2a 00 00 00         ....*...

00000000800076f0 <.Lanon.edd7cdb8a7afe939a90ec1c813adbeb1.45>:
800076f0: ef 6b 00 80 00 00 00 00         .k......
800076f8: 0b 00 00 00 00 00 00 00         ........
80007700: 30 02 00 00 1c 00 00 00         0.......

0000000080007708 <.Lanon.edd7cdb8a7afe939a90ec1c813adbeb1.46>:
80007708: ef 6b 00 80 00 00 00 00         .k......
80007710: 0b 00 00 00 00 00 00 00         ........
80007718: 33 02 00 00 0d 00 00 00         3.......

0000000080007720 <.Lanon.edd7cdb8a7afe939a90ec1c813adbeb1.47>:
80007720: ef 6b 00 80 00 00 00 00         .k......
80007728: 0b 00 00 00 00 00 00 00         ........
80007730: 51 02 00 00 0d 00 00 00         Q.......

0000000080007738 <.Lanon.edd7cdb8a7afe939a90ec1c813adbeb1.48>:
80007738: ef 6b 00 80 00 00 00 00         .k......
80007740: 0b 00 00 00 00 00 00 00         ........
80007748: 52 02 00 00 0d 00 00 00         R.......

0000000080007750 <.Lanon.edd7cdb8a7afe939a90ec1c813adbeb1.49>:
80007750: ef 6b 00 80 00 00 00 00         .k......
80007758: 0b 00 00 00 00 00 00 00         ........
80007760: 53 02 00 00 0d 00 00 00         S.......

0000000080007768 <.Lanon.edd7cdb8a7afe939a90ec1c813adbeb1.50>:
80007768: ef 6b 00 80 00 00 00 00         .k......
80007770: 0b 00 00 00 00 00 00 00         ........
80007778: 54 02 00 00 0d 00 00 00         T.......

0000000080007780 <.Lanon.edd7cdb8a7afe939a90ec1c813adbeb1.51>:
80007780: ef 6b 00 80 00 00 00 00         .k......
80007788: 0b 00 00 00 00 00 00 00         ........
80007790: 55 02 00 00 0d 00 00 00         U.......

0000000080007798 <.Lanon.edd7cdb8a7afe939a90ec1c813adbeb1.52>:
80007798: ef 6b 00 80 00 00 00 00         .k......
800077a0: 0b 00 00 00 00 00 00 00         ........
800077a8: 56 02 00 00 0d 00 00 00         V.......

00000000800077b0 <.Lanon.edd7cdb8a7afe939a90ec1c813adbeb1.53>:
800077b0: ef 6b 00 80 00 00 00 00         .k......
800077b8: 0b 00 00 00 00 00 00 00         ........
800077c0: 57 02 00 00 10 00 00 00         W.......

00000000800077c8 <.Lanon.edd7cdb8a7afe939a90ec1c813adbeb1.54>:
800077c8: ef 6b 00 80 00 00 00 00         .k......
800077d0: 0b 00 00 00 00 00 00 00         ........
800077d8: 58 02 00 00 11 00 00 00         X.......

00000000800077e0 <.Lanon.edd7cdb8a7afe939a90ec1c813adbeb1.55>:
800077e0: ef 6b 00 80 00 00 00 00         .k......
800077e8: 0b 00 00 00 00 00 00 00         ........
800077f0: 59 02 00 00 11 00 00 00         Y.......

00000000800077f8 <.Lanon.edd7cdb8a7afe939a90ec1c813adbeb1.56>:
800077f8: ef 6b 00 80 00 00 00 00         .k......
80007800: 0b 00 00 00 00 00 00 00         ........
80007808: 5a 02 00 00 11 00 00 00         Z.......

0000000080007810 <.Lanon.edd7cdb8a7afe939a90ec1c813adbeb1.57>:
80007810: ef 6b 00 80 00 00 00 00         .k......
80007818: 0b 00 00 00 00 00 00 00         ........
80007820: 5c 02 00 00 1b 00 00 00         \.......

0000000080007828 <.Lanon.edd7cdb8a7afe939a90ec1c813adbeb1.58>:
80007828: ef 6b 00 80 00 00 00 00         .k......
80007830: 0b 00 00 00 00 00 00 00         ........
80007838: 5c 02 00 00 1a 00 00 00         \.......

0000000080007840 <.Lanon.edd7cdb8a7afe939a90ec1c813adbeb1.59>:
80007840: ef 6b 00 80 00 00 00 00         .k......
80007848: 0b 00 00 00 00 00 00 00         ........
80007850: 5c 02 00 00 0d 00 00 00         \.......

0000000080007858 <.Lanon.edd7cdb8a7afe939a90ec1c813adbeb1.60>:
80007858: 28 5b 6b 65 72 6e 65 6c         ([kernel
80007860: 5d 20 73 77 61 70 20 6f         ] swap o
80007868: 75 74 20 74 72 69 67 67         ut trigg
80007870: 65 72 20 69 6e 63 6f 6d         er incom
80007878: 69 6e 67 5f 70 61 67 65         ing_page
80007880: 3d c0 0d 20 76 69 63 74         =.. vict
80007888: 69 6d 5f 70 61 67 65 3d         im_page=
80007890: c0 07 20 66 72 61 6d 65         .. frame
80007898: 3d c0 0b 20 76 69 63 74         =.. vict
800078a0: 69 6d 5f 76 61 3d c1 20         im_va=. 
800078a8: 00 80 60 0b 20 76 69 63         ..`. vic
800078b0: 74 69 6d 5f 70 61 3d c1         tim_pa=.
800078b8: 20 00 80 60 06 20 73 6c          ..`. sl
800078c0: 6f 74 3d c0 0a 20 73 77         ot=.. sw
800078c8: 61 70 5f 70 74 65 3d c1         ap_pte=.
800078d0: 20 00 80 60 01 0a 00             ..`...

00000000800078d7 <.Lanon.edd7cdb8a7afe939a90ec1c813adbeb1.61>:
800078d7: 76 69 63 74 69 6d 5f 61         victim_a
800078df: 66 74 65 72 5f 73 77 61         fter_swa
800078e7: 70                              p

00000000800078e8 <.Lanon.edd7cdb8a7afe939a90ec1c813adbeb1.62>:
800078e8: ef 6b 00 80 00 00 00 00         .k......
800078f0: 0b 00 00 00 00 00 00 00         ........
800078f8: 39 02 00 00 11 00 00 00         9.......

0000000080007900 <.Lanon.edd7cdb8a7afe939a90ec1c813adbeb1.63>:
80007900: ef 6b 00 80 00 00 00 00         .k......
80007908: 0b 00 00 00 00 00 00 00         ........
80007910: 3a 02 00 00 11 00 00 00         :.......

0000000080007918 <.Lanon.edd7cdb8a7afe939a90ec1c813adbeb1.64>:
80007918: 0e 5b 63 6c 6f 63 6b 5d         .[clock]
80007920: 20 66 72 61 6d 65 3d c0          frame=.
80007928: 0d 20 76 69 63 74 69 6d         . victim
80007930: 5f 70 61 67 65 3d c0 04         _page=..
80007938: 20 76 61 3d c1 20 00 80          va=. ..
80007940: 60 17 20 73 65 63 6f 6e         `. secon
80007948: 64 5f 63 68 61 6e 63 65         d_chance
80007950: 20 6f 6c 64 5f 70 74 65          old_pte
80007958: 3d c1 20 00 80 60 09 20         =. ..`. 
80007960: 6e 65 77 5f 70 74 65 3d         new_pte=
80007968: c1 20 00 80 60 01 0a 00         . ..`...

0000000080007970 <.Lanon.edd7cdb8a7afe939a90ec1c813adbeb1.65>:
80007970: ef 6b 00 80 00 00 00 00         .k......
80007978: 0b 00 00 00 00 00 00 00         ........
80007980: 46 02 00 00 1f 00 00 00         F.......

0000000080007988 <.Lanon.edd7cdb8a7afe939a90ec1c813adbeb1.66>:
80007988: ef 6b 00 80 00 00 00 00         .k......
80007990: 0b 00 00 00 00 00 00 00         ........
80007998: 46 02 00 00 1e 00 00 00         F.......

00000000800079a0 <.Lanon.edd7cdb8a7afe939a90ec1c813adbeb1.67>:
800079a0: ef 6b 00 80 00 00 00 00         .k......
800079a8: 0b 00 00 00 00 00 00 00         ........
800079b0: 46 02 00 00 11 00 00 00         F.......

00000000800079b8 <.Lanon.edd7cdb8a7afe939a90ec1c813adbeb1.68>:
800079b8: ef 6b 00 80 00 00 00 00         .k......
800079c0: 0b 00 00 00 00 00 00 00         ........
800079c8: 7f 04 00 00 05 00 00 00         ........

00000000800079d0 <.Lanon.edd7cdb8a7afe939a90ec1c813adbeb1.69>:
800079d0: ef 6b 00 80 00 00 00 00         .k......
800079d8: 0b 00 00 00 00 00 00 00         ........
800079e0: 0a 03 00 00 09 00 00 00         ........

00000000800079e8 <.Lanon.edd7cdb8a7afe939a90ec1c813adbeb1.70>:
800079e8: ef 6b 00 80 00 00 00 00         .k......
800079f0: 0b 00 00 00 00 00 00 00         ........
800079f8: 0b 03 00 00 09 00 00 00         ........

0000000080007a00 <.Lanon.edd7cdb8a7afe939a90ec1c813adbeb1.71>:
80007a00: ef 6b 00 80 00 00 00 00         .k......
80007a08: 0b 00 00 00 00 00 00 00         ........
80007a10: 0d 03 00 00 09 00 00 00         ........

0000000080007a18 <.Lanon.edd7cdb8a7afe939a90ec1c813adbeb1.72>:
80007a18: ef 6b 00 80 00 00 00 00         .k......
80007a20: 0b 00 00 00 00 00 00 00         ........
80007a28: 0e 03 00 00 09 00 00 00         ........

0000000080007a30 <.Lanon.edd7cdb8a7afe939a90ec1c813adbeb1.73>:
80007a30: ef 6b 00 80 00 00 00 00         .k......
80007a38: 0b 00 00 00 00 00 00 00         ........
80007a40: 11 03 00 00 09 00 00 00         ........

0000000080007a48 <.Lanon.edd7cdb8a7afe939a90ec1c813adbeb1.74>:
80007a48: ef 6b 00 80 00 00 00 00         .k......
80007a50: 0b 00 00 00 00 00 00 00         ........
80007a58: 14 03 00 00 09 00 00 00         ........

0000000080007a60 <.Lanon.edd7cdb8a7afe939a90ec1c813adbeb1.75>:
80007a60: ef 6b 00 80 00 00 00 00         .k......
80007a68: 0b 00 00 00 00 00 00 00         ........
80007a70: 15 03 00 00 09 00 00 00         ........

0000000080007a78 <.Lanon.edd7cdb8a7afe939a90ec1c813adbeb1.76>:
80007a78: ef 6b 00 80 00 00 00 00         .k......
80007a80: 0b 00 00 00 00 00 00 00         ........
80007a88: 17 03 00 00 09 00 00 00         ........

0000000080007a90 <.Lanon.edd7cdb8a7afe939a90ec1c813adbeb1.77>:
80007a90: ef 6b 00 80 00 00 00 00         .k......
80007a98: 0b 00 00 00 00 00 00 00         ........
80007aa0: 19 03 00 00 09 00 00 00         ........

0000000080007aa8 <.Lanon.edd7cdb8a7afe939a90ec1c813adbeb1.78>:
80007aa8: ef 6b 00 80 00 00 00 00         .k......
80007ab0: 0b 00 00 00 00 00 00 00         ........
80007ab8: 1d 03 00 00 24 00 00 00         ....$...

0000000080007ac0 <.Lanon.edd7cdb8a7afe939a90ec1c813adbeb1.79>:
80007ac0: ef 6b 00 80 00 00 00 00         .k......
80007ac8: 0b 00 00 00 00 00 00 00         ........
80007ad0: 1d 03 00 00 16 00 00 00         ........

0000000080007ad8 <.Lanon.edd7cdb8a7afe939a90ec1c813adbeb1.80>:
80007ad8: ef 6b 00 80 00 00 00 00         .k......
80007ae0: 0b 00 00 00 00 00 00 00         ........
80007ae8: 1e 03 00 00 0d 00 00 00         ........

0000000080007af0 <.Lanon.edd7cdb8a7afe939a90ec1c813adbeb1.81>:
80007af0: ef 6b 00 80 00 00 00 00         .k......
80007af8: 0b 00 00 00 00 00 00 00         ........
80007b00: 97 01 00 00 05 00 00 00         ........

0000000080007b08 <.Lanon.edd7cdb8a7afe939a90ec1c813adbeb1.82>:
80007b08: ef 6b 00 80 00 00 00 00         .k......
80007b10: 0b 00 00 00 00 00 00 00         ........
80007b18: a0 01 00 00 11 00 00 00         ........

0000000080007b20 <.Lanon.edd7cdb8a7afe939a90ec1c813adbeb1.83>:
80007b20: 1f 5b 6b 65 72 6e 65 6c         .[kernel
80007b28: 5d 20 75 6e 65 78 70 65         ] unexpe
80007b30: 63 74 65 64 20 73 79 73         cted sys
80007b38: 63 61 6c 6c 20 61 37 3d         call a7=
80007b40: c0 04 20 61 30 3d c1 20         .. a0=. 
80007b48: 00 80 60 06 20 73 65 70         ..`. sep
80007b50: 63 3d c1 20 00 80 60 01         c=. ..`.
80007b58: 0a 00 00 00 00 00 00 00         ........

0000000080007b60 <.Lanon.edd7cdb8a7afe939a90ec1c813adbeb1.84>:
80007b60: ef 6b 00 80 00 00 00 00         .k......
80007b68: 0b 00 00 00 00 00 00 00         ........
80007b70: 5e 03 00 00 20 00 00 00         ^... ...

0000000080007b78 <.Lanon.edd7cdb8a7afe939a90ec1c813adbeb1.85>:
80007b78: ef 6b 00 80 00 00 00 00         .k......
80007b80: 0b 00 00 00 00 00 00 00         ........
80007b88: 5e 03 00 00 05 00 00 00         ^.......

0000000080007b90 <.Lanon.edd7cdb8a7afe939a90ec1c813adbeb1.86>:
80007b90: 73 77 61 70 20 61 72 65         swap are
80007b98: 61 20 65 78 68 61 75 73         a exhaus
80007ba0: 74 65 64 00 00 00 00 00         ted.....

0000000080007ba8 <.Lanon.edd7cdb8a7afe939a90ec1c813adbeb1.87>:
80007ba8: ef 6b 00 80 00 00 00 00         .k......
80007bb0: 0b 00 00 00 00 00 00 00         ........
80007bb8: 41 03 00 00 16 00 00 00         A.......

0000000080007bc0 <.Lanon.edd7cdb8a7afe939a90ec1c813adbeb1.88>:
80007bc0: ef 6b 00 80 00 00 00 00         .k......
80007bc8: 0b 00 00 00 00 00 00 00         ........
80007bd0: 43 03 00 00 11 00 00 00         C.......

0000000080007bd8 <.Lanon.edd7cdb8a7afe939a90ec1c813adbeb1.89>:
80007bd8: ef 6b 00 80 00 00 00 00         .k......
80007be0: 0b 00 00 00 00 00 00 00         ........
80007be8: cc 02 00 00 09 00 00 00         ........

0000000080007bf0 <.Lanon.edd7cdb8a7afe939a90ec1c813adbeb1.90>:
80007bf0: ef 6b 00 80 00 00 00 00         .k......
80007bf8: 0b 00 00 00 00 00 00 00         ........
80007c00: cd 02 00 00 09 00 00 00         ........

0000000080007c08 <.Lanon.edd7cdb8a7afe939a90ec1c813adbeb1.91>:
80007c08: ef 6b 00 80 00 00 00 00         .k......
80007c10: 0b 00 00 00 00 00 00 00         ........
80007c18: ce 02 00 00 09 00 00 00         ........

0000000080007c20 <.Lanon.edd7cdb8a7afe939a90ec1c813adbeb1.92>:
80007c20: ef 6b 00 80 00 00 00 00         .k......
80007c28: 0b 00 00 00 00 00 00 00         ........
80007c30: cf 02 00 00 09 00 00 00         ........

0000000080007c38 <.Lanon.edd7cdb8a7afe939a90ec1c813adbeb1.93>:
80007c38: ef 6b 00 80 00 00 00 00         .k......
80007c40: 0b 00 00 00 00 00 00 00         ........
80007c48: f0 02 00 00 09 00 00 00         ........

0000000080007c50 <.Lanon.edd7cdb8a7afe939a90ec1c813adbeb1.94>:
80007c50: ef 6b 00 80 00 00 00 00         .k......
80007c58: 0b 00 00 00 00 00 00 00         ........
80007c60: eb 02 00 00 0d 00 00 00         ........

0000000080007c68 <.Lanon.edd7cdb8a7afe939a90ec1c813adbeb1.95>:
80007c68: ef 6b 00 80 00 00 00 00         .k......
80007c70: 0b 00 00 00 00 00 00 00         ........
80007c78: e5 02 00 00 0d 00 00 00         ........

0000000080007c80 <.Lanon.edd7cdb8a7afe939a90ec1c813adbeb1.96>:
80007c80: ef 6b 00 80 00 00 00 00         .k......
80007c88: 0b 00 00 00 00 00 00 00         ........
80007c90: df 02 00 00 0d 00 00 00         ........

0000000080007c98 <.Lanon.edd7cdb8a7afe939a90ec1c813adbeb1.97>:
80007c98: ef 6b 00 80 00 00 00 00         .k......
80007ca0: 0b 00 00 00 00 00 00 00         ........
80007ca8: da 01 00 00 09 00 00 00         ........

0000000080007cb0 <.Lanon.edd7cdb8a7afe939a90ec1c813adbeb1.98>:
80007cb0: ef 6b 00 80 00 00 00 00         .k......
80007cb8: 0b 00 00 00 00 00 00 00         ........
80007cc0: db 01 00 00 09 00 00 00         ........

0000000080007cc8 <.Lanon.edd7cdb8a7afe939a90ec1c813adbeb1.99>:
80007cc8: ef 6b 00 80 00 00 00 00         .k......
80007cd0: 0b 00 00 00 00 00 00 00         ........
80007cd8: dc 01 00 00 09 00 00 00         ........

0000000080007ce0 <.Lanon.edd7cdb8a7afe939a90ec1c813adbeb1.100>:
80007ce0: ef 6b 00 80 00 00 00 00         .k......
80007ce8: 0b 00 00 00 00 00 00 00         ........
80007cf0: dd 01 00 00 09 00 00 00         ........

0000000080007cf8 <.Lanon.edd7cdb8a7afe939a90ec1c813adbeb1.101>:
80007cf8: ef 6b 00 80 00 00 00 00         .k......
80007d00: 0b 00 00 00 00 00 00 00         ........
80007d08: de 01 00 00 09 00 00 00         ........

0000000080007d10 <.Lanon.edd7cdb8a7afe939a90ec1c813adbeb1.102>:
80007d10: ef 6b 00 80 00 00 00 00         .k......
80007d18: 0b 00 00 00 00 00 00 00         ........
80007d20: df 01 00 00 09 00 00 00         ........

0000000080007d28 <.Lanon.edd7cdb8a7afe939a90ec1c813adbeb1.103>:
80007d28: 17 5b 6b 65 72 6e 65 6c         .[kernel
80007d30: 5d 20 6c 61 7a 79 20 6d         ] lazy m
80007d38: 61 70 20 6b 69 6e 64 3d         ap kind=
80007d40: c0 06 20 73 65 70 63 3d         .. sepc=
80007d48: c1 20 00 80 60 07 20 73         . ..`. s
80007d50: 74 76 61 6c 3d c1 20 00         tval=. .
80007d58: 80 60 0c 20 70 61 67 65         .`. page
80007d60: 5f 69 6e 64 65 78 3d c0         _index=.
80007d68: 07 20 66 72 61 6d 65 3d         . frame=
80007d70: c0 04 20 70 61 3d c1 20         .. pa=. 
80007d78: 00 80 60 01 0a 00               ..`...

0000000080007d7e <.Lanon.edd7cdb8a7afe939a90ec1c813adbeb1.104>:
80007d7e: 66 61 75 6c 74 5f 62 65         fault_be
80007d86: 66 6f 72 65                     fore

0000000080007d8a <.Lanon.edd7cdb8a7afe939a90ec1c813adbeb1.105>:
80007d8a: 66 61 75 6c 74 5f 61 66         fault_af
80007d92: 74 65 72 00 00 00               ter...

0000000080007d98 <.Lanon.edd7cdb8a7afe939a90ec1c813adbeb1.106>:
80007d98: ef 6b 00 80 00 00 00 00         .k......
80007da0: 0b 00 00 00 00 00 00 00         ........
80007da8: 31 03 00 00 09 00 00 00         1.......

0000000080007db0 <.Lanon.edd7cdb8a7afe939a90ec1c813adbeb1.107>:
80007db0: ef 6b 00 80 00 00 00 00         .k......
80007db8: 0b 00 00 00 00 00 00 00         ........
80007dc0: 32 03 00 00 09 00 00 00         2.......

0000000080007dc8 <.Lanon.edd7cdb8a7afe939a90ec1c813adbeb1.108>:
80007dc8: ef 6b 00 80 00 00 00 00         .k......
80007dd0: 0b 00 00 00 00 00 00 00         ........
80007dd8: 33 03 00 00 09 00 00 00         3.......

0000000080007de0 <.Lanon.edd7cdb8a7afe939a90ec1c813adbeb1.109>:
80007de0: ef 6b 00 80 00 00 00 00         .k......
80007de8: 0b 00 00 00 00 00 00 00         ........
80007df0: 56 03 00 00 05 00 00 00         V.......

0000000080007df8 <.Lanon.edd7cdb8a7afe939a90ec1c813adbeb1.110>:
80007df8: ef 6b 00 80 00 00 00 00         .k......
80007e00: 0b 00 00 00 00 00 00 00         ........
80007e08: 73 02 00 00 3a 00 00 00         s...:...

0000000080007e10 <.Lanon.edd7cdb8a7afe939a90ec1c813adbeb1.111>:
80007e10: ef 6b 00 80 00 00 00 00         .k......
80007e18: 0b 00 00 00 00 00 00 00         ........
80007e20: 73 02 00 00 23 00 00 00         s...#...

0000000080007e28 <.Lanon.edd7cdb8a7afe939a90ec1c813adbeb1.112>:
80007e28: ef 6b 00 80 00 00 00 00         .k......
80007e30: 0b 00 00 00 00 00 00 00         ........
80007e38: 76 02 00 00 09 00 00 00         v.......

0000000080007e40 <.Lanon.edd7cdb8a7afe939a90ec1c813adbeb1.113>:
80007e40: ef 6b 00 80 00 00 00 00         .k......
80007e48: 0b 00 00 00 00 00 00 00         ........
80007e50: 77 02 00 00 35 00 00 00         w...5...

0000000080007e58 <.Lanon.edd7cdb8a7afe939a90ec1c813adbeb1.114>:
80007e58: ef 6b 00 80 00 00 00 00         .k......
80007e60: 0b 00 00 00 00 00 00 00         ........
80007e68: 77 02 00 00 1b 00 00 00         w.......

0000000080007e70 <.Lanon.edd7cdb8a7afe939a90ec1c813adbeb1.115>:
80007e70: ef 6b 00 80 00 00 00 00         .k......
80007e78: 0b 00 00 00 00 00 00 00         ........
80007e80: 77 02 00 00 09 00 00 00         w.......

0000000080007e88 <.Lanon.edd7cdb8a7afe939a90ec1c813adbeb1.117>:
80007e88: ef 6b 00 80 00 00 00 00         .k......
80007e90: 0b 00 00 00 00 00 00 00         ........
80007e98: 7d 02 00 00 12 00 00 00         }.......

0000000080007ea0 <.Lanon.edd7cdb8a7afe939a90ec1c813adbeb1.118>:
80007ea0: ef 6b 00 80 00 00 00 00         .k......
80007ea8: 0b 00 00 00 00 00 00 00         ........
80007eb0: 7e 02 00 00 12 00 00 00         ~.......

0000000080007eb8 <.Lanon.edd7cdb8a7afe939a90ec1c813adbeb1.119>:
80007eb8: ef 6b 00 80 00 00 00 00         .k......
80007ec0: 0b 00 00 00 00 00 00 00         ........
80007ec8: 7f 02 00 00 12 00 00 00         ........

0000000080007ed0 <.Lanon.edd7cdb8a7afe939a90ec1c813adbeb1.120>:
80007ed0: ef 6b 00 80 00 00 00 00         .k......
80007ed8: 0b 00 00 00 00 00 00 00         ........
80007ee0: 80 02 00 00 12 00 00 00         ........

0000000080007ee8 <.Lanon.edd7cdb8a7afe939a90ec1c813adbeb1.121>:
80007ee8: ef 6b 00 80 00 00 00 00         .k......
80007ef0: 0b 00 00 00 00 00 00 00         ........
80007ef8: 81 02 00 00 12 00 00 00         ........

0000000080007f00 <.Lanon.edd7cdb8a7afe939a90ec1c813adbeb1.122>:
80007f00: ef 6b 00 80 00 00 00 00         .k......
80007f08: 0b 00 00 00 00 00 00 00         ........
80007f10: 82 02 00 00 12 00 00 00         ........

0000000080007f18 <.Lanon.edd7cdb8a7afe939a90ec1c813adbeb1.123>:
80007f18: ef 6b 00 80 00 00 00 00         .k......
80007f20: 0b 00 00 00 00 00 00 00         ........
80007f28: 83 02 00 00 12 00 00 00         ........

0000000080007f30 <.Lanon.edd7cdb8a7afe939a90ec1c813adbeb1.124>:
80007f30: ef 6b 00 80 00 00 00 00         .k......
80007f38: 0b 00 00 00 00 00 00 00         ........
80007f40: 84 02 00 00 12 00 00 00         ........

0000000080007f48 <.Lanon.edd7cdb8a7afe939a90ec1c813adbeb1.125>:
80007f48: ef 6b 00 80 00 00 00 00         .k......
80007f50: 0b 00 00 00 00 00 00 00         ........
80007f58: 85 02 00 00 12 00 00 00         ........

0000000080007f60 <.Lanon.edd7cdb8a7afe939a90ec1c813adbeb1.126>:
80007f60: ef 6b 00 80 00 00 00 00         .k......
80007f68: 0b 00 00 00 00 00 00 00         ........
80007f70: 86 02 00 00 12 00 00 00         ........

0000000080007f78 <.Lanon.edd7cdb8a7afe939a90ec1c813adbeb1.128>:
80007f78: 1e 5b 6b 65 72 6e 65 6c         .[kernel
80007f80: 5d 20 75 73 65 72 20 65         ] user e
80007f88: 76 69 64 65 6e 63 65 3a         vidence:
80007f90: 20 73 74 61 67 65 3d c3          stage=.
80007f98: 20 00 80 69 12 00 0b 20          ..i... 
80007fa0: 70 61 67 65 32 5f 68 69         page2_hi
80007fa8: 74 3d c3 20 00 80 69 12         t=. ..i.
80007fb0: 00 0e 20 70 61 67 65 30         .. page0
80007fb8: 5f 73 77 61 70 69 6e 3d         _swapin=
80007fc0: c3 20 00 80 69 12 00 11         . ..i...
80007fc8: 20 70 61 67 65 30 5f 68          page0_h
80007fd0: 69 74 5f 61 67 61 69 6e         it_again
80007fd8: 3d c3 20 00 80 69 12 00         =. ..i..
80007fe0: 01 0a 00 00 00 00 00 00         ........

0000000080007fe8 <.Lanon.edd7cdb8a7afe939a90ec1c813adbeb1.129>:
80007fe8: ef 6b 00 80 00 00 00 00         .k......
80007ff0: 0b 00 00 00 00 00 00 00         ........
80007ff8: 91 02 00 00 1c 00 00 00         ........

0000000080008000 <.Lanon.edd7cdb8a7afe939a90ec1c813adbeb1.130>:
80008000: ef 6b 00 80 00 00 00 00         .k......
80008008: 0b 00 00 00 00 00 00 00         ........
80008010: 92 02 00 00 12 00 00 00         ........

0000000080008018 <.Lanon.edd7cdb8a7afe939a90ec1c813adbeb1.131>:
80008018: ef 6b 00 80 00 00 00 00         .k......
80008020: 0b 00 00 00 00 00 00 00         ........
80008028: 93 02 00 00 12 00 00 00         ........

0000000080008030 <.Lanon.edd7cdb8a7afe939a90ec1c813adbeb1.132>:
80008030: ef 6b 00 80 00 00 00 00         .k......
80008038: 0b 00 00 00 00 00 00 00         ........
80008040: 94 02 00 00 12 00 00 00         ........

0000000080008048 <.Lanon.edd7cdb8a7afe939a90ec1c813adbeb1.133>:
80008048: ef 6b 00 80 00 00 00 00         .k......
80008050: 0b 00 00 00 00 00 00 00         ........
80008058: 95 02 00 00 12 00 00 00         ........

0000000080008060 <.Lanon.edd7cdb8a7afe939a90ec1c813adbeb1.134>:
80008060: ef 6b 00 80 00 00 00 00         .k......
80008068: 0b 00 00 00 00 00 00 00         ........
80008070: 96 02 00 00 12 00 00 00         ........

0000000080008078 <.Lanon.edd7cdb8a7afe939a90ec1c813adbeb1.135>:
80008078: ef 6b 00 80 00 00 00 00         .k......
80008080: 0b 00 00 00 00 00 00 00         ........
80008088: 97 02 00 00 12 00 00 00         ........

0000000080008090 <.Lanon.edd7cdb8a7afe939a90ec1c813adbeb1.136>:
80008090: 2e 5b 6b 65 72 6e 65 6c         .[kernel
80008098: 5d 20 73 77 61 70 20 65         ] swap e
800080a0: 76 69 64 65 6e 63 65 3a         vidence:
800080a8: 20 72 65 70 6c 61 63 65          replace
800080b0: 6d 65 6e 74 5f 74 72 69         ment_tri
800080b8: 67 67 65 72 65 64 3d c0         ggered=.
800080c0: 14 20 66 69 72 73 74 5f         . first_
800080c8: 65 76 69 63 74 65 64 5f         evicted_
800080d0: 70 61 67 65 3d c0 14 20         page=.. 
800080d8: 66 69 72 73 74 5f 65 76         first_ev
800080e0: 69 63 74 65 64 5f 73 6c         icted_sl
800080e8: 6f 74 3d c0 18 20 66 69         ot=.. fi
800080f0: 72 73 74 5f 65 76 69 63         rst_evic
800080f8: 74 65 64 5f 73 77 61 70         ted_swap
80008100: 5f 70 74 65 3d c1 20 00         _pte=. .
80008108: 80 60 0d 20 73 77 61 70         .`. swap
80008110: 69 6e 5f 70 61 67 65 3d         in_page=
80008118: c0 0d 20 73 77 61 70 69         .. swapi
80008120: 6e 5f 73 6c 6f 74 3d c0         n_slot=.
80008128: 14 20 73 77 61 70 69 6e         . swapin
80008130: 5f 72 65 73 74 6f 72 65         _restore
80008138: 64 5f 70 61 3d c1 20 00         d_pa=. .
80008140: 80 60 01 0a 00                  .`...

0000000080008145 <.Lanon.edd7cdb8a7afe939a90ec1c813adbeb1.137>:
80008145: 70 61 67 65 30 5f 66 69         page0_fi
8000814d: 6e 61 6c                        nal

0000000080008150 <.Lanon.edd7cdb8a7afe939a90ec1c813adbeb1.138>:
80008150: 70 61 67 65 31 5f 66 69         page1_fi
80008158: 6e 61 6c                        nal

000000008000815b <.Lanon.edd7cdb8a7afe939a90ec1c813adbeb1.139>:
8000815b: 70 61 67 65 32 5f 66 69         page2_fi
80008163: 6e 61 6c 00 00                  nal..

0000000080008168 <.Lanon.edd7cdb8a7afe939a90ec1c813adbeb1.140>:
80008168: ef 6b 00 80 00 00 00 00         .k......
80008170: 0b 00 00 00 00 00 00 00         ........
80008178: 9b 02 00 00 36 00 00 00         ....6...

0000000080008180 <.Lanon.edd7cdb8a7afe939a90ec1c813adbeb1.141>:
80008180: ef 6b 00 80 00 00 00 00         .k......
80008188: 0b 00 00 00 00 00 00 00         ........
80008190: 9b 02 00 00 1f 00 00 00         ........

0000000080008198 <.Lanon.edd7cdb8a7afe939a90ec1c813adbeb1.142>:
80008198: ef 6b 00 80 00 00 00 00         .k......
800081a0: 0b 00 00 00 00 00 00 00         ........
800081a8: 9d 02 00 00 23 00 00 00         ....#...

00000000800081b0 <.Lanon.edd7cdb8a7afe939a90ec1c813adbeb1.143>:
800081b0: ef 6b 00 80 00 00 00 00         .k......
800081b8: 0b 00 00 00 00 00 00 00         ........
800081c0: 9e 02 00 00 15 00 00 00         ........

00000000800081c8 <.Lanon.edd7cdb8a7afe939a90ec1c813adbeb1.144>:
800081c8: ef 6b 00 80 00 00 00 00         .k......
800081d0: 0b 00 00 00 00 00 00 00         ........
800081d8: 9f 02 00 00 15 00 00 00         ........

00000000800081e0 <.Lanon.edd7cdb8a7afe939a90ec1c813adbeb1.145>:
800081e0: ef 6b 00 80 00 00 00 00         .k......
800081e8: 0b 00 00 00 00 00 00 00         ........
800081f0: a0 02 00 00 2f 00 00 00         ..../...

00000000800081f8 <.Lanon.edd7cdb8a7afe939a90ec1c813adbeb1.146>:
800081f8: ef 6b 00 80 00 00 00 00         .k......
80008200: 0b 00 00 00 00 00 00 00         ........
80008208: a1 02 00 00 28 00 00 00         ....(...

0000000080008210 <.Lanon.edd7cdb8a7afe939a90ec1c813adbeb1.147>:
80008210: ef 6b 00 80 00 00 00 00         .k......
80008218: 0b 00 00 00 00 00 00 00         ........
80008220: a1 02 00 00 56 00 00 00         ....V...

0000000080008228 <.Lanon.edd7cdb8a7afe939a90ec1c813adbeb1.148>:
80008228: ef 6b 00 80 00 00 00 00         .k......
80008230: 0b 00 00 00 00 00 00 00         ........
80008238: a2 02 00 00 15 00 00 00         ........

0000000080008240 <.Lanon.edd7cdb8a7afe939a90ec1c813adbeb1.149>:
80008240: ef 6b 00 80 00 00 00 00         .k......
80008248: 0b 00 00 00 00 00 00 00         ........
80008250: a3 02 00 00 1e 00 00 00         ........

0000000080008258 <.Lanon.edd7cdb8a7afe939a90ec1c813adbeb1.150>:
80008258: ef 6b 00 80 00 00 00 00         .k......
80008260: 0b 00 00 00 00 00 00 00         ........
80008268: a4 02 00 00 15 00 00 00         ........

0000000080008270 <.Lanon.edd7cdb8a7afe939a90ec1c813adbeb1.151>:
80008270: ef 6b 00 80 00 00 00 00         .k......
80008278: 0b 00 00 00 00 00 00 00         ........
80008280: a5 02 00 00 15 00 00 00         ........

0000000080008288 <.Lanon.edd7cdb8a7afe939a90ec1c813adbeb1.152>:
80008288: ef 6b 00 80 00 00 00 00         .k......
80008290: 0b 00 00 00 00 00 00 00         ........
80008298: a5 02 00 00 32 00 00 00         ....2...

00000000800082a0 <.Lanon.edd7cdb8a7afe939a90ec1c813adbeb1.153>:
800082a0: ef 6b 00 80 00 00 00 00         .k......
800082a8: 0b 00 00 00 00 00 00 00         ........
800082b0: ae 02 00 00 15 00 00 00         ........

00000000800082b8 <.Lanon.edd7cdb8a7afe939a90ec1c813adbeb1.154>:
800082b8: ef 6b 00 80 00 00 00 00         .k......
800082c0: 0b 00 00 00 00 00 00 00         ........
800082c8: af 02 00 00 15 00 00 00         ........

00000000800082d0 <.Lanon.edd7cdb8a7afe939a90ec1c813adbeb1.155>:
800082d0: ef 6b 00 80 00 00 00 00         .k......
800082d8: 0b 00 00 00 00 00 00 00         ........
800082e0: b0 02 00 00 15 00 00 00         ........

00000000800082e8 <.Lanon.edd7cdb8a7afe939a90ec1c813adbeb1.156>:
800082e8: ef 6b 00 80 00 00 00 00         .k......
800082f0: 0b 00 00 00 00 00 00 00         ........
800082f8: b1 02 00 00 15 00 00 00         ........

0000000080008300 <.Lanon.edd7cdb8a7afe939a90ec1c813adbeb1.157>:
80008300: ef 6b 00 80 00 00 00 00         .k......
80008308: 0b 00 00 00 00 00 00 00         ........
80008310: b2 02 00 00 15 00 00 00         ........

0000000080008318 <.Lanon.edd7cdb8a7afe939a90ec1c813adbeb1.158>:
80008318: ef 6b 00 80 00 00 00 00         .k......
80008320: 0b 00 00 00 00 00 00 00         ........
80008328: b3 02 00 00 15 00 00 00         ........

0000000080008330 <.Lanon.edd7cdb8a7afe939a90ec1c813adbeb1.159>:
80008330: ef 6b 00 80 00 00 00 00         .k......
80008338: 0b 00 00 00 00 00 00 00         ........
80008340: b4 02 00 00 15 00 00 00         ........

0000000080008348 <.Lanon.edd7cdb8a7afe939a90ec1c813adbeb1.163>:
80008348: ef 6b 00 80 00 00 00 00         .k......
80008350: 0b 00 00 00 00 00 00 00         ........
80008358: 39 03 00 00 09 00 00 00         9.......

0000000080008360 <.Lanon.edd7cdb8a7afe939a90ec1c813adbeb1.164>:
80008360: ef 6b 00 80 00 00 00 00         .k......
80008368: 0b 00 00 00 00 00 00 00         ........
80008370: 26 02 00 00 09 00 00 00         &.......

0000000080008378 <.Lanon.edd7cdb8a7afe939a90ec1c813adbeb1.165>:
80008378: ef 6b 00 80 00 00 00 00         .k......
80008380: 0b 00 00 00 00 00 00 00         ........
80008388: 20 02 00 00 16 00 00 00          .......

0000000080008390 <.Lanon.edd7cdb8a7afe939a90ec1c813adbeb1.166>:
80008390: ef 6b 00 80 00 00 00 00         .k......
80008398: 0b 00 00 00 00 00 00 00         ........
800083a0: 28 03 00 00 09 00 00 00         (.......

00000000800083a8 <.Lanon.edd7cdb8a7afe939a90ec1c813adbeb1.167>:
800083a8: 33 5b 6b 65 72 6e 65 6c         3[kernel
800083b0: 5d 20 66 61 75 6c 74 20         ] fault 
800083b8: 6f 75 74 73 69 64 65 20         outside 
800083c0: 6d 61 6e 61 67 65 64 20         managed 
800083c8: 77 6f 72 6b 69 6e 67 20         working 
800083d0: 73 65 74 3a 20 73 63 61         set: sca
800083d8: 75 73 65 3d c1 20 00 80         use=. ..
800083e0: 60 06 20 73 65 70 63 3d         `. sepc=
800083e8: c1 20 00 80 60 07 20 73         . ..`. s
800083f0: 74 76 61 6c 3d c1 20 00         tval=. .
800083f8: 80 60 01 0a 00 00 00 00         .`......

0000000080008400 <.Lanon.edd7cdb8a7afe939a90ec1c813adbeb1.168>:
80008400: ef 6b 00 80 00 00 00 00         .k......
80008408: 0b 00 00 00 00 00 00 00         ........
80008410: b7 01 00 00 09 00 00 00         ........

0000000080008418 <.Lanon.edd7cdb8a7afe939a90ec1c813adbeb1.169>:
80008418: ef 6b 00 80 00 00 00 00         .k......
80008420: 0b 00 00 00 00 00 00 00         ........
80008428: bb 01 00 00 0d 00 00 00         ........

0000000080008430 <.Lanon.edd7cdb8a7afe939a90ec1c813adbeb1.170>:
80008430: ef 6b 00 80 00 00 00 00         .k......
80008438: 0b 00 00 00 00 00 00 00         ........
80008440: b9 01 00 00 0d 00 00 00         ........

0000000080008448 <.Lanon.edd7cdb8a7afe939a90ec1c813adbeb1.171>:
80008448: 37 5b 6b 65 72 6e 65 6c         7[kernel
80008450: 5d 20 70 61 67 65 20 66         ] page f
80008458: 61 75 6c 74 20 68 69 74         ault hit
80008460: 20 61 6e 20 61 6c 72 65          an alre
80008468: 61 64 79 2d 70 72 65 73         ady-pres
80008470: 65 6e 74 20 6d 61 70 70         ent mapp
80008478: 69 6e 67 3a 20 76 61 3d         ing: va=
80008480: c1 20 00 80 60 05 20 70         . ..`. p
80008488: 74 65 3d c1 20 00 80 60         te=. ..`
80008490: 01 0a 00 00 00 00 00 00         ........

0000000080008498 <.Lanon.edd7cdb8a7afe939a90ec1c813adbeb1.172>:
80008498: ef 6b 00 80 00 00 00 00         .k......
800084a0: 0b 00 00 00 00 00 00 00         ........
800084a8: 92 04 00 00 24 00 00 00         ....$...

00000000800084b0 <.Lanon.edd7cdb8a7afe939a90ec1c813adbeb1.175>:
800084b0: ef 6b 00 80 00 00 00 00         .k......
800084b8: 0b 00 00 00 00 00 00 00         ........
800084c0: 9f 04 00 00 09 00 00 00         ........

00000000800084c8 <.Lanon.edd7cdb8a7afe939a90ec1c813adbeb1.176>:
800084c8: ef 6b 00 80 00 00 00 00         .k......
800084d0: 0b 00 00 00 00 00 00 00         ........
800084d8: f0 03 00 00 1a 00 00 00         ........

00000000800084e0 <.Lanon.edd7cdb8a7afe939a90ec1c813adbeb1.178>:
800084e0: fb 6b 00 80 00 00 00 00         .k......
800084e8: 4b 00 00 00 00 00 00 00         K.......
800084f0: bc 02 00 00 09 00 00 00         ........

00000000800084f8 <.Lanon.edd7cdb8a7afe939a90ec1c813adbeb1.179>:
800084f8: fb 6b 00 80 00 00 00 00         .k......
80008500: 4b 00 00 00 00 00 00 00         K.......
80008508: 0f 02 00 00 05 00 00 00         ........

0000000080008510 <.Lanon.edd7cdb8a7afe939a90ec1c813adbeb1.181>:
80008510: ef 6b 00 80 00 00 00 00         .k......
80008518: 0b 00 00 00 00 00 00 00         ........
80008520: 06 01 00 00 0d 00 00 00         ........

0000000080008528 <.Lanon.edd7cdb8a7afe939a90ec1c813adbeb1.182>:
80008528: 29 5b 6b 65 72 6e 65 6c         )[kernel
80008530: 5d 20 75 6e 65 78 70 65         ] unexpe
80008538: 63 74 65 64 20 6d 61 63         cted mac
80008540: 68 69 6e 65 20 74 72 61         hine tra
80008548: 70 3a 20 6d 63 61 75 73         p: mcaus
80008550: 65 3d c1 20 00 80 60 06         e=. ..`.
80008558: 20 6d 65 70 63 3d c1 20          mepc=. 
80008560: 00 80 60 07 20 6d 74 76         ..`. mtv
80008568: 61 6c 3d c1 20 00 80 60         al=. ..`
80008570: 01 0a 00                        ...

0000000080008573 <.Lanon.edd7cdb8a7afe939a90ec1c813adbeb1.183>:
80008573: 2c 5b 6b 65 72 6e 65 6c         ,[kernel
8000857b: 5d 20 75 6e 65 78 70 65         ] unexpe
80008583: 63 74 65 64 20 73 75 70         cted sup
8000858b: 65 72 76 69 73 6f 72 20         ervisor 
80008593: 74 72 61 70 3a 20 73 63         trap: sc
8000859b: 61 75 73 65 3d c1 20 00         ause=. .
800085a3: 80 60 06 20 73 65 70 63         .`. sepc
800085ab: 3d c1 20 00 80 60 07 20         =. ..`. 
800085b3: 73 74 76 61 6c 3d c1 20         stval=. 
800085bb: 00 80 60 01 0a 00               ..`...

00000000800085c1 <.Lanon.edd7cdb8a7afe939a90ec1c813adbeb1.184>:
800085c1: 5b 6b 65 72 6e 65 6c 5d         [kernel]
800085c9: 20 62 6f 6f 74 65 64 20          booted 
800085d1: 69 6e 20 53 2d 6d 6f 64         in S-mod
800085d9: 65 20 77 69 74 68 20 53         e with S
800085e1: 76 33 39 20 65 6e 61 62         v39 enab
800085e9: 6c 65 64 0a                     led.

00000000800085ed <.Lanon.edd7cdb8a7afe939a90ec1c813adbeb1.185>:
800085ed: 5b 6b 65 72 6e 65 6c 5d         [kernel]
800085f5: 20 4c 41 42 34 20 6b 65          LAB4 ke
800085fd: 72 6e 65 6c 20 74 61 73         rnel tas
80008605: 6b 34 20 73 77 61 70 20         k4 swap 
8000860d: 69 6e 2f 6f 75 74 20 77         in/out w
80008615: 69 74 68 20 43 6c 6f 63         ith Cloc
8000861d: 6b 20 72 65 70 6c 61 63         k replac
80008625: 65 6d 65 6e 74 0a 00 00         ement...
8000862d: 00 00 00                        ...

0000000080008630 <.Lanon.edd7cdb8a7afe939a90ec1c813adbeb1.189>:
80008630: ef 6b 00 80 00 00 00 00         .k......
80008638: 0b 00 00 00 00 00 00 00         ........
80008640: 55 01 00 00 12 00 00 00         U.......

0000000080008648 <.Lanon.edd7cdb8a7afe939a90ec1c813adbeb1.190>:
80008648: 14 5b 6b 65 72 6e 65 6c         .[kernel
80008650: 5d 20 73 61 74 70 28 72         ] satp(r
80008658: 6f 6f 74 29 3d c1 20 00         oot)=. .
80008660: 80 60 09 20 72 6f 6f 74         .`. root
80008668: 5f 70 61 3d c1 20 00 80         _pa=. ..
80008670: 60 01 0a 00                     `...

0000000080008674 <.Lanon.edd7cdb8a7afe939a90ec1c813adbeb1.192>:
80008674: 17 5b 6b 65 72 6e 65 6c         .[kernel
8000867c: 5d 20 73 77 61 70 20 62         ] swap b
80008684: 61 63 6b 65 6e 64 3a 20         ackend: 
8000868c: c0 29 20 73 6c 6f 74 73         .) slots
80008694: 20 69 6e 20 73 69 6d 75          in simu
8000869c: 6c 61 74 65 64 20 73 77         lated sw
800086a4: 61 70 20 64 69 73 6b 20         ap disk 
800086ac: 61 72 65 61 20 61 74 20         area at 
800086b4: 70 61 3d c1 20 00 80 60         pa=. ..`
800086bc: 01 0a 00                        ...

00000000800086bf <.Lanon.edd7cdb8a7afe939a90ec1c813adbeb1.193>:
800086bf: 75 73 65 72 5f 74 65 78         user_tex
800086c7: 74                              t

00000000800086c8 <.Lanon.edd7cdb8a7afe939a90ec1c813adbeb1.194>:
800086c8: 75 73 65 72 5f 73 68 61         user_sha
800086d0: 72 65 64                        red

00000000800086d3 <.Lanon.edd7cdb8a7afe939a90ec1c813adbeb1.195>:
800086d3: 75 73 65 72 5f 73 74 61         user_sta
800086db: 63 6b                           ck

00000000800086dd <.Lanon.edd7cdb8a7afe939a90ec1c813adbeb1.196>:
800086dd: 77 6f 72 6b 69 6e 67 5f         working_
800086e5: 70 61 67 65 30 5f 62 65         page0_be
800086ed: 66 6f 72 65                     fore

00000000800086f1 <.Lanon.edd7cdb8a7afe939a90ec1c813adbeb1.197>:
800086f1: 77 6f 72 6b 69 6e 67 5f         working_
800086f9: 70 61 67 65 31 5f 62 65         page1_be
80008701: 66 6f 72 65                     fore

0000000080008705 <.Lanon.edd7cdb8a7afe939a90ec1c813adbeb1.198>:
80008705: 77 6f 72 6b 69 6e 67 5f         working_
8000870d: 70 61 67 65 32 5f 62 65         page2_be
80008715: 66 6f 72 65 00 00 00 00         fore....
8000871d: 00 00 00                        ...

0000000080008720 <.Lanon.edd7cdb8a7afe939a90ec1c813adbeb1.199>:
80008720: ef 6b 00 80 00 00 00 00         .k......
80008728: 0b 00 00 00 00 00 00 00         ........
80008730: 68 01 00 00 20 00 00 00         h... ...

0000000080008738 <.Lanon.edd7cdb8a7afe939a90ec1c813adbeb1.200>:
80008738: ef 6b 00 80 00 00 00 00         .k......
80008740: 0b 00 00 00 00 00 00 00         ........
80008748: 68 01 00 00 09 00 00 00         h.......

0000000080008750 <.Lanon.edd7cdb8a7afe939a90ec1c813adbeb1.201>:
80008750: ef 6b 00 80 00 00 00 00         .k......
80008758: 0b 00 00 00 00 00 00 00         ........
80008760: 69 01 00 00 2d 00 00 00         i...-...

0000000080008768 <.Lanon.edd7cdb8a7afe939a90ec1c813adbeb1.202>:
80008768: ef 6b 00 80 00 00 00 00         .k......
80008770: 0b 00 00 00 00 00 00 00         ........
80008778: 69 01 00 00 16 00 00 00         i.......

0000000080008780 <.Lanon.c3fbd062fd6a3d385d882814854a743d.0>:
80008780: 69 73 5f 61 6c 69 67 6e         is_align
80008788: 65 64 5f 74 6f 3a 20 61         ed_to: a
80008790: 6c 69 67 6e 20 69 73 20         lign is 
80008798: 6e 6f 74 20 61 20 70 6f         not a po
800087a0: 77 65 72 2d 6f 66 2d 74         wer-of-t
800087a8: 77 6f 00 00 00 00 00 00         wo......

00000000800087b0 <.Lanon.c3fbd062fd6a3d385d882814854a743d.2>:
800087b0: e5 70 00 80 00 00 00 00         .p......
800087b8: 51 00 00 00 00 00 00 00         Q.......
800087c0: 5e 05 00 00 0d 00 00 00         ^.......

00000000800087c8 <.Lanon.5f640c2d73a76612beb58cc2cafec538.0>:
800087c8: 00 00 00 00 00 00 00 00         ........

00000000800087d0 <.Lanon.f7ea124c8b236a8e04b17a3d5012bd7f.1>:
800087d0: 47 70 00 80 00 00 00 00         Gp......
800087d8: 4d 00 00 00 00 00 00 00         M.......
800087e0: 94 00 00 00 36 00 00 00         ....6...

00000000800087e8 <.Lanon.f7ea124c8b236a8e04b17a3d5012bd7f.2>:
800087e8: 75 6e 73 61 66 65 20 70         unsafe p
800087f0: 72 65 63 6f 6e 64 69 74         recondit
800087f8: 69 6f 6e 28 73 29 20 76         ion(s) v
80008800: 69 6f 6c 61 74 65 64 3a         iolated:
80008808: 20 73 6c 69 63 65 3a 3a          slice::
80008810: 66 72 6f 6d 5f 72 61 77         from_raw
80008818: 5f 70 61 72 74 73 20 72         _parts r
80008820: 65 71 75 69 72 65 73 20         equires 
80008828: 74 68 65 20 70 6f 69 6e         the poin
80008830: 74 65 72 20 74 6f 20 62         ter to b
80008838: 65 20 61 6c 69 67 6e 65         e aligne
80008840: 64 20 61 6e 64 20 6e 6f         d and no
80008848: 6e 2d 6e 75 6c 6c 2c 20         n-null, 
80008850: 61 6e 64 20 74 68 65 20         and the 
80008858: 74 6f 74 61 6c 20 73 69         total si
80008860: 7a 65 20 6f 66 20 74 68         ze of th
80008868: 65 20 73 6c 69 63 65 20         e slice 
80008870: 6e 6f 74 20 74 6f 20 65         not to e
80008878: 78 63 65 65 64 20 60 69         xceed `i
80008880: 73 69 7a 65 3a 3a 4d 41         size::MA
80008888: 58 60 0a 0a 54 68 69 73         X`..This
80008890: 20 69 6e 64 69 63 61 74          indicat
80008898: 65 73 20 61 20 62 75 67         es a bug
800088a0: 20 69 6e 20 74 68 65 20          in the 
800088a8: 70 72 6f 67 72 61 6d 2e         program.
800088b0: 20 54 68 69 73 20 55 6e          This Un
800088b8: 64 65 66 69 6e 65 64 20         defined 
800088c0: 42 65 68 61 76 69 6f 72         Behavior
800088c8: 20 63 68 65 63 6b 20 69          check i
800088d0: 73 20 6f 70 74 69 6f 6e         s option
800088d8: 61 6c 2c 20 61 6e 64 20         al, and 
800088e0: 63 61 6e 6e 6f 74 20 62         cannot b
800088e8: 65 20 72 65 6c 69 65 64         e relied
800088f0: 20 6f 6e 20 66 6f 72 20          on for 
800088f8: 73 61 66 65 74 79 2e            safety.

00000000800088ff <.Lanon.f7ea124c8b236a8e04b17a3d5012bd7f.3>:
800088ff: 75 6e 73 61 66 65 20 70         unsafe p
80008907: 72 65 63 6f 6e 64 69 74         recondit
8000890f: 69 6f 6e 28 73 29 20 76         ion(s) v
80008917: 69 6f 6c 61 74 65 64 3a         iolated:
8000891f: 20 73 6c 69 63 65 3a 3a          slice::
80008927: 66 72 6f 6d 5f 72 61 77         from_raw
8000892f: 5f 70 61 72 74 73 5f 6d         _parts_m
80008937: 75 74 20 72 65 71 75 69         ut requi
8000893f: 72 65 73 20 74 68 65 20         res the 
80008947: 70 6f 69 6e 74 65 72 20         pointer 
8000894f: 74 6f 20 62 65 20 61 6c         to be al
80008957: 69 67 6e 65 64 20 61 6e         igned an
8000895f: 64 20 6e 6f 6e 2d 6e 75         d non-nu
80008967: 6c 6c 2c 20 61 6e 64 20         ll, and 
8000896f: 74 68 65 20 74 6f 74 61         the tota
80008977: 6c 20 73 69 7a 65 20 6f         l size o
8000897f: 66 20 74 68 65 20 73 6c         f the sl
80008987: 69 63 65 20 6e 6f 74 20         ice not 
8000898f: 74 6f 20 65 78 63 65 65         to excee
80008997: 64 20 60 69 73 69 7a 65         d `isize
8000899f: 3a 3a 4d 41 58 60 0a 0a         ::MAX`..
800089a7: 54 68 69 73 20 69 6e 64         This ind
800089af: 69 63 61 74 65 73 20 61         icates a
800089b7: 20 62 75 67 20 69 6e 20          bug in 
800089bf: 74 68 65 20 70 72 6f 67         the prog
800089c7: 72 61 6d 2e 20 54 68 69         ram. Thi
800089cf: 73 20 55 6e 64 65 66 69         s Undefi
800089d7: 6e 65 64 20 42 65 68 61         ned Beha
800089df: 76 69 6f 72 20 63 68 65         vior che
800089e7: 63 6b 20 69 73 20 6f 70         ck is op
800089ef: 74 69 6f 6e 61 6c 2c 20         tional, 
800089f7: 61 6e 64 20 63 61 6e 6e         and cann
800089ff: 6f 74 20 62 65 20 72 65         ot be re
80008a07: 6c 69 65 64 20 6f 6e 20         lied on 
80008a0f: 66 6f 72 20 73 61 66 65         for safe
80008a17: 74 79 2e 00 00 00 00 00         ty......
80008a1f: 00                              .

0000000080008a20 <.Lanon.b84f8e887c3e2742782c94e9a28449fd.1>:
80008a20: 56 6f 00 80 00 00 00 00         Vo......
80008a28: 4e 00 00 00 00 00 00 00         N.......
80008a30: b2 01 00 00 01 00 00 00         ........

0000000080008a38 <.Lanon.3ddf95758566ff66c6e8adce3c80980a.1>:
80008a38: 26 6e 00 80 00 00 00 00         &n......
80008a40: 0e 00 00 00 00 00 00 00         ........
80008a48: 09 00 00 00 0d 00 00 00         ........

0000000080008a50 <.Lanon.3ddf95758566ff66c6e8adce3c80980a.2>:
80008a50: 26 6e 00 80 00 00 00 00         &n......
80008a58: 0e 00 00 00 00 00 00 00         ........
80008a60: 0b 00 00 00 09 00 00 00         ........

0000000080008a68 <.Lanon.3a571bda063396b4f6e74feac4f9452c.1>:
80008a68: 52 6d 00 80 00 00 00 00         Rm......
80008a70: 50 00 00 00 00 00 00 00         P.......
80008a78: 62 07 00 00 0e 00 00 00         b.......

0000000080008a80 <.Lanon.3a571bda063396b4f6e74feac4f9452c.2>:
80008a80: 52 6d 00 80 00 00 00 00         Rm......
80008a88: 50 00 00 00 00 00 00 00         P.......
80008a90: 55 07 00 00 09 00 00 00         U.......

0000000080008a98 <.Lanon.3a571bda063396b4f6e74feac4f9452c.3>:
80008a98: 12 65 6e 63 6f 64 65 5f         .encode_
80008aa0: 75 74 66 38 3a 20 6e 65         utf8: ne
80008aa8: 65 64 20 c0 13 20 62 79         ed .. by
80008ab0: 74 65 73 20 74 6f 20 65         tes to e
80008ab8: 6e 63 6f 64 65 20 55 2b         ncode U+
80008ac0: c3 20 00 00 69 04 00 15         . ..i...
80008ac8: 20 62 75 74 20 62 75 66          but buf
80008ad0: 66 65 72 20 68 61 73 20         fer has 
80008ad8: 6a 75 73 74 20 c0 00            just ..

0000000080008adf <.Lanon.4699ef4190e0b0a3827c22e8adede52f.0>:
80008adf: 69 73 5f 6e 6f 6e 6f 76         is_nonov
80008ae7: 65 72 6c 61 70 70 69 6e         erlappin
80008aef: 67 3a 20 60 73 69 7a 65         g: `size
80008af7: 5f 6f 66 3a 3a 3c 54 3e         _of::<T>
80008aff: 28 29 20 2a 20 63 6f 75         () * cou
80008b07: 6e 74 60 20 6f 76 65 72         nt` over
80008b0f: 66 6c 6f 77 73 20 61 20         flows a 
80008b17: 75 73 69 7a 65 00 00 00         usize...
80008b1f: 00                              .

0000000080008b20 <.Lanon.04c079efbb66b9f236924f9164f3ef43.0>:
80008b20: 00 00 00 00 00 00 00 00         ........
80008b28: 00 00 00 00 00 00 00 00         ........
80008b30: 01 00 00 00 00 00 00 00         ........
80008b38: 98 50 00 80 00 00 00 00         .P......
80008b40: cc 53 00 80 00 00 00 00         .S......
80008b48: 0c 54 00 80 00 00 00 00         .T......

0000000080008b50 <.Lanon.68d3fd8c4f6f834744494b586187bd26.0>:
80008b50: 75 6e 73 61 66 65 20 70         unsafe p
80008b58: 72 65 63 6f 6e 64 69 74         recondit
80008b60: 69 6f 6e 28 73 29 20 76         ion(s) v
80008b68: 69 6f 6c 61 74 65 64 3a         iolated:
80008b70: 20 70 74 72 3a 3a 77 72          ptr::wr
80008b78: 69 74 65 5f 62 79 74 65         ite_byte
80008b80: 73 20 72 65 71 75 69 72         s requir
80008b88: 65 73 20 74 68 61 74 20         es that 
80008b90: 74 68 65 20 64 65 73 74         the dest
80008b98: 69 6e 61 74 69 6f 6e 20         ination 
80008ba0: 70 6f 69 6e 74 65 72 20         pointer 
80008ba8: 69 73 20 61 6c 69 67 6e         is align
80008bb0: 65 64 20 61 6e 64 20 6e         ed and n
80008bb8: 6f 6e 2d 6e 75 6c 6c 0a         on-null.
80008bc0: 0a 54 68 69 73 20 69 6e         .This in
80008bc8: 64 69 63 61 74 65 73 20         dicates 
80008bd0: 61 20 62 75 67 20 69 6e         a bug in
80008bd8: 20 74 68 65 20 70 72 6f          the pro
80008be0: 67 72 61 6d 2e 20 54 68         gram. Th
80008be8: 69 73 20 55 6e 64 65 66         is Undef
80008bf0: 69 6e 65 64 20 42 65 68         ined Beh
80008bf8: 61 76 69 6f 72 20 63 68         avior ch
80008c00: 65 63 6b 20 69 73 20 6f         eck is o
80008c08: 70 74 69 6f 6e 61 6c 2c         ptional,
80008c10: 20 61 6e 64 20 63 61 6e          and can
80008c18: 6e 6f 74 20 62 65 20 72         not be r
80008c20: 65 6c 69 65 64 20 6f 6e         elied on
80008c28: 20 66 6f 72 20 73 61 66          for saf
80008c30: 65 74 79 2e                     ety.

0000000080008c34 <.Lanon.68d3fd8c4f6f834744494b586187bd26.1>:
80008c34: 75 6e 73 61 66 65 20 70         unsafe p
80008c3c: 72 65 63 6f 6e 64 69 74         recondit
80008c44: 69 6f 6e 28 73 29 20 76         ion(s) v
80008c4c: 69 6f 6c 61 74 65 64 3a         iolated:
80008c54: 20 70 74 72 3a 3a 77 72          ptr::wr
80008c5c: 69 74 65 5f 76 6f 6c 61         ite_vola
80008c64: 74 69 6c 65 20 72 65 71         tile req
80008c6c: 75 69 72 65 73 20 74 68         uires th
80008c74: 61 74 20 74 68 65 20 70         at the p
80008c7c: 6f 69 6e 74 65 72 20 61         ointer a
80008c84: 72 67 75 6d 65 6e 74 20         rgument 
80008c8c: 69 73 20 61 6c 69 67 6e         is align
80008c94: 65 64 0a 0a 54 68 69 73         ed..This
80008c9c: 20 69 6e 64 69 63 61 74          indicat
80008ca4: 65 73 20 61 20 62 75 67         es a bug
80008cac: 20 69 6e 20 74 68 65 20          in the 
80008cb4: 70 72 6f 67 72 61 6d 2e         program.
80008cbc: 20 54 68 69 73 20 55 6e          This Un
80008cc4: 64 65 66 69 6e 65 64 20         defined 
80008ccc: 42 65 68 61 76 69 6f 72         Behavior
80008cd4: 20 63 68 65 63 6b 20 69          check i
80008cdc: 73 20 6f 70 74 69 6f 6e         s option
80008ce4: 61 6c 2c 20 61 6e 64 20         al, and 
80008cec: 63 61 6e 6e 6f 74 20 62         cannot b
80008cf4: 65 20 72 65 6c 69 65 64         e relied
80008cfc: 20 6f 6e 20 66 6f 72 20          on for 
80008d04: 73 61 66 65 74 79 2e            safety.

0000000080008d0b <.Lanon.68d3fd8c4f6f834744494b586187bd26.2>:
80008d0b: 75 6e 73 61 66 65 20 70         unsafe p
80008d13: 72 65 63 6f 6e 64 69 74         recondit
80008d1b: 69 6f 6e 28 73 29 20 76         ion(s) v
80008d23: 69 6f 6c 61 74 65 64 3a         iolated:
80008d2b: 20 70 74 72 3a 3a 63 6f          ptr::co
80008d33: 70 79 5f 6e 6f 6e 6f 76         py_nonov
80008d3b: 65 72 6c 61 70 70 69 6e         erlappin
80008d43: 67 20 72 65 71 75 69 72         g requir
80008d4b: 65 73 20 74 68 61 74 20         es that 
80008d53: 62 6f 74 68 20 70 6f 69         both poi
80008d5b: 6e 74 65 72 20 61 72 67         nter arg
80008d63: 75 6d 65 6e 74 73 20 61         uments a
80008d6b: 72 65 20 61 6c 69 67 6e         re align
80008d73: 65 64 20 61 6e 64 20 6e         ed and n
80008d7b: 6f 6e 2d 6e 75 6c 6c 20         on-null 
80008d83: 61 6e 64 20 74 68 65 20         and the 
80008d8b: 73 70 65 63 69 66 69 65         specifie
80008d93: 64 20 6d 65 6d 6f 72 79         d memory
80008d9b: 20 72 61 6e 67 65 73 20          ranges 
80008da3: 64 6f 20 6e 6f 74 20 6f         do not o
80008dab: 76 65 72 6c 61 70 0a 0a         verlap..
80008db3: 54 68 69 73 20 69 6e 64         This ind
80008dbb: 69 63 61 74 65 73 20 61         icates a
80008dc3: 20 62 75 67 20 69 6e 20          bug in 
80008dcb: 74 68 65 20 70 72 6f 67         the prog
80008dd3: 72 61 6d 2e 20 54 68 69         ram. Thi
80008ddb: 73 20 55 6e 64 65 66 69         s Undefi
80008de3: 6e 65 64 20 42 65 68 61         ned Beha
80008deb: 76 69 6f 72 20 63 68 65         vior che
80008df3: 63 6b 20 69 73 20 6f 70         ck is op
80008dfb: 74 69 6f 6e 61 6c 2c 20         tional, 
80008e03: 61 6e 64 20 63 61 6e 6e         and cann
80008e0b: 6f 74 20 62 65 20 72 65         ot be re
80008e13: 6c 69 65 64 20 6f 6e 20         lied on 
80008e1b: 66 6f 72 20 73 61 66 65         for safe
80008e23: 74 79 2e                        ty.

0000000080008e26 <.Lanon.14ffe1c0e39bb5c81a53741574786b5c.0>:
80008e26: 75 6e 73 61 66 65 20 70         unsafe p
80008e2e: 72 65 63 6f 6e 64 69 74         recondit
80008e36: 69 6f 6e 28 73 29 20 76         ion(s) v
80008e3e: 69 6f 6c 61 74 65 64 3a         iolated:
80008e46: 20 73 6c 69 63 65 3a 3a          slice::
80008e4e: 67 65 74 5f 75 6e 63 68         get_unch
80008e56: 65 63 6b 65 64 20 72 65         ecked re
80008e5e: 71 75 69 72 65 73 20 74         quires t
80008e66: 68 61 74 20 74 68 65 20         hat the 
80008e6e: 69 6e 64 65 78 20 69 73         index is
80008e76: 20 77 69 74 68 69 6e 20          within 
80008e7e: 74 68 65 20 73 6c 69 63         the slic
80008e86: 65 0a 0a 54 68 69 73 20         e..This 
80008e8e: 69 6e 64 69 63 61 74 65         indicate
80008e96: 73 20 61 20 62 75 67 20         s a bug 
80008e9e: 69 6e 20 74 68 65 20 70         in the p
80008ea6: 72 6f 67 72 61 6d 2e 20         rogram. 
80008eae: 54 68 69 73 20 55 6e 64         This Und
80008eb6: 65 66 69 6e 65 64 20 42         efined B
80008ebe: 65 68 61 76 69 6f 72 20         ehavior 
80008ec6: 63 68 65 63 6b 20 69 73         check is
80008ece: 20 6f 70 74 69 6f 6e 61          optiona
80008ed6: 6c 2c 20 61 6e 64 20 63         l, and c
80008ede: 61 6e 6e 6f 74 20 62 65         annot be
80008ee6: 20 72 65 6c 69 65 64 20          relied 
80008eee: 6f 6e 20 66 6f 72 20 73         on for s
80008ef6: 61 66 65 74 79 2e 00 00         afety...
80008efe: 00 00                           ..

0000000080008f00 <.Lanon.2026d8ade91104774f9ec8b0b8c5ff4e.1>:
80008f00: da 6d 00 80 00 00 00 00         .m......
80008f08: 4b 00 00 00 00 00 00 00         K.......
80008f10: 71 03 00 00 2a 00 00 00         q...*...

0000000080008f18 <.Lanon.536f2323b683c81b361b85010efd6979.10>:
80008f18: 30 30 30 31 30 32 30 33         00010203
80008f20: 30 34 30 35 30 36 30 37         04050607
80008f28: 30 38 30 39 31 30 31 31         08091011
80008f30: 31 32 31 33 31 34 31 35         12131415
80008f38: 31 36 31 37 31 38 31 39         16171819
80008f40: 32 30 32 31 32 32 32 33         20212223
80008f48: 32 34 32 35 32 36 32 37         24252627
80008f50: 32 38 32 39 33 30 33 31         28293031
80008f58: 33 32 33 33 33 34 33 35         32333435
80008f60: 33 36 33 37 33 38 33 39         36373839
80008f68: 34 30 34 31 34 32 34 33         40414243
80008f70: 34 34 34 35 34 36 34 37         44454647
80008f78: 34 38 34 39 35 30 35 31         48495051
80008f80: 35 32 35 33 35 34 35 35         52535455
80008f88: 35 36 35 37 35 38 35 39         56575859
80008f90: 36 30 36 31 36 32 36 33         60616263
80008f98: 36 34 36 35 36 36 36 37         64656667
80008fa0: 36 38 36 39 37 30 37 31         68697071
80008fa8: 37 32 37 33 37 34 37 35         72737475
80008fb0: 37 36 37 37 37 38 37 39         76777879
80008fb8: 38 30 38 31 38 32 38 33         80818283
80008fc0: 38 34 38 35 38 36 38 37         84858687
80008fc8: 38 38 38 39 39 30 39 31         88899091
80008fd0: 39 32 39 33 39 34 39 35         92939495
80008fd8: 39 36 39 37 39 38 39 39         96979899

0000000080008fe0 <.Lanon.536f2323b683c81b361b85010efd6979.22>:
80008fe0: fb 6f 00 80 00 00 00 00         .o......
80008fe8: 4b 00 00 00 00 00 00 00         K.......
80008ff0: 57 02 00 00 05 00 00 00         W.......

0000000080008ff8 <.Lanon.536f2323b683c81b361b85010efd6979.31>:
80008ff8: 30 78                           0x

0000000080008ffa <.Lanon.536f2323b683c81b361b85010efd6979.80>:
80008ffa: 61 74 74 65 6d 70 74 20         attempt 
80009002: 74 6f 20 61 64 64 20 77         to add w
8000900a: 69 74 68 20 6f 76 65 72         ith over
80009012: 66 6c 6f 77                     flow

0000000080009016 <.Lanon.536f2323b683c81b361b85010efd6979.82>:
80009016: 61 74 74 65 6d 70 74 20         attempt 
8000901e: 74 6f 20 6d 75 6c 74 69         to multi
80009026: 70 6c 79 20 77 69 74 68         ply with
8000902e: 20 6f 76 65 72 66 6c 6f          overflo
80009036: 77                              w

0000000080009037 <.Lanon.536f2323b683c81b361b85010efd6979.87>:
80009037: 61 74 74 65 6d 70 74 20         attempt 
8000903f: 74 6f 20 73 75 62 74 72         to subtr
80009047: 61 63 74 20 77 69 74 68         act with
8000904f: 20 6f 76 65 72 66 6c 6f          overflo
80009057: 77                              w

0000000080009058 <.Lanon.536f2323b683c81b361b85010efd6979.259>:
80009058: 61 74 74 65 6d 70 74 20         attempt 
80009060: 74 6f 20 64 69 76 69 64         to divid
80009068: 65 20 62 79 20 7a 65 72         e by zer
80009070: 6f 00 00 00 00 00 00 00         o.......

0000000080009078 <.Lanon.536f2323b683c81b361b85010efd6979.277>:
80009078: 91 71 00 80 00 00 00 00         .q......
80009080: 4d 00 00 00 00 00 00 00         M.......
80009088: e1 00 00 00 05 00 00 00         ........

0000000080009090 <.Lanon.536f2323b683c81b361b85010efd6979.288>:
80009090: 6e 75 6c 6c 20 70 6f 69         null poi
80009098: 6e 74 65 72 20 64 65 72         nter der
800090a0: 65 66 65 72 65 6e 63 65         eference
800090a8: 20 6f 63 63 75 72 72 65          occurre
800090b0: 64                              d

00000000800090b1 <.Lanon.536f2323b683c81b361b85010efd6979.290>:
800090b1: 3e 6d 69 73 61 6c 69 67         >misalig
800090b9: 6e 65 64 20 70 6f 69 6e         ned poin
800090c1: 74 65 72 20 64 65 72 65         ter dere
800090c9: 66 65 72 65 6e 63 65 3a         ference:
800090d1: 20 61 64 64 72 65 73 73          address
800090d9: 20 6d 75 73 74 20 62 65          must be
800090e1: 20 61 20 6d 75 6c 74 69          a multi
800090e9: 70 6c 65 20 6f 66 20 c1         ple of .
800090f1: 20 00 80 60 08 20 62 75          ..`. bu
800090f9: 74 20 69 73 20 c1 20 00         t is . .
80009101: 80 60 00                        .`.

0000000080009104 <.Lanon.536f2323b683c81b361b85010efd6979.399>:
80009104: 70 61 6e 69 63 6b 65 64         panicked
8000910c: 20 61 74 20                      at 

0000000080009110 <.Lanon.536f2323b683c81b361b85010efd6979.400>:
80009110: 3a 0a                           :.
